ARM GAS  /tmp/ccvBeH0v.s 			page 1


   1              		.cpu arm1176jz-s
   2              		.fpu softvfp
   3              		.eabi_attribute 20, 1
   4              		.eabi_attribute 21, 1
   5              		.eabi_attribute 23, 3
   6              		.eabi_attribute 24, 1
   7              		.eabi_attribute 25, 1
   8              		.eabi_attribute 26, 1
   9              		.eabi_attribute 30, 2
  10              		.eabi_attribute 34, 1
  11              		.eabi_attribute 18, 4
  12              		.file	"chcond.c"
  13              		.text
  14              	.Ltext0:
  15              		.cfi_sections	.debug_frame
  16              		.section	.text.chCondInit,"ax",%progbits
  17              		.align	2
  18              		.global	chCondInit
  19              		.type	chCondInit, %function
  20              	chCondInit:
  21              	.LFB7:
  22              		.file 1 "../../os/kernel/src/chcond.c"
  23              		.loc 1 52 0
  24              		.cfi_startproc
  25              		@ args = 0, pretend = 0, frame = 0
  26              		@ frame_needed = 0, uses_anonymous_args = 0
  27              		@ link register save eliminated.
  28              	.LVL0:
  29              		.loc 1 56 0
  30 0000 040080E5 		str	r0, [r0, #4]
  31 0004 000080E5 		str	r0, [r0]
  32 0008 1EFF2FE1 		bx	lr
  33              		.cfi_endproc
  34              	.LFE7:
  35              		.size	chCondInit, .-chCondInit
  36              		.section	.text.chCondSignal,"ax",%progbits
  37              		.align	2
  38              		.global	chCondSignal
  39              		.type	chCondSignal, %function
  40              	chCondSignal:
  41              	.LFB8:
  42              		.loc 1 66 0
  43              		.cfi_startproc
  44              		@ args = 0, pretend = 0, frame = 0
  45              		@ frame_needed = 0, uses_anonymous_args = 0
  46              	.LVL1:
  47              		.loc 1 70 0
  48              	@ 70 "../../os/kernel/src/chcond.c" 1
  49 0000 9FF021E3 		msr     CPSR_c, #0x9F
  50              	@ 0 "" 2
  51              		.loc 1 71 0
  52 0004 002090E5 		ldr	r2, [r0]
  53 0008 000052E1 		cmp	r2, r0
  54 000c 0900000A 		beq	.L5
  55              		.loc 1 66 0
  56 0010 08402DE9 		stmfd	sp!, {r3, lr}
  57              		.cfi_def_cfa_offset 8
ARM GAS  /tmp/ccvBeH0v.s 			page 2


  58              		.cfi_offset 3, -8
  59              		.cfi_offset 14, -4
  60 0014 0030A0E1 		mov	r3, r0
  61              	.LVL2:
  62              	.LBB12:
  63              	.LBB13:
  64              		.file 2 "../../os/kernel/include/chinline.h"
  65              		.loc 2 55 0
  66 0018 00C092E5 		ldr	ip, [r2]
  67              	.LBE13:
  68              	.LBE12:
  69              		.loc 1 72 0
  70 001c 0200A0E1 		mov	r0, r2
  71              	.LVL3:
  72              	.LBB16:
  73              	.LBB14:
  74              		.loc 2 55 0
  75 0020 00C083E5 		str	ip, [r3]
  76              	.LBE14:
  77              	.LBE16:
  78              		.loc 1 72 0
  79 0024 0010A0E3 		mov	r1, #0
  80              	.LBB17:
  81              	.LBB15:
  82              		.loc 2 55 0
  83 0028 04308CE5 		str	r3, [ip, #4]
  84              	.LBE15:
  85              	.LBE17:
  86              		.loc 1 72 0
  87 002c FEFFFFEB 		bl	chSchWakeupS
  88              	.LVL4:
  89              		.loc 1 73 0
  90              	@ 73 "../../os/kernel/src/chcond.c" 1
  91 0030 1FF021E3 		msr     CPSR_c, #0x1F
  92              	@ 0 "" 2
  93 0034 0880BDE8 		ldmfd	sp!, {r3, pc}
  94              	.LVL5:
  95              	.L5:
  96              		.cfi_def_cfa_offset 0
  97              		.cfi_restore 3
  98              		.cfi_restore 14
  99              	@ 73 "../../os/kernel/src/chcond.c" 1
 100 0038 1FF021E3 		msr     CPSR_c, #0x1F
 101              	@ 0 "" 2
 102 003c 1EFF2FE1 		bx	lr
 103              		.cfi_endproc
 104              	.LFE8:
 105              		.size	chCondSignal, .-chCondSignal
 106              		.section	.text.chCondSignalI,"ax",%progbits
 107              		.align	2
 108              		.global	chCondSignalI
 109              		.type	chCondSignalI, %function
 110              	chCondSignalI:
 111              	.LFB9:
 112              		.loc 1 87 0
 113              		.cfi_startproc
 114              		@ args = 0, pretend = 0, frame = 0
ARM GAS  /tmp/ccvBeH0v.s 			page 3


 115              		@ frame_needed = 0, uses_anonymous_args = 0
 116              	.LVL6:
 117              		.loc 1 92 0
 118 0000 002090E5 		ldr	r2, [r0]
 119 0004 000052E1 		cmp	r2, r0
 120 0008 1EFF2F01 		bxeq	lr
 121              		.loc 1 87 0
 122 000c 08402DE9 		stmfd	sp!, {r3, lr}
 123              		.cfi_def_cfa_offset 8
 124              		.cfi_offset 3, -8
 125              		.cfi_offset 14, -4
 126 0010 0030A0E1 		mov	r3, r0
 127              	.LVL7:
 128              	.LBB18:
 129              	.LBB19:
 130              		.loc 2 55 0
 131 0014 001092E5 		ldr	r1, [r2]
 132              	.LBE19:
 133              	.LBE18:
 134              		.loc 1 93 0
 135 0018 0200A0E1 		mov	r0, r2
 136              	.LVL8:
 137              	.LBB21:
 138              	.LBB20:
 139              		.loc 2 55 0
 140 001c 001083E5 		str	r1, [r3]
 141 0020 043081E5 		str	r3, [r1, #4]
 142              	.LBE20:
 143              	.LBE21:
 144              		.loc 1 93 0
 145 0024 FEFFFFEB 		bl	chSchReadyI
 146              	.LVL9:
 147 0028 0030A0E3 		mov	r3, #0
 148 002c 243080E5 		str	r3, [r0, #36]
 149 0030 0880BDE8 		ldmfd	sp!, {r3, pc}
 150              		.cfi_endproc
 151              	.LFE9:
 152              		.size	chCondSignalI, .-chCondSignalI
 153              		.section	.text.chCondBroadcastI,"ax",%progbits
 154              		.align	2
 155              		.global	chCondBroadcastI
 156              		.type	chCondBroadcastI, %function
 157              	chCondBroadcastI:
 158              	.LFB11:
 159              		.loc 1 122 0
 160              		.cfi_startproc
 161              		@ args = 0, pretend = 0, frame = 0
 162              		@ frame_needed = 0, uses_anonymous_args = 0
 163              	.LVL10:
 164 0000 38402DE9 		stmfd	sp!, {r3, r4, r5, lr}
 165              		.cfi_def_cfa_offset 16
 166              		.cfi_offset 3, -16
 167              		.cfi_offset 4, -12
 168              		.cfi_offset 5, -8
 169              		.cfi_offset 14, -4
 170              		.loc 1 122 0
 171 0004 0040A0E1 		mov	r4, r0
ARM GAS  /tmp/ccvBeH0v.s 			page 4


 172              		.loc 1 130 0
 173 0008 000090E5 		ldr	r0, [r0]
 174              	.LVL11:
 175 000c 040050E1 		cmp	r0, r4
 176 0010 3880BD08 		ldmeqfd	sp!, {r3, r4, r5, pc}
 177              		.loc 1 131 0
 178 0014 0150E0E3 		mvn	r5, #1
 179              	.L13:
 180              	.LVL12:
 181              	.LBB22:
 182              	.LBB23:
 183              		.loc 2 55 0
 184 0018 003090E5 		ldr	r3, [r0]
 185 001c 003084E5 		str	r3, [r4]
 186 0020 044083E5 		str	r4, [r3, #4]
 187              	.LBE23:
 188              	.LBE22:
 189              		.loc 1 131 0
 190 0024 FEFFFFEB 		bl	chSchReadyI
 191              	.LVL13:
 192 0028 245080E5 		str	r5, [r0, #36]
 193              		.loc 1 130 0
 194 002c 000094E5 		ldr	r0, [r4]
 195 0030 040050E1 		cmp	r0, r4
 196 0034 F7FFFF1A 		bne	.L13
 197 0038 3880BDE8 		ldmfd	sp!, {r3, r4, r5, pc}
 198              		.cfi_endproc
 199              	.LFE11:
 200              		.size	chCondBroadcastI, .-chCondBroadcastI
 201              		.section	.text.chCondBroadcast,"ax",%progbits
 202              		.align	2
 203              		.global	chCondBroadcast
 204              		.type	chCondBroadcast, %function
 205              	chCondBroadcast:
 206              	.LFB10:
 207              		.loc 1 103 0
 208              		.cfi_startproc
 209              		@ args = 0, pretend = 0, frame = 0
 210              		@ frame_needed = 0, uses_anonymous_args = 0
 211              	.LVL14:
 212 0000 08402DE9 		stmfd	sp!, {r3, lr}
 213              		.cfi_def_cfa_offset 8
 214              		.cfi_offset 3, -8
 215              		.cfi_offset 14, -4
 216              		.loc 1 105 0
 217              	@ 105 "../../os/kernel/src/chcond.c" 1
 218 0004 9FF021E3 		msr     CPSR_c, #0x9F
 219              	@ 0 "" 2
 220              		.loc 1 106 0
 221 0008 FEFFFFEB 		bl	chCondBroadcastI
 222              	.LVL15:
 223              		.loc 1 107 0
 224 000c FEFFFFEB 		bl	chSchRescheduleS
 225              	.LVL16:
 226              		.loc 1 108 0
 227              	@ 108 "../../os/kernel/src/chcond.c" 1
 228 0010 1FF021E3 		msr     CPSR_c, #0x1F
ARM GAS  /tmp/ccvBeH0v.s 			page 5


 229              	@ 0 "" 2
 230 0014 0880BDE8 		ldmfd	sp!, {r3, pc}
 231              		.cfi_endproc
 232              	.LFE10:
 233              		.size	chCondBroadcast, .-chCondBroadcast
 234              		.section	.text.chCondWaitS,"ax",%progbits
 235              		.align	2
 236              		.global	chCondWaitS
 237              		.type	chCondWaitS, %function
 238              	chCondWaitS:
 239              	.LFB13:
 240              		.loc 1 177 0
 241              		.cfi_startproc
 242              		@ args = 0, pretend = 0, frame = 0
 243              		@ frame_needed = 0, uses_anonymous_args = 0
 244              	.LVL17:
 245              		.loc 1 178 0
 246 0000 68309FE5 		ldr	r3, .L27
 247              		.loc 1 177 0
 248 0004 70402DE9 		stmfd	sp!, {r4, r5, r6, lr}
 249              		.cfi_def_cfa_offset 16
 250              		.cfi_offset 4, -16
 251              		.cfi_offset 5, -12
 252              		.cfi_offset 6, -8
 253              		.cfi_offset 14, -4
 254              		.loc 1 177 0
 255 0008 0050A0E1 		mov	r5, r0
 256              		.loc 1 178 0
 257 000c 184093E5 		ldr	r4, [r3, #24]
 258              	.LVL18:
 259              		.loc 1 188 0
 260 0010 FEFFFFEB 		bl	chMtxUnlockS
 261              	.LVL19:
 262              	.LBB24:
 263              	.LBB25:
 264              		.loc 2 36 0
 265 0014 0530A0E1 		mov	r3, r5
 266              	.LBE25:
 267              	.LBE24:
 268              		.loc 1 188 0
 269 0018 0060A0E1 		mov	r6, r0
 270              	.LVL20:
 271              		.loc 1 189 0
 272 001c 245084E5 		str	r5, [r4, #36]
 273              	.LVL21:
 274 0020 030000EA 		b	.L21
 275              	.LVL22:
 276              	.L26:
 277              	.LBB28:
 278              	.LBB26:
 279              		.loc 2 39 0
 280 0024 081093E5 		ldr	r1, [r3, #8]
 281 0028 082094E5 		ldr	r2, [r4, #8]
 282 002c 020051E1 		cmp	r1, r2
 283 0030 0200003A 		bcc	.L22
 284              	.L21:
 285              		.loc 2 38 0
ARM GAS  /tmp/ccvBeH0v.s 			page 6


 286 0034 003093E5 		ldr	r3, [r3]
 287              	.LVL23:
 288              		.loc 2 39 0
 289 0038 030055E1 		cmp	r5, r3
 290 003c F8FFFF1A 		bne	.L26
 291              	.L22:
 292              		.loc 2 41 0
 293 0040 042093E5 		ldr	r2, [r3, #4]
 294              	.LBE26:
 295              	.LBE28:
 296              		.loc 1 191 0
 297 0044 0500A0E3 		mov	r0, #5
 298              	.LVL24:
 299              	.LBB29:
 300              	.LBB27:
 301              		.loc 2 40 0
 302 0048 003084E5 		str	r3, [r4]
 303              		.loc 2 41 0
 304 004c 042084E5 		str	r2, [r4, #4]
 305              		.loc 2 42 0
 306 0050 044083E5 		str	r4, [r3, #4]
 307 0054 004082E5 		str	r4, [r2]
 308              	.LBE27:
 309              	.LBE29:
 310              		.loc 1 191 0
 311 0058 FEFFFFEB 		bl	chSchGoSleepS
 312              	.LVL25:
 313              		.loc 1 192 0
 314 005c 244094E5 		ldr	r4, [r4, #36]
 315              	.LVL26:
 316              		.loc 1 193 0
 317 0060 0600A0E1 		mov	r0, r6
 318 0064 FEFFFFEB 		bl	chMtxLockS
 319              	.LVL27:
 320              		.loc 1 195 0
 321 0068 0400A0E1 		mov	r0, r4
 322 006c 7080BDE8 		ldmfd	sp!, {r4, r5, r6, pc}
 323              	.L28:
 324              		.align	2
 325              	.L27:
 326 0070 00000000 		.word	rlist
 327              		.cfi_endproc
 328              	.LFE13:
 329              		.size	chCondWaitS, .-chCondWaitS
 330              		.section	.text.chCondWait,"ax",%progbits
 331              		.align	2
 332              		.global	chCondWait
 333              		.type	chCondWait, %function
 334              	chCondWait:
 335              	.LFB12:
 336              		.loc 1 151 0
 337              		.cfi_startproc
 338              		@ args = 0, pretend = 0, frame = 0
 339              		@ frame_needed = 0, uses_anonymous_args = 0
 340              	.LVL28:
 341 0000 08402DE9 		stmfd	sp!, {r3, lr}
 342              		.cfi_def_cfa_offset 8
ARM GAS  /tmp/ccvBeH0v.s 			page 7


 343              		.cfi_offset 3, -8
 344              		.cfi_offset 14, -4
 345              		.loc 1 154 0
 346              	@ 154 "../../os/kernel/src/chcond.c" 1
 347 0004 9FF021E3 		msr     CPSR_c, #0x9F
 348              	@ 0 "" 2
 349              		.loc 1 155 0
 350 0008 FEFFFFEB 		bl	chCondWaitS
 351              	.LVL29:
 352              		.loc 1 156 0
 353              	@ 156 "../../os/kernel/src/chcond.c" 1
 354 000c 1FF021E3 		msr     CPSR_c, #0x1F
 355              	@ 0 "" 2
 356              		.loc 1 158 0
 357 0010 0880BDE8 		ldmfd	sp!, {r3, pc}
 358              		.cfi_endproc
 359              	.LFE12:
 360              		.size	chCondWait, .-chCondWait
 361              		.section	.text.chCondWaitTimeoutS,"ax",%progbits
 362              		.align	2
 363              		.global	chCondWaitTimeoutS
 364              		.type	chCondWaitTimeoutS, %function
 365              	chCondWaitTimeoutS:
 366              	.LFB15:
 367              		.loc 1 263 0
 368              		.cfi_startproc
 369              		@ args = 0, pretend = 0, frame = 0
 370              		@ frame_needed = 0, uses_anonymous_args = 0
 371              	.LVL30:
 372 0000 70402DE9 		stmfd	sp!, {r4, r5, r6, lr}
 373              		.cfi_def_cfa_offset 16
 374              		.cfi_offset 4, -16
 375              		.cfi_offset 5, -12
 376              		.cfi_offset 6, -8
 377              		.cfi_offset 14, -4
 378              		.loc 1 263 0
 379 0004 0040A0E1 		mov	r4, r0
 380 0008 0160A0E1 		mov	r6, r1
 381              		.loc 1 273 0
 382 000c FEFFFFEB 		bl	chMtxUnlockS
 383              	.LVL31:
 384              		.loc 1 274 0
 385 0010 68209FE5 		ldr	r2, .L39
 386              		.loc 1 273 0
 387 0014 0050A0E1 		mov	r5, r0
 388              	.LVL32:
 389              		.loc 1 274 0
 390 0018 18C092E5 		ldr	ip, [r2, #24]
 391              	.LBB30:
 392              	.LBB31:
 393              		.loc 2 36 0
 394 001c 0430A0E1 		mov	r3, r4
 395              	.LBE31:
 396              	.LBE30:
 397              		.loc 1 274 0
 398 0020 24408CE5 		str	r4, [ip, #36]
 399              	.LVL33:
ARM GAS  /tmp/ccvBeH0v.s 			page 8


 400 0024 030000EA 		b	.L35
 401              	.LVL34:
 402              	.L32:
 403              	.LBB35:
 404              	.LBB32:
 405              		.loc 2 39 0
 406 0028 080093E5 		ldr	r0, [r3, #8]
 407 002c 08209CE5 		ldr	r2, [ip, #8]
 408 0030 020050E1 		cmp	r0, r2
 409 0034 0200003A 		bcc	.L36
 410              	.L35:
 411              		.loc 2 38 0
 412 0038 003093E5 		ldr	r3, [r3]
 413              	.LVL35:
 414              		.loc 2 39 0
 415 003c 030054E1 		cmp	r4, r3
 416 0040 F8FFFF1A 		bne	.L32
 417              	.L36:
 418              		.loc 2 41 0
 419 0044 042093E5 		ldr	r2, [r3, #4]
 420              	.LBE32:
 421              	.LBE35:
 422              		.loc 1 276 0
 423 0048 0610A0E1 		mov	r1, r6
 424              	.LBB36:
 425              	.LBB33:
 426              		.loc 2 40 0
 427 004c 00308CE5 		str	r3, [ip]
 428              		.loc 2 41 0
 429 0050 04208CE5 		str	r2, [ip, #4]
 430              	.LBE33:
 431              	.LBE36:
 432              		.loc 1 276 0
 433 0054 0500A0E3 		mov	r0, #5
 434              	.LBB37:
 435              	.LBB34:
 436              		.loc 2 42 0
 437 0058 04C083E5 		str	ip, [r3, #4]
 438 005c 00C082E5 		str	ip, [r2]
 439              	.LBE34:
 440              	.LBE37:
 441              		.loc 1 276 0
 442 0060 FEFFFFEB 		bl	chSchGoSleepTimeoutS
 443              	.LVL36:
 444              		.loc 1 277 0
 445 0064 010070E3 		cmn	r0, #1
 446              		.loc 1 276 0
 447 0068 0040A0E1 		mov	r4, r0
 448              	.LVL37:
 449              		.loc 1 277 0
 450 006c 0100000A 		beq	.L34
 451              		.loc 1 278 0
 452 0070 0500A0E1 		mov	r0, r5
 453              	.LVL38:
 454 0074 FEFFFFEB 		bl	chMtxLockS
 455              	.LVL39:
 456              	.L34:
ARM GAS  /tmp/ccvBeH0v.s 			page 9


 457              		.loc 1 280 0
 458 0078 0400A0E1 		mov	r0, r4
 459 007c 7080BDE8 		ldmfd	sp!, {r4, r5, r6, pc}
 460              	.L40:
 461              		.align	2
 462              	.L39:
 463 0080 00000000 		.word	rlist
 464              		.cfi_endproc
 465              	.LFE15:
 466              		.size	chCondWaitTimeoutS, .-chCondWaitTimeoutS
 467              		.section	.text.chCondWaitTimeout,"ax",%progbits
 468              		.align	2
 469              		.global	chCondWaitTimeout
 470              		.type	chCondWaitTimeout, %function
 471              	chCondWaitTimeout:
 472              	.LFB14:
 473              		.loc 1 226 0
 474              		.cfi_startproc
 475              		@ args = 0, pretend = 0, frame = 0
 476              		@ frame_needed = 0, uses_anonymous_args = 0
 477              	.LVL40:
 478 0000 08402DE9 		stmfd	sp!, {r3, lr}
 479              		.cfi_def_cfa_offset 8
 480              		.cfi_offset 3, -8
 481              		.cfi_offset 14, -4
 482              		.loc 1 229 0
 483              	@ 229 "../../os/kernel/src/chcond.c" 1
 484 0004 9FF021E3 		msr     CPSR_c, #0x9F
 485              	@ 0 "" 2
 486              		.loc 1 230 0
 487 0008 FEFFFFEB 		bl	chCondWaitTimeoutS
 488              	.LVL41:
 489              		.loc 1 231 0
 490              	@ 231 "../../os/kernel/src/chcond.c" 1
 491 000c 1FF021E3 		msr     CPSR_c, #0x1F
 492              	@ 0 "" 2
 493              		.loc 1 233 0
 494 0010 0880BDE8 		ldmfd	sp!, {r3, pc}
 495              		.cfi_endproc
 496              	.LFE14:
 497              		.size	chCondWaitTimeout, .-chCondWaitTimeout
 498              		.text
 499              	.Letext0:
 500              		.file 3 "/usr/include/newlib/machine/_default_types.h"
 501              		.file 4 "/usr/include/newlib/sys/_stdint.h"
 502              		.file 5 "../../os/ports/GCC/ARM/chtypes.h"
 503              		.file 6 "../../os/kernel/include/chlists.h"
 504              		.file 7 "../../os/kernel/include/chthreads.h"
 505              		.file 8 "../../os/ports/GCC/ARM/chcore.h"
 506              		.file 9 "../../os/kernel/include/chschd.h"
 507              		.file 10 "../../os/kernel/include/chmtx.h"
 508              		.file 11 "../../os/kernel/include/chcond.h"