ARM GAS  /tmp/ccvBeH0v.s 			page 1


   1              		.cpu arm1176jz-s
   2              		.fpu softvfp
   3              		.eabi_attribute 20, 1
   4              		.eabi_attribute 21, 1
   5              		.eabi_attribute 23, 3
   6              		.eabi_attribute 24, 1
   7              		.eabi_attribute 25, 1
   8              		.eabi_attribute 26, 1
   9              		.eabi_attribute 30, 2
  10              		.eabi_attribute 34, 1
  11              		.eabi_attribute 18, 4
  12              		.file	"chcond.c"
  13              		.text
  14              	.Ltext0:
  15              		.cfi_sections	.debug_frame
  16              		.section	.text.chCondInit,"ax",%progbits
  17              		.align	2
  18              		.global	chCondInit
  19              		.type	chCondInit, %function
  20              	chCondInit:
  21              	.LFB7:
  22              		.file 1 "../../os/kernel/src/chcond.c"
  23              		.loc 1 52 0
  24              		.cfi_startproc
  25              		@ args = 0, pretend = 0, frame = 0
  26              		@ frame_needed = 0, uses_anonymous_args = 0
  27              		@ link register save eliminated.
  28              	.LVL0:
  29              		.loc 1 56 0
  30 0000 040080E5 		str	r0, [r0, #4]
  31 0004 000080E5 		str	r0, [r0]
  32 0008 1EFF2FE1 		bx	lr
  33              		.cfi_endproc
  34              	.LFE7:
  35              		.size	chCondInit, .-chCondInit
  36              		.section	.text.chCondSignal,"ax",%progbits
  37              		.align	2
  38              		.global	chCondSignal
  39              		.type	chCondSignal, %function
  40              	chCondSignal:
  41              	.LFB8:
  42              		.loc 1 66 0
  43              		.cfi_startproc
  44              		@ args = 0, pretend = 0, frame = 0
  45              		@ frame_needed = 0, uses_anonymous_args = 0
  46              	.LVL1:
  47              		.loc 1 70 0
  48              	@ 70 "../../os/kernel/src/chcond.c" 1
  49 0000 9FF021E3 		msr     CPSR_c, #0x9F
  50              	@ 0 "" 2
  51              		.loc 1 71 0
  52 0004 002090E5 		ldr	r2, [r0]
  53 0008 000052E1 		cmp	r2, r0
  54 000c 0900000A 		beq	.L5
  55              		.loc 1 66 0
  56 0010 08402DE9 		stmfd	sp!, {r3, lr}
  57              		.cfi_def_cfa_offset 8
ARM GAS  /tmp/ccvBeH0v.s 			page 2


  58              		.cfi_offset 3, -8
  59              		.cfi_offset 14, -4
  60 0014 0030A0E1 		mov	r3, r0
  61              	.LVL2:
  62              	.LBB12:
  63              	.LBB13:
  64              		.file 2 "../../os/kernel/include/chinline.h"
  65              		.loc 2 55 0
  66 0018 00C092E5 		ldr	ip, [r2]
  67              	.LBE13:
  68              	.LBE12:
  69              		.loc 1 72 0
  70 001c 0200A0E1 		mov	r0, r2
  71              	.LVL3:
  72              	.LBB16:
  73              	.LBB14:
  74              		.loc 2 55 0
  75 0020 00C083E5 		str	ip, [r3]
  76              	.LBE14:
  77              	.LBE16:
  78              		.loc 1 72 0
  79 0024 0010A0E3 		mov	r1, #0
  80              	.LBB17:
  81              	.LBB15:
  82              		.loc 2 55 0
  83 0028 04308CE5 		str	r3, [ip, #4]
  84              	.LBE15:
  85              	.LBE17:
  86              		.loc 1 72 0
  87 002c FEFFFFEB 		bl	chSchWakeupS
  88              	.LVL4:
  89              		.loc 1 73 0
  90              	@ 73 "../../os/kernel/src/chcond.c" 1
  91 0030 1FF021E3 		msr     CPSR_c, #0x1F
  92              	@ 0 "" 2
  93 0034 0880BDE8 		ldmfd	sp!, {r3, pc}
  94              	.LVL5:
  95              	.L5:
  96              		.cfi_def_cfa_offset 0
  97              		.cfi_restore 3
  98              		.cfi_restore 14
  99              	@ 73 "../../os/kernel/src/chcond.c" 1
 100 0038 1FF021E3 		msr     CPSR_c, #0x1F
 101              	@ 0 "" 2
 102 003c 1EFF2FE1 		bx	lr
 103              		.cfi_endproc
 104              	.LFE8:
 105              		.size	chCondSignal, .-chCondSignal
 106              		.section	.text.chCondSignalI,"ax",%progbits
 107              		.align	2
 108              		.global	chCondSignalI
 109              		.type	chCondSignalI, %function
 110              	chCondSignalI:
 111              	.LFB9:
 112              		.loc 1 87 0
 113              		.cfi_startproc
 114              		@ args = 0, pretend = 0, frame = 0
ARM GAS  /tmp/ccvBeH0v.s 			page 3


 115              		@ frame_needed = 0, uses_anonymous_args = 0
 116              	.LVL6:
 117              		.loc 1 92 0
 118 0000 002090E5 		ldr	r2, [r0]
 119 0004 000052E1 		cmp	r2, r0
 120 0008 1EFF2F01 		bxeq	lr
 121              		.loc 1 87 0
 122 000c 08402DE9 		stmfd	sp!, {r3, lr}
 123              		.cfi_def_cfa_offset 8
 124              		.cfi_offset 3, -8
 125              		.cfi_offset 14, -4
 126 0010 0030A0E1 		mov	r3, r0
 127              	.LVL7:
 128              	.LBB18:
 129              	.LBB19:
 130              		.loc 2 55 0
 131 0014 001092E5 		ldr	r1, [r2]
 132              	.LBE19:
 133              	.LBE18:
 134              		.loc 1 93 0
 135 0018 0200A0E1 		mov	r0, r2
 136              	.LVL8:
 137              	.LBB21:
 138              	.LBB20:
 139              		.loc 2 55 0
 140 001c 001083E5 		str	r1, [r3]
 141 0020 043081E5 		str	r3, [r1, #4]
 142              	.LBE20:
 143              	.LBE21:
 144              		.loc 1 93 0
 145 0024 FEFFFFEB 		bl	chSchReadyI
 146              	.LVL9:
 147 0028 0030A0E3 		mov	r3, #0
 148 002c 243080E5 		str	r3, [r0, #36]
 149 0030 0880BDE8 		ldmfd	sp!, {r3, pc}
 150              		.cfi_endproc
 151              	.LFE9:
 152              		.size	chCondSignalI, .-chCondSignalI
 153              		.section	.text.chCondBroadcastI,"ax",%progbits
 154              		.align	2
 155              		.global	chCondBroadcastI
 156              		.type	chCondBroadcastI, %function
 157              	chCondBroadcastI:
 158              	.LFB11:
 159              		.loc 1 122 0
 160              		.cfi_startproc
 161              		@ args = 0, pretend = 0, frame = 0
 162              		@ frame_needed = 0, uses_anonymous_args = 0
 163              	.LVL10:
 164 0000 38402DE9 		stmfd	sp!, {r3, r4, r5, lr}
 165              		.cfi_def_cfa_offset 16
 166              		.cfi_offset 3, -16
 167              		.cfi_offset 4, -12
 168              		.cfi_offset 5, -8
 169              		.cfi_offset 14, -4
 170              		.loc 1 122 0
 171 0004 0040A0E1 		mov	r4, r0
ARM GAS  /tmp/ccvBeH0v.s 			page 4


 172              		.loc 1 130 0
 173 0008 000090E5 		ldr	r0, [r0]
 174              	.LVL11:
 175 000c 040050E1 		cmp	r0, r4
 176 0010 3880BD08 		ldmeqfd	sp!, {r3, r4, r5, pc}
 177              		.loc 1 131 0
 178 0014 0150E0E3 		mvn	r5, #1
 179              	.L13:
 180              	.LVL12:
 181              	.LBB22:
 182              	.LBB23:
 183              		.loc 2 55 0
 184 0018 003090E5 		ldr	r3, [r0]
 185 001c 003084E5 		str	r3, [r4]
 186 0020 044083E5 		str	r4, [r3, #4]
 187              	.LBE23:
 188              	.LBE22:
 189              		.loc 1 131 0
 190 0024 FEFFFFEB 		bl	chSchReadyI
 191              	.LVL13:
 192 0028 245080E5 		str	r5, [r0, #36]
 193              		.loc 1 130 0
 194 002c 000094E5 		ldr	r0, [r4]
 195 0030 040050E1 		cmp	r0, r4
 196 0034 F7FFFF1A 		bne	.L13
 197 0038 3880BDE8 		ldmfd	sp!, {r3, r4, r5, pc}
 198              		.cfi_endproc
 199              	.LFE11:
 200              		.size	chCondBroadcastI, .-chCondBroadcastI
 201              		.section	.text.chCondBroadcast,"ax",%progbits
 202              		.align	2
 203              		.global	chCondBroadcast
 204              		.type	chCondBroadcast, %function
 205              	chCondBroadcast:
 206              	.LFB10:
 207              		.loc 1 103 0
 208              		.cfi_startproc
 209              		@ args = 0, pretend = 0, frame = 0
 210              		@ frame_needed = 0, uses_anonymous_args = 0
 211              	.LVL14:
 212 0000 08402DE9 		stmfd	sp!, {r3, lr}
 213              		.cfi_def_cfa_offset 8
 214              		.cfi_offset 3, -8
 215              		.cfi_offset 14, -4
 216              		.loc 1 105 0
 217              	@ 105 "../../os/kernel/src/chcond.c" 1
 218 0004 9FF021E3 		msr     CPSR_c, #0x9F
 219              	@ 0 "" 2
 220              		.loc 1 106 0
 221 0008 FEFFFFEB 		bl	chCondBroadcastI
 222              	.LVL15:
 223              		.loc 1 107 0
 224 000c FEFFFFEB 		bl	chSchRescheduleS
 225              	.LVL16:
 226              		.loc 1 108 0
 227              	@ 108 "../../os/kernel/src/chcond.c" 1
 228 0010 1FF021E3 		msr     CPSR_c, #0x1F
ARM GAS  /tmp/ccvBeH0v.s 			page 5


 229              	@ 0 "" 2
 230 0014 0880BDE8 		ldmfd	sp!, {r3, pc}
 231              		.cfi_endproc
 232              	.LFE10:
 233              		.size	chCondBroadcast, .-chCondBroadcast
 234              		.section	.text.chCondWaitS,"ax",%progbits
 235              		.align	2
 236              		.global	chCondWaitS
 237              		.type	chCondWaitS, %function
 238              	chCondWaitS:
 239              	.LFB13:
 240              		.loc 1 177 0
 241              		.cfi_startproc
 242              		@ args = 0, pretend = 0, frame = 0
 243              		@ frame_needed = 0, uses_anonymous_args = 0
 244              	.LVL17:
 245              		.loc 1 178 0
 246 0000 68309FE5 		ldr	r3, .L27
 247              		.loc 1 177 0
 248 0004 70402DE9 		stmfd	sp!, {r4, r5, r6, lr}
 249              		.cfi_def_cfa_offset 16
 250              		.cfi_offset 4, -16
 251              		.cfi_offset 5, -12
 252              		.cfi_offset 6, -8
 253              		.cfi_offset 14, -4
 254              		.loc 1 177 0
 255 0008 0050A0E1 		mov	r5, r0
 256              		.loc 1 178 0
 257 000c 184093E5 		ldr	r4, [r3, #24]
 258              	.LVL18:
 259              		.loc 1 188 0
 260 0010 FEFFFFEB 		bl	chMtxUnlockS
 261              	.LVL19:
 262              	.LBB24:
 263              	.LBB25:
 264              		.loc 2 36 0
 265 0014 0530A0E1 		mov	r3, r5
 266              	.LBE25:
 267              	.LBE24:
 268              		.loc 1 188 0
 269 0018 0060A0E1 		mov	r6, r0
 270              	.LVL20:
 271              		.loc 1 189 0
 272 001c 245084E5 		str	r5, [r4, #36]
 273              	.LVL21:
 274 0020 030000EA 		b	.L21
 275              	.LVL22:
 276              	.L26:
 277              	.LBB28:
 278              	.LBB26:
 279              		.loc 2 39 0
 280 0024 081093E5 		ldr	r1, [r3, #8]
 281 0028 082094E5 		ldr	r2, [r4, #8]
 282 002c 020051E1 		cmp	r1, r2
 283 0030 0200003A 		bcc	.L22
 284              	.L21:
 285              		.loc 2 38 0
ARM GAS  /tmp/ccvBeH0v.s 			page 6


 286 0034 003093E5 		ldr	r3, [r3]
 287              	.LVL23:
 288              		.loc 2 39 0
 289 0038 030055E1 		cmp	r5, r3
 290 003c F8FFFF1A 		bne	.L26
 291              	.L22:
 292              		.loc 2 41 0
 293 0040 042093E5 		ldr	r2, [r3, #4]
 294              	.LBE26:
 295              	.LBE28:
 296              		.loc 1 191 0
 297 0044 0500A0E3 		mov	r0, #5
 298              	.LVL24:
 299              	.LBB29:
 300              	.LBB27:
 301              		.loc 2 40 0
 302 0048 003084E5 		str	r3, [r4]
 303              		.loc 2 41 0
 304 004c 042084E5 		str	r2, [r4, #4]
 305              		.loc 2 42 0
 306 0050 044083E5 		str	r4, [r3, #4]
 307 0054 004082E5 		str	r4, [r2]
 308              	.LBE27:
 309              	.LBE29:
 310              		.loc 1 191 0
 311 0058 FEFFFFEB 		bl	chSchGoSleepS
 312              	.LVL25:
 313              		.loc 1 192 0
 314 005c 244094E5 		ldr	r4, [r4, #36]
 315              	.LVL26:
 316              		.loc 1 193 0
 317 0060 0600A0E1 		mov	r0, r6
 318 0064 FEFFFFEB 		bl	chMtxLockS
 319              	.LVL27:
 320              		.loc 1 195 0
 321 0068 0400A0E1 		mov	r0, r4
 322 006c 7080BDE8 		ldmfd	sp!, {r4, r5, r6, pc}
 323              	.L28:
 324              		.align	2
 325              	.L27:
 326 0070 00000000 		.word	rlist
 327              		.cfi_endproc
 328              	.LFE13:
 329              		.size	chCondWaitS, .-chCondWaitS
 330              		.section	.text.chCondWait,"ax",%progbits
 331              		.align	2
 332              		.global	chCondWait
 333              		.type	chCondWait, %function
 334              	chCondWait:
 335              	.LFB12:
 336              		.loc 1 151 0
 337              		.cfi_startproc
 338              		@ args = 0, pretend = 0, frame = 0
 339              		@ frame_needed = 0, uses_anonymous_args = 0
 340              	.LVL28:
 341 0000 08402DE9 		stmfd	sp!, {r3, lr}
 342              		.cfi_def_cfa_offset 8
ARM GAS  /tmp/ccvBeH0v.s 			page 7


 343              		.cfi_offset 3, -8
 344              		.cfi_offset 14, -4
 345              		.loc 1 154 0
 346              	@ 154 "../../os/kernel/src/chcond.c" 1
 347 0004 9FF021E3 		msr     CPSR_c, #0x9F
 348              	@ 0 "" 2
 349              		.loc 1 155 0
 350 0008 FEFFFFEB 		bl	chCondWaitS
 351              	.LVL29:
 352              		.loc 1 156 0
 353              	@ 156 "../../os/kernel/src/chcond.c" 1
 354 000c 1FF021E3 		msr     CPSR_c, #0x1F
 355              	@ 0 "" 2
 356              		.loc 1 158 0
 357 0010 0880BDE8 		ldmfd	sp!, {r3, pc}
 358              		.cfi_endproc
 359              	.LFE12:
 360              		.size	chCondWait, .-chCondWait
 361              		.section	.text.chCondWaitTimeoutS,"ax",%progbits
 362              		.align	2
 363              		.global	chCondWaitTimeoutS
 364              		.type	chCondWaitTimeoutS, %function
 365              	chCondWaitTimeoutS:
 366              	.LFB15:
 367              		.loc 1 263 0
 368              		.cfi_startproc
 369              		@ args = 0, pretend = 0, frame = 0
 370              		@ frame_needed = 0, uses_anonymous_args = 0
 371              	.LVL30:
 372 0000 70402DE9 		stmfd	sp!, {r4, r5, r6, lr}
 373              		.cfi_def_cfa_offset 16
 374              		.cfi_offset 4, -16
 375              		.cfi_offset 5, -12
 376              		.cfi_offset 6, -8
 377              		.cfi_offset 14, -4
 378              		.loc 1 263 0
 379 0004 0040A0E1 		mov	r4, r0
 380 0008 0160A0E1 		mov	r6, r1
 381              		.loc 1 273 0
 382 000c FEFFFFEB 		bl	chMtxUnlockS
 383              	.LVL31:
 384              		.loc 1 274 0
 385 0010 68209FE5 		ldr	r2, .L39
 386              		.loc 1 273 0
 387 0014 0050A0E1 		mov	r5, r0
 388              	.LVL32:
 389              		.loc 1 274 0
 390 0018 18C092E5 		ldr	ip, [r2, #24]
 391              	.LBB30:
 392              	.LBB31:
 393              		.loc 2 36 0
 394 001c 0430A0E1 		mov	r3, r4
 395              	.LBE31:
 396              	.LBE30:
 397              		.loc 1 274 0
 398 0020 24408CE5 		str	r4, [ip, #36]
 399              	.LVL33:
ARM GAS  /tmp/ccvBeH0v.s 			page 8


 400 0024 030000EA 		b	.L35
 401              	.LVL34:
 402              	.L32:
 403              	.LBB35:
 404              	.LBB32:
 405              		.loc 2 39 0
 406 0028 080093E5 		ldr	r0, [r3, #8]
 407 002c 08209CE5 		ldr	r2, [ip, #8]
 408 0030 020050E1 		cmp	r0, r2
 409 0034 0200003A 		bcc	.L36
 410              	.L35:
 411              		.loc 2 38 0
 412 0038 003093E5 		ldr	r3, [r3]
 413              	.LVL35:
 414              		.loc 2 39 0
 415 003c 030054E1 		cmp	r4, r3
 416 0040 F8FFFF1A 		bne	.L32
 417              	.L36:
 418              		.loc 2 41 0
 419 0044 042093E5 		ldr	r2, [r3, #4]
 420              	.LBE32:
 421              	.LBE35:
 422              		.loc 1 276 0
 423 0048 0610A0E1 		mov	r1, r6
 424              	.LBB36:
 425              	.LBB33:
 426              		.loc 2 40 0
 427 004c 00308CE5 		str	r3, [ip]
 428              		.loc 2 41 0
 429 0050 04208CE5 		str	r2, [ip, #4]
 430              	.LBE33:
 431              	.LBE36:
 432              		.loc 1 276 0
 433 0054 0500A0E3 		mov	r0, #5
 434              	.LBB37:
 435              	.LBB34:
 436              		.loc 2 42 0
 437 0058 04C083E5 		str	ip, [r3, #4]
 438 005c 00C082E5 		str	ip, [r2]
 439              	.LBE34:
 440              	.LBE37:
 441              		.loc 1 276 0
 442 0060 FEFFFFEB 		bl	chSchGoSleepTimeoutS
 443              	.LVL36:
 444              		.loc 1 277 0
 445 0064 010070E3 		cmn	r0, #1
 446              		.loc 1 276 0
 447 0068 0040A0E1 		mov	r4, r0
 448              	.LVL37:
 449              		.loc 1 277 0
 450 006c 0100000A 		beq	.L34
 451              		.loc 1 278 0
 452 0070 0500A0E1 		mov	r0, r5
 453              	.LVL38:
 454 0074 FEFFFFEB 		bl	chMtxLockS
 455              	.LVL39:
 456              	.L34:
ARM GAS  /tmp/ccvBeH0v.s 			page 9


 457              		.loc 1 280 0
 458 0078 0400A0E1 		mov	r0, r4
 459 007c 7080BDE8 		ldmfd	sp!, {r4, r5, r6, pc}
 460              	.L40:
 461              		.align	2
 462              	.L39:
 463 0080 00000000 		.word	rlist
 464              		.cfi_endproc
 465              	.LFE15:
 466              		.size	chCondWaitTimeoutS, .-chCondWaitTimeoutS
 467              		.section	.text.chCondWaitTimeout,"ax",%progbits
 468              		.align	2
 469              		.global	chCondWaitTimeout
 470              		.type	chCondWaitTimeout, %function
 471              	chCondWaitTimeout:
 472              	.LFB14:
 473              		.loc 1 226 0
 474              		.cfi_startproc
 475              		@ args = 0, pretend = 0, frame = 0
 476              		@ frame_needed = 0, uses_anonymous_args = 0
 477              	.LVL40:
 478 0000 08402DE9 		stmfd	sp!, {r3, lr}
 479              		.cfi_def_cfa_offset 8
 480              		.cfi_offset 3, -8
 481              		.cfi_offset 14, -4
 482              		.loc 1 229 0
 483              	@ 229 "../../os/kernel/src/chcond.c" 1
 484 0004 9FF021E3 		msr     CPSR_c, #0x9F
 485              	@ 0 "" 2
 486              		.loc 1 230 0
 487 0008 FEFFFFEB 		bl	chCondWaitTimeoutS
 488              	.LVL41:
 489              		.loc 1 231 0
 490              	@ 231 "../../os/kernel/src/chcond.c" 1
 491 000c 1FF021E3 		msr     CPSR_c, #0x1F
 492              	@ 0 "" 2
 493              		.loc 1 233 0
 494 0010 0880BDE8 		ldmfd	sp!, {r3, pc}
 495              		.cfi_endproc
 496              	.LFE14:
 497              		.size	chCondWaitTimeout, .-chCondWaitTimeout
 498              		.text
 499              	.Letext0:
 500              		.file 3 "/usr/include/newlib/machine/_default_types.h"
 501              		.file 4 "/usr/include/newlib/sys/_stdint.h"
 502              		.file 5 "../../os/ports/GCC/ARM/chtypes.h"
 503              		.file 6 "../../os/kernel/include/chlists.h"
 504              		.file 7 "../../os/kernel/include/chthreads.h"
 505              		.file 8 "../../os/ports/GCC/ARM/chcore.h"
 506              		.file 9 "../../os/kernel/include/chschd.h"
 507              		.file 10 "../../os/kernel/include/chmtx.h"
 508              		.file 11 "../../os/kernel/include/chcond.h"
 509              		.section	.debug_info,"",%progbits
 510              	.Ldebug_info0:
 511 0000 72080000 		.4byte	0x872
 512 0004 0400     		.2byte	0x4
 513 0006 00000000 		.4byte	.Ldebug_abbrev0
ARM GAS  /tmp/ccvBeH0v.s 			page 10


 514 000a 04       		.byte	0x4
 515 000b 01       		.uleb128 0x1
 516 000c 8E030000 		.4byte	.LASF80
 517 0010 01       		.byte	0x1
 518 0011 D8000000 		.4byte	.LASF81
 519 0015 1E030000 		.4byte	.LASF82
 520 0019 80000000 		.4byte	.Ldebug_ranges0+0x80
 521 001d 00000000 		.4byte	0
 522 0021 00000000 		.4byte	.Ldebug_line0
 523 0025 02       		.uleb128 0x2
 524 0026 04       		.byte	0x4
 525 0027 05       		.byte	0x5
 526 0028 696E7400 		.ascii	"int\000"
 527 002c 03       		.uleb128 0x3
 528 002d 04       		.byte	0x4
 529 002e 07       		.byte	0x7
 530 002f 0F010000 		.4byte	.LASF0
 531 0033 03       		.uleb128 0x3
 532 0034 01       		.byte	0x1
 533 0035 06       		.byte	0x6
 534 0036 68000000 		.4byte	.LASF1
 535 003a 04       		.uleb128 0x4
 536 003b 18000000 		.4byte	.LASF5
 537 003f 03       		.byte	0x3
 538 0040 1D       		.byte	0x1d
 539 0041 45000000 		.4byte	0x45
 540 0045 03       		.uleb128 0x3
 541 0046 01       		.byte	0x1
 542 0047 08       		.byte	0x8
 543 0048 08020000 		.4byte	.LASF2
 544 004c 03       		.uleb128 0x3
 545 004d 02       		.byte	0x2
 546 004e 05       		.byte	0x5
 547 004f 20020000 		.4byte	.LASF3
 548 0053 03       		.uleb128 0x3
 549 0054 02       		.byte	0x2
 550 0055 07       		.byte	0x7
 551 0056 36010000 		.4byte	.LASF4
 552 005a 04       		.uleb128 0x4
 553 005b D7020000 		.4byte	.LASF6
 554 005f 03       		.byte	0x3
 555 0060 3F       		.byte	0x3f
 556 0061 65000000 		.4byte	0x65
 557 0065 03       		.uleb128 0x3
 558 0066 04       		.byte	0x4
 559 0067 05       		.byte	0x5
 560 0068 8E000000 		.4byte	.LASF7
 561 006c 04       		.uleb128 0x4
 562 006d C4000000 		.4byte	.LASF8
 563 0071 03       		.byte	0x3
 564 0072 41       		.byte	0x41
 565 0073 77000000 		.4byte	0x77
 566 0077 03       		.uleb128 0x3
 567 0078 04       		.byte	0x4
 568 0079 07       		.byte	0x7
 569 007a 1C010000 		.4byte	.LASF9
 570 007e 03       		.uleb128 0x3
ARM GAS  /tmp/ccvBeH0v.s 			page 11


 571 007f 08       		.byte	0x8
 572 0080 05       		.byte	0x5
 573 0081 5A000000 		.4byte	.LASF10
 574 0085 03       		.uleb128 0x3
 575 0086 08       		.byte	0x8
 576 0087 07       		.byte	0x7
 577 0088 22000000 		.4byte	.LASF11
 578 008c 04       		.uleb128 0x4
 579 008d 78030000 		.4byte	.LASF12
 580 0091 04       		.byte	0x4
 581 0092 14       		.byte	0x14
 582 0093 3A000000 		.4byte	0x3a
 583 0097 04       		.uleb128 0x4
 584 0098 00020000 		.4byte	.LASF13
 585 009c 04       		.byte	0x4
 586 009d 1F       		.byte	0x1f
 587 009e 5A000000 		.4byte	0x5a
 588 00a2 04       		.uleb128 0x4
 589 00a3 81020000 		.4byte	.LASF14
 590 00a7 04       		.byte	0x4
 591 00a8 20       		.byte	0x20
 592 00a9 6C000000 		.4byte	0x6c
 593 00ad 04       		.uleb128 0x4
 594 00ae 57010000 		.4byte	.LASF15
 595 00b2 05       		.byte	0x5
 596 00b3 2A       		.byte	0x2a
 597 00b4 8C000000 		.4byte	0x8c
 598 00b8 04       		.uleb128 0x4
 599 00b9 97000000 		.4byte	.LASF16
 600 00bd 05       		.byte	0x5
 601 00be 2B       		.byte	0x2b
 602 00bf 8C000000 		.4byte	0x8c
 603 00c3 04       		.uleb128 0x4
 604 00c4 DB010000 		.4byte	.LASF17
 605 00c8 05       		.byte	0x5
 606 00c9 2C       		.byte	0x2c
 607 00ca 8C000000 		.4byte	0x8c
 608 00ce 04       		.uleb128 0x4
 609 00cf 7C000000 		.4byte	.LASF18
 610 00d3 05       		.byte	0x5
 611 00d4 2D       		.byte	0x2d
 612 00d5 8C000000 		.4byte	0x8c
 613 00d9 04       		.uleb128 0x4
 614 00da EA010000 		.4byte	.LASF19
 615 00de 05       		.byte	0x5
 616 00df 2E       		.byte	0x2e
 617 00e0 A2000000 		.4byte	0xa2
 618 00e4 04       		.uleb128 0x4
 619 00e5 49010000 		.4byte	.LASF20
 620 00e9 05       		.byte	0x5
 621 00ea 2F       		.byte	0x2f
 622 00eb 97000000 		.4byte	0x97
 623 00ef 04       		.uleb128 0x4
 624 00f0 6B010000 		.4byte	.LASF21
 625 00f4 05       		.byte	0x5
 626 00f5 31       		.byte	0x31
 627 00f6 A2000000 		.4byte	0xa2
ARM GAS  /tmp/ccvBeH0v.s 			page 12


 628 00fa 04       		.uleb128 0x4
 629 00fb C2020000 		.4byte	.LASF22
 630 00ff 05       		.byte	0x5
 631 0100 33       		.byte	0x33
 632 0101 A2000000 		.4byte	0xa2
 633 0105 04       		.uleb128 0x4
 634 0106 59020000 		.4byte	.LASF23
 635 010a 06       		.byte	0x6
 636 010b 23       		.byte	0x23
 637 010c 10010000 		.4byte	0x110
 638 0110 05       		.uleb128 0x5
 639 0111 59020000 		.4byte	.LASF23
 640 0115 44       		.byte	0x44
 641 0116 07       		.byte	0x7
 642 0117 57       		.byte	0x57
 643 0118 01020000 		.4byte	0x201
 644 011c 06       		.uleb128 0x6
 645 011d 4A020000 		.4byte	.LASF24
 646 0121 07       		.byte	0x7
 647 0122 58       		.byte	0x58
 648 0123 22020000 		.4byte	0x222
 649 0127 00       		.byte	0
 650 0128 06       		.uleb128 0x6
 651 0129 E3010000 		.4byte	.LASF25
 652 012d 07       		.byte	0x7
 653 012e 5A       		.byte	0x5a
 654 012f 22020000 		.4byte	0x222
 655 0133 04       		.byte	0x4
 656 0134 06       		.uleb128 0x6
 657 0135 53000000 		.4byte	.LASF26
 658 0139 07       		.byte	0x7
 659 013a 5C       		.byte	0x5c
 660 013b D9000000 		.4byte	0xd9
 661 013f 08       		.byte	0x8
 662 0140 06       		.uleb128 0x6
 663 0141 49040000 		.4byte	.LASF27
 664 0145 07       		.byte	0x7
 665 0146 5D       		.byte	0x5d
 666 0147 D2020000 		.4byte	0x2d2
 667 014b 0C       		.byte	0xc
 668 014c 06       		.uleb128 0x6
 669 014d AB000000 		.4byte	.LASF28
 670 0151 07       		.byte	0x7
 671 0152 5F       		.byte	0x5f
 672 0153 22020000 		.4byte	0x222
 673 0157 10       		.byte	0x10
 674 0158 06       		.uleb128 0x6
 675 0159 99010000 		.4byte	.LASF29
 676 015d 07       		.byte	0x7
 677 015e 60       		.byte	0x60
 678 015f 22020000 		.4byte	0x222
 679 0163 14       		.byte	0x14
 680 0164 06       		.uleb128 0x6
 681 0165 87030000 		.4byte	.LASF30
 682 0169 07       		.byte	0x7
 683 016a 67       		.byte	0x67
 684 016b ED030000 		.4byte	0x3ed
ARM GAS  /tmp/ccvBeH0v.s 			page 13


 685 016f 18       		.byte	0x18
 686 0170 06       		.uleb128 0x6
 687 0171 2A020000 		.4byte	.LASF31
 688 0175 07       		.byte	0x7
 689 0176 72       		.byte	0x72
 690 0177 B8000000 		.4byte	0xb8
 691 017b 1C       		.byte	0x1c
 692 017c 06       		.uleb128 0x6
 693 017d 51020000 		.4byte	.LASF32
 694 0181 07       		.byte	0x7
 695 0182 76       		.byte	0x76
 696 0183 AD000000 		.4byte	0xad
 697 0187 1D       		.byte	0x1d
 698 0188 06       		.uleb128 0x6
 699 0189 61030000 		.4byte	.LASF33
 700 018d 07       		.byte	0x7
 701 018e 7B       		.byte	0x7b
 702 018f C3000000 		.4byte	0xc3
 703 0193 1E       		.byte	0x1e
 704 0194 06       		.uleb128 0x6
 705 0195 32020000 		.4byte	.LASF34
 706 0199 07       		.byte	0x7
 707 019a 81       		.byte	0x81
 708 019b CE000000 		.4byte	0xce
 709 019f 1F       		.byte	0x1f
 710 01a0 06       		.uleb128 0x6
 711 01a1 F8020000 		.4byte	.LASF35
 712 01a5 07       		.byte	0x7
 713 01a6 88       		.byte	0x88
 714 01a7 F1020000 		.4byte	0x2f1
 715 01ab 20       		.byte	0x20
 716 01ac 07       		.uleb128 0x7
 717 01ad 705F7500 		.ascii	"p_u\000"
 718 01b1 07       		.byte	0x7
 719 01b2 AD       		.byte	0xad
 720 01b3 B8030000 		.4byte	0x3b8
 721 01b7 24       		.byte	0x24
 722 01b8 06       		.uleb128 0x6
 723 01b9 4F040000 		.4byte	.LASF36
 724 01bd 07       		.byte	0x7
 725 01be B2       		.byte	0xb2
 726 01bf 48020000 		.4byte	0x248
 727 01c3 28       		.byte	0x28
 728 01c4 06       		.uleb128 0x6
 729 01c5 06030000 		.4byte	.LASF37
 730 01c9 07       		.byte	0x7
 731 01ca B8       		.byte	0xb8
 732 01cb 28020000 		.4byte	0x228
 733 01cf 2C       		.byte	0x2c
 734 01d0 06       		.uleb128 0x6
 735 01d1 00000000 		.4byte	.LASF38
 736 01d5 07       		.byte	0x7
 737 01d6 BC       		.byte	0xbc
 738 01d7 E4000000 		.4byte	0xe4
 739 01db 34       		.byte	0x34
 740 01dc 06       		.uleb128 0x6
 741 01dd 76020000 		.4byte	.LASF39
ARM GAS  /tmp/ccvBeH0v.s 			page 14


 742 01e1 07       		.byte	0x7
 743 01e2 C2       		.byte	0xc2
 744 01e3 EF000000 		.4byte	0xef
 745 01e7 38       		.byte	0x38
 746 01e8 06       		.uleb128 0x6
 747 01e9 16020000 		.4byte	.LASF40
 748 01ed 07       		.byte	0x7
 749 01ee C9       		.byte	0xc9
 750 01ef FF030000 		.4byte	0x3ff
 751 01f3 3C       		.byte	0x3c
 752 01f4 06       		.uleb128 0x6
 753 01f5 CC020000 		.4byte	.LASF41
 754 01f9 07       		.byte	0x7
 755 01fa CD       		.byte	0xcd
 756 01fb D9000000 		.4byte	0xd9
 757 01ff 40       		.byte	0x40
 758 0200 00       		.byte	0
 759 0201 08       		.uleb128 0x8
 760 0202 08       		.byte	0x8
 761 0203 06       		.byte	0x6
 762 0204 5A       		.byte	0x5a
 763 0205 22020000 		.4byte	0x222
 764 0209 06       		.uleb128 0x6
 765 020a 4A020000 		.4byte	.LASF24
 766 020e 06       		.byte	0x6
 767 020f 5B       		.byte	0x5b
 768 0210 22020000 		.4byte	0x222
 769 0214 00       		.byte	0
 770 0215 06       		.uleb128 0x6
 771 0216 E3010000 		.4byte	.LASF25
 772 021a 06       		.byte	0x6
 773 021b 5D       		.byte	0x5d
 774 021c 22020000 		.4byte	0x222
 775 0220 04       		.byte	0x4
 776 0221 00       		.byte	0
 777 0222 09       		.uleb128 0x9
 778 0223 04       		.byte	0x4
 779 0224 05010000 		.4byte	0x105
 780 0228 04       		.uleb128 0x4
 781 0229 A7010000 		.4byte	.LASF42
 782 022d 06       		.byte	0x6
 783 022e 5F       		.byte	0x5f
 784 022f 01020000 		.4byte	0x201
 785 0233 08       		.uleb128 0x8
 786 0234 04       		.byte	0x4
 787 0235 06       		.byte	0x6
 788 0236 64       		.byte	0x64
 789 0237 48020000 		.4byte	0x248
 790 023b 06       		.uleb128 0x6
 791 023c 4A020000 		.4byte	.LASF24
 792 0240 06       		.byte	0x6
 793 0241 66       		.byte	0x66
 794 0242 22020000 		.4byte	0x222
 795 0246 00       		.byte	0
 796 0247 00       		.byte	0
 797 0248 04       		.uleb128 0x4
 798 0249 5F010000 		.4byte	.LASF43
ARM GAS  /tmp/ccvBeH0v.s 			page 15


 799 024d 06       		.byte	0x6
 800 024e 69       		.byte	0x69
 801 024f 33020000 		.4byte	0x233
 802 0253 04       		.uleb128 0x4
 803 0254 CF000000 		.4byte	.LASF44
 804 0258 08       		.byte	0x8
 805 0259 A2       		.byte	0xa2
 806 025a 5E020000 		.4byte	0x25e
 807 025e 0A       		.uleb128 0xa
 808 025f 04       		.byte	0x4
 809 0260 05       		.uleb128 0x5
 810 0261 FF020000 		.4byte	.LASF45
 811 0265 24       		.byte	0x24
 812 0266 08       		.byte	0x8
 813 0267 B9       		.byte	0xb9
 814 0268 D2020000 		.4byte	0x2d2
 815 026c 07       		.uleb128 0x7
 816 026d 723400   		.ascii	"r4\000"
 817 0270 08       		.byte	0x8
 818 0271 BA       		.byte	0xba
 819 0272 53020000 		.4byte	0x253
 820 0276 00       		.byte	0
 821 0277 07       		.uleb128 0x7
 822 0278 723500   		.ascii	"r5\000"
 823 027b 08       		.byte	0x8
 824 027c BB       		.byte	0xbb
 825 027d 53020000 		.4byte	0x253
 826 0281 04       		.byte	0x4
 827 0282 07       		.uleb128 0x7
 828 0283 723600   		.ascii	"r6\000"
 829 0286 08       		.byte	0x8
 830 0287 BC       		.byte	0xbc
 831 0288 53020000 		.4byte	0x253
 832 028c 08       		.byte	0x8
 833 028d 07       		.uleb128 0x7
 834 028e 723700   		.ascii	"r7\000"
 835 0291 08       		.byte	0x8
 836 0292 BD       		.byte	0xbd
 837 0293 53020000 		.4byte	0x253
 838 0297 0C       		.byte	0xc
 839 0298 07       		.uleb128 0x7
 840 0299 723800   		.ascii	"r8\000"
 841 029c 08       		.byte	0x8
 842 029d BE       		.byte	0xbe
 843 029e 53020000 		.4byte	0x253
 844 02a2 10       		.byte	0x10
 845 02a3 07       		.uleb128 0x7
 846 02a4 723900   		.ascii	"r9\000"
 847 02a7 08       		.byte	0x8
 848 02a8 BF       		.byte	0xbf
 849 02a9 53020000 		.4byte	0x253
 850 02ad 14       		.byte	0x14
 851 02ae 07       		.uleb128 0x7
 852 02af 72313000 		.ascii	"r10\000"
 853 02b3 08       		.byte	0x8
 854 02b4 C0       		.byte	0xc0
 855 02b5 53020000 		.4byte	0x253
ARM GAS  /tmp/ccvBeH0v.s 			page 16


 856 02b9 18       		.byte	0x18
 857 02ba 07       		.uleb128 0x7
 858 02bb 72313100 		.ascii	"r11\000"
 859 02bf 08       		.byte	0x8
 860 02c0 C1       		.byte	0xc1
 861 02c1 53020000 		.4byte	0x253
 862 02c5 1C       		.byte	0x1c
 863 02c6 07       		.uleb128 0x7
 864 02c7 6C7200   		.ascii	"lr\000"
 865 02ca 08       		.byte	0x8
 866 02cb C2       		.byte	0xc2
 867 02cc 53020000 		.4byte	0x253
 868 02d0 20       		.byte	0x20
 869 02d1 00       		.byte	0
 870 02d2 05       		.uleb128 0x5
 871 02d3 2E010000 		.4byte	.LASF46
 872 02d7 04       		.byte	0x4
 873 02d8 08       		.byte	0x8
 874 02d9 CA       		.byte	0xca
 875 02da EB020000 		.4byte	0x2eb
 876 02de 07       		.uleb128 0x7
 877 02df 72313300 		.ascii	"r13\000"
 878 02e3 08       		.byte	0x8
 879 02e4 CB       		.byte	0xcb
 880 02e5 EB020000 		.4byte	0x2eb
 881 02e9 00       		.byte	0
 882 02ea 00       		.byte	0
 883 02eb 09       		.uleb128 0x9
 884 02ec 04       		.byte	0x4
 885 02ed 60020000 		.4byte	0x260
 886 02f1 0B       		.uleb128 0xb
 887 02f2 FA000000 		.4byte	0xfa
 888 02f6 08       		.uleb128 0x8
 889 02f7 1C       		.byte	0x1c
 890 02f8 09       		.byte	0x9
 891 02f9 57       		.byte	0x57
 892 02fa 47030000 		.4byte	0x347
 893 02fe 06       		.uleb128 0x6
 894 02ff 8A020000 		.4byte	.LASF47
 895 0303 09       		.byte	0x9
 896 0304 58       		.byte	0x58
 897 0305 28020000 		.4byte	0x228
 898 0309 00       		.byte	0
 899 030a 06       		.uleb128 0x6
 900 030b 3C020000 		.4byte	.LASF48
 901 030f 09       		.byte	0x9
 902 0310 59       		.byte	0x59
 903 0311 D9000000 		.4byte	0xd9
 904 0315 08       		.byte	0x8
 905 0316 06       		.uleb128 0x6
 906 0317 A1010000 		.4byte	.LASF49
 907 031b 09       		.byte	0x9
 908 031c 5B       		.byte	0x5b
 909 031d D2020000 		.4byte	0x2d2
 910 0321 0C       		.byte	0xc
 911 0322 06       		.uleb128 0x6
 912 0323 4F010000 		.4byte	.LASF50
ARM GAS  /tmp/ccvBeH0v.s 			page 17


 913 0327 09       		.byte	0x9
 914 0328 5E       		.byte	0x5e
 915 0329 22020000 		.4byte	0x222
 916 032d 10       		.byte	0x10
 917 032e 06       		.uleb128 0x6
 918 032f C3010000 		.4byte	.LASF51
 919 0333 09       		.byte	0x9
 920 0334 5F       		.byte	0x5f
 921 0335 22020000 		.4byte	0x222
 922 0339 14       		.byte	0x14
 923 033a 06       		.uleb128 0x6
 924 033b B9010000 		.4byte	.LASF52
 925 033f 09       		.byte	0x9
 926 0340 62       		.byte	0x62
 927 0341 22020000 		.4byte	0x222
 928 0345 18       		.byte	0x18
 929 0346 00       		.byte	0
 930 0347 04       		.uleb128 0x4
 931 0348 68030000 		.4byte	.LASF53
 932 034c 09       		.byte	0x9
 933 034d 64       		.byte	0x64
 934 034e F6020000 		.4byte	0x2f6
 935 0352 05       		.uleb128 0x5
 936 0353 77010000 		.4byte	.LASF54
 937 0357 10       		.byte	0x10
 938 0358 0A       		.byte	0xa
 939 0359 25       		.byte	0x25
 940 035a 83030000 		.4byte	0x383
 941 035e 06       		.uleb128 0x6
 942 035f 74000000 		.4byte	.LASF55
 943 0363 0A       		.byte	0xa
 944 0364 26       		.byte	0x26
 945 0365 28020000 		.4byte	0x228
 946 0369 00       		.byte	0
 947 036a 06       		.uleb128 0x6
 948 036b 41040000 		.4byte	.LASF56
 949 036f 0A       		.byte	0xa
 950 0370 28       		.byte	0x28
 951 0371 22020000 		.4byte	0x222
 952 0375 08       		.byte	0x8
 953 0376 06       		.uleb128 0x6
 954 0377 BB020000 		.4byte	.LASF57
 955 037b 0A       		.byte	0xa
 956 037c 2A       		.byte	0x2a
 957 037d 83030000 		.4byte	0x383
 958 0381 0C       		.byte	0xc
 959 0382 00       		.byte	0
 960 0383 09       		.uleb128 0x9
 961 0384 04       		.byte	0x4
 962 0385 52030000 		.4byte	0x352
 963 0389 04       		.uleb128 0x4
 964 038a 77010000 		.4byte	.LASF54
 965 038e 0A       		.byte	0xa
 966 038f 2C       		.byte	0x2c
 967 0390 52030000 		.4byte	0x352
 968 0394 05       		.uleb128 0x5
 969 0395 86000000 		.4byte	.LASF58
ARM GAS  /tmp/ccvBeH0v.s 			page 18


 970 0399 08       		.byte	0x8
 971 039a 0B       		.byte	0xb
 972 039b 2F       		.byte	0x2f
 973 039c AD030000 		.4byte	0x3ad
 974 03a0 06       		.uleb128 0x6
 975 03a1 60020000 		.4byte	.LASF59
 976 03a5 0B       		.byte	0xb
 977 03a6 30       		.byte	0x30
 978 03a7 28020000 		.4byte	0x228
 979 03ab 00       		.byte	0
 980 03ac 00       		.byte	0
 981 03ad 04       		.uleb128 0x4
 982 03ae 86000000 		.4byte	.LASF58
 983 03b2 0B       		.byte	0xb
 984 03b3 31       		.byte	0x31
 985 03b4 94030000 		.4byte	0x394
 986 03b8 0C       		.uleb128 0xc
 987 03b9 04       		.byte	0x4
 988 03ba 07       		.byte	0x7
 989 03bb 8F       		.byte	0x8f
 990 03bc ED030000 		.4byte	0x3ed
 991 03c0 0D       		.uleb128 0xd
 992 03c1 11000000 		.4byte	.LASF60
 993 03c5 07       		.byte	0x7
 994 03c6 96       		.byte	0x96
 995 03c7 E4000000 		.4byte	0xe4
 996 03cb 0D       		.uleb128 0xd
 997 03cc 39000000 		.4byte	.LASF61
 998 03d0 07       		.byte	0x7
 999 03d1 9D       		.byte	0x9d
 1000 03d2 E4000000 		.4byte	0xe4
 1001 03d6 0D       		.uleb128 0xd
 1002 03d7 80030000 		.4byte	.LASF62
 1003 03db 07       		.byte	0x7
 1004 03dc A4       		.byte	0xa4
 1005 03dd 5E020000 		.4byte	0x25e
 1006 03e1 0D       		.uleb128 0xd
 1007 03e2 43020000 		.4byte	.LASF63
 1008 03e6 07       		.byte	0x7
 1009 03e7 AB       		.byte	0xab
 1010 03e8 EF000000 		.4byte	0xef
 1011 03ec 00       		.byte	0
 1012 03ed 09       		.uleb128 0x9
 1013 03ee 04       		.byte	0x4
 1014 03ef F3030000 		.4byte	0x3f3
 1015 03f3 0E       		.uleb128 0xe
 1016 03f4 F8030000 		.4byte	0x3f8
 1017 03f8 03       		.uleb128 0x3
 1018 03f9 01       		.byte	0x1
 1019 03fa 08       		.byte	0x8
 1020 03fb 9E020000 		.4byte	.LASF64
 1021 03ff 09       		.uleb128 0x9
 1022 0400 04       		.byte	0x4
 1023 0401 89030000 		.4byte	0x389
 1024 0405 03       		.uleb128 0x3
 1025 0406 04       		.byte	0x4
 1026 0407 07       		.byte	0x7
ARM GAS  /tmp/ccvBeH0v.s 			page 19


 1027 0408 7D010000 		.4byte	.LASF65
 1028 040c 0F       		.uleb128 0xf
 1029 040d A3020000 		.4byte	.LASF83
 1030 0411 02       		.byte	0x2
 1031 0412 34       		.byte	0x34
 1032 0413 22020000 		.4byte	0x222
 1033 0417 03       		.byte	0x3
 1034 0418 32040000 		.4byte	0x432
 1035 041c 10       		.uleb128 0x10
 1036 041d 74717000 		.ascii	"tqp\000"
 1037 0421 02       		.byte	0x2
 1038 0422 34       		.byte	0x34
 1039 0423 32040000 		.4byte	0x432
 1040 0427 11       		.uleb128 0x11
 1041 0428 747000   		.ascii	"tp\000"
 1042 042b 02       		.byte	0x2
 1043 042c 35       		.byte	0x35
 1044 042d 22020000 		.4byte	0x222
 1045 0431 00       		.byte	0
 1046 0432 09       		.uleb128 0x9
 1047 0433 04       		.byte	0x4
 1048 0434 28020000 		.4byte	0x228
 1049 0438 12       		.uleb128 0x12
 1050 0439 E1020000 		.4byte	.LASF84
 1051 043d 02       		.byte	0x2
 1052 043e 22       		.byte	0x22
 1053 043f 03       		.byte	0x3
 1054 0440 64040000 		.4byte	0x464
 1055 0444 10       		.uleb128 0x10
 1056 0445 747000   		.ascii	"tp\000"
 1057 0448 02       		.byte	0x2
 1058 0449 22       		.byte	0x22
 1059 044a 22020000 		.4byte	0x222
 1060 044e 10       		.uleb128 0x10
 1061 044f 74717000 		.ascii	"tqp\000"
 1062 0453 02       		.byte	0x2
 1063 0454 22       		.byte	0x22
 1064 0455 32040000 		.4byte	0x432
 1065 0459 11       		.uleb128 0x11
 1066 045a 637000   		.ascii	"cp\000"
 1067 045d 02       		.byte	0x2
 1068 045e 24       		.byte	0x24
 1069 045f 22020000 		.4byte	0x222
 1070 0463 00       		.byte	0
 1071 0464 13       		.uleb128 0x13
 1072 0465 06000000 		.4byte	.LASF66
 1073 0469 01       		.byte	0x1
 1074 046a 34       		.byte	0x34
 1075 046b 00000000 		.4byte	.LFB7
 1076 046f 0C000000 		.4byte	.LFE7-.LFB7
 1077 0473 01       		.uleb128 0x1
 1078 0474 9C       		.byte	0x9c
 1079 0475 86040000 		.4byte	0x486
 1080 0479 14       		.uleb128 0x14
 1081 047a 637000   		.ascii	"cp\000"
 1082 047d 01       		.byte	0x1
 1083 047e 34       		.byte	0x34
ARM GAS  /tmp/ccvBeH0v.s 			page 20


 1084 047f 86040000 		.4byte	0x486
 1085 0483 01       		.uleb128 0x1
 1086 0484 50       		.byte	0x50
 1087 0485 00       		.byte	0
 1088 0486 09       		.uleb128 0x9
 1089 0487 04       		.byte	0x4
 1090 0488 AD030000 		.4byte	0x3ad
 1091 048c 13       		.uleb128 0x13
 1092 048d F5000000 		.4byte	.LASF67
 1093 0491 01       		.byte	0x1
 1094 0492 42       		.byte	0x42
 1095 0493 00000000 		.4byte	.LFB8
 1096 0497 40000000 		.4byte	.LFE8-.LFB8
 1097 049b 01       		.uleb128 0x1
 1098 049c 9C       		.byte	0x9c
 1099 049d EB040000 		.4byte	0x4eb
 1100 04a1 15       		.uleb128 0x15
 1101 04a2 637000   		.ascii	"cp\000"
 1102 04a5 01       		.byte	0x1
 1103 04a6 42       		.byte	0x42
 1104 04a7 86040000 		.4byte	0x486
 1105 04ab 00000000 		.4byte	.LLST0
 1106 04af 16       		.uleb128 0x16
 1107 04b0 0C040000 		.4byte	0x40c
 1108 04b4 18000000 		.4byte	.LBB12
 1109 04b8 00000000 		.4byte	.Ldebug_ranges0+0
 1110 04bc 01       		.byte	0x1
 1111 04bd 48       		.byte	0x48
 1112 04be DB040000 		.4byte	0x4db
 1113 04c2 17       		.uleb128 0x17
 1114 04c3 1C040000 		.4byte	0x41c
 1115 04c7 37000000 		.4byte	.LLST1
 1116 04cb 18       		.uleb128 0x18
 1117 04cc 00000000 		.4byte	.Ldebug_ranges0+0
 1118 04d0 19       		.uleb128 0x19
 1119 04d1 27040000 		.4byte	0x427
 1120 04d5 63000000 		.4byte	.LLST2
 1121 04d9 00       		.byte	0
 1122 04da 00       		.byte	0
 1123 04db 1A       		.uleb128 0x1a
 1124 04dc 30000000 		.4byte	.LVL4
 1125 04e0 00080000 		.4byte	0x800
 1126 04e4 1B       		.uleb128 0x1b
 1127 04e5 01       		.uleb128 0x1
 1128 04e6 51       		.byte	0x51
 1129 04e7 01       		.uleb128 0x1
 1130 04e8 30       		.byte	0x30
 1131 04e9 00       		.byte	0
 1132 04ea 00       		.byte	0
 1133 04eb 13       		.uleb128 0x13
 1134 04ec F2010000 		.4byte	.LASF68
 1135 04f0 01       		.byte	0x1
 1136 04f1 57       		.byte	0x57
 1137 04f2 00000000 		.4byte	.LFB9
 1138 04f6 34000000 		.4byte	.LFE9-.LFB9
 1139 04fa 01       		.uleb128 0x1
 1140 04fb 9C       		.byte	0x9c
ARM GAS  /tmp/ccvBeH0v.s 			page 21


 1141 04fc 44050000 		.4byte	0x544
 1142 0500 15       		.uleb128 0x15
 1143 0501 637000   		.ascii	"cp\000"
 1144 0504 01       		.byte	0x1
 1145 0505 57       		.byte	0x57
 1146 0506 86040000 		.4byte	0x486
 1147 050a 76000000 		.4byte	.LLST3
 1148 050e 16       		.uleb128 0x16
 1149 050f 0C040000 		.4byte	0x40c
 1150 0513 14000000 		.4byte	.LBB18
 1151 0517 20000000 		.4byte	.Ldebug_ranges0+0x20
 1152 051b 01       		.byte	0x1
 1153 051c 5D       		.byte	0x5d
 1154 051d 3A050000 		.4byte	0x53a
 1155 0521 17       		.uleb128 0x17
 1156 0522 1C040000 		.4byte	0x41c
 1157 0526 A2000000 		.4byte	.LLST4
 1158 052a 18       		.uleb128 0x18
 1159 052b 20000000 		.4byte	.Ldebug_ranges0+0x20
 1160 052f 19       		.uleb128 0x19
 1161 0530 27040000 		.4byte	0x427
 1162 0534 CE000000 		.4byte	.LLST5
 1163 0538 00       		.byte	0
 1164 0539 00       		.byte	0
 1165 053a 1C       		.uleb128 0x1c
 1166 053b 28000000 		.4byte	.LVL9
 1167 053f 16080000 		.4byte	0x816
 1168 0543 00       		.byte	0
 1169 0544 13       		.uleb128 0x13
 1170 0545 42000000 		.4byte	.LASF69
 1171 0549 01       		.byte	0x1
 1172 054a 7A       		.byte	0x7a
 1173 054b 00000000 		.4byte	.LFB11
 1174 054f 3C000000 		.4byte	.LFE11-.LFB11
 1175 0553 01       		.uleb128 0x1
 1176 0554 9C       		.byte	0x9c
 1177 0555 9F050000 		.4byte	0x59f
 1178 0559 15       		.uleb128 0x15
 1179 055a 637000   		.ascii	"cp\000"
 1180 055d 01       		.byte	0x1
 1181 055e 7A       		.byte	0x7a
 1182 055f 86040000 		.4byte	0x486
 1183 0563 E1000000 		.4byte	.LLST6
 1184 0567 1D       		.uleb128 0x1d
 1185 0568 0C040000 		.4byte	0x40c
 1186 056c 18000000 		.4byte	.LBB22
 1187 0570 0C000000 		.4byte	.LBE22-.LBB22
 1188 0574 01       		.byte	0x1
 1189 0575 83       		.byte	0x83
 1190 0576 95050000 		.4byte	0x595
 1191 057a 1E       		.uleb128 0x1e
 1192 057b 1C040000 		.4byte	0x41c
 1193 057f 01       		.uleb128 0x1
 1194 0580 54       		.byte	0x54
 1195 0581 1F       		.uleb128 0x1f
 1196 0582 18000000 		.4byte	.LBB23
 1197 0586 0C000000 		.4byte	.LBE23-.LBB23
ARM GAS  /tmp/ccvBeH0v.s 			page 22


 1198 058a 19       		.uleb128 0x19
 1199 058b 27040000 		.4byte	0x427
 1200 058f FF000000 		.4byte	.LLST7
 1201 0593 00       		.byte	0
 1202 0594 00       		.byte	0
 1203 0595 1C       		.uleb128 0x1c
 1204 0596 28000000 		.4byte	.LVL13
 1205 059a 16080000 		.4byte	0x816
 1206 059e 00       		.byte	0
 1207 059f 13       		.uleb128 0x13
 1208 05a0 CB010000 		.4byte	.LASF70
 1209 05a4 01       		.byte	0x1
 1210 05a5 67       		.byte	0x67
 1211 05a6 00000000 		.4byte	.LFB10
 1212 05aa 18000000 		.4byte	.LFE10-.LFB10
 1213 05ae 01       		.uleb128 0x1
 1214 05af 9C       		.byte	0x9c
 1215 05b0 E1050000 		.4byte	0x5e1
 1216 05b4 15       		.uleb128 0x15
 1217 05b5 637000   		.ascii	"cp\000"
 1218 05b8 01       		.byte	0x1
 1219 05b9 67       		.byte	0x67
 1220 05ba 86040000 		.4byte	0x486
 1221 05be 12010000 		.4byte	.LLST8
 1222 05c2 20       		.uleb128 0x20
 1223 05c3 0C000000 		.4byte	.LVL15
 1224 05c7 44050000 		.4byte	0x544
 1225 05cb D7050000 		.4byte	0x5d7
 1226 05cf 1B       		.uleb128 0x1b
 1227 05d0 01       		.uleb128 0x1
 1228 05d1 50       		.byte	0x50
 1229 05d2 03       		.uleb128 0x3
 1230 05d3 F3       		.byte	0xf3
 1231 05d4 01       		.uleb128 0x1
 1232 05d5 50       		.byte	0x50
 1233 05d6 00       		.byte	0
 1234 05d7 1C       		.uleb128 0x1c
 1235 05d8 10000000 		.4byte	.LVL16
 1236 05dc 2B080000 		.4byte	0x82b
 1237 05e0 00       		.byte	0
 1238 05e1 21       		.uleb128 0x21
 1239 05e2 AF020000 		.4byte	.LASF71
 1240 05e6 01       		.byte	0x1
 1241 05e7 B1       		.byte	0xb1
 1242 05e8 E4000000 		.4byte	0xe4
 1243 05ec 00000000 		.4byte	.LFB13
 1244 05f0 74000000 		.4byte	.LFE13-.LFB13
 1245 05f4 01       		.uleb128 0x1
 1246 05f5 9C       		.byte	0x9c
 1247 05f6 92060000 		.4byte	0x692
 1248 05fa 15       		.uleb128 0x15
 1249 05fb 637000   		.ascii	"cp\000"
 1250 05fe 01       		.byte	0x1
 1251 05ff B1       		.byte	0xb1
 1252 0600 86040000 		.4byte	0x486
 1253 0604 33010000 		.4byte	.LLST9
 1254 0608 22       		.uleb128 0x22
ARM GAS  /tmp/ccvBeH0v.s 			page 23


 1255 0609 63747000 		.ascii	"ctp\000"
 1256 060d 01       		.byte	0x1
 1257 060e B2       		.byte	0xb2
 1258 060f 22020000 		.4byte	0x222
 1259 0613 51010000 		.4byte	.LLST10
 1260 0617 22       		.uleb128 0x22
 1261 0618 6D7000   		.ascii	"mp\000"
 1262 061b 01       		.byte	0x1
 1263 061c B3       		.byte	0xb3
 1264 061d FF030000 		.4byte	0x3ff
 1265 0621 64010000 		.4byte	.LLST11
 1266 0625 23       		.uleb128 0x23
 1267 0626 6D736700 		.ascii	"msg\000"
 1268 062a 01       		.byte	0x1
 1269 062b B4       		.byte	0xb4
 1270 062c E4000000 		.4byte	0xe4
 1271 0630 01       		.uleb128 0x1
 1272 0631 54       		.byte	0x54
 1273 0632 16       		.uleb128 0x16
 1274 0633 38040000 		.4byte	0x438
 1275 0637 14000000 		.4byte	.LBB24
 1276 063b 38000000 		.4byte	.Ldebug_ranges0+0x38
 1277 063f 01       		.byte	0x1
 1278 0640 BE       		.byte	0xbe
 1279 0641 65060000 		.4byte	0x665
 1280 0645 1E       		.uleb128 0x1e
 1281 0646 4E040000 		.4byte	0x44e
 1282 064a 01       		.uleb128 0x1
 1283 064b 55       		.byte	0x55
 1284 064c 17       		.uleb128 0x17
 1285 064d 44040000 		.4byte	0x444
 1286 0651 82010000 		.4byte	.LLST12
 1287 0655 18       		.uleb128 0x18
 1288 0656 38000000 		.4byte	.Ldebug_ranges0+0x38
 1289 065a 19       		.uleb128 0x19
 1290 065b 59040000 		.4byte	0x459
 1291 065f 95010000 		.4byte	.LLST13
 1292 0663 00       		.byte	0
 1293 0664 00       		.byte	0
 1294 0665 1C       		.uleb128 0x1c
 1295 0666 14000000 		.4byte	.LVL19
 1296 066a 32080000 		.4byte	0x832
 1297 066e 20       		.uleb128 0x20
 1298 066f 5C000000 		.4byte	.LVL25
 1299 0673 3D080000 		.4byte	0x83d
 1300 0677 81060000 		.4byte	0x681
 1301 067b 1B       		.uleb128 0x1b
 1302 067c 01       		.uleb128 0x1
 1303 067d 50       		.byte	0x50
 1304 067e 01       		.uleb128 0x1
 1305 067f 35       		.byte	0x35
 1306 0680 00       		.byte	0
 1307 0681 1A       		.uleb128 0x1a
 1308 0682 68000000 		.4byte	.LVL27
 1309 0686 4E080000 		.4byte	0x84e
 1310 068a 1B       		.uleb128 0x1b
 1311 068b 01       		.uleb128 0x1
ARM GAS  /tmp/ccvBeH0v.s 			page 24


 1312 068c 50       		.byte	0x50
 1313 068d 02       		.uleb128 0x2
 1314 068e 76       		.byte	0x76
 1315 068f 00       		.sleb128 0
 1316 0690 00       		.byte	0
 1317 0691 00       		.byte	0
 1318 0692 21       		.uleb128 0x21
 1319 0693 ED020000 		.4byte	.LASF72
 1320 0697 01       		.byte	0x1
 1321 0698 97       		.byte	0x97
 1322 0699 E4000000 		.4byte	0xe4
 1323 069d 00000000 		.4byte	.LFB12
 1324 06a1 14000000 		.4byte	.LFE12-.LFB12
 1325 06a5 01       		.uleb128 0x1
 1326 06a6 9C       		.byte	0x9c
 1327 06a7 D8060000 		.4byte	0x6d8
 1328 06ab 15       		.uleb128 0x15
 1329 06ac 637000   		.ascii	"cp\000"
 1330 06af 01       		.byte	0x1
 1331 06b0 97       		.byte	0x97
 1332 06b1 86040000 		.4byte	0x486
 1333 06b5 B3010000 		.4byte	.LLST14
 1334 06b9 23       		.uleb128 0x23
 1335 06ba 6D736700 		.ascii	"msg\000"
 1336 06be 01       		.byte	0x1
 1337 06bf 98       		.byte	0x98
 1338 06c0 E4000000 		.4byte	0xe4
 1339 06c4 01       		.uleb128 0x1
 1340 06c5 50       		.byte	0x50
 1341 06c6 1A       		.uleb128 0x1a
 1342 06c7 0C000000 		.4byte	.LVL29
 1343 06cb E1050000 		.4byte	0x5e1
 1344 06cf 1B       		.uleb128 0x1b
 1345 06d0 01       		.uleb128 0x1
 1346 06d1 50       		.byte	0x50
 1347 06d2 03       		.uleb128 0x3
 1348 06d3 F3       		.byte	0xf3
 1349 06d4 01       		.uleb128 0x1
 1350 06d5 50       		.byte	0x50
 1351 06d6 00       		.byte	0
 1352 06d7 00       		.byte	0
 1353 06d8 24       		.uleb128 0x24
 1354 06d9 86010000 		.4byte	.LASF73
 1355 06dd 01       		.byte	0x1
 1356 06de 0701     		.2byte	0x107
 1357 06e0 E4000000 		.4byte	0xe4
 1358 06e4 00000000 		.4byte	.LFB15
 1359 06e8 84000000 		.4byte	.LFE15-.LFB15
 1360 06ec 01       		.uleb128 0x1
 1361 06ed 9C       		.byte	0x9c
 1362 06ee 99070000 		.4byte	0x799
 1363 06f2 25       		.uleb128 0x25
 1364 06f3 637000   		.ascii	"cp\000"
 1365 06f6 01       		.byte	0x1
 1366 06f7 0701     		.2byte	0x107
 1367 06f9 86040000 		.4byte	0x486
 1368 06fd D4010000 		.4byte	.LLST15
ARM GAS  /tmp/ccvBeH0v.s 			page 25


 1369 0701 26       		.uleb128 0x26
 1370 0702 B4010000 		.4byte	.LASF74
 1371 0706 01       		.byte	0x1
 1372 0707 0701     		.2byte	0x107
 1373 0709 FA000000 		.4byte	0xfa
 1374 070d 00020000 		.4byte	.LLST16
 1375 0711 27       		.uleb128 0x27
 1376 0712 6D7000   		.ascii	"mp\000"
 1377 0715 01       		.byte	0x1
 1378 0716 0801     		.2byte	0x108
 1379 0718 FF030000 		.4byte	0x3ff
 1380 071c 1E020000 		.4byte	.LLST17
 1381 0720 27       		.uleb128 0x27
 1382 0721 6D736700 		.ascii	"msg\000"
 1383 0725 01       		.byte	0x1
 1384 0726 0901     		.2byte	0x109
 1385 0728 E4000000 		.4byte	0xe4
 1386 072c 3C020000 		.4byte	.LLST18
 1387 0730 28       		.uleb128 0x28
 1388 0731 38040000 		.4byte	0x438
 1389 0735 1C000000 		.4byte	.LBB30
 1390 0739 58000000 		.4byte	.Ldebug_ranges0+0x58
 1391 073d 01       		.byte	0x1
 1392 073e 1301     		.2byte	0x113
 1393 0740 66070000 		.4byte	0x766
 1394 0744 17       		.uleb128 0x17
 1395 0745 4E040000 		.4byte	0x44e
 1396 0749 5A020000 		.4byte	.LLST19
 1397 074d 17       		.uleb128 0x17
 1398 074e 44040000 		.4byte	0x444
 1399 0752 7B020000 		.4byte	.LLST20
 1400 0756 18       		.uleb128 0x18
 1401 0757 58000000 		.4byte	.Ldebug_ranges0+0x58
 1402 075b 19       		.uleb128 0x19
 1403 075c 59040000 		.4byte	0x459
 1404 0760 8E020000 		.4byte	.LLST21
 1405 0764 00       		.byte	0
 1406 0765 00       		.byte	0
 1407 0766 1C       		.uleb128 0x1c
 1408 0767 10000000 		.4byte	.LVL31
 1409 076b 32080000 		.4byte	0x832
 1410 076f 20       		.uleb128 0x20
 1411 0770 64000000 		.4byte	.LVL36
 1412 0774 5F080000 		.4byte	0x85f
 1413 0778 88070000 		.4byte	0x788
 1414 077c 1B       		.uleb128 0x1b
 1415 077d 01       		.uleb128 0x1
 1416 077e 51       		.byte	0x51
 1417 077f 02       		.uleb128 0x2
 1418 0780 76       		.byte	0x76
 1419 0781 00       		.sleb128 0
 1420 0782 1B       		.uleb128 0x1b
 1421 0783 01       		.uleb128 0x1
 1422 0784 50       		.byte	0x50
 1423 0785 01       		.uleb128 0x1
 1424 0786 35       		.byte	0x35
 1425 0787 00       		.byte	0
ARM GAS  /tmp/ccvBeH0v.s 			page 26


 1426 0788 1A       		.uleb128 0x1a
 1427 0789 78000000 		.4byte	.LVL39
 1428 078d 4E080000 		.4byte	0x84e
 1429 0791 1B       		.uleb128 0x1b
 1430 0792 01       		.uleb128 0x1
 1431 0793 50       		.byte	0x50
 1432 0794 02       		.uleb128 0x2
 1433 0795 75       		.byte	0x75
 1434 0796 00       		.sleb128 0
 1435 0797 00       		.byte	0
 1436 0798 00       		.byte	0
 1437 0799 21       		.uleb128 0x21
 1438 079a 1A040000 		.4byte	.LASF75
 1439 079e 01       		.byte	0x1
 1440 079f E2       		.byte	0xe2
 1441 07a0 E4000000 		.4byte	0xe4
 1442 07a4 00000000 		.4byte	.LFB14
 1443 07a8 14000000 		.4byte	.LFE14-.LFB14
 1444 07ac 01       		.uleb128 0x1
 1445 07ad 9C       		.byte	0x9c
 1446 07ae F5070000 		.4byte	0x7f5
 1447 07b2 15       		.uleb128 0x15
 1448 07b3 637000   		.ascii	"cp\000"
 1449 07b6 01       		.byte	0x1
 1450 07b7 E2       		.byte	0xe2
 1451 07b8 86040000 		.4byte	0x486
 1452 07bc AC020000 		.4byte	.LLST22
 1453 07c0 29       		.uleb128 0x29
 1454 07c1 B4010000 		.4byte	.LASF74
 1455 07c5 01       		.byte	0x1
 1456 07c6 E2       		.byte	0xe2
 1457 07c7 FA000000 		.4byte	0xfa
 1458 07cb CD020000 		.4byte	.LLST23
 1459 07cf 23       		.uleb128 0x23
 1460 07d0 6D736700 		.ascii	"msg\000"
 1461 07d4 01       		.byte	0x1
 1462 07d5 E3       		.byte	0xe3
 1463 07d6 E4000000 		.4byte	0xe4
 1464 07da 01       		.uleb128 0x1
 1465 07db 50       		.byte	0x50
 1466 07dc 1A       		.uleb128 0x1a
 1467 07dd 0C000000 		.4byte	.LVL41
 1468 07e1 D8060000 		.4byte	0x6d8
 1469 07e5 1B       		.uleb128 0x1b
 1470 07e6 01       		.uleb128 0x1
 1471 07e7 51       		.byte	0x51
 1472 07e8 03       		.uleb128 0x3
 1473 07e9 F3       		.byte	0xf3
 1474 07ea 01       		.uleb128 0x1
 1475 07eb 51       		.byte	0x51
 1476 07ec 1B       		.uleb128 0x1b
 1477 07ed 01       		.uleb128 0x1
 1478 07ee 50       		.byte	0x50
 1479 07ef 03       		.uleb128 0x3
 1480 07f0 F3       		.byte	0xf3
 1481 07f1 01       		.uleb128 0x1
 1482 07f2 50       		.byte	0x50
ARM GAS  /tmp/ccvBeH0v.s 			page 27


 1483 07f3 00       		.byte	0
 1484 07f4 00       		.byte	0
 1485 07f5 2A       		.uleb128 0x2a
 1486 07f6 72030000 		.4byte	.LASF85
 1487 07fa 09       		.byte	0x9
 1488 07fb 68       		.byte	0x68
 1489 07fc 47030000 		.4byte	0x347
 1490 0800 2B       		.uleb128 0x2b
 1491 0801 11030000 		.4byte	.LASF76
 1492 0805 09       		.byte	0x9
 1493 0806 92       		.byte	0x92
 1494 0807 16080000 		.4byte	0x816
 1495 080b 2C       		.uleb128 0x2c
 1496 080c 22020000 		.4byte	0x222
 1497 0810 2C       		.uleb128 0x2c
 1498 0811 E4000000 		.4byte	0xe4
 1499 0815 00       		.byte	0
 1500 0816 2D       		.uleb128 0x2d
 1501 0817 92020000 		.4byte	.LASF86
 1502 081b 09       		.byte	0x9
 1503 081c 89       		.byte	0x89
 1504 081d 22020000 		.4byte	0x222
 1505 0821 2B080000 		.4byte	0x82b
 1506 0825 2C       		.uleb128 0x2c
 1507 0826 22020000 		.4byte	0x222
 1508 082a 00       		.byte	0
 1509 082b 2E       		.uleb128 0x2e
 1510 082c B3000000 		.4byte	.LASF87
 1511 0830 09       		.byte	0x9
 1512 0831 95       		.byte	0x95
 1513 0832 2F       		.uleb128 0x2f
 1514 0833 02010000 		.4byte	.LASF88
 1515 0837 0A       		.byte	0xa
 1516 0838 37       		.byte	0x37
 1517 0839 FF030000 		.4byte	0x3ff
 1518 083d 2B       		.uleb128 0x2b
 1519 083e 68020000 		.4byte	.LASF77
 1520 0842 09       		.byte	0x9
 1521 0843 8C       		.byte	0x8c
 1522 0844 4E080000 		.4byte	0x84e
 1523 0848 2C       		.uleb128 0x2c
 1524 0849 B8000000 		.4byte	0xb8
 1525 084d 00       		.byte	0
 1526 084e 2B       		.uleb128 0x2b
 1527 084f A0000000 		.4byte	.LASF78
 1528 0853 0A       		.byte	0xa
 1529 0854 33       		.byte	0x33
 1530 0855 5F080000 		.4byte	0x85f
 1531 0859 2C       		.uleb128 0x2c
 1532 085a FF030000 		.4byte	0x3ff
 1533 085e 00       		.byte	0
 1534 085f 30       		.uleb128 0x30
 1535 0860 2C040000 		.4byte	.LASF79
 1536 0864 09       		.byte	0x9
 1537 0865 8F       		.byte	0x8f
 1538 0866 E4000000 		.4byte	0xe4
 1539 086a 2C       		.uleb128 0x2c
ARM GAS  /tmp/ccvBeH0v.s 			page 28


 1540 086b B8000000 		.4byte	0xb8
 1541 086f 2C       		.uleb128 0x2c
 1542 0870 FA000000 		.4byte	0xfa
 1543 0874 00       		.byte	0
 1544 0875 00       		.byte	0
 1545              		.section	.debug_abbrev,"",%progbits
 1546              	.Ldebug_abbrev0:
 1547 0000 01       		.uleb128 0x1
 1548 0001 11       		.uleb128 0x11
 1549 0002 01       		.byte	0x1
 1550 0003 25       		.uleb128 0x25
 1551 0004 0E       		.uleb128 0xe
 1552 0005 13       		.uleb128 0x13
 1553 0006 0B       		.uleb128 0xb
 1554 0007 03       		.uleb128 0x3
 1555 0008 0E       		.uleb128 0xe
 1556 0009 1B       		.uleb128 0x1b
 1557 000a 0E       		.uleb128 0xe
 1558 000b 55       		.uleb128 0x55
 1559 000c 17       		.uleb128 0x17
 1560 000d 11       		.uleb128 0x11
 1561 000e 01       		.uleb128 0x1
 1562 000f 10       		.uleb128 0x10
 1563 0010 17       		.uleb128 0x17
 1564 0011 00       		.byte	0
 1565 0012 00       		.byte	0
 1566 0013 02       		.uleb128 0x2
 1567 0014 24       		.uleb128 0x24
 1568 0015 00       		.byte	0
 1569 0016 0B       		.uleb128 0xb
 1570 0017 0B       		.uleb128 0xb
 1571 0018 3E       		.uleb128 0x3e
 1572 0019 0B       		.uleb128 0xb
 1573 001a 03       		.uleb128 0x3
 1574 001b 08       		.uleb128 0x8
 1575 001c 00       		.byte	0
 1576 001d 00       		.byte	0
 1577 001e 03       		.uleb128 0x3
 1578 001f 24       		.uleb128 0x24
 1579 0020 00       		.byte	0
 1580 0021 0B       		.uleb128 0xb
 1581 0022 0B       		.uleb128 0xb
 1582 0023 3E       		.uleb128 0x3e
 1583 0024 0B       		.uleb128 0xb
 1584 0025 03       		.uleb128 0x3
 1585 0026 0E       		.uleb128 0xe
 1586 0027 00       		.byte	0
 1587 0028 00       		.byte	0
 1588 0029 04       		.uleb128 0x4
 1589 002a 16       		.uleb128 0x16
 1590 002b 00       		.byte	0
 1591 002c 03       		.uleb128 0x3
 1592 002d 0E       		.uleb128 0xe
 1593 002e 3A       		.uleb128 0x3a
 1594 002f 0B       		.uleb128 0xb
 1595 0030 3B       		.uleb128 0x3b
 1596 0031 0B       		.uleb128 0xb
ARM GAS  /tmp/ccvBeH0v.s 			page 29


 1597 0032 49       		.uleb128 0x49
 1598 0033 13       		.uleb128 0x13
 1599 0034 00       		.byte	0
 1600 0035 00       		.byte	0
 1601 0036 05       		.uleb128 0x5
 1602 0037 13       		.uleb128 0x13
 1603 0038 01       		.byte	0x1
 1604 0039 03       		.uleb128 0x3
 1605 003a 0E       		.uleb128 0xe
 1606 003b 0B       		.uleb128 0xb
 1607 003c 0B       		.uleb128 0xb
 1608 003d 3A       		.uleb128 0x3a
 1609 003e 0B       		.uleb128 0xb
 1610 003f 3B       		.uleb128 0x3b
 1611 0040 0B       		.uleb128 0xb
 1612 0041 01       		.uleb128 0x1
 1613 0042 13       		.uleb128 0x13
 1614 0043 00       		.byte	0
 1615 0044 00       		.byte	0
 1616 0045 06       		.uleb128 0x6
 1617 0046 0D       		.uleb128 0xd
 1618 0047 00       		.byte	0
 1619 0048 03       		.uleb128 0x3
 1620 0049 0E       		.uleb128 0xe
 1621 004a 3A       		.uleb128 0x3a
 1622 004b 0B       		.uleb128 0xb
 1623 004c 3B       		.uleb128 0x3b
 1624 004d 0B       		.uleb128 0xb
 1625 004e 49       		.uleb128 0x49
 1626 004f 13       		.uleb128 0x13
 1627 0050 38       		.uleb128 0x38
 1628 0051 0B       		.uleb128 0xb
 1629 0052 00       		.byte	0
 1630 0053 00       		.byte	0
 1631 0054 07       		.uleb128 0x7
 1632 0055 0D       		.uleb128 0xd
 1633 0056 00       		.byte	0
 1634 0057 03       		.uleb128 0x3
 1635 0058 08       		.uleb128 0x8
 1636 0059 3A       		.uleb128 0x3a
 1637 005a 0B       		.uleb128 0xb
 1638 005b 3B       		.uleb128 0x3b
 1639 005c 0B       		.uleb128 0xb
 1640 005d 49       		.uleb128 0x49
 1641 005e 13       		.uleb128 0x13
 1642 005f 38       		.uleb128 0x38
 1643 0060 0B       		.uleb128 0xb
 1644 0061 00       		.byte	0
 1645 0062 00       		.byte	0
 1646 0063 08       		.uleb128 0x8
 1647 0064 13       		.uleb128 0x13
 1648 0065 01       		.byte	0x1
 1649 0066 0B       		.uleb128 0xb
 1650 0067 0B       		.uleb128 0xb
 1651 0068 3A       		.uleb128 0x3a
 1652 0069 0B       		.uleb128 0xb
 1653 006a 3B       		.uleb128 0x3b
ARM GAS  /tmp/ccvBeH0v.s 			page 30


 1654 006b 0B       		.uleb128 0xb
 1655 006c 01       		.uleb128 0x1
 1656 006d 13       		.uleb128 0x13
 1657 006e 00       		.byte	0
 1658 006f 00       		.byte	0
 1659 0070 09       		.uleb128 0x9
 1660 0071 0F       		.uleb128 0xf
 1661 0072 00       		.byte	0
 1662 0073 0B       		.uleb128 0xb
 1663 0074 0B       		.uleb128 0xb
 1664 0075 49       		.uleb128 0x49
 1665 0076 13       		.uleb128 0x13
 1666 0077 00       		.byte	0
 1667 0078 00       		.byte	0
 1668 0079 0A       		.uleb128 0xa
 1669 007a 0F       		.uleb128 0xf
 1670 007b 00       		.byte	0
 1671 007c 0B       		.uleb128 0xb
 1672 007d 0B       		.uleb128 0xb
 1673 007e 00       		.byte	0
 1674 007f 00       		.byte	0
 1675 0080 0B       		.uleb128 0xb
 1676 0081 35       		.uleb128 0x35
 1677 0082 00       		.byte	0
 1678 0083 49       		.uleb128 0x49
 1679 0084 13       		.uleb128 0x13
 1680 0085 00       		.byte	0
 1681 0086 00       		.byte	0
 1682 0087 0C       		.uleb128 0xc
 1683 0088 17       		.uleb128 0x17
 1684 0089 01       		.byte	0x1
 1685 008a 0B       		.uleb128 0xb
 1686 008b 0B       		.uleb128 0xb
 1687 008c 3A       		.uleb128 0x3a
 1688 008d 0B       		.uleb128 0xb
 1689 008e 3B       		.uleb128 0x3b
 1690 008f 0B       		.uleb128 0xb
 1691 0090 01       		.uleb128 0x1
 1692 0091 13       		.uleb128 0x13
 1693 0092 00       		.byte	0
 1694 0093 00       		.byte	0
 1695 0094 0D       		.uleb128 0xd
 1696 0095 0D       		.uleb128 0xd
 1697 0096 00       		.byte	0
 1698 0097 03       		.uleb128 0x3
 1699 0098 0E       		.uleb128 0xe
 1700 0099 3A       		.uleb128 0x3a
 1701 009a 0B       		.uleb128 0xb
 1702 009b 3B       		.uleb128 0x3b
 1703 009c 0B       		.uleb128 0xb
 1704 009d 49       		.uleb128 0x49
 1705 009e 13       		.uleb128 0x13
 1706 009f 00       		.byte	0
 1707 00a0 00       		.byte	0
 1708 00a1 0E       		.uleb128 0xe
 1709 00a2 26       		.uleb128 0x26
 1710 00a3 00       		.byte	0
ARM GAS  /tmp/ccvBeH0v.s 			page 31


 1711 00a4 49       		.uleb128 0x49
 1712 00a5 13       		.uleb128 0x13
 1713 00a6 00       		.byte	0
 1714 00a7 00       		.byte	0
 1715 00a8 0F       		.uleb128 0xf
 1716 00a9 2E       		.uleb128 0x2e
 1717 00aa 01       		.byte	0x1
 1718 00ab 03       		.uleb128 0x3
 1719 00ac 0E       		.uleb128 0xe
 1720 00ad 3A       		.uleb128 0x3a
 1721 00ae 0B       		.uleb128 0xb
 1722 00af 3B       		.uleb128 0x3b
 1723 00b0 0B       		.uleb128 0xb
 1724 00b1 27       		.uleb128 0x27
 1725 00b2 19       		.uleb128 0x19
 1726 00b3 49       		.uleb128 0x49
 1727 00b4 13       		.uleb128 0x13
 1728 00b5 20       		.uleb128 0x20
 1729 00b6 0B       		.uleb128 0xb
 1730 00b7 01       		.uleb128 0x1
 1731 00b8 13       		.uleb128 0x13
 1732 00b9 00       		.byte	0
 1733 00ba 00       		.byte	0
 1734 00bb 10       		.uleb128 0x10
 1735 00bc 05       		.uleb128 0x5
 1736 00bd 00       		.byte	0
 1737 00be 03       		.uleb128 0x3
 1738 00bf 08       		.uleb128 0x8
 1739 00c0 3A       		.uleb128 0x3a
 1740 00c1 0B       		.uleb128 0xb
 1741 00c2 3B       		.uleb128 0x3b
 1742 00c3 0B       		.uleb128 0xb
 1743 00c4 49       		.uleb128 0x49
 1744 00c5 13       		.uleb128 0x13
 1745 00c6 00       		.byte	0
 1746 00c7 00       		.byte	0
 1747 00c8 11       		.uleb128 0x11
 1748 00c9 34       		.uleb128 0x34
 1749 00ca 00       		.byte	0
 1750 00cb 03       		.uleb128 0x3
 1751 00cc 08       		.uleb128 0x8
 1752 00cd 3A       		.uleb128 0x3a
 1753 00ce 0B       		.uleb128 0xb
 1754 00cf 3B       		.uleb128 0x3b
 1755 00d0 0B       		.uleb128 0xb
 1756 00d1 49       		.uleb128 0x49
 1757 00d2 13       		.uleb128 0x13
 1758 00d3 00       		.byte	0
 1759 00d4 00       		.byte	0
 1760 00d5 12       		.uleb128 0x12
 1761 00d6 2E       		.uleb128 0x2e
 1762 00d7 01       		.byte	0x1
 1763 00d8 03       		.uleb128 0x3
 1764 00d9 0E       		.uleb128 0xe
 1765 00da 3A       		.uleb128 0x3a
 1766 00db 0B       		.uleb128 0xb
 1767 00dc 3B       		.uleb128 0x3b
ARM GAS  /tmp/ccvBeH0v.s 			page 32


 1768 00dd 0B       		.uleb128 0xb
 1769 00de 27       		.uleb128 0x27
 1770 00df 19       		.uleb128 0x19
 1771 00e0 20       		.uleb128 0x20
 1772 00e1 0B       		.uleb128 0xb
 1773 00e2 01       		.uleb128 0x1
 1774 00e3 13       		.uleb128 0x13
 1775 00e4 00       		.byte	0
 1776 00e5 00       		.byte	0
 1777 00e6 13       		.uleb128 0x13
 1778 00e7 2E       		.uleb128 0x2e
 1779 00e8 01       		.byte	0x1
 1780 00e9 3F       		.uleb128 0x3f
 1781 00ea 19       		.uleb128 0x19
 1782 00eb 03       		.uleb128 0x3
 1783 00ec 0E       		.uleb128 0xe
 1784 00ed 3A       		.uleb128 0x3a
 1785 00ee 0B       		.uleb128 0xb
 1786 00ef 3B       		.uleb128 0x3b
 1787 00f0 0B       		.uleb128 0xb
 1788 00f1 27       		.uleb128 0x27
 1789 00f2 19       		.uleb128 0x19
 1790 00f3 11       		.uleb128 0x11
 1791 00f4 01       		.uleb128 0x1
 1792 00f5 12       		.uleb128 0x12
 1793 00f6 06       		.uleb128 0x6
 1794 00f7 40       		.uleb128 0x40
 1795 00f8 18       		.uleb128 0x18
 1796 00f9 9742     		.uleb128 0x2117
 1797 00fb 19       		.uleb128 0x19
 1798 00fc 01       		.uleb128 0x1
 1799 00fd 13       		.uleb128 0x13
 1800 00fe 00       		.byte	0
 1801 00ff 00       		.byte	0
 1802 0100 14       		.uleb128 0x14
 1803 0101 05       		.uleb128 0x5
 1804 0102 00       		.byte	0
 1805 0103 03       		.uleb128 0x3
 1806 0104 08       		.uleb128 0x8
 1807 0105 3A       		.uleb128 0x3a
 1808 0106 0B       		.uleb128 0xb
 1809 0107 3B       		.uleb128 0x3b
 1810 0108 0B       		.uleb128 0xb
 1811 0109 49       		.uleb128 0x49
 1812 010a 13       		.uleb128 0x13
 1813 010b 02       		.uleb128 0x2
 1814 010c 18       		.uleb128 0x18
 1815 010d 00       		.byte	0
 1816 010e 00       		.byte	0
 1817 010f 15       		.uleb128 0x15
 1818 0110 05       		.uleb128 0x5
 1819 0111 00       		.byte	0
 1820 0112 03       		.uleb128 0x3
 1821 0113 08       		.uleb128 0x8
 1822 0114 3A       		.uleb128 0x3a
 1823 0115 0B       		.uleb128 0xb
 1824 0116 3B       		.uleb128 0x3b
ARM GAS  /tmp/ccvBeH0v.s 			page 33


 1825 0117 0B       		.uleb128 0xb
 1826 0118 49       		.uleb128 0x49
 1827 0119 13       		.uleb128 0x13
 1828 011a 02       		.uleb128 0x2
 1829 011b 17       		.uleb128 0x17
 1830 011c 00       		.byte	0
 1831 011d 00       		.byte	0
 1832 011e 16       		.uleb128 0x16
 1833 011f 1D       		.uleb128 0x1d
 1834 0120 01       		.byte	0x1
 1835 0121 31       		.uleb128 0x31
 1836 0122 13       		.uleb128 0x13
 1837 0123 52       		.uleb128 0x52
 1838 0124 01       		.uleb128 0x1
 1839 0125 55       		.uleb128 0x55
 1840 0126 17       		.uleb128 0x17
 1841 0127 58       		.uleb128 0x58
 1842 0128 0B       		.uleb128 0xb
 1843 0129 59       		.uleb128 0x59
 1844 012a 0B       		.uleb128 0xb
 1845 012b 01       		.uleb128 0x1
 1846 012c 13       		.uleb128 0x13
 1847 012d 00       		.byte	0
 1848 012e 00       		.byte	0
 1849 012f 17       		.uleb128 0x17
 1850 0130 05       		.uleb128 0x5
 1851 0131 00       		.byte	0
 1852 0132 31       		.uleb128 0x31
 1853 0133 13       		.uleb128 0x13
 1854 0134 02       		.uleb128 0x2
 1855 0135 17       		.uleb128 0x17
 1856 0136 00       		.byte	0
 1857 0137 00       		.byte	0
 1858 0138 18       		.uleb128 0x18
 1859 0139 0B       		.uleb128 0xb
 1860 013a 01       		.byte	0x1
 1861 013b 55       		.uleb128 0x55
 1862 013c 17       		.uleb128 0x17
 1863 013d 00       		.byte	0
 1864 013e 00       		.byte	0
 1865 013f 19       		.uleb128 0x19
 1866 0140 34       		.uleb128 0x34
 1867 0141 00       		.byte	0
 1868 0142 31       		.uleb128 0x31
 1869 0143 13       		.uleb128 0x13
 1870 0144 02       		.uleb128 0x2
 1871 0145 17       		.uleb128 0x17
 1872 0146 00       		.byte	0
 1873 0147 00       		.byte	0
 1874 0148 1A       		.uleb128 0x1a
 1875 0149 898201   		.uleb128 0x4109
 1876 014c 01       		.byte	0x1
 1877 014d 11       		.uleb128 0x11
 1878 014e 01       		.uleb128 0x1
 1879 014f 31       		.uleb128 0x31
 1880 0150 13       		.uleb128 0x13
 1881 0151 00       		.byte	0
ARM GAS  /tmp/ccvBeH0v.s 			page 34


 1882 0152 00       		.byte	0
 1883 0153 1B       		.uleb128 0x1b
 1884 0154 8A8201   		.uleb128 0x410a
 1885 0157 00       		.byte	0
 1886 0158 02       		.uleb128 0x2
 1887 0159 18       		.uleb128 0x18
 1888 015a 9142     		.uleb128 0x2111
 1889 015c 18       		.uleb128 0x18
 1890 015d 00       		.byte	0
 1891 015e 00       		.byte	0
 1892 015f 1C       		.uleb128 0x1c
 1893 0160 898201   		.uleb128 0x4109
 1894 0163 00       		.byte	0
 1895 0164 11       		.uleb128 0x11
 1896 0165 01       		.uleb128 0x1
 1897 0166 31       		.uleb128 0x31
 1898 0167 13       		.uleb128 0x13
 1899 0168 00       		.byte	0
 1900 0169 00       		.byte	0
 1901 016a 1D       		.uleb128 0x1d
 1902 016b 1D       		.uleb128 0x1d
 1903 016c 01       		.byte	0x1
 1904 016d 31       		.uleb128 0x31
 1905 016e 13       		.uleb128 0x13
 1906 016f 11       		.uleb128 0x11
 1907 0170 01       		.uleb128 0x1
 1908 0171 12       		.uleb128 0x12
 1909 0172 06       		.uleb128 0x6
 1910 0173 58       		.uleb128 0x58
 1911 0174 0B       		.uleb128 0xb
 1912 0175 59       		.uleb128 0x59
 1913 0176 0B       		.uleb128 0xb
 1914 0177 01       		.uleb128 0x1
 1915 0178 13       		.uleb128 0x13
 1916 0179 00       		.byte	0
 1917 017a 00       		.byte	0
 1918 017b 1E       		.uleb128 0x1e
 1919 017c 05       		.uleb128 0x5
 1920 017d 00       		.byte	0
 1921 017e 31       		.uleb128 0x31
 1922 017f 13       		.uleb128 0x13
 1923 0180 02       		.uleb128 0x2
 1924 0181 18       		.uleb128 0x18
 1925 0182 00       		.byte	0
 1926 0183 00       		.byte	0
 1927 0184 1F       		.uleb128 0x1f
 1928 0185 0B       		.uleb128 0xb
 1929 0186 01       		.byte	0x1
 1930 0187 11       		.uleb128 0x11
 1931 0188 01       		.uleb128 0x1
 1932 0189 12       		.uleb128 0x12
 1933 018a 06       		.uleb128 0x6
 1934 018b 00       		.byte	0
 1935 018c 00       		.byte	0
 1936 018d 20       		.uleb128 0x20
 1937 018e 898201   		.uleb128 0x4109
 1938 0191 01       		.byte	0x1
ARM GAS  /tmp/ccvBeH0v.s 			page 35


 1939 0192 11       		.uleb128 0x11
 1940 0193 01       		.uleb128 0x1
 1941 0194 31       		.uleb128 0x31
 1942 0195 13       		.uleb128 0x13
 1943 0196 01       		.uleb128 0x1
 1944 0197 13       		.uleb128 0x13
 1945 0198 00       		.byte	0
 1946 0199 00       		.byte	0
 1947 019a 21       		.uleb128 0x21
 1948 019b 2E       		.uleb128 0x2e
 1949 019c 01       		.byte	0x1
 1950 019d 3F       		.uleb128 0x3f
 1951 019e 19       		.uleb128 0x19
 1952 019f 03       		.uleb128 0x3
 1953 01a0 0E       		.uleb128 0xe
 1954 01a1 3A       		.uleb128 0x3a
 1955 01a2 0B       		.uleb128 0xb
 1956 01a3 3B       		.uleb128 0x3b
 1957 01a4 0B       		.uleb128 0xb
 1958 01a5 27       		.uleb128 0x27
 1959 01a6 19       		.uleb128 0x19
 1960 01a7 49       		.uleb128 0x49
 1961 01a8 13       		.uleb128 0x13
 1962 01a9 11       		.uleb128 0x11
 1963 01aa 01       		.uleb128 0x1
 1964 01ab 12       		.uleb128 0x12
 1965 01ac 06       		.uleb128 0x6
 1966 01ad 40       		.uleb128 0x40
 1967 01ae 18       		.uleb128 0x18
 1968 01af 9742     		.uleb128 0x2117
 1969 01b1 19       		.uleb128 0x19
 1970 01b2 01       		.uleb128 0x1
 1971 01b3 13       		.uleb128 0x13
 1972 01b4 00       		.byte	0
 1973 01b5 00       		.byte	0
 1974 01b6 22       		.uleb128 0x22
 1975 01b7 34       		.uleb128 0x34
 1976 01b8 00       		.byte	0
 1977 01b9 03       		.uleb128 0x3
 1978 01ba 08       		.uleb128 0x8
 1979 01bb 3A       		.uleb128 0x3a
 1980 01bc 0B       		.uleb128 0xb
 1981 01bd 3B       		.uleb128 0x3b
 1982 01be 0B       		.uleb128 0xb
 1983 01bf 49       		.uleb128 0x49
 1984 01c0 13       		.uleb128 0x13
 1985 01c1 02       		.uleb128 0x2
 1986 01c2 17       		.uleb128 0x17
 1987 01c3 00       		.byte	0
 1988 01c4 00       		.byte	0
 1989 01c5 23       		.uleb128 0x23
 1990 01c6 34       		.uleb128 0x34
 1991 01c7 00       		.byte	0
 1992 01c8 03       		.uleb128 0x3
 1993 01c9 08       		.uleb128 0x8
 1994 01ca 3A       		.uleb128 0x3a
 1995 01cb 0B       		.uleb128 0xb
ARM GAS  /tmp/ccvBeH0v.s 			page 36


 1996 01cc 3B       		.uleb128 0x3b
 1997 01cd 0B       		.uleb128 0xb
 1998 01ce 49       		.uleb128 0x49
 1999 01cf 13       		.uleb128 0x13
 2000 01d0 02       		.uleb128 0x2
 2001 01d1 18       		.uleb128 0x18
 2002 01d2 00       		.byte	0
 2003 01d3 00       		.byte	0
 2004 01d4 24       		.uleb128 0x24
 2005 01d5 2E       		.uleb128 0x2e
 2006 01d6 01       		.byte	0x1
 2007 01d7 3F       		.uleb128 0x3f
 2008 01d8 19       		.uleb128 0x19
 2009 01d9 03       		.uleb128 0x3
 2010 01da 0E       		.uleb128 0xe
 2011 01db 3A       		.uleb128 0x3a
 2012 01dc 0B       		.uleb128 0xb
 2013 01dd 3B       		.uleb128 0x3b
 2014 01de 05       		.uleb128 0x5
 2015 01df 27       		.uleb128 0x27
 2016 01e0 19       		.uleb128 0x19
 2017 01e1 49       		.uleb128 0x49
 2018 01e2 13       		.uleb128 0x13
 2019 01e3 11       		.uleb128 0x11
 2020 01e4 01       		.uleb128 0x1
 2021 01e5 12       		.uleb128 0x12
 2022 01e6 06       		.uleb128 0x6
 2023 01e7 40       		.uleb128 0x40
 2024 01e8 18       		.uleb128 0x18
 2025 01e9 9742     		.uleb128 0x2117
 2026 01eb 19       		.uleb128 0x19
 2027 01ec 01       		.uleb128 0x1
 2028 01ed 13       		.uleb128 0x13
 2029 01ee 00       		.byte	0
 2030 01ef 00       		.byte	0
 2031 01f0 25       		.uleb128 0x25
 2032 01f1 05       		.uleb128 0x5
 2033 01f2 00       		.byte	0
 2034 01f3 03       		.uleb128 0x3
 2035 01f4 08       		.uleb128 0x8
 2036 01f5 3A       		.uleb128 0x3a
 2037 01f6 0B       		.uleb128 0xb
 2038 01f7 3B       		.uleb128 0x3b
 2039 01f8 05       		.uleb128 0x5
 2040 01f9 49       		.uleb128 0x49
 2041 01fa 13       		.uleb128 0x13
 2042 01fb 02       		.uleb128 0x2
 2043 01fc 17       		.uleb128 0x17
 2044 01fd 00       		.byte	0
 2045 01fe 00       		.byte	0
 2046 01ff 26       		.uleb128 0x26
 2047 0200 05       		.uleb128 0x5
 2048 0201 00       		.byte	0
 2049 0202 03       		.uleb128 0x3
 2050 0203 0E       		.uleb128 0xe
 2051 0204 3A       		.uleb128 0x3a
 2052 0205 0B       		.uleb128 0xb
ARM GAS  /tmp/ccvBeH0v.s 			page 37


 2053 0206 3B       		.uleb128 0x3b
 2054 0207 05       		.uleb128 0x5
 2055 0208 49       		.uleb128 0x49
 2056 0209 13       		.uleb128 0x13
 2057 020a 02       		.uleb128 0x2
 2058 020b 17       		.uleb128 0x17
 2059 020c 00       		.byte	0
 2060 020d 00       		.byte	0
 2061 020e 27       		.uleb128 0x27
 2062 020f 34       		.uleb128 0x34
 2063 0210 00       		.byte	0
 2064 0211 03       		.uleb128 0x3
 2065 0212 08       		.uleb128 0x8
 2066 0213 3A       		.uleb128 0x3a
 2067 0214 0B       		.uleb128 0xb
 2068 0215 3B       		.uleb128 0x3b
 2069 0216 05       		.uleb128 0x5
 2070 0217 49       		.uleb128 0x49
 2071 0218 13       		.uleb128 0x13
 2072 0219 02       		.uleb128 0x2
 2073 021a 17       		.uleb128 0x17
 2074 021b 00       		.byte	0
 2075 021c 00       		.byte	0
 2076 021d 28       		.uleb128 0x28
 2077 021e 1D       		.uleb128 0x1d
 2078 021f 01       		.byte	0x1
 2079 0220 31       		.uleb128 0x31
 2080 0221 13       		.uleb128 0x13
 2081 0222 52       		.uleb128 0x52
 2082 0223 01       		.uleb128 0x1
 2083 0224 55       		.uleb128 0x55
 2084 0225 17       		.uleb128 0x17
 2085 0226 58       		.uleb128 0x58
 2086 0227 0B       		.uleb128 0xb
 2087 0228 59       		.uleb128 0x59
 2088 0229 05       		.uleb128 0x5
 2089 022a 01       		.uleb128 0x1
 2090 022b 13       		.uleb128 0x13
 2091 022c 00       		.byte	0
 2092 022d 00       		.byte	0
 2093 022e 29       		.uleb128 0x29
 2094 022f 05       		.uleb128 0x5
 2095 0230 00       		.byte	0
 2096 0231 03       		.uleb128 0x3
 2097 0232 0E       		.uleb128 0xe
 2098 0233 3A       		.uleb128 0x3a
 2099 0234 0B       		.uleb128 0xb
 2100 0235 3B       		.uleb128 0x3b
 2101 0236 0B       		.uleb128 0xb
 2102 0237 49       		.uleb128 0x49
 2103 0238 13       		.uleb128 0x13
 2104 0239 02       		.uleb128 0x2
 2105 023a 17       		.uleb128 0x17
 2106 023b 00       		.byte	0
 2107 023c 00       		.byte	0
 2108 023d 2A       		.uleb128 0x2a
 2109 023e 34       		.uleb128 0x34
ARM GAS  /tmp/ccvBeH0v.s 			page 38


 2110 023f 00       		.byte	0
 2111 0240 03       		.uleb128 0x3
 2112 0241 0E       		.uleb128 0xe
 2113 0242 3A       		.uleb128 0x3a
 2114 0243 0B       		.uleb128 0xb
 2115 0244 3B       		.uleb128 0x3b
 2116 0245 0B       		.uleb128 0xb
 2117 0246 49       		.uleb128 0x49
 2118 0247 13       		.uleb128 0x13
 2119 0248 3F       		.uleb128 0x3f
 2120 0249 19       		.uleb128 0x19
 2121 024a 3C       		.uleb128 0x3c
 2122 024b 19       		.uleb128 0x19
 2123 024c 00       		.byte	0
 2124 024d 00       		.byte	0
 2125 024e 2B       		.uleb128 0x2b
 2126 024f 2E       		.uleb128 0x2e
 2127 0250 01       		.byte	0x1
 2128 0251 3F       		.uleb128 0x3f
 2129 0252 19       		.uleb128 0x19
 2130 0253 03       		.uleb128 0x3
 2131 0254 0E       		.uleb128 0xe
 2132 0255 3A       		.uleb128 0x3a
 2133 0256 0B       		.uleb128 0xb
 2134 0257 3B       		.uleb128 0x3b
 2135 0258 0B       		.uleb128 0xb
 2136 0259 27       		.uleb128 0x27
 2137 025a 19       		.uleb128 0x19
 2138 025b 3C       		.uleb128 0x3c
 2139 025c 19       		.uleb128 0x19
 2140 025d 01       		.uleb128 0x1
 2141 025e 13       		.uleb128 0x13
 2142 025f 00       		.byte	0
 2143 0260 00       		.byte	0
 2144 0261 2C       		.uleb128 0x2c
 2145 0262 05       		.uleb128 0x5
 2146 0263 00       		.byte	0
 2147 0264 49       		.uleb128 0x49
 2148 0265 13       		.uleb128 0x13
 2149 0266 00       		.byte	0
 2150 0267 00       		.byte	0
 2151 0268 2D       		.uleb128 0x2d
 2152 0269 2E       		.uleb128 0x2e
 2153 026a 01       		.byte	0x1
 2154 026b 3F       		.uleb128 0x3f
 2155 026c 19       		.uleb128 0x19
 2156 026d 03       		.uleb128 0x3
 2157 026e 0E       		.uleb128 0xe
 2158 026f 3A       		.uleb128 0x3a
 2159 0270 0B       		.uleb128 0xb
 2160 0271 3B       		.uleb128 0x3b
 2161 0272 0B       		.uleb128 0xb
 2162 0273 27       		.uleb128 0x27
 2163 0274 19       		.uleb128 0x19
 2164 0275 49       		.uleb128 0x49
 2165 0276 13       		.uleb128 0x13
 2166 0277 3C       		.uleb128 0x3c
ARM GAS  /tmp/ccvBeH0v.s 			page 39


 2167 0278 19       		.uleb128 0x19
 2168 0279 01       		.uleb128 0x1
 2169 027a 13       		.uleb128 0x13
 2170 027b 00       		.byte	0
 2171 027c 00       		.byte	0
 2172 027d 2E       		.uleb128 0x2e
 2173 027e 2E       		.uleb128 0x2e
 2174 027f 00       		.byte	0
 2175 0280 3F       		.uleb128 0x3f
 2176 0281 19       		.uleb128 0x19
 2177 0282 03       		.uleb128 0x3
 2178 0283 0E       		.uleb128 0xe
 2179 0284 3A       		.uleb128 0x3a
 2180 0285 0B       		.uleb128 0xb
 2181 0286 3B       		.uleb128 0x3b
 2182 0287 0B       		.uleb128 0xb
 2183 0288 27       		.uleb128 0x27
 2184 0289 19       		.uleb128 0x19
 2185 028a 3C       		.uleb128 0x3c
 2186 028b 19       		.uleb128 0x19
 2187 028c 00       		.byte	0
 2188 028d 00       		.byte	0
 2189 028e 2F       		.uleb128 0x2f
 2190 028f 2E       		.uleb128 0x2e
 2191 0290 00       		.byte	0
 2192 0291 3F       		.uleb128 0x3f
 2193 0292 19       		.uleb128 0x19
 2194 0293 03       		.uleb128 0x3
 2195 0294 0E       		.uleb128 0xe
 2196 0295 3A       		.uleb128 0x3a
 2197 0296 0B       		.uleb128 0xb
 2198 0297 3B       		.uleb128 0x3b
 2199 0298 0B       		.uleb128 0xb
 2200 0299 27       		.uleb128 0x27
 2201 029a 19       		.uleb128 0x19
 2202 029b 49       		.uleb128 0x49
 2203 029c 13       		.uleb128 0x13
 2204 029d 3C       		.uleb128 0x3c
 2205 029e 19       		.uleb128 0x19
 2206 029f 00       		.byte	0
 2207 02a0 00       		.byte	0
 2208 02a1 30       		.uleb128 0x30
 2209 02a2 2E       		.uleb128 0x2e
 2210 02a3 01       		.byte	0x1
 2211 02a4 3F       		.uleb128 0x3f
 2212 02a5 19       		.uleb128 0x19
 2213 02a6 03       		.uleb128 0x3
 2214 02a7 0E       		.uleb128 0xe
 2215 02a8 3A       		.uleb128 0x3a
 2216 02a9 0B       		.uleb128 0xb
 2217 02aa 3B       		.uleb128 0x3b
 2218 02ab 0B       		.uleb128 0xb
 2219 02ac 27       		.uleb128 0x27
 2220 02ad 19       		.uleb128 0x19
 2221 02ae 49       		.uleb128 0x49
 2222 02af 13       		.uleb128 0x13
 2223 02b0 3C       		.uleb128 0x3c
ARM GAS  /tmp/ccvBeH0v.s 			page 40


 2224 02b1 19       		.uleb128 0x19
 2225 02b2 00       		.byte	0
 2226 02b3 00       		.byte	0
 2227 02b4 00       		.byte	0
 2228              		.section	.debug_loc,"",%progbits
 2229              	.Ldebug_loc0:
 2230              	.LLST0:
 2231 0000 00000000 		.4byte	.LVL1
 2232 0004 20000000 		.4byte	.LVL3
 2233 0008 0100     		.2byte	0x1
 2234 000a 50       		.byte	0x50
 2235 000b 20000000 		.4byte	.LVL3
 2236 000f 2F000000 		.4byte	.LVL4-1
 2237 0013 0100     		.2byte	0x1
 2238 0015 53       		.byte	0x53
 2239 0016 2F000000 		.4byte	.LVL4-1
 2240 001a 38000000 		.4byte	.LVL5
 2241 001e 0400     		.2byte	0x4
 2242 0020 F3       		.byte	0xf3
 2243 0021 01       		.uleb128 0x1
 2244 0022 50       		.byte	0x50
 2245 0023 9F       		.byte	0x9f
 2246 0024 38000000 		.4byte	.LVL5
 2247 0028 40000000 		.4byte	.LFE8
 2248 002c 0100     		.2byte	0x1
 2249 002e 50       		.byte	0x50
 2250 002f 00000000 		.4byte	0
 2251 0033 00000000 		.4byte	0
 2252              	.LLST1:
 2253 0037 18000000 		.4byte	.LVL2
 2254 003b 20000000 		.4byte	.LVL3
 2255 003f 0100     		.2byte	0x1
 2256 0041 50       		.byte	0x50
 2257 0042 20000000 		.4byte	.LVL3
 2258 0046 2F000000 		.4byte	.LVL4-1
 2259 004a 0100     		.2byte	0x1
 2260 004c 53       		.byte	0x53
 2261 004d 2F000000 		.4byte	.LVL4-1
 2262 0051 38000000 		.4byte	.LVL5
 2263 0055 0400     		.2byte	0x4
 2264 0057 F3       		.byte	0xf3
 2265 0058 01       		.uleb128 0x1
 2266 0059 50       		.byte	0x50
 2267 005a 9F       		.byte	0x9f
 2268 005b 00000000 		.4byte	0
 2269 005f 00000000 		.4byte	0
 2270              	.LLST2:
 2271 0063 18000000 		.4byte	.LVL2
 2272 0067 2F000000 		.4byte	.LVL4-1
 2273 006b 0100     		.2byte	0x1
 2274 006d 52       		.byte	0x52
 2275 006e 00000000 		.4byte	0
 2276 0072 00000000 		.4byte	0
 2277              	.LLST3:
 2278 0076 00000000 		.4byte	.LVL6
 2279 007a 1C000000 		.4byte	.LVL8
 2280 007e 0100     		.2byte	0x1
ARM GAS  /tmp/ccvBeH0v.s 			page 41


 2281 0080 50       		.byte	0x50
 2282 0081 1C000000 		.4byte	.LVL8
 2283 0085 27000000 		.4byte	.LVL9-1
 2284 0089 0100     		.2byte	0x1
 2285 008b 53       		.byte	0x53
 2286 008c 27000000 		.4byte	.LVL9-1
 2287 0090 34000000 		.4byte	.LFE9
 2288 0094 0400     		.2byte	0x4
 2289 0096 F3       		.byte	0xf3
 2290 0097 01       		.uleb128 0x1
 2291 0098 50       		.byte	0x50
 2292 0099 9F       		.byte	0x9f
 2293 009a 00000000 		.4byte	0
 2294 009e 00000000 		.4byte	0
 2295              	.LLST4:
 2296 00a2 14000000 		.4byte	.LVL7
 2297 00a6 1C000000 		.4byte	.LVL8
 2298 00aa 0100     		.2byte	0x1
 2299 00ac 50       		.byte	0x50
 2300 00ad 1C000000 		.4byte	.LVL8
 2301 00b1 27000000 		.4byte	.LVL9-1
 2302 00b5 0100     		.2byte	0x1
 2303 00b7 53       		.byte	0x53
 2304 00b8 27000000 		.4byte	.LVL9-1
 2305 00bc 34000000 		.4byte	.LFE9
 2306 00c0 0400     		.2byte	0x4
 2307 00c2 F3       		.byte	0xf3
 2308 00c3 01       		.uleb128 0x1
 2309 00c4 50       		.byte	0x50
 2310 00c5 9F       		.byte	0x9f
 2311 00c6 00000000 		.4byte	0
 2312 00ca 00000000 		.4byte	0
 2313              	.LLST5:
 2314 00ce 14000000 		.4byte	.LVL7
 2315 00d2 27000000 		.4byte	.LVL9-1
 2316 00d6 0100     		.2byte	0x1
 2317 00d8 52       		.byte	0x52
 2318 00d9 00000000 		.4byte	0
 2319 00dd 00000000 		.4byte	0
 2320              	.LLST6:
 2321 00e1 00000000 		.4byte	.LVL10
 2322 00e5 0C000000 		.4byte	.LVL11
 2323 00e9 0100     		.2byte	0x1
 2324 00eb 50       		.byte	0x50
 2325 00ec 0C000000 		.4byte	.LVL11
 2326 00f0 3C000000 		.4byte	.LFE11
 2327 00f4 0100     		.2byte	0x1
 2328 00f6 54       		.byte	0x54
 2329 00f7 00000000 		.4byte	0
 2330 00fb 00000000 		.4byte	0
 2331              	.LLST7:
 2332 00ff 18000000 		.4byte	.LVL12
 2333 0103 27000000 		.4byte	.LVL13-1
 2334 0107 0100     		.2byte	0x1
 2335 0109 50       		.byte	0x50
 2336 010a 00000000 		.4byte	0
 2337 010e 00000000 		.4byte	0
ARM GAS  /tmp/ccvBeH0v.s 			page 42


 2338              	.LLST8:
 2339 0112 00000000 		.4byte	.LVL14
 2340 0116 0B000000 		.4byte	.LVL15-1
 2341 011a 0100     		.2byte	0x1
 2342 011c 50       		.byte	0x50
 2343 011d 0B000000 		.4byte	.LVL15-1
 2344 0121 18000000 		.4byte	.LFE10
 2345 0125 0400     		.2byte	0x4
 2346 0127 F3       		.byte	0xf3
 2347 0128 01       		.uleb128 0x1
 2348 0129 50       		.byte	0x50
 2349 012a 9F       		.byte	0x9f
 2350 012b 00000000 		.4byte	0
 2351 012f 00000000 		.4byte	0
 2352              	.LLST9:
 2353 0133 00000000 		.4byte	.LVL17
 2354 0137 13000000 		.4byte	.LVL19-1
 2355 013b 0100     		.2byte	0x1
 2356 013d 50       		.byte	0x50
 2357 013e 13000000 		.4byte	.LVL19-1
 2358 0142 74000000 		.4byte	.LFE13
 2359 0146 0100     		.2byte	0x1
 2360 0148 55       		.byte	0x55
 2361 0149 00000000 		.4byte	0
 2362 014d 00000000 		.4byte	0
 2363              	.LLST10:
 2364 0151 10000000 		.4byte	.LVL18
 2365 0155 60000000 		.4byte	.LVL26
 2366 0159 0100     		.2byte	0x1
 2367 015b 54       		.byte	0x54
 2368 015c 00000000 		.4byte	0
 2369 0160 00000000 		.4byte	0
 2370              	.LLST11:
 2371 0164 1C000000 		.4byte	.LVL20
 2372 0168 48000000 		.4byte	.LVL24
 2373 016c 0100     		.2byte	0x1
 2374 016e 50       		.byte	0x50
 2375 016f 48000000 		.4byte	.LVL24
 2376 0173 74000000 		.4byte	.LFE13
 2377 0177 0100     		.2byte	0x1
 2378 0179 56       		.byte	0x56
 2379 017a 00000000 		.4byte	0
 2380 017e 00000000 		.4byte	0
 2381              	.LLST12:
 2382 0182 20000000 		.4byte	.LVL21
 2383 0186 60000000 		.4byte	.LVL26
 2384 018a 0100     		.2byte	0x1
 2385 018c 54       		.byte	0x54
 2386 018d 00000000 		.4byte	0
 2387 0191 00000000 		.4byte	0
 2388              	.LLST13:
 2389 0195 20000000 		.4byte	.LVL21
 2390 0199 24000000 		.4byte	.LVL22
 2391 019d 0100     		.2byte	0x1
 2392 019f 55       		.byte	0x55
 2393 01a0 24000000 		.4byte	.LVL22
 2394 01a4 5B000000 		.4byte	.LVL25-1
ARM GAS  /tmp/ccvBeH0v.s 			page 43


 2395 01a8 0100     		.2byte	0x1
 2396 01aa 53       		.byte	0x53
 2397 01ab 00000000 		.4byte	0
 2398 01af 00000000 		.4byte	0
 2399              	.LLST14:
 2400 01b3 00000000 		.4byte	.LVL28
 2401 01b7 0B000000 		.4byte	.LVL29-1
 2402 01bb 0100     		.2byte	0x1
 2403 01bd 50       		.byte	0x50
 2404 01be 0B000000 		.4byte	.LVL29-1
 2405 01c2 14000000 		.4byte	.LFE12
 2406 01c6 0400     		.2byte	0x4
 2407 01c8 F3       		.byte	0xf3
 2408 01c9 01       		.uleb128 0x1
 2409 01ca 50       		.byte	0x50
 2410 01cb 9F       		.byte	0x9f
 2411 01cc 00000000 		.4byte	0
 2412 01d0 00000000 		.4byte	0
 2413              	.LLST15:
 2414 01d4 00000000 		.4byte	.LVL30
 2415 01d8 0F000000 		.4byte	.LVL31-1
 2416 01dc 0100     		.2byte	0x1
 2417 01de 50       		.byte	0x50
 2418 01df 0F000000 		.4byte	.LVL31-1
 2419 01e3 6C000000 		.4byte	.LVL37
 2420 01e7 0100     		.2byte	0x1
 2421 01e9 54       		.byte	0x54
 2422 01ea 6C000000 		.4byte	.LVL37
 2423 01ee 84000000 		.4byte	.LFE15
 2424 01f2 0400     		.2byte	0x4
 2425 01f4 F3       		.byte	0xf3
 2426 01f5 01       		.uleb128 0x1
 2427 01f6 50       		.byte	0x50
 2428 01f7 9F       		.byte	0x9f
 2429 01f8 00000000 		.4byte	0
 2430 01fc 00000000 		.4byte	0
 2431              	.LLST16:
 2432 0200 00000000 		.4byte	.LVL30
 2433 0204 0F000000 		.4byte	.LVL31-1
 2434 0208 0100     		.2byte	0x1
 2435 020a 51       		.byte	0x51
 2436 020b 0F000000 		.4byte	.LVL31-1
 2437 020f 84000000 		.4byte	.LFE15
 2438 0213 0100     		.2byte	0x1
 2439 0215 56       		.byte	0x56
 2440 0216 00000000 		.4byte	0
 2441 021a 00000000 		.4byte	0
 2442              	.LLST17:
 2443 021e 18000000 		.4byte	.LVL32
 2444 0222 28000000 		.4byte	.LVL34
 2445 0226 0100     		.2byte	0x1
 2446 0228 50       		.byte	0x50
 2447 0229 28000000 		.4byte	.LVL34
 2448 022d 84000000 		.4byte	.LFE15
 2449 0231 0100     		.2byte	0x1
 2450 0233 55       		.byte	0x55
 2451 0234 00000000 		.4byte	0
ARM GAS  /tmp/ccvBeH0v.s 			page 44


 2452 0238 00000000 		.4byte	0
 2453              	.LLST18:
 2454 023c 6C000000 		.4byte	.LVL37
 2455 0240 74000000 		.4byte	.LVL38
 2456 0244 0100     		.2byte	0x1
 2457 0246 50       		.byte	0x50
 2458 0247 74000000 		.4byte	.LVL38
 2459 024b 84000000 		.4byte	.LFE15
 2460 024f 0100     		.2byte	0x1
 2461 0251 54       		.byte	0x54
 2462 0252 00000000 		.4byte	0
 2463 0256 00000000 		.4byte	0
 2464              	.LLST19:
 2465 025a 24000000 		.4byte	.LVL33
 2466 025e 6C000000 		.4byte	.LVL37
 2467 0262 0100     		.2byte	0x1
 2468 0264 54       		.byte	0x54
 2469 0265 6C000000 		.4byte	.LVL37
 2470 0269 84000000 		.4byte	.LFE15
 2471 026d 0400     		.2byte	0x4
 2472 026f F3       		.byte	0xf3
 2473 0270 01       		.uleb128 0x1
 2474 0271 50       		.byte	0x50
 2475 0272 9F       		.byte	0x9f
 2476 0273 00000000 		.4byte	0
 2477 0277 00000000 		.4byte	0
 2478              	.LLST20:
 2479 027b 24000000 		.4byte	.LVL33
 2480 027f 63000000 		.4byte	.LVL36-1
 2481 0283 0100     		.2byte	0x1
 2482 0285 5C       		.byte	0x5c
 2483 0286 00000000 		.4byte	0
 2484 028a 00000000 		.4byte	0
 2485              	.LLST21:
 2486 028e 24000000 		.4byte	.LVL33
 2487 0292 28000000 		.4byte	.LVL34
 2488 0296 0100     		.2byte	0x1
 2489 0298 54       		.byte	0x54
 2490 0299 28000000 		.4byte	.LVL34
 2491 029d 63000000 		.4byte	.LVL36-1
 2492 02a1 0100     		.2byte	0x1
 2493 02a3 53       		.byte	0x53
 2494 02a4 00000000 		.4byte	0
 2495 02a8 00000000 		.4byte	0
 2496              	.LLST22:
 2497 02ac 00000000 		.4byte	.LVL40
 2498 02b0 0B000000 		.4byte	.LVL41-1
 2499 02b4 0100     		.2byte	0x1
 2500 02b6 50       		.byte	0x50
 2501 02b7 0B000000 		.4byte	.LVL41-1
 2502 02bb 14000000 		.4byte	.LFE14
 2503 02bf 0400     		.2byte	0x4
 2504 02c1 F3       		.byte	0xf3
 2505 02c2 01       		.uleb128 0x1
 2506 02c3 50       		.byte	0x50
 2507 02c4 9F       		.byte	0x9f
 2508 02c5 00000000 		.4byte	0
ARM GAS  /tmp/ccvBeH0v.s 			page 45


 2509 02c9 00000000 		.4byte	0
 2510              	.LLST23:
 2511 02cd 00000000 		.4byte	.LVL40
 2512 02d1 0B000000 		.4byte	.LVL41-1
 2513 02d5 0100     		.2byte	0x1
 2514 02d7 51       		.byte	0x51
 2515 02d8 0B000000 		.4byte	.LVL41-1
 2516 02dc 14000000 		.4byte	.LFE14
 2517 02e0 0400     		.2byte	0x4
 2518 02e2 F3       		.byte	0xf3
 2519 02e3 01       		.uleb128 0x1
 2520 02e4 51       		.byte	0x51
 2521 02e5 9F       		.byte	0x9f
 2522 02e6 00000000 		.4byte	0
 2523 02ea 00000000 		.4byte	0
 2524              		.section	.debug_aranges,"",%progbits
 2525 0000 5C000000 		.4byte	0x5c
 2526 0004 0200     		.2byte	0x2
 2527 0006 00000000 		.4byte	.Ldebug_info0
 2528 000a 04       		.byte	0x4
 2529 000b 00       		.byte	0
 2530 000c 0000     		.2byte	0
 2531 000e 0000     		.2byte	0
 2532 0010 00000000 		.4byte	.LFB7
 2533 0014 0C000000 		.4byte	.LFE7-.LFB7
 2534 0018 00000000 		.4byte	.LFB8
 2535 001c 40000000 		.4byte	.LFE8-.LFB8
 2536 0020 00000000 		.4byte	.LFB9
 2537 0024 34000000 		.4byte	.LFE9-.LFB9
 2538 0028 00000000 		.4byte	.LFB11
 2539 002c 3C000000 		.4byte	.LFE11-.LFB11
 2540 0030 00000000 		.4byte	.LFB10
 2541 0034 18000000 		.4byte	.LFE10-.LFB10
 2542 0038 00000000 		.4byte	.LFB13
 2543 003c 74000000 		.4byte	.LFE13-.LFB13
 2544 0040 00000000 		.4byte	.LFB12
 2545 0044 14000000 		.4byte	.LFE12-.LFB12
 2546 0048 00000000 		.4byte	.LFB15
 2547 004c 84000000 		.4byte	.LFE15-.LFB15
 2548 0050 00000000 		.4byte	.LFB14
 2549 0054 14000000 		.4byte	.LFE14-.LFB14
 2550 0058 00000000 		.4byte	0
 2551 005c 00000000 		.4byte	0
 2552              		.section	.debug_ranges,"",%progbits
 2553              	.Ldebug_ranges0:
 2554 0000 18000000 		.4byte	.LBB12
 2555 0004 1C000000 		.4byte	.LBE12
 2556 0008 20000000 		.4byte	.LBB16
 2557 000c 24000000 		.4byte	.LBE16
 2558 0010 28000000 		.4byte	.LBB17
 2559 0014 2C000000 		.4byte	.LBE17
 2560 0018 00000000 		.4byte	0
 2561 001c 00000000 		.4byte	0
 2562 0020 14000000 		.4byte	.LBB18
 2563 0024 18000000 		.4byte	.LBE18
 2564 0028 1C000000 		.4byte	.LBB21
 2565 002c 24000000 		.4byte	.LBE21
ARM GAS  /tmp/ccvBeH0v.s 			page 46


 2566 0030 00000000 		.4byte	0
 2567 0034 00000000 		.4byte	0
 2568 0038 14000000 		.4byte	.LBB24
 2569 003c 18000000 		.4byte	.LBE24
 2570 0040 24000000 		.4byte	.LBB28
 2571 0044 44000000 		.4byte	.LBE28
 2572 0048 48000000 		.4byte	.LBB29
 2573 004c 58000000 		.4byte	.LBE29
 2574 0050 00000000 		.4byte	0
 2575 0054 00000000 		.4byte	0
 2576 0058 1C000000 		.4byte	.LBB30
 2577 005c 20000000 		.4byte	.LBE30
 2578 0060 28000000 		.4byte	.LBB35
 2579 0064 48000000 		.4byte	.LBE35
 2580 0068 4C000000 		.4byte	.LBB36
 2581 006c 54000000 		.4byte	.LBE36
 2582 0070 58000000 		.4byte	.LBB37
 2583 0074 60000000 		.4byte	.LBE37
 2584 0078 00000000 		.4byte	0
 2585 007c 00000000 		.4byte	0
 2586 0080 00000000 		.4byte	.LFB7
 2587 0084 0C000000 		.4byte	.LFE7
 2588 0088 00000000 		.4byte	.LFB8
 2589 008c 40000000 		.4byte	.LFE8
 2590 0090 00000000 		.4byte	.LFB9
 2591 0094 34000000 		.4byte	.LFE9
 2592 0098 00000000 		.4byte	.LFB11
 2593 009c 3C000000 		.4byte	.LFE11
 2594 00a0 00000000 		.4byte	.LFB10
 2595 00a4 18000000 		.4byte	.LFE10
 2596 00a8 00000000 		.4byte	.LFB13
 2597 00ac 74000000 		.4byte	.LFE13
 2598 00b0 00000000 		.4byte	.LFB12
 2599 00b4 14000000 		.4byte	.LFE12
 2600 00b8 00000000 		.4byte	.LFB15
 2601 00bc 84000000 		.4byte	.LFE15
 2602 00c0 00000000 		.4byte	.LFB14
 2603 00c4 14000000 		.4byte	.LFE14
 2604 00c8 00000000 		.4byte	0
 2605 00cc 00000000 		.4byte	0
 2606              		.section	.debug_line,"",%progbits
 2607              	.Ldebug_line0:
 2608 0000 7B020000 		.section	.debug_str,"MS",%progbits,1
 2608      02001D01 
 2608      00000201 
 2608      FB0E0D00 
 2608      01010101 
 2609              	.LASF38:
 2610 0000 705F6D73 		.ascii	"p_msg\000"
 2610      6700
 2611              	.LASF66:
 2612 0006 6368436F 		.ascii	"chCondInit\000"
 2612      6E64496E 
 2612      697400
 2613              	.LASF60:
 2614 0011 7264796D 		.ascii	"rdymsg\000"
 2614      736700
ARM GAS  /tmp/ccvBeH0v.s 			page 47


 2615              	.LASF5:
 2616 0018 5F5F7569 		.ascii	"__uint8_t\000"
 2616      6E74385F 
 2616      7400
 2617              	.LASF11:
 2618 0022 6C6F6E67 		.ascii	"long long unsigned int\000"
 2618      206C6F6E 
 2618      6720756E 
 2618      7369676E 
 2618      65642069 
 2619              	.LASF61:
 2620 0039 65786974 		.ascii	"exitcode\000"
 2620      636F6465 
 2620      00
 2621              	.LASF69:
 2622 0042 6368436F 		.ascii	"chCondBroadcastI\000"
 2622      6E644272 
 2622      6F616463 
 2622      61737449 
 2622      00
 2623              	.LASF26:
 2624 0053 705F7072 		.ascii	"p_prio\000"
 2624      696F00
 2625              	.LASF10:
 2626 005a 6C6F6E67 		.ascii	"long long int\000"
 2626      206C6F6E 
 2626      6720696E 
 2626      7400
 2627              	.LASF1:
 2628 0068 7369676E 		.ascii	"signed char\000"
 2628      65642063 
 2628      68617200 
 2629              	.LASF55:
 2630 0074 6D5F7175 		.ascii	"m_queue\000"
 2630      65756500 
 2631              	.LASF18:
 2632 007c 74736C69 		.ascii	"tslices_t\000"
 2632      6365735F 
 2632      7400
 2633              	.LASF58:
 2634 0086 436F6E64 		.ascii	"CondVar\000"
 2634      56617200 
 2635              	.LASF7:
 2636 008e 6C6F6E67 		.ascii	"long int\000"
 2636      20696E74 
 2636      00
 2637              	.LASF16:
 2638 0097 74737461 		.ascii	"tstate_t\000"
 2638      74655F74 
 2638      00
 2639              	.LASF78:
 2640 00a0 63684D74 		.ascii	"chMtxLockS\000"
 2640      784C6F63 
 2640      6B5300
 2641              	.LASF28:
 2642 00ab 705F6E65 		.ascii	"p_newer\000"
 2642      77657200 
ARM GAS  /tmp/ccvBeH0v.s 			page 48


 2643              	.LASF87:
 2644 00b3 63685363 		.ascii	"chSchRescheduleS\000"
 2644      68526573 
 2644      63686564 
 2644      756C6553 
 2644      00
 2645              	.LASF8:
 2646 00c4 5F5F7569 		.ascii	"__uint32_t\000"
 2646      6E743332 
 2646      5F7400
 2647              	.LASF44:
 2648 00cf 72656761 		.ascii	"regarm_t\000"
 2648      726D5F74 
 2648      00
 2649              	.LASF81:
 2650 00d8 2E2E2F2E 		.ascii	"../../os/kernel/src/chcond.c\000"
 2650      2E2F6F73 
 2650      2F6B6572 
 2650      6E656C2F 
 2650      7372632F 
 2651              	.LASF67:
 2652 00f5 6368436F 		.ascii	"chCondSignal\000"
 2652      6E645369 
 2652      676E616C 
 2652      00
 2653              	.LASF88:
 2654 0102 63684D74 		.ascii	"chMtxUnlockS\000"
 2654      78556E6C 
 2654      6F636B53 
 2654      00
 2655              	.LASF0:
 2656 010f 756E7369 		.ascii	"unsigned int\000"
 2656      676E6564 
 2656      20696E74 
 2656      00
 2657              	.LASF9:
 2658 011c 6C6F6E67 		.ascii	"long unsigned int\000"
 2658      20756E73 
 2658      69676E65 
 2658      6420696E 
 2658      7400
 2659              	.LASF46:
 2660 012e 636F6E74 		.ascii	"context\000"
 2660      65787400 
 2661              	.LASF4:
 2662 0136 73686F72 		.ascii	"short unsigned int\000"
 2662      7420756E 
 2662      7369676E 
 2662      65642069 
 2662      6E7400
 2663              	.LASF20:
 2664 0149 6D73675F 		.ascii	"msg_t\000"
 2664      7400
 2665              	.LASF50:
 2666 014f 725F6E65 		.ascii	"r_newer\000"
 2666      77657200 
 2667              	.LASF15:
ARM GAS  /tmp/ccvBeH0v.s 			page 49


 2668 0157 746D6F64 		.ascii	"tmode_t\000"
 2668      655F7400 
 2669              	.LASF43:
 2670 015f 54687265 		.ascii	"ThreadsList\000"
 2670      6164734C 
 2670      69737400 
 2671              	.LASF21:
 2672 016b 6576656E 		.ascii	"eventmask_t\000"
 2672      746D6173 
 2672      6B5F7400 
 2673              	.LASF54:
 2674 0177 4D757465 		.ascii	"Mutex\000"
 2674      7800
 2675              	.LASF65:
 2676 017d 73697A65 		.ascii	"sizetype\000"
 2676      74797065 
 2676      00
 2677              	.LASF73:
 2678 0186 6368436F 		.ascii	"chCondWaitTimeoutS\000"
 2678      6E645761 
 2678      69745469 
 2678      6D656F75 
 2678      745300
 2679              	.LASF29:
 2680 0199 705F6F6C 		.ascii	"p_older\000"
 2680      64657200 
 2681              	.LASF49:
 2682 01a1 725F6374 		.ascii	"r_ctx\000"
 2682      7800
 2683              	.LASF42:
 2684 01a7 54687265 		.ascii	"ThreadsQueue\000"
 2684      61647351 
 2684      75657565 
 2684      00
 2685              	.LASF74:
 2686 01b4 74696D65 		.ascii	"time\000"
 2686      00
 2687              	.LASF52:
 2688 01b9 725F6375 		.ascii	"r_current\000"
 2688      7272656E 
 2688      7400
 2689              	.LASF51:
 2690 01c3 725F6F6C 		.ascii	"r_older\000"
 2690      64657200 
 2691              	.LASF70:
 2692 01cb 6368436F 		.ascii	"chCondBroadcast\000"
 2692      6E644272 
 2692      6F616463 
 2692      61737400 
 2693              	.LASF17:
 2694 01db 74726566 		.ascii	"trefs_t\000"
 2694      735F7400 
 2695              	.LASF25:
 2696 01e3 705F7072 		.ascii	"p_prev\000"
 2696      657600
 2697              	.LASF19:
 2698 01ea 74707269 		.ascii	"tprio_t\000"
ARM GAS  /tmp/ccvBeH0v.s 			page 50


 2698      6F5F7400 
 2699              	.LASF68:
 2700 01f2 6368436F 		.ascii	"chCondSignalI\000"
 2700      6E645369 
 2700      676E616C 
 2700      4900
 2701              	.LASF13:
 2702 0200 696E7433 		.ascii	"int32_t\000"
 2702      325F7400 
 2703              	.LASF2:
 2704 0208 756E7369 		.ascii	"unsigned char\000"
 2704      676E6564 
 2704      20636861 
 2704      7200
 2705              	.LASF40:
 2706 0216 705F6D74 		.ascii	"p_mtxlist\000"
 2706      786C6973 
 2706      7400
 2707              	.LASF3:
 2708 0220 73686F72 		.ascii	"short int\000"
 2708      7420696E 
 2708      7400
 2709              	.LASF31:
 2710 022a 705F7374 		.ascii	"p_state\000"
 2710      61746500 
 2711              	.LASF34:
 2712 0232 705F7072 		.ascii	"p_preempt\000"
 2712      65656D70 
 2712      7400
 2713              	.LASF48:
 2714 023c 725F7072 		.ascii	"r_prio\000"
 2714      696F00
 2715              	.LASF63:
 2716 0243 65776D61 		.ascii	"ewmask\000"
 2716      736B00
 2717              	.LASF24:
 2718 024a 705F6E65 		.ascii	"p_next\000"
 2718      787400
 2719              	.LASF32:
 2720 0251 705F666C 		.ascii	"p_flags\000"
 2720      61677300 
 2721              	.LASF23:
 2722 0259 54687265 		.ascii	"Thread\000"
 2722      616400
 2723              	.LASF59:
 2724 0260 635F7175 		.ascii	"c_queue\000"
 2724      65756500 
 2725              	.LASF77:
 2726 0268 63685363 		.ascii	"chSchGoSleepS\000"
 2726      68476F53 
 2726      6C656570 
 2726      5300
 2727              	.LASF39:
 2728 0276 705F6570 		.ascii	"p_epending\000"
 2728      656E6469 
 2728      6E6700
 2729              	.LASF14:
ARM GAS  /tmp/ccvBeH0v.s 			page 51


 2730 0281 75696E74 		.ascii	"uint32_t\000"
 2730      33325F74 
 2730      00
 2731              	.LASF47:
 2732 028a 725F7175 		.ascii	"r_queue\000"
 2732      65756500 
 2733              	.LASF86:
 2734 0292 63685363 		.ascii	"chSchReadyI\000"
 2734      68526561 
 2734      64794900 
 2735              	.LASF64:
 2736 029e 63686172 		.ascii	"char\000"
 2736      00
 2737              	.LASF83:
 2738 02a3 6669666F 		.ascii	"fifo_remove\000"
 2738      5F72656D 
 2738      6F766500 
 2739              	.LASF71:
 2740 02af 6368436F 		.ascii	"chCondWaitS\000"
 2740      6E645761 
 2740      69745300 
 2741              	.LASF57:
 2742 02bb 6D5F6E65 		.ascii	"m_next\000"
 2742      787400
 2743              	.LASF22:
 2744 02c2 73797374 		.ascii	"systime_t\000"
 2744      696D655F 
 2744      7400
 2745              	.LASF41:
 2746 02cc 705F7265 		.ascii	"p_realprio\000"
 2746      616C7072 
 2746      696F00
 2747              	.LASF6:
 2748 02d7 5F5F696E 		.ascii	"__int32_t\000"
 2748      7433325F 
 2748      7400
 2749              	.LASF84:
 2750 02e1 7072696F 		.ascii	"prio_insert\000"
 2750      5F696E73 
 2750      65727400 
 2751              	.LASF72:
 2752 02ed 6368436F 		.ascii	"chCondWait\000"
 2752      6E645761 
 2752      697400
 2753              	.LASF35:
 2754 02f8 705F7469 		.ascii	"p_time\000"
 2754      6D6500
 2755              	.LASF45:
 2756 02ff 696E7463 		.ascii	"intctx\000"
 2756      747800
 2757              	.LASF37:
 2758 0306 705F6D73 		.ascii	"p_msgqueue\000"
 2758      67717565 
 2758      756500
 2759              	.LASF76:
 2760 0311 63685363 		.ascii	"chSchWakeupS\000"
 2760      6857616B 
ARM GAS  /tmp/ccvBeH0v.s 			page 52


 2760      65757053 
 2760      00
 2761              	.LASF82:
 2762 031e 2F686F6D 		.ascii	"/home/hunter/development/chibi/ChibiOS-RPi/demos/AR"
 2762      652F6875 
 2762      6E746572 
 2762      2F646576 
 2762      656C6F70 
 2763 0351 4D31312D 		.ascii	"M11-BCM2835-GCC\000"
 2763      42434D32 
 2763      3833352D 
 2763      47434300 
 2764              	.LASF33:
 2765 0361 705F7265 		.ascii	"p_refs\000"
 2765      667300
 2766              	.LASF53:
 2767 0368 52656164 		.ascii	"ReadyList\000"
 2767      794C6973 
 2767      7400
 2768              	.LASF85:
 2769 0372 726C6973 		.ascii	"rlist\000"
 2769      7400
 2770              	.LASF12:
 2771 0378 75696E74 		.ascii	"uint8_t\000"
 2771      385F7400 
 2772              	.LASF62:
 2773 0380 77746F62 		.ascii	"wtobjp\000"
 2773      6A7000
 2774              	.LASF30:
 2775 0387 705F6E61 		.ascii	"p_name\000"
 2775      6D6500
 2776              	.LASF80:
 2777 038e 474E5520 		.ascii	"GNU C 4.9.3 20150529 (prerelease) -mcpu=arm1176jz-s"
 2777      4320342E 
 2777      392E3320 
 2777      32303135 
 2777      30353239 
 2778 03c1 202D6D6E 		.ascii	" -mno-thumb-interwork -ggdb -O2 -fomit-frame-pointe"
 2778      6F2D7468 
 2778      756D622D 
 2778      696E7465 
 2778      72776F72 
 2779 03f4 72202D66 		.ascii	"r -ffunction-sections -fdata-sections\000"
 2779      66756E63 
 2779      74696F6E 
 2779      2D736563 
 2779      74696F6E 
 2780              	.LASF75:
 2781 041a 6368436F 		.ascii	"chCondWaitTimeout\000"
 2781      6E645761 
 2781      69745469 
 2781      6D656F75 
 2781      7400
 2782              	.LASF79:
 2783 042c 63685363 		.ascii	"chSchGoSleepTimeoutS\000"
 2783      68476F53 
 2783      6C656570 
ARM GAS  /tmp/ccvBeH0v.s 			page 53


 2783      54696D65 
 2783      6F757453 
 2784              	.LASF56:
 2785 0441 6D5F6F77 		.ascii	"m_owner\000"
 2785      6E657200 
 2786              	.LASF27:
 2787 0449 705F6374 		.ascii	"p_ctx\000"
 2787      7800
 2788              	.LASF36:
 2789 044f 705F7761 		.ascii	"p_waiting\000"
 2789      6974696E 
 2789      6700
 2790              		.ident	"GCC: (15:4.9.3+svn231177-1) 4.9.3 20150529 (prerelease)"
ARM GAS  /tmp/ccvBeH0v.s 			page 54


DEFINED SYMBOLS
                            *ABS*:0000000000000000 chcond.c
     /tmp/ccvBeH0v.s:17     .text.chCondInit:0000000000000000 $a
     /tmp/ccvBeH0v.s:20     .text.chCondInit:0000000000000000 chCondInit
     /tmp/ccvBeH0v.s:37     .text.chCondSignal:0000000000000000 $a
     /tmp/ccvBeH0v.s:40     .text.chCondSignal:0000000000000000 chCondSignal
     /tmp/ccvBeH0v.s:107    .text.chCondSignalI:0000000000000000 $a
     /tmp/ccvBeH0v.s:110    .text.chCondSignalI:0000000000000000 chCondSignalI
     /tmp/ccvBeH0v.s:154    .text.chCondBroadcastI:0000000000000000 $a
     /tmp/ccvBeH0v.s:157    .text.chCondBroadcastI:0000000000000000 chCondBroadcastI
     /tmp/ccvBeH0v.s:202    .text.chCondBroadcast:0000000000000000 $a
     /tmp/ccvBeH0v.s:205    .text.chCondBroadcast:0000000000000000 chCondBroadcast
     /tmp/ccvBeH0v.s:235    .text.chCondWaitS:0000000000000000 $a
     /tmp/ccvBeH0v.s:238    .text.chCondWaitS:0000000000000000 chCondWaitS
     /tmp/ccvBeH0v.s:326    .text.chCondWaitS:0000000000000070 $d
     /tmp/ccvBeH0v.s:331    .text.chCondWait:0000000000000000 $a
     /tmp/ccvBeH0v.s:334    .text.chCondWait:0000000000000000 chCondWait
     /tmp/ccvBeH0v.s:362    .text.chCondWaitTimeoutS:0000000000000000 $a
     /tmp/ccvBeH0v.s:365    .text.chCondWaitTimeoutS:0000000000000000 chCondWaitTimeoutS
     /tmp/ccvBeH0v.s:463    .text.chCondWaitTimeoutS:0000000000000080 $d
     /tmp/ccvBeH0v.s:468    .text.chCondWaitTimeout:0000000000000000 $a
     /tmp/ccvBeH0v.s:471    .text.chCondWaitTimeout:0000000000000000 chCondWaitTimeout
                     .debug_frame:0000000000000010 $d

UNDEFINED SYMBOLS
chSchWakeupS
chSchReadyI
chSchRescheduleS
chMtxUnlockS
chSchGoSleepS
chMtxLockS
rlist
chSchGoSleepTimeoutS
