ARM GAS  /tmp/ccUJIHNe.s 			page 1


   1              		.cpu arm1176jz-s
   2              		.fpu softvfp
   3              		.eabi_attribute 20, 1
   4              		.eabi_attribute 21, 1
   5              		.eabi_attribute 23, 3
   6              		.eabi_attribute 24, 1
   7              		.eabi_attribute 25, 1
   8              		.eabi_attribute 26, 1
   9              		.eabi_attribute 30, 2
  10              		.eabi_attribute 34, 1
  11              		.eabi_attribute 18, 4
  12              		.file	"chdynamic.c"
  13              		.text
  14              	.Ltext0:
  15              		.cfi_sections	.debug_frame
  16              		.section	.text.chThdAddRef,"ax",%progbits
  17              		.align	2
  18              		.global	chThdAddRef
  19              		.type	chThdAddRef, %function
  20              	chThdAddRef:
  21              	.LFB7:
  22              		.file 1 "../../os/kernel/src/chdynamic.c"
  23              		.loc 1 45 0
  24              		.cfi_startproc
  25              		@ args = 0, pretend = 0, frame = 0
  26              		@ frame_needed = 0, uses_anonymous_args = 0
  27              		@ link register save eliminated.
  28              	.LVL0:
  29              		.loc 1 47 0
  30              	@ 47 "../../os/kernel/src/chdynamic.c" 1
  31 0000 9FF021E3 		msr     CPSR_c, #0x9F
  32              	@ 0 "" 2
  33              		.loc 1 49 0
  34 0004 1E30D0E5 		ldrb	r3, [r0, #30]	@ zero_extendqisi2
  35 0008 013083E2 		add	r3, r3, #1
  36 000c 1E30C0E5 		strb	r3, [r0, #30]
  37              		.loc 1 50 0
  38              	@ 50 "../../os/kernel/src/chdynamic.c" 1
  39 0010 1FF021E3 		msr     CPSR_c, #0x1F
  40              	@ 0 "" 2
  41              		.loc 1 52 0
  42 0014 1EFF2FE1 		bx	lr
  43              		.cfi_endproc
  44              	.LFE7:
  45              		.size	chThdAddRef, .-chThdAddRef
  46              		.section	.text.chThdRelease,"ax",%progbits
  47              		.align	2
  48              		.global	chThdRelease
  49              		.type	chThdRelease, %function
  50              	chThdRelease:
  51              	.LFB8:
  52              		.loc 1 67 0
  53              		.cfi_startproc
  54              		@ args = 0, pretend = 0, frame = 0
  55              		@ frame_needed = 0, uses_anonymous_args = 0
  56              		@ link register save eliminated.
  57              	.LVL1:
ARM GAS  /tmp/ccUJIHNe.s 			page 2


  58              		.loc 1 70 0
  59              	@ 70 "../../os/kernel/src/chdynamic.c" 1
  60 0000 9FF021E3 		msr     CPSR_c, #0x9F
  61              	@ 0 "" 2
  62              		.loc 1 72 0
  63 0004 1E30D0E5 		ldrb	r3, [r0, #30]	@ zero_extendqisi2
  64 0008 013043E2 		sub	r3, r3, #1
  65 000c 7330EFE6 		uxtb	r3, r3
  66 0010 1E30C0E5 		strb	r3, [r0, #30]
  67              	.LVL2:
  68              		.loc 1 73 0
  69              	@ 73 "../../os/kernel/src/chdynamic.c" 1
  70 0014 1FF021E3 		msr     CPSR_c, #0x1F
  71              	@ 0 "" 2
  72              		.loc 1 78 0
  73 0018 000053E3 		cmp	r3, #0
  74 001c 1EFF2F11 		bxne	lr
  75              		.loc 1 78 0 is_stmt 0 discriminator 1
  76 0020 1C30D0E5 		ldrb	r3, [r0, #28]	@ zero_extendqisi2
  77              	.LVL3:
  78 0024 0E0053E3 		cmp	r3, #14
  79 0028 1EFF2F11 		bxne	lr
  80              		.loc 1 79 0 is_stmt 1
  81 002c 1D30D0E5 		ldrb	r3, [r0, #29]	@ zero_extendqisi2
  82 0030 033003E2 		and	r3, r3, #3
  83 0034 010053E3 		cmp	r3, #1
  84 0038 1EFF2F11 		bxne	lr
  85              		.loc 1 83 0
  86 003c 143090E5 		ldr	r3, [r0, #20]
  87 0040 101090E5 		ldr	r1, [r0, #16]
  88 0044 101083E5 		str	r1, [r3, #16]
  89 0048 102090E5 		ldr	r2, [r0, #16]
  90 004c 143082E5 		str	r3, [r2, #20]
  91              		.loc 1 85 0
  92 0050 FEFFFFEA 		b	chHeapFree
  93              	.LVL4:
  94              		.cfi_endproc
  95              	.LFE8:
  96              		.size	chThdRelease, .-chThdRelease
  97              		.section	.text.chThdCreateFromHeap,"ax",%progbits
  98              		.align	2
  99              		.global	chThdCreateFromHeap
 100              		.type	chThdCreateFromHeap, %function
 101              	chThdCreateFromHeap:
 102              	.LFB9:
 103              		.loc 1 124 0
 104              		.cfi_startproc
 105              		@ args = 4, pretend = 0, frame = 0
 106              		@ frame_needed = 0, uses_anonymous_args = 0
 107              	.LVL5:
 108 0000 F0402DE9 		stmfd	sp!, {r4, r5, r6, r7, lr}
 109              		.cfi_def_cfa_offset 20
 110              		.cfi_offset 4, -20
 111              		.cfi_offset 5, -16
 112              		.cfi_offset 6, -12
 113              		.cfi_offset 7, -8
 114              		.cfi_offset 14, -4
ARM GAS  /tmp/ccUJIHNe.s 			page 3


 115 0004 0CD04DE2 		sub	sp, sp, #12
 116              		.cfi_def_cfa_offset 32
 117              		.loc 1 124 0
 118 0008 0260A0E1 		mov	r6, r2
 119 000c 0350A0E1 		mov	r5, r3
 120 0010 0170A0E1 		mov	r7, r1
 121              		.loc 1 128 0
 122 0014 FEFFFFEB 		bl	chHeapAlloc
 123              	.LVL6:
 124              		.loc 1 129 0
 125 0018 004050E2 		subs	r4, r0, #0
 126 001c 0F00000A 		beq	.L8
 127              		.loc 1 141 0
 128              	@ 141 "../../os/kernel/src/chdynamic.c" 1
 129 0020 9FF021E3 		msr     CPSR_c, #0x9F
 130              	@ 0 "" 2
 131              		.loc 1 142 0
 132 0024 20309DE5 		ldr	r3, [sp, #32]
 133 0028 0710A0E1 		mov	r1, r7
 134 002c 00308DE5 		str	r3, [sp]
 135 0030 0620A0E1 		mov	r2, r6
 136 0034 0530A0E1 		mov	r3, r5
 137 0038 FEFFFFEB 		bl	chThdCreateI
 138              	.LVL7:
 139              		.loc 1 143 0
 140 003c 0130A0E3 		mov	r3, #1
 141              		.loc 1 144 0
 142 0040 0010A0E3 		mov	r1, #0
 143              		.loc 1 143 0
 144 0044 1D30C0E5 		strb	r3, [r0, #29]
 145              		.loc 1 142 0
 146 0048 0040A0E1 		mov	r4, r0
 147              	.LVL8:
 148              		.loc 1 144 0
 149 004c FEFFFFEB 		bl	chSchWakeupS
 150              	.LVL9:
 151              		.loc 1 145 0
 152              	@ 145 "../../os/kernel/src/chdynamic.c" 1
 153 0050 1FF021E3 		msr     CPSR_c, #0x1F
 154              	@ 0 "" 2
 155              		.loc 1 146 0
 156 0054 0400A0E1 		mov	r0, r4
 157              	.LVL10:
 158              	.L7:
 159              		.loc 1 147 0
 160 0058 0CD08DE2 		add	sp, sp, #12
 161              		.cfi_remember_state
 162              		.cfi_def_cfa_offset 20
 163              		@ sp needed
 164 005c F080BDE8 		ldmfd	sp!, {r4, r5, r6, r7, pc}
 165              	.LVL11:
 166              	.L8:
 167              		.cfi_restore_state
 168              		.loc 1 130 0
 169 0060 0400A0E1 		mov	r0, r4
 170              	.LVL12:
 171 0064 FBFFFFEA 		b	.L7
ARM GAS  /tmp/ccUJIHNe.s 			page 4


 172              		.cfi_endproc
 173              	.LFE9:
 174              		.size	chThdCreateFromHeap, .-chThdCreateFromHeap
 175              		.text
 176              	.Letext0:
 177              		.file 2 "/usr/lib/gcc/arm-none-eabi/4.9.3/include/stddef.h"
 178              		.file 3 "/usr/include/newlib/machine/_default_types.h"
 179              		.file 4 "/usr/include/newlib/sys/_stdint.h"
 180              		.file 5 "../../os/ports/GCC/ARM/chtypes.h"
 181              		.file 6 "../../os/kernel/include/chlists.h"
 182              		.file 7 "../../os/kernel/include/chthreads.h"
 183              		.file 8 "../../os/ports/GCC/ARM/chcore.h"
 184              		.file 9 "../../os/kernel/include/chmtx.h"
 185              		.file 10 "../../os/kernel/include/chmemcore.h"
 186              		.file 11 "../../os/kernel/include/chheap.h"
 187              		.file 12 "../../os/kernel/include/chschd.h"