ARM GAS  /tmp/ccUJIHNe.s 			page 1


   1              		.cpu arm1176jz-s
   2              		.fpu softvfp
   3              		.eabi_attribute 20, 1
   4              		.eabi_attribute 21, 1
   5              		.eabi_attribute 23, 3
   6              		.eabi_attribute 24, 1
   7              		.eabi_attribute 25, 1
   8              		.eabi_attribute 26, 1
   9              		.eabi_attribute 30, 2
  10              		.eabi_attribute 34, 1
  11              		.eabi_attribute 18, 4
  12              		.file	"chdynamic.c"
  13              		.text
  14              	.Ltext0:
  15              		.cfi_sections	.debug_frame
  16              		.section	.text.chThdAddRef,"ax",%progbits
  17              		.align	2
  18              		.global	chThdAddRef
  19              		.type	chThdAddRef, %function
  20              	chThdAddRef:
  21              	.LFB7:
  22              		.file 1 "../../os/kernel/src/chdynamic.c"
  23              		.loc 1 45 0
  24              		.cfi_startproc
  25              		@ args = 0, pretend = 0, frame = 0
  26              		@ frame_needed = 0, uses_anonymous_args = 0
  27              		@ link register save eliminated.
  28              	.LVL0:
  29              		.loc 1 47 0
  30              	@ 47 "../../os/kernel/src/chdynamic.c" 1
  31 0000 9FF021E3 		msr     CPSR_c, #0x9F
  32              	@ 0 "" 2
  33              		.loc 1 49 0
  34 0004 1E30D0E5 		ldrb	r3, [r0, #30]	@ zero_extendqisi2
  35 0008 013083E2 		add	r3, r3, #1
  36 000c 1E30C0E5 		strb	r3, [r0, #30]
  37              		.loc 1 50 0
  38              	@ 50 "../../os/kernel/src/chdynamic.c" 1
  39 0010 1FF021E3 		msr     CPSR_c, #0x1F
  40              	@ 0 "" 2
  41              		.loc 1 52 0
  42 0014 1EFF2FE1 		bx	lr
  43              		.cfi_endproc
  44              	.LFE7:
  45              		.size	chThdAddRef, .-chThdAddRef
  46              		.section	.text.chThdRelease,"ax",%progbits
  47              		.align	2
  48              		.global	chThdRelease
  49              		.type	chThdRelease, %function
  50              	chThdRelease:
  51              	.LFB8:
  52              		.loc 1 67 0
  53              		.cfi_startproc
  54              		@ args = 0, pretend = 0, frame = 0
  55              		@ frame_needed = 0, uses_anonymous_args = 0
  56              		@ link register save eliminated.
  57              	.LVL1:
ARM GAS  /tmp/ccUJIHNe.s 			page 2


  58              		.loc 1 70 0
  59              	@ 70 "../../os/kernel/src/chdynamic.c" 1
  60 0000 9FF021E3 		msr     CPSR_c, #0x9F
  61              	@ 0 "" 2
  62              		.loc 1 72 0
  63 0004 1E30D0E5 		ldrb	r3, [r0, #30]	@ zero_extendqisi2
  64 0008 013043E2 		sub	r3, r3, #1
  65 000c 7330EFE6 		uxtb	r3, r3
  66 0010 1E30C0E5 		strb	r3, [r0, #30]
  67              	.LVL2:
  68              		.loc 1 73 0
  69              	@ 73 "../../os/kernel/src/chdynamic.c" 1
  70 0014 1FF021E3 		msr     CPSR_c, #0x1F
  71              	@ 0 "" 2
  72              		.loc 1 78 0
  73 0018 000053E3 		cmp	r3, #0
  74 001c 1EFF2F11 		bxne	lr
  75              		.loc 1 78 0 is_stmt 0 discriminator 1
  76 0020 1C30D0E5 		ldrb	r3, [r0, #28]	@ zero_extendqisi2
  77              	.LVL3:
  78 0024 0E0053E3 		cmp	r3, #14
  79 0028 1EFF2F11 		bxne	lr
  80              		.loc 1 79 0 is_stmt 1
  81 002c 1D30D0E5 		ldrb	r3, [r0, #29]	@ zero_extendqisi2
  82 0030 033003E2 		and	r3, r3, #3
  83 0034 010053E3 		cmp	r3, #1
  84 0038 1EFF2F11 		bxne	lr
  85              		.loc 1 83 0
  86 003c 143090E5 		ldr	r3, [r0, #20]
  87 0040 101090E5 		ldr	r1, [r0, #16]
  88 0044 101083E5 		str	r1, [r3, #16]
  89 0048 102090E5 		ldr	r2, [r0, #16]
  90 004c 143082E5 		str	r3, [r2, #20]
  91              		.loc 1 85 0
  92 0050 FEFFFFEA 		b	chHeapFree
  93              	.LVL4:
  94              		.cfi_endproc
  95              	.LFE8:
  96              		.size	chThdRelease, .-chThdRelease
  97              		.section	.text.chThdCreateFromHeap,"ax",%progbits
  98              		.align	2
  99              		.global	chThdCreateFromHeap
 100              		.type	chThdCreateFromHeap, %function
 101              	chThdCreateFromHeap:
 102              	.LFB9:
 103              		.loc 1 124 0
 104              		.cfi_startproc
 105              		@ args = 4, pretend = 0, frame = 0
 106              		@ frame_needed = 0, uses_anonymous_args = 0
 107              	.LVL5:
 108 0000 F0402DE9 		stmfd	sp!, {r4, r5, r6, r7, lr}
 109              		.cfi_def_cfa_offset 20
 110              		.cfi_offset 4, -20
 111              		.cfi_offset 5, -16
 112              		.cfi_offset 6, -12
 113              		.cfi_offset 7, -8
 114              		.cfi_offset 14, -4
ARM GAS  /tmp/ccUJIHNe.s 			page 3


 115 0004 0CD04DE2 		sub	sp, sp, #12
 116              		.cfi_def_cfa_offset 32
 117              		.loc 1 124 0
 118 0008 0260A0E1 		mov	r6, r2
 119 000c 0350A0E1 		mov	r5, r3
 120 0010 0170A0E1 		mov	r7, r1
 121              		.loc 1 128 0
 122 0014 FEFFFFEB 		bl	chHeapAlloc
 123              	.LVL6:
 124              		.loc 1 129 0
 125 0018 004050E2 		subs	r4, r0, #0
 126 001c 0F00000A 		beq	.L8
 127              		.loc 1 141 0
 128              	@ 141 "../../os/kernel/src/chdynamic.c" 1
 129 0020 9FF021E3 		msr     CPSR_c, #0x9F
 130              	@ 0 "" 2
 131              		.loc 1 142 0
 132 0024 20309DE5 		ldr	r3, [sp, #32]
 133 0028 0710A0E1 		mov	r1, r7
 134 002c 00308DE5 		str	r3, [sp]
 135 0030 0620A0E1 		mov	r2, r6
 136 0034 0530A0E1 		mov	r3, r5
 137 0038 FEFFFFEB 		bl	chThdCreateI
 138              	.LVL7:
 139              		.loc 1 143 0
 140 003c 0130A0E3 		mov	r3, #1
 141              		.loc 1 144 0
 142 0040 0010A0E3 		mov	r1, #0
 143              		.loc 1 143 0
 144 0044 1D30C0E5 		strb	r3, [r0, #29]
 145              		.loc 1 142 0
 146 0048 0040A0E1 		mov	r4, r0
 147              	.LVL8:
 148              		.loc 1 144 0
 149 004c FEFFFFEB 		bl	chSchWakeupS
 150              	.LVL9:
 151              		.loc 1 145 0
 152              	@ 145 "../../os/kernel/src/chdynamic.c" 1
 153 0050 1FF021E3 		msr     CPSR_c, #0x1F
 154              	@ 0 "" 2
 155              		.loc 1 146 0
 156 0054 0400A0E1 		mov	r0, r4
 157              	.LVL10:
 158              	.L7:
 159              		.loc 1 147 0
 160 0058 0CD08DE2 		add	sp, sp, #12
 161              		.cfi_remember_state
 162              		.cfi_def_cfa_offset 20
 163              		@ sp needed
 164 005c F080BDE8 		ldmfd	sp!, {r4, r5, r6, r7, pc}
 165              	.LVL11:
 166              	.L8:
 167              		.cfi_restore_state
 168              		.loc 1 130 0
 169 0060 0400A0E1 		mov	r0, r4
 170              	.LVL12:
 171 0064 FBFFFFEA 		b	.L7
ARM GAS  /tmp/ccUJIHNe.s 			page 4


 172              		.cfi_endproc
 173              	.LFE9:
 174              		.size	chThdCreateFromHeap, .-chThdCreateFromHeap
 175              		.text
 176              	.Letext0:
 177              		.file 2 "/usr/lib/gcc/arm-none-eabi/4.9.3/include/stddef.h"
 178              		.file 3 "/usr/include/newlib/machine/_default_types.h"
 179              		.file 4 "/usr/include/newlib/sys/_stdint.h"
 180              		.file 5 "../../os/ports/GCC/ARM/chtypes.h"
 181              		.file 6 "../../os/kernel/include/chlists.h"
 182              		.file 7 "../../os/kernel/include/chthreads.h"
 183              		.file 8 "../../os/ports/GCC/ARM/chcore.h"
 184              		.file 9 "../../os/kernel/include/chmtx.h"
 185              		.file 10 "../../os/kernel/include/chmemcore.h"
 186              		.file 11 "../../os/kernel/include/chheap.h"
 187              		.file 12 "../../os/kernel/include/chschd.h"
 188              		.section	.debug_info,"",%progbits
 189              	.Ldebug_info0:
 190 0000 35060000 		.4byte	0x635
 191 0004 0400     		.2byte	0x4
 192 0006 00000000 		.4byte	.Ldebug_abbrev0
 193 000a 04       		.byte	0x4
 194 000b 01       		.uleb128 0x1
 195 000c 3D030000 		.4byte	.LASF77
 196 0010 01       		.byte	0x1
 197 0011 0E000000 		.4byte	.LASF78
 198 0015 DD020000 		.4byte	.LASF79
 199 0019 00000000 		.4byte	.Ldebug_ranges0+0
 200 001d 00000000 		.4byte	0
 201 0021 00000000 		.4byte	.Ldebug_line0
 202 0025 02       		.uleb128 0x2
 203 0026 04       		.byte	0x4
 204 0027 05       		.byte	0x5
 205 0028 696E7400 		.ascii	"int\000"
 206 002c 03       		.uleb128 0x3
 207 002d 2E000000 		.4byte	.LASF2
 208 0031 02       		.byte	0x2
 209 0032 D4       		.byte	0xd4
 210 0033 37000000 		.4byte	0x37
 211 0037 04       		.uleb128 0x4
 212 0038 04       		.byte	0x4
 213 0039 07       		.byte	0x7
 214 003a 1E010000 		.4byte	.LASF0
 215 003e 04       		.uleb128 0x4
 216 003f 01       		.byte	0x1
 217 0040 06       		.byte	0x6
 218 0041 9A000000 		.4byte	.LASF1
 219 0045 03       		.uleb128 0x3
 220 0046 3C000000 		.4byte	.LASF3
 221 004a 03       		.byte	0x3
 222 004b 1D       		.byte	0x1d
 223 004c 50000000 		.4byte	0x50
 224 0050 04       		.uleb128 0x4
 225 0051 01       		.byte	0x1
 226 0052 08       		.byte	0x8
 227 0053 F2010000 		.4byte	.LASF4
 228 0057 04       		.uleb128 0x4
ARM GAS  /tmp/ccUJIHNe.s 			page 5


 229 0058 02       		.byte	0x2
 230 0059 05       		.byte	0x5
 231 005a 15020000 		.4byte	.LASF5
 232 005e 04       		.uleb128 0x4
 233 005f 02       		.byte	0x2
 234 0060 07       		.byte	0x7
 235 0061 4A010000 		.4byte	.LASF6
 236 0065 03       		.uleb128 0x3
 237 0066 AD020000 		.4byte	.LASF7
 238 006a 03       		.byte	0x3
 239 006b 3F       		.byte	0x3f
 240 006c 70000000 		.4byte	0x70
 241 0070 04       		.uleb128 0x4
 242 0071 04       		.byte	0x4
 243 0072 05       		.byte	0x5
 244 0073 D6000000 		.4byte	.LASF8
 245 0077 03       		.uleb128 0x3
 246 0078 04010000 		.4byte	.LASF9
 247 007c 03       		.byte	0x3
 248 007d 41       		.byte	0x41
 249 007e 82000000 		.4byte	0x82
 250 0082 04       		.uleb128 0x4
 251 0083 04       		.byte	0x4
 252 0084 07       		.byte	0x7
 253 0085 2B010000 		.4byte	.LASF10
 254 0089 04       		.uleb128 0x4
 255 008a 08       		.byte	0x8
 256 008b 05       		.byte	0x5
 257 008c 8C000000 		.4byte	.LASF11
 258 0090 04       		.uleb128 0x4
 259 0091 08       		.byte	0x8
 260 0092 07       		.byte	0x7
 261 0093 53000000 		.4byte	.LASF12
 262 0097 03       		.uleb128 0x3
 263 0098 27030000 		.4byte	.LASF13
 264 009c 04       		.byte	0x4
 265 009d 14       		.byte	0x14
 266 009e 45000000 		.4byte	0x45
 267 00a2 03       		.uleb128 0x3
 268 00a3 EA010000 		.4byte	.LASF14
 269 00a7 04       		.byte	0x4
 270 00a8 1F       		.byte	0x1f
 271 00a9 65000000 		.4byte	0x65
 272 00ad 03       		.uleb128 0x3
 273 00ae 7E020000 		.4byte	.LASF15
 274 00b2 04       		.byte	0x4
 275 00b3 20       		.byte	0x20
 276 00b4 77000000 		.4byte	0x77
 277 00b8 03       		.uleb128 0x3
 278 00b9 63010000 		.4byte	.LASF16
 279 00bd 05       		.byte	0x5
 280 00be 2A       		.byte	0x2a
 281 00bf 97000000 		.4byte	0x97
 282 00c3 03       		.uleb128 0x3
 283 00c4 F3000000 		.4byte	.LASF17
 284 00c8 05       		.byte	0x5
 285 00c9 2B       		.byte	0x2b
ARM GAS  /tmp/ccUJIHNe.s 			page 6


 286 00ca 97000000 		.4byte	0x97
 287 00ce 03       		.uleb128 0x3
 288 00cf CE010000 		.4byte	.LASF18
 289 00d3 05       		.byte	0x5
 290 00d4 2C       		.byte	0x2c
 291 00d5 97000000 		.4byte	0x97
 292 00d9 03       		.uleb128 0x3
 293 00da BF000000 		.4byte	.LASF19
 294 00de 05       		.byte	0x5
 295 00df 2D       		.byte	0x2d
 296 00e0 97000000 		.4byte	0x97
 297 00e4 03       		.uleb128 0x3
 298 00e5 E2010000 		.4byte	.LASF20
 299 00e9 05       		.byte	0x5
 300 00ea 2E       		.byte	0x2e
 301 00eb AD000000 		.4byte	0xad
 302 00ef 03       		.uleb128 0x3
 303 00f0 5D010000 		.4byte	.LASF21
 304 00f4 05       		.byte	0x5
 305 00f5 2F       		.byte	0x2f
 306 00f6 A2000000 		.4byte	0xa2
 307 00fa 03       		.uleb128 0x3
 308 00fb 77010000 		.4byte	.LASF22
 309 00ff 05       		.byte	0x5
 310 0100 31       		.byte	0x31
 311 0101 AD000000 		.4byte	0xad
 312 0105 03       		.uleb128 0x3
 313 0106 98020000 		.4byte	.LASF23
 314 010a 05       		.byte	0x5
 315 010b 33       		.byte	0x33
 316 010c AD000000 		.4byte	0xad
 317 0110 03       		.uleb128 0x3
 318 0111 60020000 		.4byte	.LASF24
 319 0115 06       		.byte	0x6
 320 0116 23       		.byte	0x23
 321 0117 1B010000 		.4byte	0x11b
 322 011b 05       		.uleb128 0x5
 323 011c 60020000 		.4byte	.LASF24
 324 0120 44       		.byte	0x44
 325 0121 07       		.byte	0x7
 326 0122 57       		.byte	0x57
 327 0123 0C020000 		.4byte	0x20c
 328 0127 06       		.uleb128 0x6
 329 0128 44020000 		.4byte	.LASF25
 330 012c 07       		.byte	0x7
 331 012d 58       		.byte	0x58
 332 012e 2D020000 		.4byte	0x22d
 333 0132 00       		.byte	0
 334 0133 06       		.uleb128 0x6
 335 0134 DB010000 		.4byte	.LASF26
 336 0138 07       		.byte	0x7
 337 0139 5A       		.byte	0x5a
 338 013a 2D020000 		.4byte	0x22d
 339 013e 04       		.byte	0x4
 340 013f 06       		.uleb128 0x6
 341 0140 85000000 		.4byte	.LASF27
 342 0144 07       		.byte	0x7
ARM GAS  /tmp/ccUJIHNe.s 			page 7


 343 0145 5C       		.byte	0x5c
 344 0146 E4000000 		.4byte	0xe4
 345 014a 08       		.byte	0x8
 346 014b 06       		.uleb128 0x6
 347 014c D1030000 		.4byte	.LASF28
 348 0150 07       		.byte	0x7
 349 0151 5D       		.byte	0x5d
 350 0152 E8020000 		.4byte	0x2e8
 351 0156 0C       		.byte	0xc
 352 0157 06       		.uleb128 0x6
 353 0158 FC000000 		.4byte	.LASF29
 354 015c 07       		.byte	0x7
 355 015d 5F       		.byte	0x5f
 356 015e 2D020000 		.4byte	0x22d
 357 0162 10       		.byte	0x10
 358 0163 06       		.uleb128 0x6
 359 0164 A9010000 		.4byte	.LASF30
 360 0168 07       		.byte	0x7
 361 0169 60       		.byte	0x60
 362 016a 2D020000 		.4byte	0x22d
 363 016e 14       		.byte	0x14
 364 016f 06       		.uleb128 0x6
 365 0170 36030000 		.4byte	.LASF31
 366 0174 07       		.byte	0x7
 367 0175 67       		.byte	0x67
 368 0176 4A040000 		.4byte	0x44a
 369 017a 18       		.byte	0x18
 370 017b 06       		.uleb128 0x6
 371 017c 1F020000 		.4byte	.LASF32
 372 0180 07       		.byte	0x7
 373 0181 72       		.byte	0x72
 374 0182 C3000000 		.4byte	0xc3
 375 0186 1C       		.byte	0x1c
 376 0187 06       		.uleb128 0x6
 377 0188 4B020000 		.4byte	.LASF33
 378 018c 07       		.byte	0x7
 379 018d 76       		.byte	0x76
 380 018e B8000000 		.4byte	0xb8
 381 0192 1D       		.byte	0x1d
 382 0193 06       		.uleb128 0x6
 383 0194 20030000 		.4byte	.LASF34
 384 0198 07       		.byte	0x7
 385 0199 7B       		.byte	0x7b
 386 019a CE000000 		.4byte	0xce
 387 019e 1E       		.byte	0x1e
 388 019f 06       		.uleb128 0x6
 389 01a0 27020000 		.4byte	.LASF35
 390 01a4 07       		.byte	0x7
 391 01a5 81       		.byte	0x81
 392 01a6 D9000000 		.4byte	0xd9
 393 01aa 1F       		.byte	0x1f
 394 01ab 06       		.uleb128 0x6
 395 01ac B7020000 		.4byte	.LASF36
 396 01b0 07       		.byte	0x7
 397 01b1 88       		.byte	0x88
 398 01b2 07030000 		.4byte	0x307
 399 01b6 20       		.byte	0x20
ARM GAS  /tmp/ccUJIHNe.s 			page 8


 400 01b7 07       		.uleb128 0x7
 401 01b8 705F7500 		.ascii	"p_u\000"
 402 01bc 07       		.byte	0x7
 403 01bd AD       		.byte	0xad
 404 01be 15040000 		.4byte	0x415
 405 01c2 24       		.byte	0x24
 406 01c3 06       		.uleb128 0x6
 407 01c4 D7030000 		.4byte	.LASF37
 408 01c8 07       		.byte	0x7
 409 01c9 B2       		.byte	0xb2
 410 01ca 53020000 		.4byte	0x253
 411 01ce 28       		.byte	0x28
 412 01cf 06       		.uleb128 0x6
 413 01d0 C5020000 		.4byte	.LASF38
 414 01d4 07       		.byte	0x7
 415 01d5 B8       		.byte	0xb8
 416 01d6 33020000 		.4byte	0x233
 417 01da 2C       		.byte	0x2c
 418 01db 06       		.uleb128 0x6
 419 01dc 08000000 		.4byte	.LASF39
 420 01e0 07       		.byte	0x7
 421 01e1 BC       		.byte	0xbc
 422 01e2 EF000000 		.4byte	0xef
 423 01e6 34       		.byte	0x34
 424 01e7 06       		.uleb128 0x6
 425 01e8 73020000 		.4byte	.LASF40
 426 01ec 07       		.byte	0x7
 427 01ed C2       		.byte	0xc2
 428 01ee FA000000 		.4byte	0xfa
 429 01f2 38       		.byte	0x38
 430 01f3 06       		.uleb128 0x6
 431 01f4 0B020000 		.4byte	.LASF41
 432 01f8 07       		.byte	0x7
 433 01f9 C9       		.byte	0xc9
 434 01fa 5C040000 		.4byte	0x45c
 435 01fe 3C       		.byte	0x3c
 436 01ff 06       		.uleb128 0x6
 437 0200 A2020000 		.4byte	.LASF42
 438 0204 07       		.byte	0x7
 439 0205 CD       		.byte	0xcd
 440 0206 E4000000 		.4byte	0xe4
 441 020a 40       		.byte	0x40
 442 020b 00       		.byte	0
 443 020c 08       		.uleb128 0x8
 444 020d 08       		.byte	0x8
 445 020e 06       		.byte	0x6
 446 020f 5A       		.byte	0x5a
 447 0210 2D020000 		.4byte	0x22d
 448 0214 06       		.uleb128 0x6
 449 0215 44020000 		.4byte	.LASF25
 450 0219 06       		.byte	0x6
 451 021a 5B       		.byte	0x5b
 452 021b 2D020000 		.4byte	0x22d
 453 021f 00       		.byte	0
 454 0220 06       		.uleb128 0x6
 455 0221 DB010000 		.4byte	.LASF26
 456 0225 06       		.byte	0x6
ARM GAS  /tmp/ccUJIHNe.s 			page 9


 457 0226 5D       		.byte	0x5d
 458 0227 2D020000 		.4byte	0x22d
 459 022b 04       		.byte	0x4
 460 022c 00       		.byte	0
 461 022d 09       		.uleb128 0x9
 462 022e 04       		.byte	0x4
 463 022f 10010000 		.4byte	0x110
 464 0233 03       		.uleb128 0x3
 465 0234 B1010000 		.4byte	.LASF43
 466 0238 06       		.byte	0x6
 467 0239 5F       		.byte	0x5f
 468 023a 0C020000 		.4byte	0x20c
 469 023e 08       		.uleb128 0x8
 470 023f 04       		.byte	0x4
 471 0240 06       		.byte	0x6
 472 0241 64       		.byte	0x64
 473 0242 53020000 		.4byte	0x253
 474 0246 06       		.uleb128 0x6
 475 0247 44020000 		.4byte	.LASF25
 476 024b 06       		.byte	0x6
 477 024c 66       		.byte	0x66
 478 024d 2D020000 		.4byte	0x22d
 479 0251 00       		.byte	0
 480 0252 00       		.byte	0
 481 0253 03       		.uleb128 0x3
 482 0254 6B010000 		.4byte	.LASF44
 483 0258 06       		.byte	0x6
 484 0259 69       		.byte	0x69
 485 025a 3E020000 		.4byte	0x23e
 486 025e 03       		.uleb128 0x3
 487 025f 95010000 		.4byte	.LASF45
 488 0263 08       		.byte	0x8
 489 0264 9D       		.byte	0x9d
 490 0265 AD000000 		.4byte	0xad
 491 0269 03       		.uleb128 0x3
 492 026a 0F010000 		.4byte	.LASF46
 493 026e 08       		.byte	0x8
 494 026f A2       		.byte	0xa2
 495 0270 74020000 		.4byte	0x274
 496 0274 0A       		.uleb128 0xa
 497 0275 04       		.byte	0x4
 498 0276 05       		.uleb128 0x5
 499 0277 BE020000 		.4byte	.LASF47
 500 027b 24       		.byte	0x24
 501 027c 08       		.byte	0x8
 502 027d B9       		.byte	0xb9
 503 027e E8020000 		.4byte	0x2e8
 504 0282 07       		.uleb128 0x7
 505 0283 723400   		.ascii	"r4\000"
 506 0286 08       		.byte	0x8
 507 0287 BA       		.byte	0xba
 508 0288 69020000 		.4byte	0x269
 509 028c 00       		.byte	0
 510 028d 07       		.uleb128 0x7
 511 028e 723500   		.ascii	"r5\000"
 512 0291 08       		.byte	0x8
 513 0292 BB       		.byte	0xbb
ARM GAS  /tmp/ccUJIHNe.s 			page 10


 514 0293 69020000 		.4byte	0x269
 515 0297 04       		.byte	0x4
 516 0298 07       		.uleb128 0x7
 517 0299 723600   		.ascii	"r6\000"
 518 029c 08       		.byte	0x8
 519 029d BC       		.byte	0xbc
 520 029e 69020000 		.4byte	0x269
 521 02a2 08       		.byte	0x8
 522 02a3 07       		.uleb128 0x7
 523 02a4 723700   		.ascii	"r7\000"
 524 02a7 08       		.byte	0x8
 525 02a8 BD       		.byte	0xbd
 526 02a9 69020000 		.4byte	0x269
 527 02ad 0C       		.byte	0xc
 528 02ae 07       		.uleb128 0x7
 529 02af 723800   		.ascii	"r8\000"
 530 02b2 08       		.byte	0x8
 531 02b3 BE       		.byte	0xbe
 532 02b4 69020000 		.4byte	0x269
 533 02b8 10       		.byte	0x10
 534 02b9 07       		.uleb128 0x7
 535 02ba 723900   		.ascii	"r9\000"
 536 02bd 08       		.byte	0x8
 537 02be BF       		.byte	0xbf
 538 02bf 69020000 		.4byte	0x269
 539 02c3 14       		.byte	0x14
 540 02c4 07       		.uleb128 0x7
 541 02c5 72313000 		.ascii	"r10\000"
 542 02c9 08       		.byte	0x8
 543 02ca C0       		.byte	0xc0
 544 02cb 69020000 		.4byte	0x269
 545 02cf 18       		.byte	0x18
 546 02d0 07       		.uleb128 0x7
 547 02d1 72313100 		.ascii	"r11\000"
 548 02d5 08       		.byte	0x8
 549 02d6 C1       		.byte	0xc1
 550 02d7 69020000 		.4byte	0x269
 551 02db 1C       		.byte	0x1c
 552 02dc 07       		.uleb128 0x7
 553 02dd 6C7200   		.ascii	"lr\000"
 554 02e0 08       		.byte	0x8
 555 02e1 C2       		.byte	0xc2
 556 02e2 69020000 		.4byte	0x269
 557 02e6 20       		.byte	0x20
 558 02e7 00       		.byte	0
 559 02e8 05       		.uleb128 0x5
 560 02e9 3D010000 		.4byte	.LASF48
 561 02ed 04       		.byte	0x4
 562 02ee 08       		.byte	0x8
 563 02ef CA       		.byte	0xca
 564 02f0 01030000 		.4byte	0x301
 565 02f4 07       		.uleb128 0x7
 566 02f5 72313300 		.ascii	"r13\000"
 567 02f9 08       		.byte	0x8
 568 02fa CB       		.byte	0xcb
 569 02fb 01030000 		.4byte	0x301
 570 02ff 00       		.byte	0
ARM GAS  /tmp/ccUJIHNe.s 			page 11


 571 0300 00       		.byte	0
 572 0301 09       		.uleb128 0x9
 573 0302 04       		.byte	0x4
 574 0303 76020000 		.4byte	0x276
 575 0307 0B       		.uleb128 0xb
 576 0308 05010000 		.4byte	0x105
 577 030c 05       		.uleb128 0x5
 578 030d 83010000 		.4byte	.LASF49
 579 0311 10       		.byte	0x10
 580 0312 09       		.byte	0x9
 581 0313 25       		.byte	0x25
 582 0314 3D030000 		.4byte	0x33d
 583 0318 06       		.uleb128 0x6
 584 0319 AC000000 		.4byte	.LASF50
 585 031d 09       		.byte	0x9
 586 031e 26       		.byte	0x26
 587 031f 33020000 		.4byte	0x233
 588 0323 00       		.byte	0
 589 0324 06       		.uleb128 0x6
 590 0325 C9030000 		.4byte	.LASF51
 591 0329 09       		.byte	0x9
 592 032a 28       		.byte	0x28
 593 032b 2D020000 		.4byte	0x22d
 594 032f 08       		.byte	0x8
 595 0330 06       		.uleb128 0x6
 596 0331 91020000 		.4byte	.LASF52
 597 0335 09       		.byte	0x9
 598 0336 2A       		.byte	0x2a
 599 0337 3D030000 		.4byte	0x33d
 600 033b 0C       		.byte	0xc
 601 033c 00       		.byte	0
 602 033d 09       		.uleb128 0x9
 603 033e 04       		.byte	0x4
 604 033f 0C030000 		.4byte	0x30c
 605 0343 03       		.uleb128 0x3
 606 0344 83010000 		.4byte	.LASF49
 607 0348 09       		.byte	0x9
 608 0349 2C       		.byte	0x2c
 609 034a 0C030000 		.4byte	0x30c
 610 034e 03       		.uleb128 0x3
 611 034f 46000000 		.4byte	.LASF53
 612 0353 0A       		.byte	0xa
 613 0354 25       		.byte	0x25
 614 0355 59030000 		.4byte	0x359
 615 0359 09       		.uleb128 0x9
 616 035a 04       		.byte	0x4
 617 035b 5F030000 		.4byte	0x35f
 618 035f 0C       		.uleb128 0xc
 619 0360 74020000 		.4byte	0x274
 620 0364 6E030000 		.4byte	0x36e
 621 0368 0D       		.uleb128 0xd
 622 0369 2C000000 		.4byte	0x2c
 623 036d 00       		.byte	0
 624 036e 03       		.uleb128 0x3
 625 036f C3010000 		.4byte	.LASF54
 626 0373 0B       		.byte	0xb
 627 0374 2D       		.byte	0x2d
ARM GAS  /tmp/ccUJIHNe.s 			page 12


 628 0375 79030000 		.4byte	0x379
 629 0379 05       		.uleb128 0x5
 630 037a E1030000 		.4byte	.LASF55
 631 037e 1C       		.byte	0x1c
 632 037f 0B       		.byte	0xb
 633 0380 40       		.byte	0x40
 634 0381 AA030000 		.4byte	0x3aa
 635 0385 06       		.uleb128 0x6
 636 0386 00020000 		.4byte	.LASF56
 637 038a 0B       		.byte	0xb
 638 038b 41       		.byte	0x41
 639 038c 4E030000 		.4byte	0x34e
 640 0390 00       		.byte	0
 641 0391 06       		.uleb128 0x6
 642 0392 73000000 		.4byte	.LASF57
 643 0396 0B       		.byte	0xb
 644 0397 43       		.byte	0x43
 645 0398 C9030000 		.4byte	0x3c9
 646 039c 04       		.byte	0x4
 647 039d 06       		.uleb128 0x6
 648 039e A6000000 		.4byte	.LASF58
 649 03a2 0B       		.byte	0xb
 650 03a3 45       		.byte	0x45
 651 03a4 43030000 		.4byte	0x343
 652 03a8 0C       		.byte	0xc
 653 03a9 00       		.byte	0
 654 03aa 0E       		.uleb128 0xe
 655 03ab 04       		.byte	0x4
 656 03ac 0B       		.byte	0xb
 657 03ad 35       		.byte	0x35
 658 03ae C9030000 		.4byte	0x3c9
 659 03b2 0F       		.uleb128 0xf
 660 03b3 80000000 		.4byte	.LASF59
 661 03b7 0B       		.byte	0xb
 662 03b8 36       		.byte	0x36
 663 03b9 EA030000 		.4byte	0x3ea
 664 03bd 0F       		.uleb128 0xf
 665 03be 87020000 		.4byte	.LASF60
 666 03c2 0B       		.byte	0xb
 667 03c3 37       		.byte	0x37
 668 03c4 F0030000 		.4byte	0x3f0
 669 03c8 00       		.byte	0
 670 03c9 10       		.uleb128 0x10
 671 03ca 31020000 		.4byte	.LASF80
 672 03ce 08       		.byte	0x8
 673 03cf 0B       		.byte	0xb
 674 03d0 32       		.byte	0x32
 675 03d1 EA030000 		.4byte	0x3ea
 676 03d5 0F       		.uleb128 0xf
 677 03d6 18010000 		.4byte	.LASF61
 678 03da 0B       		.byte	0xb
 679 03db 33       		.byte	0x33
 680 03dc 5E020000 		.4byte	0x25e
 681 03e0 11       		.uleb128 0x11
 682 03e1 6800     		.ascii	"h\000"
 683 03e3 0B       		.byte	0xb
 684 03e4 3A       		.byte	0x3a
ARM GAS  /tmp/ccUJIHNe.s 			page 13


 685 03e5 F6030000 		.4byte	0x3f6
 686 03e9 00       		.byte	0
 687 03ea 09       		.uleb128 0x9
 688 03eb 04       		.byte	0x4
 689 03ec C9030000 		.4byte	0x3c9
 690 03f0 09       		.uleb128 0x9
 691 03f1 04       		.byte	0x4
 692 03f2 6E030000 		.4byte	0x36e
 693 03f6 08       		.uleb128 0x8
 694 03f7 08       		.byte	0x8
 695 03f8 0B       		.byte	0xb
 696 03f9 34       		.byte	0x34
 697 03fa 15040000 		.4byte	0x415
 698 03fe 07       		.uleb128 0x7
 699 03ff 7500     		.ascii	"u\000"
 700 0401 0B       		.byte	0xb
 701 0402 38       		.byte	0x38
 702 0403 AA030000 		.4byte	0x3aa
 703 0407 00       		.byte	0
 704 0408 06       		.uleb128 0x6
 705 0409 45010000 		.4byte	.LASF62
 706 040d 0B       		.byte	0xb
 707 040e 39       		.byte	0x39
 708 040f 2C000000 		.4byte	0x2c
 709 0413 04       		.byte	0x4
 710 0414 00       		.byte	0
 711 0415 0E       		.uleb128 0xe
 712 0416 04       		.byte	0x4
 713 0417 07       		.byte	0x7
 714 0418 8F       		.byte	0x8f
 715 0419 4A040000 		.4byte	0x44a
 716 041d 0F       		.uleb128 0xf
 717 041e 35000000 		.4byte	.LASF63
 718 0422 07       		.byte	0x7
 719 0423 96       		.byte	0x96
 720 0424 EF000000 		.4byte	0xef
 721 0428 0F       		.uleb128 0xf
 722 0429 6A000000 		.4byte	.LASF64
 723 042d 07       		.byte	0x7
 724 042e 9D       		.byte	0x9d
 725 042f EF000000 		.4byte	0xef
 726 0433 0F       		.uleb128 0xf
 727 0434 2F030000 		.4byte	.LASF65
 728 0438 07       		.byte	0x7
 729 0439 A4       		.byte	0xa4
 730 043a 74020000 		.4byte	0x274
 731 043e 0F       		.uleb128 0xf
 732 043f 3D020000 		.4byte	.LASF66
 733 0443 07       		.byte	0x7
 734 0444 AB       		.byte	0xab
 735 0445 FA000000 		.4byte	0xfa
 736 0449 00       		.byte	0
 737 044a 09       		.uleb128 0x9
 738 044b 04       		.byte	0x4
 739 044c 50040000 		.4byte	0x450
 740 0450 12       		.uleb128 0x12
 741 0451 55040000 		.4byte	0x455
ARM GAS  /tmp/ccUJIHNe.s 			page 14


 742 0455 04       		.uleb128 0x4
 743 0456 01       		.byte	0x1
 744 0457 08       		.byte	0x8
 745 0458 8C020000 		.4byte	.LASF67
 746 045c 09       		.uleb128 0x9
 747 045d 04       		.byte	0x4
 748 045e 43030000 		.4byte	0x343
 749 0462 03       		.uleb128 0x3
 750 0463 00000000 		.4byte	.LASF68
 751 0467 07       		.byte	0x7
 752 0468 DE       		.byte	0xde
 753 0469 6D040000 		.4byte	0x46d
 754 046d 09       		.uleb128 0x9
 755 046e 04       		.byte	0x4
 756 046f 73040000 		.4byte	0x473
 757 0473 0C       		.uleb128 0xc
 758 0474 EF000000 		.4byte	0xef
 759 0478 82040000 		.4byte	0x482
 760 047c 0D       		.uleb128 0xd
 761 047d 74020000 		.4byte	0x274
 762 0481 00       		.byte	0
 763 0482 04       		.uleb128 0x4
 764 0483 04       		.byte	0x4
 765 0484 07       		.byte	0x7
 766 0485 A0010000 		.4byte	.LASF69
 767 0489 13       		.uleb128 0x13
 768 048a 89010000 		.4byte	.LASF70
 769 048e 01       		.byte	0x1
 770 048f 2D       		.byte	0x2d
 771 0490 2D020000 		.4byte	0x22d
 772 0494 00000000 		.4byte	.LFB7
 773 0498 18000000 		.4byte	.LFE7-.LFB7
 774 049c 01       		.uleb128 0x1
 775 049d 9C       		.byte	0x9c
 776 049e AF040000 		.4byte	0x4af
 777 04a2 14       		.uleb128 0x14
 778 04a3 747000   		.ascii	"tp\000"
 779 04a6 01       		.byte	0x1
 780 04a7 2D       		.byte	0x2d
 781 04a8 2D020000 		.4byte	0x22d
 782 04ac 01       		.uleb128 0x1
 783 04ad 50       		.byte	0x50
 784 04ae 00       		.byte	0
 785 04af 15       		.uleb128 0x15
 786 04b0 53020000 		.4byte	.LASF81
 787 04b4 01       		.byte	0x1
 788 04b5 43       		.byte	0x43
 789 04b6 00000000 		.4byte	.LFB8
 790 04ba 54000000 		.4byte	.LFE8-.LFB8
 791 04be 01       		.uleb128 0x1
 792 04bf 9C       		.byte	0x9c
 793 04c0 F3040000 		.4byte	0x4f3
 794 04c4 16       		.uleb128 0x16
 795 04c5 747000   		.ascii	"tp\000"
 796 04c8 01       		.byte	0x1
 797 04c9 43       		.byte	0x43
 798 04ca 2D020000 		.4byte	0x22d
ARM GAS  /tmp/ccUJIHNe.s 			page 15


 799 04ce 00000000 		.4byte	.LLST0
 800 04d2 17       		.uleb128 0x17
 801 04d3 D6010000 		.4byte	.LASF74
 802 04d7 01       		.byte	0x1
 803 04d8 44       		.byte	0x44
 804 04d9 CE000000 		.4byte	0xce
 805 04dd 21000000 		.4byte	.LLST1
 806 04e1 18       		.uleb128 0x18
 807 04e2 54000000 		.4byte	.LVL4
 808 04e6 D1050000 		.4byte	0x5d1
 809 04ea 19       		.uleb128 0x19
 810 04eb 01       		.uleb128 0x1
 811 04ec 50       		.byte	0x50
 812 04ed 03       		.uleb128 0x3
 813 04ee F3       		.byte	0xf3
 814 04ef 01       		.uleb128 0x1
 815 04f0 50       		.byte	0x50
 816 04f1 00       		.byte	0
 817 04f2 00       		.byte	0
 818 04f3 13       		.uleb128 0x13
 819 04f4 DF000000 		.4byte	.LASF71
 820 04f8 01       		.byte	0x1
 821 04f9 7B       		.byte	0x7b
 822 04fa 2D020000 		.4byte	0x22d
 823 04fe 00000000 		.4byte	.LFB9
 824 0502 68000000 		.4byte	.LFE9-.LFB9
 825 0506 01       		.uleb128 0x1
 826 0507 9C       		.byte	0x9c
 827 0508 D1050000 		.4byte	0x5d1
 828 050c 1A       		.uleb128 0x1a
 829 050d 7A000000 		.4byte	.LASF72
 830 0511 01       		.byte	0x1
 831 0512 7B       		.byte	0x7b
 832 0513 F0030000 		.4byte	0x3f0
 833 0517 40000000 		.4byte	.LLST2
 834 051b 1A       		.uleb128 0x1a
 835 051c 45010000 		.4byte	.LASF62
 836 0520 01       		.byte	0x1
 837 0521 7B       		.byte	0x7b
 838 0522 2C000000 		.4byte	0x2c
 839 0526 61000000 		.4byte	.LLST3
 840 052a 1A       		.uleb128 0x1a
 841 052b BE010000 		.4byte	.LASF73
 842 052f 01       		.byte	0x1
 843 0530 7C       		.byte	0x7c
 844 0531 E4000000 		.4byte	0xe4
 845 0535 7F000000 		.4byte	.LLST4
 846 0539 16       		.uleb128 0x16
 847 053a 706600   		.ascii	"pf\000"
 848 053d 01       		.byte	0x1
 849 053e 7C       		.byte	0x7c
 850 053f 62040000 		.4byte	0x462
 851 0543 9D000000 		.4byte	.LLST5
 852 0547 14       		.uleb128 0x14
 853 0548 61726700 		.ascii	"arg\000"
 854 054c 01       		.byte	0x1
 855 054d 7C       		.byte	0x7c
ARM GAS  /tmp/ccUJIHNe.s 			page 16


 856 054e 74020000 		.4byte	0x274
 857 0552 02       		.uleb128 0x2
 858 0553 91       		.byte	0x91
 859 0554 00       		.sleb128 0
 860 0555 1B       		.uleb128 0x1b
 861 0556 77737000 		.ascii	"wsp\000"
 862 055a 01       		.byte	0x1
 863 055b 7D       		.byte	0x7d
 864 055c 74020000 		.4byte	0x274
 865 0560 BB000000 		.4byte	.LLST6
 866 0564 1B       		.uleb128 0x1b
 867 0565 747000   		.ascii	"tp\000"
 868 0568 01       		.byte	0x1
 869 0569 7E       		.byte	0x7e
 870 056a 2D020000 		.4byte	0x22d
 871 056e EF000000 		.4byte	.LLST7
 872 0572 1C       		.uleb128 0x1c
 873 0573 18000000 		.4byte	.LVL6
 874 0577 E2050000 		.4byte	0x5e2
 875 057b 8D050000 		.4byte	0x58d
 876 057f 19       		.uleb128 0x19
 877 0580 01       		.uleb128 0x1
 878 0581 51       		.byte	0x51
 879 0582 02       		.uleb128 0x2
 880 0583 77       		.byte	0x77
 881 0584 00       		.sleb128 0
 882 0585 19       		.uleb128 0x19
 883 0586 01       		.uleb128 0x1
 884 0587 50       		.byte	0x50
 885 0588 03       		.uleb128 0x3
 886 0589 F3       		.byte	0xf3
 887 058a 01       		.uleb128 0x1
 888 058b 50       		.byte	0x50
 889 058c 00       		.byte	0
 890 058d 1C       		.uleb128 0x1c
 891 058e 3C000000 		.4byte	.LVL7
 892 0592 FC050000 		.4byte	0x5fc
 893 0596 BB050000 		.4byte	0x5bb
 894 059a 19       		.uleb128 0x19
 895 059b 01       		.uleb128 0x1
 896 059c 53       		.byte	0x53
 897 059d 02       		.uleb128 0x2
 898 059e 75       		.byte	0x75
 899 059f 00       		.sleb128 0
 900 05a0 19       		.uleb128 0x19
 901 05a1 01       		.uleb128 0x1
 902 05a2 52       		.byte	0x52
 903 05a3 02       		.uleb128 0x2
 904 05a4 76       		.byte	0x76
 905 05a5 00       		.sleb128 0
 906 05a6 19       		.uleb128 0x19
 907 05a7 01       		.uleb128 0x1
 908 05a8 51       		.byte	0x51
 909 05a9 02       		.uleb128 0x2
 910 05aa 77       		.byte	0x77
 911 05ab 00       		.sleb128 0
 912 05ac 19       		.uleb128 0x19
ARM GAS  /tmp/ccUJIHNe.s 			page 17


 913 05ad 01       		.uleb128 0x1
 914 05ae 50       		.byte	0x50
 915 05af 02       		.uleb128 0x2
 916 05b0 74       		.byte	0x74
 917 05b1 00       		.sleb128 0
 918 05b2 19       		.uleb128 0x19
 919 05b3 02       		.uleb128 0x2
 920 05b4 7D       		.byte	0x7d
 921 05b5 00       		.sleb128 0
 922 05b6 03       		.uleb128 0x3
 923 05b7 91       		.byte	0x91
 924 05b8 78       		.sleb128 -8
 925 05b9 06       		.byte	0x6
 926 05ba 00       		.byte	0
 927 05bb 1D       		.uleb128 0x1d
 928 05bc 50000000 		.4byte	.LVL9
 929 05c0 26060000 		.4byte	0x626
 930 05c4 19       		.uleb128 0x19
 931 05c5 01       		.uleb128 0x1
 932 05c6 51       		.byte	0x51
 933 05c7 01       		.uleb128 0x1
 934 05c8 30       		.byte	0x30
 935 05c9 19       		.uleb128 0x19
 936 05ca 01       		.uleb128 0x1
 937 05cb 50       		.byte	0x50
 938 05cc 02       		.uleb128 0x2
 939 05cd 74       		.byte	0x74
 940 05ce 00       		.sleb128 0
 941 05cf 00       		.byte	0
 942 05d0 00       		.byte	0
 943 05d1 1E       		.uleb128 0x1e
 944 05d2 B4000000 		.4byte	.LASF82
 945 05d6 0B       		.byte	0xb
 946 05d7 53       		.byte	0x53
 947 05d8 E2050000 		.4byte	0x5e2
 948 05dc 0D       		.uleb128 0xd
 949 05dd 74020000 		.4byte	0x274
 950 05e1 00       		.byte	0
 951 05e2 1F       		.uleb128 0x1f
 952 05e3 67020000 		.4byte	.LASF75
 953 05e7 0B       		.byte	0xb
 954 05e8 52       		.byte	0x52
 955 05e9 74020000 		.4byte	0x274
 956 05ed FC050000 		.4byte	0x5fc
 957 05f1 0D       		.uleb128 0xd
 958 05f2 F0030000 		.4byte	0x3f0
 959 05f6 0D       		.uleb128 0xd
 960 05f7 2C000000 		.4byte	0x2c
 961 05fb 00       		.byte	0
 962 05fc 20       		.uleb128 0x20
 963 05fd C9000000 		.4byte	.LASF76
 964 0601 07       		.byte	0x7
 965 0602 6201     		.2byte	0x162
 966 0604 2D020000 		.4byte	0x22d
 967 0608 26060000 		.4byte	0x626
 968 060c 0D       		.uleb128 0xd
 969 060d 74020000 		.4byte	0x274
ARM GAS  /tmp/ccUJIHNe.s 			page 18


 970 0611 0D       		.uleb128 0xd
 971 0612 2C000000 		.4byte	0x2c
 972 0616 0D       		.uleb128 0xd
 973 0617 E4000000 		.4byte	0xe4
 974 061b 0D       		.uleb128 0xd
 975 061c 62040000 		.4byte	0x462
 976 0620 0D       		.uleb128 0xd
 977 0621 74020000 		.4byte	0x274
 978 0625 00       		.byte	0
 979 0626 21       		.uleb128 0x21
 980 0627 D0020000 		.4byte	.LASF83
 981 062b 0C       		.byte	0xc
 982 062c 92       		.byte	0x92
 983 062d 0D       		.uleb128 0xd
 984 062e 2D020000 		.4byte	0x22d
 985 0632 0D       		.uleb128 0xd
 986 0633 EF000000 		.4byte	0xef
 987 0637 00       		.byte	0
 988 0638 00       		.byte	0
 989              		.section	.debug_abbrev,"",%progbits
 990              	.Ldebug_abbrev0:
 991 0000 01       		.uleb128 0x1
 992 0001 11       		.uleb128 0x11
 993 0002 01       		.byte	0x1
 994 0003 25       		.uleb128 0x25
 995 0004 0E       		.uleb128 0xe
 996 0005 13       		.uleb128 0x13
 997 0006 0B       		.uleb128 0xb
 998 0007 03       		.uleb128 0x3
 999 0008 0E       		.uleb128 0xe
 1000 0009 1B       		.uleb128 0x1b
 1001 000a 0E       		.uleb128 0xe
 1002 000b 55       		.uleb128 0x55
 1003 000c 17       		.uleb128 0x17
 1004 000d 11       		.uleb128 0x11
 1005 000e 01       		.uleb128 0x1
 1006 000f 10       		.uleb128 0x10
 1007 0010 17       		.uleb128 0x17
 1008 0011 00       		.byte	0
 1009 0012 00       		.byte	0
 1010 0013 02       		.uleb128 0x2
 1011 0014 24       		.uleb128 0x24
 1012 0015 00       		.byte	0
 1013 0016 0B       		.uleb128 0xb
 1014 0017 0B       		.uleb128 0xb
 1015 0018 3E       		.uleb128 0x3e
 1016 0019 0B       		.uleb128 0xb
 1017 001a 03       		.uleb128 0x3
 1018 001b 08       		.uleb128 0x8
 1019 001c 00       		.byte	0
 1020 001d 00       		.byte	0
 1021 001e 03       		.uleb128 0x3
 1022 001f 16       		.uleb128 0x16
 1023 0020 00       		.byte	0
 1024 0021 03       		.uleb128 0x3
 1025 0022 0E       		.uleb128 0xe
 1026 0023 3A       		.uleb128 0x3a
ARM GAS  /tmp/ccUJIHNe.s 			page 19


 1027 0024 0B       		.uleb128 0xb
 1028 0025 3B       		.uleb128 0x3b
 1029 0026 0B       		.uleb128 0xb
 1030 0027 49       		.uleb128 0x49
 1031 0028 13       		.uleb128 0x13
 1032 0029 00       		.byte	0
 1033 002a 00       		.byte	0
 1034 002b 04       		.uleb128 0x4
 1035 002c 24       		.uleb128 0x24
 1036 002d 00       		.byte	0
 1037 002e 0B       		.uleb128 0xb
 1038 002f 0B       		.uleb128 0xb
 1039 0030 3E       		.uleb128 0x3e
 1040 0031 0B       		.uleb128 0xb
 1041 0032 03       		.uleb128 0x3
 1042 0033 0E       		.uleb128 0xe
 1043 0034 00       		.byte	0
 1044 0035 00       		.byte	0
 1045 0036 05       		.uleb128 0x5
 1046 0037 13       		.uleb128 0x13
 1047 0038 01       		.byte	0x1
 1048 0039 03       		.uleb128 0x3
 1049 003a 0E       		.uleb128 0xe
 1050 003b 0B       		.uleb128 0xb
 1051 003c 0B       		.uleb128 0xb
 1052 003d 3A       		.uleb128 0x3a
 1053 003e 0B       		.uleb128 0xb
 1054 003f 3B       		.uleb128 0x3b
 1055 0040 0B       		.uleb128 0xb
 1056 0041 01       		.uleb128 0x1
 1057 0042 13       		.uleb128 0x13
 1058 0043 00       		.byte	0
 1059 0044 00       		.byte	0
 1060 0045 06       		.uleb128 0x6
 1061 0046 0D       		.uleb128 0xd
 1062 0047 00       		.byte	0
 1063 0048 03       		.uleb128 0x3
 1064 0049 0E       		.uleb128 0xe
 1065 004a 3A       		.uleb128 0x3a
 1066 004b 0B       		.uleb128 0xb
 1067 004c 3B       		.uleb128 0x3b
 1068 004d 0B       		.uleb128 0xb
 1069 004e 49       		.uleb128 0x49
 1070 004f 13       		.uleb128 0x13
 1071 0050 38       		.uleb128 0x38
 1072 0051 0B       		.uleb128 0xb
 1073 0052 00       		.byte	0
 1074 0053 00       		.byte	0
 1075 0054 07       		.uleb128 0x7
 1076 0055 0D       		.uleb128 0xd
 1077 0056 00       		.byte	0
 1078 0057 03       		.uleb128 0x3
 1079 0058 08       		.uleb128 0x8
 1080 0059 3A       		.uleb128 0x3a
 1081 005a 0B       		.uleb128 0xb
 1082 005b 3B       		.uleb128 0x3b
 1083 005c 0B       		.uleb128 0xb
ARM GAS  /tmp/ccUJIHNe.s 			page 20


 1084 005d 49       		.uleb128 0x49
 1085 005e 13       		.uleb128 0x13
 1086 005f 38       		.uleb128 0x38
 1087 0060 0B       		.uleb128 0xb
 1088 0061 00       		.byte	0
 1089 0062 00       		.byte	0
 1090 0063 08       		.uleb128 0x8
 1091 0064 13       		.uleb128 0x13
 1092 0065 01       		.byte	0x1
 1093 0066 0B       		.uleb128 0xb
 1094 0067 0B       		.uleb128 0xb
 1095 0068 3A       		.uleb128 0x3a
 1096 0069 0B       		.uleb128 0xb
 1097 006a 3B       		.uleb128 0x3b
 1098 006b 0B       		.uleb128 0xb
 1099 006c 01       		.uleb128 0x1
 1100 006d 13       		.uleb128 0x13
 1101 006e 00       		.byte	0
 1102 006f 00       		.byte	0
 1103 0070 09       		.uleb128 0x9
 1104 0071 0F       		.uleb128 0xf
 1105 0072 00       		.byte	0
 1106 0073 0B       		.uleb128 0xb
 1107 0074 0B       		.uleb128 0xb
 1108 0075 49       		.uleb128 0x49
 1109 0076 13       		.uleb128 0x13
 1110 0077 00       		.byte	0
 1111 0078 00       		.byte	0
 1112 0079 0A       		.uleb128 0xa
 1113 007a 0F       		.uleb128 0xf
 1114 007b 00       		.byte	0
 1115 007c 0B       		.uleb128 0xb
 1116 007d 0B       		.uleb128 0xb
 1117 007e 00       		.byte	0
 1118 007f 00       		.byte	0
 1119 0080 0B       		.uleb128 0xb
 1120 0081 35       		.uleb128 0x35
 1121 0082 00       		.byte	0
 1122 0083 49       		.uleb128 0x49
 1123 0084 13       		.uleb128 0x13
 1124 0085 00       		.byte	0
 1125 0086 00       		.byte	0
 1126 0087 0C       		.uleb128 0xc
 1127 0088 15       		.uleb128 0x15
 1128 0089 01       		.byte	0x1
 1129 008a 27       		.uleb128 0x27
 1130 008b 19       		.uleb128 0x19
 1131 008c 49       		.uleb128 0x49
 1132 008d 13       		.uleb128 0x13
 1133 008e 01       		.uleb128 0x1
 1134 008f 13       		.uleb128 0x13
 1135 0090 00       		.byte	0
 1136 0091 00       		.byte	0
 1137 0092 0D       		.uleb128 0xd
 1138 0093 05       		.uleb128 0x5
 1139 0094 00       		.byte	0
 1140 0095 49       		.uleb128 0x49
ARM GAS  /tmp/ccUJIHNe.s 			page 21


 1141 0096 13       		.uleb128 0x13
 1142 0097 00       		.byte	0
 1143 0098 00       		.byte	0
 1144 0099 0E       		.uleb128 0xe
 1145 009a 17       		.uleb128 0x17
 1146 009b 01       		.byte	0x1
 1147 009c 0B       		.uleb128 0xb
 1148 009d 0B       		.uleb128 0xb
 1149 009e 3A       		.uleb128 0x3a
 1150 009f 0B       		.uleb128 0xb
 1151 00a0 3B       		.uleb128 0x3b
 1152 00a1 0B       		.uleb128 0xb
 1153 00a2 01       		.uleb128 0x1
 1154 00a3 13       		.uleb128 0x13
 1155 00a4 00       		.byte	0
 1156 00a5 00       		.byte	0
 1157 00a6 0F       		.uleb128 0xf
 1158 00a7 0D       		.uleb128 0xd
 1159 00a8 00       		.byte	0
 1160 00a9 03       		.uleb128 0x3
 1161 00aa 0E       		.uleb128 0xe
 1162 00ab 3A       		.uleb128 0x3a
 1163 00ac 0B       		.uleb128 0xb
 1164 00ad 3B       		.uleb128 0x3b
 1165 00ae 0B       		.uleb128 0xb
 1166 00af 49       		.uleb128 0x49
 1167 00b0 13       		.uleb128 0x13
 1168 00b1 00       		.byte	0
 1169 00b2 00       		.byte	0
 1170 00b3 10       		.uleb128 0x10
 1171 00b4 17       		.uleb128 0x17
 1172 00b5 01       		.byte	0x1
 1173 00b6 03       		.uleb128 0x3
 1174 00b7 0E       		.uleb128 0xe
 1175 00b8 0B       		.uleb128 0xb
 1176 00b9 0B       		.uleb128 0xb
 1177 00ba 3A       		.uleb128 0x3a
 1178 00bb 0B       		.uleb128 0xb
 1179 00bc 3B       		.uleb128 0x3b
 1180 00bd 0B       		.uleb128 0xb
 1181 00be 01       		.uleb128 0x1
 1182 00bf 13       		.uleb128 0x13
 1183 00c0 00       		.byte	0
 1184 00c1 00       		.byte	0
 1185 00c2 11       		.uleb128 0x11
 1186 00c3 0D       		.uleb128 0xd
 1187 00c4 00       		.byte	0
 1188 00c5 03       		.uleb128 0x3
 1189 00c6 08       		.uleb128 0x8
 1190 00c7 3A       		.uleb128 0x3a
 1191 00c8 0B       		.uleb128 0xb
 1192 00c9 3B       		.uleb128 0x3b
 1193 00ca 0B       		.uleb128 0xb
 1194 00cb 49       		.uleb128 0x49
 1195 00cc 13       		.uleb128 0x13
 1196 00cd 00       		.byte	0
 1197 00ce 00       		.byte	0
ARM GAS  /tmp/ccUJIHNe.s 			page 22


 1198 00cf 12       		.uleb128 0x12
 1199 00d0 26       		.uleb128 0x26
 1200 00d1 00       		.byte	0
 1201 00d2 49       		.uleb128 0x49
 1202 00d3 13       		.uleb128 0x13
 1203 00d4 00       		.byte	0
 1204 00d5 00       		.byte	0
 1205 00d6 13       		.uleb128 0x13
 1206 00d7 2E       		.uleb128 0x2e
 1207 00d8 01       		.byte	0x1
 1208 00d9 3F       		.uleb128 0x3f
 1209 00da 19       		.uleb128 0x19
 1210 00db 03       		.uleb128 0x3
 1211 00dc 0E       		.uleb128 0xe
 1212 00dd 3A       		.uleb128 0x3a
 1213 00de 0B       		.uleb128 0xb
 1214 00df 3B       		.uleb128 0x3b
 1215 00e0 0B       		.uleb128 0xb
 1216 00e1 27       		.uleb128 0x27
 1217 00e2 19       		.uleb128 0x19
 1218 00e3 49       		.uleb128 0x49
 1219 00e4 13       		.uleb128 0x13
 1220 00e5 11       		.uleb128 0x11
 1221 00e6 01       		.uleb128 0x1
 1222 00e7 12       		.uleb128 0x12
 1223 00e8 06       		.uleb128 0x6
 1224 00e9 40       		.uleb128 0x40
 1225 00ea 18       		.uleb128 0x18
 1226 00eb 9742     		.uleb128 0x2117
 1227 00ed 19       		.uleb128 0x19
 1228 00ee 01       		.uleb128 0x1
 1229 00ef 13       		.uleb128 0x13
 1230 00f0 00       		.byte	0
 1231 00f1 00       		.byte	0
 1232 00f2 14       		.uleb128 0x14
 1233 00f3 05       		.uleb128 0x5
 1234 00f4 00       		.byte	0
 1235 00f5 03       		.uleb128 0x3
 1236 00f6 08       		.uleb128 0x8
 1237 00f7 3A       		.uleb128 0x3a
 1238 00f8 0B       		.uleb128 0xb
 1239 00f9 3B       		.uleb128 0x3b
 1240 00fa 0B       		.uleb128 0xb
 1241 00fb 49       		.uleb128 0x49
 1242 00fc 13       		.uleb128 0x13
 1243 00fd 02       		.uleb128 0x2
 1244 00fe 18       		.uleb128 0x18
 1245 00ff 00       		.byte	0
 1246 0100 00       		.byte	0
 1247 0101 15       		.uleb128 0x15
 1248 0102 2E       		.uleb128 0x2e
 1249 0103 01       		.byte	0x1
 1250 0104 3F       		.uleb128 0x3f
 1251 0105 19       		.uleb128 0x19
 1252 0106 03       		.uleb128 0x3
 1253 0107 0E       		.uleb128 0xe
 1254 0108 3A       		.uleb128 0x3a
ARM GAS  /tmp/ccUJIHNe.s 			page 23


 1255 0109 0B       		.uleb128 0xb
 1256 010a 3B       		.uleb128 0x3b
 1257 010b 0B       		.uleb128 0xb
 1258 010c 27       		.uleb128 0x27
 1259 010d 19       		.uleb128 0x19
 1260 010e 11       		.uleb128 0x11
 1261 010f 01       		.uleb128 0x1
 1262 0110 12       		.uleb128 0x12
 1263 0111 06       		.uleb128 0x6
 1264 0112 40       		.uleb128 0x40
 1265 0113 18       		.uleb128 0x18
 1266 0114 9742     		.uleb128 0x2117
 1267 0116 19       		.uleb128 0x19
 1268 0117 01       		.uleb128 0x1
 1269 0118 13       		.uleb128 0x13
 1270 0119 00       		.byte	0
 1271 011a 00       		.byte	0
 1272 011b 16       		.uleb128 0x16
 1273 011c 05       		.uleb128 0x5
 1274 011d 00       		.byte	0
 1275 011e 03       		.uleb128 0x3
 1276 011f 08       		.uleb128 0x8
 1277 0120 3A       		.uleb128 0x3a
 1278 0121 0B       		.uleb128 0xb
 1279 0122 3B       		.uleb128 0x3b
 1280 0123 0B       		.uleb128 0xb
 1281 0124 49       		.uleb128 0x49
 1282 0125 13       		.uleb128 0x13
 1283 0126 02       		.uleb128 0x2
 1284 0127 17       		.uleb128 0x17
 1285 0128 00       		.byte	0
 1286 0129 00       		.byte	0
 1287 012a 17       		.uleb128 0x17
 1288 012b 34       		.uleb128 0x34
 1289 012c 00       		.byte	0
 1290 012d 03       		.uleb128 0x3
 1291 012e 0E       		.uleb128 0xe
 1292 012f 3A       		.uleb128 0x3a
 1293 0130 0B       		.uleb128 0xb
 1294 0131 3B       		.uleb128 0x3b
 1295 0132 0B       		.uleb128 0xb
 1296 0133 49       		.uleb128 0x49
 1297 0134 13       		.uleb128 0x13
 1298 0135 02       		.uleb128 0x2
 1299 0136 17       		.uleb128 0x17
 1300 0137 00       		.byte	0
 1301 0138 00       		.byte	0
 1302 0139 18       		.uleb128 0x18
 1303 013a 898201   		.uleb128 0x4109
 1304 013d 01       		.byte	0x1
 1305 013e 11       		.uleb128 0x11
 1306 013f 01       		.uleb128 0x1
 1307 0140 9542     		.uleb128 0x2115
 1308 0142 19       		.uleb128 0x19
 1309 0143 31       		.uleb128 0x31
 1310 0144 13       		.uleb128 0x13
 1311 0145 00       		.byte	0
ARM GAS  /tmp/ccUJIHNe.s 			page 24


 1312 0146 00       		.byte	0
 1313 0147 19       		.uleb128 0x19
 1314 0148 8A8201   		.uleb128 0x410a
 1315 014b 00       		.byte	0
 1316 014c 02       		.uleb128 0x2
 1317 014d 18       		.uleb128 0x18
 1318 014e 9142     		.uleb128 0x2111
 1319 0150 18       		.uleb128 0x18
 1320 0151 00       		.byte	0
 1321 0152 00       		.byte	0
 1322 0153 1A       		.uleb128 0x1a
 1323 0154 05       		.uleb128 0x5
 1324 0155 00       		.byte	0
 1325 0156 03       		.uleb128 0x3
 1326 0157 0E       		.uleb128 0xe
 1327 0158 3A       		.uleb128 0x3a
 1328 0159 0B       		.uleb128 0xb
 1329 015a 3B       		.uleb128 0x3b
 1330 015b 0B       		.uleb128 0xb
 1331 015c 49       		.uleb128 0x49
 1332 015d 13       		.uleb128 0x13
 1333 015e 02       		.uleb128 0x2
 1334 015f 17       		.uleb128 0x17
 1335 0160 00       		.byte	0
 1336 0161 00       		.byte	0
 1337 0162 1B       		.uleb128 0x1b
 1338 0163 34       		.uleb128 0x34
 1339 0164 00       		.byte	0
 1340 0165 03       		.uleb128 0x3
 1341 0166 08       		.uleb128 0x8
 1342 0167 3A       		.uleb128 0x3a
 1343 0168 0B       		.uleb128 0xb
 1344 0169 3B       		.uleb128 0x3b
 1345 016a 0B       		.uleb128 0xb
 1346 016b 49       		.uleb128 0x49
 1347 016c 13       		.uleb128 0x13
 1348 016d 02       		.uleb128 0x2
 1349 016e 17       		.uleb128 0x17
 1350 016f 00       		.byte	0
 1351 0170 00       		.byte	0
 1352 0171 1C       		.uleb128 0x1c
 1353 0172 898201   		.uleb128 0x4109
 1354 0175 01       		.byte	0x1
 1355 0176 11       		.uleb128 0x11
 1356 0177 01       		.uleb128 0x1
 1357 0178 31       		.uleb128 0x31
 1358 0179 13       		.uleb128 0x13
 1359 017a 01       		.uleb128 0x1
 1360 017b 13       		.uleb128 0x13
 1361 017c 00       		.byte	0
 1362 017d 00       		.byte	0
 1363 017e 1D       		.uleb128 0x1d
 1364 017f 898201   		.uleb128 0x4109
 1365 0182 01       		.byte	0x1
 1366 0183 11       		.uleb128 0x11
 1367 0184 01       		.uleb128 0x1
 1368 0185 31       		.uleb128 0x31
ARM GAS  /tmp/ccUJIHNe.s 			page 25


 1369 0186 13       		.uleb128 0x13
 1370 0187 00       		.byte	0
 1371 0188 00       		.byte	0
 1372 0189 1E       		.uleb128 0x1e
 1373 018a 2E       		.uleb128 0x2e
 1374 018b 01       		.byte	0x1
 1375 018c 3F       		.uleb128 0x3f
 1376 018d 19       		.uleb128 0x19
 1377 018e 03       		.uleb128 0x3
 1378 018f 0E       		.uleb128 0xe
 1379 0190 3A       		.uleb128 0x3a
 1380 0191 0B       		.uleb128 0xb
 1381 0192 3B       		.uleb128 0x3b
 1382 0193 0B       		.uleb128 0xb
 1383 0194 27       		.uleb128 0x27
 1384 0195 19       		.uleb128 0x19
 1385 0196 3C       		.uleb128 0x3c
 1386 0197 19       		.uleb128 0x19
 1387 0198 01       		.uleb128 0x1
 1388 0199 13       		.uleb128 0x13
 1389 019a 00       		.byte	0
 1390 019b 00       		.byte	0
 1391 019c 1F       		.uleb128 0x1f
 1392 019d 2E       		.uleb128 0x2e
 1393 019e 01       		.byte	0x1
 1394 019f 3F       		.uleb128 0x3f
 1395 01a0 19       		.uleb128 0x19
 1396 01a1 03       		.uleb128 0x3
 1397 01a2 0E       		.uleb128 0xe
 1398 01a3 3A       		.uleb128 0x3a
 1399 01a4 0B       		.uleb128 0xb
 1400 01a5 3B       		.uleb128 0x3b
 1401 01a6 0B       		.uleb128 0xb
 1402 01a7 27       		.uleb128 0x27
 1403 01a8 19       		.uleb128 0x19
 1404 01a9 49       		.uleb128 0x49
 1405 01aa 13       		.uleb128 0x13
 1406 01ab 3C       		.uleb128 0x3c
 1407 01ac 19       		.uleb128 0x19
 1408 01ad 01       		.uleb128 0x1
 1409 01ae 13       		.uleb128 0x13
 1410 01af 00       		.byte	0
 1411 01b0 00       		.byte	0
 1412 01b1 20       		.uleb128 0x20
 1413 01b2 2E       		.uleb128 0x2e
 1414 01b3 01       		.byte	0x1
 1415 01b4 3F       		.uleb128 0x3f
 1416 01b5 19       		.uleb128 0x19
 1417 01b6 03       		.uleb128 0x3
 1418 01b7 0E       		.uleb128 0xe
 1419 01b8 3A       		.uleb128 0x3a
 1420 01b9 0B       		.uleb128 0xb
 1421 01ba 3B       		.uleb128 0x3b
 1422 01bb 05       		.uleb128 0x5
 1423 01bc 27       		.uleb128 0x27
 1424 01bd 19       		.uleb128 0x19
 1425 01be 49       		.uleb128 0x49
ARM GAS  /tmp/ccUJIHNe.s 			page 26


 1426 01bf 13       		.uleb128 0x13
 1427 01c0 3C       		.uleb128 0x3c
 1428 01c1 19       		.uleb128 0x19
 1429 01c2 01       		.uleb128 0x1
 1430 01c3 13       		.uleb128 0x13
 1431 01c4 00       		.byte	0
 1432 01c5 00       		.byte	0
 1433 01c6 21       		.uleb128 0x21
 1434 01c7 2E       		.uleb128 0x2e
 1435 01c8 01       		.byte	0x1
 1436 01c9 3F       		.uleb128 0x3f
 1437 01ca 19       		.uleb128 0x19
 1438 01cb 03       		.uleb128 0x3
 1439 01cc 0E       		.uleb128 0xe
 1440 01cd 3A       		.uleb128 0x3a
 1441 01ce 0B       		.uleb128 0xb
 1442 01cf 3B       		.uleb128 0x3b
 1443 01d0 0B       		.uleb128 0xb
 1444 01d1 27       		.uleb128 0x27
 1445 01d2 19       		.uleb128 0x19
 1446 01d3 3C       		.uleb128 0x3c
 1447 01d4 19       		.uleb128 0x19
 1448 01d5 00       		.byte	0
 1449 01d6 00       		.byte	0
 1450 01d7 00       		.byte	0
 1451              		.section	.debug_loc,"",%progbits
 1452              	.Ldebug_loc0:
 1453              	.LLST0:
 1454 0000 00000000 		.4byte	.LVL1
 1455 0004 53000000 		.4byte	.LVL4-1
 1456 0008 0100     		.2byte	0x1
 1457 000a 50       		.byte	0x50
 1458 000b 53000000 		.4byte	.LVL4-1
 1459 000f 54000000 		.4byte	.LFE8
 1460 0013 0400     		.2byte	0x4
 1461 0015 F3       		.byte	0xf3
 1462 0016 01       		.uleb128 0x1
 1463 0017 50       		.byte	0x50
 1464 0018 9F       		.byte	0x9f
 1465 0019 00000000 		.4byte	0
 1466 001d 00000000 		.4byte	0
 1467              	.LLST1:
 1468 0021 14000000 		.4byte	.LVL2
 1469 0025 24000000 		.4byte	.LVL3
 1470 0029 0100     		.2byte	0x1
 1471 002b 53       		.byte	0x53
 1472 002c 24000000 		.4byte	.LVL3
 1473 0030 53000000 		.4byte	.LVL4-1
 1474 0034 0200     		.2byte	0x2
 1475 0036 70       		.byte	0x70
 1476 0037 1E       		.sleb128 30
 1477 0038 00000000 		.4byte	0
 1478 003c 00000000 		.4byte	0
 1479              	.LLST2:
 1480 0040 00000000 		.4byte	.LVL5
 1481 0044 17000000 		.4byte	.LVL6-1
 1482 0048 0100     		.2byte	0x1
ARM GAS  /tmp/ccUJIHNe.s 			page 27


 1483 004a 50       		.byte	0x50
 1484 004b 17000000 		.4byte	.LVL6-1
 1485 004f 68000000 		.4byte	.LFE9
 1486 0053 0400     		.2byte	0x4
 1487 0055 F3       		.byte	0xf3
 1488 0056 01       		.uleb128 0x1
 1489 0057 50       		.byte	0x50
 1490 0058 9F       		.byte	0x9f
 1491 0059 00000000 		.4byte	0
 1492 005d 00000000 		.4byte	0
 1493              	.LLST3:
 1494 0061 00000000 		.4byte	.LVL5
 1495 0065 17000000 		.4byte	.LVL6-1
 1496 0069 0100     		.2byte	0x1
 1497 006b 51       		.byte	0x51
 1498 006c 17000000 		.4byte	.LVL6-1
 1499 0070 68000000 		.4byte	.LFE9
 1500 0074 0100     		.2byte	0x1
 1501 0076 57       		.byte	0x57
 1502 0077 00000000 		.4byte	0
 1503 007b 00000000 		.4byte	0
 1504              	.LLST4:
 1505 007f 00000000 		.4byte	.LVL5
 1506 0083 17000000 		.4byte	.LVL6-1
 1507 0087 0100     		.2byte	0x1
 1508 0089 52       		.byte	0x52
 1509 008a 17000000 		.4byte	.LVL6-1
 1510 008e 68000000 		.4byte	.LFE9
 1511 0092 0100     		.2byte	0x1
 1512 0094 56       		.byte	0x56
 1513 0095 00000000 		.4byte	0
 1514 0099 00000000 		.4byte	0
 1515              	.LLST5:
 1516 009d 00000000 		.4byte	.LVL5
 1517 00a1 17000000 		.4byte	.LVL6-1
 1518 00a5 0100     		.2byte	0x1
 1519 00a7 53       		.byte	0x53
 1520 00a8 17000000 		.4byte	.LVL6-1
 1521 00ac 68000000 		.4byte	.LFE9
 1522 00b0 0100     		.2byte	0x1
 1523 00b2 55       		.byte	0x55
 1524 00b3 00000000 		.4byte	0
 1525 00b7 00000000 		.4byte	0
 1526              	.LLST6:
 1527 00bb 18000000 		.4byte	.LVL6
 1528 00bf 3B000000 		.4byte	.LVL7-1
 1529 00c3 0100     		.2byte	0x1
 1530 00c5 50       		.byte	0x50
 1531 00c6 3B000000 		.4byte	.LVL7-1
 1532 00ca 4C000000 		.4byte	.LVL8
 1533 00ce 0100     		.2byte	0x1
 1534 00d0 54       		.byte	0x54
 1535 00d1 60000000 		.4byte	.LVL11
 1536 00d5 64000000 		.4byte	.LVL12
 1537 00d9 0100     		.2byte	0x1
 1538 00db 50       		.byte	0x50
 1539 00dc 64000000 		.4byte	.LVL12
ARM GAS  /tmp/ccUJIHNe.s 			page 28


 1540 00e0 68000000 		.4byte	.LFE9
 1541 00e4 0100     		.2byte	0x1
 1542 00e6 54       		.byte	0x54
 1543 00e7 00000000 		.4byte	0
 1544 00eb 00000000 		.4byte	0
 1545              	.LLST7:
 1546 00ef 4C000000 		.4byte	.LVL8
 1547 00f3 4F000000 		.4byte	.LVL9-1
 1548 00f7 0100     		.2byte	0x1
 1549 00f9 50       		.byte	0x50
 1550 00fa 4F000000 		.4byte	.LVL9-1
 1551 00fe 58000000 		.4byte	.LVL10
 1552 0102 0100     		.2byte	0x1
 1553 0104 54       		.byte	0x54
 1554 0105 00000000 		.4byte	0
 1555 0109 00000000 		.4byte	0
 1556              		.section	.debug_aranges,"",%progbits
 1557 0000 2C000000 		.4byte	0x2c
 1558 0004 0200     		.2byte	0x2
 1559 0006 00000000 		.4byte	.Ldebug_info0
 1560 000a 04       		.byte	0x4
 1561 000b 00       		.byte	0
 1562 000c 0000     		.2byte	0
 1563 000e 0000     		.2byte	0
 1564 0010 00000000 		.4byte	.LFB7
 1565 0014 18000000 		.4byte	.LFE7-.LFB7
 1566 0018 00000000 		.4byte	.LFB8
 1567 001c 54000000 		.4byte	.LFE8-.LFB8
 1568 0020 00000000 		.4byte	.LFB9
 1569 0024 68000000 		.4byte	.LFE9-.LFB9
 1570 0028 00000000 		.4byte	0
 1571 002c 00000000 		.4byte	0
 1572              		.section	.debug_ranges,"",%progbits
 1573              	.Ldebug_ranges0:
 1574 0000 00000000 		.4byte	.LFB7
 1575 0004 18000000 		.4byte	.LFE7
 1576 0008 00000000 		.4byte	.LFB8
 1577 000c 54000000 		.4byte	.LFE8
 1578 0010 00000000 		.4byte	.LFB9
 1579 0014 68000000 		.4byte	.LFE9
 1580 0018 00000000 		.4byte	0
 1581 001c 00000000 		.4byte	0
 1582              		.section	.debug_line,"",%progbits
 1583              	.Ldebug_line0:
 1584 0000 AF010000 		.section	.debug_str,"MS",%progbits,1
 1584      02005601 
 1584      00000201 
 1584      FB0E0D00 
 1584      01010101 
 1585              	.LASF68:
 1586 0000 7466756E 		.ascii	"tfunc_t\000"
 1586      635F7400 
 1587              	.LASF39:
 1588 0008 705F6D73 		.ascii	"p_msg\000"
 1588      6700
 1589              	.LASF78:
 1590 000e 2E2E2F2E 		.ascii	"../../os/kernel/src/chdynamic.c\000"
ARM GAS  /tmp/ccUJIHNe.s 			page 29


 1590      2E2F6F73 
 1590      2F6B6572 
 1590      6E656C2F 
 1590      7372632F 
 1591              	.LASF2:
 1592 002e 73697A65 		.ascii	"size_t\000"
 1592      5F7400
 1593              	.LASF63:
 1594 0035 7264796D 		.ascii	"rdymsg\000"
 1594      736700
 1595              	.LASF3:
 1596 003c 5F5F7569 		.ascii	"__uint8_t\000"
 1596      6E74385F 
 1596      7400
 1597              	.LASF53:
 1598 0046 6D656D67 		.ascii	"memgetfunc_t\000"
 1598      65746675 
 1598      6E635F74 
 1598      00
 1599              	.LASF12:
 1600 0053 6C6F6E67 		.ascii	"long long unsigned int\000"
 1600      206C6F6E 
 1600      6720756E 
 1600      7369676E 
 1600      65642069 
 1601              	.LASF64:
 1602 006a 65786974 		.ascii	"exitcode\000"
 1602      636F6465 
 1602      00
 1603              	.LASF57:
 1604 0073 685F6672 		.ascii	"h_free\000"
 1604      656500
 1605              	.LASF72:
 1606 007a 68656170 		.ascii	"heapp\000"
 1606      7000
 1607              	.LASF59:
 1608 0080 6E657874 		.ascii	"next\000"
 1608      00
 1609              	.LASF27:
 1610 0085 705F7072 		.ascii	"p_prio\000"
 1610      696F00
 1611              	.LASF11:
 1612 008c 6C6F6E67 		.ascii	"long long int\000"
 1612      206C6F6E 
 1612      6720696E 
 1612      7400
 1613              	.LASF1:
 1614 009a 7369676E 		.ascii	"signed char\000"
 1614      65642063 
 1614      68617200 
 1615              	.LASF58:
 1616 00a6 685F6D74 		.ascii	"h_mtx\000"
 1616      7800
 1617              	.LASF50:
 1618 00ac 6D5F7175 		.ascii	"m_queue\000"
 1618      65756500 
 1619              	.LASF82:
ARM GAS  /tmp/ccUJIHNe.s 			page 30


 1620 00b4 63684865 		.ascii	"chHeapFree\000"
 1620      61704672 
 1620      656500
 1621              	.LASF19:
 1622 00bf 74736C69 		.ascii	"tslices_t\000"
 1622      6365735F 
 1622      7400
 1623              	.LASF76:
 1624 00c9 63685468 		.ascii	"chThdCreateI\000"
 1624      64437265 
 1624      61746549 
 1624      00
 1625              	.LASF8:
 1626 00d6 6C6F6E67 		.ascii	"long int\000"
 1626      20696E74 
 1626      00
 1627              	.LASF71:
 1628 00df 63685468 		.ascii	"chThdCreateFromHeap\000"
 1628      64437265 
 1628      61746546 
 1628      726F6D48 
 1628      65617000 
 1629              	.LASF17:
 1630 00f3 74737461 		.ascii	"tstate_t\000"
 1630      74655F74 
 1630      00
 1631              	.LASF29:
 1632 00fc 705F6E65 		.ascii	"p_newer\000"
 1632      77657200 
 1633              	.LASF9:
 1634 0104 5F5F7569 		.ascii	"__uint32_t\000"
 1634      6E743332 
 1634      5F7400
 1635              	.LASF46:
 1636 010f 72656761 		.ascii	"regarm_t\000"
 1636      726D5F74 
 1636      00
 1637              	.LASF61:
 1638 0118 616C6967 		.ascii	"align\000"
 1638      6E00
 1639              	.LASF0:
 1640 011e 756E7369 		.ascii	"unsigned int\000"
 1640      676E6564 
 1640      20696E74 
 1640      00
 1641              	.LASF10:
 1642 012b 6C6F6E67 		.ascii	"long unsigned int\000"
 1642      20756E73 
 1642      69676E65 
 1642      6420696E 
 1642      7400
 1643              	.LASF48:
 1644 013d 636F6E74 		.ascii	"context\000"
 1644      65787400 
 1645              	.LASF62:
 1646 0145 73697A65 		.ascii	"size\000"
 1646      00
ARM GAS  /tmp/ccUJIHNe.s 			page 31


 1647              	.LASF6:
 1648 014a 73686F72 		.ascii	"short unsigned int\000"
 1648      7420756E 
 1648      7369676E 
 1648      65642069 
 1648      6E7400
 1649              	.LASF21:
 1650 015d 6D73675F 		.ascii	"msg_t\000"
 1650      7400
 1651              	.LASF16:
 1652 0163 746D6F64 		.ascii	"tmode_t\000"
 1652      655F7400 
 1653              	.LASF44:
 1654 016b 54687265 		.ascii	"ThreadsList\000"
 1654      6164734C 
 1654      69737400 
 1655              	.LASF22:
 1656 0177 6576656E 		.ascii	"eventmask_t\000"
 1656      746D6173 
 1656      6B5F7400 
 1657              	.LASF49:
 1658 0183 4D757465 		.ascii	"Mutex\000"
 1658      7800
 1659              	.LASF70:
 1660 0189 63685468 		.ascii	"chThdAddRef\000"
 1660      64416464 
 1660      52656600 
 1661              	.LASF45:
 1662 0195 73746B61 		.ascii	"stkalign_t\000"
 1662      6C69676E 
 1662      5F7400
 1663              	.LASF69:
 1664 01a0 73697A65 		.ascii	"sizetype\000"
 1664      74797065 
 1664      00
 1665              	.LASF30:
 1666 01a9 705F6F6C 		.ascii	"p_older\000"
 1666      64657200 
 1667              	.LASF43:
 1668 01b1 54687265 		.ascii	"ThreadsQueue\000"
 1668      61647351 
 1668      75657565 
 1668      00
 1669              	.LASF73:
 1670 01be 7072696F 		.ascii	"prio\000"
 1670      00
 1671              	.LASF54:
 1672 01c3 4D656D6F 		.ascii	"MemoryHeap\000"
 1672      72794865 
 1672      617000
 1673              	.LASF18:
 1674 01ce 74726566 		.ascii	"trefs_t\000"
 1674      735F7400 
 1675              	.LASF74:
 1676 01d6 72656673 		.ascii	"refs\000"
 1676      00
 1677              	.LASF26:
ARM GAS  /tmp/ccUJIHNe.s 			page 32


 1678 01db 705F7072 		.ascii	"p_prev\000"
 1678      657600
 1679              	.LASF20:
 1680 01e2 74707269 		.ascii	"tprio_t\000"
 1680      6F5F7400 
 1681              	.LASF14:
 1682 01ea 696E7433 		.ascii	"int32_t\000"
 1682      325F7400 
 1683              	.LASF4:
 1684 01f2 756E7369 		.ascii	"unsigned char\000"
 1684      676E6564 
 1684      20636861 
 1684      7200
 1685              	.LASF56:
 1686 0200 685F7072 		.ascii	"h_provider\000"
 1686      6F766964 
 1686      657200
 1687              	.LASF41:
 1688 020b 705F6D74 		.ascii	"p_mtxlist\000"
 1688      786C6973 
 1688      7400
 1689              	.LASF5:
 1690 0215 73686F72 		.ascii	"short int\000"
 1690      7420696E 
 1690      7400
 1691              	.LASF32:
 1692 021f 705F7374 		.ascii	"p_state\000"
 1692      61746500 
 1693              	.LASF35:
 1694 0227 705F7072 		.ascii	"p_preempt\000"
 1694      65656D70 
 1694      7400
 1695              	.LASF80:
 1696 0231 68656170 		.ascii	"heap_header\000"
 1696      5F686561 
 1696      64657200 
 1697              	.LASF66:
 1698 023d 65776D61 		.ascii	"ewmask\000"
 1698      736B00
 1699              	.LASF25:
 1700 0244 705F6E65 		.ascii	"p_next\000"
 1700      787400
 1701              	.LASF33:
 1702 024b 705F666C 		.ascii	"p_flags\000"
 1702      61677300 
 1703              	.LASF81:
 1704 0253 63685468 		.ascii	"chThdRelease\000"
 1704      6452656C 
 1704      65617365 
 1704      00
 1705              	.LASF24:
 1706 0260 54687265 		.ascii	"Thread\000"
 1706      616400
 1707              	.LASF75:
 1708 0267 63684865 		.ascii	"chHeapAlloc\000"
 1708      6170416C 
 1708      6C6F6300 
ARM GAS  /tmp/ccUJIHNe.s 			page 33


 1709              	.LASF40:
 1710 0273 705F6570 		.ascii	"p_epending\000"
 1710      656E6469 
 1710      6E6700
 1711              	.LASF15:
 1712 027e 75696E74 		.ascii	"uint32_t\000"
 1712      33325F74 
 1712      00
 1713              	.LASF60:
 1714 0287 68656170 		.ascii	"heap\000"
 1714      00
 1715              	.LASF67:
 1716 028c 63686172 		.ascii	"char\000"
 1716      00
 1717              	.LASF52:
 1718 0291 6D5F6E65 		.ascii	"m_next\000"
 1718      787400
 1719              	.LASF23:
 1720 0298 73797374 		.ascii	"systime_t\000"
 1720      696D655F 
 1720      7400
 1721              	.LASF42:
 1722 02a2 705F7265 		.ascii	"p_realprio\000"
 1722      616C7072 
 1722      696F00
 1723              	.LASF7:
 1724 02ad 5F5F696E 		.ascii	"__int32_t\000"
 1724      7433325F 
 1724      7400
 1725              	.LASF36:
 1726 02b7 705F7469 		.ascii	"p_time\000"
 1726      6D6500
 1727              	.LASF47:
 1728 02be 696E7463 		.ascii	"intctx\000"
 1728      747800
 1729              	.LASF38:
 1730 02c5 705F6D73 		.ascii	"p_msgqueue\000"
 1730      67717565 
 1730      756500
 1731              	.LASF83:
 1732 02d0 63685363 		.ascii	"chSchWakeupS\000"
 1732      6857616B 
 1732      65757053 
 1732      00
 1733              	.LASF79:
 1734 02dd 2F686F6D 		.ascii	"/home/hunter/development/chibi/ChibiOS-RPi/demos/AR"
 1734      652F6875 
 1734      6E746572 
 1734      2F646576 
 1734      656C6F70 
 1735 0310 4D31312D 		.ascii	"M11-BCM2835-GCC\000"
 1735      42434D32 
 1735      3833352D 
 1735      47434300 
 1736              	.LASF34:
 1737 0320 705F7265 		.ascii	"p_refs\000"
 1737      667300
ARM GAS  /tmp/ccUJIHNe.s 			page 34


 1738              	.LASF13:
 1739 0327 75696E74 		.ascii	"uint8_t\000"
 1739      385F7400 
 1740              	.LASF65:
 1741 032f 77746F62 		.ascii	"wtobjp\000"
 1741      6A7000
 1742              	.LASF31:
 1743 0336 705F6E61 		.ascii	"p_name\000"
 1743      6D6500
 1744              	.LASF77:
 1745 033d 474E5520 		.ascii	"GNU C 4.9.3 20150529 (prerelease) -mcpu=arm1176jz-s"
 1745      4320342E 
 1745      392E3320 
 1745      32303135 
 1745      30353239 
 1746 0370 202D6D6E 		.ascii	" -mno-thumb-interwork -ggdb -O2 -fomit-frame-pointe"
 1746      6F2D7468 
 1746      756D622D 
 1746      696E7465 
 1746      72776F72 
 1747 03a3 72202D66 		.ascii	"r -ffunction-sections -fdata-sections\000"
 1747      66756E63 
 1747      74696F6E 
 1747      2D736563 
 1747      74696F6E 
 1748              	.LASF51:
 1749 03c9 6D5F6F77 		.ascii	"m_owner\000"
 1749      6E657200 
 1750              	.LASF28:
 1751 03d1 705F6374 		.ascii	"p_ctx\000"
 1751      7800
 1752              	.LASF37:
 1753 03d7 705F7761 		.ascii	"p_waiting\000"
 1753      6974696E 
 1753      6700
 1754              	.LASF55:
 1755 03e1 6D656D6F 		.ascii	"memory_heap\000"
 1755      72795F68 
 1755      65617000 
 1756              		.ident	"GCC: (15:4.9.3+svn231177-1) 4.9.3 20150529 (prerelease)"
ARM GAS  /tmp/ccUJIHNe.s 			page 35


DEFINED SYMBOLS
                            *ABS*:0000000000000000 chdynamic.c
     /tmp/ccUJIHNe.s:17     .text.chThdAddRef:0000000000000000 $a
     /tmp/ccUJIHNe.s:20     .text.chThdAddRef:0000000000000000 chThdAddRef
     /tmp/ccUJIHNe.s:47     .text.chThdRelease:0000000000000000 $a
     /tmp/ccUJIHNe.s:50     .text.chThdRelease:0000000000000000 chThdRelease
     /tmp/ccUJIHNe.s:98     .text.chThdCreateFromHeap:0000000000000000 $a
     /tmp/ccUJIHNe.s:101    .text.chThdCreateFromHeap:0000000000000000 chThdCreateFromHeap
                     .debug_frame:0000000000000010 $d

UNDEFINED SYMBOLS
chHeapFree
chHeapAlloc
chThdCreateI
chSchWakeupS
