ARM GAS  /tmp/ccXOaafo.s 			page 1


   1              		.cpu arm1176jz-s
   2              		.fpu softvfp
   3              		.eabi_attribute 20, 1
   4              		.eabi_attribute 21, 1
   5              		.eabi_attribute 23, 3
   6              		.eabi_attribute 24, 1
   7              		.eabi_attribute 25, 1
   8              		.eabi_attribute 26, 1
   9              		.eabi_attribute 30, 2
  10              		.eabi_attribute 34, 1
  11              		.eabi_attribute 18, 4
  12              		.file	"chevents.c"
  13              		.text
  14              	.Ltext0:
  15              		.cfi_sections	.debug_frame
  16              		.section	.text.chEvtRegisterMask,"ax",%progbits
  17              		.align	2
  18              		.global	chEvtRegisterMask
  19              		.type	chEvtRegisterMask, %function
  20              	chEvtRegisterMask:
  21              	.LFB7:
  22              		.file 1 "../../os/kernel/src/chevents.c"
  23              		.loc 1 78 0
  24              		.cfi_startproc
  25              		@ args = 0, pretend = 0, frame = 0
  26              		@ frame_needed = 0, uses_anonymous_args = 0
  27              	.LVL0:
  28 0000 04E02DE5 		str	lr, [sp, #-4]!
  29              		.cfi_def_cfa_offset 4
  30              		.cfi_offset 14, -4
  31              		.loc 1 82 0
  32              	@ 82 "../../os/kernel/src/chevents.c" 1
  33 0004 9FF021E3 		msr     CPSR_c, #0x9F
  34              	@ 0 "" 2
  35              		.loc 1 87 0
  36 0008 0030A0E3 		mov	r3, #0
  37              		.loc 1 85 0
  38 000c 20C09FE5 		ldr	ip, .L3
  39              		.loc 1 83 0
  40 0010 00E090E5 		ldr	lr, [r0]
  41              		.loc 1 85 0
  42 0014 18C09CE5 		ldr	ip, [ip, #24]
  43              		.loc 1 83 0
  44 0018 00E081E5 		str	lr, [r1]
  45              		.loc 1 84 0
  46 001c 001080E5 		str	r1, [r0]
  47              		.loc 1 85 0
  48 0020 04C081E5 		str	ip, [r1, #4]
  49              		.loc 1 86 0
  50 0024 082081E5 		str	r2, [r1, #8]
  51              		.loc 1 87 0
  52 0028 0C3081E5 		str	r3, [r1, #12]
  53              		.loc 1 88 0
  54              	@ 88 "../../os/kernel/src/chevents.c" 1
  55 002c 1FF021E3 		msr     CPSR_c, #0x1F
  56              	@ 0 "" 2
  57 0030 04F09DE4 		ldr	pc, [sp], #4
ARM GAS  /tmp/ccXOaafo.s 			page 2


  58              	.L4:
  59              		.align	2
  60              	.L3:
  61 0034 00000000 		.word	rlist
  62              		.cfi_endproc
  63              	.LFE7:
  64              		.size	chEvtRegisterMask, .-chEvtRegisterMask
  65              		.section	.text.chEvtUnregister,"ax",%progbits
  66              		.align	2
  67              		.global	chEvtUnregister
  68              		.type	chEvtUnregister, %function
  69              	chEvtUnregister:
  70              	.LFB8:
  71              		.loc 1 104 0
  72              		.cfi_startproc
  73              		@ args = 0, pretend = 0, frame = 0
  74              		@ frame_needed = 0, uses_anonymous_args = 0
  75              		@ link register save eliminated.
  76              	.LVL1:
  77              		.loc 1 110 0
  78              	@ 110 "../../os/kernel/src/chevents.c" 1
  79 0000 9FF021E3 		msr     CPSR_c, #0x9F
  80              	@ 0 "" 2
  81              		.loc 1 109 0
  82 0004 0020A0E1 		mov	r2, r0
  83              		.loc 1 111 0
  84 0008 020000EA 		b	.L6
  85              	.LVL2:
  86              	.L8:
  87              		.loc 1 112 0
  88 000c 030051E1 		cmp	r1, r3
  89 0010 0500000A 		beq	.L11
  90 0014 0320A0E1 		mov	r2, r3
  91              	.LVL3:
  92              	.L6:
  93              		.loc 1 111 0
  94 0018 003092E5 		ldr	r3, [r2]
  95 001c 000053E1 		cmp	r3, r0
  96 0020 F9FFFF1A 		bne	.L8
  97              		.loc 1 118 0
  98              	@ 118 "../../os/kernel/src/chevents.c" 1
  99 0024 1FF021E3 		msr     CPSR_c, #0x1F
 100              	@ 0 "" 2
 101 0028 1EFF2FE1 		bx	lr
 102              	.L11:
 103              		.loc 1 113 0
 104 002c 003091E5 		ldr	r3, [r1]
 105 0030 003082E5 		str	r3, [r2]
 106              		.loc 1 118 0
 107              	@ 118 "../../os/kernel/src/chevents.c" 1
 108 0034 1FF021E3 		msr     CPSR_c, #0x1F
 109              	@ 0 "" 2
 110 0038 1EFF2FE1 		bx	lr
 111              		.cfi_endproc
 112              	.LFE8:
 113              		.size	chEvtUnregister, .-chEvtUnregister
 114              		.section	.text.chEvtGetAndClearEvents,"ax",%progbits
ARM GAS  /tmp/ccXOaafo.s 			page 3


 115              		.align	2
 116              		.global	chEvtGetAndClearEvents
 117              		.type	chEvtGetAndClearEvents, %function
 118              	chEvtGetAndClearEvents:
 119              	.LFB9:
 120              		.loc 1 129 0
 121              		.cfi_startproc
 122              		@ args = 0, pretend = 0, frame = 0
 123              		@ frame_needed = 0, uses_anonymous_args = 0
 124              		@ link register save eliminated.
 125              	.LVL4:
 126              		.loc 1 132 0
 127              	@ 132 "../../os/kernel/src/chevents.c" 1
 128 0000 9FF021E3 		msr     CPSR_c, #0x9F
 129              	@ 0 "" 2
 130              		.loc 1 134 0
 131 0004 18309FE5 		ldr	r3, .L13
 132 0008 182093E5 		ldr	r2, [r3, #24]
 133 000c 383092E5 		ldr	r3, [r2, #56]
 134              	.LVL5:
 135              		.loc 1 135 0
 136 0010 0010C3E1 		bic	r1, r3, r0
 137 0014 381082E5 		str	r1, [r2, #56]
 138              		.loc 1 137 0
 139              	@ 137 "../../os/kernel/src/chevents.c" 1
 140 0018 1FF021E3 		msr     CPSR_c, #0x1F
 141              	@ 0 "" 2
 142              		.loc 1 139 0
 143 001c 030000E0 		and	r0, r0, r3
 144              	.LVL6:
 145 0020 1EFF2FE1 		bx	lr
 146              	.L14:
 147              		.align	2
 148              	.L13:
 149 0024 00000000 		.word	rlist
 150              		.cfi_endproc
 151              	.LFE9:
 152              		.size	chEvtGetAndClearEvents, .-chEvtGetAndClearEvents
 153              		.section	.text.chEvtAddEvents,"ax",%progbits
 154              		.align	2
 155              		.global	chEvtAddEvents
 156              		.type	chEvtAddEvents, %function
 157              	chEvtAddEvents:
 158              	.LFB10:
 159              		.loc 1 150 0
 160              		.cfi_startproc
 161              		@ args = 0, pretend = 0, frame = 0
 162              		@ frame_needed = 0, uses_anonymous_args = 0
 163              		@ link register save eliminated.
 164              	.LVL7:
 165              		.loc 1 152 0
 166              	@ 152 "../../os/kernel/src/chevents.c" 1
 167 0000 9FF021E3 		msr     CPSR_c, #0x9F
 168              	@ 0 "" 2
 169              		.loc 1 154 0
 170 0004 14309FE5 		ldr	r3, .L16
 171 0008 182093E5 		ldr	r2, [r3, #24]
ARM GAS  /tmp/ccXOaafo.s 			page 4


 172 000c 383092E5 		ldr	r3, [r2, #56]
 173 0010 030080E1 		orr	r0, r0, r3
 174              	.LVL8:
 175 0014 380082E5 		str	r0, [r2, #56]
 176              	.LVL9:
 177              		.loc 1 156 0
 178              	@ 156 "../../os/kernel/src/chevents.c" 1
 179 0018 1FF021E3 		msr     CPSR_c, #0x1F
 180              	@ 0 "" 2
 181              		.loc 1 158 0
 182 001c 1EFF2FE1 		bx	lr
 183              	.L17:
 184              		.align	2
 185              	.L16:
 186 0020 00000000 		.word	rlist
 187              		.cfi_endproc
 188              	.LFE10:
 189              		.size	chEvtAddEvents, .-chEvtAddEvents
 190              		.section	.text.chEvtGetAndClearFlags,"ax",%progbits
 191              		.align	2
 192              		.global	chEvtGetAndClearFlags
 193              		.type	chEvtGetAndClearFlags, %function
 194              	chEvtGetAndClearFlags:
 195              	.LFB12:
 196              		.loc 1 202 0
 197              		.cfi_startproc
 198              		@ args = 0, pretend = 0, frame = 0
 199              		@ frame_needed = 0, uses_anonymous_args = 0
 200              		@ link register save eliminated.
 201              	.LVL10:
 202              		.loc 1 202 0
 203 0000 0030A0E1 		mov	r3, r0
 204              		.loc 1 205 0
 205              	@ 205 "../../os/kernel/src/chevents.c" 1
 206 0004 9FF021E3 		msr     CPSR_c, #0x9F
 207              	@ 0 "" 2
 208              		.loc 1 208 0
 209 0008 0020A0E3 		mov	r2, #0
 210              		.loc 1 207 0
 211 000c 0C0090E5 		ldr	r0, [r0, #12]
 212              	.LVL11:
 213              		.loc 1 208 0
 214 0010 0C2083E5 		str	r2, [r3, #12]
 215              		.loc 1 210 0
 216              	@ 210 "../../os/kernel/src/chevents.c" 1
 217 0014 1FF021E3 		msr     CPSR_c, #0x1F
 218              	@ 0 "" 2
 219              		.loc 1 212 0
 220 0018 1EFF2FE1 		bx	lr
 221              		.cfi_endproc
 222              	.LFE12:
 223              		.size	chEvtGetAndClearFlags, .-chEvtGetAndClearFlags
 224              		.section	.text.chEvtSignalI,"ax",%progbits
 225              		.align	2
 226              		.global	chEvtSignalI
 227              		.type	chEvtSignalI, %function
 228              	chEvtSignalI:
ARM GAS  /tmp/ccXOaafo.s 			page 5


 229              	.LFB14:
 230              		.loc 1 244 0
 231              		.cfi_startproc
 232              		@ args = 0, pretend = 0, frame = 0
 233              		@ frame_needed = 0, uses_anonymous_args = 0
 234              	.LVL12:
 235 0000 08402DE9 		stmfd	sp!, {r3, lr}
 236              		.cfi_def_cfa_offset 8
 237              		.cfi_offset 3, -8
 238              		.cfi_offset 14, -4
 239              		.loc 1 249 0
 240 0004 383090E5 		ldr	r3, [r0, #56]
 241              		.loc 1 251 0
 242 0008 1C20D0E5 		ldrb	r2, [r0, #28]	@ zero_extendqisi2
 243              		.loc 1 249 0
 244 000c 031081E1 		orr	r1, r1, r3
 245              	.LVL13:
 246              		.loc 1 251 0
 247 0010 080052E3 		cmp	r2, #8
 248              		.loc 1 249 0
 249 0014 381080E5 		str	r1, [r0, #56]
 250              		.loc 1 251 0
 251 0018 0900000A 		beq	.L24
 252              		.loc 1 252 0
 253 001c 090052E3 		cmp	r2, #9
 254 0020 0880BD18 		ldmnefd	sp!, {r3, pc}
 255              		.loc 1 254 0
 256 0024 243090E5 		ldr	r3, [r0, #36]
 257 0028 031001E0 		and	r1, r1, r3
 258              		.loc 1 253 0
 259 002c 010053E1 		cmp	r3, r1
 260 0030 0880BD18 		ldmnefd	sp!, {r3, pc}
 261              	.L21:
 262              	.LVL14:
 263              	.LBB4:
 264              	.LBB5:
 265              		.loc 1 255 0
 266 0034 FEFFFFEB 		bl	chSchReadyI
 267              	.LVL15:
 268 0038 0030A0E3 		mov	r3, #0
 269 003c 243080E5 		str	r3, [r0, #36]
 270 0040 0880BDE8 		ldmfd	sp!, {r3, pc}
 271              	.LVL16:
 272              	.L24:
 273              	.LBE5:
 274              	.LBE4:
 275              		.loc 1 252 0 discriminator 1
 276 0044 243090E5 		ldr	r3, [r0, #36]
 277              		.loc 1 251 0 discriminator 1
 278 0048 030011E1 		tst	r1, r3
 279 004c 0880BD08 		ldmeqfd	sp!, {r3, pc}
 280 0050 F7FFFFEA 		b	.L21
 281              		.cfi_endproc
 282              	.LFE14:
 283              		.size	chEvtSignalI, .-chEvtSignalI
 284              		.section	.text.chEvtBroadcastFlagsI,"ax",%progbits
 285              		.align	2
ARM GAS  /tmp/ccXOaafo.s 			page 6


 286              		.global	chEvtBroadcastFlagsI
 287              		.type	chEvtBroadcastFlagsI, %function
 288              	chEvtBroadcastFlagsI:
 289              	.LFB11:
 290              		.loc 1 177 0
 291              		.cfi_startproc
 292              		@ args = 0, pretend = 0, frame = 0
 293              		@ frame_needed = 0, uses_anonymous_args = 0
 294              	.LVL17:
 295 0000 70402DE9 		stmfd	sp!, {r4, r5, r6, lr}
 296              		.cfi_def_cfa_offset 16
 297              		.cfi_offset 4, -16
 298              		.cfi_offset 5, -12
 299              		.cfi_offset 6, -8
 300              		.cfi_offset 14, -4
 301              		.loc 1 183 0
 302 0004 004090E5 		ldr	r4, [r0]
 303              	.LVL18:
 304              		.loc 1 177 0
 305 0008 0050A0E1 		mov	r5, r0
 306              		.loc 1 184 0
 307 000c 040050E1 		cmp	r0, r4
 308              		.loc 1 177 0
 309 0010 0160A0E1 		mov	r6, r1
 310              		.loc 1 184 0
 311 0014 7080BD08 		ldmeqfd	sp!, {r4, r5, r6, pc}
 312              	.LVL19:
 313              	.L27:
 314              		.loc 1 185 0
 315 0018 0C3094E5 		ldr	r3, [r4, #12]
 316              		.loc 1 186 0
 317 001c 040094E5 		ldr	r0, [r4, #4]
 318              		.loc 1 185 0
 319 0020 063083E1 		orr	r3, r3, r6
 320 0024 0C3084E5 		str	r3, [r4, #12]
 321              		.loc 1 186 0
 322 0028 081094E5 		ldr	r1, [r4, #8]
 323 002c FEFFFFEB 		bl	chEvtSignalI
 324              	.LVL20:
 325              		.loc 1 187 0
 326 0030 004094E5 		ldr	r4, [r4]
 327              	.LVL21:
 328              		.loc 1 184 0
 329 0034 040055E1 		cmp	r5, r4
 330 0038 F6FFFF1A 		bne	.L27
 331 003c 7080BDE8 		ldmfd	sp!, {r4, r5, r6, pc}
 332              		.cfi_endproc
 333              	.LFE11:
 334              		.size	chEvtBroadcastFlagsI, .-chEvtBroadcastFlagsI
 335              		.section	.text.chEvtSignal,"ax",%progbits
 336              		.align	2
 337              		.global	chEvtSignal
 338              		.type	chEvtSignal, %function
 339              	chEvtSignal:
 340              	.LFB13:
 341              		.loc 1 222 0
 342              		.cfi_startproc
ARM GAS  /tmp/ccXOaafo.s 			page 7


 343              		@ args = 0, pretend = 0, frame = 0
 344              		@ frame_needed = 0, uses_anonymous_args = 0
 345              	.LVL22:
 346 0000 08402DE9 		stmfd	sp!, {r3, lr}
 347              		.cfi_def_cfa_offset 8
 348              		.cfi_offset 3, -8
 349              		.cfi_offset 14, -4
 350              		.loc 1 226 0
 351              	@ 226 "../../os/kernel/src/chevents.c" 1
 352 0004 9FF021E3 		msr     CPSR_c, #0x9F
 353              	@ 0 "" 2
 354              		.loc 1 227 0
 355 0008 FEFFFFEB 		bl	chEvtSignalI
 356              	.LVL23:
 357              		.loc 1 228 0
 358 000c FEFFFFEB 		bl	chSchRescheduleS
 359              	.LVL24:
 360              		.loc 1 229 0
 361              	@ 229 "../../os/kernel/src/chevents.c" 1
 362 0010 1FF021E3 		msr     CPSR_c, #0x1F
 363              	@ 0 "" 2
 364 0014 0880BDE8 		ldmfd	sp!, {r3, pc}
 365              		.cfi_endproc
 366              	.LFE13:
 367              		.size	chEvtSignal, .-chEvtSignal
 368              		.section	.text.chEvtBroadcastFlags,"ax",%progbits
 369              		.align	2
 370              		.global	chEvtBroadcastFlags
 371              		.type	chEvtBroadcastFlags, %function
 372              	chEvtBroadcastFlags:
 373              	.LFB15:
 374              		.loc 1 271 0
 375              		.cfi_startproc
 376              		@ args = 0, pretend = 0, frame = 0
 377              		@ frame_needed = 0, uses_anonymous_args = 0
 378              	.LVL25:
 379 0000 08402DE9 		stmfd	sp!, {r3, lr}
 380              		.cfi_def_cfa_offset 8
 381              		.cfi_offset 3, -8
 382              		.cfi_offset 14, -4
 383              		.loc 1 273 0
 384              	@ 273 "../../os/kernel/src/chevents.c" 1
 385 0004 9FF021E3 		msr     CPSR_c, #0x9F
 386              	@ 0 "" 2
 387              		.loc 1 274 0
 388 0008 FEFFFFEB 		bl	chEvtBroadcastFlagsI
 389              	.LVL26:
 390              		.loc 1 275 0
 391 000c FEFFFFEB 		bl	chSchRescheduleS
 392              	.LVL27:
 393              		.loc 1 276 0
 394              	@ 276 "../../os/kernel/src/chevents.c" 1
 395 0010 1FF021E3 		msr     CPSR_c, #0x1F
 396              	@ 0 "" 2
 397 0014 0880BDE8 		ldmfd	sp!, {r3, pc}
 398              		.cfi_endproc
 399              	.LFE15:
ARM GAS  /tmp/ccXOaafo.s 			page 8


 400              		.size	chEvtBroadcastFlags, .-chEvtBroadcastFlags
 401              		.section	.text.chEvtGetAndClearFlagsI,"ax",%progbits
 402              		.align	2
 403              		.global	chEvtGetAndClearFlagsI
 404              		.type	chEvtGetAndClearFlagsI, %function
 405              	chEvtGetAndClearFlagsI:
 406              	.LFB16:
 407              		.loc 1 290 0
 408              		.cfi_startproc
 409              		@ args = 0, pretend = 0, frame = 0
 410              		@ frame_needed = 0, uses_anonymous_args = 0
 411              		@ link register save eliminated.
 412              	.LVL28:
 413              		.loc 1 290 0
 414 0000 0030A0E1 		mov	r3, r0
 415              		.loc 1 294 0
 416 0004 0020A0E3 		mov	r2, #0
 417              		.loc 1 293 0
 418 0008 0C0090E5 		ldr	r0, [r0, #12]
 419              	.LVL29:
 420              		.loc 1 294 0
 421 000c 0C2083E5 		str	r2, [r3, #12]
 422              		.loc 1 297 0
 423 0010 1EFF2FE1 		bx	lr
 424              		.cfi_endproc
 425              	.LFE16:
 426              		.size	chEvtGetAndClearFlagsI, .-chEvtGetAndClearFlagsI
 427              		.section	.text.chEvtDispatch,"ax",%progbits
 428              		.align	2
 429              		.global	chEvtDispatch
 430              		.type	chEvtDispatch, %function
 431              	chEvtDispatch:
 432              	.LFB17:
 433              		.loc 1 308 0
 434              		.cfi_startproc
 435              		@ args = 0, pretend = 0, frame = 0
 436              		@ frame_needed = 0, uses_anonymous_args = 0
 437              	.LVL30:
 438 0000 F8402DE9 		stmfd	sp!, {r3, r4, r5, r6, r7, lr}
 439              		.cfi_def_cfa_offset 24
 440              		.cfi_offset 3, -24
 441              		.cfi_offset 4, -20
 442              		.cfi_offset 5, -16
 443              		.cfi_offset 6, -12
 444              		.cfi_offset 7, -8
 445              		.cfi_offset 14, -4
 446              		.loc 1 314 0
 447 0004 005051E2 		subs	r5, r1, #0
 448 0008 F880BD08 		ldmeqfd	sp!, {r3, r4, r5, r6, r7, pc}
 449 000c 0070A0E1 		mov	r7, r0
 450 0010 0040A0E3 		mov	r4, #0
 451              		.loc 1 315 0
 452 0014 0160A0E3 		mov	r6, #1
 453              	.LVL31:
 454              	.L38:
 455 0018 1634A0E1 		mov	r3, r6, asl r4
 456 001c 050013E1 		tst	r3, r5
ARM GAS  /tmp/ccXOaafo.s 			page 9


 457              		.loc 1 322 0
 458 0020 01408402 		addeq	r4, r4, #1
 459              	.LVL32:
 460              		.loc 1 315 0
 461 0024 FBFFFF0A 		beq	.L38
 462              		.loc 1 319 0
 463 0028 0350C5E1 		bic	r5, r5, r3
 464              	.LVL33:
 465              		.loc 1 320 0
 466 002c 0400A0E1 		mov	r0, r4
 467 0030 043197E7 		ldr	r3, [r7, r4, asl #2]
 468 0034 33FF2FE1 		blx	r3
 469              	.LVL34:
 470              		.loc 1 314 0
 471 0038 000055E3 		cmp	r5, #0
 472              		.loc 1 322 0
 473 003c 014084E2 		add	r4, r4, #1
 474              	.LVL35:
 475              		.loc 1 314 0
 476 0040 F4FFFF1A 		bne	.L38
 477 0044 F880BDE8 		ldmfd	sp!, {r3, r4, r5, r6, r7, pc}
 478              		.cfi_endproc
 479              	.LFE17:
 480              		.size	chEvtDispatch, .-chEvtDispatch
 481              		.section	.text.chEvtWaitOne,"ax",%progbits
 482              		.align	2
 483              		.global	chEvtWaitOne
 484              		.type	chEvtWaitOne, %function
 485              	chEvtWaitOne:
 486              	.LFB18:
 487              		.loc 1 343 0
 488              		.cfi_startproc
 489              		@ args = 0, pretend = 0, frame = 0
 490              		@ frame_needed = 0, uses_anonymous_args = 0
 491              	.LVL36:
 492 0000 38402DE9 		stmfd	sp!, {r3, r4, r5, lr}
 493              		.cfi_def_cfa_offset 16
 494              		.cfi_offset 3, -16
 495              		.cfi_offset 4, -12
 496              		.cfi_offset 5, -8
 497              		.cfi_offset 14, -4
 498              		.loc 1 344 0
 499 0004 40309FE5 		ldr	r3, .L46
 500 0008 185093E5 		ldr	r5, [r3, #24]
 501              	.LVL37:
 502              		.loc 1 347 0
 503              	@ 347 "../../os/kernel/src/chevents.c" 1
 504 000c 9FF021E3 		msr     CPSR_c, #0x9F
 505              	@ 0 "" 2
 506              		.loc 1 349 0
 507 0010 383095E5 		ldr	r3, [r5, #56]
 508              	.LVL38:
 509 0014 032010E0 		ands	r2, r0, r3
 510              	.LVL39:
 511 0018 0500001A 		bne	.L44
 512 001c 0040A0E1 		mov	r4, r0
 513              		.loc 1 350 0
ARM GAS  /tmp/ccXOaafo.s 			page 10


 514 0020 240085E5 		str	r0, [r5, #36]
 515              		.loc 1 351 0
 516 0024 0800A0E3 		mov	r0, #8
 517              	.LVL40:
 518 0028 FEFFFFEB 		bl	chSchGoSleepS
 519              	.LVL41:
 520              		.loc 1 352 0
 521 002c 383095E5 		ldr	r3, [r5, #56]
 522 0030 032004E0 		and	r2, r4, r3
 523              	.LVL42:
 524              	.L44:
 525              		.loc 1 354 0
 526 0034 000062E2 		rsb	r0, r2, #0
 527 0038 020000E0 		and	r0, r0, r2
 528              	.LVL43:
 529              		.loc 1 355 0
 530 003c 0030C3E1 		bic	r3, r3, r0
 531 0040 383085E5 		str	r3, [r5, #56]
 532              		.loc 1 357 0
 533              	@ 357 "../../os/kernel/src/chevents.c" 1
 534 0044 1FF021E3 		msr     CPSR_c, #0x1F
 535              	@ 0 "" 2
 536              		.loc 1 359 0
 537 0048 3880BDE8 		ldmfd	sp!, {r3, r4, r5, pc}
 538              	.L47:
 539              		.align	2
 540              	.L46:
 541 004c 00000000 		.word	rlist
 542              		.cfi_endproc
 543              	.LFE18:
 544              		.size	chEvtWaitOne, .-chEvtWaitOne
 545              		.section	.text.chEvtWaitAny,"ax",%progbits
 546              		.align	2
 547              		.global	chEvtWaitAny
 548              		.type	chEvtWaitAny, %function
 549              	chEvtWaitAny:
 550              	.LFB19:
 551              		.loc 1 372 0
 552              		.cfi_startproc
 553              		@ args = 0, pretend = 0, frame = 0
 554              		@ frame_needed = 0, uses_anonymous_args = 0
 555              	.LVL44:
 556 0000 38402DE9 		stmfd	sp!, {r3, r4, r5, lr}
 557              		.cfi_def_cfa_offset 16
 558              		.cfi_offset 3, -16
 559              		.cfi_offset 4, -12
 560              		.cfi_offset 5, -8
 561              		.cfi_offset 14, -4
 562              		.loc 1 373 0
 563 0004 3C309FE5 		ldr	r3, .L51
 564 0008 185093E5 		ldr	r5, [r3, #24]
 565              	.LVL45:
 566              		.loc 1 376 0
 567              	@ 376 "../../os/kernel/src/chevents.c" 1
 568 000c 9FF021E3 		msr     CPSR_c, #0x9F
 569              	@ 0 "" 2
 570              		.loc 1 378 0
ARM GAS  /tmp/ccXOaafo.s 			page 11


 571 0010 383095E5 		ldr	r3, [r5, #56]
 572              	.LVL46:
 573 0014 034010E0 		ands	r4, r0, r3
 574              	.LVL47:
 575 0018 0500001A 		bne	.L49
 576 001c 0040A0E1 		mov	r4, r0
 577              	.LVL48:
 578              		.loc 1 379 0
 579 0020 240085E5 		str	r0, [r5, #36]
 580              		.loc 1 380 0
 581 0024 0800A0E3 		mov	r0, #8
 582              	.LVL49:
 583 0028 FEFFFFEB 		bl	chSchGoSleepS
 584              	.LVL50:
 585              		.loc 1 381 0
 586 002c 383095E5 		ldr	r3, [r5, #56]
 587 0030 034004E0 		and	r4, r4, r3
 588              	.LVL51:
 589              	.L49:
 590              		.loc 1 383 0
 591 0034 0430C3E1 		bic	r3, r3, r4
 592 0038 383085E5 		str	r3, [r5, #56]
 593              		.loc 1 385 0
 594              	@ 385 "../../os/kernel/src/chevents.c" 1
 595 003c 1FF021E3 		msr     CPSR_c, #0x1F
 596              	@ 0 "" 2
 597              		.loc 1 387 0
 598 0040 0400A0E1 		mov	r0, r4
 599 0044 3880BDE8 		ldmfd	sp!, {r3, r4, r5, pc}
 600              	.L52:
 601              		.align	2
 602              	.L51:
 603 0048 00000000 		.word	rlist
 604              		.cfi_endproc
 605              	.LFE19:
 606              		.size	chEvtWaitAny, .-chEvtWaitAny
 607              		.section	.text.chEvtWaitAll,"ax",%progbits
 608              		.align	2
 609              		.global	chEvtWaitAll
 610              		.type	chEvtWaitAll, %function
 611              	chEvtWaitAll:
 612              	.LFB20:
 613              		.loc 1 400 0
 614              		.cfi_startproc
 615              		@ args = 0, pretend = 0, frame = 0
 616              		@ frame_needed = 0, uses_anonymous_args = 0
 617              	.LVL52:
 618 0000 38402DE9 		stmfd	sp!, {r3, r4, r5, lr}
 619              		.cfi_def_cfa_offset 16
 620              		.cfi_offset 3, -16
 621              		.cfi_offset 4, -12
 622              		.cfi_offset 5, -8
 623              		.cfi_offset 14, -4
 624              		.loc 1 401 0
 625 0004 3C309FE5 		ldr	r3, .L56
 626              		.loc 1 400 0
 627 0008 0040A0E1 		mov	r4, r0
ARM GAS  /tmp/ccXOaafo.s 			page 12


 628              		.loc 1 401 0
 629 000c 185093E5 		ldr	r5, [r3, #24]
 630              	.LVL53:
 631              		.loc 1 403 0
 632              	@ 403 "../../os/kernel/src/chevents.c" 1
 633 0010 9FF021E3 		msr     CPSR_c, #0x9F
 634              	@ 0 "" 2
 635              		.loc 1 405 0
 636 0014 383095E5 		ldr	r3, [r5, #56]
 637 0018 032000E0 		and	r2, r0, r3
 638 001c 000052E1 		cmp	r2, r0
 639 0020 0300000A 		beq	.L54
 640              		.loc 1 406 0
 641 0024 240085E5 		str	r0, [r5, #36]
 642              		.loc 1 407 0
 643 0028 0900A0E3 		mov	r0, #9
 644              	.LVL54:
 645 002c FEFFFFEB 		bl	chSchGoSleepS
 646              	.LVL55:
 647 0030 383095E5 		ldr	r3, [r5, #56]
 648              	.L54:
 649              		.loc 1 409 0
 650 0034 0430C3E1 		bic	r3, r3, r4
 651 0038 383085E5 		str	r3, [r5, #56]
 652              		.loc 1 411 0
 653              	@ 411 "../../os/kernel/src/chevents.c" 1
 654 003c 1FF021E3 		msr     CPSR_c, #0x1F
 655              	@ 0 "" 2
 656              		.loc 1 413 0
 657 0040 0400A0E1 		mov	r0, r4
 658 0044 3880BDE8 		ldmfd	sp!, {r3, r4, r5, pc}
 659              	.L57:
 660              		.align	2
 661              	.L56:
 662 0048 00000000 		.word	rlist
 663              		.cfi_endproc
 664              	.LFE20:
 665              		.size	chEvtWaitAll, .-chEvtWaitAll
 666              		.section	.text.chEvtWaitOneTimeout,"ax",%progbits
 667              		.align	2
 668              		.global	chEvtWaitOneTimeout
 669              		.type	chEvtWaitOneTimeout, %function
 670              	chEvtWaitOneTimeout:
 671              	.LFB21:
 672              		.loc 1 439 0
 673              		.cfi_startproc
 674              		@ args = 0, pretend = 0, frame = 0
 675              		@ frame_needed = 0, uses_anonymous_args = 0
 676              	.LVL56:
 677              		.loc 1 440 0
 678 0000 6C309FE5 		ldr	r3, .L65
 679              		.loc 1 439 0
 680 0004 70402DE9 		stmfd	sp!, {r4, r5, r6, lr}
 681              		.cfi_def_cfa_offset 16
 682              		.cfi_offset 4, -16
 683              		.cfi_offset 5, -12
 684              		.cfi_offset 6, -8
ARM GAS  /tmp/ccXOaafo.s 			page 13


 685              		.cfi_offset 14, -4
 686              		.loc 1 440 0
 687 0008 185093E5 		ldr	r5, [r3, #24]
 688              	.LVL57:
 689              		.loc 1 443 0
 690              	@ 443 "../../os/kernel/src/chevents.c" 1
 691 000c 9FF021E3 		msr     CPSR_c, #0x9F
 692              	@ 0 "" 2
 693              		.loc 1 445 0
 694 0010 382095E5 		ldr	r2, [r5, #56]
 695              	.LVL58:
 696 0014 026010E0 		ands	r6, r0, r2
 697              	.LVL59:
 698 0018 0C00001A 		bne	.L59
 699              		.loc 1 446 0
 700 001c 000051E3 		cmp	r1, #0
 701 0020 0200001A 		bne	.L60
 702              		.loc 1 447 0
 703              	@ 447 "../../os/kernel/src/chevents.c" 1
 704 0024 1FF021E3 		msr     CPSR_c, #0x1F
 705              	@ 0 "" 2
 706              		.loc 1 448 0
 707 0028 0100A0E1 		mov	r0, r1
 708              	.LVL60:
 709 002c 7080BDE8 		ldmfd	sp!, {r4, r5, r6, pc}
 710              	.LVL61:
 711              	.L60:
 712              		.loc 1 450 0
 713 0030 240085E5 		str	r0, [r5, #36]
 714 0034 0040A0E1 		mov	r4, r0
 715              		.loc 1 451 0
 716 0038 0800A0E3 		mov	r0, #8
 717              	.LVL62:
 718 003c FEFFFFEB 		bl	chSchGoSleepTimeoutS
 719              	.LVL63:
 720 0040 000050E3 		cmp	r0, #0
 721 0044 070000BA 		blt	.L64
 722              		.loc 1 455 0
 723 0048 382095E5 		ldr	r2, [r5, #56]
 724 004c 026004E0 		and	r6, r4, r2
 725              	.LVL64:
 726              	.L59:
 727              		.loc 1 457 0
 728 0050 000066E2 		rsb	r0, r6, #0
 729 0054 060000E0 		and	r0, r0, r6
 730              	.LVL65:
 731              		.loc 1 458 0
 732 0058 0020C2E1 		bic	r2, r2, r0
 733 005c 382085E5 		str	r2, [r5, #56]
 734              		.loc 1 460 0
 735              	@ 460 "../../os/kernel/src/chevents.c" 1
 736 0060 1FF021E3 		msr     CPSR_c, #0x1F
 737              	@ 0 "" 2
 738              		.loc 1 462 0
 739 0064 7080BDE8 		ldmfd	sp!, {r4, r5, r6, pc}
 740              	.LVL66:
 741              	.L64:
ARM GAS  /tmp/ccXOaafo.s 			page 14


 742              		.loc 1 452 0
 743              	@ 452 "../../os/kernel/src/chevents.c" 1
 744 0068 1FF021E3 		msr     CPSR_c, #0x1F
 745              	@ 0 "" 2
 746              		.loc 1 453 0
 747 006c 0600A0E1 		mov	r0, r6
 748 0070 7080BDE8 		ldmfd	sp!, {r4, r5, r6, pc}
 749              	.L66:
 750              		.align	2
 751              	.L65:
 752 0074 00000000 		.word	rlist
 753              		.cfi_endproc
 754              	.LFE21:
 755              		.size	chEvtWaitOneTimeout, .-chEvtWaitOneTimeout
 756              		.section	.text.chEvtWaitAnyTimeout,"ax",%progbits
 757              		.align	2
 758              		.global	chEvtWaitAnyTimeout
 759              		.type	chEvtWaitAnyTimeout, %function
 760              	chEvtWaitAnyTimeout:
 761              	.LFB22:
 762              		.loc 1 482 0
 763              		.cfi_startproc
 764              		@ args = 0, pretend = 0, frame = 0
 765              		@ frame_needed = 0, uses_anonymous_args = 0
 766              	.LVL67:
 767              		.loc 1 483 0
 768 0000 5C309FE5 		ldr	r3, .L74
 769              		.loc 1 482 0
 770 0004 70402DE9 		stmfd	sp!, {r4, r5, r6, lr}
 771              		.cfi_def_cfa_offset 16
 772              		.cfi_offset 4, -16
 773              		.cfi_offset 5, -12
 774              		.cfi_offset 6, -8
 775              		.cfi_offset 14, -4
 776              		.loc 1 483 0
 777 0008 186093E5 		ldr	r6, [r3, #24]
 778              	.LVL68:
 779              		.loc 1 486 0
 780              	@ 486 "../../os/kernel/src/chevents.c" 1
 781 000c 9FF021E3 		msr     CPSR_c, #0x9F
 782              	@ 0 "" 2
 783              		.loc 1 488 0
 784 0010 383096E5 		ldr	r3, [r6, #56]
 785              	.LVL69:
 786 0014 034010E0 		ands	r4, r0, r3
 787              	.LVL70:
 788 0018 0C00001A 		bne	.L68
 789              		.loc 1 489 0
 790 001c 000051E3 		cmp	r1, #0
 791 0020 0200001A 		bne	.L69
 792              		.loc 1 490 0
 793              	@ 490 "../../os/kernel/src/chevents.c" 1
 794 0024 1FF021E3 		msr     CPSR_c, #0x1F
 795              	@ 0 "" 2
 796              		.loc 1 491 0
 797 0028 0100A0E1 		mov	r0, r1
 798              	.LVL71:
ARM GAS  /tmp/ccXOaafo.s 			page 15


 799 002c 7080BDE8 		ldmfd	sp!, {r4, r5, r6, pc}
 800              	.LVL72:
 801              	.L69:
 802              		.loc 1 493 0
 803 0030 240086E5 		str	r0, [r6, #36]
 804 0034 0050A0E1 		mov	r5, r0
 805              		.loc 1 494 0
 806 0038 0800A0E3 		mov	r0, #8
 807              	.LVL73:
 808 003c FEFFFFEB 		bl	chSchGoSleepTimeoutS
 809              	.LVL74:
 810 0040 000050E3 		cmp	r0, #0
 811 0044 030000BA 		blt	.L73
 812              		.loc 1 498 0
 813 0048 383096E5 		ldr	r3, [r6, #56]
 814 004c 034005E0 		and	r4, r5, r3
 815              	.LVL75:
 816              	.L68:
 817              		.loc 1 500 0
 818 0050 0430C3E1 		bic	r3, r3, r4
 819 0054 383086E5 		str	r3, [r6, #56]
 820              	.L73:
 821              		.loc 1 502 0
 822              	@ 502 "../../os/kernel/src/chevents.c" 1
 823 0058 1FF021E3 		msr     CPSR_c, #0x1F
 824              	@ 0 "" 2
 825              		.loc 1 503 0
 826 005c 0400A0E1 		mov	r0, r4
 827              		.loc 1 504 0
 828 0060 7080BDE8 		ldmfd	sp!, {r4, r5, r6, pc}
 829              	.L75:
 830              		.align	2
 831              	.L74:
 832 0064 00000000 		.word	rlist
 833              		.cfi_endproc
 834              	.LFE22:
 835              		.size	chEvtWaitAnyTimeout, .-chEvtWaitAnyTimeout
 836              		.section	.text.chEvtWaitAllTimeout,"ax",%progbits
 837              		.align	2
 838              		.global	chEvtWaitAllTimeout
 839              		.type	chEvtWaitAllTimeout, %function
 840              	chEvtWaitAllTimeout:
 841              	.LFB23:
 842              		.loc 1 523 0
 843              		.cfi_startproc
 844              		@ args = 0, pretend = 0, frame = 0
 845              		@ frame_needed = 0, uses_anonymous_args = 0
 846              	.LVL76:
 847 0000 38402DE9 		stmfd	sp!, {r3, r4, r5, lr}
 848              		.cfi_def_cfa_offset 16
 849              		.cfi_offset 3, -16
 850              		.cfi_offset 4, -12
 851              		.cfi_offset 5, -8
 852              		.cfi_offset 14, -4
 853              		.loc 1 524 0
 854 0004 64309FE5 		ldr	r3, .L82
 855              		.loc 1 523 0
ARM GAS  /tmp/ccXOaafo.s 			page 16


 856 0008 0040A0E1 		mov	r4, r0
 857              		.loc 1 524 0
 858 000c 185093E5 		ldr	r5, [r3, #24]
 859              	.LVL77:
 860              		.loc 1 526 0
 861              	@ 526 "../../os/kernel/src/chevents.c" 1
 862 0010 9FF021E3 		msr     CPSR_c, #0x9F
 863              	@ 0 "" 2
 864              		.loc 1 528 0
 865 0014 383095E5 		ldr	r3, [r5, #56]
 866 0018 032000E0 		and	r2, r0, r3
 867 001c 000052E1 		cmp	r2, r0
 868 0020 0A00000A 		beq	.L77
 869              		.loc 1 529 0
 870 0024 000051E3 		cmp	r1, #0
 871 0028 0100A0E1 		mov	r0, r1
 872              	.LVL78:
 873 002c 0100001A 		bne	.L78
 874              		.loc 1 530 0
 875              	@ 530 "../../os/kernel/src/chevents.c" 1
 876 0030 1FF021E3 		msr     CPSR_c, #0x1F
 877              	@ 0 "" 2
 878              		.loc 1 531 0
 879 0034 3880BDE8 		ldmfd	sp!, {r3, r4, r5, pc}
 880              	.L78:
 881              		.loc 1 533 0
 882 0038 244085E5 		str	r4, [r5, #36]
 883              		.loc 1 534 0
 884 003c 0900A0E3 		mov	r0, #9
 885 0040 FEFFFFEB 		bl	chSchGoSleepTimeoutS
 886              	.LVL79:
 887 0044 000050E3 		cmp	r0, #0
 888 0048 050000BA 		blt	.L80
 889 004c 383095E5 		ldr	r3, [r5, #56]
 890              	.L77:
 891              		.loc 1 539 0
 892 0050 0430C3E1 		bic	r3, r3, r4
 893 0054 383085E5 		str	r3, [r5, #56]
 894              		.loc 1 541 0
 895              	@ 541 "../../os/kernel/src/chevents.c" 1
 896 0058 1FF021E3 		msr     CPSR_c, #0x1F
 897              	@ 0 "" 2
 898              		.loc 1 542 0
 899 005c 0400A0E1 		mov	r0, r4
 900              		.loc 1 543 0
 901 0060 3880BDE8 		ldmfd	sp!, {r3, r4, r5, pc}
 902              	.L80:
 903              		.loc 1 535 0
 904              	@ 535 "../../os/kernel/src/chevents.c" 1
 905 0064 1FF021E3 		msr     CPSR_c, #0x1F
 906              	@ 0 "" 2
 907              		.loc 1 536 0
 908 0068 0000A0E3 		mov	r0, #0
 909 006c 3880BDE8 		ldmfd	sp!, {r3, r4, r5, pc}
 910              	.L83:
 911              		.align	2
 912              	.L82:
ARM GAS  /tmp/ccXOaafo.s 			page 17


 913 0070 00000000 		.word	rlist
 914              		.cfi_endproc
 915              	.LFE23:
 916              		.size	chEvtWaitAllTimeout, .-chEvtWaitAllTimeout
 917              		.text
 918              	.Letext0:
 919              		.file 2 "/usr/include/newlib/machine/_default_types.h"
 920              		.file 3 "/usr/include/newlib/sys/_stdint.h"
 921              		.file 4 "../../os/ports/GCC/ARM/chtypes.h"
 922              		.file 5 "../../os/kernel/include/chlists.h"
 923              		.file 6 "../../os/kernel/include/chthreads.h"
 924              		.file 7 "../../os/ports/GCC/ARM/chcore.h"
 925              		.file 8 "../../os/kernel/include/chschd.h"
 926              		.file 9 "../../os/kernel/include/chmtx.h"
 927              		.file 10 "../../os/kernel/include/chevents.h"
 928              		.section	.debug_info,"",%progbits
 929              	.Ldebug_info0:
 930 0000 0E0A0000 		.4byte	0xa0e
 931 0004 0400     		.2byte	0x4
 932 0006 00000000 		.4byte	.Ldebug_abbrev0
 933 000a 04       		.byte	0x4
 934 000b 01       		.uleb128 0x1
 935 000c 61040000 		.4byte	.LASF97
 936 0010 01       		.byte	0x1
 937 0011 12040000 		.4byte	.LASF98
 938 0015 9E030000 		.4byte	.LASF99
 939 0019 00000000 		.4byte	.Ldebug_ranges0+0
 940 001d 00000000 		.4byte	0
 941 0021 00000000 		.4byte	.Ldebug_line0
 942 0025 02       		.uleb128 0x2
 943 0026 04       		.byte	0x4
 944 0027 05       		.byte	0x5
 945 0028 696E7400 		.ascii	"int\000"
 946 002c 03       		.uleb128 0x3
 947 002d 04       		.byte	0x4
 948 002e 07       		.byte	0x7
 949 002f 5E010000 		.4byte	.LASF0
 950 0033 03       		.uleb128 0x3
 951 0034 01       		.byte	0x1
 952 0035 06       		.byte	0x6
 953 0036 7B000000 		.4byte	.LASF1
 954 003a 04       		.uleb128 0x4
 955 003b 0D000000 		.4byte	.LASF5
 956 003f 02       		.byte	0x2
 957 0040 1D       		.byte	0x1d
 958 0041 45000000 		.4byte	0x45
 959 0045 03       		.uleb128 0x3
 960 0046 01       		.byte	0x1
 961 0047 08       		.byte	0x8
 962 0048 93020000 		.4byte	.LASF2
 963 004c 03       		.uleb128 0x3
 964 004d 02       		.byte	0x2
 965 004e 05       		.byte	0x5
 966 004f CD020000 		.4byte	.LASF3
 967 0053 03       		.uleb128 0x3
 968 0054 02       		.byte	0x2
 969 0055 07       		.byte	0x7
ARM GAS  /tmp/ccXOaafo.s 			page 18


 970 0056 9C010000 		.4byte	.LASF4
 971 005a 04       		.uleb128 0x4
 972 005b 7B030000 		.4byte	.LASF6
 973 005f 02       		.byte	0x2
 974 0060 3F       		.byte	0x3f
 975 0061 65000000 		.4byte	0x65
 976 0065 03       		.uleb128 0x3
 977 0066 04       		.byte	0x4
 978 0067 05       		.byte	0x5
 979 0068 AD000000 		.4byte	.LASF7
 980 006c 04       		.uleb128 0x4
 981 006d 0F010000 		.4byte	.LASF8
 982 0071 02       		.byte	0x2
 983 0072 41       		.byte	0x41
 984 0073 77000000 		.4byte	0x77
 985 0077 03       		.uleb128 0x3
 986 0078 04       		.byte	0x4
 987 0079 07       		.byte	0x7
 988 007a 6B010000 		.4byte	.LASF9
 989 007e 03       		.uleb128 0x3
 990 007f 08       		.byte	0x8
 991 0080 05       		.byte	0x5
 992 0081 6D000000 		.4byte	.LASF10
 993 0085 03       		.uleb128 0x3
 994 0086 08       		.byte	0x8
 995 0087 07       		.byte	0x7
 996 0088 23000000 		.4byte	.LASF11
 997 008c 04       		.uleb128 0x4
 998 008d 04040000 		.4byte	.LASF12
 999 0091 03       		.byte	0x3
 1000 0092 14       		.byte	0x14
 1001 0093 3A000000 		.4byte	0x3a
 1002 0097 04       		.uleb128 0x4
 1003 0098 8B020000 		.4byte	.LASF13
 1004 009c 03       		.byte	0x3
 1005 009d 1F       		.byte	0x1f
 1006 009e 5A000000 		.4byte	0x5a
 1007 00a2 04       		.uleb128 0x4
 1008 00a3 3D030000 		.4byte	.LASF14
 1009 00a7 03       		.byte	0x3
 1010 00a8 20       		.byte	0x20
 1011 00a9 6C000000 		.4byte	0x6c
 1012 00ad 04       		.uleb128 0x4
 1013 00ae E7010000 		.4byte	.LASF15
 1014 00b2 04       		.byte	0x4
 1015 00b3 2A       		.byte	0x2a
 1016 00b4 8C000000 		.4byte	0x8c
 1017 00b8 04       		.uleb128 0x4
 1018 00b9 B6000000 		.4byte	.LASF16
 1019 00bd 04       		.byte	0x4
 1020 00be 2B       		.byte	0x2b
 1021 00bf 8C000000 		.4byte	0x8c
 1022 00c3 04       		.uleb128 0x4
 1023 00c4 74020000 		.4byte	.LASF17
 1024 00c8 04       		.byte	0x4
 1025 00c9 2C       		.byte	0x2c
 1026 00ca 8C000000 		.4byte	0x8c
ARM GAS  /tmp/ccXOaafo.s 			page 19


 1027 00ce 04       		.uleb128 0x4
 1028 00cf A3000000 		.4byte	.LASF18
 1029 00d3 04       		.byte	0x4
 1030 00d4 2D       		.byte	0x2d
 1031 00d5 8C000000 		.4byte	0x8c
 1032 00d9 04       		.uleb128 0x4
 1033 00da 83020000 		.4byte	.LASF19
 1034 00de 04       		.byte	0x4
 1035 00df 2E       		.byte	0x2e
 1036 00e0 A2000000 		.4byte	0xa2
 1037 00e4 04       		.uleb128 0x4
 1038 00e5 C1010000 		.4byte	.LASF20
 1039 00e9 04       		.byte	0x4
 1040 00ea 2F       		.byte	0x2f
 1041 00eb 97000000 		.4byte	0x97
 1042 00ef 04       		.uleb128 0x4
 1043 00f0 3C010000 		.4byte	.LASF21
 1044 00f4 04       		.byte	0x4
 1045 00f5 30       		.byte	0x30
 1046 00f6 97000000 		.4byte	0x97
 1047 00fa 04       		.uleb128 0x4
 1048 00fb FB010000 		.4byte	.LASF22
 1049 00ff 04       		.byte	0x4
 1050 0100 31       		.byte	0x31
 1051 0101 A2000000 		.4byte	0xa2
 1052 0105 04       		.uleb128 0x4
 1053 0106 E1030000 		.4byte	.LASF23
 1054 010a 04       		.byte	0x4
 1055 010b 32       		.byte	0x32
 1056 010c A2000000 		.4byte	0xa2
 1057 0110 04       		.uleb128 0x4
 1058 0111 66030000 		.4byte	.LASF24
 1059 0115 04       		.byte	0x4
 1060 0116 33       		.byte	0x33
 1061 0117 A2000000 		.4byte	0xa2
 1062 011b 04       		.uleb128 0x4
 1063 011c 1D030000 		.4byte	.LASF25
 1064 0120 05       		.byte	0x5
 1065 0121 23       		.byte	0x23
 1066 0122 26010000 		.4byte	0x126
 1067 0126 05       		.uleb128 0x5
 1068 0127 1D030000 		.4byte	.LASF25
 1069 012b 44       		.byte	0x44
 1070 012c 06       		.byte	0x6
 1071 012d 57       		.byte	0x57
 1072 012e 17020000 		.4byte	0x217
 1073 0132 06       		.uleb128 0x6
 1074 0133 0E030000 		.4byte	.LASF26
 1075 0137 06       		.byte	0x6
 1076 0138 58       		.byte	0x58
 1077 0139 38020000 		.4byte	0x238
 1078 013d 00       		.byte	0
 1079 013e 06       		.uleb128 0x6
 1080 013f 7C020000 		.4byte	.LASF27
 1081 0143 06       		.byte	0x6
 1082 0144 5A       		.byte	0x5a
 1083 0145 38020000 		.4byte	0x238
ARM GAS  /tmp/ccXOaafo.s 			page 20


 1084 0149 04       		.byte	0x4
 1085 014a 06       		.uleb128 0x6
 1086 014b 66000000 		.4byte	.LASF28
 1087 014f 06       		.byte	0x6
 1088 0150 5C       		.byte	0x5c
 1089 0151 D9000000 		.4byte	0xd9
 1090 0155 08       		.byte	0x8
 1091 0156 06       		.uleb128 0x6
 1092 0157 13050000 		.4byte	.LASF29
 1093 015b 06       		.byte	0x6
 1094 015c 5D       		.byte	0x5d
 1095 015d E8020000 		.4byte	0x2e8
 1096 0161 0C       		.byte	0xc
 1097 0162 06       		.uleb128 0x6
 1098 0163 F6000000 		.4byte	.LASF30
 1099 0167 06       		.byte	0x6
 1100 0168 5F       		.byte	0x5f
 1101 0169 38020000 		.4byte	0x238
 1102 016d 10       		.byte	0x10
 1103 016e 06       		.uleb128 0x6
 1104 016f 24020000 		.4byte	.LASF31
 1105 0173 06       		.byte	0x6
 1106 0174 60       		.byte	0x60
 1107 0175 38020000 		.4byte	0x238
 1108 0179 14       		.byte	0x14
 1109 017a 06       		.uleb128 0x6
 1110 017b 5A040000 		.4byte	.LASF32
 1111 017f 06       		.byte	0x6
 1112 0180 67       		.byte	0x67
 1113 0181 6D040000 		.4byte	0x46d
 1114 0185 18       		.byte	0x18
 1115 0186 06       		.uleb128 0x6
 1116 0187 D7020000 		.4byte	.LASF33
 1117 018b 06       		.byte	0x6
 1118 018c 72       		.byte	0x72
 1119 018d B8000000 		.4byte	0xb8
 1120 0191 1C       		.byte	0x1c
 1121 0192 06       		.uleb128 0x6
 1122 0193 15030000 		.4byte	.LASF34
 1123 0197 06       		.byte	0x6
 1124 0198 76       		.byte	0x76
 1125 0199 AD000000 		.4byte	0xad
 1126 019d 1D       		.byte	0x1d
 1127 019e 06       		.uleb128 0x6
 1128 019f ED030000 		.4byte	.LASF35
 1129 01a3 06       		.byte	0x6
 1130 01a4 7B       		.byte	0x7b
 1131 01a5 C3000000 		.4byte	0xc3
 1132 01a9 1E       		.byte	0x1e
 1133 01aa 06       		.uleb128 0x6
 1134 01ab DF020000 		.4byte	.LASF36
 1135 01af 06       		.byte	0x6
 1136 01b0 81       		.byte	0x81
 1137 01b1 CE000000 		.4byte	0xce
 1138 01b5 1F       		.byte	0x1f
 1139 01b6 06       		.uleb128 0x6
 1140 01b7 85030000 		.4byte	.LASF37
ARM GAS  /tmp/ccXOaafo.s 			page 21


 1141 01bb 06       		.byte	0x6
 1142 01bc 88       		.byte	0x88
 1143 01bd 07030000 		.4byte	0x307
 1144 01c1 20       		.byte	0x20
 1145 01c2 07       		.uleb128 0x7
 1146 01c3 705F7500 		.ascii	"p_u\000"
 1147 01c7 06       		.byte	0x6
 1148 01c8 AD       		.byte	0xad
 1149 01c9 38040000 		.4byte	0x438
 1150 01cd 24       		.byte	0x24
 1151 01ce 06       		.uleb128 0x6
 1152 01cf 19050000 		.4byte	.LASF38
 1153 01d3 06       		.byte	0x6
 1154 01d4 B2       		.byte	0xb2
 1155 01d5 5E020000 		.4byte	0x25e
 1156 01d9 28       		.byte	0x28
 1157 01da 06       		.uleb128 0x6
 1158 01db 93030000 		.4byte	.LASF39
 1159 01df 06       		.byte	0x6
 1160 01e0 B8       		.byte	0xb8
 1161 01e1 3E020000 		.4byte	0x23e
 1162 01e5 2C       		.byte	0x2c
 1163 01e6 06       		.uleb128 0x6
 1164 01e7 00000000 		.4byte	.LASF40
 1165 01eb 06       		.byte	0x6
 1166 01ec BC       		.byte	0xbc
 1167 01ed E4000000 		.4byte	0xe4
 1168 01f1 34       		.byte	0x34
 1169 01f2 06       		.uleb128 0x6
 1170 01f3 32030000 		.4byte	.LASF41
 1171 01f7 06       		.byte	0x6
 1172 01f8 C2       		.byte	0xc2
 1173 01f9 FA000000 		.4byte	0xfa
 1174 01fd 38       		.byte	0x38
 1175 01fe 06       		.uleb128 0x6
 1176 01ff C3020000 		.4byte	.LASF42
 1177 0203 06       		.byte	0x6
 1178 0204 C9       		.byte	0xc9
 1179 0205 7F040000 		.4byte	0x47f
 1180 0209 3C       		.byte	0x3c
 1181 020a 06       		.uleb128 0x6
 1182 020b 70030000 		.4byte	.LASF43
 1183 020f 06       		.byte	0x6
 1184 0210 CD       		.byte	0xcd
 1185 0211 D9000000 		.4byte	0xd9
 1186 0215 40       		.byte	0x40
 1187 0216 00       		.byte	0
 1188 0217 08       		.uleb128 0x8
 1189 0218 08       		.byte	0x8
 1190 0219 05       		.byte	0x5
 1191 021a 5A       		.byte	0x5a
 1192 021b 38020000 		.4byte	0x238
 1193 021f 06       		.uleb128 0x6
 1194 0220 0E030000 		.4byte	.LASF26
 1195 0224 05       		.byte	0x5
 1196 0225 5B       		.byte	0x5b
 1197 0226 38020000 		.4byte	0x238
ARM GAS  /tmp/ccXOaafo.s 			page 22


 1198 022a 00       		.byte	0
 1199 022b 06       		.uleb128 0x6
 1200 022c 7C020000 		.4byte	.LASF27
 1201 0230 05       		.byte	0x5
 1202 0231 5D       		.byte	0x5d
 1203 0232 38020000 		.4byte	0x238
 1204 0236 04       		.byte	0x4
 1205 0237 00       		.byte	0
 1206 0238 09       		.uleb128 0x9
 1207 0239 04       		.byte	0x4
 1208 023a 1B010000 		.4byte	0x11b
 1209 023e 04       		.uleb128 0x4
 1210 023f 32020000 		.4byte	.LASF44
 1211 0243 05       		.byte	0x5
 1212 0244 5F       		.byte	0x5f
 1213 0245 17020000 		.4byte	0x217
 1214 0249 08       		.uleb128 0x8
 1215 024a 04       		.byte	0x4
 1216 024b 05       		.byte	0x5
 1217 024c 64       		.byte	0x64
 1218 024d 5E020000 		.4byte	0x25e
 1219 0251 06       		.uleb128 0x6
 1220 0252 0E030000 		.4byte	.LASF26
 1221 0256 05       		.byte	0x5
 1222 0257 66       		.byte	0x66
 1223 0258 38020000 		.4byte	0x238
 1224 025c 00       		.byte	0
 1225 025d 00       		.byte	0
 1226 025e 04       		.uleb128 0x4
 1227 025f EF010000 		.4byte	.LASF45
 1228 0263 05       		.byte	0x5
 1229 0264 69       		.byte	0x69
 1230 0265 49020000 		.4byte	0x249
 1231 0269 04       		.uleb128 0x4
 1232 026a 1F010000 		.4byte	.LASF46
 1233 026e 07       		.byte	0x7
 1234 026f A2       		.byte	0xa2
 1235 0270 74020000 		.4byte	0x274
 1236 0274 0A       		.uleb128 0xa
 1237 0275 04       		.byte	0x4
 1238 0276 05       		.uleb128 0x5
 1239 0277 8C030000 		.4byte	.LASF47
 1240 027b 24       		.byte	0x24
 1241 027c 07       		.byte	0x7
 1242 027d B9       		.byte	0xb9
 1243 027e E8020000 		.4byte	0x2e8
 1244 0282 07       		.uleb128 0x7
 1245 0283 723400   		.ascii	"r4\000"
 1246 0286 07       		.byte	0x7
 1247 0287 BA       		.byte	0xba
 1248 0288 69020000 		.4byte	0x269
 1249 028c 00       		.byte	0
 1250 028d 07       		.uleb128 0x7
 1251 028e 723500   		.ascii	"r5\000"
 1252 0291 07       		.byte	0x7
 1253 0292 BB       		.byte	0xbb
 1254 0293 69020000 		.4byte	0x269
ARM GAS  /tmp/ccXOaafo.s 			page 23


 1255 0297 04       		.byte	0x4
 1256 0298 07       		.uleb128 0x7
 1257 0299 723600   		.ascii	"r6\000"
 1258 029c 07       		.byte	0x7
 1259 029d BC       		.byte	0xbc
 1260 029e 69020000 		.4byte	0x269
 1261 02a2 08       		.byte	0x8
 1262 02a3 07       		.uleb128 0x7
 1263 02a4 723700   		.ascii	"r7\000"
 1264 02a7 07       		.byte	0x7
 1265 02a8 BD       		.byte	0xbd
 1266 02a9 69020000 		.4byte	0x269
 1267 02ad 0C       		.byte	0xc
 1268 02ae 07       		.uleb128 0x7
 1269 02af 723800   		.ascii	"r8\000"
 1270 02b2 07       		.byte	0x7
 1271 02b3 BE       		.byte	0xbe
 1272 02b4 69020000 		.4byte	0x269
 1273 02b8 10       		.byte	0x10
 1274 02b9 07       		.uleb128 0x7
 1275 02ba 723900   		.ascii	"r9\000"
 1276 02bd 07       		.byte	0x7
 1277 02be BF       		.byte	0xbf
 1278 02bf 69020000 		.4byte	0x269
 1279 02c3 14       		.byte	0x14
 1280 02c4 07       		.uleb128 0x7
 1281 02c5 72313000 		.ascii	"r10\000"
 1282 02c9 07       		.byte	0x7
 1283 02ca C0       		.byte	0xc0
 1284 02cb 69020000 		.4byte	0x269
 1285 02cf 18       		.byte	0x18
 1286 02d0 07       		.uleb128 0x7
 1287 02d1 72313100 		.ascii	"r11\000"
 1288 02d5 07       		.byte	0x7
 1289 02d6 C1       		.byte	0xc1
 1290 02d7 69020000 		.4byte	0x269
 1291 02db 1C       		.byte	0x1c
 1292 02dc 07       		.uleb128 0x7
 1293 02dd 6C7200   		.ascii	"lr\000"
 1294 02e0 07       		.byte	0x7
 1295 02e1 C2       		.byte	0xc2
 1296 02e2 69020000 		.4byte	0x269
 1297 02e6 20       		.byte	0x20
 1298 02e7 00       		.byte	0
 1299 02e8 05       		.uleb128 0x5
 1300 02e9 94010000 		.4byte	.LASF48
 1301 02ed 04       		.byte	0x4
 1302 02ee 07       		.byte	0x7
 1303 02ef CA       		.byte	0xca
 1304 02f0 01030000 		.4byte	0x301
 1305 02f4 07       		.uleb128 0x7
 1306 02f5 72313300 		.ascii	"r13\000"
 1307 02f9 07       		.byte	0x7
 1308 02fa CB       		.byte	0xcb
 1309 02fb 01030000 		.4byte	0x301
 1310 02ff 00       		.byte	0
 1311 0300 00       		.byte	0
ARM GAS  /tmp/ccXOaafo.s 			page 24


 1312 0301 09       		.uleb128 0x9
 1313 0302 04       		.byte	0x4
 1314 0303 76020000 		.4byte	0x276
 1315 0307 0B       		.uleb128 0xb
 1316 0308 10010000 		.4byte	0x110
 1317 030c 08       		.uleb128 0x8
 1318 030d 1C       		.byte	0x1c
 1319 030e 08       		.byte	0x8
 1320 030f 57       		.byte	0x57
 1321 0310 5D030000 		.4byte	0x35d
 1322 0314 06       		.uleb128 0x6
 1323 0315 46030000 		.4byte	.LASF49
 1324 0319 08       		.byte	0x8
 1325 031a 58       		.byte	0x58
 1326 031b 3E020000 		.4byte	0x23e
 1327 031f 00       		.byte	0
 1328 0320 06       		.uleb128 0x6
 1329 0321 E9020000 		.4byte	.LASF50
 1330 0325 08       		.byte	0x8
 1331 0326 59       		.byte	0x59
 1332 0327 D9000000 		.4byte	0xd9
 1333 032b 08       		.byte	0x8
 1334 032c 06       		.uleb128 0x6
 1335 032d 2C020000 		.4byte	.LASF51
 1336 0331 08       		.byte	0x8
 1337 0332 5B       		.byte	0x5b
 1338 0333 E8020000 		.4byte	0x2e8
 1339 0337 0C       		.byte	0xc
 1340 0338 06       		.uleb128 0x6
 1341 0339 C7010000 		.4byte	.LASF52
 1342 033d 08       		.byte	0x8
 1343 033e 5E       		.byte	0x5e
 1344 033f 38020000 		.4byte	0x238
 1345 0343 10       		.byte	0x10
 1346 0344 06       		.uleb128 0x6
 1347 0345 5B020000 		.4byte	.LASF53
 1348 0349 08       		.byte	0x8
 1349 034a 5F       		.byte	0x5f
 1350 034b 38020000 		.4byte	0x238
 1351 034f 14       		.byte	0x14
 1352 0350 06       		.uleb128 0x6
 1353 0351 51020000 		.4byte	.LASF54
 1354 0355 08       		.byte	0x8
 1355 0356 62       		.byte	0x62
 1356 0357 38020000 		.4byte	0x238
 1357 035b 18       		.byte	0x18
 1358 035c 00       		.byte	0
 1359 035d 04       		.uleb128 0x4
 1360 035e F4030000 		.4byte	.LASF55
 1361 0362 08       		.byte	0x8
 1362 0363 64       		.byte	0x64
 1363 0364 0C030000 		.4byte	0x30c
 1364 0368 05       		.uleb128 0x5
 1365 0369 07020000 		.4byte	.LASF56
 1366 036d 10       		.byte	0x10
 1367 036e 09       		.byte	0x9
 1368 036f 25       		.byte	0x25
ARM GAS  /tmp/ccXOaafo.s 			page 25


 1369 0370 99030000 		.4byte	0x399
 1370 0374 06       		.uleb128 0x6
 1371 0375 9B000000 		.4byte	.LASF57
 1372 0379 09       		.byte	0x9
 1373 037a 26       		.byte	0x26
 1374 037b 3E020000 		.4byte	0x23e
 1375 037f 00       		.byte	0
 1376 0380 06       		.uleb128 0x6
 1377 0381 0B050000 		.4byte	.LASF58
 1378 0385 09       		.byte	0x9
 1379 0386 28       		.byte	0x28
 1380 0387 38020000 		.4byte	0x238
 1381 038b 08       		.byte	0x8
 1382 038c 06       		.uleb128 0x6
 1383 038d 5F030000 		.4byte	.LASF59
 1384 0391 09       		.byte	0x9
 1385 0392 2A       		.byte	0x2a
 1386 0393 99030000 		.4byte	0x399
 1387 0397 0C       		.byte	0xc
 1388 0398 00       		.byte	0
 1389 0399 09       		.uleb128 0x9
 1390 039a 04       		.byte	0x4
 1391 039b 68030000 		.4byte	0x368
 1392 039f 04       		.uleb128 0x4
 1393 03a0 07020000 		.4byte	.LASF56
 1394 03a4 09       		.byte	0x9
 1395 03a5 2C       		.byte	0x2c
 1396 03a6 68030000 		.4byte	0x368
 1397 03aa 04       		.uleb128 0x4
 1398 03ab 31040000 		.4byte	.LASF60
 1399 03af 0A       		.byte	0xa
 1400 03b0 25       		.byte	0x25
 1401 03b1 B5030000 		.4byte	0x3b5
 1402 03b5 05       		.uleb128 0x5
 1403 03b6 31040000 		.4byte	.LASF60
 1404 03ba 10       		.byte	0x10
 1405 03bb 0A       		.byte	0xa
 1406 03bc 2A       		.byte	0x2a
 1407 03bd F2030000 		.4byte	0x3f2
 1408 03c1 06       		.uleb128 0x6
 1409 03c2 CF010000 		.4byte	.LASF61
 1410 03c6 0A       		.byte	0xa
 1411 03c7 2B       		.byte	0x2b
 1412 03c8 F2030000 		.4byte	0x3f2
 1413 03cc 00       		.byte	0
 1414 03cd 06       		.uleb128 0x6
 1415 03ce AE020000 		.4byte	.LASF62
 1416 03d2 0A       		.byte	0xa
 1417 03d3 2E       		.byte	0x2e
 1418 03d4 38020000 		.4byte	0x238
 1419 03d8 04       		.byte	0x4
 1420 03d9 06       		.uleb128 0x6
 1421 03da 63020000 		.4byte	.LASF63
 1422 03de 0A       		.byte	0xa
 1423 03df 30       		.byte	0x30
 1424 03e0 FA000000 		.4byte	0xfa
 1425 03e4 08       		.byte	0x8
ARM GAS  /tmp/ccXOaafo.s 			page 26


 1426 03e5 06       		.uleb128 0x6
 1427 03e6 BA020000 		.4byte	.LASF64
 1428 03ea 0A       		.byte	0xa
 1429 03eb 33       		.byte	0x33
 1430 03ec 05010000 		.4byte	0x105
 1431 03f0 0C       		.byte	0xc
 1432 03f1 00       		.byte	0
 1433 03f2 09       		.uleb128 0x9
 1434 03f3 04       		.byte	0x4
 1435 03f4 AA030000 		.4byte	0x3aa
 1436 03f8 05       		.uleb128 0x5
 1437 03f9 46010000 		.4byte	.LASF65
 1438 03fd 04       		.byte	0x4
 1439 03fe 0A       		.byte	0xa
 1440 03ff 3A       		.byte	0x3a
 1441 0400 11040000 		.4byte	0x411
 1442 0404 06       		.uleb128 0x6
 1443 0405 ED040000 		.4byte	.LASF66
 1444 0409 0A       		.byte	0xa
 1445 040a 3B       		.byte	0x3b
 1446 040b F2030000 		.4byte	0x3f2
 1447 040f 00       		.byte	0
 1448 0410 00       		.byte	0
 1449 0411 04       		.uleb128 0x4
 1450 0412 46010000 		.4byte	.LASF65
 1451 0416 0A       		.byte	0xa
 1452 0417 3E       		.byte	0x3e
 1453 0418 F8030000 		.4byte	0x3f8
 1454 041c 04       		.uleb128 0x4
 1455 041d 52010000 		.4byte	.LASF67
 1456 0421 0A       		.byte	0xa
 1457 0422 43       		.byte	0x43
 1458 0423 27040000 		.4byte	0x427
 1459 0427 09       		.uleb128 0x9
 1460 0428 04       		.byte	0x4
 1461 0429 2D040000 		.4byte	0x42d
 1462 042d 0C       		.uleb128 0xc
 1463 042e 38040000 		.4byte	0x438
 1464 0432 0D       		.uleb128 0xd
 1465 0433 EF000000 		.4byte	0xef
 1466 0437 00       		.byte	0
 1467 0438 0E       		.uleb128 0xe
 1468 0439 04       		.byte	0x4
 1469 043a 06       		.byte	0x6
 1470 043b 8F       		.byte	0x8f
 1471 043c 6D040000 		.4byte	0x46d
 1472 0440 0F       		.uleb128 0xf
 1473 0441 06000000 		.4byte	.LASF68
 1474 0445 06       		.byte	0x6
 1475 0446 96       		.byte	0x96
 1476 0447 E4000000 		.4byte	0xe4
 1477 044b 0F       		.uleb128 0xf
 1478 044c 49000000 		.4byte	.LASF69
 1479 0450 06       		.byte	0x6
 1480 0451 9D       		.byte	0x9d
 1481 0452 E4000000 		.4byte	0xe4
 1482 0456 0F       		.uleb128 0xf
ARM GAS  /tmp/ccXOaafo.s 			page 27


 1483 0457 53040000 		.4byte	.LASF70
 1484 045b 06       		.byte	0x6
 1485 045c A4       		.byte	0xa4
 1486 045d 74020000 		.4byte	0x274
 1487 0461 0F       		.uleb128 0xf
 1488 0462 07030000 		.4byte	.LASF71
 1489 0466 06       		.byte	0x6
 1490 0467 AB       		.byte	0xab
 1491 0468 FA000000 		.4byte	0xfa
 1492 046c 00       		.byte	0
 1493 046d 09       		.uleb128 0x9
 1494 046e 04       		.byte	0x4
 1495 046f 73040000 		.4byte	0x473
 1496 0473 10       		.uleb128 0x10
 1497 0474 78040000 		.4byte	0x478
 1498 0478 03       		.uleb128 0x3
 1499 0479 01       		.byte	0x1
 1500 047a 08       		.byte	0x8
 1501 047b 5A030000 		.4byte	.LASF72
 1502 047f 09       		.uleb128 0x9
 1503 0480 04       		.byte	0x4
 1504 0481 9F030000 		.4byte	0x39f
 1505 0485 03       		.uleb128 0x3
 1506 0486 04       		.byte	0x4
 1507 0487 07       		.byte	0x7
 1508 0488 0D020000 		.4byte	.LASF73
 1509 048c 11       		.uleb128 0x11
 1510 048d 23050000 		.4byte	.LASF94
 1511 0491 01       		.byte	0x1
 1512 0492 F4       		.byte	0xf4
 1513 0493 01       		.byte	0x1
 1514 0494 AE040000 		.4byte	0x4ae
 1515 0498 12       		.uleb128 0x12
 1516 0499 747000   		.ascii	"tp\000"
 1517 049c 01       		.byte	0x1
 1518 049d F4       		.byte	0xf4
 1519 049e 38020000 		.4byte	0x238
 1520 04a2 13       		.uleb128 0x13
 1521 04a3 1A010000 		.4byte	.LASF74
 1522 04a7 01       		.byte	0x1
 1523 04a8 F4       		.byte	0xf4
 1524 04a9 FA000000 		.4byte	0xfa
 1525 04ad 00       		.byte	0
 1526 04ae 14       		.uleb128 0x14
 1527 04af AF010000 		.4byte	.LASF75
 1528 04b3 01       		.byte	0x1
 1529 04b4 4E       		.byte	0x4e
 1530 04b5 00000000 		.4byte	.LFB7
 1531 04b9 38000000 		.4byte	.LFE7-.LFB7
 1532 04bd 01       		.uleb128 0x1
 1533 04be 9C       		.byte	0x9c
 1534 04bf EB040000 		.4byte	0x4eb
 1535 04c3 15       		.uleb128 0x15
 1536 04c4 65737000 		.ascii	"esp\000"
 1537 04c8 01       		.byte	0x1
 1538 04c9 4E       		.byte	0x4e
 1539 04ca EB040000 		.4byte	0x4eb
ARM GAS  /tmp/ccXOaafo.s 			page 28


 1540 04ce 01       		.uleb128 0x1
 1541 04cf 50       		.byte	0x50
 1542 04d0 15       		.uleb128 0x15
 1543 04d1 656C7000 		.ascii	"elp\000"
 1544 04d5 01       		.byte	0x1
 1545 04d6 4E       		.byte	0x4e
 1546 04d7 F2030000 		.4byte	0x3f2
 1547 04db 01       		.uleb128 0x1
 1548 04dc 51       		.byte	0x51
 1549 04dd 16       		.uleb128 0x16
 1550 04de 1A010000 		.4byte	.LASF74
 1551 04e2 01       		.byte	0x1
 1552 04e3 4E       		.byte	0x4e
 1553 04e4 FA000000 		.4byte	0xfa
 1554 04e8 01       		.uleb128 0x1
 1555 04e9 52       		.byte	0x52
 1556 04ea 00       		.byte	0
 1557 04eb 09       		.uleb128 0x9
 1558 04ec 04       		.byte	0x4
 1559 04ed 11040000 		.4byte	0x411
 1560 04f1 14       		.uleb128 0x14
 1561 04f2 D7010000 		.4byte	.LASF76
 1562 04f6 01       		.byte	0x1
 1563 04f7 68       		.byte	0x68
 1564 04f8 00000000 		.4byte	.LFB8
 1565 04fc 3C000000 		.4byte	.LFE8-.LFB8
 1566 0500 01       		.uleb128 0x1
 1567 0501 9C       		.byte	0x9c
 1568 0502 2E050000 		.4byte	0x52e
 1569 0506 15       		.uleb128 0x15
 1570 0507 65737000 		.ascii	"esp\000"
 1571 050b 01       		.byte	0x1
 1572 050c 68       		.byte	0x68
 1573 050d EB040000 		.4byte	0x4eb
 1574 0511 01       		.uleb128 0x1
 1575 0512 50       		.byte	0x50
 1576 0513 15       		.uleb128 0x15
 1577 0514 656C7000 		.ascii	"elp\000"
 1578 0518 01       		.byte	0x1
 1579 0519 68       		.byte	0x68
 1580 051a F2030000 		.4byte	0x3f2
 1581 051e 01       		.uleb128 0x1
 1582 051f 51       		.byte	0x51
 1583 0520 17       		.uleb128 0x17
 1584 0521 7000     		.ascii	"p\000"
 1585 0523 01       		.byte	0x1
 1586 0524 69       		.byte	0x69
 1587 0525 F2030000 		.4byte	0x3f2
 1588 0529 00000000 		.4byte	.LLST0
 1589 052d 00       		.byte	0
 1590 052e 18       		.uleb128 0x18
 1591 052f 7D010000 		.4byte	.LASF77
 1592 0533 01       		.byte	0x1
 1593 0534 81       		.byte	0x81
 1594 0535 FA000000 		.4byte	0xfa
 1595 0539 00000000 		.4byte	.LFB9
 1596 053d 28000000 		.4byte	.LFE9-.LFB9
ARM GAS  /tmp/ccXOaafo.s 			page 29


 1597 0541 01       		.uleb128 0x1
 1598 0542 9C       		.byte	0x9c
 1599 0543 64050000 		.4byte	0x564
 1600 0547 19       		.uleb128 0x19
 1601 0548 1A010000 		.4byte	.LASF74
 1602 054c 01       		.byte	0x1
 1603 054d 81       		.byte	0x81
 1604 054e FA000000 		.4byte	0xfa
 1605 0552 1E000000 		.4byte	.LLST1
 1606 0556 17       		.uleb128 0x17
 1607 0557 6D00     		.ascii	"m\000"
 1608 0559 01       		.byte	0x1
 1609 055a 82       		.byte	0x82
 1610 055b FA000000 		.4byte	0xfa
 1611 055f 3F000000 		.4byte	.LLST2
 1612 0563 00       		.byte	0
 1613 0564 18       		.uleb128 0x18
 1614 0565 3A000000 		.4byte	.LASF78
 1615 0569 01       		.byte	0x1
 1616 056a 96       		.byte	0x96
 1617 056b FA000000 		.4byte	0xfa
 1618 056f 00000000 		.4byte	.LFB10
 1619 0573 24000000 		.4byte	.LFE10-.LFB10
 1620 0577 01       		.uleb128 0x1
 1621 0578 9C       		.byte	0x9c
 1622 0579 8D050000 		.4byte	0x58d
 1623 057d 19       		.uleb128 0x19
 1624 057e 1A010000 		.4byte	.LASF74
 1625 0582 01       		.byte	0x1
 1626 0583 96       		.byte	0x96
 1627 0584 FA000000 		.4byte	0xfa
 1628 0588 62000000 		.4byte	.LLST3
 1629 058c 00       		.byte	0
 1630 058d 18       		.uleb128 0x18
 1631 058e F5040000 		.4byte	.LASF79
 1632 0592 01       		.byte	0x1
 1633 0593 CA       		.byte	0xca
 1634 0594 05010000 		.4byte	0x105
 1635 0598 00000000 		.4byte	.LFB12
 1636 059c 1C000000 		.4byte	.LFE12-.LFB12
 1637 05a0 01       		.uleb128 0x1
 1638 05a1 9C       		.byte	0x9c
 1639 05a2 C3050000 		.4byte	0x5c3
 1640 05a6 1A       		.uleb128 0x1a
 1641 05a7 656C7000 		.ascii	"elp\000"
 1642 05ab 01       		.byte	0x1
 1643 05ac CA       		.byte	0xca
 1644 05ad F2030000 		.4byte	0x3f2
 1645 05b1 8E000000 		.4byte	.LLST4
 1646 05b5 1B       		.uleb128 0x1b
 1647 05b6 0C040000 		.4byte	.LASF80
 1648 05ba 01       		.byte	0x1
 1649 05bb CB       		.byte	0xcb
 1650 05bc 05010000 		.4byte	0x105
 1651 05c0 01       		.uleb128 0x1
 1652 05c1 50       		.byte	0x50
 1653 05c2 00       		.byte	0
ARM GAS  /tmp/ccXOaafo.s 			page 30


 1654 05c3 1C       		.uleb128 0x1c
 1655 05c4 8C040000 		.4byte	0x48c
 1656 05c8 00000000 		.4byte	.LFB14
 1657 05cc 54000000 		.4byte	.LFE14-.LFB14
 1658 05d0 01       		.uleb128 0x1
 1659 05d1 9C       		.byte	0x9c
 1660 05d2 16060000 		.4byte	0x616
 1661 05d6 1D       		.uleb128 0x1d
 1662 05d7 98040000 		.4byte	0x498
 1663 05db AC000000 		.4byte	.LLST5
 1664 05df 1D       		.uleb128 0x1d
 1665 05e0 A2040000 		.4byte	0x4a2
 1666 05e4 D8000000 		.4byte	.LLST6
 1667 05e8 1E       		.uleb128 0x1e
 1668 05e9 34000000 		.4byte	.LBB4
 1669 05ed 10000000 		.4byte	.LBE4-.LBB4
 1670 05f1 1D       		.uleb128 0x1d
 1671 05f2 A2040000 		.4byte	0x4a2
 1672 05f6 F9000000 		.4byte	.LLST7
 1673 05fa 1D       		.uleb128 0x1d
 1674 05fb 98040000 		.4byte	0x498
 1675 05ff 0F010000 		.4byte	.LLST8
 1676 0603 1F       		.uleb128 0x1f
 1677 0604 38000000 		.4byte	.LVL15
 1678 0608 CE090000 		.4byte	0x9ce
 1679 060c 20       		.uleb128 0x20
 1680 060d 01       		.uleb128 0x1
 1681 060e 50       		.byte	0x50
 1682 060f 03       		.uleb128 0x3
 1683 0610 F3       		.byte	0xf3
 1684 0611 01       		.uleb128 0x1
 1685 0612 50       		.byte	0x50
 1686 0613 00       		.byte	0
 1687 0614 00       		.byte	0
 1688 0615 00       		.byte	0
 1689 0616 14       		.uleb128 0x14
 1690 0617 E1000000 		.4byte	.LASF81
 1691 061b 01       		.byte	0x1
 1692 061c B1       		.byte	0xb1
 1693 061d 00000000 		.4byte	.LFB11
 1694 0621 40000000 		.4byte	.LFE11-.LFB11
 1695 0625 01       		.uleb128 0x1
 1696 0626 9C       		.byte	0x9c
 1697 0627 60060000 		.4byte	0x660
 1698 062b 1A       		.uleb128 0x1a
 1699 062c 65737000 		.ascii	"esp\000"
 1700 0630 01       		.byte	0x1
 1701 0631 B1       		.byte	0xb1
 1702 0632 EB040000 		.4byte	0x4eb
 1703 0636 30010000 		.4byte	.LLST9
 1704 063a 19       		.uleb128 0x19
 1705 063b 0C040000 		.4byte	.LASF80
 1706 063f 01       		.byte	0x1
 1707 0640 B1       		.byte	0xb1
 1708 0641 05010000 		.4byte	0x105
 1709 0645 4E010000 		.4byte	.LLST10
 1710 0649 21       		.uleb128 0x21
ARM GAS  /tmp/ccXOaafo.s 			page 31


 1711 064a 656C7000 		.ascii	"elp\000"
 1712 064e 01       		.byte	0x1
 1713 064f B2       		.byte	0xb2
 1714 0650 F2030000 		.4byte	0x3f2
 1715 0654 01       		.uleb128 0x1
 1716 0655 54       		.byte	0x54
 1717 0656 22       		.uleb128 0x22
 1718 0657 30000000 		.4byte	.LVL20
 1719 065b 8C040000 		.4byte	0x48c
 1720 065f 00       		.byte	0
 1721 0660 14       		.uleb128 0x14
 1722 0661 17000000 		.4byte	.LASF82
 1723 0665 01       		.byte	0x1
 1724 0666 DE       		.byte	0xde
 1725 0667 00000000 		.4byte	.LFB13
 1726 066b 18000000 		.4byte	.LFE13-.LFB13
 1727 066f 01       		.uleb128 0x1
 1728 0670 9C       		.byte	0x9c
 1729 0671 B8060000 		.4byte	0x6b8
 1730 0675 1A       		.uleb128 0x1a
 1731 0676 747000   		.ascii	"tp\000"
 1732 0679 01       		.byte	0x1
 1733 067a DE       		.byte	0xde
 1734 067b 38020000 		.4byte	0x238
 1735 067f 6C010000 		.4byte	.LLST11
 1736 0683 19       		.uleb128 0x19
 1737 0684 1A010000 		.4byte	.LASF74
 1738 0688 01       		.byte	0x1
 1739 0689 DE       		.byte	0xde
 1740 068a FA000000 		.4byte	0xfa
 1741 068e 8D010000 		.4byte	.LLST12
 1742 0692 23       		.uleb128 0x23
 1743 0693 0C000000 		.4byte	.LVL23
 1744 0697 8C040000 		.4byte	0x48c
 1745 069b AE060000 		.4byte	0x6ae
 1746 069f 20       		.uleb128 0x20
 1747 06a0 01       		.uleb128 0x1
 1748 06a1 51       		.byte	0x51
 1749 06a2 03       		.uleb128 0x3
 1750 06a3 F3       		.byte	0xf3
 1751 06a4 01       		.uleb128 0x1
 1752 06a5 51       		.byte	0x51
 1753 06a6 20       		.uleb128 0x20
 1754 06a7 01       		.uleb128 0x1
 1755 06a8 50       		.byte	0x50
 1756 06a9 03       		.uleb128 0x3
 1757 06aa F3       		.byte	0xf3
 1758 06ab 01       		.uleb128 0x1
 1759 06ac 50       		.byte	0x50
 1760 06ad 00       		.byte	0
 1761 06ae 22       		.uleb128 0x22
 1762 06af 10000000 		.4byte	.LVL24
 1763 06b3 E3090000 		.4byte	0x9e3
 1764 06b7 00       		.byte	0
 1765 06b8 24       		.uleb128 0x24
 1766 06b9 28010000 		.4byte	.LASF83
 1767 06bd 01       		.byte	0x1
ARM GAS  /tmp/ccXOaafo.s 			page 32


 1768 06be 0F01     		.2byte	0x10f
 1769 06c0 00000000 		.4byte	.LFB15
 1770 06c4 18000000 		.4byte	.LFE15-.LFB15
 1771 06c8 01       		.uleb128 0x1
 1772 06c9 9C       		.byte	0x9c
 1773 06ca 14070000 		.4byte	0x714
 1774 06ce 25       		.uleb128 0x25
 1775 06cf 65737000 		.ascii	"esp\000"
 1776 06d3 01       		.byte	0x1
 1777 06d4 0F01     		.2byte	0x10f
 1778 06d6 EB040000 		.4byte	0x4eb
 1779 06da AE010000 		.4byte	.LLST13
 1780 06de 26       		.uleb128 0x26
 1781 06df 0C040000 		.4byte	.LASF80
 1782 06e3 01       		.byte	0x1
 1783 06e4 0F01     		.2byte	0x10f
 1784 06e6 05010000 		.4byte	0x105
 1785 06ea CF010000 		.4byte	.LLST14
 1786 06ee 23       		.uleb128 0x23
 1787 06ef 0C000000 		.4byte	.LVL26
 1788 06f3 16060000 		.4byte	0x616
 1789 06f7 0A070000 		.4byte	0x70a
 1790 06fb 20       		.uleb128 0x20
 1791 06fc 01       		.uleb128 0x1
 1792 06fd 51       		.byte	0x51
 1793 06fe 03       		.uleb128 0x3
 1794 06ff F3       		.byte	0xf3
 1795 0700 01       		.uleb128 0x1
 1796 0701 51       		.byte	0x51
 1797 0702 20       		.uleb128 0x20
 1798 0703 01       		.uleb128 0x1
 1799 0704 50       		.byte	0x50
 1800 0705 03       		.uleb128 0x3
 1801 0706 F3       		.byte	0xf3
 1802 0707 01       		.uleb128 0x1
 1803 0708 50       		.byte	0x50
 1804 0709 00       		.byte	0
 1805 070a 22       		.uleb128 0x22
 1806 070b 10000000 		.4byte	.LVL27
 1807 070f E3090000 		.4byte	0x9e3
 1808 0713 00       		.byte	0
 1809 0714 27       		.uleb128 0x27
 1810 0715 F0020000 		.4byte	.LASF84
 1811 0719 01       		.byte	0x1
 1812 071a 2201     		.2byte	0x122
 1813 071c 05010000 		.4byte	0x105
 1814 0720 00000000 		.4byte	.LFB16
 1815 0724 14000000 		.4byte	.LFE16-.LFB16
 1816 0728 01       		.uleb128 0x1
 1817 0729 9C       		.byte	0x9c
 1818 072a 4D070000 		.4byte	0x74d
 1819 072e 25       		.uleb128 0x25
 1820 072f 656C7000 		.ascii	"elp\000"
 1821 0733 01       		.byte	0x1
 1822 0734 2201     		.2byte	0x122
 1823 0736 F2030000 		.4byte	0x3f2
 1824 073a F0010000 		.4byte	.LLST15
ARM GAS  /tmp/ccXOaafo.s 			page 33


 1825 073e 28       		.uleb128 0x28
 1826 073f 0C040000 		.4byte	.LASF80
 1827 0743 01       		.byte	0x1
 1828 0744 2301     		.2byte	0x123
 1829 0746 05010000 		.4byte	0x105
 1830 074a 01       		.uleb128 0x1
 1831 074b 50       		.byte	0x50
 1832 074c 00       		.byte	0
 1833 074d 24       		.uleb128 0x24
 1834 074e 16020000 		.4byte	.LASF85
 1835 0752 01       		.byte	0x1
 1836 0753 3401     		.2byte	0x134
 1837 0755 00000000 		.4byte	.LFB17
 1838 0759 48000000 		.4byte	.LFE17-.LFB17
 1839 075d 01       		.uleb128 0x1
 1840 075e 9C       		.byte	0x9c
 1841 075f A0070000 		.4byte	0x7a0
 1842 0763 26       		.uleb128 0x26
 1843 0764 6B020000 		.4byte	.LASF86
 1844 0768 01       		.byte	0x1
 1845 0769 3401     		.2byte	0x134
 1846 076b A0070000 		.4byte	0x7a0
 1847 076f 0E020000 		.4byte	.LLST16
 1848 0773 26       		.uleb128 0x26
 1849 0774 1A010000 		.4byte	.LASF74
 1850 0778 01       		.byte	0x1
 1851 0779 3401     		.2byte	0x134
 1852 077b FA000000 		.4byte	0xfa
 1853 077f 2C020000 		.4byte	.LLST17
 1854 0783 29       		.uleb128 0x29
 1855 0784 65696400 		.ascii	"eid\000"
 1856 0788 01       		.byte	0x1
 1857 0789 3501     		.2byte	0x135
 1858 078b EF000000 		.4byte	0xef
 1859 078f 4A020000 		.4byte	.LLST18
 1860 0793 2A       		.uleb128 0x2a
 1861 0794 38000000 		.4byte	.LVL34
 1862 0798 20       		.uleb128 0x20
 1863 0799 01       		.uleb128 0x1
 1864 079a 50       		.byte	0x50
 1865 079b 02       		.uleb128 0x2
 1866 079c 74       		.byte	0x74
 1867 079d 00       		.sleb128 0
 1868 079e 00       		.byte	0
 1869 079f 00       		.byte	0
 1870 07a0 09       		.uleb128 0x9
 1871 07a1 04       		.byte	0x4
 1872 07a2 A6070000 		.4byte	0x7a6
 1873 07a6 10       		.uleb128 0x10
 1874 07a7 1C040000 		.4byte	0x41c
 1875 07ab 27       		.uleb128 0x27
 1876 07ac A1020000 		.4byte	.LASF87
 1877 07b0 01       		.byte	0x1
 1878 07b1 5701     		.2byte	0x157
 1879 07b3 FA000000 		.4byte	0xfa
 1880 07b7 00000000 		.4byte	.LFB18
 1881 07bb 50000000 		.4byte	.LFE18-.LFB18
ARM GAS  /tmp/ccXOaafo.s 			page 34


 1882 07bf 01       		.uleb128 0x1
 1883 07c0 9C       		.byte	0x9c
 1884 07c1 01080000 		.4byte	0x801
 1885 07c5 26       		.uleb128 0x26
 1886 07c6 1A010000 		.4byte	.LASF74
 1887 07ca 01       		.byte	0x1
 1888 07cb 5701     		.2byte	0x157
 1889 07cd FA000000 		.4byte	0xfa
 1890 07d1 74020000 		.4byte	.LLST19
 1891 07d5 2B       		.uleb128 0x2b
 1892 07d6 63747000 		.ascii	"ctp\000"
 1893 07da 01       		.byte	0x1
 1894 07db 5801     		.2byte	0x158
 1895 07dd 38020000 		.4byte	0x238
 1896 07e1 01       		.uleb128 0x1
 1897 07e2 55       		.byte	0x55
 1898 07e3 29       		.uleb128 0x29
 1899 07e4 6D00     		.ascii	"m\000"
 1900 07e6 01       		.byte	0x1
 1901 07e7 5901     		.2byte	0x159
 1902 07e9 FA000000 		.4byte	0xfa
 1903 07ed A0020000 		.4byte	.LLST20
 1904 07f1 1F       		.uleb128 0x1f
 1905 07f2 2C000000 		.4byte	.LVL41
 1906 07f6 EA090000 		.4byte	0x9ea
 1907 07fa 20       		.uleb128 0x20
 1908 07fb 01       		.uleb128 0x1
 1909 07fc 50       		.byte	0x50
 1910 07fd 01       		.uleb128 0x1
 1911 07fe 38       		.byte	0x38
 1912 07ff 00       		.byte	0
 1913 0800 00       		.byte	0
 1914 0801 27       		.uleb128 0x27
 1915 0802 BF000000 		.4byte	.LASF88
 1916 0806 01       		.byte	0x1
 1917 0807 7401     		.2byte	0x174
 1918 0809 FA000000 		.4byte	0xfa
 1919 080d 00000000 		.4byte	.LFB19
 1920 0811 4C000000 		.4byte	.LFE19-.LFB19
 1921 0815 01       		.uleb128 0x1
 1922 0816 9C       		.byte	0x9c
 1923 0817 57080000 		.4byte	0x857
 1924 081b 26       		.uleb128 0x26
 1925 081c 1A010000 		.4byte	.LASF74
 1926 0820 01       		.byte	0x1
 1927 0821 7401     		.2byte	0x174
 1928 0823 FA000000 		.4byte	0xfa
 1929 0827 D9020000 		.4byte	.LLST21
 1930 082b 2B       		.uleb128 0x2b
 1931 082c 63747000 		.ascii	"ctp\000"
 1932 0830 01       		.byte	0x1
 1933 0831 7501     		.2byte	0x175
 1934 0833 38020000 		.4byte	0x238
 1935 0837 01       		.uleb128 0x1
 1936 0838 55       		.byte	0x55
 1937 0839 29       		.uleb128 0x29
 1938 083a 6D00     		.ascii	"m\000"
ARM GAS  /tmp/ccXOaafo.s 			page 35


 1939 083c 01       		.byte	0x1
 1940 083d 7601     		.2byte	0x176
 1941 083f FA000000 		.4byte	0xfa
 1942 0843 05030000 		.4byte	.LLST22
 1943 0847 1F       		.uleb128 0x1f
 1944 0848 2C000000 		.4byte	.LVL50
 1945 084c EA090000 		.4byte	0x9ea
 1946 0850 20       		.uleb128 0x20
 1947 0851 01       		.uleb128 0x1
 1948 0852 50       		.byte	0x50
 1949 0853 01       		.uleb128 0x1
 1950 0854 38       		.byte	0x38
 1951 0855 00       		.byte	0
 1952 0856 00       		.byte	0
 1953 0857 27       		.uleb128 0x27
 1954 0858 44020000 		.4byte	.LASF89
 1955 085c 01       		.byte	0x1
 1956 085d 9001     		.2byte	0x190
 1957 085f FA000000 		.4byte	0xfa
 1958 0863 00000000 		.4byte	.LFB20
 1959 0867 4C000000 		.4byte	.LFE20-.LFB20
 1960 086b 01       		.uleb128 0x1
 1961 086c 9C       		.byte	0x9c
 1962 086d 9F080000 		.4byte	0x89f
 1963 0871 26       		.uleb128 0x26
 1964 0872 1A010000 		.4byte	.LASF74
 1965 0876 01       		.byte	0x1
 1966 0877 9001     		.2byte	0x190
 1967 0879 FA000000 		.4byte	0xfa
 1968 087d 53030000 		.4byte	.LLST23
 1969 0881 2B       		.uleb128 0x2b
 1970 0882 63747000 		.ascii	"ctp\000"
 1971 0886 01       		.byte	0x1
 1972 0887 9101     		.2byte	0x191
 1973 0889 38020000 		.4byte	0x238
 1974 088d 01       		.uleb128 0x1
 1975 088e 55       		.byte	0x55
 1976 088f 1F       		.uleb128 0x1f
 1977 0890 30000000 		.4byte	.LVL55
 1978 0894 EA090000 		.4byte	0x9ea
 1979 0898 20       		.uleb128 0x20
 1980 0899 01       		.uleb128 0x1
 1981 089a 50       		.byte	0x50
 1982 089b 01       		.uleb128 0x1
 1983 089c 39       		.byte	0x39
 1984 089d 00       		.byte	0
 1985 089e 00       		.byte	0
 1986 089f 27       		.uleb128 0x27
 1987 08a0 3F040000 		.4byte	.LASF90
 1988 08a4 01       		.byte	0x1
 1989 08a5 B701     		.2byte	0x1b7
 1990 08a7 FA000000 		.4byte	0xfa
 1991 08ab 00000000 		.4byte	.LFB21
 1992 08af 78000000 		.4byte	.LFE21-.LFB21
 1993 08b3 01       		.uleb128 0x1
 1994 08b4 9C       		.byte	0x9c
 1995 08b5 05090000 		.4byte	0x905
ARM GAS  /tmp/ccXOaafo.s 			page 36


 1996 08b9 26       		.uleb128 0x26
 1997 08ba 1A010000 		.4byte	.LASF74
 1998 08be 01       		.byte	0x1
 1999 08bf B701     		.2byte	0x1b7
 2000 08c1 FA000000 		.4byte	0xfa
 2001 08c5 71030000 		.4byte	.LLST24
 2002 08c9 26       		.uleb128 0x26
 2003 08ca 3F020000 		.4byte	.LASF91
 2004 08ce 01       		.byte	0x1
 2005 08cf B701     		.2byte	0x1b7
 2006 08d1 10010000 		.4byte	0x110
 2007 08d5 C1030000 		.4byte	.LLST25
 2008 08d9 2B       		.uleb128 0x2b
 2009 08da 63747000 		.ascii	"ctp\000"
 2010 08de 01       		.byte	0x1
 2011 08df B801     		.2byte	0x1b8
 2012 08e1 38020000 		.4byte	0x238
 2013 08e5 01       		.uleb128 0x1
 2014 08e6 55       		.byte	0x55
 2015 08e7 29       		.uleb128 0x29
 2016 08e8 6D00     		.ascii	"m\000"
 2017 08ea 01       		.byte	0x1
 2018 08eb B901     		.2byte	0x1b9
 2019 08ed FA000000 		.4byte	0xfa
 2020 08f1 E2030000 		.4byte	.LLST26
 2021 08f5 1F       		.uleb128 0x1f
 2022 08f6 40000000 		.4byte	.LVL63
 2023 08fa FB090000 		.4byte	0x9fb
 2024 08fe 20       		.uleb128 0x20
 2025 08ff 01       		.uleb128 0x1
 2026 0900 50       		.byte	0x50
 2027 0901 01       		.uleb128 0x1
 2028 0902 38       		.byte	0x38
 2029 0903 00       		.byte	0
 2030 0904 00       		.byte	0
 2031 0905 27       		.uleb128 0x27
 2032 0906 52000000 		.4byte	.LASF92
 2033 090a 01       		.byte	0x1
 2034 090b E201     		.2byte	0x1e2
 2035 090d FA000000 		.4byte	0xfa
 2036 0911 00000000 		.4byte	.LFB22
 2037 0915 68000000 		.4byte	.LFE22-.LFB22
 2038 0919 01       		.uleb128 0x1
 2039 091a 9C       		.byte	0x9c
 2040 091b 6B090000 		.4byte	0x96b
 2041 091f 26       		.uleb128 0x26
 2042 0920 1A010000 		.4byte	.LASF74
 2043 0924 01       		.byte	0x1
 2044 0925 E201     		.2byte	0x1e2
 2045 0927 FA000000 		.4byte	0xfa
 2046 092b 1B040000 		.4byte	.LLST27
 2047 092f 26       		.uleb128 0x26
 2048 0930 3F020000 		.4byte	.LASF91
 2049 0934 01       		.byte	0x1
 2050 0935 E201     		.2byte	0x1e2
 2051 0937 10010000 		.4byte	0x110
 2052 093b 60040000 		.4byte	.LLST28
ARM GAS  /tmp/ccXOaafo.s 			page 37


 2053 093f 2B       		.uleb128 0x2b
 2054 0940 63747000 		.ascii	"ctp\000"
 2055 0944 01       		.byte	0x1
 2056 0945 E301     		.2byte	0x1e3
 2057 0947 38020000 		.4byte	0x238
 2058 094b 01       		.uleb128 0x1
 2059 094c 56       		.byte	0x56
 2060 094d 29       		.uleb128 0x29
 2061 094e 6D00     		.ascii	"m\000"
 2062 0950 01       		.byte	0x1
 2063 0951 E401     		.2byte	0x1e4
 2064 0953 FA000000 		.4byte	0xfa
 2065 0957 81040000 		.4byte	.LLST29
 2066 095b 1F       		.uleb128 0x1f
 2067 095c 40000000 		.4byte	.LVL74
 2068 0960 FB090000 		.4byte	0x9fb
 2069 0964 20       		.uleb128 0x20
 2070 0965 01       		.uleb128 0x1
 2071 0966 50       		.byte	0x50
 2072 0967 01       		.uleb128 0x1
 2073 0968 38       		.byte	0x38
 2074 0969 00       		.byte	0
 2075 096a 00       		.byte	0
 2076 096b 27       		.uleb128 0x27
 2077 096c 87000000 		.4byte	.LASF93
 2078 0970 01       		.byte	0x1
 2079 0971 0B02     		.2byte	0x20b
 2080 0973 FA000000 		.4byte	0xfa
 2081 0977 00000000 		.4byte	.LFB23
 2082 097b 74000000 		.4byte	.LFE23-.LFB23
 2083 097f 01       		.uleb128 0x1
 2084 0980 9C       		.byte	0x9c
 2085 0981 C3090000 		.4byte	0x9c3
 2086 0985 26       		.uleb128 0x26
 2087 0986 1A010000 		.4byte	.LASF74
 2088 098a 01       		.byte	0x1
 2089 098b 0B02     		.2byte	0x20b
 2090 098d FA000000 		.4byte	0xfa
 2091 0991 A4040000 		.4byte	.LLST30
 2092 0995 26       		.uleb128 0x26
 2093 0996 3F020000 		.4byte	.LASF91
 2094 099a 01       		.byte	0x1
 2095 099b 0B02     		.2byte	0x20b
 2096 099d 10010000 		.4byte	0x110
 2097 09a1 C2040000 		.4byte	.LLST31
 2098 09a5 2B       		.uleb128 0x2b
 2099 09a6 63747000 		.ascii	"ctp\000"
 2100 09aa 01       		.byte	0x1
 2101 09ab 0C02     		.2byte	0x20c
 2102 09ad 38020000 		.4byte	0x238
 2103 09b1 01       		.uleb128 0x1
 2104 09b2 55       		.byte	0x55
 2105 09b3 1F       		.uleb128 0x1f
 2106 09b4 44000000 		.4byte	.LVL79
 2107 09b8 FB090000 		.4byte	0x9fb
 2108 09bc 20       		.uleb128 0x20
 2109 09bd 01       		.uleb128 0x1
ARM GAS  /tmp/ccXOaafo.s 			page 38


 2110 09be 50       		.byte	0x50
 2111 09bf 01       		.uleb128 0x1
 2112 09c0 39       		.byte	0x39
 2113 09c1 00       		.byte	0
 2114 09c2 00       		.byte	0
 2115 09c3 2C       		.uleb128 0x2c
 2116 09c4 FE030000 		.4byte	.LASF100
 2117 09c8 08       		.byte	0x8
 2118 09c9 68       		.byte	0x68
 2119 09ca 5D030000 		.4byte	0x35d
 2120 09ce 2D       		.uleb128 0x2d
 2121 09cf 4E030000 		.4byte	.LASF101
 2122 09d3 08       		.byte	0x8
 2123 09d4 89       		.byte	0x89
 2124 09d5 38020000 		.4byte	0x238
 2125 09d9 E3090000 		.4byte	0x9e3
 2126 09dd 0D       		.uleb128 0xd
 2127 09de 38020000 		.4byte	0x238
 2128 09e2 00       		.byte	0
 2129 09e3 2E       		.uleb128 0x2e
 2130 09e4 FE000000 		.4byte	.LASF102
 2131 09e8 08       		.byte	0x8
 2132 09e9 95       		.byte	0x95
 2133 09ea 2F       		.uleb128 0x2f
 2134 09eb 24030000 		.4byte	.LASF95
 2135 09ef 08       		.byte	0x8
 2136 09f0 8C       		.byte	0x8c
 2137 09f1 FB090000 		.4byte	0x9fb
 2138 09f5 0D       		.uleb128 0xd
 2139 09f6 B8000000 		.4byte	0xb8
 2140 09fa 00       		.byte	0
 2141 09fb 30       		.uleb128 0x30
 2142 09fc CC000000 		.4byte	.LASF96
 2143 0a00 08       		.byte	0x8
 2144 0a01 8F       		.byte	0x8f
 2145 0a02 E4000000 		.4byte	0xe4
 2146 0a06 0D       		.uleb128 0xd
 2147 0a07 B8000000 		.4byte	0xb8
 2148 0a0b 0D       		.uleb128 0xd
 2149 0a0c 10010000 		.4byte	0x110
 2150 0a10 00       		.byte	0
 2151 0a11 00       		.byte	0
 2152              		.section	.debug_abbrev,"",%progbits
 2153              	.Ldebug_abbrev0:
 2154 0000 01       		.uleb128 0x1
 2155 0001 11       		.uleb128 0x11
 2156 0002 01       		.byte	0x1
 2157 0003 25       		.uleb128 0x25
 2158 0004 0E       		.uleb128 0xe
 2159 0005 13       		.uleb128 0x13
 2160 0006 0B       		.uleb128 0xb
 2161 0007 03       		.uleb128 0x3
 2162 0008 0E       		.uleb128 0xe
 2163 0009 1B       		.uleb128 0x1b
 2164 000a 0E       		.uleb128 0xe
 2165 000b 55       		.uleb128 0x55
 2166 000c 17       		.uleb128 0x17
ARM GAS  /tmp/ccXOaafo.s 			page 39


 2167 000d 11       		.uleb128 0x11
 2168 000e 01       		.uleb128 0x1
 2169 000f 10       		.uleb128 0x10
 2170 0010 17       		.uleb128 0x17
 2171 0011 00       		.byte	0
 2172 0012 00       		.byte	0
 2173 0013 02       		.uleb128 0x2
 2174 0014 24       		.uleb128 0x24
 2175 0015 00       		.byte	0
 2176 0016 0B       		.uleb128 0xb
 2177 0017 0B       		.uleb128 0xb
 2178 0018 3E       		.uleb128 0x3e
 2179 0019 0B       		.uleb128 0xb
 2180 001a 03       		.uleb128 0x3
 2181 001b 08       		.uleb128 0x8
 2182 001c 00       		.byte	0
 2183 001d 00       		.byte	0
 2184 001e 03       		.uleb128 0x3
 2185 001f 24       		.uleb128 0x24
 2186 0020 00       		.byte	0
 2187 0021 0B       		.uleb128 0xb
 2188 0022 0B       		.uleb128 0xb
 2189 0023 3E       		.uleb128 0x3e
 2190 0024 0B       		.uleb128 0xb
 2191 0025 03       		.uleb128 0x3
 2192 0026 0E       		.uleb128 0xe
 2193 0027 00       		.byte	0
 2194 0028 00       		.byte	0
 2195 0029 04       		.uleb128 0x4
 2196 002a 16       		.uleb128 0x16
 2197 002b 00       		.byte	0
 2198 002c 03       		.uleb128 0x3
 2199 002d 0E       		.uleb128 0xe
 2200 002e 3A       		.uleb128 0x3a
 2201 002f 0B       		.uleb128 0xb
 2202 0030 3B       		.uleb128 0x3b
 2203 0031 0B       		.uleb128 0xb
 2204 0032 49       		.uleb128 0x49
 2205 0033 13       		.uleb128 0x13
 2206 0034 00       		.byte	0
 2207 0035 00       		.byte	0
 2208 0036 05       		.uleb128 0x5
 2209 0037 13       		.uleb128 0x13
 2210 0038 01       		.byte	0x1
 2211 0039 03       		.uleb128 0x3
 2212 003a 0E       		.uleb128 0xe
 2213 003b 0B       		.uleb128 0xb
 2214 003c 0B       		.uleb128 0xb
 2215 003d 3A       		.uleb128 0x3a
 2216 003e 0B       		.uleb128 0xb
 2217 003f 3B       		.uleb128 0x3b
 2218 0040 0B       		.uleb128 0xb
 2219 0041 01       		.uleb128 0x1
 2220 0042 13       		.uleb128 0x13
 2221 0043 00       		.byte	0
 2222 0044 00       		.byte	0
 2223 0045 06       		.uleb128 0x6
ARM GAS  /tmp/ccXOaafo.s 			page 40


 2224 0046 0D       		.uleb128 0xd
 2225 0047 00       		.byte	0
 2226 0048 03       		.uleb128 0x3
 2227 0049 0E       		.uleb128 0xe
 2228 004a 3A       		.uleb128 0x3a
 2229 004b 0B       		.uleb128 0xb
 2230 004c 3B       		.uleb128 0x3b
 2231 004d 0B       		.uleb128 0xb
 2232 004e 49       		.uleb128 0x49
 2233 004f 13       		.uleb128 0x13
 2234 0050 38       		.uleb128 0x38
 2235 0051 0B       		.uleb128 0xb
 2236 0052 00       		.byte	0
 2237 0053 00       		.byte	0
 2238 0054 07       		.uleb128 0x7
 2239 0055 0D       		.uleb128 0xd
 2240 0056 00       		.byte	0
 2241 0057 03       		.uleb128 0x3
 2242 0058 08       		.uleb128 0x8
 2243 0059 3A       		.uleb128 0x3a
 2244 005a 0B       		.uleb128 0xb
 2245 005b 3B       		.uleb128 0x3b
 2246 005c 0B       		.uleb128 0xb
 2247 005d 49       		.uleb128 0x49
 2248 005e 13       		.uleb128 0x13
 2249 005f 38       		.uleb128 0x38
 2250 0060 0B       		.uleb128 0xb
 2251 0061 00       		.byte	0
 2252 0062 00       		.byte	0
 2253 0063 08       		.uleb128 0x8
 2254 0064 13       		.uleb128 0x13
 2255 0065 01       		.byte	0x1
 2256 0066 0B       		.uleb128 0xb
 2257 0067 0B       		.uleb128 0xb
 2258 0068 3A       		.uleb128 0x3a
 2259 0069 0B       		.uleb128 0xb
 2260 006a 3B       		.uleb128 0x3b
 2261 006b 0B       		.uleb128 0xb
 2262 006c 01       		.uleb128 0x1
 2263 006d 13       		.uleb128 0x13
 2264 006e 00       		.byte	0
 2265 006f 00       		.byte	0
 2266 0070 09       		.uleb128 0x9
 2267 0071 0F       		.uleb128 0xf
 2268 0072 00       		.byte	0
 2269 0073 0B       		.uleb128 0xb
 2270 0074 0B       		.uleb128 0xb
 2271 0075 49       		.uleb128 0x49
 2272 0076 13       		.uleb128 0x13
 2273 0077 00       		.byte	0
 2274 0078 00       		.byte	0
 2275 0079 0A       		.uleb128 0xa
 2276 007a 0F       		.uleb128 0xf
 2277 007b 00       		.byte	0
 2278 007c 0B       		.uleb128 0xb
 2279 007d 0B       		.uleb128 0xb
 2280 007e 00       		.byte	0
ARM GAS  /tmp/ccXOaafo.s 			page 41


 2281 007f 00       		.byte	0
 2282 0080 0B       		.uleb128 0xb
 2283 0081 35       		.uleb128 0x35
 2284 0082 00       		.byte	0
 2285 0083 49       		.uleb128 0x49
 2286 0084 13       		.uleb128 0x13
 2287 0085 00       		.byte	0
 2288 0086 00       		.byte	0
 2289 0087 0C       		.uleb128 0xc
 2290 0088 15       		.uleb128 0x15
 2291 0089 01       		.byte	0x1
 2292 008a 27       		.uleb128 0x27
 2293 008b 19       		.uleb128 0x19
 2294 008c 01       		.uleb128 0x1
 2295 008d 13       		.uleb128 0x13
 2296 008e 00       		.byte	0
 2297 008f 00       		.byte	0
 2298 0090 0D       		.uleb128 0xd
 2299 0091 05       		.uleb128 0x5
 2300 0092 00       		.byte	0
 2301 0093 49       		.uleb128 0x49
 2302 0094 13       		.uleb128 0x13
 2303 0095 00       		.byte	0
 2304 0096 00       		.byte	0
 2305 0097 0E       		.uleb128 0xe
 2306 0098 17       		.uleb128 0x17
 2307 0099 01       		.byte	0x1
 2308 009a 0B       		.uleb128 0xb
 2309 009b 0B       		.uleb128 0xb
 2310 009c 3A       		.uleb128 0x3a
 2311 009d 0B       		.uleb128 0xb
 2312 009e 3B       		.uleb128 0x3b
 2313 009f 0B       		.uleb128 0xb
 2314 00a0 01       		.uleb128 0x1
 2315 00a1 13       		.uleb128 0x13
 2316 00a2 00       		.byte	0
 2317 00a3 00       		.byte	0
 2318 00a4 0F       		.uleb128 0xf
 2319 00a5 0D       		.uleb128 0xd
 2320 00a6 00       		.byte	0
 2321 00a7 03       		.uleb128 0x3
 2322 00a8 0E       		.uleb128 0xe
 2323 00a9 3A       		.uleb128 0x3a
 2324 00aa 0B       		.uleb128 0xb
 2325 00ab 3B       		.uleb128 0x3b
 2326 00ac 0B       		.uleb128 0xb
 2327 00ad 49       		.uleb128 0x49
 2328 00ae 13       		.uleb128 0x13
 2329 00af 00       		.byte	0
 2330 00b0 00       		.byte	0
 2331 00b1 10       		.uleb128 0x10
 2332 00b2 26       		.uleb128 0x26
 2333 00b3 00       		.byte	0
 2334 00b4 49       		.uleb128 0x49
 2335 00b5 13       		.uleb128 0x13
 2336 00b6 00       		.byte	0
 2337 00b7 00       		.byte	0
ARM GAS  /tmp/ccXOaafo.s 			page 42


 2338 00b8 11       		.uleb128 0x11
 2339 00b9 2E       		.uleb128 0x2e
 2340 00ba 01       		.byte	0x1
 2341 00bb 3F       		.uleb128 0x3f
 2342 00bc 19       		.uleb128 0x19
 2343 00bd 03       		.uleb128 0x3
 2344 00be 0E       		.uleb128 0xe
 2345 00bf 3A       		.uleb128 0x3a
 2346 00c0 0B       		.uleb128 0xb
 2347 00c1 3B       		.uleb128 0x3b
 2348 00c2 0B       		.uleb128 0xb
 2349 00c3 27       		.uleb128 0x27
 2350 00c4 19       		.uleb128 0x19
 2351 00c5 20       		.uleb128 0x20
 2352 00c6 0B       		.uleb128 0xb
 2353 00c7 01       		.uleb128 0x1
 2354 00c8 13       		.uleb128 0x13
 2355 00c9 00       		.byte	0
 2356 00ca 00       		.byte	0
 2357 00cb 12       		.uleb128 0x12
 2358 00cc 05       		.uleb128 0x5
 2359 00cd 00       		.byte	0
 2360 00ce 03       		.uleb128 0x3
 2361 00cf 08       		.uleb128 0x8
 2362 00d0 3A       		.uleb128 0x3a
 2363 00d1 0B       		.uleb128 0xb
 2364 00d2 3B       		.uleb128 0x3b
 2365 00d3 0B       		.uleb128 0xb
 2366 00d4 49       		.uleb128 0x49
 2367 00d5 13       		.uleb128 0x13
 2368 00d6 00       		.byte	0
 2369 00d7 00       		.byte	0
 2370 00d8 13       		.uleb128 0x13
 2371 00d9 05       		.uleb128 0x5
 2372 00da 00       		.byte	0
 2373 00db 03       		.uleb128 0x3
 2374 00dc 0E       		.uleb128 0xe
 2375 00dd 3A       		.uleb128 0x3a
 2376 00de 0B       		.uleb128 0xb
 2377 00df 3B       		.uleb128 0x3b
 2378 00e0 0B       		.uleb128 0xb
 2379 00e1 49       		.uleb128 0x49
 2380 00e2 13       		.uleb128 0x13
 2381 00e3 00       		.byte	0
 2382 00e4 00       		.byte	0
 2383 00e5 14       		.uleb128 0x14
 2384 00e6 2E       		.uleb128 0x2e
 2385 00e7 01       		.byte	0x1
 2386 00e8 3F       		.uleb128 0x3f
 2387 00e9 19       		.uleb128 0x19
 2388 00ea 03       		.uleb128 0x3
 2389 00eb 0E       		.uleb128 0xe
 2390 00ec 3A       		.uleb128 0x3a
 2391 00ed 0B       		.uleb128 0xb
 2392 00ee 3B       		.uleb128 0x3b
 2393 00ef 0B       		.uleb128 0xb
 2394 00f0 27       		.uleb128 0x27
ARM GAS  /tmp/ccXOaafo.s 			page 43


 2395 00f1 19       		.uleb128 0x19
 2396 00f2 11       		.uleb128 0x11
 2397 00f3 01       		.uleb128 0x1
 2398 00f4 12       		.uleb128 0x12
 2399 00f5 06       		.uleb128 0x6
 2400 00f6 40       		.uleb128 0x40
 2401 00f7 18       		.uleb128 0x18
 2402 00f8 9742     		.uleb128 0x2117
 2403 00fa 19       		.uleb128 0x19
 2404 00fb 01       		.uleb128 0x1
 2405 00fc 13       		.uleb128 0x13
 2406 00fd 00       		.byte	0
 2407 00fe 00       		.byte	0
 2408 00ff 15       		.uleb128 0x15
 2409 0100 05       		.uleb128 0x5
 2410 0101 00       		.byte	0
 2411 0102 03       		.uleb128 0x3
 2412 0103 08       		.uleb128 0x8
 2413 0104 3A       		.uleb128 0x3a
 2414 0105 0B       		.uleb128 0xb
 2415 0106 3B       		.uleb128 0x3b
 2416 0107 0B       		.uleb128 0xb
 2417 0108 49       		.uleb128 0x49
 2418 0109 13       		.uleb128 0x13
 2419 010a 02       		.uleb128 0x2
 2420 010b 18       		.uleb128 0x18
 2421 010c 00       		.byte	0
 2422 010d 00       		.byte	0
 2423 010e 16       		.uleb128 0x16
 2424 010f 05       		.uleb128 0x5
 2425 0110 00       		.byte	0
 2426 0111 03       		.uleb128 0x3
 2427 0112 0E       		.uleb128 0xe
 2428 0113 3A       		.uleb128 0x3a
 2429 0114 0B       		.uleb128 0xb
 2430 0115 3B       		.uleb128 0x3b
 2431 0116 0B       		.uleb128 0xb
 2432 0117 49       		.uleb128 0x49
 2433 0118 13       		.uleb128 0x13
 2434 0119 02       		.uleb128 0x2
 2435 011a 18       		.uleb128 0x18
 2436 011b 00       		.byte	0
 2437 011c 00       		.byte	0
 2438 011d 17       		.uleb128 0x17
 2439 011e 34       		.uleb128 0x34
 2440 011f 00       		.byte	0
 2441 0120 03       		.uleb128 0x3
 2442 0121 08       		.uleb128 0x8
 2443 0122 3A       		.uleb128 0x3a
 2444 0123 0B       		.uleb128 0xb
 2445 0124 3B       		.uleb128 0x3b
 2446 0125 0B       		.uleb128 0xb
 2447 0126 49       		.uleb128 0x49
 2448 0127 13       		.uleb128 0x13
 2449 0128 02       		.uleb128 0x2
 2450 0129 17       		.uleb128 0x17
 2451 012a 00       		.byte	0
ARM GAS  /tmp/ccXOaafo.s 			page 44


 2452 012b 00       		.byte	0
 2453 012c 18       		.uleb128 0x18
 2454 012d 2E       		.uleb128 0x2e
 2455 012e 01       		.byte	0x1
 2456 012f 3F       		.uleb128 0x3f
 2457 0130 19       		.uleb128 0x19
 2458 0131 03       		.uleb128 0x3
 2459 0132 0E       		.uleb128 0xe
 2460 0133 3A       		.uleb128 0x3a
 2461 0134 0B       		.uleb128 0xb
 2462 0135 3B       		.uleb128 0x3b
 2463 0136 0B       		.uleb128 0xb
 2464 0137 27       		.uleb128 0x27
 2465 0138 19       		.uleb128 0x19
 2466 0139 49       		.uleb128 0x49
 2467 013a 13       		.uleb128 0x13
 2468 013b 11       		.uleb128 0x11
 2469 013c 01       		.uleb128 0x1
 2470 013d 12       		.uleb128 0x12
 2471 013e 06       		.uleb128 0x6
 2472 013f 40       		.uleb128 0x40
 2473 0140 18       		.uleb128 0x18
 2474 0141 9742     		.uleb128 0x2117
 2475 0143 19       		.uleb128 0x19
 2476 0144 01       		.uleb128 0x1
 2477 0145 13       		.uleb128 0x13
 2478 0146 00       		.byte	0
 2479 0147 00       		.byte	0
 2480 0148 19       		.uleb128 0x19
 2481 0149 05       		.uleb128 0x5
 2482 014a 00       		.byte	0
 2483 014b 03       		.uleb128 0x3
 2484 014c 0E       		.uleb128 0xe
 2485 014d 3A       		.uleb128 0x3a
 2486 014e 0B       		.uleb128 0xb
 2487 014f 3B       		.uleb128 0x3b
 2488 0150 0B       		.uleb128 0xb
 2489 0151 49       		.uleb128 0x49
 2490 0152 13       		.uleb128 0x13
 2491 0153 02       		.uleb128 0x2
 2492 0154 17       		.uleb128 0x17
 2493 0155 00       		.byte	0
 2494 0156 00       		.byte	0
 2495 0157 1A       		.uleb128 0x1a
 2496 0158 05       		.uleb128 0x5
 2497 0159 00       		.byte	0
 2498 015a 03       		.uleb128 0x3
 2499 015b 08       		.uleb128 0x8
 2500 015c 3A       		.uleb128 0x3a
 2501 015d 0B       		.uleb128 0xb
 2502 015e 3B       		.uleb128 0x3b
 2503 015f 0B       		.uleb128 0xb
 2504 0160 49       		.uleb128 0x49
 2505 0161 13       		.uleb128 0x13
 2506 0162 02       		.uleb128 0x2
 2507 0163 17       		.uleb128 0x17
 2508 0164 00       		.byte	0
ARM GAS  /tmp/ccXOaafo.s 			page 45


 2509 0165 00       		.byte	0
 2510 0166 1B       		.uleb128 0x1b
 2511 0167 34       		.uleb128 0x34
 2512 0168 00       		.byte	0
 2513 0169 03       		.uleb128 0x3
 2514 016a 0E       		.uleb128 0xe
 2515 016b 3A       		.uleb128 0x3a
 2516 016c 0B       		.uleb128 0xb
 2517 016d 3B       		.uleb128 0x3b
 2518 016e 0B       		.uleb128 0xb
 2519 016f 49       		.uleb128 0x49
 2520 0170 13       		.uleb128 0x13
 2521 0171 02       		.uleb128 0x2
 2522 0172 18       		.uleb128 0x18
 2523 0173 00       		.byte	0
 2524 0174 00       		.byte	0
 2525 0175 1C       		.uleb128 0x1c
 2526 0176 2E       		.uleb128 0x2e
 2527 0177 01       		.byte	0x1
 2528 0178 31       		.uleb128 0x31
 2529 0179 13       		.uleb128 0x13
 2530 017a 11       		.uleb128 0x11
 2531 017b 01       		.uleb128 0x1
 2532 017c 12       		.uleb128 0x12
 2533 017d 06       		.uleb128 0x6
 2534 017e 40       		.uleb128 0x40
 2535 017f 18       		.uleb128 0x18
 2536 0180 9742     		.uleb128 0x2117
 2537 0182 19       		.uleb128 0x19
 2538 0183 01       		.uleb128 0x1
 2539 0184 13       		.uleb128 0x13
 2540 0185 00       		.byte	0
 2541 0186 00       		.byte	0
 2542 0187 1D       		.uleb128 0x1d
 2543 0188 05       		.uleb128 0x5
 2544 0189 00       		.byte	0
 2545 018a 31       		.uleb128 0x31
 2546 018b 13       		.uleb128 0x13
 2547 018c 02       		.uleb128 0x2
 2548 018d 17       		.uleb128 0x17
 2549 018e 00       		.byte	0
 2550 018f 00       		.byte	0
 2551 0190 1E       		.uleb128 0x1e
 2552 0191 0B       		.uleb128 0xb
 2553 0192 01       		.byte	0x1
 2554 0193 11       		.uleb128 0x11
 2555 0194 01       		.uleb128 0x1
 2556 0195 12       		.uleb128 0x12
 2557 0196 06       		.uleb128 0x6
 2558 0197 00       		.byte	0
 2559 0198 00       		.byte	0
 2560 0199 1F       		.uleb128 0x1f
 2561 019a 898201   		.uleb128 0x4109
 2562 019d 01       		.byte	0x1
 2563 019e 11       		.uleb128 0x11
 2564 019f 01       		.uleb128 0x1
 2565 01a0 31       		.uleb128 0x31
ARM GAS  /tmp/ccXOaafo.s 			page 46


 2566 01a1 13       		.uleb128 0x13
 2567 01a2 00       		.byte	0
 2568 01a3 00       		.byte	0
 2569 01a4 20       		.uleb128 0x20
 2570 01a5 8A8201   		.uleb128 0x410a
 2571 01a8 00       		.byte	0
 2572 01a9 02       		.uleb128 0x2
 2573 01aa 18       		.uleb128 0x18
 2574 01ab 9142     		.uleb128 0x2111
 2575 01ad 18       		.uleb128 0x18
 2576 01ae 00       		.byte	0
 2577 01af 00       		.byte	0
 2578 01b0 21       		.uleb128 0x21
 2579 01b1 34       		.uleb128 0x34
 2580 01b2 00       		.byte	0
 2581 01b3 03       		.uleb128 0x3
 2582 01b4 08       		.uleb128 0x8
 2583 01b5 3A       		.uleb128 0x3a
 2584 01b6 0B       		.uleb128 0xb
 2585 01b7 3B       		.uleb128 0x3b
 2586 01b8 0B       		.uleb128 0xb
 2587 01b9 49       		.uleb128 0x49
 2588 01ba 13       		.uleb128 0x13
 2589 01bb 02       		.uleb128 0x2
 2590 01bc 18       		.uleb128 0x18
 2591 01bd 00       		.byte	0
 2592 01be 00       		.byte	0
 2593 01bf 22       		.uleb128 0x22
 2594 01c0 898201   		.uleb128 0x4109
 2595 01c3 00       		.byte	0
 2596 01c4 11       		.uleb128 0x11
 2597 01c5 01       		.uleb128 0x1
 2598 01c6 31       		.uleb128 0x31
 2599 01c7 13       		.uleb128 0x13
 2600 01c8 00       		.byte	0
 2601 01c9 00       		.byte	0
 2602 01ca 23       		.uleb128 0x23
 2603 01cb 898201   		.uleb128 0x4109
 2604 01ce 01       		.byte	0x1
 2605 01cf 11       		.uleb128 0x11
 2606 01d0 01       		.uleb128 0x1
 2607 01d1 31       		.uleb128 0x31
 2608 01d2 13       		.uleb128 0x13
 2609 01d3 01       		.uleb128 0x1
 2610 01d4 13       		.uleb128 0x13
 2611 01d5 00       		.byte	0
 2612 01d6 00       		.byte	0
 2613 01d7 24       		.uleb128 0x24
 2614 01d8 2E       		.uleb128 0x2e
 2615 01d9 01       		.byte	0x1
 2616 01da 3F       		.uleb128 0x3f
 2617 01db 19       		.uleb128 0x19
 2618 01dc 03       		.uleb128 0x3
 2619 01dd 0E       		.uleb128 0xe
 2620 01de 3A       		.uleb128 0x3a
 2621 01df 0B       		.uleb128 0xb
 2622 01e0 3B       		.uleb128 0x3b
ARM GAS  /tmp/ccXOaafo.s 			page 47


 2623 01e1 05       		.uleb128 0x5
 2624 01e2 27       		.uleb128 0x27
 2625 01e3 19       		.uleb128 0x19
 2626 01e4 11       		.uleb128 0x11
 2627 01e5 01       		.uleb128 0x1
 2628 01e6 12       		.uleb128 0x12
 2629 01e7 06       		.uleb128 0x6
 2630 01e8 40       		.uleb128 0x40
 2631 01e9 18       		.uleb128 0x18
 2632 01ea 9742     		.uleb128 0x2117
 2633 01ec 19       		.uleb128 0x19
 2634 01ed 01       		.uleb128 0x1
 2635 01ee 13       		.uleb128 0x13
 2636 01ef 00       		.byte	0
 2637 01f0 00       		.byte	0
 2638 01f1 25       		.uleb128 0x25
 2639 01f2 05       		.uleb128 0x5
 2640 01f3 00       		.byte	0
 2641 01f4 03       		.uleb128 0x3
 2642 01f5 08       		.uleb128 0x8
 2643 01f6 3A       		.uleb128 0x3a
 2644 01f7 0B       		.uleb128 0xb
 2645 01f8 3B       		.uleb128 0x3b
 2646 01f9 05       		.uleb128 0x5
 2647 01fa 49       		.uleb128 0x49
 2648 01fb 13       		.uleb128 0x13
 2649 01fc 02       		.uleb128 0x2
 2650 01fd 17       		.uleb128 0x17
 2651 01fe 00       		.byte	0
 2652 01ff 00       		.byte	0
 2653 0200 26       		.uleb128 0x26
 2654 0201 05       		.uleb128 0x5
 2655 0202 00       		.byte	0
 2656 0203 03       		.uleb128 0x3
 2657 0204 0E       		.uleb128 0xe
 2658 0205 3A       		.uleb128 0x3a
 2659 0206 0B       		.uleb128 0xb
 2660 0207 3B       		.uleb128 0x3b
 2661 0208 05       		.uleb128 0x5
 2662 0209 49       		.uleb128 0x49
 2663 020a 13       		.uleb128 0x13
 2664 020b 02       		.uleb128 0x2
 2665 020c 17       		.uleb128 0x17
 2666 020d 00       		.byte	0
 2667 020e 00       		.byte	0
 2668 020f 27       		.uleb128 0x27
 2669 0210 2E       		.uleb128 0x2e
 2670 0211 01       		.byte	0x1
 2671 0212 3F       		.uleb128 0x3f
 2672 0213 19       		.uleb128 0x19
 2673 0214 03       		.uleb128 0x3
 2674 0215 0E       		.uleb128 0xe
 2675 0216 3A       		.uleb128 0x3a
 2676 0217 0B       		.uleb128 0xb
 2677 0218 3B       		.uleb128 0x3b
 2678 0219 05       		.uleb128 0x5
 2679 021a 27       		.uleb128 0x27
ARM GAS  /tmp/ccXOaafo.s 			page 48


 2680 021b 19       		.uleb128 0x19
 2681 021c 49       		.uleb128 0x49
 2682 021d 13       		.uleb128 0x13
 2683 021e 11       		.uleb128 0x11
 2684 021f 01       		.uleb128 0x1
 2685 0220 12       		.uleb128 0x12
 2686 0221 06       		.uleb128 0x6
 2687 0222 40       		.uleb128 0x40
 2688 0223 18       		.uleb128 0x18
 2689 0224 9742     		.uleb128 0x2117
 2690 0226 19       		.uleb128 0x19
 2691 0227 01       		.uleb128 0x1
 2692 0228 13       		.uleb128 0x13
 2693 0229 00       		.byte	0
 2694 022a 00       		.byte	0
 2695 022b 28       		.uleb128 0x28
 2696 022c 34       		.uleb128 0x34
 2697 022d 00       		.byte	0
 2698 022e 03       		.uleb128 0x3
 2699 022f 0E       		.uleb128 0xe
 2700 0230 3A       		.uleb128 0x3a
 2701 0231 0B       		.uleb128 0xb
 2702 0232 3B       		.uleb128 0x3b
 2703 0233 05       		.uleb128 0x5
 2704 0234 49       		.uleb128 0x49
 2705 0235 13       		.uleb128 0x13
 2706 0236 02       		.uleb128 0x2
 2707 0237 18       		.uleb128 0x18
 2708 0238 00       		.byte	0
 2709 0239 00       		.byte	0
 2710 023a 29       		.uleb128 0x29
 2711 023b 34       		.uleb128 0x34
 2712 023c 00       		.byte	0
 2713 023d 03       		.uleb128 0x3
 2714 023e 08       		.uleb128 0x8
 2715 023f 3A       		.uleb128 0x3a
 2716 0240 0B       		.uleb128 0xb
 2717 0241 3B       		.uleb128 0x3b
 2718 0242 05       		.uleb128 0x5
 2719 0243 49       		.uleb128 0x49
 2720 0244 13       		.uleb128 0x13
 2721 0245 02       		.uleb128 0x2
 2722 0246 17       		.uleb128 0x17
 2723 0247 00       		.byte	0
 2724 0248 00       		.byte	0
 2725 0249 2A       		.uleb128 0x2a
 2726 024a 898201   		.uleb128 0x4109
 2727 024d 01       		.byte	0x1
 2728 024e 11       		.uleb128 0x11
 2729 024f 01       		.uleb128 0x1
 2730 0250 00       		.byte	0
 2731 0251 00       		.byte	0
 2732 0252 2B       		.uleb128 0x2b
 2733 0253 34       		.uleb128 0x34
 2734 0254 00       		.byte	0
 2735 0255 03       		.uleb128 0x3
 2736 0256 08       		.uleb128 0x8
ARM GAS  /tmp/ccXOaafo.s 			page 49


 2737 0257 3A       		.uleb128 0x3a
 2738 0258 0B       		.uleb128 0xb
 2739 0259 3B       		.uleb128 0x3b
 2740 025a 05       		.uleb128 0x5
 2741 025b 49       		.uleb128 0x49
 2742 025c 13       		.uleb128 0x13
 2743 025d 02       		.uleb128 0x2
 2744 025e 18       		.uleb128 0x18
 2745 025f 00       		.byte	0
 2746 0260 00       		.byte	0
 2747 0261 2C       		.uleb128 0x2c
 2748 0262 34       		.uleb128 0x34
 2749 0263 00       		.byte	0
 2750 0264 03       		.uleb128 0x3
 2751 0265 0E       		.uleb128 0xe
 2752 0266 3A       		.uleb128 0x3a
 2753 0267 0B       		.uleb128 0xb
 2754 0268 3B       		.uleb128 0x3b
 2755 0269 0B       		.uleb128 0xb
 2756 026a 49       		.uleb128 0x49
 2757 026b 13       		.uleb128 0x13
 2758 026c 3F       		.uleb128 0x3f
 2759 026d 19       		.uleb128 0x19
 2760 026e 3C       		.uleb128 0x3c
 2761 026f 19       		.uleb128 0x19
 2762 0270 00       		.byte	0
 2763 0271 00       		.byte	0
 2764 0272 2D       		.uleb128 0x2d
 2765 0273 2E       		.uleb128 0x2e
 2766 0274 01       		.byte	0x1
 2767 0275 3F       		.uleb128 0x3f
 2768 0276 19       		.uleb128 0x19
 2769 0277 03       		.uleb128 0x3
 2770 0278 0E       		.uleb128 0xe
 2771 0279 3A       		.uleb128 0x3a
 2772 027a 0B       		.uleb128 0xb
 2773 027b 3B       		.uleb128 0x3b
 2774 027c 0B       		.uleb128 0xb
 2775 027d 27       		.uleb128 0x27
 2776 027e 19       		.uleb128 0x19
 2777 027f 49       		.uleb128 0x49
 2778 0280 13       		.uleb128 0x13
 2779 0281 3C       		.uleb128 0x3c
 2780 0282 19       		.uleb128 0x19
 2781 0283 01       		.uleb128 0x1
 2782 0284 13       		.uleb128 0x13
 2783 0285 00       		.byte	0
 2784 0286 00       		.byte	0
 2785 0287 2E       		.uleb128 0x2e
 2786 0288 2E       		.uleb128 0x2e
 2787 0289 00       		.byte	0
 2788 028a 3F       		.uleb128 0x3f
 2789 028b 19       		.uleb128 0x19
 2790 028c 03       		.uleb128 0x3
 2791 028d 0E       		.uleb128 0xe
 2792 028e 3A       		.uleb128 0x3a
 2793 028f 0B       		.uleb128 0xb
ARM GAS  /tmp/ccXOaafo.s 			page 50


 2794 0290 3B       		.uleb128 0x3b
 2795 0291 0B       		.uleb128 0xb
 2796 0292 27       		.uleb128 0x27
 2797 0293 19       		.uleb128 0x19
 2798 0294 3C       		.uleb128 0x3c
 2799 0295 19       		.uleb128 0x19
 2800 0296 00       		.byte	0
 2801 0297 00       		.byte	0
 2802 0298 2F       		.uleb128 0x2f
 2803 0299 2E       		.uleb128 0x2e
 2804 029a 01       		.byte	0x1
 2805 029b 3F       		.uleb128 0x3f
 2806 029c 19       		.uleb128 0x19
 2807 029d 03       		.uleb128 0x3
 2808 029e 0E       		.uleb128 0xe
 2809 029f 3A       		.uleb128 0x3a
 2810 02a0 0B       		.uleb128 0xb
 2811 02a1 3B       		.uleb128 0x3b
 2812 02a2 0B       		.uleb128 0xb
 2813 02a3 27       		.uleb128 0x27
 2814 02a4 19       		.uleb128 0x19
 2815 02a5 3C       		.uleb128 0x3c
 2816 02a6 19       		.uleb128 0x19
 2817 02a7 01       		.uleb128 0x1
 2818 02a8 13       		.uleb128 0x13
 2819 02a9 00       		.byte	0
 2820 02aa 00       		.byte	0
 2821 02ab 30       		.uleb128 0x30
 2822 02ac 2E       		.uleb128 0x2e
 2823 02ad 01       		.byte	0x1
 2824 02ae 3F       		.uleb128 0x3f
 2825 02af 19       		.uleb128 0x19
 2826 02b0 03       		.uleb128 0x3
 2827 02b1 0E       		.uleb128 0xe
 2828 02b2 3A       		.uleb128 0x3a
 2829 02b3 0B       		.uleb128 0xb
 2830 02b4 3B       		.uleb128 0x3b
 2831 02b5 0B       		.uleb128 0xb
 2832 02b6 27       		.uleb128 0x27
 2833 02b7 19       		.uleb128 0x19
 2834 02b8 49       		.uleb128 0x49
 2835 02b9 13       		.uleb128 0x13
 2836 02ba 3C       		.uleb128 0x3c
 2837 02bb 19       		.uleb128 0x19
 2838 02bc 00       		.byte	0
 2839 02bd 00       		.byte	0
 2840 02be 00       		.byte	0
 2841              		.section	.debug_loc,"",%progbits
 2842              	.Ldebug_loc0:
 2843              	.LLST0:
 2844 0000 00000000 		.4byte	.LVL1
 2845 0004 0C000000 		.4byte	.LVL2
 2846 0008 0100     		.2byte	0x1
 2847 000a 50       		.byte	0x50
 2848 000b 0C000000 		.4byte	.LVL2
 2849 000f 3C000000 		.4byte	.LFE8
 2850 0013 0100     		.2byte	0x1
ARM GAS  /tmp/ccXOaafo.s 			page 51


 2851 0015 52       		.byte	0x52
 2852 0016 00000000 		.4byte	0
 2853 001a 00000000 		.4byte	0
 2854              	.LLST1:
 2855 001e 00000000 		.4byte	.LVL4
 2856 0022 20000000 		.4byte	.LVL6
 2857 0026 0100     		.2byte	0x1
 2858 0028 50       		.byte	0x50
 2859 0029 20000000 		.4byte	.LVL6
 2860 002d 28000000 		.4byte	.LFE9
 2861 0031 0400     		.2byte	0x4
 2862 0033 F3       		.byte	0xf3
 2863 0034 01       		.uleb128 0x1
 2864 0035 50       		.byte	0x50
 2865 0036 9F       		.byte	0x9f
 2866 0037 00000000 		.4byte	0
 2867 003b 00000000 		.4byte	0
 2868              	.LLST2:
 2869 003f 10000000 		.4byte	.LVL5
 2870 0043 20000000 		.4byte	.LVL6
 2871 0047 0600     		.2byte	0x6
 2872 0049 70       		.byte	0x70
 2873 004a 00       		.sleb128 0
 2874 004b 73       		.byte	0x73
 2875 004c 00       		.sleb128 0
 2876 004d 1A       		.byte	0x1a
 2877 004e 9F       		.byte	0x9f
 2878 004f 20000000 		.4byte	.LVL6
 2879 0053 28000000 		.4byte	.LFE9
 2880 0057 0100     		.2byte	0x1
 2881 0059 50       		.byte	0x50
 2882 005a 00000000 		.4byte	0
 2883 005e 00000000 		.4byte	0
 2884              	.LLST3:
 2885 0062 00000000 		.4byte	.LVL7
 2886 0066 14000000 		.4byte	.LVL8
 2887 006a 0100     		.2byte	0x1
 2888 006c 50       		.byte	0x50
 2889 006d 14000000 		.4byte	.LVL8
 2890 0071 18000000 		.4byte	.LVL9
 2891 0075 0400     		.2byte	0x4
 2892 0077 F3       		.byte	0xf3
 2893 0078 01       		.uleb128 0x1
 2894 0079 50       		.byte	0x50
 2895 007a 9F       		.byte	0x9f
 2896 007b 18000000 		.4byte	.LVL9
 2897 007f 24000000 		.4byte	.LFE10
 2898 0083 0100     		.2byte	0x1
 2899 0085 50       		.byte	0x50
 2900 0086 00000000 		.4byte	0
 2901 008a 00000000 		.4byte	0
 2902              	.LLST4:
 2903 008e 00000000 		.4byte	.LVL10
 2904 0092 10000000 		.4byte	.LVL11
 2905 0096 0100     		.2byte	0x1
 2906 0098 50       		.byte	0x50
 2907 0099 10000000 		.4byte	.LVL11
ARM GAS  /tmp/ccXOaafo.s 			page 52


 2908 009d 1C000000 		.4byte	.LFE12
 2909 00a1 0100     		.2byte	0x1
 2910 00a3 53       		.byte	0x53
 2911 00a4 00000000 		.4byte	0
 2912 00a8 00000000 		.4byte	0
 2913              	.LLST5:
 2914 00ac 00000000 		.4byte	.LVL12
 2915 00b0 37000000 		.4byte	.LVL15-1
 2916 00b4 0100     		.2byte	0x1
 2917 00b6 50       		.byte	0x50
 2918 00b7 37000000 		.4byte	.LVL15-1
 2919 00bb 44000000 		.4byte	.LVL16
 2920 00bf 0400     		.2byte	0x4
 2921 00c1 F3       		.byte	0xf3
 2922 00c2 01       		.uleb128 0x1
 2923 00c3 50       		.byte	0x50
 2924 00c4 9F       		.byte	0x9f
 2925 00c5 44000000 		.4byte	.LVL16
 2926 00c9 54000000 		.4byte	.LFE14
 2927 00cd 0100     		.2byte	0x1
 2928 00cf 50       		.byte	0x50
 2929 00d0 00000000 		.4byte	0
 2930 00d4 00000000 		.4byte	0
 2931              	.LLST6:
 2932 00d8 00000000 		.4byte	.LVL12
 2933 00dc 10000000 		.4byte	.LVL13
 2934 00e0 0100     		.2byte	0x1
 2935 00e2 51       		.byte	0x51
 2936 00e3 10000000 		.4byte	.LVL13
 2937 00e7 54000000 		.4byte	.LFE14
 2938 00eb 0400     		.2byte	0x4
 2939 00ed F3       		.byte	0xf3
 2940 00ee 01       		.uleb128 0x1
 2941 00ef 51       		.byte	0x51
 2942 00f0 9F       		.byte	0x9f
 2943 00f1 00000000 		.4byte	0
 2944 00f5 00000000 		.4byte	0
 2945              	.LLST7:
 2946 00f9 34000000 		.4byte	.LVL14
 2947 00fd 44000000 		.4byte	.LVL16
 2948 0101 0400     		.2byte	0x4
 2949 0103 F3       		.byte	0xf3
 2950 0104 01       		.uleb128 0x1
 2951 0105 51       		.byte	0x51
 2952 0106 9F       		.byte	0x9f
 2953 0107 00000000 		.4byte	0
 2954 010b 00000000 		.4byte	0
 2955              	.LLST8:
 2956 010f 34000000 		.4byte	.LVL14
 2957 0113 37000000 		.4byte	.LVL15-1
 2958 0117 0100     		.2byte	0x1
 2959 0119 50       		.byte	0x50
 2960 011a 37000000 		.4byte	.LVL15-1
 2961 011e 44000000 		.4byte	.LVL16
 2962 0122 0400     		.2byte	0x4
 2963 0124 F3       		.byte	0xf3
 2964 0125 01       		.uleb128 0x1
ARM GAS  /tmp/ccXOaafo.s 			page 53


 2965 0126 50       		.byte	0x50
 2966 0127 9F       		.byte	0x9f
 2967 0128 00000000 		.4byte	0
 2968 012c 00000000 		.4byte	0
 2969              	.LLST9:
 2970 0130 00000000 		.4byte	.LVL17
 2971 0134 18000000 		.4byte	.LVL19
 2972 0138 0100     		.2byte	0x1
 2973 013a 50       		.byte	0x50
 2974 013b 18000000 		.4byte	.LVL19
 2975 013f 40000000 		.4byte	.LFE11
 2976 0143 0100     		.2byte	0x1
 2977 0145 55       		.byte	0x55
 2978 0146 00000000 		.4byte	0
 2979 014a 00000000 		.4byte	0
 2980              	.LLST10:
 2981 014e 00000000 		.4byte	.LVL17
 2982 0152 18000000 		.4byte	.LVL19
 2983 0156 0100     		.2byte	0x1
 2984 0158 51       		.byte	0x51
 2985 0159 18000000 		.4byte	.LVL19
 2986 015d 40000000 		.4byte	.LFE11
 2987 0161 0100     		.2byte	0x1
 2988 0163 56       		.byte	0x56
 2989 0164 00000000 		.4byte	0
 2990 0168 00000000 		.4byte	0
 2991              	.LLST11:
 2992 016c 00000000 		.4byte	.LVL22
 2993 0170 0B000000 		.4byte	.LVL23-1
 2994 0174 0100     		.2byte	0x1
 2995 0176 50       		.byte	0x50
 2996 0177 0B000000 		.4byte	.LVL23-1
 2997 017b 18000000 		.4byte	.LFE13
 2998 017f 0400     		.2byte	0x4
 2999 0181 F3       		.byte	0xf3
 3000 0182 01       		.uleb128 0x1
 3001 0183 50       		.byte	0x50
 3002 0184 9F       		.byte	0x9f
 3003 0185 00000000 		.4byte	0
 3004 0189 00000000 		.4byte	0
 3005              	.LLST12:
 3006 018d 00000000 		.4byte	.LVL22
 3007 0191 0B000000 		.4byte	.LVL23-1
 3008 0195 0100     		.2byte	0x1
 3009 0197 51       		.byte	0x51
 3010 0198 0B000000 		.4byte	.LVL23-1
 3011 019c 18000000 		.4byte	.LFE13
 3012 01a0 0400     		.2byte	0x4
 3013 01a2 F3       		.byte	0xf3
 3014 01a3 01       		.uleb128 0x1
 3015 01a4 51       		.byte	0x51
 3016 01a5 9F       		.byte	0x9f
 3017 01a6 00000000 		.4byte	0
 3018 01aa 00000000 		.4byte	0
 3019              	.LLST13:
 3020 01ae 00000000 		.4byte	.LVL25
 3021 01b2 0B000000 		.4byte	.LVL26-1
ARM GAS  /tmp/ccXOaafo.s 			page 54


 3022 01b6 0100     		.2byte	0x1
 3023 01b8 50       		.byte	0x50
 3024 01b9 0B000000 		.4byte	.LVL26-1
 3025 01bd 18000000 		.4byte	.LFE15
 3026 01c1 0400     		.2byte	0x4
 3027 01c3 F3       		.byte	0xf3
 3028 01c4 01       		.uleb128 0x1
 3029 01c5 50       		.byte	0x50
 3030 01c6 9F       		.byte	0x9f
 3031 01c7 00000000 		.4byte	0
 3032 01cb 00000000 		.4byte	0
 3033              	.LLST14:
 3034 01cf 00000000 		.4byte	.LVL25
 3035 01d3 0B000000 		.4byte	.LVL26-1
 3036 01d7 0100     		.2byte	0x1
 3037 01d9 51       		.byte	0x51
 3038 01da 0B000000 		.4byte	.LVL26-1
 3039 01de 18000000 		.4byte	.LFE15
 3040 01e2 0400     		.2byte	0x4
 3041 01e4 F3       		.byte	0xf3
 3042 01e5 01       		.uleb128 0x1
 3043 01e6 51       		.byte	0x51
 3044 01e7 9F       		.byte	0x9f
 3045 01e8 00000000 		.4byte	0
 3046 01ec 00000000 		.4byte	0
 3047              	.LLST15:
 3048 01f0 00000000 		.4byte	.LVL28
 3049 01f4 0C000000 		.4byte	.LVL29
 3050 01f8 0100     		.2byte	0x1
 3051 01fa 50       		.byte	0x50
 3052 01fb 0C000000 		.4byte	.LVL29
 3053 01ff 14000000 		.4byte	.LFE16
 3054 0203 0100     		.2byte	0x1
 3055 0205 53       		.byte	0x53
 3056 0206 00000000 		.4byte	0
 3057 020a 00000000 		.4byte	0
 3058              	.LLST16:
 3059 020e 00000000 		.4byte	.LVL30
 3060 0212 18000000 		.4byte	.LVL31
 3061 0216 0100     		.2byte	0x1
 3062 0218 50       		.byte	0x50
 3063 0219 18000000 		.4byte	.LVL31
 3064 021d 48000000 		.4byte	.LFE17
 3065 0221 0100     		.2byte	0x1
 3066 0223 57       		.byte	0x57
 3067 0224 00000000 		.4byte	0
 3068 0228 00000000 		.4byte	0
 3069              	.LLST17:
 3070 022c 00000000 		.4byte	.LVL30
 3071 0230 18000000 		.4byte	.LVL31
 3072 0234 0100     		.2byte	0x1
 3073 0236 51       		.byte	0x51
 3074 0237 18000000 		.4byte	.LVL31
 3075 023b 48000000 		.4byte	.LFE17
 3076 023f 0100     		.2byte	0x1
 3077 0241 55       		.byte	0x55
 3078 0242 00000000 		.4byte	0
ARM GAS  /tmp/ccXOaafo.s 			page 55


 3079 0246 00000000 		.4byte	0
 3080              	.LLST18:
 3081 024a 00000000 		.4byte	.LVL30
 3082 024e 18000000 		.4byte	.LVL31
 3083 0252 0200     		.2byte	0x2
 3084 0254 30       		.byte	0x30
 3085 0255 9F       		.byte	0x9f
 3086 0256 18000000 		.4byte	.LVL31
 3087 025a 24000000 		.4byte	.LVL32
 3088 025e 0100     		.2byte	0x1
 3089 0260 54       		.byte	0x54
 3090 0261 40000000 		.4byte	.LVL35
 3091 0265 48000000 		.4byte	.LFE17
 3092 0269 0100     		.2byte	0x1
 3093 026b 54       		.byte	0x54
 3094 026c 00000000 		.4byte	0
 3095 0270 00000000 		.4byte	0
 3096              	.LLST19:
 3097 0274 00000000 		.4byte	.LVL36
 3098 0278 28000000 		.4byte	.LVL40
 3099 027c 0100     		.2byte	0x1
 3100 027e 50       		.byte	0x50
 3101 027f 28000000 		.4byte	.LVL40
 3102 0283 34000000 		.4byte	.LVL42
 3103 0287 0100     		.2byte	0x1
 3104 0289 54       		.byte	0x54
 3105 028a 34000000 		.4byte	.LVL42
 3106 028e 50000000 		.4byte	.LFE18
 3107 0292 0400     		.2byte	0x4
 3108 0294 F3       		.byte	0xf3
 3109 0295 01       		.uleb128 0x1
 3110 0296 50       		.byte	0x50
 3111 0297 9F       		.byte	0x9f
 3112 0298 00000000 		.4byte	0
 3113 029c 00000000 		.4byte	0
 3114              	.LLST20:
 3115 02a0 14000000 		.4byte	.LVL38
 3116 02a4 18000000 		.4byte	.LVL39
 3117 02a8 0600     		.2byte	0x6
 3118 02aa 70       		.byte	0x70
 3119 02ab 00       		.sleb128 0
 3120 02ac 73       		.byte	0x73
 3121 02ad 00       		.sleb128 0
 3122 02ae 1A       		.byte	0x1a
 3123 02af 9F       		.byte	0x9f
 3124 02b0 18000000 		.4byte	.LVL39
 3125 02b4 2B000000 		.4byte	.LVL41-1
 3126 02b8 0100     		.2byte	0x1
 3127 02ba 52       		.byte	0x52
 3128 02bb 34000000 		.4byte	.LVL42
 3129 02bf 3C000000 		.4byte	.LVL43
 3130 02c3 0100     		.2byte	0x1
 3131 02c5 52       		.byte	0x52
 3132 02c6 3C000000 		.4byte	.LVL43
 3133 02ca 50000000 		.4byte	.LFE18
 3134 02ce 0100     		.2byte	0x1
 3135 02d0 50       		.byte	0x50
ARM GAS  /tmp/ccXOaafo.s 			page 56


 3136 02d1 00000000 		.4byte	0
 3137 02d5 00000000 		.4byte	0
 3138              	.LLST21:
 3139 02d9 00000000 		.4byte	.LVL44
 3140 02dd 28000000 		.4byte	.LVL49
 3141 02e1 0100     		.2byte	0x1
 3142 02e3 50       		.byte	0x50
 3143 02e4 28000000 		.4byte	.LVL49
 3144 02e8 34000000 		.4byte	.LVL51
 3145 02ec 0100     		.2byte	0x1
 3146 02ee 54       		.byte	0x54
 3147 02ef 34000000 		.4byte	.LVL51
 3148 02f3 4C000000 		.4byte	.LFE19
 3149 02f7 0400     		.2byte	0x4
 3150 02f9 F3       		.byte	0xf3
 3151 02fa 01       		.uleb128 0x1
 3152 02fb 50       		.byte	0x50
 3153 02fc 9F       		.byte	0x9f
 3154 02fd 00000000 		.4byte	0
 3155 0301 00000000 		.4byte	0
 3156              	.LLST22:
 3157 0305 14000000 		.4byte	.LVL46
 3158 0309 18000000 		.4byte	.LVL47
 3159 030d 0600     		.2byte	0x6
 3160 030f 70       		.byte	0x70
 3161 0310 00       		.sleb128 0
 3162 0311 73       		.byte	0x73
 3163 0312 00       		.sleb128 0
 3164 0313 1A       		.byte	0x1a
 3165 0314 9F       		.byte	0x9f
 3166 0315 18000000 		.4byte	.LVL47
 3167 0319 20000000 		.4byte	.LVL48
 3168 031d 0100     		.2byte	0x1
 3169 031f 54       		.byte	0x54
 3170 0320 20000000 		.4byte	.LVL48
 3171 0324 28000000 		.4byte	.LVL49
 3172 0328 0600     		.2byte	0x6
 3173 032a 70       		.byte	0x70
 3174 032b 00       		.sleb128 0
 3175 032c 73       		.byte	0x73
 3176 032d 00       		.sleb128 0
 3177 032e 1A       		.byte	0x1a
 3178 032f 9F       		.byte	0x9f
 3179 0330 28000000 		.4byte	.LVL49
 3180 0334 2B000000 		.4byte	.LVL50-1
 3181 0338 0600     		.2byte	0x6
 3182 033a 74       		.byte	0x74
 3183 033b 00       		.sleb128 0
 3184 033c 73       		.byte	0x73
 3185 033d 00       		.sleb128 0
 3186 033e 1A       		.byte	0x1a
 3187 033f 9F       		.byte	0x9f
 3188 0340 34000000 		.4byte	.LVL51
 3189 0344 4C000000 		.4byte	.LFE19
 3190 0348 0100     		.2byte	0x1
 3191 034a 54       		.byte	0x54
 3192 034b 00000000 		.4byte	0
ARM GAS  /tmp/ccXOaafo.s 			page 57


 3193 034f 00000000 		.4byte	0
 3194              	.LLST23:
 3195 0353 00000000 		.4byte	.LVL52
 3196 0357 2C000000 		.4byte	.LVL54
 3197 035b 0100     		.2byte	0x1
 3198 035d 50       		.byte	0x50
 3199 035e 2C000000 		.4byte	.LVL54
 3200 0362 4C000000 		.4byte	.LFE20
 3201 0366 0100     		.2byte	0x1
 3202 0368 54       		.byte	0x54
 3203 0369 00000000 		.4byte	0
 3204 036d 00000000 		.4byte	0
 3205              	.LLST24:
 3206 0371 00000000 		.4byte	.LVL56
 3207 0375 2C000000 		.4byte	.LVL60
 3208 0379 0100     		.2byte	0x1
 3209 037b 50       		.byte	0x50
 3210 037c 2C000000 		.4byte	.LVL60
 3211 0380 30000000 		.4byte	.LVL61
 3212 0384 0400     		.2byte	0x4
 3213 0386 F3       		.byte	0xf3
 3214 0387 01       		.uleb128 0x1
 3215 0388 50       		.byte	0x50
 3216 0389 9F       		.byte	0x9f
 3217 038a 30000000 		.4byte	.LVL61
 3218 038e 3C000000 		.4byte	.LVL62
 3219 0392 0100     		.2byte	0x1
 3220 0394 50       		.byte	0x50
 3221 0395 3C000000 		.4byte	.LVL62
 3222 0399 50000000 		.4byte	.LVL64
 3223 039d 0100     		.2byte	0x1
 3224 039f 54       		.byte	0x54
 3225 03a0 50000000 		.4byte	.LVL64
 3226 03a4 68000000 		.4byte	.LVL66
 3227 03a8 0400     		.2byte	0x4
 3228 03aa F3       		.byte	0xf3
 3229 03ab 01       		.uleb128 0x1
 3230 03ac 50       		.byte	0x50
 3231 03ad 9F       		.byte	0x9f
 3232 03ae 68000000 		.4byte	.LVL66
 3233 03b2 78000000 		.4byte	.LFE21
 3234 03b6 0100     		.2byte	0x1
 3235 03b8 54       		.byte	0x54
 3236 03b9 00000000 		.4byte	0
 3237 03bd 00000000 		.4byte	0
 3238              	.LLST25:
 3239 03c1 00000000 		.4byte	.LVL56
 3240 03c5 3F000000 		.4byte	.LVL63-1
 3241 03c9 0100     		.2byte	0x1
 3242 03cb 51       		.byte	0x51
 3243 03cc 3F000000 		.4byte	.LVL63-1
 3244 03d0 78000000 		.4byte	.LFE21
 3245 03d4 0400     		.2byte	0x4
 3246 03d6 F3       		.byte	0xf3
 3247 03d7 01       		.uleb128 0x1
 3248 03d8 51       		.byte	0x51
 3249 03d9 9F       		.byte	0x9f
ARM GAS  /tmp/ccXOaafo.s 			page 58


 3250 03da 00000000 		.4byte	0
 3251 03de 00000000 		.4byte	0
 3252              	.LLST26:
 3253 03e2 14000000 		.4byte	.LVL58
 3254 03e6 18000000 		.4byte	.LVL59
 3255 03ea 0600     		.2byte	0x6
 3256 03ec 70       		.byte	0x70
 3257 03ed 00       		.sleb128 0
 3258 03ee 72       		.byte	0x72
 3259 03ef 00       		.sleb128 0
 3260 03f0 1A       		.byte	0x1a
 3261 03f1 9F       		.byte	0x9f
 3262 03f2 18000000 		.4byte	.LVL59
 3263 03f6 58000000 		.4byte	.LVL65
 3264 03fa 0100     		.2byte	0x1
 3265 03fc 56       		.byte	0x56
 3266 03fd 58000000 		.4byte	.LVL65
 3267 0401 68000000 		.4byte	.LVL66
 3268 0405 0100     		.2byte	0x1
 3269 0407 50       		.byte	0x50
 3270 0408 68000000 		.4byte	.LVL66
 3271 040c 78000000 		.4byte	.LFE21
 3272 0410 0100     		.2byte	0x1
 3273 0412 56       		.byte	0x56
 3274 0413 00000000 		.4byte	0
 3275 0417 00000000 		.4byte	0
 3276              	.LLST27:
 3277 041b 00000000 		.4byte	.LVL67
 3278 041f 2C000000 		.4byte	.LVL71
 3279 0423 0100     		.2byte	0x1
 3280 0425 50       		.byte	0x50
 3281 0426 2C000000 		.4byte	.LVL71
 3282 042a 30000000 		.4byte	.LVL72
 3283 042e 0400     		.2byte	0x4
 3284 0430 F3       		.byte	0xf3
 3285 0431 01       		.uleb128 0x1
 3286 0432 50       		.byte	0x50
 3287 0433 9F       		.byte	0x9f
 3288 0434 30000000 		.4byte	.LVL72
 3289 0438 3C000000 		.4byte	.LVL73
 3290 043c 0100     		.2byte	0x1
 3291 043e 50       		.byte	0x50
 3292 043f 3C000000 		.4byte	.LVL73
 3293 0443 50000000 		.4byte	.LVL75
 3294 0447 0100     		.2byte	0x1
 3295 0449 55       		.byte	0x55
 3296 044a 50000000 		.4byte	.LVL75
 3297 044e 68000000 		.4byte	.LFE22
 3298 0452 0400     		.2byte	0x4
 3299 0454 F3       		.byte	0xf3
 3300 0455 01       		.uleb128 0x1
 3301 0456 50       		.byte	0x50
 3302 0457 9F       		.byte	0x9f
 3303 0458 00000000 		.4byte	0
 3304 045c 00000000 		.4byte	0
 3305              	.LLST28:
 3306 0460 00000000 		.4byte	.LVL67
ARM GAS  /tmp/ccXOaafo.s 			page 59


 3307 0464 3F000000 		.4byte	.LVL74-1
 3308 0468 0100     		.2byte	0x1
 3309 046a 51       		.byte	0x51
 3310 046b 3F000000 		.4byte	.LVL74-1
 3311 046f 68000000 		.4byte	.LFE22
 3312 0473 0400     		.2byte	0x4
 3313 0475 F3       		.byte	0xf3
 3314 0476 01       		.uleb128 0x1
 3315 0477 51       		.byte	0x51
 3316 0478 9F       		.byte	0x9f
 3317 0479 00000000 		.4byte	0
 3318 047d 00000000 		.4byte	0
 3319              	.LLST29:
 3320 0481 14000000 		.4byte	.LVL69
 3321 0485 18000000 		.4byte	.LVL70
 3322 0489 0600     		.2byte	0x6
 3323 048b 70       		.byte	0x70
 3324 048c 00       		.sleb128 0
 3325 048d 73       		.byte	0x73
 3326 048e 00       		.sleb128 0
 3327 048f 1A       		.byte	0x1a
 3328 0490 9F       		.byte	0x9f
 3329 0491 18000000 		.4byte	.LVL70
 3330 0495 68000000 		.4byte	.LFE22
 3331 0499 0100     		.2byte	0x1
 3332 049b 54       		.byte	0x54
 3333 049c 00000000 		.4byte	0
 3334 04a0 00000000 		.4byte	0
 3335              	.LLST30:
 3336 04a4 00000000 		.4byte	.LVL76
 3337 04a8 2C000000 		.4byte	.LVL78
 3338 04ac 0100     		.2byte	0x1
 3339 04ae 50       		.byte	0x50
 3340 04af 2C000000 		.4byte	.LVL78
 3341 04b3 74000000 		.4byte	.LFE23
 3342 04b7 0100     		.2byte	0x1
 3343 04b9 54       		.byte	0x54
 3344 04ba 00000000 		.4byte	0
 3345 04be 00000000 		.4byte	0
 3346              	.LLST31:
 3347 04c2 00000000 		.4byte	.LVL76
 3348 04c6 43000000 		.4byte	.LVL79-1
 3349 04ca 0100     		.2byte	0x1
 3350 04cc 51       		.byte	0x51
 3351 04cd 43000000 		.4byte	.LVL79-1
 3352 04d1 74000000 		.4byte	.LFE23
 3353 04d5 0400     		.2byte	0x4
 3354 04d7 F3       		.byte	0xf3
 3355 04d8 01       		.uleb128 0x1
 3356 04d9 51       		.byte	0x51
 3357 04da 9F       		.byte	0x9f
 3358 04db 00000000 		.4byte	0
 3359 04df 00000000 		.4byte	0
 3360              		.section	.debug_aranges,"",%progbits
 3361 0000 9C000000 		.4byte	0x9c
 3362 0004 0200     		.2byte	0x2
 3363 0006 00000000 		.4byte	.Ldebug_info0
ARM GAS  /tmp/ccXOaafo.s 			page 60


 3364 000a 04       		.byte	0x4
 3365 000b 00       		.byte	0
 3366 000c 0000     		.2byte	0
 3367 000e 0000     		.2byte	0
 3368 0010 00000000 		.4byte	.LFB7
 3369 0014 38000000 		.4byte	.LFE7-.LFB7
 3370 0018 00000000 		.4byte	.LFB8
 3371 001c 3C000000 		.4byte	.LFE8-.LFB8
 3372 0020 00000000 		.4byte	.LFB9
 3373 0024 28000000 		.4byte	.LFE9-.LFB9
 3374 0028 00000000 		.4byte	.LFB10
 3375 002c 24000000 		.4byte	.LFE10-.LFB10
 3376 0030 00000000 		.4byte	.LFB12
 3377 0034 1C000000 		.4byte	.LFE12-.LFB12
 3378 0038 00000000 		.4byte	.LFB14
 3379 003c 54000000 		.4byte	.LFE14-.LFB14
 3380 0040 00000000 		.4byte	.LFB11
 3381 0044 40000000 		.4byte	.LFE11-.LFB11
 3382 0048 00000000 		.4byte	.LFB13
 3383 004c 18000000 		.4byte	.LFE13-.LFB13
 3384 0050 00000000 		.4byte	.LFB15
 3385 0054 18000000 		.4byte	.LFE15-.LFB15
 3386 0058 00000000 		.4byte	.LFB16
 3387 005c 14000000 		.4byte	.LFE16-.LFB16
 3388 0060 00000000 		.4byte	.LFB17
 3389 0064 48000000 		.4byte	.LFE17-.LFB17
 3390 0068 00000000 		.4byte	.LFB18
 3391 006c 50000000 		.4byte	.LFE18-.LFB18
 3392 0070 00000000 		.4byte	.LFB19
 3393 0074 4C000000 		.4byte	.LFE19-.LFB19
 3394 0078 00000000 		.4byte	.LFB20
 3395 007c 4C000000 		.4byte	.LFE20-.LFB20
 3396 0080 00000000 		.4byte	.LFB21
 3397 0084 78000000 		.4byte	.LFE21-.LFB21
 3398 0088 00000000 		.4byte	.LFB22
 3399 008c 68000000 		.4byte	.LFE22-.LFB22
 3400 0090 00000000 		.4byte	.LFB23
 3401 0094 74000000 		.4byte	.LFE23-.LFB23
 3402 0098 00000000 		.4byte	0
 3403 009c 00000000 		.4byte	0
 3404              		.section	.debug_ranges,"",%progbits
 3405              	.Ldebug_ranges0:
 3406 0000 00000000 		.4byte	.LFB7
 3407 0004 38000000 		.4byte	.LFE7
 3408 0008 00000000 		.4byte	.LFB8
 3409 000c 3C000000 		.4byte	.LFE8
 3410 0010 00000000 		.4byte	.LFB9
 3411 0014 28000000 		.4byte	.LFE9
 3412 0018 00000000 		.4byte	.LFB10
 3413 001c 24000000 		.4byte	.LFE10
 3414 0020 00000000 		.4byte	.LFB12
 3415 0024 1C000000 		.4byte	.LFE12
 3416 0028 00000000 		.4byte	.LFB14
 3417 002c 54000000 		.4byte	.LFE14
 3418 0030 00000000 		.4byte	.LFB11
 3419 0034 40000000 		.4byte	.LFE11
 3420 0038 00000000 		.4byte	.LFB13
ARM GAS  /tmp/ccXOaafo.s 			page 61


 3421 003c 18000000 		.4byte	.LFE13
 3422 0040 00000000 		.4byte	.LFB15
 3423 0044 18000000 		.4byte	.LFE15
 3424 0048 00000000 		.4byte	.LFB16
 3425 004c 14000000 		.4byte	.LFE16
 3426 0050 00000000 		.4byte	.LFB17
 3427 0054 48000000 		.4byte	.LFE17
 3428 0058 00000000 		.4byte	.LFB18
 3429 005c 50000000 		.4byte	.LFE18
 3430 0060 00000000 		.4byte	.LFB19
 3431 0064 4C000000 		.4byte	.LFE19
 3432 0068 00000000 		.4byte	.LFB20
 3433 006c 4C000000 		.4byte	.LFE20
 3434 0070 00000000 		.4byte	.LFB21
 3435 0074 78000000 		.4byte	.LFE21
 3436 0078 00000000 		.4byte	.LFB22
 3437 007c 68000000 		.4byte	.LFE22
 3438 0080 00000000 		.4byte	.LFB23
 3439 0084 74000000 		.4byte	.LFE23
 3440 0088 00000000 		.4byte	0
 3441 008c 00000000 		.4byte	0
 3442              		.section	.debug_line,"",%progbits
 3443              	.Ldebug_line0:
 3444 0000 DC020000 		.section	.debug_str,"MS",%progbits,1
 3444      02001301 
 3444      00000201 
 3444      FB0E0D00 
 3444      01010101 
 3445              	.LASF40:
 3446 0000 705F6D73 		.ascii	"p_msg\000"
 3446      6700
 3447              	.LASF68:
 3448 0006 7264796D 		.ascii	"rdymsg\000"
 3448      736700
 3449              	.LASF5:
 3450 000d 5F5F7569 		.ascii	"__uint8_t\000"
 3450      6E74385F 
 3450      7400
 3451              	.LASF82:
 3452 0017 63684576 		.ascii	"chEvtSignal\000"
 3452      74536967 
 3452      6E616C00 
 3453              	.LASF11:
 3454 0023 6C6F6E67 		.ascii	"long long unsigned int\000"
 3454      206C6F6E 
 3454      6720756E 
 3454      7369676E 
 3454      65642069 
 3455              	.LASF78:
 3456 003a 63684576 		.ascii	"chEvtAddEvents\000"
 3456      74416464 
 3456      4576656E 
 3456      747300
 3457              	.LASF69:
 3458 0049 65786974 		.ascii	"exitcode\000"
 3458      636F6465 
 3458      00
ARM GAS  /tmp/ccXOaafo.s 			page 62


 3459              	.LASF92:
 3460 0052 63684576 		.ascii	"chEvtWaitAnyTimeout\000"
 3460      74576169 
 3460      74416E79 
 3460      54696D65 
 3460      6F757400 
 3461              	.LASF28:
 3462 0066 705F7072 		.ascii	"p_prio\000"
 3462      696F00
 3463              	.LASF10:
 3464 006d 6C6F6E67 		.ascii	"long long int\000"
 3464      206C6F6E 
 3464      6720696E 
 3464      7400
 3465              	.LASF1:
 3466 007b 7369676E 		.ascii	"signed char\000"
 3466      65642063 
 3466      68617200 
 3467              	.LASF93:
 3468 0087 63684576 		.ascii	"chEvtWaitAllTimeout\000"
 3468      74576169 
 3468      74416C6C 
 3468      54696D65 
 3468      6F757400 
 3469              	.LASF57:
 3470 009b 6D5F7175 		.ascii	"m_queue\000"
 3470      65756500 
 3471              	.LASF18:
 3472 00a3 74736C69 		.ascii	"tslices_t\000"
 3472      6365735F 
 3472      7400
 3473              	.LASF7:
 3474 00ad 6C6F6E67 		.ascii	"long int\000"
 3474      20696E74 
 3474      00
 3475              	.LASF16:
 3476 00b6 74737461 		.ascii	"tstate_t\000"
 3476      74655F74 
 3476      00
 3477              	.LASF88:
 3478 00bf 63684576 		.ascii	"chEvtWaitAny\000"
 3478      74576169 
 3478      74416E79 
 3478      00
 3479              	.LASF96:
 3480 00cc 63685363 		.ascii	"chSchGoSleepTimeoutS\000"
 3480      68476F53 
 3480      6C656570 
 3480      54696D65 
 3480      6F757453 
 3481              	.LASF81:
 3482 00e1 63684576 		.ascii	"chEvtBroadcastFlagsI\000"
 3482      7442726F 
 3482      61646361 
 3482      7374466C 
 3482      61677349 
 3483              	.LASF30:
ARM GAS  /tmp/ccXOaafo.s 			page 63


 3484 00f6 705F6E65 		.ascii	"p_newer\000"
 3484      77657200 
 3485              	.LASF102:
 3486 00fe 63685363 		.ascii	"chSchRescheduleS\000"
 3486      68526573 
 3486      63686564 
 3486      756C6553 
 3486      00
 3487              	.LASF8:
 3488 010f 5F5F7569 		.ascii	"__uint32_t\000"
 3488      6E743332 
 3488      5F7400
 3489              	.LASF74:
 3490 011a 6D61736B 		.ascii	"mask\000"
 3490      00
 3491              	.LASF46:
 3492 011f 72656761 		.ascii	"regarm_t\000"
 3492      726D5F74 
 3492      00
 3493              	.LASF83:
 3494 0128 63684576 		.ascii	"chEvtBroadcastFlags\000"
 3494      7442726F 
 3494      61646361 
 3494      7374466C 
 3494      61677300 
 3495              	.LASF21:
 3496 013c 6576656E 		.ascii	"eventid_t\000"
 3496      7469645F 
 3496      7400
 3497              	.LASF65:
 3498 0146 4576656E 		.ascii	"EventSource\000"
 3498      74536F75 
 3498      72636500 
 3499              	.LASF67:
 3500 0152 65766861 		.ascii	"evhandler_t\000"
 3500      6E646C65 
 3500      725F7400 
 3501              	.LASF0:
 3502 015e 756E7369 		.ascii	"unsigned int\000"
 3502      676E6564 
 3502      20696E74 
 3502      00
 3503              	.LASF9:
 3504 016b 6C6F6E67 		.ascii	"long unsigned int\000"
 3504      20756E73 
 3504      69676E65 
 3504      6420696E 
 3504      7400
 3505              	.LASF77:
 3506 017d 63684576 		.ascii	"chEvtGetAndClearEvents\000"
 3506      74476574 
 3506      416E6443 
 3506      6C656172 
 3506      4576656E 
 3507              	.LASF48:
 3508 0194 636F6E74 		.ascii	"context\000"
 3508      65787400 
ARM GAS  /tmp/ccXOaafo.s 			page 64


 3509              	.LASF4:
 3510 019c 73686F72 		.ascii	"short unsigned int\000"
 3510      7420756E 
 3510      7369676E 
 3510      65642069 
 3510      6E7400
 3511              	.LASF75:
 3512 01af 63684576 		.ascii	"chEvtRegisterMask\000"
 3512      74526567 
 3512      69737465 
 3512      724D6173 
 3512      6B00
 3513              	.LASF20:
 3514 01c1 6D73675F 		.ascii	"msg_t\000"
 3514      7400
 3515              	.LASF52:
 3516 01c7 725F6E65 		.ascii	"r_newer\000"
 3516      77657200 
 3517              	.LASF61:
 3518 01cf 656C5F6E 		.ascii	"el_next\000"
 3518      65787400 
 3519              	.LASF76:
 3520 01d7 63684576 		.ascii	"chEvtUnregister\000"
 3520      74556E72 
 3520      65676973 
 3520      74657200 
 3521              	.LASF15:
 3522 01e7 746D6F64 		.ascii	"tmode_t\000"
 3522      655F7400 
 3523              	.LASF45:
 3524 01ef 54687265 		.ascii	"ThreadsList\000"
 3524      6164734C 
 3524      69737400 
 3525              	.LASF22:
 3526 01fb 6576656E 		.ascii	"eventmask_t\000"
 3526      746D6173 
 3526      6B5F7400 
 3527              	.LASF56:
 3528 0207 4D757465 		.ascii	"Mutex\000"
 3528      7800
 3529              	.LASF73:
 3530 020d 73697A65 		.ascii	"sizetype\000"
 3530      74797065 
 3530      00
 3531              	.LASF85:
 3532 0216 63684576 		.ascii	"chEvtDispatch\000"
 3532      74446973 
 3532      70617463 
 3532      6800
 3533              	.LASF31:
 3534 0224 705F6F6C 		.ascii	"p_older\000"
 3534      64657200 
 3535              	.LASF51:
 3536 022c 725F6374 		.ascii	"r_ctx\000"
 3536      7800
 3537              	.LASF44:
 3538 0232 54687265 		.ascii	"ThreadsQueue\000"
ARM GAS  /tmp/ccXOaafo.s 			page 65


 3538      61647351 
 3538      75657565 
 3538      00
 3539              	.LASF91:
 3540 023f 74696D65 		.ascii	"time\000"
 3540      00
 3541              	.LASF89:
 3542 0244 63684576 		.ascii	"chEvtWaitAll\000"
 3542      74576169 
 3542      74416C6C 
 3542      00
 3543              	.LASF54:
 3544 0251 725F6375 		.ascii	"r_current\000"
 3544      7272656E 
 3544      7400
 3545              	.LASF53:
 3546 025b 725F6F6C 		.ascii	"r_older\000"
 3546      64657200 
 3547              	.LASF63:
 3548 0263 656C5F6D 		.ascii	"el_mask\000"
 3548      61736B00 
 3549              	.LASF86:
 3550 026b 68616E64 		.ascii	"handlers\000"
 3550      6C657273 
 3550      00
 3551              	.LASF17:
 3552 0274 74726566 		.ascii	"trefs_t\000"
 3552      735F7400 
 3553              	.LASF27:
 3554 027c 705F7072 		.ascii	"p_prev\000"
 3554      657600
 3555              	.LASF19:
 3556 0283 74707269 		.ascii	"tprio_t\000"
 3556      6F5F7400 
 3557              	.LASF13:
 3558 028b 696E7433 		.ascii	"int32_t\000"
 3558      325F7400 
 3559              	.LASF2:
 3560 0293 756E7369 		.ascii	"unsigned char\000"
 3560      676E6564 
 3560      20636861 
 3560      7200
 3561              	.LASF87:
 3562 02a1 63684576 		.ascii	"chEvtWaitOne\000"
 3562      74576169 
 3562      744F6E65 
 3562      00
 3563              	.LASF62:
 3564 02ae 656C5F6C 		.ascii	"el_listener\000"
 3564      69737465 
 3564      6E657200 
 3565              	.LASF64:
 3566 02ba 656C5F66 		.ascii	"el_flags\000"
 3566      6C616773 
 3566      00
 3567              	.LASF42:
 3568 02c3 705F6D74 		.ascii	"p_mtxlist\000"
ARM GAS  /tmp/ccXOaafo.s 			page 66


 3568      786C6973 
 3568      7400
 3569              	.LASF3:
 3570 02cd 73686F72 		.ascii	"short int\000"
 3570      7420696E 
 3570      7400
 3571              	.LASF33:
 3572 02d7 705F7374 		.ascii	"p_state\000"
 3572      61746500 
 3573              	.LASF36:
 3574 02df 705F7072 		.ascii	"p_preempt\000"
 3574      65656D70 
 3574      7400
 3575              	.LASF50:
 3576 02e9 725F7072 		.ascii	"r_prio\000"
 3576      696F00
 3577              	.LASF84:
 3578 02f0 63684576 		.ascii	"chEvtGetAndClearFlagsI\000"
 3578      74476574 
 3578      416E6443 
 3578      6C656172 
 3578      466C6167 
 3579              	.LASF71:
 3580 0307 65776D61 		.ascii	"ewmask\000"
 3580      736B00
 3581              	.LASF26:
 3582 030e 705F6E65 		.ascii	"p_next\000"
 3582      787400
 3583              	.LASF34:
 3584 0315 705F666C 		.ascii	"p_flags\000"
 3584      61677300 
 3585              	.LASF25:
 3586 031d 54687265 		.ascii	"Thread\000"
 3586      616400
 3587              	.LASF95:
 3588 0324 63685363 		.ascii	"chSchGoSleepS\000"
 3588      68476F53 
 3588      6C656570 
 3588      5300
 3589              	.LASF41:
 3590 0332 705F6570 		.ascii	"p_epending\000"
 3590      656E6469 
 3590      6E6700
 3591              	.LASF14:
 3592 033d 75696E74 		.ascii	"uint32_t\000"
 3592      33325F74 
 3592      00
 3593              	.LASF49:
 3594 0346 725F7175 		.ascii	"r_queue\000"
 3594      65756500 
 3595              	.LASF101:
 3596 034e 63685363 		.ascii	"chSchReadyI\000"
 3596      68526561 
 3596      64794900 
 3597              	.LASF72:
 3598 035a 63686172 		.ascii	"char\000"
 3598      00
ARM GAS  /tmp/ccXOaafo.s 			page 67


 3599              	.LASF59:
 3600 035f 6D5F6E65 		.ascii	"m_next\000"
 3600      787400
 3601              	.LASF24:
 3602 0366 73797374 		.ascii	"systime_t\000"
 3602      696D655F 
 3602      7400
 3603              	.LASF43:
 3604 0370 705F7265 		.ascii	"p_realprio\000"
 3604      616C7072 
 3604      696F00
 3605              	.LASF6:
 3606 037b 5F5F696E 		.ascii	"__int32_t\000"
 3606      7433325F 
 3606      7400
 3607              	.LASF37:
 3608 0385 705F7469 		.ascii	"p_time\000"
 3608      6D6500
 3609              	.LASF47:
 3610 038c 696E7463 		.ascii	"intctx\000"
 3610      747800
 3611              	.LASF39:
 3612 0393 705F6D73 		.ascii	"p_msgqueue\000"
 3612      67717565 
 3612      756500
 3613              	.LASF99:
 3614 039e 2F686F6D 		.ascii	"/home/hunter/development/chibi/ChibiOS-RPi/demos/AR"
 3614      652F6875 
 3614      6E746572 
 3614      2F646576 
 3614      656C6F70 
 3615 03d1 4D31312D 		.ascii	"M11-BCM2835-GCC\000"
 3615      42434D32 
 3615      3833352D 
 3615      47434300 
 3616              	.LASF23:
 3617 03e1 666C6167 		.ascii	"flagsmask_t\000"
 3617      736D6173 
 3617      6B5F7400 
 3618              	.LASF35:
 3619 03ed 705F7265 		.ascii	"p_refs\000"
 3619      667300
 3620              	.LASF55:
 3621 03f4 52656164 		.ascii	"ReadyList\000"
 3621      794C6973 
 3621      7400
 3622              	.LASF100:
 3623 03fe 726C6973 		.ascii	"rlist\000"
 3623      7400
 3624              	.LASF12:
 3625 0404 75696E74 		.ascii	"uint8_t\000"
 3625      385F7400 
 3626              	.LASF80:
 3627 040c 666C6167 		.ascii	"flags\000"
 3627      7300
 3628              	.LASF98:
 3629 0412 2E2E2F2E 		.ascii	"../../os/kernel/src/chevents.c\000"
ARM GAS  /tmp/ccXOaafo.s 			page 68


 3629      2E2F6F73 
 3629      2F6B6572 
 3629      6E656C2F 
 3629      7372632F 
 3630              	.LASF60:
 3631 0431 4576656E 		.ascii	"EventListener\000"
 3631      744C6973 
 3631      74656E65 
 3631      7200
 3632              	.LASF90:
 3633 043f 63684576 		.ascii	"chEvtWaitOneTimeout\000"
 3633      74576169 
 3633      744F6E65 
 3633      54696D65 
 3633      6F757400 
 3634              	.LASF70:
 3635 0453 77746F62 		.ascii	"wtobjp\000"
 3635      6A7000
 3636              	.LASF32:
 3637 045a 705F6E61 		.ascii	"p_name\000"
 3637      6D6500
 3638              	.LASF97:
 3639 0461 474E5520 		.ascii	"GNU C 4.9.3 20150529 (prerelease) -mcpu=arm1176jz-s"
 3639      4320342E 
 3639      392E3320 
 3639      32303135 
 3639      30353239 
 3640 0494 202D6D6E 		.ascii	" -mno-thumb-interwork -ggdb -O2 -fomit-frame-pointe"
 3640      6F2D7468 
 3640      756D622D 
 3640      696E7465 
 3640      72776F72 
 3641 04c7 72202D66 		.ascii	"r -ffunction-sections -fdata-sections\000"
 3641      66756E63 
 3641      74696F6E 
 3641      2D736563 
 3641      74696F6E 
 3642              	.LASF66:
 3643 04ed 65735F6E 		.ascii	"es_next\000"
 3643      65787400 
 3644              	.LASF79:
 3645 04f5 63684576 		.ascii	"chEvtGetAndClearFlags\000"
 3645      74476574 
 3645      416E6443 
 3645      6C656172 
 3645      466C6167 
 3646              	.LASF58:
 3647 050b 6D5F6F77 		.ascii	"m_owner\000"
 3647      6E657200 
 3648              	.LASF29:
 3649 0513 705F6374 		.ascii	"p_ctx\000"
 3649      7800
 3650              	.LASF38:
 3651 0519 705F7761 		.ascii	"p_waiting\000"
 3651      6974696E 
 3651      6700
 3652              	.LASF94:
ARM GAS  /tmp/ccXOaafo.s 			page 69


 3653 0523 63684576 		.ascii	"chEvtSignalI\000"
 3653      74536967 
 3653      6E616C49 
 3653      00
 3654              		.ident	"GCC: (15:4.9.3+svn231177-1) 4.9.3 20150529 (prerelease)"
ARM GAS  /tmp/ccXOaafo.s 			page 70


DEFINED SYMBOLS
                            *ABS*:0000000000000000 chevents.c
     /tmp/ccXOaafo.s:17     .text.chEvtRegisterMask:0000000000000000 $a
     /tmp/ccXOaafo.s:20     .text.chEvtRegisterMask:0000000000000000 chEvtRegisterMask
     /tmp/ccXOaafo.s:61     .text.chEvtRegisterMask:0000000000000034 $d
     /tmp/ccXOaafo.s:66     .text.chEvtUnregister:0000000000000000 $a
     /tmp/ccXOaafo.s:69     .text.chEvtUnregister:0000000000000000 chEvtUnregister
     /tmp/ccXOaafo.s:115    .text.chEvtGetAndClearEvents:0000000000000000 $a
     /tmp/ccXOaafo.s:118    .text.chEvtGetAndClearEvents:0000000000000000 chEvtGetAndClearEvents
     /tmp/ccXOaafo.s:149    .text.chEvtGetAndClearEvents:0000000000000024 $d
     /tmp/ccXOaafo.s:154    .text.chEvtAddEvents:0000000000000000 $a
     /tmp/ccXOaafo.s:157    .text.chEvtAddEvents:0000000000000000 chEvtAddEvents
     /tmp/ccXOaafo.s:186    .text.chEvtAddEvents:0000000000000020 $d
     /tmp/ccXOaafo.s:191    .text.chEvtGetAndClearFlags:0000000000000000 $a
     /tmp/ccXOaafo.s:194    .text.chEvtGetAndClearFlags:0000000000000000 chEvtGetAndClearFlags
     /tmp/ccXOaafo.s:225    .text.chEvtSignalI:0000000000000000 $a
     /tmp/ccXOaafo.s:228    .text.chEvtSignalI:0000000000000000 chEvtSignalI
     /tmp/ccXOaafo.s:285    .text.chEvtBroadcastFlagsI:0000000000000000 $a
     /tmp/ccXOaafo.s:288    .text.chEvtBroadcastFlagsI:0000000000000000 chEvtBroadcastFlagsI
     /tmp/ccXOaafo.s:336    .text.chEvtSignal:0000000000000000 $a
     /tmp/ccXOaafo.s:339    .text.chEvtSignal:0000000000000000 chEvtSignal
     /tmp/ccXOaafo.s:369    .text.chEvtBroadcastFlags:0000000000000000 $a
     /tmp/ccXOaafo.s:372    .text.chEvtBroadcastFlags:0000000000000000 chEvtBroadcastFlags
     /tmp/ccXOaafo.s:402    .text.chEvtGetAndClearFlagsI:0000000000000000 $a
     /tmp/ccXOaafo.s:405    .text.chEvtGetAndClearFlagsI:0000000000000000 chEvtGetAndClearFlagsI
     /tmp/ccXOaafo.s:428    .text.chEvtDispatch:0000000000000000 $a
     /tmp/ccXOaafo.s:431    .text.chEvtDispatch:0000000000000000 chEvtDispatch
     /tmp/ccXOaafo.s:482    .text.chEvtWaitOne:0000000000000000 $a
     /tmp/ccXOaafo.s:485    .text.chEvtWaitOne:0000000000000000 chEvtWaitOne
     /tmp/ccXOaafo.s:541    .text.chEvtWaitOne:000000000000004c $d
     /tmp/ccXOaafo.s:546    .text.chEvtWaitAny:0000000000000000 $a
     /tmp/ccXOaafo.s:549    .text.chEvtWaitAny:0000000000000000 chEvtWaitAny
     /tmp/ccXOaafo.s:603    .text.chEvtWaitAny:0000000000000048 $d
     /tmp/ccXOaafo.s:608    .text.chEvtWaitAll:0000000000000000 $a
     /tmp/ccXOaafo.s:611    .text.chEvtWaitAll:0000000000000000 chEvtWaitAll
     /tmp/ccXOaafo.s:662    .text.chEvtWaitAll:0000000000000048 $d
     /tmp/ccXOaafo.s:667    .text.chEvtWaitOneTimeout:0000000000000000 $a
     /tmp/ccXOaafo.s:670    .text.chEvtWaitOneTimeout:0000000000000000 chEvtWaitOneTimeout
     /tmp/ccXOaafo.s:752    .text.chEvtWaitOneTimeout:0000000000000074 $d
     /tmp/ccXOaafo.s:757    .text.chEvtWaitAnyTimeout:0000000000000000 $a
     /tmp/ccXOaafo.s:760    .text.chEvtWaitAnyTimeout:0000000000000000 chEvtWaitAnyTimeout
     /tmp/ccXOaafo.s:832    .text.chEvtWaitAnyTimeout:0000000000000064 $d
     /tmp/ccXOaafo.s:837    .text.chEvtWaitAllTimeout:0000000000000000 $a
     /tmp/ccXOaafo.s:840    .text.chEvtWaitAllTimeout:0000000000000000 chEvtWaitAllTimeout
     /tmp/ccXOaafo.s:913    .text.chEvtWaitAllTimeout:0000000000000070 $d
                     .debug_frame:0000000000000010 $d

UNDEFINED SYMBOLS
rlist
chSchReadyI
chSchRescheduleS
chSchGoSleepS
chSchGoSleepTimeoutS
