ARM GAS  /tmp/ccXOaafo.s 			page 1


   1              		.cpu arm1176jz-s
   2              		.fpu softvfp
   3              		.eabi_attribute 20, 1
   4              		.eabi_attribute 21, 1
   5              		.eabi_attribute 23, 3
   6              		.eabi_attribute 24, 1
   7              		.eabi_attribute 25, 1
   8              		.eabi_attribute 26, 1
   9              		.eabi_attribute 30, 2
  10              		.eabi_attribute 34, 1
  11              		.eabi_attribute 18, 4
  12              		.file	"chevents.c"
  13              		.text
  14              	.Ltext0:
  15              		.cfi_sections	.debug_frame
  16              		.section	.text.chEvtRegisterMask,"ax",%progbits
  17              		.align	2
  18              		.global	chEvtRegisterMask
  19              		.type	chEvtRegisterMask, %function
  20              	chEvtRegisterMask:
  21              	.LFB7:
  22              		.file 1 "../../os/kernel/src/chevents.c"
  23              		.loc 1 78 0
  24              		.cfi_startproc
  25              		@ args = 0, pretend = 0, frame = 0
  26              		@ frame_needed = 0, uses_anonymous_args = 0
  27              	.LVL0:
  28 0000 04E02DE5 		str	lr, [sp, #-4]!
  29              		.cfi_def_cfa_offset 4
  30              		.cfi_offset 14, -4
  31              		.loc 1 82 0
  32              	@ 82 "../../os/kernel/src/chevents.c" 1
  33 0004 9FF021E3 		msr     CPSR_c, #0x9F
  34              	@ 0 "" 2
  35              		.loc 1 87 0
  36 0008 0030A0E3 		mov	r3, #0
  37              		.loc 1 85 0
  38 000c 20C09FE5 		ldr	ip, .L3
  39              		.loc 1 83 0
  40 0010 00E090E5 		ldr	lr, [r0]
  41              		.loc 1 85 0
  42 0014 18C09CE5 		ldr	ip, [ip, #24]
  43              		.loc 1 83 0
  44 0018 00E081E5 		str	lr, [r1]
  45              		.loc 1 84 0
  46 001c 001080E5 		str	r1, [r0]
  47              		.loc 1 85 0
  48 0020 04C081E5 		str	ip, [r1, #4]
  49              		.loc 1 86 0
  50 0024 082081E5 		str	r2, [r1, #8]
  51              		.loc 1 87 0
  52 0028 0C3081E5 		str	r3, [r1, #12]
  53              		.loc 1 88 0
  54              	@ 88 "../../os/kernel/src/chevents.c" 1
  55 002c 1FF021E3 		msr     CPSR_c, #0x1F
  56              	@ 0 "" 2
  57 0030 04F09DE4 		ldr	pc, [sp], #4
ARM GAS  /tmp/ccXOaafo.s 			page 2


  58              	.L4:
  59              		.align	2
  60              	.L3:
  61 0034 00000000 		.word	rlist
  62              		.cfi_endproc
  63              	.LFE7:
  64              		.size	chEvtRegisterMask, .-chEvtRegisterMask
  65              		.section	.text.chEvtUnregister,"ax",%progbits
  66              		.align	2
  67              		.global	chEvtUnregister
  68              		.type	chEvtUnregister, %function
  69              	chEvtUnregister:
  70              	.LFB8:
  71              		.loc 1 104 0
  72              		.cfi_startproc
  73              		@ args = 0, pretend = 0, frame = 0
  74              		@ frame_needed = 0, uses_anonymous_args = 0
  75              		@ link register save eliminated.
  76              	.LVL1:
  77              		.loc 1 110 0
  78              	@ 110 "../../os/kernel/src/chevents.c" 1
  79 0000 9FF021E3 		msr     CPSR_c, #0x9F
  80              	@ 0 "" 2
  81              		.loc 1 109 0
  82 0004 0020A0E1 		mov	r2, r0
  83              		.loc 1 111 0
  84 0008 020000EA 		b	.L6
  85              	.LVL2:
  86              	.L8:
  87              		.loc 1 112 0
  88 000c 030051E1 		cmp	r1, r3
  89 0010 0500000A 		beq	.L11
  90 0014 0320A0E1 		mov	r2, r3
  91              	.LVL3:
  92              	.L6:
  93              		.loc 1 111 0
  94 0018 003092E5 		ldr	r3, [r2]
  95 001c 000053E1 		cmp	r3, r0
  96 0020 F9FFFF1A 		bne	.L8
  97              		.loc 1 118 0
  98              	@ 118 "../../os/kernel/src/chevents.c" 1
  99 0024 1FF021E3 		msr     CPSR_c, #0x1F
 100              	@ 0 "" 2
 101 0028 1EFF2FE1 		bx	lr
 102              	.L11:
 103              		.loc 1 113 0
 104 002c 003091E5 		ldr	r3, [r1]
 105 0030 003082E5 		str	r3, [r2]
 106              		.loc 1 118 0
 107              	@ 118 "../../os/kernel/src/chevents.c" 1
 108 0034 1FF021E3 		msr     CPSR_c, #0x1F
 109              	@ 0 "" 2
 110 0038 1EFF2FE1 		bx	lr
 111              		.cfi_endproc
 112              	.LFE8:
 113              		.size	chEvtUnregister, .-chEvtUnregister
 114              		.section	.text.chEvtGetAndClearEvents,"ax",%progbits
ARM GAS  /tmp/ccXOaafo.s 			page 3


 115              		.align	2
 116              		.global	chEvtGetAndClearEvents
 117              		.type	chEvtGetAndClearEvents, %function
 118              	chEvtGetAndClearEvents:
 119              	.LFB9:
 120              		.loc 1 129 0
 121              		.cfi_startproc
 122              		@ args = 0, pretend = 0, frame = 0
 123              		@ frame_needed = 0, uses_anonymous_args = 0
 124              		@ link register save eliminated.
 125              	.LVL4:
 126              		.loc 1 132 0
 127              	@ 132 "../../os/kernel/src/chevents.c" 1
 128 0000 9FF021E3 		msr     CPSR_c, #0x9F
 129              	@ 0 "" 2
 130              		.loc 1 134 0
 131 0004 18309FE5 		ldr	r3, .L13
 132 0008 182093E5 		ldr	r2, [r3, #24]
 133 000c 383092E5 		ldr	r3, [r2, #56]
 134              	.LVL5:
 135              		.loc 1 135 0
 136 0010 0010C3E1 		bic	r1, r3, r0
 137 0014 381082E5 		str	r1, [r2, #56]
 138              		.loc 1 137 0
 139              	@ 137 "../../os/kernel/src/chevents.c" 1
 140 0018 1FF021E3 		msr     CPSR_c, #0x1F
 141              	@ 0 "" 2
 142              		.loc 1 139 0
 143 001c 030000E0 		and	r0, r0, r3
 144              	.LVL6:
 145 0020 1EFF2FE1 		bx	lr
 146              	.L14:
 147              		.align	2
 148              	.L13:
 149 0024 00000000 		.word	rlist
 150              		.cfi_endproc
 151              	.LFE9:
 152              		.size	chEvtGetAndClearEvents, .-chEvtGetAndClearEvents
 153              		.section	.text.chEvtAddEvents,"ax",%progbits
 154              		.align	2
 155              		.global	chEvtAddEvents
 156              		.type	chEvtAddEvents, %function
 157              	chEvtAddEvents:
 158              	.LFB10:
 159              		.loc 1 150 0
 160              		.cfi_startproc
 161              		@ args = 0, pretend = 0, frame = 0
 162              		@ frame_needed = 0, uses_anonymous_args = 0
 163              		@ link register save eliminated.
 164              	.LVL7:
 165              		.loc 1 152 0
 166              	@ 152 "../../os/kernel/src/chevents.c" 1
 167 0000 9FF021E3 		msr     CPSR_c, #0x9F
 168              	@ 0 "" 2
 169              		.loc 1 154 0
 170 0004 14309FE5 		ldr	r3, .L16
 171 0008 182093E5 		ldr	r2, [r3, #24]
ARM GAS  /tmp/ccXOaafo.s 			page 4


 172 000c 383092E5 		ldr	r3, [r2, #56]
 173 0010 030080E1 		orr	r0, r0, r3
 174              	.LVL8:
 175 0014 380082E5 		str	r0, [r2, #56]
 176              	.LVL9:
 177              		.loc 1 156 0
 178              	@ 156 "../../os/kernel/src/chevents.c" 1
 179 0018 1FF021E3 		msr     CPSR_c, #0x1F
 180              	@ 0 "" 2
 181              		.loc 1 158 0
 182 001c 1EFF2FE1 		bx	lr
 183              	.L17:
 184              		.align	2
 185              	.L16:
 186 0020 00000000 		.word	rlist
 187              		.cfi_endproc
 188              	.LFE10:
 189              		.size	chEvtAddEvents, .-chEvtAddEvents
 190              		.section	.text.chEvtGetAndClearFlags,"ax",%progbits
 191              		.align	2
 192              		.global	chEvtGetAndClearFlags
 193              		.type	chEvtGetAndClearFlags, %function
 194              	chEvtGetAndClearFlags:
 195              	.LFB12:
 196              		.loc 1 202 0
 197              		.cfi_startproc
 198              		@ args = 0, pretend = 0, frame = 0
 199              		@ frame_needed = 0, uses_anonymous_args = 0
 200              		@ link register save eliminated.
 201              	.LVL10:
 202              		.loc 1 202 0
 203 0000 0030A0E1 		mov	r3, r0
 204              		.loc 1 205 0
 205              	@ 205 "../../os/kernel/src/chevents.c" 1
 206 0004 9FF021E3 		msr     CPSR_c, #0x9F
 207              	@ 0 "" 2
 208              		.loc 1 208 0
 209 0008 0020A0E3 		mov	r2, #0
 210              		.loc 1 207 0
 211 000c 0C0090E5 		ldr	r0, [r0, #12]
 212              	.LVL11:
 213              		.loc 1 208 0
 214 0010 0C2083E5 		str	r2, [r3, #12]
 215              		.loc 1 210 0
 216              	@ 210 "../../os/kernel/src/chevents.c" 1
 217 0014 1FF021E3 		msr     CPSR_c, #0x1F
 218              	@ 0 "" 2
 219              		.loc 1 212 0
 220 0018 1EFF2FE1 		bx	lr
 221              		.cfi_endproc
 222              	.LFE12:
 223              		.size	chEvtGetAndClearFlags, .-chEvtGetAndClearFlags
 224              		.section	.text.chEvtSignalI,"ax",%progbits
 225              		.align	2
 226              		.global	chEvtSignalI
 227              		.type	chEvtSignalI, %function
 228              	chEvtSignalI:
ARM GAS  /tmp/ccXOaafo.s 			page 5


 229              	.LFB14:
 230              		.loc 1 244 0
 231              		.cfi_startproc
 232              		@ args = 0, pretend = 0, frame = 0
 233              		@ frame_needed = 0, uses_anonymous_args = 0
 234              	.LVL12:
 235 0000 08402DE9 		stmfd	sp!, {r3, lr}
 236              		.cfi_def_cfa_offset 8
 237              		.cfi_offset 3, -8
 238              		.cfi_offset 14, -4
 239              		.loc 1 249 0
 240 0004 383090E5 		ldr	r3, [r0, #56]
 241              		.loc 1 251 0
 242 0008 1C20D0E5 		ldrb	r2, [r0, #28]	@ zero_extendqisi2
 243              		.loc 1 249 0
 244 000c 031081E1 		orr	r1, r1, r3
 245              	.LVL13:
 246              		.loc 1 251 0
 247 0010 080052E3 		cmp	r2, #8
 248              		.loc 1 249 0
 249 0014 381080E5 		str	r1, [r0, #56]
 250              		.loc 1 251 0
 251 0018 0900000A 		beq	.L24
 252              		.loc 1 252 0
 253 001c 090052E3 		cmp	r2, #9
 254 0020 0880BD18 		ldmnefd	sp!, {r3, pc}
 255              		.loc 1 254 0
 256 0024 243090E5 		ldr	r3, [r0, #36]
 257 0028 031001E0 		and	r1, r1, r3
 258              		.loc 1 253 0
 259 002c 010053E1 		cmp	r3, r1
 260 0030 0880BD18 		ldmnefd	sp!, {r3, pc}
 261              	.L21:
 262              	.LVL14:
 263              	.LBB4:
 264              	.LBB5:
 265              		.loc 1 255 0
 266 0034 FEFFFFEB 		bl	chSchReadyI
 267              	.LVL15:
 268 0038 0030A0E3 		mov	r3, #0
 269 003c 243080E5 		str	r3, [r0, #36]
 270 0040 0880BDE8 		ldmfd	sp!, {r3, pc}
 271              	.LVL16:
 272              	.L24:
 273              	.LBE5:
 274              	.LBE4:
 275              		.loc 1 252 0 discriminator 1
 276 0044 243090E5 		ldr	r3, [r0, #36]
 277              		.loc 1 251 0 discriminator 1
 278 0048 030011E1 		tst	r1, r3
 279 004c 0880BD08 		ldmeqfd	sp!, {r3, pc}
 280 0050 F7FFFFEA 		b	.L21
 281              		.cfi_endproc
 282              	.LFE14:
 283              		.size	chEvtSignalI, .-chEvtSignalI
 284              		.section	.text.chEvtBroadcastFlagsI,"ax",%progbits
 285              		.align	2
ARM GAS  /tmp/ccXOaafo.s 			page 6


 286              		.global	chEvtBroadcastFlagsI
 287              		.type	chEvtBroadcastFlagsI, %function
 288              	chEvtBroadcastFlagsI:
 289              	.LFB11:
 290              		.loc 1 177 0
 291              		.cfi_startproc
 292              		@ args = 0, pretend = 0, frame = 0
 293              		@ frame_needed = 0, uses_anonymous_args = 0
 294              	.LVL17:
 295 0000 70402DE9 		stmfd	sp!, {r4, r5, r6, lr}
 296              		.cfi_def_cfa_offset 16
 297              		.cfi_offset 4, -16
 298              		.cfi_offset 5, -12
 299              		.cfi_offset 6, -8
 300              		.cfi_offset 14, -4
 301              		.loc 1 183 0
 302 0004 004090E5 		ldr	r4, [r0]
 303              	.LVL18:
 304              		.loc 1 177 0
 305 0008 0050A0E1 		mov	r5, r0
 306              		.loc 1 184 0
 307 000c 040050E1 		cmp	r0, r4
 308              		.loc 1 177 0
 309 0010 0160A0E1 		mov	r6, r1
 310              		.loc 1 184 0
 311 0014 7080BD08 		ldmeqfd	sp!, {r4, r5, r6, pc}
 312              	.LVL19:
 313              	.L27:
 314              		.loc 1 185 0
 315 0018 0C3094E5 		ldr	r3, [r4, #12]
 316              		.loc 1 186 0
 317 001c 040094E5 		ldr	r0, [r4, #4]
 318              		.loc 1 185 0
 319 0020 063083E1 		orr	r3, r3, r6
 320 0024 0C3084E5 		str	r3, [r4, #12]
 321              		.loc 1 186 0
 322 0028 081094E5 		ldr	r1, [r4, #8]
 323 002c FEFFFFEB 		bl	chEvtSignalI
 324              	.LVL20:
 325              		.loc 1 187 0
 326 0030 004094E5 		ldr	r4, [r4]
 327              	.LVL21:
 328              		.loc 1 184 0
 329 0034 040055E1 		cmp	r5, r4
 330 0038 F6FFFF1A 		bne	.L27
 331 003c 7080BDE8 		ldmfd	sp!, {r4, r5, r6, pc}
 332              		.cfi_endproc
 333              	.LFE11:
 334              		.size	chEvtBroadcastFlagsI, .-chEvtBroadcastFlagsI
 335              		.section	.text.chEvtSignal,"ax",%progbits
 336              		.align	2
 337              		.global	chEvtSignal
 338              		.type	chEvtSignal, %function
 339              	chEvtSignal:
 340              	.LFB13:
 341              		.loc 1 222 0
 342              		.cfi_startproc
ARM GAS  /tmp/ccXOaafo.s 			page 7


 343              		@ args = 0, pretend = 0, frame = 0
 344              		@ frame_needed = 0, uses_anonymous_args = 0
 345              	.LVL22:
 346 0000 08402DE9 		stmfd	sp!, {r3, lr}
 347              		.cfi_def_cfa_offset 8
 348              		.cfi_offset 3, -8
 349              		.cfi_offset 14, -4
 350              		.loc 1 226 0
 351              	@ 226 "../../os/kernel/src/chevents.c" 1
 352 0004 9FF021E3 		msr     CPSR_c, #0x9F
 353              	@ 0 "" 2
 354              		.loc 1 227 0
 355 0008 FEFFFFEB 		bl	chEvtSignalI
 356              	.LVL23:
 357              		.loc 1 228 0
 358 000c FEFFFFEB 		bl	chSchRescheduleS
 359              	.LVL24:
 360              		.loc 1 229 0
 361              	@ 229 "../../os/kernel/src/chevents.c" 1
 362 0010 1FF021E3 		msr     CPSR_c, #0x1F
 363              	@ 0 "" 2
 364 0014 0880BDE8 		ldmfd	sp!, {r3, pc}
 365              		.cfi_endproc
 366              	.LFE13:
 367              		.size	chEvtSignal, .-chEvtSignal
 368              		.section	.text.chEvtBroadcastFlags,"ax",%progbits
 369              		.align	2
 370              		.global	chEvtBroadcastFlags
 371              		.type	chEvtBroadcastFlags, %function
 372              	chEvtBroadcastFlags:
 373              	.LFB15:
 374              		.loc 1 271 0
 375              		.cfi_startproc
 376              		@ args = 0, pretend = 0, frame = 0
 377              		@ frame_needed = 0, uses_anonymous_args = 0
 378              	.LVL25:
 379 0000 08402DE9 		stmfd	sp!, {r3, lr}
 380              		.cfi_def_cfa_offset 8
 381              		.cfi_offset 3, -8
 382              		.cfi_offset 14, -4
 383              		.loc 1 273 0
 384              	@ 273 "../../os/kernel/src/chevents.c" 1
 385 0004 9FF021E3 		msr     CPSR_c, #0x9F
 386              	@ 0 "" 2
 387              		.loc 1 274 0
 388 0008 FEFFFFEB 		bl	chEvtBroadcastFlagsI
 389              	.LVL26:
 390              		.loc 1 275 0
 391 000c FEFFFFEB 		bl	chSchRescheduleS
 392              	.LVL27:
 393              		.loc 1 276 0
 394              	@ 276 "../../os/kernel/src/chevents.c" 1
 395 0010 1FF021E3 		msr     CPSR_c, #0x1F
 396              	@ 0 "" 2
 397 0014 0880BDE8 		ldmfd	sp!, {r3, pc}
 398              		.cfi_endproc
 399              	.LFE15:
ARM GAS  /tmp/ccXOaafo.s 			page 8


 400              		.size	chEvtBroadcastFlags, .-chEvtBroadcastFlags
 401              		.section	.text.chEvtGetAndClearFlagsI,"ax",%progbits
 402              		.align	2
 403              		.global	chEvtGetAndClearFlagsI
 404              		.type	chEvtGetAndClearFlagsI, %function
 405              	chEvtGetAndClearFlagsI:
 406              	.LFB16:
 407              		.loc 1 290 0
 408              		.cfi_startproc
 409              		@ args = 0, pretend = 0, frame = 0
 410              		@ frame_needed = 0, uses_anonymous_args = 0
 411              		@ link register save eliminated.
 412              	.LVL28:
 413              		.loc 1 290 0
 414 0000 0030A0E1 		mov	r3, r0
 415              		.loc 1 294 0
 416 0004 0020A0E3 		mov	r2, #0
 417              		.loc 1 293 0
 418 0008 0C0090E5 		ldr	r0, [r0, #12]
 419              	.LVL29:
 420              		.loc 1 294 0
 421 000c 0C2083E5 		str	r2, [r3, #12]
 422              		.loc 1 297 0
 423 0010 1EFF2FE1 		bx	lr
 424              		.cfi_endproc
 425              	.LFE16:
 426              		.size	chEvtGetAndClearFlagsI, .-chEvtGetAndClearFlagsI
 427              		.section	.text.chEvtDispatch,"ax",%progbits
 428              		.align	2
 429              		.global	chEvtDispatch
 430              		.type	chEvtDispatch, %function
 431              	chEvtDispatch:
 432              	.LFB17:
 433              		.loc 1 308 0
 434              		.cfi_startproc
 435              		@ args = 0, pretend = 0, frame = 0
 436              		@ frame_needed = 0, uses_anonymous_args = 0
 437              	.LVL30:
 438 0000 F8402DE9 		stmfd	sp!, {r3, r4, r5, r6, r7, lr}
 439              		.cfi_def_cfa_offset 24
 440              		.cfi_offset 3, -24
 441              		.cfi_offset 4, -20
 442              		.cfi_offset 5, -16
 443              		.cfi_offset 6, -12
 444              		.cfi_offset 7, -8
 445              		.cfi_offset 14, -4
 446              		.loc 1 314 0
 447 0004 005051E2 		subs	r5, r1, #0
 448 0008 F880BD08 		ldmeqfd	sp!, {r3, r4, r5, r6, r7, pc}
 449 000c 0070A0E1 		mov	r7, r0
 450 0010 0040A0E3 		mov	r4, #0
 451              		.loc 1 315 0
 452 0014 0160A0E3 		mov	r6, #1
 453              	.LVL31:
 454              	.L38:
 455 0018 1634A0E1 		mov	r3, r6, asl r4
 456 001c 050013E1 		tst	r3, r5
ARM GAS  /tmp/ccXOaafo.s 			page 9


 457              		.loc 1 322 0
 458 0020 01408402 		addeq	r4, r4, #1
 459              	.LVL32:
 460              		.loc 1 315 0
 461 0024 FBFFFF0A 		beq	.L38
 462              		.loc 1 319 0
 463 0028 0350C5E1 		bic	r5, r5, r3
 464              	.LVL33:
 465              		.loc 1 320 0
 466 002c 0400A0E1 		mov	r0, r4
 467 0030 043197E7 		ldr	r3, [r7, r4, asl #2]
 468 0034 33FF2FE1 		blx	r3
 469              	.LVL34:
 470              		.loc 1 314 0
 471 0038 000055E3 		cmp	r5, #0
 472              		.loc 1 322 0
 473 003c 014084E2 		add	r4, r4, #1
 474              	.LVL35:
 475              		.loc 1 314 0
 476 0040 F4FFFF1A 		bne	.L38
 477 0044 F880BDE8 		ldmfd	sp!, {r3, r4, r5, r6, r7, pc}
 478              		.cfi_endproc
 479              	.LFE17:
 480              		.size	chEvtDispatch, .-chEvtDispatch
 481              		.section	.text.chEvtWaitOne,"ax",%progbits
 482              		.align	2
 483              		.global	chEvtWaitOne
 484              		.type	chEvtWaitOne, %function
 485              	chEvtWaitOne:
 486              	.LFB18:
 487              		.loc 1 343 0
 488              		.cfi_startproc
 489              		@ args = 0, pretend = 0, frame = 0
 490              		@ frame_needed = 0, uses_anonymous_args = 0
 491              	.LVL36:
 492 0000 38402DE9 		stmfd	sp!, {r3, r4, r5, lr}
 493              		.cfi_def_cfa_offset 16
 494              		.cfi_offset 3, -16
 495              		.cfi_offset 4, -12
 496              		.cfi_offset 5, -8
 497              		.cfi_offset 14, -4
 498              		.loc 1 344 0
 499 0004 40309FE5 		ldr	r3, .L46
 500 0008 185093E5 		ldr	r5, [r3, #24]
 501              	.LVL37:
 502              		.loc 1 347 0
 503              	@ 347 "../../os/kernel/src/chevents.c" 1
 504 000c 9FF021E3 		msr     CPSR_c, #0x9F
 505              	@ 0 "" 2
 506              		.loc 1 349 0
 507 0010 383095E5 		ldr	r3, [r5, #56]
 508              	.LVL38:
 509 0014 032010E0 		ands	r2, r0, r3
 510              	.LVL39:
 511 0018 0500001A 		bne	.L44
 512 001c 0040A0E1 		mov	r4, r0
 513              		.loc 1 350 0
ARM GAS  /tmp/ccXOaafo.s 			page 10


 514 0020 240085E5 		str	r0, [r5, #36]
 515              		.loc 1 351 0
 516 0024 0800A0E3 		mov	r0, #8
 517              	.LVL40:
 518 0028 FEFFFFEB 		bl	chSchGoSleepS
 519              	.LVL41:
 520              		.loc 1 352 0
 521 002c 383095E5 		ldr	r3, [r5, #56]
 522 0030 032004E0 		and	r2, r4, r3
 523              	.LVL42:
 524              	.L44:
 525              		.loc 1 354 0
 526 0034 000062E2 		rsb	r0, r2, #0
 527 0038 020000E0 		and	r0, r0, r2
 528              	.LVL43:
 529              		.loc 1 355 0
 530 003c 0030C3E1 		bic	r3, r3, r0
 531 0040 383085E5 		str	r3, [r5, #56]
 532              		.loc 1 357 0
 533              	@ 357 "../../os/kernel/src/chevents.c" 1
 534 0044 1FF021E3 		msr     CPSR_c, #0x1F
 535              	@ 0 "" 2
 536              		.loc 1 359 0
 537 0048 3880BDE8 		ldmfd	sp!, {r3, r4, r5, pc}
 538              	.L47:
 539              		.align	2
 540              	.L46:
 541 004c 00000000 		.word	rlist
 542              		.cfi_endproc
 543              	.LFE18:
 544              		.size	chEvtWaitOne, .-chEvtWaitOne
 545              		.section	.text.chEvtWaitAny,"ax",%progbits
 546              		.align	2
 547              		.global	chEvtWaitAny
 548              		.type	chEvtWaitAny, %function
 549              	chEvtWaitAny:
 550              	.LFB19:
 551              		.loc 1 372 0
 552              		.cfi_startproc
 553              		@ args = 0, pretend = 0, frame = 0
 554              		@ frame_needed = 0, uses_anonymous_args = 0
 555              	.LVL44:
 556 0000 38402DE9 		stmfd	sp!, {r3, r4, r5, lr}
 557              		.cfi_def_cfa_offset 16
 558              		.cfi_offset 3, -16
 559              		.cfi_offset 4, -12
 560              		.cfi_offset 5, -8
 561              		.cfi_offset 14, -4
 562              		.loc 1 373 0
 563 0004 3C309FE5 		ldr	r3, .L51
 564 0008 185093E5 		ldr	r5, [r3, #24]
 565              	.LVL45:
 566              		.loc 1 376 0
 567              	@ 376 "../../os/kernel/src/chevents.c" 1
 568 000c 9FF021E3 		msr     CPSR_c, #0x9F
 569              	@ 0 "" 2
 570              		.loc 1 378 0
ARM GAS  /tmp/ccXOaafo.s 			page 11


 571 0010 383095E5 		ldr	r3, [r5, #56]
 572              	.LVL46:
 573 0014 034010E0 		ands	r4, r0, r3
 574              	.LVL47:
 575 0018 0500001A 		bne	.L49
 576 001c 0040A0E1 		mov	r4, r0
 577              	.LVL48:
 578              		.loc 1 379 0
 579 0020 240085E5 		str	r0, [r5, #36]
 580              		.loc 1 380 0
 581 0024 0800A0E3 		mov	r0, #8
 582              	.LVL49:
 583 0028 FEFFFFEB 		bl	chSchGoSleepS
 584              	.LVL50:
 585              		.loc 1 381 0
 586 002c 383095E5 		ldr	r3, [r5, #56]
 587 0030 034004E0 		and	r4, r4, r3
 588              	.LVL51:
 589              	.L49:
 590              		.loc 1 383 0
 591 0034 0430C3E1 		bic	r3, r3, r4
 592 0038 383085E5 		str	r3, [r5, #56]
 593              		.loc 1 385 0
 594              	@ 385 "../../os/kernel/src/chevents.c" 1
 595 003c 1FF021E3 		msr     CPSR_c, #0x1F
 596              	@ 0 "" 2
 597              		.loc 1 387 0
 598 0040 0400A0E1 		mov	r0, r4
 599 0044 3880BDE8 		ldmfd	sp!, {r3, r4, r5, pc}
 600              	.L52:
 601              		.align	2
 602              	.L51:
 603 0048 00000000 		.word	rlist
 604              		.cfi_endproc
 605              	.LFE19:
 606              		.size	chEvtWaitAny, .-chEvtWaitAny
 607              		.section	.text.chEvtWaitAll,"ax",%progbits
 608              		.align	2
 609              		.global	chEvtWaitAll
 610              		.type	chEvtWaitAll, %function
 611              	chEvtWaitAll:
 612              	.LFB20:
 613              		.loc 1 400 0
 614              		.cfi_startproc
 615              		@ args = 0, pretend = 0, frame = 0
 616              		@ frame_needed = 0, uses_anonymous_args = 0
 617              	.LVL52:
 618 0000 38402DE9 		stmfd	sp!, {r3, r4, r5, lr}
 619              		.cfi_def_cfa_offset 16
 620              		.cfi_offset 3, -16
 621              		.cfi_offset 4, -12
 622              		.cfi_offset 5, -8
 623              		.cfi_offset 14, -4
 624              		.loc 1 401 0
 625 0004 3C309FE5 		ldr	r3, .L56
 626              		.loc 1 400 0
 627 0008 0040A0E1 		mov	r4, r0
ARM GAS  /tmp/ccXOaafo.s 			page 12


 628              		.loc 1 401 0
 629 000c 185093E5 		ldr	r5, [r3, #24]
 630              	.LVL53:
 631              		.loc 1 403 0
 632              	@ 403 "../../os/kernel/src/chevents.c" 1
 633 0010 9FF021E3 		msr     CPSR_c, #0x9F
 634              	@ 0 "" 2
 635              		.loc 1 405 0
 636 0014 383095E5 		ldr	r3, [r5, #56]
 637 0018 032000E0 		and	r2, r0, r3
 638 001c 000052E1 		cmp	r2, r0
 639 0020 0300000A 		beq	.L54
 640              		.loc 1 406 0
 641 0024 240085E5 		str	r0, [r5, #36]
 642              		.loc 1 407 0
 643 0028 0900A0E3 		mov	r0, #9
 644              	.LVL54:
 645 002c FEFFFFEB 		bl	chSchGoSleepS
 646              	.LVL55:
 647 0030 383095E5 		ldr	r3, [r5, #56]
 648              	.L54:
 649              		.loc 1 409 0
 650 0034 0430C3E1 		bic	r3, r3, r4
 651 0038 383085E5 		str	r3, [r5, #56]
 652              		.loc 1 411 0
 653              	@ 411 "../../os/kernel/src/chevents.c" 1
 654 003c 1FF021E3 		msr     CPSR_c, #0x1F
 655              	@ 0 "" 2
 656              		.loc 1 413 0
 657 0040 0400A0E1 		mov	r0, r4
 658 0044 3880BDE8 		ldmfd	sp!, {r3, r4, r5, pc}
 659              	.L57:
 660              		.align	2
 661              	.L56:
 662 0048 00000000 		.word	rlist
 663              		.cfi_endproc
 664              	.LFE20:
 665              		.size	chEvtWaitAll, .-chEvtWaitAll
 666              		.section	.text.chEvtWaitOneTimeout,"ax",%progbits
 667              		.align	2
 668              		.global	chEvtWaitOneTimeout
 669              		.type	chEvtWaitOneTimeout, %function
 670              	chEvtWaitOneTimeout:
 671              	.LFB21:
 672              		.loc 1 439 0
 673              		.cfi_startproc
 674              		@ args = 0, pretend = 0, frame = 0
 675              		@ frame_needed = 0, uses_anonymous_args = 0
 676              	.LVL56:
 677              		.loc 1 440 0
 678 0000 6C309FE5 		ldr	r3, .L65
 679              		.loc 1 439 0
 680 0004 70402DE9 		stmfd	sp!, {r4, r5, r6, lr}
 681              		.cfi_def_cfa_offset 16
 682              		.cfi_offset 4, -16
 683              		.cfi_offset 5, -12
 684              		.cfi_offset 6, -8
ARM GAS  /tmp/ccXOaafo.s 			page 13


 685              		.cfi_offset 14, -4
 686              		.loc 1 440 0
 687 0008 185093E5 		ldr	r5, [r3, #24]
 688              	.LVL57:
 689              		.loc 1 443 0
 690              	@ 443 "../../os/kernel/src/chevents.c" 1
 691 000c 9FF021E3 		msr     CPSR_c, #0x9F
 692              	@ 0 "" 2
 693              		.loc 1 445 0
 694 0010 382095E5 		ldr	r2, [r5, #56]
 695              	.LVL58:
 696 0014 026010E0 		ands	r6, r0, r2
 697              	.LVL59:
 698 0018 0C00001A 		bne	.L59
 699              		.loc 1 446 0
 700 001c 000051E3 		cmp	r1, #0
 701 0020 0200001A 		bne	.L60
 702              		.loc 1 447 0
 703              	@ 447 "../../os/kernel/src/chevents.c" 1
 704 0024 1FF021E3 		msr     CPSR_c, #0x1F
 705              	@ 0 "" 2
 706              		.loc 1 448 0
 707 0028 0100A0E1 		mov	r0, r1
 708              	.LVL60:
 709 002c 7080BDE8 		ldmfd	sp!, {r4, r5, r6, pc}
 710              	.LVL61:
 711              	.L60:
 712              		.loc 1 450 0
 713 0030 240085E5 		str	r0, [r5, #36]
 714 0034 0040A0E1 		mov	r4, r0
 715              		.loc 1 451 0
 716 0038 0800A0E3 		mov	r0, #8
 717              	.LVL62:
 718 003c FEFFFFEB 		bl	chSchGoSleepTimeoutS
 719              	.LVL63:
 720 0040 000050E3 		cmp	r0, #0
 721 0044 070000BA 		blt	.L64
 722              		.loc 1 455 0
 723 0048 382095E5 		ldr	r2, [r5, #56]
 724 004c 026004E0 		and	r6, r4, r2
 725              	.LVL64:
 726              	.L59:
 727              		.loc 1 457 0
 728 0050 000066E2 		rsb	r0, r6, #0
 729 0054 060000E0 		and	r0, r0, r6
 730              	.LVL65:
 731              		.loc 1 458 0
 732 0058 0020C2E1 		bic	r2, r2, r0
 733 005c 382085E5 		str	r2, [r5, #56]
 734              		.loc 1 460 0
 735              	@ 460 "../../os/kernel/src/chevents.c" 1
 736 0060 1FF021E3 		msr     CPSR_c, #0x1F
 737              	@ 0 "" 2
 738              		.loc 1 462 0
 739 0064 7080BDE8 		ldmfd	sp!, {r4, r5, r6, pc}
 740              	.LVL66:
 741              	.L64:
ARM GAS  /tmp/ccXOaafo.s 			page 14


 742              		.loc 1 452 0
 743              	@ 452 "../../os/kernel/src/chevents.c" 1
 744 0068 1FF021E3 		msr     CPSR_c, #0x1F
 745              	@ 0 "" 2
 746              		.loc 1 453 0
 747 006c 0600A0E1 		mov	r0, r6
 748 0070 7080BDE8 		ldmfd	sp!, {r4, r5, r6, pc}
 749              	.L66:
 750              		.align	2
 751              	.L65:
 752 0074 00000000 		.word	rlist
 753              		.cfi_endproc
 754              	.LFE21:
 755              		.size	chEvtWaitOneTimeout, .-chEvtWaitOneTimeout
 756              		.section	.text.chEvtWaitAnyTimeout,"ax",%progbits
 757              		.align	2
 758              		.global	chEvtWaitAnyTimeout
 759              		.type	chEvtWaitAnyTimeout, %function
 760              	chEvtWaitAnyTimeout:
 761              	.LFB22:
 762              		.loc 1 482 0
 763              		.cfi_startproc
 764              		@ args = 0, pretend = 0, frame = 0
 765              		@ frame_needed = 0, uses_anonymous_args = 0
 766              	.LVL67:
 767              		.loc 1 483 0
 768 0000 5C309FE5 		ldr	r3, .L74
 769              		.loc 1 482 0
 770 0004 70402DE9 		stmfd	sp!, {r4, r5, r6, lr}
 771              		.cfi_def_cfa_offset 16
 772              		.cfi_offset 4, -16
 773              		.cfi_offset 5, -12
 774              		.cfi_offset 6, -8
 775              		.cfi_offset 14, -4
 776              		.loc 1 483 0
 777 0008 186093E5 		ldr	r6, [r3, #24]
 778              	.LVL68:
 779              		.loc 1 486 0
 780              	@ 486 "../../os/kernel/src/chevents.c" 1
 781 000c 9FF021E3 		msr     CPSR_c, #0x9F
 782              	@ 0 "" 2
 783              		.loc 1 488 0
 784 0010 383096E5 		ldr	r3, [r6, #56]
 785              	.LVL69:
 786 0014 034010E0 		ands	r4, r0, r3
 787              	.LVL70:
 788 0018 0C00001A 		bne	.L68
 789              		.loc 1 489 0
 790 001c 000051E3 		cmp	r1, #0
 791 0020 0200001A 		bne	.L69
 792              		.loc 1 490 0
 793              	@ 490 "../../os/kernel/src/chevents.c" 1
 794 0024 1FF021E3 		msr     CPSR_c, #0x1F
 795              	@ 0 "" 2
 796              		.loc 1 491 0
 797 0028 0100A0E1 		mov	r0, r1
 798              	.LVL71:
ARM GAS  /tmp/ccXOaafo.s 			page 15


 799 002c 7080BDE8 		ldmfd	sp!, {r4, r5, r6, pc}
 800              	.LVL72:
 801              	.L69:
 802              		.loc 1 493 0
 803 0030 240086E5 		str	r0, [r6, #36]
 804 0034 0050A0E1 		mov	r5, r0
 805              		.loc 1 494 0
 806 0038 0800A0E3 		mov	r0, #8
 807              	.LVL73:
 808 003c FEFFFFEB 		bl	chSchGoSleepTimeoutS
 809              	.LVL74:
 810 0040 000050E3 		cmp	r0, #0
 811 0044 030000BA 		blt	.L73
 812              		.loc 1 498 0
 813 0048 383096E5 		ldr	r3, [r6, #56]
 814 004c 034005E0 		and	r4, r5, r3
 815              	.LVL75:
 816              	.L68:
 817              		.loc 1 500 0
 818 0050 0430C3E1 		bic	r3, r3, r4
 819 0054 383086E5 		str	r3, [r6, #56]
 820              	.L73:
 821              		.loc 1 502 0
 822              	@ 502 "../../os/kernel/src/chevents.c" 1
 823 0058 1FF021E3 		msr     CPSR_c, #0x1F
 824              	@ 0 "" 2
 825              		.loc 1 503 0
 826 005c 0400A0E1 		mov	r0, r4
 827              		.loc 1 504 0
 828 0060 7080BDE8 		ldmfd	sp!, {r4, r5, r6, pc}
 829              	.L75:
 830              		.align	2
 831              	.L74:
 832 0064 00000000 		.word	rlist
 833              		.cfi_endproc
 834              	.LFE22:
 835              		.size	chEvtWaitAnyTimeout, .-chEvtWaitAnyTimeout
 836              		.section	.text.chEvtWaitAllTimeout,"ax",%progbits
 837              		.align	2
 838              		.global	chEvtWaitAllTimeout
 839              		.type	chEvtWaitAllTimeout, %function
 840              	chEvtWaitAllTimeout:
 841              	.LFB23:
 842              		.loc 1 523 0
 843              		.cfi_startproc
 844              		@ args = 0, pretend = 0, frame = 0
 845              		@ frame_needed = 0, uses_anonymous_args = 0
 846              	.LVL76:
 847 0000 38402DE9 		stmfd	sp!, {r3, r4, r5, lr}
 848              		.cfi_def_cfa_offset 16
 849              		.cfi_offset 3, -16
 850              		.cfi_offset 4, -12
 851              		.cfi_offset 5, -8
 852              		.cfi_offset 14, -4
 853              		.loc 1 524 0
 854 0004 64309FE5 		ldr	r3, .L82
 855              		.loc 1 523 0
ARM GAS  /tmp/ccXOaafo.s 			page 16


 856 0008 0040A0E1 		mov	r4, r0
 857              		.loc 1 524 0
 858 000c 185093E5 		ldr	r5, [r3, #24]
 859              	.LVL77:
 860              		.loc 1 526 0
 861              	@ 526 "../../os/kernel/src/chevents.c" 1
 862 0010 9FF021E3 		msr     CPSR_c, #0x9F
 863              	@ 0 "" 2
 864              		.loc 1 528 0
 865 0014 383095E5 		ldr	r3, [r5, #56]
 866 0018 032000E0 		and	r2, r0, r3
 867 001c 000052E1 		cmp	r2, r0
 868 0020 0A00000A 		beq	.L77
 869              		.loc 1 529 0
 870 0024 000051E3 		cmp	r1, #0
 871 0028 0100A0E1 		mov	r0, r1
 872              	.LVL78:
 873 002c 0100001A 		bne	.L78
 874              		.loc 1 530 0
 875              	@ 530 "../../os/kernel/src/chevents.c" 1
 876 0030 1FF021E3 		msr     CPSR_c, #0x1F
 877              	@ 0 "" 2
 878              		.loc 1 531 0
 879 0034 3880BDE8 		ldmfd	sp!, {r3, r4, r5, pc}
 880              	.L78:
 881              		.loc 1 533 0
 882 0038 244085E5 		str	r4, [r5, #36]
 883              		.loc 1 534 0
 884 003c 0900A0E3 		mov	r0, #9
 885 0040 FEFFFFEB 		bl	chSchGoSleepTimeoutS
 886              	.LVL79:
 887 0044 000050E3 		cmp	r0, #0
 888 0048 050000BA 		blt	.L80
 889 004c 383095E5 		ldr	r3, [r5, #56]
 890              	.L77:
 891              		.loc 1 539 0
 892 0050 0430C3E1 		bic	r3, r3, r4
 893 0054 383085E5 		str	r3, [r5, #56]
 894              		.loc 1 541 0
 895              	@ 541 "../../os/kernel/src/chevents.c" 1
 896 0058 1FF021E3 		msr     CPSR_c, #0x1F
 897              	@ 0 "" 2
 898              		.loc 1 542 0
 899 005c 0400A0E1 		mov	r0, r4
 900              		.loc 1 543 0
 901 0060 3880BDE8 		ldmfd	sp!, {r3, r4, r5, pc}
 902              	.L80:
 903              		.loc 1 535 0
 904              	@ 535 "../../os/kernel/src/chevents.c" 1
 905 0064 1FF021E3 		msr     CPSR_c, #0x1F
 906              	@ 0 "" 2
 907              		.loc 1 536 0
 908 0068 0000A0E3 		mov	r0, #0
 909 006c 3880BDE8 		ldmfd	sp!, {r3, r4, r5, pc}
 910              	.L83:
 911              		.align	2
 912              	.L82:
ARM GAS  /tmp/ccXOaafo.s 			page 17


 913 0070 00000000 		.word	rlist
 914              		.cfi_endproc
 915              	.LFE23:
 916              		.size	chEvtWaitAllTimeout, .-chEvtWaitAllTimeout
 917              		.text
 918              	.Letext0:
 919              		.file 2 "/usr/include/newlib/machine/_default_types.h"
 920              		.file 3 "/usr/include/newlib/sys/_stdint.h"
 921              		.file 4 "../../os/ports/GCC/ARM/chtypes.h"
 922              		.file 5 "../../os/kernel/include/chlists.h"
 923              		.file 6 "../../os/kernel/include/chthreads.h"
 924              		.file 7 "../../os/ports/GCC/ARM/chcore.h"
 925              		.file 8 "../../os/kernel/include/chschd.h"
 926              		.file 9 "../../os/kernel/include/chmtx.h"
 927              		.file 10 "../../os/kernel/include/chevents.h"