ARM GAS  /tmp/ccyxrXYx.s 			page 1


   1              		.cpu arm1176jz-s
   2              		.fpu softvfp
   3              		.eabi_attribute 20, 1
   4              		.eabi_attribute 21, 1
   5              		.eabi_attribute 23, 3
   6              		.eabi_attribute 24, 1
   7              		.eabi_attribute 25, 1
   8              		.eabi_attribute 26, 1
   9              		.eabi_attribute 30, 2
  10              		.eabi_attribute 34, 1
  11              		.eabi_attribute 18, 4
  12              		.file	"chmboxes.c"
  13              		.text
  14              	.Ltext0:
  15              		.cfi_sections	.debug_frame
  16              		.section	.text.chMBInit,"ax",%progbits
  17              		.align	2
  18              		.global	chMBInit
  19              		.type	chMBInit, %function
  20              	chMBInit:
  21              	.LFB7:
  22              		.file 1 "../../os/kernel/src/chmboxes.c"
  23              		.loc 1 65 0
  24              		.cfi_startproc
  25              		@ args = 0, pretend = 0, frame = 0
  26              		@ frame_needed = 0, uses_anonymous_args = 0
  27              	.LVL0:
  28 0000 0130A0E1 		mov	r3, r1
  29 0004 10402DE9 		stmfd	sp!, {r4, lr}
  30              		.cfi_def_cfa_offset 8
  31              		.cfi_offset 4, -8
  32              		.cfi_offset 14, -4
  33              		.loc 1 65 0
  34 0008 0040A0E1 		mov	r4, r0
  35              		.loc 1 70 0
  36 000c 021181E0 		add	r1, r1, r2, asl #2
  37              	.LVL1:
  38 0010 041080E5 		str	r1, [r0, #4]
  39              		.loc 1 69 0
  40 0014 0C3080E5 		str	r3, [r0, #12]
  41 0018 083080E5 		str	r3, [r0, #8]
  42 001c 003080E5 		str	r3, [r0]
  43              		.loc 1 71 0
  44 0020 0210A0E1 		mov	r1, r2
  45 0024 1C0080E2 		add	r0, r0, #28
  46              	.LVL2:
  47 0028 FEFFFFEB 		bl	chSemInit
  48              	.LVL3:
  49              		.loc 1 72 0
  50 002c 100084E2 		add	r0, r4, #16
  51 0030 0010A0E3 		mov	r1, #0
  52              		.loc 1 73 0
  53 0034 1040BDE8 		ldmfd	sp!, {r4, lr}
  54              		.cfi_restore 14
  55              		.cfi_restore 4
  56              		.cfi_def_cfa_offset 0
  57              	.LVL4:
ARM GAS  /tmp/ccyxrXYx.s 			page 2


  58              		.loc 1 72 0
  59 0038 FEFFFFEA 		b	chSemInit
  60              	.LVL5:
  61              		.cfi_endproc
  62              	.LFE7:
  63              		.size	chMBInit, .-chMBInit
  64              		.section	.text.chMBReset,"ax",%progbits
  65              		.align	2
  66              		.global	chMBReset
  67              		.type	chMBReset, %function
  68              	chMBReset:
  69              	.LFB8:
  70              		.loc 1 84 0
  71              		.cfi_startproc
  72              		@ args = 0, pretend = 0, frame = 0
  73              		@ frame_needed = 0, uses_anonymous_args = 0
  74              	.LVL6:
  75 0000 10402DE9 		stmfd	sp!, {r4, lr}
  76              		.cfi_def_cfa_offset 8
  77              		.cfi_offset 4, -8
  78              		.cfi_offset 14, -4
  79              		.loc 1 84 0
  80 0004 0040A0E1 		mov	r4, r0
  81              		.loc 1 88 0
  82              	@ 88 "../../os/kernel/src/chmboxes.c" 1
  83 0008 9FF021E3 		msr     CPSR_c, #0x9F
  84              	@ 0 "" 2
  85              		.loc 1 89 0
  86 000c 003090E5 		ldr	r3, [r0]
  87              		.loc 1 90 0
  88 0010 041090E5 		ldr	r1, [r0, #4]
  89              		.loc 1 89 0
  90 0014 0C3080E5 		str	r3, [r0, #12]
  91              		.loc 1 90 0
  92 0018 011063E0 		rsb	r1, r3, r1
  93              		.loc 1 89 0
  94 001c 083080E5 		str	r3, [r0, #8]
  95              		.loc 1 90 0
  96 0020 4111A0E1 		mov	r1, r1, asr #2
  97 0024 1C0080E2 		add	r0, r0, #28
  98              	.LVL7:
  99 0028 FEFFFFEB 		bl	chSemResetI
 100              	.LVL8:
 101              		.loc 1 91 0
 102 002c 100084E2 		add	r0, r4, #16
 103 0030 0010A0E3 		mov	r1, #0
 104 0034 FEFFFFEB 		bl	chSemResetI
 105              	.LVL9:
 106              		.loc 1 92 0
 107 0038 FEFFFFEB 		bl	chSchRescheduleS
 108              	.LVL10:
 109              		.loc 1 93 0
 110              	@ 93 "../../os/kernel/src/chmboxes.c" 1
 111 003c 1FF021E3 		msr     CPSR_c, #0x1F
 112              	@ 0 "" 2
 113 0040 1080BDE8 		ldmfd	sp!, {r4, pc}
 114              		.cfi_endproc
ARM GAS  /tmp/ccyxrXYx.s 			page 3


 115              	.LFE8:
 116              		.size	chMBReset, .-chMBReset
 117              		.section	.text.chMBPostS,"ax",%progbits
 118              		.align	2
 119              		.global	chMBPostS
 120              		.type	chMBPostS, %function
 121              	chMBPostS:
 122              	.LFB10:
 123              		.loc 1 143 0
 124              		.cfi_startproc
 125              		@ args = 0, pretend = 0, frame = 0
 126              		@ frame_needed = 0, uses_anonymous_args = 0
 127              	.LVL11:
 128 0000 70402DE9 		stmfd	sp!, {r4, r5, r6, lr}
 129              		.cfi_def_cfa_offset 16
 130              		.cfi_offset 4, -16
 131              		.cfi_offset 5, -12
 132              		.cfi_offset 6, -8
 133              		.cfi_offset 14, -4
 134              		.loc 1 143 0
 135 0004 0040A0E1 		mov	r4, r0
 136 0008 0160A0E1 		mov	r6, r1
 137              		.loc 1 149 0
 138 000c 1C0080E2 		add	r0, r0, #28
 139              	.LVL12:
 140 0010 0210A0E1 		mov	r1, r2
 141              	.LVL13:
 142 0014 FEFFFFEB 		bl	chSemWaitTimeoutS
 143              	.LVL14:
 144              		.loc 1 150 0
 145 0018 005050E2 		subs	r5, r0, #0
 146 001c 0900001A 		bne	.L6
 147              	.LVL15:
 148              	.LBB4:
 149              	.LBB5:
 150              		.loc 1 152 0
 151 0020 0A0094E9 		ldmib	r4, {r1, r3}
 152              		.loc 1 151 0
 153 0024 042083E2 		add	r2, r3, #4
 154              		.loc 1 152 0
 155 0028 010052E1 		cmp	r2, r1
 156              		.loc 1 151 0
 157 002c 082084E5 		str	r2, [r4, #8]
 158 0030 006083E5 		str	r6, [r3]
 159              		.loc 1 153 0
 160 0034 00309425 		ldrcs	r3, [r4]
 161              		.loc 1 154 0
 162 0038 100084E2 		add	r0, r4, #16
 163              	.LVL16:
 164              		.loc 1 153 0
 165 003c 08308425 		strcs	r3, [r4, #8]
 166              		.loc 1 154 0
 167 0040 FEFFFFEB 		bl	chSemSignalI
 168              	.LVL17:
 169              		.loc 1 155 0
 170 0044 FEFFFFEB 		bl	chSchRescheduleS
 171              	.LVL18:
ARM GAS  /tmp/ccyxrXYx.s 			page 4


 172              	.L6:
 173              	.LBE5:
 174              	.LBE4:
 175              		.loc 1 158 0
 176 0048 0500A0E1 		mov	r0, r5
 177 004c 7080BDE8 		ldmfd	sp!, {r4, r5, r6, pc}
 178              		.cfi_endproc
 179              	.LFE10:
 180              		.size	chMBPostS, .-chMBPostS
 181              		.section	.text.chMBPost,"ax",%progbits
 182              		.align	2
 183              		.global	chMBPost
 184              		.type	chMBPost, %function
 185              	chMBPost:
 186              	.LFB9:
 187              		.loc 1 115 0
 188              		.cfi_startproc
 189              		@ args = 0, pretend = 0, frame = 0
 190              		@ frame_needed = 0, uses_anonymous_args = 0
 191              	.LVL19:
 192 0000 08402DE9 		stmfd	sp!, {r3, lr}
 193              		.cfi_def_cfa_offset 8
 194              		.cfi_offset 3, -8
 195              		.cfi_offset 14, -4
 196              		.loc 1 118 0
 197              	@ 118 "../../os/kernel/src/chmboxes.c" 1
 198 0004 9FF021E3 		msr     CPSR_c, #0x9F
 199              	@ 0 "" 2
 200              		.loc 1 119 0
 201 0008 FEFFFFEB 		bl	chMBPostS
 202              	.LVL20:
 203              		.loc 1 120 0
 204              	@ 120 "../../os/kernel/src/chmboxes.c" 1
 205 000c 1FF021E3 		msr     CPSR_c, #0x1F
 206              	@ 0 "" 2
 207              		.loc 1 122 0
 208 0010 0880BDE8 		ldmfd	sp!, {r3, pc}
 209              		.cfi_endproc
 210              	.LFE9:
 211              		.size	chMBPost, .-chMBPost
 212              		.section	.text.chMBPostI,"ax",%progbits
 213              		.align	2
 214              		.global	chMBPostI
 215              		.type	chMBPostI, %function
 216              	chMBPostI:
 217              	.LFB11:
 218              		.loc 1 174 0
 219              		.cfi_startproc
 220              		@ args = 0, pretend = 0, frame = 0
 221              		@ frame_needed = 0, uses_anonymous_args = 0
 222              	.LVL21:
 223 0000 08402DE9 		stmfd	sp!, {r3, lr}
 224              		.cfi_def_cfa_offset 8
 225              		.cfi_offset 3, -8
 226              		.cfi_offset 14, -4
 227              		.loc 1 179 0
 228 0004 243090E5 		ldr	r3, [r0, #36]
ARM GAS  /tmp/ccyxrXYx.s 			page 5


 229 0008 000053E3 		cmp	r3, #0
 230 000c 0D0000DA 		ble	.L15
 231              		.loc 1 182 0
 232 0010 082090E5 		ldr	r2, [r0, #8]
 233              		.loc 1 183 0
 234 0014 04E090E5 		ldr	lr, [r0, #4]
 235              		.loc 1 182 0
 236 0018 04C082E2 		add	ip, r2, #4
 237              		.loc 1 181 0
 238 001c 013043E2 		sub	r3, r3, #1
 239              		.loc 1 183 0
 240 0020 0E005CE1 		cmp	ip, lr
 241              		.loc 1 181 0
 242 0024 243080E5 		str	r3, [r0, #36]
 243              		.loc 1 184 0
 244 0028 00309025 		ldrcs	r3, [r0]
 245              		.loc 1 182 0
 246 002c 08C080E5 		str	ip, [r0, #8]
 247 0030 001082E5 		str	r1, [r2]
 248              		.loc 1 185 0
 249 0034 100080E2 		add	r0, r0, #16
 250              	.LVL22:
 251              		.loc 1 184 0
 252 0038 08300025 		strcs	r3, [r0, #-8]
 253              		.loc 1 185 0
 254 003c FEFFFFEB 		bl	chSemSignalI
 255              	.LVL23:
 256              		.loc 1 186 0
 257 0040 0000A0E3 		mov	r0, #0
 258 0044 0880BDE8 		ldmfd	sp!, {r3, pc}
 259              	.LVL24:
 260              	.L15:
 261              		.loc 1 180 0
 262 0048 0000E0E3 		mvn	r0, #0
 263              	.LVL25:
 264              		.loc 1 187 0
 265 004c 0880BDE8 		ldmfd	sp!, {r3, pc}
 266              		.cfi_endproc
 267              	.LFE11:
 268              		.size	chMBPostI, .-chMBPostI
 269              		.section	.text.chMBPostAheadS,"ax",%progbits
 270              		.align	2
 271              		.global	chMBPostAheadS
 272              		.type	chMBPostAheadS, %function
 273              	chMBPostAheadS:
 274              	.LFB13:
 275              		.loc 1 236 0
 276              		.cfi_startproc
 277              		@ args = 0, pretend = 0, frame = 0
 278              		@ frame_needed = 0, uses_anonymous_args = 0
 279              	.LVL26:
 280 0000 70402DE9 		stmfd	sp!, {r4, r5, r6, lr}
 281              		.cfi_def_cfa_offset 16
 282              		.cfi_offset 4, -16
 283              		.cfi_offset 5, -12
 284              		.cfi_offset 6, -8
 285              		.cfi_offset 14, -4
ARM GAS  /tmp/ccyxrXYx.s 			page 6


 286              		.loc 1 236 0
 287 0004 0040A0E1 		mov	r4, r0
 288 0008 0160A0E1 		mov	r6, r1
 289              		.loc 1 242 0
 290 000c 1C0080E2 		add	r0, r0, #28
 291              	.LVL27:
 292 0010 0210A0E1 		mov	r1, r2
 293              	.LVL28:
 294 0014 FEFFFFEB 		bl	chSemWaitTimeoutS
 295              	.LVL29:
 296              		.loc 1 243 0
 297 0018 005050E2 		subs	r5, r0, #0
 298 001c 0B00001A 		bne	.L18
 299              	.LVL30:
 300              	.LBB8:
 301              	.LBB9:
 302              		.loc 1 244 0
 303 0020 0C3094E5 		ldr	r3, [r4, #12]
 304 0024 002094E5 		ldr	r2, [r4]
 305 0028 043043E2 		sub	r3, r3, #4
 306 002c 020053E1 		cmp	r3, r2
 307 0030 0C3084E5 		str	r3, [r4, #12]
 308              		.loc 1 245 0
 309 0034 04309435 		ldrcc	r3, [r4, #4]
 310              		.loc 1 247 0
 311 0038 100084E2 		add	r0, r4, #16
 312              	.LVL31:
 313              		.loc 1 245 0
 314 003c 04304332 		subcc	r3, r3, #4
 315 0040 0C308435 		strcc	r3, [r4, #12]
 316              		.loc 1 246 0
 317 0044 006083E5 		str	r6, [r3]
 318              		.loc 1 247 0
 319 0048 FEFFFFEB 		bl	chSemSignalI
 320              	.LVL32:
 321              		.loc 1 248 0
 322 004c FEFFFFEB 		bl	chSchRescheduleS
 323              	.LVL33:
 324              	.L18:
 325              	.LBE9:
 326              	.LBE8:
 327              		.loc 1 251 0
 328 0050 0500A0E1 		mov	r0, r5
 329 0054 7080BDE8 		ldmfd	sp!, {r4, r5, r6, pc}
 330              		.cfi_endproc
 331              	.LFE13:
 332              		.size	chMBPostAheadS, .-chMBPostAheadS
 333              		.section	.text.chMBPostAhead,"ax",%progbits
 334              		.align	2
 335              		.global	chMBPostAhead
 336              		.type	chMBPostAhead, %function
 337              	chMBPostAhead:
 338              	.LFB12:
 339              		.loc 1 208 0
 340              		.cfi_startproc
 341              		@ args = 0, pretend = 0, frame = 0
 342              		@ frame_needed = 0, uses_anonymous_args = 0
ARM GAS  /tmp/ccyxrXYx.s 			page 7


 343              	.LVL34:
 344 0000 08402DE9 		stmfd	sp!, {r3, lr}
 345              		.cfi_def_cfa_offset 8
 346              		.cfi_offset 3, -8
 347              		.cfi_offset 14, -4
 348              		.loc 1 211 0
 349              	@ 211 "../../os/kernel/src/chmboxes.c" 1
 350 0004 9FF021E3 		msr     CPSR_c, #0x9F
 351              	@ 0 "" 2
 352              		.loc 1 212 0
 353 0008 FEFFFFEB 		bl	chMBPostAheadS
 354              	.LVL35:
 355              		.loc 1 213 0
 356              	@ 213 "../../os/kernel/src/chmboxes.c" 1
 357 000c 1FF021E3 		msr     CPSR_c, #0x1F
 358              	@ 0 "" 2
 359              		.loc 1 215 0
 360 0010 0880BDE8 		ldmfd	sp!, {r3, pc}
 361              		.cfi_endproc
 362              	.LFE12:
 363              		.size	chMBPostAhead, .-chMBPostAhead
 364              		.section	.text.chMBPostAheadI,"ax",%progbits
 365              		.align	2
 366              		.global	chMBPostAheadI
 367              		.type	chMBPostAheadI, %function
 368              	chMBPostAheadI:
 369              	.LFB14:
 370              		.loc 1 267 0
 371              		.cfi_startproc
 372              		@ args = 0, pretend = 0, frame = 0
 373              		@ frame_needed = 0, uses_anonymous_args = 0
 374              	.LVL36:
 375              		.loc 1 272 0
 376 0000 242090E5 		ldr	r2, [r0, #36]
 377 0004 000052E3 		cmp	r2, #0
 378 0008 0F0000DA 		ble	.L26
 379              		.loc 1 267 0
 380 000c 08402DE9 		stmfd	sp!, {r3, lr}
 381              		.cfi_def_cfa_offset 8
 382              		.cfi_offset 3, -8
 383              		.cfi_offset 14, -4
 384              		.loc 1 275 0
 385 0010 0C3090E5 		ldr	r3, [r0, #12]
 386 0014 00C090E5 		ldr	ip, [r0]
 387 0018 043043E2 		sub	r3, r3, #4
 388 001c 0C0053E1 		cmp	r3, ip
 389 0020 0C3080E5 		str	r3, [r0, #12]
 390              		.loc 1 276 0
 391 0024 04309035 		ldrcc	r3, [r0, #4]
 392              		.loc 1 274 0
 393 0028 012042E2 		sub	r2, r2, #1
 394              		.loc 1 276 0
 395 002c 04304332 		subcc	r3, r3, #4
 396              		.loc 1 274 0
 397 0030 242080E5 		str	r2, [r0, #36]
 398              		.loc 1 276 0
 399 0034 0C308035 		strcc	r3, [r0, #12]
ARM GAS  /tmp/ccyxrXYx.s 			page 8


 400              		.loc 1 277 0
 401 0038 001083E5 		str	r1, [r3]
 402              		.loc 1 278 0
 403 003c 100080E2 		add	r0, r0, #16
 404              	.LVL37:
 405 0040 FEFFFFEB 		bl	chSemSignalI
 406              	.LVL38:
 407              		.loc 1 279 0
 408 0044 0000A0E3 		mov	r0, #0
 409 0048 0880BDE8 		ldmfd	sp!, {r3, pc}
 410              	.LVL39:
 411              	.L26:
 412              		.cfi_def_cfa_offset 0
 413              		.cfi_restore 3
 414              		.cfi_restore 14
 415              		.loc 1 273 0
 416 004c 0000E0E3 		mvn	r0, #0
 417              	.LVL40:
 418 0050 1EFF2FE1 		bx	lr
 419              		.cfi_endproc
 420              	.LFE14:
 421              		.size	chMBPostAheadI, .-chMBPostAheadI
 422              		.section	.text.chMBFetchS,"ax",%progbits
 423              		.align	2
 424              		.global	chMBFetchS
 425              		.type	chMBFetchS, %function
 426              	chMBFetchS:
 427              	.LFB16:
 428              		.loc 1 329 0
 429              		.cfi_startproc
 430              		@ args = 0, pretend = 0, frame = 0
 431              		@ frame_needed = 0, uses_anonymous_args = 0
 432              	.LVL41:
 433 0000 70402DE9 		stmfd	sp!, {r4, r5, r6, lr}
 434              		.cfi_def_cfa_offset 16
 435              		.cfi_offset 4, -16
 436              		.cfi_offset 5, -12
 437              		.cfi_offset 6, -8
 438              		.cfi_offset 14, -4
 439              		.loc 1 329 0
 440 0004 0040A0E1 		mov	r4, r0
 441 0008 0160A0E1 		mov	r6, r1
 442              		.loc 1 335 0
 443 000c 100080E2 		add	r0, r0, #16
 444              	.LVL42:
 445 0010 0210A0E1 		mov	r1, r2
 446              	.LVL43:
 447 0014 FEFFFFEB 		bl	chSemWaitTimeoutS
 448              	.LVL44:
 449              		.loc 1 336 0
 450 0018 005050E2 		subs	r5, r0, #0
 451 001c 0B00001A 		bne	.L30
 452              	.LVL45:
 453              	.LBB12:
 454              	.LBB13:
 455              		.loc 1 337 0
 456 0020 0C2094E5 		ldr	r2, [r4, #12]
ARM GAS  /tmp/ccyxrXYx.s 			page 9


 457              		.loc 1 338 0
 458 0024 041094E5 		ldr	r1, [r4, #4]
 459              		.loc 1 337 0
 460 0028 043082E2 		add	r3, r2, #4
 461              		.loc 1 338 0
 462 002c 010053E1 		cmp	r3, r1
 463              		.loc 1 337 0
 464 0030 002092E5 		ldr	r2, [r2]
 465 0034 0C3084E5 		str	r3, [r4, #12]
 466              		.loc 1 339 0
 467 0038 00309425 		ldrcs	r3, [r4]
 468              		.loc 1 337 0
 469 003c 002086E5 		str	r2, [r6]
 470              		.loc 1 340 0
 471 0040 1C0084E2 		add	r0, r4, #28
 472              	.LVL46:
 473              		.loc 1 339 0
 474 0044 0C308425 		strcs	r3, [r4, #12]
 475              		.loc 1 340 0
 476 0048 FEFFFFEB 		bl	chSemSignalI
 477              	.LVL47:
 478              		.loc 1 341 0
 479 004c FEFFFFEB 		bl	chSchRescheduleS
 480              	.LVL48:
 481              	.L30:
 482              	.LBE13:
 483              	.LBE12:
 484              		.loc 1 344 0
 485 0050 0500A0E1 		mov	r0, r5
 486 0054 7080BDE8 		ldmfd	sp!, {r4, r5, r6, pc}
 487              		.cfi_endproc
 488              	.LFE16:
 489              		.size	chMBFetchS, .-chMBFetchS
 490              		.section	.text.chMBFetch,"ax",%progbits
 491              		.align	2
 492              		.global	chMBFetch
 493              		.type	chMBFetch, %function
 494              	chMBFetch:
 495              	.LFB15:
 496              		.loc 1 301 0
 497              		.cfi_startproc
 498              		@ args = 0, pretend = 0, frame = 0
 499              		@ frame_needed = 0, uses_anonymous_args = 0
 500              	.LVL49:
 501 0000 08402DE9 		stmfd	sp!, {r3, lr}
 502              		.cfi_def_cfa_offset 8
 503              		.cfi_offset 3, -8
 504              		.cfi_offset 14, -4
 505              		.loc 1 304 0
 506              	@ 304 "../../os/kernel/src/chmboxes.c" 1
 507 0004 9FF021E3 		msr     CPSR_c, #0x9F
 508              	@ 0 "" 2
 509              		.loc 1 305 0
 510 0008 FEFFFFEB 		bl	chMBFetchS
 511              	.LVL50:
 512              		.loc 1 306 0
 513              	@ 306 "../../os/kernel/src/chmboxes.c" 1
ARM GAS  /tmp/ccyxrXYx.s 			page 10


 514 000c 1FF021E3 		msr     CPSR_c, #0x1F
 515              	@ 0 "" 2
 516              		.loc 1 308 0
 517 0010 0880BDE8 		ldmfd	sp!, {r3, pc}
 518              		.cfi_endproc
 519              	.LFE15:
 520              		.size	chMBFetch, .-chMBFetch
 521              		.section	.text.chMBFetchI,"ax",%progbits
 522              		.align	2
 523              		.global	chMBFetchI
 524              		.type	chMBFetchI, %function
 525              	chMBFetchI:
 526              	.LFB17:
 527              		.loc 1 360 0
 528              		.cfi_startproc
 529              		@ args = 0, pretend = 0, frame = 0
 530              		@ frame_needed = 0, uses_anonymous_args = 0
 531              	.LVL51:
 532 0000 08402DE9 		stmfd	sp!, {r3, lr}
 533              		.cfi_def_cfa_offset 8
 534              		.cfi_offset 3, -8
 535              		.cfi_offset 14, -4
 536              		.loc 1 365 0
 537 0004 183090E5 		ldr	r3, [r0, #24]
 538 0008 000053E3 		cmp	r3, #0
 539 000c 0E0000DA 		ble	.L38
 540              		.loc 1 367 0
 541 0010 012043E2 		sub	r2, r3, #1
 542              		.loc 1 368 0
 543 0014 0C3090E5 		ldr	r3, [r0, #12]
 544              		.loc 1 369 0
 545 0018 04C090E5 		ldr	ip, [r0, #4]
 546              		.loc 1 367 0
 547 001c 182080E5 		str	r2, [r0, #24]
 548              		.loc 1 368 0
 549 0020 002093E5 		ldr	r2, [r3]
 550 0024 043083E2 		add	r3, r3, #4
 551              		.loc 1 369 0
 552 0028 0C0053E1 		cmp	r3, ip
 553              		.loc 1 368 0
 554 002c 0C3080E5 		str	r3, [r0, #12]
 555              		.loc 1 370 0
 556 0030 00309025 		ldrcs	r3, [r0]
 557              		.loc 1 368 0
 558 0034 002081E5 		str	r2, [r1]
 559              		.loc 1 371 0
 560 0038 1C0080E2 		add	r0, r0, #28
 561              	.LVL52:
 562              		.loc 1 370 0
 563 003c 10300025 		strcs	r3, [r0, #-16]
 564              		.loc 1 371 0
 565 0040 FEFFFFEB 		bl	chSemSignalI
 566              	.LVL53:
 567              		.loc 1 372 0
 568 0044 0000A0E3 		mov	r0, #0
 569 0048 0880BDE8 		ldmfd	sp!, {r3, pc}
 570              	.LVL54:
ARM GAS  /tmp/ccyxrXYx.s 			page 11


 571              	.L38:
 572              		.loc 1 366 0
 573 004c 0000E0E3 		mvn	r0, #0
 574              	.LVL55:
 575              		.loc 1 373 0
 576 0050 0880BDE8 		ldmfd	sp!, {r3, pc}
 577              		.cfi_endproc
 578              	.LFE17:
 579              		.size	chMBFetchI, .-chMBFetchI
 580              		.text
 581              	.Letext0:
 582              		.file 2 "/usr/include/newlib/machine/_default_types.h"
 583              		.file 3 "/usr/include/newlib/sys/_stdint.h"
 584              		.file 4 "../../os/ports/GCC/ARM/chtypes.h"
 585              		.file 5 "../../os/kernel/include/chlists.h"
 586              		.file 6 "../../os/kernel/include/chthreads.h"
 587              		.file 7 "../../os/ports/GCC/ARM/chcore.h"
 588              		.file 8 "../../os/kernel/include/chsem.h"
 589              		.file 9 "../../os/kernel/include/chmtx.h"
 590              		.file 10 "../../os/kernel/include/chmboxes.h"
 591              		.file 11 "../../os/kernel/include/chschd.h"