ARM GAS  /tmp/cc6TVrPJ.s 			page 1


   1              		.cpu arm1176jz-s
   2              		.fpu softvfp
   3              		.eabi_attribute 20, 1
   4              		.eabi_attribute 21, 1
   5              		.eabi_attribute 23, 3
   6              		.eabi_attribute 24, 1
   7              		.eabi_attribute 25, 1
   8              		.eabi_attribute 26, 1
   9              		.eabi_attribute 30, 2
  10              		.eabi_attribute 34, 1
  11              		.eabi_attribute 18, 4
  12              		.file	"chmemcore.c"
  13              		.text
  14              	.Ltext0:
  15              		.cfi_sections	.debug_frame
  16              		.section	.text._core_init,"ax",%progbits
  17              		.align	2
  18              		.global	_core_init
  19              		.type	_core_init, %function
  20              	_core_init:
  21              	.LFB7:
  22              		.file 1 "../../os/kernel/src/chmemcore.c"
  23              		.loc 1 59 0
  24              		.cfi_startproc
  25              		@ args = 0, pretend = 0, frame = 0
  26              		@ frame_needed = 0, uses_anonymous_args = 0
  27              		@ link register save eliminated.
  28              		.loc 1 63 0
  29 0000 1C209FE5 		ldr	r2, .L2
  30              		.loc 1 64 0
  31 0004 1C309FE5 		ldr	r3, .L2+4
  32              		.loc 1 63 0
  33 0008 1C009FE5 		ldr	r0, .L2+8
  34              		.loc 1 64 0
  35 000c 1C109FE5 		ldr	r1, .L2+12
  36              		.loc 1 63 0
  37 0010 0320C2E3 		bic	r2, r2, #3
  38              		.loc 1 64 0
  39 0014 0330C3E3 		bic	r3, r3, #3
  40              		.loc 1 63 0
  41 0018 002080E5 		str	r2, [r0]
  42              		.loc 1 64 0
  43 001c 003081E5 		str	r3, [r1]
  44 0020 1EFF2FE1 		bx	lr
  45              	.L3:
  46              		.align	2
  47              	.L2:
  48 0024 03000000 		.word	__heap_base__+3
  49 0028 00000000 		.word	__heap_end__
  50 002c 00000000 		.word	.LANCHOR0
  51 0030 00000000 		.word	.LANCHOR1
  52              		.cfi_endproc
  53              	.LFE7:
  54              		.size	_core_init, .-_core_init
  55              		.section	.text.chCoreAlloc,"ax",%progbits
  56              		.align	2
  57              		.global	chCoreAlloc
ARM GAS  /tmp/cc6TVrPJ.s 			page 2


  58              		.type	chCoreAlloc, %function
  59              	chCoreAlloc:
  60              	.LFB8:
  61              		.loc 1 84 0
  62              		.cfi_startproc
  63              		@ args = 0, pretend = 0, frame = 0
  64              		@ frame_needed = 0, uses_anonymous_args = 0
  65              		@ link register save eliminated.
  66              	.LVL0:
  67              		.loc 1 87 0
  68              	@ 87 "../../os/kernel/src/chmemcore.c" 1
  69 0000 9FF021E3 		msr     CPSR_c, #0x9F
  70              	@ 0 "" 2
  71              	.LVL1:
  72              	.LBB4:
  73              	.LBB5:
  74              		.loc 1 111 0
  75 0004 30C09FE5 		ldr	ip, .L7
  76 0008 30309FE5 		ldr	r3, .L7+4
  77 000c 00209CE5 		ldr	r2, [ip]
  78 0010 001093E5 		ldr	r1, [r3]
  79              		.loc 1 110 0
  80 0014 033080E2 		add	r3, r0, #3
  81 0018 0330C3E3 		bic	r3, r3, #3
  82              	.LVL2:
  83              		.loc 1 111 0
  84 001c 011062E0 		rsb	r1, r2, r1
  85 0020 010053E1 		cmp	r3, r1
  86              	.LVL3:
  87              		.loc 1 114 0
  88 0024 03308290 		addls	r3, r2, r3
  89              	.LVL4:
  90 0028 00308C95 		strls	r3, [ip]
  91              		.loc 1 115 0
  92 002c 0200A091 		movls	r0, r2
  93              	.LVL5:
  94              		.loc 1 112 0
  95 0030 0000A083 		movhi	r0, #0
  96              	.LBE5:
  97              	.LBE4:
  98              		.loc 1 89 0
  99              	@ 89 "../../os/kernel/src/chmemcore.c" 1
 100 0034 1FF021E3 		msr     CPSR_c, #0x1F
 101              	@ 0 "" 2
 102              		.loc 1 91 0
 103 0038 1EFF2FE1 		bx	lr
 104              	.L8:
 105              		.align	2
 106              	.L7:
 107 003c 00000000 		.word	.LANCHOR0
 108 0040 00000000 		.word	.LANCHOR1
 109              		.cfi_endproc
 110              	.LFE8:
 111              		.size	chCoreAlloc, .-chCoreAlloc
 112              		.section	.text.chCoreAllocI,"ax",%progbits
 113              		.align	2
 114              		.global	chCoreAllocI
ARM GAS  /tmp/cc6TVrPJ.s 			page 3


 115              		.type	chCoreAllocI, %function
 116              	chCoreAllocI:
 117              	.LFB9:
 118              		.loc 1 105 0
 119              		.cfi_startproc
 120              		@ args = 0, pretend = 0, frame = 0
 121              		@ frame_needed = 0, uses_anonymous_args = 0
 122              		@ link register save eliminated.
 123              	.LVL6:
 124              		.loc 1 111 0
 125 0000 2CC09FE5 		ldr	ip, .L12
 126 0004 2C309FE5 		ldr	r3, .L12+4
 127 0008 00209CE5 		ldr	r2, [ip]
 128 000c 001093E5 		ldr	r1, [r3]
 129              		.loc 1 110 0
 130 0010 030080E2 		add	r0, r0, #3
 131              	.LVL7:
 132 0014 0330C0E3 		bic	r3, r0, #3
 133              	.LVL8:
 134              		.loc 1 111 0
 135 0018 011062E0 		rsb	r1, r2, r1
 136 001c 010053E1 		cmp	r3, r1
 137              	.LVL9:
 138              		.loc 1 114 0
 139 0020 03308290 		addls	r3, r2, r3
 140              	.LVL10:
 141              		.loc 1 115 0
 142 0024 0200A091 		movls	r0, r2
 143              	.LVL11:
 144              		.loc 1 114 0
 145 0028 00308C95 		strls	r3, [ip]
 146              		.loc 1 112 0
 147 002c 0000A083 		movhi	r0, #0
 148              		.loc 1 116 0
 149 0030 1EFF2FE1 		bx	lr
 150              	.L13:
 151              		.align	2
 152              	.L12:
 153 0034 00000000 		.word	.LANCHOR0
 154 0038 00000000 		.word	.LANCHOR1
 155              		.cfi_endproc
 156              	.LFE9:
 157              		.size	chCoreAllocI, .-chCoreAllocI
 158              		.section	.text.chCoreStatus,"ax",%progbits
 159              		.align	2
 160              		.global	chCoreStatus
 161              		.type	chCoreStatus, %function
 162              	chCoreStatus:
 163              	.LFB10:
 164              		.loc 1 125 0
 165              		.cfi_startproc
 166              		@ args = 0, pretend = 0, frame = 0
 167              		@ frame_needed = 0, uses_anonymous_args = 0
 168              		@ link register save eliminated.
 169              		.loc 1 127 0
 170 0000 10209FE5 		ldr	r2, .L15
 171 0004 10309FE5 		ldr	r3, .L15+4
ARM GAS  /tmp/cc6TVrPJ.s 			page 4


 172 0008 000092E5 		ldr	r0, [r2]
 173 000c 003093E5 		ldr	r3, [r3]
 174              		.loc 1 128 0
 175 0010 000063E0 		rsb	r0, r3, r0
 176 0014 1EFF2FE1 		bx	lr
 177              	.L16:
 178              		.align	2
 179              	.L15:
 180 0018 00000000 		.word	.LANCHOR1
 181 001c 00000000 		.word	.LANCHOR0
 182              		.cfi_endproc
 183              	.LFE10:
 184              		.size	chCoreStatus, .-chCoreStatus
 185              		.section	.bss.endmem,"aw",%nobits
 186              		.align	2
 187              		.set	.LANCHOR1,. + 0
 188              		.type	endmem, %object
 189              		.size	endmem, 4
 190              	endmem:
 191 0000 00000000 		.space	4
 192              		.section	.bss.nextmem,"aw",%nobits
 193              		.align	2
 194              		.set	.LANCHOR0,. + 0
 195              		.type	nextmem, %object
 196              		.size	nextmem, 4
 197              	nextmem:
 198 0000 00000000 		.space	4
 199              		.text
 200              	.Letext0:
 201              		.file 2 "/usr/lib/gcc/arm-none-eabi/4.9.3/include/stddef.h"
 202              		.file 3 "/usr/include/newlib/machine/_default_types.h"
 203              		.file 4 "/usr/include/newlib/sys/_stdint.h"