ARM GAS  /tmp/cc1QWGlx.s 			page 1


   1              		.cpu arm1176jz-s
   2              		.fpu softvfp
   3              		.eabi_attribute 20, 1
   4              		.eabi_attribute 21, 1
   5              		.eabi_attribute 23, 3
   6              		.eabi_attribute 24, 1
   7              		.eabi_attribute 25, 1
   8              		.eabi_attribute 26, 1
   9              		.eabi_attribute 30, 2
  10              		.eabi_attribute 34, 1
  11              		.eabi_attribute 18, 4
  12              		.file	"chmsg.c"
  13              		.text
  14              	.Ltext0:
  15              		.cfi_sections	.debug_frame
  16              		.section	.text.chMsgSend,"ax",%progbits
  17              		.align	2
  18              		.global	chMsgSend
  19              		.type	chMsgSend, %function
  20              	chMsgSend:
  21              	.LFB7:
  22              		.file 1 "../../os/kernel/src/chmsg.c"
  23              		.loc 1 68 0
  24              		.cfi_startproc
  25              		@ args = 0, pretend = 0, frame = 0
  26              		@ frame_needed = 0, uses_anonymous_args = 0
  27              	.LVL0:
  28              		.loc 1 69 0
  29 0000 50309FE5 		ldr	r3, .L6
  30              		.loc 1 68 0
  31 0004 10402DE9 		stmfd	sp!, {r4, lr}
  32              		.cfi_def_cfa_offset 8
  33              		.cfi_offset 4, -8
  34              		.cfi_offset 14, -4
  35              		.loc 1 69 0
  36 0008 184093E5 		ldr	r4, [r3, #24]
  37              	.LVL1:
  38              		.loc 1 73 0
  39              	@ 73 "../../os/kernel/src/chmsg.c" 1
  40 000c 9FF021E3 		msr     CPSR_c, #0x9F
  41              	@ 0 "" 2
  42              		.loc 1 75 0
  43 0010 2CC080E2 		add	ip, r0, #44
  44              		.loc 1 77 0
  45 0014 1CE0D0E5 		ldrb	lr, [r0, #28]	@ zero_extendqisi2
  46              		.loc 1 75 0
  47 0018 24C084E5 		str	ip, [r4, #36]
  48              	.LVL2:
  49              	.LBB6:
  50              	.LBB7:
  51              		.file 2 "../../os/kernel/include/chinline.h"
  52              		.loc 2 48 0
  53 001c 302090E5 		ldr	r2, [r0, #48]
  54              	.LBE7:
  55              	.LBE6:
  56              		.loc 1 77 0
  57 0020 0C005EE3 		cmp	lr, #12
ARM GAS  /tmp/cc1QWGlx.s 			page 2


  58              		.loc 1 74 0
  59 0024 341084E5 		str	r1, [r4, #52]
  60              	.LBB9:
  61              	.LBB8:
  62              		.loc 2 47 0
  63 0028 00C084E5 		str	ip, [r4]
  64              		.loc 2 48 0
  65 002c 042084E5 		str	r2, [r4, #4]
  66              		.loc 2 49 0
  67 0030 304080E5 		str	r4, [r0, #48]
  68 0034 004082E5 		str	r4, [r2]
  69              	.LBE8:
  70              	.LBE9:
  71              		.loc 1 77 0
  72 0038 0400000A 		beq	.L5
  73              	.LVL3:
  74              	.L2:
  75              		.loc 1 79 0
  76 003c 0A00A0E3 		mov	r0, #10
  77 0040 FEFFFFEB 		bl	chSchGoSleepS
  78              	.LVL4:
  79              		.loc 1 80 0
  80 0044 240094E5 		ldr	r0, [r4, #36]
  81              	.LVL5:
  82              		.loc 1 81 0
  83              	@ 81 "../../os/kernel/src/chmsg.c" 1
  84 0048 1FF021E3 		msr     CPSR_c, #0x1F
  85              	@ 0 "" 2
  86              		.loc 1 83 0
  87 004c 1080BDE8 		ldmfd	sp!, {r4, pc}
  88              	.LVL6:
  89              	.L5:
  90              		.loc 1 78 0
  91 0050 FEFFFFEB 		bl	chSchReadyI
  92              	.LVL7:
  93 0054 F8FFFFEA 		b	.L2
  94              	.L7:
  95              		.align	2
  96              	.L6:
  97 0058 00000000 		.word	rlist
  98              		.cfi_endproc
  99              	.LFE7:
 100              		.size	chMsgSend, .-chMsgSend
 101              		.section	.text.chMsgWait,"ax",%progbits
 102              		.align	2
 103              		.global	chMsgWait
 104              		.type	chMsgWait, %function
 105              	chMsgWait:
 106              	.LFB8:
 107              		.loc 1 99 0
 108              		.cfi_startproc
 109              		@ args = 0, pretend = 0, frame = 0
 110              		@ frame_needed = 0, uses_anonymous_args = 0
 111 0000 10402DE9 		stmfd	sp!, {r4, lr}
 112              		.cfi_def_cfa_offset 8
 113              		.cfi_offset 4, -8
 114              		.cfi_offset 14, -4
ARM GAS  /tmp/cc1QWGlx.s 			page 3


 115              		.loc 1 102 0
 116              	@ 102 "../../os/kernel/src/chmsg.c" 1
 117 0004 9FF021E3 		msr     CPSR_c, #0x9F
 118              	@ 0 "" 2
 119              		.loc 1 103 0
 120 0008 44409FE5 		ldr	r4, .L12
 121 000c 182094E5 		ldr	r2, [r4, #24]
 122 0010 0230A0E1 		mov	r3, r2
 123 0014 2C00B3E5 		ldr	r0, [r3, #44]!
 124 0018 030050E1 		cmp	r0, r3
 125 001c 0600000A 		beq	.L11
 126              	.L9:
 127              	.LVL8:
 128              		.loc 1 106 0
 129 0020 0BC0A0E3 		mov	ip, #11
 130              	.LBB10:
 131              	.LBB11:
 132              		.loc 2 55 0
 133 0024 001090E5 		ldr	r1, [r0]
 134 0028 2C1082E5 		str	r1, [r2, #44]
 135 002c 043081E5 		str	r3, [r1, #4]
 136              	.LBE11:
 137              	.LBE10:
 138              		.loc 1 106 0
 139 0030 1CC0C0E5 		strb	ip, [r0, #28]
 140              		.loc 1 107 0
 141              	@ 107 "../../os/kernel/src/chmsg.c" 1
 142 0034 1FF021E3 		msr     CPSR_c, #0x1F
 143              	@ 0 "" 2
 144              		.loc 1 109 0
 145 0038 1080BDE8 		ldmfd	sp!, {r4, pc}
 146              	.LVL9:
 147              	.L11:
 148              		.loc 1 104 0
 149 003c 0C00A0E3 		mov	r0, #12
 150 0040 FEFFFFEB 		bl	chSchGoSleepS
 151              	.LVL10:
 152 0044 182094E5 		ldr	r2, [r4, #24]
 153 0048 2C0092E5 		ldr	r0, [r2, #44]
 154 004c 2C3082E2 		add	r3, r2, #44
 155 0050 F2FFFFEA 		b	.L9
 156              	.L13:
 157              		.align	2
 158              	.L12:
 159 0054 00000000 		.word	rlist
 160              		.cfi_endproc
 161              	.LFE8:
 162              		.size	chMsgWait, .-chMsgWait
 163              		.section	.text.chMsgRelease,"ax",%progbits
 164              		.align	2
 165              		.global	chMsgRelease
 166              		.type	chMsgRelease, %function
 167              	chMsgRelease:
 168              	.LFB9:
 169              		.loc 1 121 0
 170              		.cfi_startproc
 171              		@ args = 0, pretend = 0, frame = 0
ARM GAS  /tmp/cc1QWGlx.s 			page 4


 172              		@ frame_needed = 0, uses_anonymous_args = 0
 173              	.LVL11:
 174 0000 08402DE9 		stmfd	sp!, {r3, lr}
 175              		.cfi_def_cfa_offset 8
 176              		.cfi_offset 3, -8
 177              		.cfi_offset 14, -4
 178              		.loc 1 123 0
 179              	@ 123 "../../os/kernel/src/chmsg.c" 1
 180 0004 9FF021E3 		msr     CPSR_c, #0x9F
 181              	@ 0 "" 2
 182              		.loc 1 126 0
 183 0008 FEFFFFEB 		bl	chSchWakeupS
 184              	.LVL12:
 185              		.loc 1 127 0
 186              	@ 127 "../../os/kernel/src/chmsg.c" 1
 187 000c 1FF021E3 		msr     CPSR_c, #0x1F
 188              	@ 0 "" 2
 189 0010 0880BDE8 		ldmfd	sp!, {r3, pc}
 190              		.cfi_endproc
 191              	.LFE9:
 192              		.size	chMsgRelease, .-chMsgRelease
 193              		.text
 194              	.Letext0:
 195              		.file 3 "/usr/include/newlib/machine/_default_types.h"
 196              		.file 4 "/usr/include/newlib/sys/_stdint.h"
 197              		.file 5 "../../os/ports/GCC/ARM/chtypes.h"
 198              		.file 6 "../../os/kernel/include/chlists.h"
 199              		.file 7 "../../os/kernel/include/chthreads.h"
 200              		.file 8 "../../os/ports/GCC/ARM/chcore.h"
 201              		.file 9 "../../os/kernel/include/chschd.h"
 202              		.file 10 "../../os/kernel/include/chmtx.h"