ARM GAS  /tmp/ccwg9Ekn.s 			page 1


   1              		.cpu arm1176jz-s
   2              		.fpu softvfp
   3              		.eabi_attribute 20, 1
   4              		.eabi_attribute 21, 1
   5              		.eabi_attribute 23, 3
   6              		.eabi_attribute 24, 1
   7              		.eabi_attribute 25, 1
   8              		.eabi_attribute 26, 1
   9              		.eabi_attribute 30, 2
  10              		.eabi_attribute 34, 1
  11              		.eabi_attribute 18, 4
  12              		.file	"chmtx.c"
  13              		.text
  14              	.Ltext0:
  15              		.cfi_sections	.debug_frame
  16              		.section	.text.chMtxInit,"ax",%progbits
  17              		.align	2
  18              		.global	chMtxInit
  19              		.type	chMtxInit, %function
  20              	chMtxInit:
  21              	.LFB7:
  22              		.file 1 "../../os/kernel/src/chmtx.c"
  23              		.loc 1 79 0
  24              		.cfi_startproc
  25              		@ args = 0, pretend = 0, frame = 0
  26              		@ frame_needed = 0, uses_anonymous_args = 0
  27              		@ link register save eliminated.
  28              	.LVL0:
  29              		.loc 1 84 0
  30 0000 0030A0E3 		mov	r3, #0
  31              		.loc 1 83 0
  32 0004 040080E5 		str	r0, [r0, #4]
  33 0008 000080E5 		str	r0, [r0]
  34              		.loc 1 84 0
  35 000c 083080E5 		str	r3, [r0, #8]
  36 0010 1EFF2FE1 		bx	lr
  37              		.cfi_endproc
  38              	.LFE7:
  39              		.size	chMtxInit, .-chMtxInit
  40              		.section	.text.chMtxLockS,"ax",%progbits
  41              		.align	2
  42              		.global	chMtxLockS
  43              		.type	chMtxLockS, %function
  44              	chMtxLockS:
  45              	.LFB9:
  46              		.loc 1 114 0
  47              		.cfi_startproc
  48              		@ args = 0, pretend = 0, frame = 0
  49              		@ frame_needed = 0, uses_anonymous_args = 0
  50              	.LVL1:
  51              		.loc 1 121 0
  52 0000 082090E5 		ldr	r2, [r0, #8]
  53              		.loc 1 114 0
  54 0004 38402DE9 		stmfd	sp!, {r3, r4, r5, lr}
  55              		.cfi_def_cfa_offset 16
  56              		.cfi_offset 3, -16
  57              		.cfi_offset 4, -12
ARM GAS  /tmp/ccwg9Ekn.s 			page 2


  58              		.cfi_offset 5, -8
  59              		.cfi_offset 14, -4
  60              		.loc 1 115 0
  61 0008 68319FE5 		ldr	r3, .L28
  62              		.loc 1 121 0
  63 000c 000052E3 		cmp	r2, #0
  64              		.loc 1 115 0
  65 0010 184093E5 		ldr	r4, [r3, #24]
  66              	.LVL2:
  67              		.loc 1 121 0
  68 0014 5200000A 		beq	.L3
  69              	.LBB27:
  70              		.loc 1 128 0
  71 0018 081094E5 		ldr	r1, [r4, #8]
  72 001c 083092E5 		ldr	r3, [r2, #8]
  73 0020 0050A0E1 		mov	r5, r0
  74              	.LVL3:
  75 0024 030051E1 		cmp	r1, r3
  76 0028 0700009A 		bls	.L5
  77              	.LVL4:
  78              	.L10:
  79              		.loc 1 132 0
  80 002c 1C30D2E5 		ldrb	r3, [r2, #28]	@ zero_extendqisi2
  81              		.loc 1 130 0
  82 0030 081082E5 		str	r1, [r2, #8]
  83              		.loc 1 132 0
  84 0034 040053E3 		cmp	r3, #4
  85 0038 3000000A 		beq	.L6
  86 003c 050053E3 		cmp	r3, #5
  87 0040 1A00000A 		beq	.L7
  88 0044 000053E3 		cmp	r3, #0
  89 0048 1100000A 		beq	.L27
  90              	.LVL5:
  91              	.L5:
  92              	.LBB28:
  93              	.LBB29:
  94              		.file 2 "../../os/kernel/include/chinline.h"
  95              		.loc 2 36 0
  96 004c 0530A0E1 		mov	r3, r5
  97 0050 030000EA 		b	.L18
  98              	.LVL6:
  99              	.L17:
 100              		.loc 2 39 0
 101 0054 081093E5 		ldr	r1, [r3, #8]
 102 0058 082094E5 		ldr	r2, [r4, #8]
 103 005c 020051E1 		cmp	r1, r2
 104 0060 0200003A 		bcc	.L19
 105              	.L18:
 106              		.loc 2 38 0
 107 0064 003093E5 		ldr	r3, [r3]
 108              	.LVL7:
 109              		.loc 2 39 0
 110 0068 030055E1 		cmp	r5, r3
 111 006c F8FFFF1A 		bne	.L17
 112              	.L19:
 113              		.loc 2 41 0
 114 0070 042093E5 		ldr	r2, [r3, #4]
ARM GAS  /tmp/ccwg9Ekn.s 			page 3


 115              		.loc 2 40 0
 116 0074 003084E5 		str	r3, [r4]
 117              		.loc 2 41 0
 118 0078 042084E5 		str	r2, [r4, #4]
 119              		.loc 2 42 0
 120 007c 044083E5 		str	r4, [r3, #4]
 121 0080 004082E5 		str	r4, [r2]
 122              	.LBE29:
 123              	.LBE28:
 124              		.loc 1 167 0
 125 0084 245084E5 		str	r5, [r4, #36]
 126              		.loc 1 168 0
 127 0088 0400A0E3 		mov	r0, #4
 128              	.LBE27:
 129              		.loc 1 180 0
 130 008c 3840BDE8 		ldmfd	sp!, {r3, r4, r5, lr}
 131              		.cfi_remember_state
 132              		.cfi_restore 14
 133              		.cfi_restore 5
 134              		.cfi_restore 4
 135              		.cfi_restore 3
 136              		.cfi_def_cfa_offset 0
 137              	.LVL8:
 138              	.LBB52:
 139              		.loc 1 168 0
 140 0090 FEFFFFEA 		b	chSchGoSleepS
 141              	.LVL9:
 142              	.L27:
 143              		.cfi_restore_state
 144              	.LBB30:
 145              	.LBB31:
 146              		.loc 2 68 0
 147 0094 0A0092E8 		ldmia	r2, {r1, r3}
 148 0098 001083E5 		str	r1, [r3]
 149              	.LBE31:
 150              	.LBE30:
 151              		.loc 1 160 0
 152 009c 0200A0E1 		mov	r0, r2
 153              	.LBB33:
 154              	.LBB32:
 155              		.loc 2 69 0
 156 00a0 002092E5 		ldr	r2, [r2]
 157              	.LVL10:
 158 00a4 043082E5 		str	r3, [r2, #4]
 159              	.LBE32:
 160              	.LBE33:
 161              		.loc 1 160 0
 162 00a8 FEFFFFEB 		bl	chSchReadyI
 163              	.LVL11:
 164              		.loc 1 161 0
 165 00ac E6FFFFEA 		b	.L5
 166              	.LVL12:
 167              	.L7:
 168              	.LBB34:
 169              	.LBB35:
 170              		.loc 2 68 0
 171 00b0 00E092E5 		ldr	lr, [r2]
ARM GAS  /tmp/ccwg9Ekn.s 			page 4


 172 00b4 040092E5 		ldr	r0, [r2, #4]
 173              	.LBE35:
 174              	.LBE34:
 175              		.loc 1 151 0
 176 00b8 24C092E5 		ldr	ip, [r2, #36]
 177              	.LVL13:
 178              	.LBB38:
 179              	.LBB36:
 180              		.loc 2 68 0
 181 00bc 00E080E5 		str	lr, [r0]
 182              		.loc 2 69 0
 183 00c0 00E092E5 		ldr	lr, [r2]
 184              	.LBE36:
 185              	.LBE38:
 186              	.LBB39:
 187              	.LBB40:
 188              		.loc 2 36 0
 189 00c4 0C30A0E1 		mov	r3, ip
 190              	.LBE40:
 191              	.LBE39:
 192              	.LBB42:
 193              	.LBB37:
 194              		.loc 2 69 0
 195 00c8 04008EE5 		str	r0, [lr, #4]
 196 00cc 020000EA 		b	.L15
 197              	.LVL14:
 198              	.L14:
 199              	.LBE37:
 200              	.LBE42:
 201              	.LBB43:
 202              	.LBB41:
 203              		.loc 2 39 0
 204 00d0 080093E5 		ldr	r0, [r3, #8]
 205 00d4 010050E1 		cmp	r0, r1
 206 00d8 0200003A 		bcc	.L16
 207              	.L15:
 208              		.loc 2 38 0
 209 00dc 003093E5 		ldr	r3, [r3]
 210              	.LVL15:
 211              		.loc 2 39 0
 212 00e0 03005CE1 		cmp	ip, r3
 213 00e4 F9FFFF1A 		bne	.L14
 214              	.L16:
 215              		.loc 2 41 0
 216 00e8 041093E5 		ldr	r1, [r3, #4]
 217              		.loc 2 40 0
 218 00ec 003082E5 		str	r3, [r2]
 219              		.loc 2 41 0
 220 00f0 041082E5 		str	r1, [r2, #4]
 221              		.loc 2 42 0
 222 00f4 042083E5 		str	r2, [r3, #4]
 223 00f8 002081E5 		str	r2, [r1]
 224 00fc D2FFFFEA 		b	.L5
 225              	.LVL16:
 226              	.L6:
 227              	.LBE41:
 228              	.LBE43:
ARM GAS  /tmp/ccwg9Ekn.s 			page 5


 229              	.LBB44:
 230              	.LBB45:
 231              		.loc 2 68 0
 232 0100 00E092E5 		ldr	lr, [r2]
 233 0104 040092E5 		ldr	r0, [r2, #4]
 234              	.LBE45:
 235              	.LBE44:
 236              		.loc 1 135 0
 237 0108 24C092E5 		ldr	ip, [r2, #36]
 238              	.LVL17:
 239              	.LBB48:
 240              	.LBB46:
 241              		.loc 2 68 0
 242 010c 00E080E5 		str	lr, [r0]
 243              		.loc 2 69 0
 244 0110 00E092E5 		ldr	lr, [r2]
 245              	.LBE46:
 246              	.LBE48:
 247              		.loc 1 135 0
 248 0114 0C30A0E1 		mov	r3, ip
 249              	.LBB49:
 250              	.LBB47:
 251              		.loc 2 69 0
 252 0118 04008EE5 		str	r0, [lr, #4]
 253 011c 020000EA 		b	.L12
 254              	.LVL18:
 255              	.L9:
 256              	.LBE47:
 257              	.LBE49:
 258              	.LBB50:
 259              	.LBB51:
 260              		.loc 2 39 0
 261 0120 080093E5 		ldr	r0, [r3, #8]
 262 0124 010050E1 		cmp	r0, r1
 263 0128 0200003A 		bcc	.L13
 264              	.L12:
 265              		.loc 2 38 0
 266 012c 003093E5 		ldr	r3, [r3]
 267              	.LVL19:
 268              		.loc 2 39 0
 269 0130 03005CE1 		cmp	ip, r3
 270 0134 F9FFFF1A 		bne	.L9
 271              	.L13:
 272              		.loc 2 41 0
 273 0138 041093E5 		ldr	r1, [r3, #4]
 274              		.loc 2 40 0
 275 013c 003082E5 		str	r3, [r2]
 276              		.loc 2 41 0
 277 0140 041082E5 		str	r1, [r2, #4]
 278              		.loc 2 42 0
 279 0144 042083E5 		str	r2, [r3, #4]
 280 0148 002081E5 		str	r2, [r1]
 281              	.LBE51:
 282              	.LBE50:
 283              		.loc 1 136 0
 284 014c 08209CE5 		ldr	r2, [ip, #8]
 285              	.LVL20:
ARM GAS  /tmp/ccwg9Ekn.s 			page 6


 286              		.loc 1 128 0
 287 0150 081094E5 		ldr	r1, [r4, #8]
 288 0154 083092E5 		ldr	r3, [r2, #8]
 289              	.LVL21:
 290 0158 010053E1 		cmp	r3, r1
 291 015c B2FFFF3A 		bcc	.L10
 292 0160 B9FFFFEA 		b	.L5
 293              	.LVL22:
 294              	.L3:
 295              	.LBE52:
 296              		.loc 1 177 0
 297 0164 3C3094E5 		ldr	r3, [r4, #60]
 298              		.loc 1 176 0
 299 0168 084080E5 		str	r4, [r0, #8]
 300              		.loc 1 177 0
 301 016c 0C3080E5 		str	r3, [r0, #12]
 302              		.loc 1 178 0
 303 0170 3C0084E5 		str	r0, [r4, #60]
 304 0174 3880BDE8 		ldmfd	sp!, {r3, r4, r5, pc}
 305              	.L29:
 306              		.align	2
 307              	.L28:
 308 0178 00000000 		.word	rlist
 309              		.cfi_endproc
 310              	.LFE9:
 311              		.size	chMtxLockS, .-chMtxLockS
 312              		.section	.text.chMtxLock,"ax",%progbits
 313              		.align	2
 314              		.global	chMtxLock
 315              		.type	chMtxLock, %function
 316              	chMtxLock:
 317              	.LFB8:
 318              		.loc 1 96 0
 319              		.cfi_startproc
 320              		@ args = 0, pretend = 0, frame = 0
 321              		@ frame_needed = 0, uses_anonymous_args = 0
 322              	.LVL23:
 323 0000 08402DE9 		stmfd	sp!, {r3, lr}
 324              		.cfi_def_cfa_offset 8
 325              		.cfi_offset 3, -8
 326              		.cfi_offset 14, -4
 327              		.loc 1 98 0
 328              	@ 98 "../../os/kernel/src/chmtx.c" 1
 329 0004 9FF021E3 		msr     CPSR_c, #0x9F
 330              	@ 0 "" 2
 331              		.loc 1 100 0
 332 0008 FEFFFFEB 		bl	chMtxLockS
 333              	.LVL24:
 334              		.loc 1 102 0
 335              	@ 102 "../../os/kernel/src/chmtx.c" 1
 336 000c 1FF021E3 		msr     CPSR_c, #0x1F
 337              	@ 0 "" 2
 338 0010 0880BDE8 		ldmfd	sp!, {r3, pc}
 339              		.cfi_endproc
 340              	.LFE8:
 341              		.size	chMtxLock, .-chMtxLock
 342              		.section	.text.chMtxTryLock,"ax",%progbits
ARM GAS  /tmp/ccwg9Ekn.s 			page 7


 343              		.align	2
 344              		.global	chMtxTryLock
 345              		.type	chMtxTryLock, %function
 346              	chMtxTryLock:
 347              	.LFB10:
 348              		.loc 1 199 0
 349              		.cfi_startproc
 350              		@ args = 0, pretend = 0, frame = 0
 351              		@ frame_needed = 0, uses_anonymous_args = 0
 352              		@ link register save eliminated.
 353              	.LVL25:
 354              		.loc 1 199 0
 355 0000 0030A0E1 		mov	r3, r0
 356              		.loc 1 202 0
 357              	@ 202 "../../os/kernel/src/chmtx.c" 1
 358 0004 9FF021E3 		msr     CPSR_c, #0x9F
 359              	@ 0 "" 2
 360              	.LVL26:
 361              	.LBB57:
 362              	.LBB58:
 363              		.loc 1 232 0
 364 0008 082090E5 		ldr	r2, [r0, #8]
 365 000c 000052E3 		cmp	r2, #0
 366              	.LVL27:
 367              	.LBB59:
 368              	.LBB60:
 369              		.loc 1 234 0
 370 0010 20209F05 		ldreq	r2, .L35
 371              		.loc 1 236 0
 372 0014 0100A003 		moveq	r0, #1
 373              	.LVL28:
 374              		.loc 1 234 0
 375 0018 18209205 		ldreq	r2, [r2, #24]
 376              	.LBE60:
 377              	.LBE59:
 378              		.loc 1 233 0
 379 001c 0000A013 		movne	r0, #0
 380              	.LBB62:
 381              	.LBB61:
 382              		.loc 1 235 0
 383 0020 3C109205 		ldreq	r1, [r2, #60]
 384              		.loc 1 234 0
 385 0024 08208305 		streq	r2, [r3, #8]
 386              		.loc 1 235 0
 387 0028 0C108305 		streq	r1, [r3, #12]
 388              		.loc 1 236 0
 389 002c 3C308205 		streq	r3, [r2, #60]
 390              	.LBE61:
 391              	.LBE62:
 392              	.LBE58:
 393              	.LBE57:
 394              		.loc 1 206 0
 395              	@ 206 "../../os/kernel/src/chmtx.c" 1
 396 0030 1FF021E3 		msr     CPSR_c, #0x1F
 397              	@ 0 "" 2
 398              		.loc 1 208 0
 399 0034 1EFF2FE1 		bx	lr
ARM GAS  /tmp/ccwg9Ekn.s 			page 8


 400              	.L36:
 401              		.align	2
 402              	.L35:
 403 0038 00000000 		.word	rlist
 404              		.cfi_endproc
 405              	.LFE10:
 406              		.size	chMtxTryLock, .-chMtxTryLock
 407              		.section	.text.chMtxTryLockS,"ax",%progbits
 408              		.align	2
 409              		.global	chMtxTryLockS
 410              		.type	chMtxTryLockS, %function
 411              	chMtxTryLockS:
 412              	.LFB11:
 413              		.loc 1 227 0
 414              		.cfi_startproc
 415              		@ args = 0, pretend = 0, frame = 0
 416              		@ frame_needed = 0, uses_anonymous_args = 0
 417              		@ link register save eliminated.
 418              	.LVL29:
 419              		.loc 1 227 0
 420 0000 0030A0E1 		mov	r3, r0
 421              		.loc 1 232 0
 422 0004 082090E5 		ldr	r2, [r0, #8]
 423 0008 000052E3 		cmp	r2, #0
 424              	.LVL30:
 425              	.LBB65:
 426              	.LBB66:
 427              		.loc 1 234 0
 428 000c 1C209F05 		ldreq	r2, .L40
 429              		.loc 1 236 0
 430 0010 0100A003 		moveq	r0, #1
 431              	.LVL31:
 432              		.loc 1 234 0
 433 0014 18209205 		ldreq	r2, [r2, #24]
 434              	.LBE66:
 435              	.LBE65:
 436              		.loc 1 233 0
 437 0018 0000A013 		movne	r0, #0
 438              	.LBB68:
 439              	.LBB67:
 440              		.loc 1 235 0
 441 001c 3C109205 		ldreq	r1, [r2, #60]
 442              		.loc 1 234 0
 443 0020 08208305 		streq	r2, [r3, #8]
 444              		.loc 1 235 0
 445 0024 0C108305 		streq	r1, [r3, #12]
 446              		.loc 1 236 0
 447 0028 3C308205 		streq	r3, [r2, #60]
 448              	.LBE67:
 449              	.LBE68:
 450              		.loc 1 238 0
 451 002c 1EFF2FE1 		bx	lr
 452              	.L41:
 453              		.align	2
 454              	.L40:
 455 0030 00000000 		.word	rlist
 456              		.cfi_endproc
ARM GAS  /tmp/ccwg9Ekn.s 			page 9


 457              	.LFE11:
 458              		.size	chMtxTryLockS, .-chMtxTryLockS
 459              		.section	.text.chMtxUnlock,"ax",%progbits
 460              		.align	2
 461              		.global	chMtxUnlock
 462              		.type	chMtxUnlock, %function
 463              	chMtxUnlock:
 464              	.LFB12:
 465              		.loc 1 250 0
 466              		.cfi_startproc
 467              		@ args = 0, pretend = 0, frame = 0
 468              		@ frame_needed = 0, uses_anonymous_args = 0
 469              		.loc 1 251 0
 470 0000 94309FE5 		ldr	r3, .L53
 471              		.loc 1 250 0
 472 0004 10402DE9 		stmfd	sp!, {r4, lr}
 473              		.cfi_def_cfa_offset 8
 474              		.cfi_offset 4, -8
 475              		.cfi_offset 14, -4
 476              		.loc 1 251 0
 477 0008 180093E5 		ldr	r0, [r3, #24]
 478              	.LVL32:
 479              		.loc 1 254 0
 480              	@ 254 "../../os/kernel/src/chmtx.c" 1
 481 000c 9FF021E3 		msr     CPSR_c, #0x9F
 482              	@ 0 "" 2
 483              		.loc 1 263 0
 484 0010 3C4090E5 		ldr	r4, [r0, #60]
 485              	.LVL33:
 486              		.loc 1 266 0
 487 0014 00C094E5 		ldr	ip, [r4]
 488              		.loc 1 264 0
 489 0018 0C3094E5 		ldr	r3, [r4, #12]
 490              		.loc 1 266 0
 491 001c 04005CE1 		cmp	ip, r4
 492              		.loc 1 264 0
 493 0020 3C3080E5 		str	r3, [r0, #60]
 494              		.loc 1 266 0
 495 0024 1900000A 		beq	.L43
 496              	.LBB69:
 497              		.loc 1 273 0
 498 0028 000053E3 		cmp	r3, #0
 499              		.loc 1 271 0
 500 002c 401090E5 		ldr	r1, [r0, #64]
 501              	.LVL34:
 502              		.loc 1 273 0
 503 0030 0800000A 		beq	.L44
 504              	.L46:
 505              		.loc 1 277 0
 506 0034 002093E5 		ldr	r2, [r3]
 507 0038 030052E1 		cmp	r2, r3
 508 003c 0200000A 		beq	.L45
 509              		.loc 1 277 0 is_stmt 0 discriminator 1
 510 0040 082092E5 		ldr	r2, [r2, #8]
 511 0044 020051E1 		cmp	r1, r2
 512 0048 0210A031 		movcc	r1, r2
 513              	.LVL35:
ARM GAS  /tmp/ccwg9Ekn.s 			page 10


 514              	.L45:
 515              		.loc 1 279 0 is_stmt 1
 516 004c 0C3093E5 		ldr	r3, [r3, #12]
 517              	.LVL36:
 518              		.loc 1 273 0
 519 0050 000053E3 		cmp	r3, #0
 520 0054 F6FFFF1A 		bne	.L46
 521              	.L44:
 522              		.loc 1 288 0
 523 0058 3C209CE5 		ldr	r2, [ip, #60]
 524              	.LBB70:
 525              	.LBB71:
 526              		.loc 2 55 0
 527 005c 00309CE5 		ldr	r3, [ip]
 528              	.LVL37:
 529              	.LBE71:
 530              	.LBE70:
 531              		.loc 1 283 0
 532 0060 081080E5 		str	r1, [r0, #8]
 533              	.LVL38:
 534              	.LBB74:
 535              	.LBB72:
 536              		.loc 2 55 0
 537 0064 003084E5 		str	r3, [r4]
 538              	.LBE72:
 539              	.LBE74:
 540              		.loc 1 290 0
 541 0068 0C00A0E1 		mov	r0, ip
 542              	.LVL39:
 543              	.LBB75:
 544              	.LBB73:
 545              		.loc 2 55 0
 546 006c 044083E5 		str	r4, [r3, #4]
 547              	.LBE73:
 548              	.LBE75:
 549              		.loc 1 290 0
 550 0070 0010A0E3 		mov	r1, #0
 551              	.LVL40:
 552              		.loc 1 287 0
 553 0074 08C084E5 		str	ip, [r4, #8]
 554              		.loc 1 288 0
 555 0078 0C2084E5 		str	r2, [r4, #12]
 556              		.loc 1 289 0
 557 007c 3C408CE5 		str	r4, [ip, #60]
 558              		.loc 1 290 0
 559 0080 FEFFFFEB 		bl	chSchWakeupS
 560              	.LVL41:
 561              	.L47:
 562              	.LBE69:
 563              		.loc 1 294 0
 564              	@ 294 "../../os/kernel/src/chmtx.c" 1
 565 0084 1FF021E3 		msr     CPSR_c, #0x1F
 566              	@ 0 "" 2
 567              		.loc 1 296 0
 568 0088 0400A0E1 		mov	r0, r4
 569 008c 1080BDE8 		ldmfd	sp!, {r4, pc}
 570              	.LVL42:
ARM GAS  /tmp/ccwg9Ekn.s 			page 11


 571              	.L43:
 572              		.loc 1 293 0
 573 0090 0030A0E3 		mov	r3, #0
 574 0094 083084E5 		str	r3, [r4, #8]
 575 0098 F9FFFFEA 		b	.L47
 576              	.L54:
 577              		.align	2
 578              	.L53:
 579 009c 00000000 		.word	rlist
 580              		.cfi_endproc
 581              	.LFE12:
 582              		.size	chMtxUnlock, .-chMtxUnlock
 583              		.section	.text.chMtxUnlockS,"ax",%progbits
 584              		.align	2
 585              		.global	chMtxUnlockS
 586              		.type	chMtxUnlockS, %function
 587              	chMtxUnlockS:
 588              	.LFB13:
 589              		.loc 1 310 0
 590              		.cfi_startproc
 591              		@ args = 0, pretend = 0, frame = 0
 592              		@ frame_needed = 0, uses_anonymous_args = 0
 593              		.loc 1 311 0
 594 0000 8C309FE5 		ldr	r3, .L66
 595              		.loc 1 310 0
 596 0004 10402DE9 		stmfd	sp!, {r4, lr}
 597              		.cfi_def_cfa_offset 8
 598              		.cfi_offset 4, -8
 599              		.cfi_offset 14, -4
 600              		.loc 1 311 0
 601 0008 180093E5 		ldr	r0, [r3, #24]
 602              	.LVL43:
 603              		.loc 1 324 0
 604 000c 3C4090E5 		ldr	r4, [r0, #60]
 605              	.LVL44:
 606              		.loc 1 327 0
 607 0010 00C094E5 		ldr	ip, [r4]
 608              		.loc 1 325 0
 609 0014 0C3094E5 		ldr	r3, [r4, #12]
 610              		.loc 1 327 0
 611 0018 04005CE1 		cmp	ip, r4
 612              		.loc 1 325 0
 613 001c 3C3080E5 		str	r3, [r0, #60]
 614              		.loc 1 327 0
 615 0020 1700000A 		beq	.L56
 616              	.LBB76:
 617              		.loc 1 334 0
 618 0024 000053E3 		cmp	r3, #0
 619              		.loc 1 332 0
 620 0028 401090E5 		ldr	r1, [r0, #64]
 621              	.LVL45:
 622              		.loc 1 334 0
 623 002c 0800000A 		beq	.L57
 624              	.L59:
 625              		.loc 1 338 0
 626 0030 002093E5 		ldr	r2, [r3]
 627 0034 030052E1 		cmp	r2, r3
ARM GAS  /tmp/ccwg9Ekn.s 			page 12


 628 0038 0200000A 		beq	.L58
 629              		.loc 1 338 0 is_stmt 0 discriminator 1
 630 003c 082092E5 		ldr	r2, [r2, #8]
 631 0040 020051E1 		cmp	r1, r2
 632 0044 0210A031 		movcc	r1, r2
 633              	.LVL46:
 634              	.L58:
 635              		.loc 1 340 0 is_stmt 1
 636 0048 0C3093E5 		ldr	r3, [r3, #12]
 637              	.LVL47:
 638              		.loc 1 334 0
 639 004c 000053E3 		cmp	r3, #0
 640 0050 F6FFFF1A 		bne	.L59
 641              	.L57:
 642              		.loc 1 347 0
 643 0054 3C209CE5 		ldr	r2, [ip, #60]
 644              	.LBB77:
 645              	.LBB78:
 646              		.loc 2 55 0
 647 0058 00309CE5 		ldr	r3, [ip]
 648              	.LVL48:
 649              	.LBE78:
 650              	.LBE77:
 651              		.loc 1 342 0
 652 005c 081080E5 		str	r1, [r0, #8]
 653              	.LVL49:
 654              	.LBB81:
 655              	.LBB79:
 656              		.loc 2 55 0
 657 0060 003084E5 		str	r3, [r4]
 658              	.LBE79:
 659              	.LBE81:
 660              		.loc 1 349 0
 661 0064 0C00A0E1 		mov	r0, ip
 662              	.LVL50:
 663              	.LBB82:
 664              	.LBB80:
 665              		.loc 2 55 0
 666 0068 044083E5 		str	r4, [r3, #4]
 667              	.LBE80:
 668              	.LBE82:
 669              		.loc 1 346 0
 670 006c 08C084E5 		str	ip, [r4, #8]
 671              		.loc 1 347 0
 672 0070 0C2084E5 		str	r2, [r4, #12]
 673              		.loc 1 348 0
 674 0074 3C408CE5 		str	r4, [ip, #60]
 675              		.loc 1 349 0
 676 0078 FEFFFFEB 		bl	chSchReadyI
 677              	.LVL51:
 678              	.LBE76:
 679              		.loc 1 354 0
 680 007c 0400A0E1 		mov	r0, r4
 681 0080 1080BDE8 		ldmfd	sp!, {r4, pc}
 682              	.LVL52:
 683              	.L56:
 684              		.loc 1 352 0
ARM GAS  /tmp/ccwg9Ekn.s 			page 13


 685 0084 0030A0E3 		mov	r3, #0
 686              		.loc 1 354 0
 687 0088 0400A0E1 		mov	r0, r4
 688              	.LVL53:
 689              		.loc 1 352 0
 690 008c 083084E5 		str	r3, [r4, #8]
 691              		.loc 1 354 0
 692 0090 1080BDE8 		ldmfd	sp!, {r4, pc}
 693              	.L67:
 694              		.align	2
 695              	.L66:
 696 0094 00000000 		.word	rlist
 697              		.cfi_endproc
 698              	.LFE13:
 699              		.size	chMtxUnlockS, .-chMtxUnlockS
 700              		.section	.text.chMtxUnlockAll,"ax",%progbits
 701              		.align	2
 702              		.global	chMtxUnlockAll
 703              		.type	chMtxUnlockAll, %function
 704              	chMtxUnlockAll:
 705              	.LFB14:
 706              		.loc 1 367 0
 707              		.cfi_startproc
 708              		@ args = 0, pretend = 0, frame = 0
 709              		@ frame_needed = 0, uses_anonymous_args = 0
 710 0000 38402DE9 		stmfd	sp!, {r3, r4, r5, lr}
 711              		.cfi_def_cfa_offset 16
 712              		.cfi_offset 3, -16
 713              		.cfi_offset 4, -12
 714              		.cfi_offset 5, -8
 715              		.cfi_offset 14, -4
 716              		.loc 1 368 0
 717 0004 70309FE5 		ldr	r3, .L78
 718 0008 184093E5 		ldr	r4, [r3, #24]
 719              	.LVL54:
 720              		.loc 1 370 0
 721              	@ 370 "../../os/kernel/src/chmtx.c" 1
 722 000c 9FF021E3 		msr     CPSR_c, #0x9F
 723              	@ 0 "" 2
 724              		.loc 1 371 0
 725 0010 3C3094E5 		ldr	r3, [r4, #60]
 726 0014 000053E3 		cmp	r3, #0
 727 0018 1500000A 		beq	.L69
 728              	.LBB83:
 729              		.loc 1 383 0
 730 001c 0050A0E3 		mov	r5, #0
 731              	.L72:
 732              	.LVL55:
 733              		.loc 1 375 0
 734 0020 002093E5 		ldr	r2, [r3]
 735              	.LVL56:
 736              		.loc 1 374 0
 737 0024 0C1093E5 		ldr	r1, [r3, #12]
 738              		.loc 1 375 0
 739 0028 030052E1 		cmp	r2, r3
 740              		.loc 1 374 0
 741 002c 3C1084E5 		str	r1, [r4, #60]
ARM GAS  /tmp/ccwg9Ekn.s 			page 14


 742              		.loc 1 383 0
 743 0030 08508305 		streq	r5, [r3, #8]
 744              		.loc 1 375 0
 745 0034 0800000A 		beq	.L71
 746              	.LBB84:
 747              		.loc 1 378 0
 748 0038 3CC092E5 		ldr	ip, [r2, #60]
 749              	.LBB85:
 750              	.LBB86:
 751              		.loc 2 55 0
 752 003c 001092E5 		ldr	r1, [r2]
 753              	.LBE86:
 754              	.LBE85:
 755              		.loc 1 380 0
 756 0040 0200A0E1 		mov	r0, r2
 757              	.LBB88:
 758              	.LBB87:
 759              		.loc 2 55 0
 760 0044 001083E5 		str	r1, [r3]
 761 0048 043081E5 		str	r3, [r1, #4]
 762              	.LBE87:
 763              	.LBE88:
 764              		.loc 1 377 0
 765 004c 082083E5 		str	r2, [r3, #8]
 766              		.loc 1 378 0
 767 0050 0CC083E5 		str	ip, [r3, #12]
 768              		.loc 1 379 0
 769 0054 3C3082E5 		str	r3, [r2, #60]
 770              		.loc 1 380 0
 771 0058 FEFFFFEB 		bl	chSchReadyI
 772              	.LVL57:
 773              	.L71:
 774              	.LBE84:
 775              	.LBE83:
 776              		.loc 1 384 0
 777 005c 3C3094E5 		ldr	r3, [r4, #60]
 778 0060 000053E3 		cmp	r3, #0
 779 0064 EDFFFF1A 		bne	.L72
 780              		.loc 1 385 0
 781 0068 403094E5 		ldr	r3, [r4, #64]
 782 006c 083084E5 		str	r3, [r4, #8]
 783              		.loc 1 386 0
 784 0070 FEFFFFEB 		bl	chSchRescheduleS
 785              	.LVL58:
 786              	.L69:
 787              		.loc 1 388 0
 788              	@ 388 "../../os/kernel/src/chmtx.c" 1
 789 0074 1FF021E3 		msr     CPSR_c, #0x1F
 790              	@ 0 "" 2
 791 0078 3880BDE8 		ldmfd	sp!, {r3, r4, r5, pc}
 792              	.L79:
 793              		.align	2
 794              	.L78:
 795 007c 00000000 		.word	rlist
 796              		.cfi_endproc
 797              	.LFE14:
 798              		.size	chMtxUnlockAll, .-chMtxUnlockAll
ARM GAS  /tmp/ccwg9Ekn.s 			page 15


 799              		.text
 800              	.Letext0:
 801              		.file 3 "/usr/include/newlib/machine/_default_types.h"
 802              		.file 4 "/usr/include/newlib/sys/_stdint.h"
 803              		.file 5 "../../os/ports/GCC/ARM/chtypes.h"
 804              		.file 6 "../../os/kernel/include/chlists.h"
 805              		.file 7 "../../os/kernel/include/chthreads.h"
 806              		.file 8 "../../os/ports/GCC/ARM/chcore.h"
 807              		.file 9 "../../os/kernel/include/chschd.h"
 808              		.file 10 "../../os/kernel/include/chmtx.h"