ARM GAS  /tmp/ccwg9Ekn.s 			page 1


   1              		.cpu arm1176jz-s
   2              		.fpu softvfp
   3              		.eabi_attribute 20, 1
   4              		.eabi_attribute 21, 1
   5              		.eabi_attribute 23, 3
   6              		.eabi_attribute 24, 1
   7              		.eabi_attribute 25, 1
   8              		.eabi_attribute 26, 1
   9              		.eabi_attribute 30, 2
  10              		.eabi_attribute 34, 1
  11              		.eabi_attribute 18, 4
  12              		.file	"chmtx.c"
  13              		.text
  14              	.Ltext0:
  15              		.cfi_sections	.debug_frame
  16              		.section	.text.chMtxInit,"ax",%progbits
  17              		.align	2
  18              		.global	chMtxInit
  19              		.type	chMtxInit, %function
  20              	chMtxInit:
  21              	.LFB7:
  22              		.file 1 "../../os/kernel/src/chmtx.c"
  23              		.loc 1 79 0
  24              		.cfi_startproc
  25              		@ args = 0, pretend = 0, frame = 0
  26              		@ frame_needed = 0, uses_anonymous_args = 0
  27              		@ link register save eliminated.
  28              	.LVL0:
  29              		.loc 1 84 0
  30 0000 0030A0E3 		mov	r3, #0
  31              		.loc 1 83 0
  32 0004 040080E5 		str	r0, [r0, #4]
  33 0008 000080E5 		str	r0, [r0]
  34              		.loc 1 84 0
  35 000c 083080E5 		str	r3, [r0, #8]
  36 0010 1EFF2FE1 		bx	lr
  37              		.cfi_endproc
  38              	.LFE7:
  39              		.size	chMtxInit, .-chMtxInit
  40              		.section	.text.chMtxLockS,"ax",%progbits
  41              		.align	2
  42              		.global	chMtxLockS
  43              		.type	chMtxLockS, %function
  44              	chMtxLockS:
  45              	.LFB9:
  46              		.loc 1 114 0
  47              		.cfi_startproc
  48              		@ args = 0, pretend = 0, frame = 0
  49              		@ frame_needed = 0, uses_anonymous_args = 0
  50              	.LVL1:
  51              		.loc 1 121 0
  52 0000 082090E5 		ldr	r2, [r0, #8]
  53              		.loc 1 114 0
  54 0004 38402DE9 		stmfd	sp!, {r3, r4, r5, lr}
  55              		.cfi_def_cfa_offset 16
  56              		.cfi_offset 3, -16
  57              		.cfi_offset 4, -12
ARM GAS  /tmp/ccwg9Ekn.s 			page 2


  58              		.cfi_offset 5, -8
  59              		.cfi_offset 14, -4
  60              		.loc 1 115 0
  61 0008 68319FE5 		ldr	r3, .L28
  62              		.loc 1 121 0
  63 000c 000052E3 		cmp	r2, #0
  64              		.loc 1 115 0
  65 0010 184093E5 		ldr	r4, [r3, #24]
  66              	.LVL2:
  67              		.loc 1 121 0
  68 0014 5200000A 		beq	.L3
  69              	.LBB27:
  70              		.loc 1 128 0
  71 0018 081094E5 		ldr	r1, [r4, #8]
  72 001c 083092E5 		ldr	r3, [r2, #8]
  73 0020 0050A0E1 		mov	r5, r0
  74              	.LVL3:
  75 0024 030051E1 		cmp	r1, r3
  76 0028 0700009A 		bls	.L5
  77              	.LVL4:
  78              	.L10:
  79              		.loc 1 132 0
  80 002c 1C30D2E5 		ldrb	r3, [r2, #28]	@ zero_extendqisi2
  81              		.loc 1 130 0
  82 0030 081082E5 		str	r1, [r2, #8]
  83              		.loc 1 132 0
  84 0034 040053E3 		cmp	r3, #4
  85 0038 3000000A 		beq	.L6
  86 003c 050053E3 		cmp	r3, #5
  87 0040 1A00000A 		beq	.L7
  88 0044 000053E3 		cmp	r3, #0
  89 0048 1100000A 		beq	.L27
  90              	.LVL5:
  91              	.L5:
  92              	.LBB28:
  93              	.LBB29:
  94              		.file 2 "../../os/kernel/include/chinline.h"
  95              		.loc 2 36 0
  96 004c 0530A0E1 		mov	r3, r5
  97 0050 030000EA 		b	.L18
  98              	.LVL6:
  99              	.L17:
 100              		.loc 2 39 0
 101 0054 081093E5 		ldr	r1, [r3, #8]
 102 0058 082094E5 		ldr	r2, [r4, #8]
 103 005c 020051E1 		cmp	r1, r2
 104 0060 0200003A 		bcc	.L19
 105              	.L18:
 106              		.loc 2 38 0
 107 0064 003093E5 		ldr	r3, [r3]
 108              	.LVL7:
 109              		.loc 2 39 0
 110 0068 030055E1 		cmp	r5, r3
 111 006c F8FFFF1A 		bne	.L17
 112              	.L19:
 113              		.loc 2 41 0
 114 0070 042093E5 		ldr	r2, [r3, #4]
ARM GAS  /tmp/ccwg9Ekn.s 			page 3


 115              		.loc 2 40 0
 116 0074 003084E5 		str	r3, [r4]
 117              		.loc 2 41 0
 118 0078 042084E5 		str	r2, [r4, #4]
 119              		.loc 2 42 0
 120 007c 044083E5 		str	r4, [r3, #4]
 121 0080 004082E5 		str	r4, [r2]
 122              	.LBE29:
 123              	.LBE28:
 124              		.loc 1 167 0
 125 0084 245084E5 		str	r5, [r4, #36]
 126              		.loc 1 168 0
 127 0088 0400A0E3 		mov	r0, #4
 128              	.LBE27:
 129              		.loc 1 180 0
 130 008c 3840BDE8 		ldmfd	sp!, {r3, r4, r5, lr}
 131              		.cfi_remember_state
 132              		.cfi_restore 14
 133              		.cfi_restore 5
 134              		.cfi_restore 4
 135              		.cfi_restore 3
 136              		.cfi_def_cfa_offset 0
 137              	.LVL8:
 138              	.LBB52:
 139              		.loc 1 168 0
 140 0090 FEFFFFEA 		b	chSchGoSleepS
 141              	.LVL9:
 142              	.L27:
 143              		.cfi_restore_state
 144              	.LBB30:
 145              	.LBB31:
 146              		.loc 2 68 0
 147 0094 0A0092E8 		ldmia	r2, {r1, r3}
 148 0098 001083E5 		str	r1, [r3]
 149              	.LBE31:
 150              	.LBE30:
 151              		.loc 1 160 0
 152 009c 0200A0E1 		mov	r0, r2
 153              	.LBB33:
 154              	.LBB32:
 155              		.loc 2 69 0
 156 00a0 002092E5 		ldr	r2, [r2]
 157              	.LVL10:
 158 00a4 043082E5 		str	r3, [r2, #4]
 159              	.LBE32:
 160              	.LBE33:
 161              		.loc 1 160 0
 162 00a8 FEFFFFEB 		bl	chSchReadyI
 163              	.LVL11:
 164              		.loc 1 161 0
 165 00ac E6FFFFEA 		b	.L5
 166              	.LVL12:
 167              	.L7:
 168              	.LBB34:
 169              	.LBB35:
 170              		.loc 2 68 0
 171 00b0 00E092E5 		ldr	lr, [r2]
ARM GAS  /tmp/ccwg9Ekn.s 			page 4


 172 00b4 040092E5 		ldr	r0, [r2, #4]
 173              	.LBE35:
 174              	.LBE34:
 175              		.loc 1 151 0
 176 00b8 24C092E5 		ldr	ip, [r2, #36]
 177              	.LVL13:
 178              	.LBB38:
 179              	.LBB36:
 180              		.loc 2 68 0
 181 00bc 00E080E5 		str	lr, [r0]
 182              		.loc 2 69 0
 183 00c0 00E092E5 		ldr	lr, [r2]
 184              	.LBE36:
 185              	.LBE38:
 186              	.LBB39:
 187              	.LBB40:
 188              		.loc 2 36 0
 189 00c4 0C30A0E1 		mov	r3, ip
 190              	.LBE40:
 191              	.LBE39:
 192              	.LBB42:
 193              	.LBB37:
 194              		.loc 2 69 0
 195 00c8 04008EE5 		str	r0, [lr, #4]
 196 00cc 020000EA 		b	.L15
 197              	.LVL14:
 198              	.L14:
 199              	.LBE37:
 200              	.LBE42:
 201              	.LBB43:
 202              	.LBB41:
 203              		.loc 2 39 0
 204 00d0 080093E5 		ldr	r0, [r3, #8]
 205 00d4 010050E1 		cmp	r0, r1
 206 00d8 0200003A 		bcc	.L16
 207              	.L15:
 208              		.loc 2 38 0
 209 00dc 003093E5 		ldr	r3, [r3]
 210              	.LVL15:
 211              		.loc 2 39 0
 212 00e0 03005CE1 		cmp	ip, r3
 213 00e4 F9FFFF1A 		bne	.L14
 214              	.L16:
 215              		.loc 2 41 0
 216 00e8 041093E5 		ldr	r1, [r3, #4]
 217              		.loc 2 40 0
 218 00ec 003082E5 		str	r3, [r2]
 219              		.loc 2 41 0
 220 00f0 041082E5 		str	r1, [r2, #4]
 221              		.loc 2 42 0
 222 00f4 042083E5 		str	r2, [r3, #4]
 223 00f8 002081E5 		str	r2, [r1]
 224 00fc D2FFFFEA 		b	.L5
 225              	.LVL16:
 226              	.L6:
 227              	.LBE41:
 228              	.LBE43:
ARM GAS  /tmp/ccwg9Ekn.s 			page 5


 229              	.LBB44:
 230              	.LBB45:
 231              		.loc 2 68 0
 232 0100 00E092E5 		ldr	lr, [r2]
 233 0104 040092E5 		ldr	r0, [r2, #4]
 234              	.LBE45:
 235              	.LBE44:
 236              		.loc 1 135 0
 237 0108 24C092E5 		ldr	ip, [r2, #36]
 238              	.LVL17:
 239              	.LBB48:
 240              	.LBB46:
 241              		.loc 2 68 0
 242 010c 00E080E5 		str	lr, [r0]
 243              		.loc 2 69 0
 244 0110 00E092E5 		ldr	lr, [r2]
 245              	.LBE46:
 246              	.LBE48:
 247              		.loc 1 135 0
 248 0114 0C30A0E1 		mov	r3, ip
 249              	.LBB49:
 250              	.LBB47:
 251              		.loc 2 69 0
 252 0118 04008EE5 		str	r0, [lr, #4]
 253 011c 020000EA 		b	.L12
 254              	.LVL18:
 255              	.L9:
 256              	.LBE47:
 257              	.LBE49:
 258              	.LBB50:
 259              	.LBB51:
 260              		.loc 2 39 0
 261 0120 080093E5 		ldr	r0, [r3, #8]
 262 0124 010050E1 		cmp	r0, r1
 263 0128 0200003A 		bcc	.L13
 264              	.L12:
 265              		.loc 2 38 0
 266 012c 003093E5 		ldr	r3, [r3]
 267              	.LVL19:
 268              		.loc 2 39 0
 269 0130 03005CE1 		cmp	ip, r3
 270 0134 F9FFFF1A 		bne	.L9
 271              	.L13:
 272              		.loc 2 41 0
 273 0138 041093E5 		ldr	r1, [r3, #4]
 274              		.loc 2 40 0
 275 013c 003082E5 		str	r3, [r2]
 276              		.loc 2 41 0
 277 0140 041082E5 		str	r1, [r2, #4]
 278              		.loc 2 42 0
 279 0144 042083E5 		str	r2, [r3, #4]
 280 0148 002081E5 		str	r2, [r1]
 281              	.LBE51:
 282              	.LBE50:
 283              		.loc 1 136 0
 284 014c 08209CE5 		ldr	r2, [ip, #8]
 285              	.LVL20:
ARM GAS  /tmp/ccwg9Ekn.s 			page 6


 286              		.loc 1 128 0
 287 0150 081094E5 		ldr	r1, [r4, #8]
 288 0154 083092E5 		ldr	r3, [r2, #8]
 289              	.LVL21:
 290 0158 010053E1 		cmp	r3, r1
 291 015c B2FFFF3A 		bcc	.L10
 292 0160 B9FFFFEA 		b	.L5
 293              	.LVL22:
 294              	.L3:
 295              	.LBE52:
 296              		.loc 1 177 0
 297 0164 3C3094E5 		ldr	r3, [r4, #60]
 298              		.loc 1 176 0
 299 0168 084080E5 		str	r4, [r0, #8]
 300              		.loc 1 177 0
 301 016c 0C3080E5 		str	r3, [r0, #12]
 302              		.loc 1 178 0
 303 0170 3C0084E5 		str	r0, [r4, #60]
 304 0174 3880BDE8 		ldmfd	sp!, {r3, r4, r5, pc}
 305              	.L29:
 306              		.align	2
 307              	.L28:
 308 0178 00000000 		.word	rlist
 309              		.cfi_endproc
 310              	.LFE9:
 311              		.size	chMtxLockS, .-chMtxLockS
 312              		.section	.text.chMtxLock,"ax",%progbits
 313              		.align	2
 314              		.global	chMtxLock
 315              		.type	chMtxLock, %function
 316              	chMtxLock:
 317              	.LFB8:
 318              		.loc 1 96 0
 319              		.cfi_startproc
 320              		@ args = 0, pretend = 0, frame = 0
 321              		@ frame_needed = 0, uses_anonymous_args = 0
 322              	.LVL23:
 323 0000 08402DE9 		stmfd	sp!, {r3, lr}
 324              		.cfi_def_cfa_offset 8
 325              		.cfi_offset 3, -8
 326              		.cfi_offset 14, -4
 327              		.loc 1 98 0
 328              	@ 98 "../../os/kernel/src/chmtx.c" 1
 329 0004 9FF021E3 		msr     CPSR_c, #0x9F
 330              	@ 0 "" 2
 331              		.loc 1 100 0
 332 0008 FEFFFFEB 		bl	chMtxLockS
 333              	.LVL24:
 334              		.loc 1 102 0
 335              	@ 102 "../../os/kernel/src/chmtx.c" 1
 336 000c 1FF021E3 		msr     CPSR_c, #0x1F
 337              	@ 0 "" 2
 338 0010 0880BDE8 		ldmfd	sp!, {r3, pc}
 339              		.cfi_endproc
 340              	.LFE8:
 341              		.size	chMtxLock, .-chMtxLock
 342              		.section	.text.chMtxTryLock,"ax",%progbits
ARM GAS  /tmp/ccwg9Ekn.s 			page 7


 343              		.align	2
 344              		.global	chMtxTryLock
 345              		.type	chMtxTryLock, %function
 346              	chMtxTryLock:
 347              	.LFB10:
 348              		.loc 1 199 0
 349              		.cfi_startproc
 350              		@ args = 0, pretend = 0, frame = 0
 351              		@ frame_needed = 0, uses_anonymous_args = 0
 352              		@ link register save eliminated.
 353              	.LVL25:
 354              		.loc 1 199 0
 355 0000 0030A0E1 		mov	r3, r0
 356              		.loc 1 202 0
 357              	@ 202 "../../os/kernel/src/chmtx.c" 1
 358 0004 9FF021E3 		msr     CPSR_c, #0x9F
 359              	@ 0 "" 2
 360              	.LVL26:
 361              	.LBB57:
 362              	.LBB58:
 363              		.loc 1 232 0
 364 0008 082090E5 		ldr	r2, [r0, #8]
 365 000c 000052E3 		cmp	r2, #0
 366              	.LVL27:
 367              	.LBB59:
 368              	.LBB60:
 369              		.loc 1 234 0
 370 0010 20209F05 		ldreq	r2, .L35
 371              		.loc 1 236 0
 372 0014 0100A003 		moveq	r0, #1
 373              	.LVL28:
 374              		.loc 1 234 0
 375 0018 18209205 		ldreq	r2, [r2, #24]
 376              	.LBE60:
 377              	.LBE59:
 378              		.loc 1 233 0
 379 001c 0000A013 		movne	r0, #0
 380              	.LBB62:
 381              	.LBB61:
 382              		.loc 1 235 0
 383 0020 3C109205 		ldreq	r1, [r2, #60]
 384              		.loc 1 234 0
 385 0024 08208305 		streq	r2, [r3, #8]
 386              		.loc 1 235 0
 387 0028 0C108305 		streq	r1, [r3, #12]
 388              		.loc 1 236 0
 389 002c 3C308205 		streq	r3, [r2, #60]
 390              	.LBE61:
 391              	.LBE62:
 392              	.LBE58:
 393              	.LBE57:
 394              		.loc 1 206 0
 395              	@ 206 "../../os/kernel/src/chmtx.c" 1
 396 0030 1FF021E3 		msr     CPSR_c, #0x1F
 397              	@ 0 "" 2
 398              		.loc 1 208 0
 399 0034 1EFF2FE1 		bx	lr
ARM GAS  /tmp/ccwg9Ekn.s 			page 8


 400              	.L36:
 401              		.align	2
 402              	.L35:
 403 0038 00000000 		.word	rlist
 404              		.cfi_endproc
 405              	.LFE10:
 406              		.size	chMtxTryLock, .-chMtxTryLock
 407              		.section	.text.chMtxTryLockS,"ax",%progbits
 408              		.align	2
 409              		.global	chMtxTryLockS
 410              		.type	chMtxTryLockS, %function
 411              	chMtxTryLockS:
 412              	.LFB11:
 413              		.loc 1 227 0
 414              		.cfi_startproc
 415              		@ args = 0, pretend = 0, frame = 0
 416              		@ frame_needed = 0, uses_anonymous_args = 0
 417              		@ link register save eliminated.
 418              	.LVL29:
 419              		.loc 1 227 0
 420 0000 0030A0E1 		mov	r3, r0
 421              		.loc 1 232 0
 422 0004 082090E5 		ldr	r2, [r0, #8]
 423 0008 000052E3 		cmp	r2, #0
 424              	.LVL30:
 425              	.LBB65:
 426              	.LBB66:
 427              		.loc 1 234 0
 428 000c 1C209F05 		ldreq	r2, .L40
 429              		.loc 1 236 0
 430 0010 0100A003 		moveq	r0, #1
 431              	.LVL31:
 432              		.loc 1 234 0
 433 0014 18209205 		ldreq	r2, [r2, #24]
 434              	.LBE66:
 435              	.LBE65:
 436              		.loc 1 233 0
 437 0018 0000A013 		movne	r0, #0
 438              	.LBB68:
 439              	.LBB67:
 440              		.loc 1 235 0
 441 001c 3C109205 		ldreq	r1, [r2, #60]
 442              		.loc 1 234 0
 443 0020 08208305 		streq	r2, [r3, #8]
 444              		.loc 1 235 0
 445 0024 0C108305 		streq	r1, [r3, #12]
 446              		.loc 1 236 0
 447 0028 3C308205 		streq	r3, [r2, #60]
 448              	.LBE67:
 449              	.LBE68:
 450              		.loc 1 238 0
 451 002c 1EFF2FE1 		bx	lr
 452              	.L41:
 453              		.align	2
 454              	.L40:
 455 0030 00000000 		.word	rlist
 456              		.cfi_endproc
ARM GAS  /tmp/ccwg9Ekn.s 			page 9


 457              	.LFE11:
 458              		.size	chMtxTryLockS, .-chMtxTryLockS
 459              		.section	.text.chMtxUnlock,"ax",%progbits
 460              		.align	2
 461              		.global	chMtxUnlock
 462              		.type	chMtxUnlock, %function
 463              	chMtxUnlock:
 464              	.LFB12:
 465              		.loc 1 250 0
 466              		.cfi_startproc
 467              		@ args = 0, pretend = 0, frame = 0
 468              		@ frame_needed = 0, uses_anonymous_args = 0
 469              		.loc 1 251 0
 470 0000 94309FE5 		ldr	r3, .L53
 471              		.loc 1 250 0
 472 0004 10402DE9 		stmfd	sp!, {r4, lr}
 473              		.cfi_def_cfa_offset 8
 474              		.cfi_offset 4, -8
 475              		.cfi_offset 14, -4
 476              		.loc 1 251 0
 477 0008 180093E5 		ldr	r0, [r3, #24]
 478              	.LVL32:
 479              		.loc 1 254 0
 480              	@ 254 "../../os/kernel/src/chmtx.c" 1
 481 000c 9FF021E3 		msr     CPSR_c, #0x9F
 482              	@ 0 "" 2
 483              		.loc 1 263 0
 484 0010 3C4090E5 		ldr	r4, [r0, #60]
 485              	.LVL33:
 486              		.loc 1 266 0
 487 0014 00C094E5 		ldr	ip, [r4]
 488              		.loc 1 264 0
 489 0018 0C3094E5 		ldr	r3, [r4, #12]
 490              		.loc 1 266 0
 491 001c 04005CE1 		cmp	ip, r4
 492              		.loc 1 264 0
 493 0020 3C3080E5 		str	r3, [r0, #60]
 494              		.loc 1 266 0
 495 0024 1900000A 		beq	.L43
 496              	.LBB69:
 497              		.loc 1 273 0
 498 0028 000053E3 		cmp	r3, #0
 499              		.loc 1 271 0
 500 002c 401090E5 		ldr	r1, [r0, #64]
 501              	.LVL34:
 502              		.loc 1 273 0
 503 0030 0800000A 		beq	.L44
 504              	.L46:
 505              		.loc 1 277 0
 506 0034 002093E5 		ldr	r2, [r3]
 507 0038 030052E1 		cmp	r2, r3
 508 003c 0200000A 		beq	.L45
 509              		.loc 1 277 0 is_stmt 0 discriminator 1
 510 0040 082092E5 		ldr	r2, [r2, #8]
 511 0044 020051E1 		cmp	r1, r2
 512 0048 0210A031 		movcc	r1, r2
 513              	.LVL35:
ARM GAS  /tmp/ccwg9Ekn.s 			page 10


 514              	.L45:
 515              		.loc 1 279 0 is_stmt 1
 516 004c 0C3093E5 		ldr	r3, [r3, #12]
 517              	.LVL36:
 518              		.loc 1 273 0
 519 0050 000053E3 		cmp	r3, #0
 520 0054 F6FFFF1A 		bne	.L46
 521              	.L44:
 522              		.loc 1 288 0
 523 0058 3C209CE5 		ldr	r2, [ip, #60]
 524              	.LBB70:
 525              	.LBB71:
 526              		.loc 2 55 0
 527 005c 00309CE5 		ldr	r3, [ip]
 528              	.LVL37:
 529              	.LBE71:
 530              	.LBE70:
 531              		.loc 1 283 0
 532 0060 081080E5 		str	r1, [r0, #8]
 533              	.LVL38:
 534              	.LBB74:
 535              	.LBB72:
 536              		.loc 2 55 0
 537 0064 003084E5 		str	r3, [r4]
 538              	.LBE72:
 539              	.LBE74:
 540              		.loc 1 290 0
 541 0068 0C00A0E1 		mov	r0, ip
 542              	.LVL39:
 543              	.LBB75:
 544              	.LBB73:
 545              		.loc 2 55 0
 546 006c 044083E5 		str	r4, [r3, #4]
 547              	.LBE73:
 548              	.LBE75:
 549              		.loc 1 290 0
 550 0070 0010A0E3 		mov	r1, #0
 551              	.LVL40:
 552              		.loc 1 287 0
 553 0074 08C084E5 		str	ip, [r4, #8]
 554              		.loc 1 288 0
 555 0078 0C2084E5 		str	r2, [r4, #12]
 556              		.loc 1 289 0
 557 007c 3C408CE5 		str	r4, [ip, #60]
 558              		.loc 1 290 0
 559 0080 FEFFFFEB 		bl	chSchWakeupS
 560              	.LVL41:
 561              	.L47:
 562              	.LBE69:
 563              		.loc 1 294 0
 564              	@ 294 "../../os/kernel/src/chmtx.c" 1
 565 0084 1FF021E3 		msr     CPSR_c, #0x1F
 566              	@ 0 "" 2
 567              		.loc 1 296 0
 568 0088 0400A0E1 		mov	r0, r4
 569 008c 1080BDE8 		ldmfd	sp!, {r4, pc}
 570              	.LVL42:
ARM GAS  /tmp/ccwg9Ekn.s 			page 11


 571              	.L43:
 572              		.loc 1 293 0
 573 0090 0030A0E3 		mov	r3, #0
 574 0094 083084E5 		str	r3, [r4, #8]
 575 0098 F9FFFFEA 		b	.L47
 576              	.L54:
 577              		.align	2
 578              	.L53:
 579 009c 00000000 		.word	rlist
 580              		.cfi_endproc
 581              	.LFE12:
 582              		.size	chMtxUnlock, .-chMtxUnlock
 583              		.section	.text.chMtxUnlockS,"ax",%progbits
 584              		.align	2
 585              		.global	chMtxUnlockS
 586              		.type	chMtxUnlockS, %function
 587              	chMtxUnlockS:
 588              	.LFB13:
 589              		.loc 1 310 0
 590              		.cfi_startproc
 591              		@ args = 0, pretend = 0, frame = 0
 592              		@ frame_needed = 0, uses_anonymous_args = 0
 593              		.loc 1 311 0
 594 0000 8C309FE5 		ldr	r3, .L66
 595              		.loc 1 310 0
 596 0004 10402DE9 		stmfd	sp!, {r4, lr}
 597              		.cfi_def_cfa_offset 8
 598              		.cfi_offset 4, -8
 599              		.cfi_offset 14, -4
 600              		.loc 1 311 0
 601 0008 180093E5 		ldr	r0, [r3, #24]
 602              	.LVL43:
 603              		.loc 1 324 0
 604 000c 3C4090E5 		ldr	r4, [r0, #60]
 605              	.LVL44:
 606              		.loc 1 327 0
 607 0010 00C094E5 		ldr	ip, [r4]
 608              		.loc 1 325 0
 609 0014 0C3094E5 		ldr	r3, [r4, #12]
 610              		.loc 1 327 0
 611 0018 04005CE1 		cmp	ip, r4
 612              		.loc 1 325 0
 613 001c 3C3080E5 		str	r3, [r0, #60]
 614              		.loc 1 327 0
 615 0020 1700000A 		beq	.L56
 616              	.LBB76:
 617              		.loc 1 334 0
 618 0024 000053E3 		cmp	r3, #0
 619              		.loc 1 332 0
 620 0028 401090E5 		ldr	r1, [r0, #64]
 621              	.LVL45:
 622              		.loc 1 334 0
 623 002c 0800000A 		beq	.L57
 624              	.L59:
 625              		.loc 1 338 0
 626 0030 002093E5 		ldr	r2, [r3]
 627 0034 030052E1 		cmp	r2, r3
ARM GAS  /tmp/ccwg9Ekn.s 			page 12


 628 0038 0200000A 		beq	.L58
 629              		.loc 1 338 0 is_stmt 0 discriminator 1
 630 003c 082092E5 		ldr	r2, [r2, #8]
 631 0040 020051E1 		cmp	r1, r2
 632 0044 0210A031 		movcc	r1, r2
 633              	.LVL46:
 634              	.L58:
 635              		.loc 1 340 0 is_stmt 1
 636 0048 0C3093E5 		ldr	r3, [r3, #12]
 637              	.LVL47:
 638              		.loc 1 334 0
 639 004c 000053E3 		cmp	r3, #0
 640 0050 F6FFFF1A 		bne	.L59
 641              	.L57:
 642              		.loc 1 347 0
 643 0054 3C209CE5 		ldr	r2, [ip, #60]
 644              	.LBB77:
 645              	.LBB78:
 646              		.loc 2 55 0
 647 0058 00309CE5 		ldr	r3, [ip]
 648              	.LVL48:
 649              	.LBE78:
 650              	.LBE77:
 651              		.loc 1 342 0
 652 005c 081080E5 		str	r1, [r0, #8]
 653              	.LVL49:
 654              	.LBB81:
 655              	.LBB79:
 656              		.loc 2 55 0
 657 0060 003084E5 		str	r3, [r4]
 658              	.LBE79:
 659              	.LBE81:
 660              		.loc 1 349 0
 661 0064 0C00A0E1 		mov	r0, ip
 662              	.LVL50:
 663              	.LBB82:
 664              	.LBB80:
 665              		.loc 2 55 0
 666 0068 044083E5 		str	r4, [r3, #4]
 667              	.LBE80:
 668              	.LBE82:
 669              		.loc 1 346 0
 670 006c 08C084E5 		str	ip, [r4, #8]
 671              		.loc 1 347 0
 672 0070 0C2084E5 		str	r2, [r4, #12]
 673              		.loc 1 348 0
 674 0074 3C408CE5 		str	r4, [ip, #60]
 675              		.loc 1 349 0
 676 0078 FEFFFFEB 		bl	chSchReadyI
 677              	.LVL51:
 678              	.LBE76:
 679              		.loc 1 354 0
 680 007c 0400A0E1 		mov	r0, r4
 681 0080 1080BDE8 		ldmfd	sp!, {r4, pc}
 682              	.LVL52:
 683              	.L56:
 684              		.loc 1 352 0
ARM GAS  /tmp/ccwg9Ekn.s 			page 13


 685 0084 0030A0E3 		mov	r3, #0
 686              		.loc 1 354 0
 687 0088 0400A0E1 		mov	r0, r4
 688              	.LVL53:
 689              		.loc 1 352 0
 690 008c 083084E5 		str	r3, [r4, #8]
 691              		.loc 1 354 0
 692 0090 1080BDE8 		ldmfd	sp!, {r4, pc}
 693              	.L67:
 694              		.align	2
 695              	.L66:
 696 0094 00000000 		.word	rlist
 697              		.cfi_endproc
 698              	.LFE13:
 699              		.size	chMtxUnlockS, .-chMtxUnlockS
 700              		.section	.text.chMtxUnlockAll,"ax",%progbits
 701              		.align	2
 702              		.global	chMtxUnlockAll
 703              		.type	chMtxUnlockAll, %function
 704              	chMtxUnlockAll:
 705              	.LFB14:
 706              		.loc 1 367 0
 707              		.cfi_startproc
 708              		@ args = 0, pretend = 0, frame = 0
 709              		@ frame_needed = 0, uses_anonymous_args = 0
 710 0000 38402DE9 		stmfd	sp!, {r3, r4, r5, lr}
 711              		.cfi_def_cfa_offset 16
 712              		.cfi_offset 3, -16
 713              		.cfi_offset 4, -12
 714              		.cfi_offset 5, -8
 715              		.cfi_offset 14, -4
 716              		.loc 1 368 0
 717 0004 70309FE5 		ldr	r3, .L78
 718 0008 184093E5 		ldr	r4, [r3, #24]
 719              	.LVL54:
 720              		.loc 1 370 0
 721              	@ 370 "../../os/kernel/src/chmtx.c" 1
 722 000c 9FF021E3 		msr     CPSR_c, #0x9F
 723              	@ 0 "" 2
 724              		.loc 1 371 0
 725 0010 3C3094E5 		ldr	r3, [r4, #60]
 726 0014 000053E3 		cmp	r3, #0
 727 0018 1500000A 		beq	.L69
 728              	.LBB83:
 729              		.loc 1 383 0
 730 001c 0050A0E3 		mov	r5, #0
 731              	.L72:
 732              	.LVL55:
 733              		.loc 1 375 0
 734 0020 002093E5 		ldr	r2, [r3]
 735              	.LVL56:
 736              		.loc 1 374 0
 737 0024 0C1093E5 		ldr	r1, [r3, #12]
 738              		.loc 1 375 0
 739 0028 030052E1 		cmp	r2, r3
 740              		.loc 1 374 0
 741 002c 3C1084E5 		str	r1, [r4, #60]
ARM GAS  /tmp/ccwg9Ekn.s 			page 14


 742              		.loc 1 383 0
 743 0030 08508305 		streq	r5, [r3, #8]
 744              		.loc 1 375 0
 745 0034 0800000A 		beq	.L71
 746              	.LBB84:
 747              		.loc 1 378 0
 748 0038 3CC092E5 		ldr	ip, [r2, #60]
 749              	.LBB85:
 750              	.LBB86:
 751              		.loc 2 55 0
 752 003c 001092E5 		ldr	r1, [r2]
 753              	.LBE86:
 754              	.LBE85:
 755              		.loc 1 380 0
 756 0040 0200A0E1 		mov	r0, r2
 757              	.LBB88:
 758              	.LBB87:
 759              		.loc 2 55 0
 760 0044 001083E5 		str	r1, [r3]
 761 0048 043081E5 		str	r3, [r1, #4]
 762              	.LBE87:
 763              	.LBE88:
 764              		.loc 1 377 0
 765 004c 082083E5 		str	r2, [r3, #8]
 766              		.loc 1 378 0
 767 0050 0CC083E5 		str	ip, [r3, #12]
 768              		.loc 1 379 0
 769 0054 3C3082E5 		str	r3, [r2, #60]
 770              		.loc 1 380 0
 771 0058 FEFFFFEB 		bl	chSchReadyI
 772              	.LVL57:
 773              	.L71:
 774              	.LBE84:
 775              	.LBE83:
 776              		.loc 1 384 0
 777 005c 3C3094E5 		ldr	r3, [r4, #60]
 778 0060 000053E3 		cmp	r3, #0
 779 0064 EDFFFF1A 		bne	.L72
 780              		.loc 1 385 0
 781 0068 403094E5 		ldr	r3, [r4, #64]
 782 006c 083084E5 		str	r3, [r4, #8]
 783              		.loc 1 386 0
 784 0070 FEFFFFEB 		bl	chSchRescheduleS
 785              	.LVL58:
 786              	.L69:
 787              		.loc 1 388 0
 788              	@ 388 "../../os/kernel/src/chmtx.c" 1
 789 0074 1FF021E3 		msr     CPSR_c, #0x1F
 790              	@ 0 "" 2
 791 0078 3880BDE8 		ldmfd	sp!, {r3, r4, r5, pc}
 792              	.L79:
 793              		.align	2
 794              	.L78:
 795 007c 00000000 		.word	rlist
 796              		.cfi_endproc
 797              	.LFE14:
 798              		.size	chMtxUnlockAll, .-chMtxUnlockAll
ARM GAS  /tmp/ccwg9Ekn.s 			page 15


 799              		.text
 800              	.Letext0:
 801              		.file 3 "/usr/include/newlib/machine/_default_types.h"
 802              		.file 4 "/usr/include/newlib/sys/_stdint.h"
 803              		.file 5 "../../os/ports/GCC/ARM/chtypes.h"
 804              		.file 6 "../../os/kernel/include/chlists.h"
 805              		.file 7 "../../os/kernel/include/chthreads.h"
 806              		.file 8 "../../os/ports/GCC/ARM/chcore.h"
 807              		.file 9 "../../os/kernel/include/chschd.h"
 808              		.file 10 "../../os/kernel/include/chmtx.h"
 809              		.section	.debug_info,"",%progbits
 810              	.Ldebug_info0:
 811 0000 E8080000 		.4byte	0x8e8
 812 0004 0400     		.2byte	0x4
 813 0006 00000000 		.4byte	.Ldebug_abbrev0
 814 000a 04       		.byte	0x4
 815 000b 01       		.uleb128 0x1
 816 000c 68030000 		.4byte	.LASF79
 817 0010 01       		.byte	0x1
 818 0011 84020000 		.4byte	.LASF80
 819 0015 F8020000 		.4byte	.LASF81
 820 0019 10010000 		.4byte	.Ldebug_ranges0+0x110
 821 001d 00000000 		.4byte	0
 822 0021 00000000 		.4byte	.Ldebug_line0
 823 0025 02       		.uleb128 0x2
 824 0026 04       		.byte	0x4
 825 0027 05       		.byte	0x5
 826 0028 696E7400 		.ascii	"int\000"
 827 002c 03       		.uleb128 0x3
 828 002d 04       		.byte	0x4
 829 002e 07       		.byte	0x7
 830 002f E2000000 		.4byte	.LASF0
 831 0033 03       		.uleb128 0x3
 832 0034 01       		.byte	0x1
 833 0035 06       		.byte	0x6
 834 0036 58000000 		.4byte	.LASF1
 835 003a 04       		.uleb128 0x4
 836 003b 0D000000 		.4byte	.LASF5
 837 003f 03       		.byte	0x3
 838 0040 1D       		.byte	0x1d
 839 0041 45000000 		.4byte	0x45
 840 0045 03       		.uleb128 0x3
 841 0046 01       		.byte	0x1
 842 0047 08       		.byte	0x8
 843 0048 E5010000 		.4byte	.LASF2
 844 004c 03       		.uleb128 0x3
 845 004d 02       		.byte	0x2
 846 004e 05       		.byte	0x5
 847 004f FD010000 		.4byte	.LASF3
 848 0053 03       		.uleb128 0x3
 849 0054 02       		.byte	0x2
 850 0055 07       		.byte	0x7
 851 0056 09010000 		.4byte	.LASF4
 852 005a 04       		.uleb128 0x4
 853 005b BC020000 		.4byte	.LASF6
 854 005f 03       		.byte	0x3
 855 0060 3F       		.byte	0x3f
ARM GAS  /tmp/ccwg9Ekn.s 			page 16


 856 0061 65000000 		.4byte	0x65
 857 0065 03       		.uleb128 0x3
 858 0066 04       		.byte	0x4
 859 0067 05       		.byte	0x5
 860 0068 7D000000 		.4byte	.LASF7
 861 006c 04       		.uleb128 0x4
 862 006d C1000000 		.4byte	.LASF8
 863 0071 03       		.byte	0x3
 864 0072 41       		.byte	0x41
 865 0073 77000000 		.4byte	0x77
 866 0077 03       		.uleb128 0x3
 867 0078 04       		.byte	0x4
 868 0079 07       		.byte	0x7
 869 007a EF000000 		.4byte	.LASF9
 870 007e 03       		.uleb128 0x3
 871 007f 08       		.byte	0x8
 872 0080 05       		.byte	0x5
 873 0081 4A000000 		.4byte	.LASF10
 874 0085 03       		.uleb128 0x3
 875 0086 08       		.byte	0x8
 876 0087 07       		.byte	0x7
 877 0088 17000000 		.4byte	.LASF11
 878 008c 04       		.uleb128 0x4
 879 008d 52030000 		.4byte	.LASF12
 880 0091 04       		.byte	0x4
 881 0092 14       		.byte	0x14
 882 0093 3A000000 		.4byte	0x3a
 883 0097 04       		.uleb128 0x4
 884 0098 DD010000 		.4byte	.LASF13
 885 009c 04       		.byte	0x4
 886 009d 1F       		.byte	0x1f
 887 009e 5A000000 		.4byte	0x5a
 888 00a2 04       		.uleb128 0x4
 889 00a3 56020000 		.4byte	.LASF14
 890 00a7 04       		.byte	0x4
 891 00a8 20       		.byte	0x20
 892 00a9 6C000000 		.4byte	0x6c
 893 00ad 04       		.uleb128 0x4
 894 00ae 64000000 		.4byte	.LASF15
 895 00b2 05       		.byte	0x5
 896 00b3 29       		.byte	0x29
 897 00b4 97000000 		.4byte	0x97
 898 00b8 04       		.uleb128 0x4
 899 00b9 41010000 		.4byte	.LASF16
 900 00bd 05       		.byte	0x5
 901 00be 2A       		.byte	0x2a
 902 00bf 8C000000 		.4byte	0x8c
 903 00c3 04       		.uleb128 0x4
 904 00c4 86000000 		.4byte	.LASF17
 905 00c8 05       		.byte	0x5
 906 00c9 2B       		.byte	0x2b
 907 00ca 8C000000 		.4byte	0x8c
 908 00ce 04       		.uleb128 0x4
 909 00cf C6010000 		.4byte	.LASF18
 910 00d3 05       		.byte	0x5
 911 00d4 2C       		.byte	0x2c
 912 00d5 8C000000 		.4byte	0x8c
ARM GAS  /tmp/ccwg9Ekn.s 			page 17


 913 00d9 04       		.uleb128 0x4
 914 00da 73000000 		.4byte	.LASF19
 915 00de 05       		.byte	0x5
 916 00df 2D       		.byte	0x2d
 917 00e0 8C000000 		.4byte	0x8c
 918 00e4 04       		.uleb128 0x4
 919 00e5 D5010000 		.4byte	.LASF20
 920 00e9 05       		.byte	0x5
 921 00ea 2E       		.byte	0x2e
 922 00eb A2000000 		.4byte	0xa2
 923 00ef 04       		.uleb128 0x4
 924 00f0 1C010000 		.4byte	.LASF21
 925 00f4 05       		.byte	0x5
 926 00f5 2F       		.byte	0x2f
 927 00f6 97000000 		.4byte	0x97
 928 00fa 04       		.uleb128 0x4
 929 00fb 5F010000 		.4byte	.LASF22
 930 00ff 05       		.byte	0x5
 931 0100 31       		.byte	0x31
 932 0101 A2000000 		.4byte	0xa2
 933 0105 04       		.uleb128 0x4
 934 0106 A7020000 		.4byte	.LASF23
 935 010a 05       		.byte	0x5
 936 010b 33       		.byte	0x33
 937 010c A2000000 		.4byte	0xa2
 938 0110 04       		.uleb128 0x4
 939 0111 36020000 		.4byte	.LASF24
 940 0115 06       		.byte	0x6
 941 0116 23       		.byte	0x23
 942 0117 1B010000 		.4byte	0x11b
 943 011b 05       		.uleb128 0x5
 944 011c 36020000 		.4byte	.LASF24
 945 0120 44       		.byte	0x44
 946 0121 07       		.byte	0x7
 947 0122 57       		.byte	0x57
 948 0123 0C020000 		.4byte	0x20c
 949 0127 06       		.uleb128 0x6
 950 0128 27020000 		.4byte	.LASF25
 951 012c 07       		.byte	0x7
 952 012d 58       		.byte	0x58
 953 012e 2D020000 		.4byte	0x22d
 954 0132 00       		.byte	0
 955 0133 06       		.uleb128 0x6
 956 0134 CE010000 		.4byte	.LASF26
 957 0138 07       		.byte	0x7
 958 0139 5A       		.byte	0x5a
 959 013a 2D020000 		.4byte	0x22d
 960 013e 04       		.byte	0x4
 961 013f 06       		.uleb128 0x6
 962 0140 43000000 		.4byte	.LASF27
 963 0144 07       		.byte	0x7
 964 0145 5C       		.byte	0x5c
 965 0146 E4000000 		.4byte	0xe4
 966 014a 08       		.byte	0x8
 967 014b 06       		.uleb128 0x6
 968 014c FC030000 		.4byte	.LASF28
 969 0150 07       		.byte	0x7
ARM GAS  /tmp/ccwg9Ekn.s 			page 18


 970 0151 5D       		.byte	0x5d
 971 0152 DD020000 		.4byte	0x2dd
 972 0156 0C       		.byte	0xc
 973 0157 06       		.uleb128 0x6
 974 0158 A8000000 		.4byte	.LASF29
 975 015c 07       		.byte	0x7
 976 015d 5F       		.byte	0x5f
 977 015e 2D020000 		.4byte	0x22d
 978 0162 10       		.byte	0x10
 979 0163 06       		.uleb128 0x6
 980 0164 91010000 		.4byte	.LASF30
 981 0168 07       		.byte	0x7
 982 0169 60       		.byte	0x60
 983 016a 2D020000 		.4byte	0x22d
 984 016e 14       		.byte	0x14
 985 016f 06       		.uleb128 0x6
 986 0170 61030000 		.4byte	.LASF31
 987 0174 07       		.byte	0x7
 988 0175 67       		.byte	0x67
 989 0176 D4030000 		.4byte	0x3d4
 990 017a 18       		.byte	0x18
 991 017b 06       		.uleb128 0x6
 992 017c 07020000 		.4byte	.LASF32
 993 0180 07       		.byte	0x7
 994 0181 72       		.byte	0x72
 995 0182 C3000000 		.4byte	0xc3
 996 0186 1C       		.byte	0x1c
 997 0187 06       		.uleb128 0x6
 998 0188 2E020000 		.4byte	.LASF33
 999 018c 07       		.byte	0x7
 1000 018d 76       		.byte	0x76
 1001 018e B8000000 		.4byte	0xb8
 1002 0192 1D       		.byte	0x1d
 1003 0193 06       		.uleb128 0x6
 1004 0194 3B030000 		.4byte	.LASF34
 1005 0198 07       		.byte	0x7
 1006 0199 7B       		.byte	0x7b
 1007 019a CE000000 		.4byte	0xce
 1008 019e 1E       		.byte	0x1e
 1009 019f 06       		.uleb128 0x6
 1010 01a0 0F020000 		.4byte	.LASF35
 1011 01a4 07       		.byte	0x7
 1012 01a5 81       		.byte	0x81
 1013 01a6 D9000000 		.4byte	0xd9
 1014 01aa 1F       		.byte	0x1f
 1015 01ab 06       		.uleb128 0x6
 1016 01ac D2020000 		.4byte	.LASF36
 1017 01b0 07       		.byte	0x7
 1018 01b1 88       		.byte	0x88
 1019 01b2 FC020000 		.4byte	0x2fc
 1020 01b6 20       		.byte	0x20
 1021 01b7 07       		.uleb128 0x7
 1022 01b8 705F7500 		.ascii	"p_u\000"
 1023 01bc 07       		.byte	0x7
 1024 01bd AD       		.byte	0xad
 1025 01be 9F030000 		.4byte	0x39f
 1026 01c2 24       		.byte	0x24
ARM GAS  /tmp/ccwg9Ekn.s 			page 19


 1027 01c3 06       		.uleb128 0x6
 1028 01c4 02040000 		.4byte	.LASF37
 1029 01c8 07       		.byte	0x7
 1030 01c9 B2       		.byte	0xb2
 1031 01ca 53020000 		.4byte	0x253
 1032 01ce 28       		.byte	0x28
 1033 01cf 06       		.uleb128 0x6
 1034 01d0 E0020000 		.4byte	.LASF38
 1035 01d4 07       		.byte	0x7
 1036 01d5 B8       		.byte	0xb8
 1037 01d6 33020000 		.4byte	0x233
 1038 01da 2C       		.byte	0x2c
 1039 01db 06       		.uleb128 0x6
 1040 01dc 00000000 		.4byte	.LASF39
 1041 01e0 07       		.byte	0x7
 1042 01e1 BC       		.byte	0xbc
 1043 01e2 EF000000 		.4byte	0xef
 1044 01e6 34       		.byte	0x34
 1045 01e7 06       		.uleb128 0x6
 1046 01e8 4B020000 		.4byte	.LASF40
 1047 01ec 07       		.byte	0x7
 1048 01ed C2       		.byte	0xc2
 1049 01ee FA000000 		.4byte	0xfa
 1050 01f2 38       		.byte	0x38
 1051 01f3 06       		.uleb128 0x6
 1052 01f4 F3010000 		.4byte	.LASF41
 1053 01f8 07       		.byte	0x7
 1054 01f9 C9       		.byte	0xc9
 1055 01fa E6030000 		.4byte	0x3e6
 1056 01fe 3C       		.byte	0x3c
 1057 01ff 06       		.uleb128 0x6
 1058 0200 B1020000 		.4byte	.LASF42
 1059 0204 07       		.byte	0x7
 1060 0205 CD       		.byte	0xcd
 1061 0206 E4000000 		.4byte	0xe4
 1062 020a 40       		.byte	0x40
 1063 020b 00       		.byte	0
 1064 020c 08       		.uleb128 0x8
 1065 020d 08       		.byte	0x8
 1066 020e 06       		.byte	0x6
 1067 020f 5A       		.byte	0x5a
 1068 0210 2D020000 		.4byte	0x22d
 1069 0214 06       		.uleb128 0x6
 1070 0215 27020000 		.4byte	.LASF25
 1071 0219 06       		.byte	0x6
 1072 021a 5B       		.byte	0x5b
 1073 021b 2D020000 		.4byte	0x22d
 1074 021f 00       		.byte	0
 1075 0220 06       		.uleb128 0x6
 1076 0221 CE010000 		.4byte	.LASF26
 1077 0225 06       		.byte	0x6
 1078 0226 5D       		.byte	0x5d
 1079 0227 2D020000 		.4byte	0x22d
 1080 022b 04       		.byte	0x4
 1081 022c 00       		.byte	0
 1082 022d 09       		.uleb128 0x9
 1083 022e 04       		.byte	0x4
ARM GAS  /tmp/ccwg9Ekn.s 			page 20


 1084 022f 10010000 		.4byte	0x110
 1085 0233 04       		.uleb128 0x4
 1086 0234 9F010000 		.4byte	.LASF43
 1087 0238 06       		.byte	0x6
 1088 0239 5F       		.byte	0x5f
 1089 023a 0C020000 		.4byte	0x20c
 1090 023e 08       		.uleb128 0x8
 1091 023f 04       		.byte	0x4
 1092 0240 06       		.byte	0x6
 1093 0241 64       		.byte	0x64
 1094 0242 53020000 		.4byte	0x253
 1095 0246 06       		.uleb128 0x6
 1096 0247 27020000 		.4byte	.LASF25
 1097 024b 06       		.byte	0x6
 1098 024c 66       		.byte	0x66
 1099 024d 2D020000 		.4byte	0x22d
 1100 0251 00       		.byte	0
 1101 0252 00       		.byte	0
 1102 0253 04       		.uleb128 0x4
 1103 0254 53010000 		.4byte	.LASF44
 1104 0258 06       		.byte	0x6
 1105 0259 69       		.byte	0x69
 1106 025a 3E020000 		.4byte	0x23e
 1107 025e 04       		.uleb128 0x4
 1108 025f CC000000 		.4byte	.LASF45
 1109 0263 08       		.byte	0x8
 1110 0264 A2       		.byte	0xa2
 1111 0265 69020000 		.4byte	0x269
 1112 0269 0A       		.uleb128 0xa
 1113 026a 04       		.byte	0x4
 1114 026b 05       		.uleb128 0x5
 1115 026c D9020000 		.4byte	.LASF46
 1116 0270 24       		.byte	0x24
 1117 0271 08       		.byte	0x8
 1118 0272 B9       		.byte	0xb9
 1119 0273 DD020000 		.4byte	0x2dd
 1120 0277 07       		.uleb128 0x7
 1121 0278 723400   		.ascii	"r4\000"
 1122 027b 08       		.byte	0x8
 1123 027c BA       		.byte	0xba
 1124 027d 5E020000 		.4byte	0x25e
 1125 0281 00       		.byte	0
 1126 0282 07       		.uleb128 0x7
 1127 0283 723500   		.ascii	"r5\000"
 1128 0286 08       		.byte	0x8
 1129 0287 BB       		.byte	0xbb
 1130 0288 5E020000 		.4byte	0x25e
 1131 028c 04       		.byte	0x4
 1132 028d 07       		.uleb128 0x7
 1133 028e 723600   		.ascii	"r6\000"
 1134 0291 08       		.byte	0x8
 1135 0292 BC       		.byte	0xbc
 1136 0293 5E020000 		.4byte	0x25e
 1137 0297 08       		.byte	0x8
 1138 0298 07       		.uleb128 0x7
 1139 0299 723700   		.ascii	"r7\000"
 1140 029c 08       		.byte	0x8
ARM GAS  /tmp/ccwg9Ekn.s 			page 21


 1141 029d BD       		.byte	0xbd
 1142 029e 5E020000 		.4byte	0x25e
 1143 02a2 0C       		.byte	0xc
 1144 02a3 07       		.uleb128 0x7
 1145 02a4 723800   		.ascii	"r8\000"
 1146 02a7 08       		.byte	0x8
 1147 02a8 BE       		.byte	0xbe
 1148 02a9 5E020000 		.4byte	0x25e
 1149 02ad 10       		.byte	0x10
 1150 02ae 07       		.uleb128 0x7
 1151 02af 723900   		.ascii	"r9\000"
 1152 02b2 08       		.byte	0x8
 1153 02b3 BF       		.byte	0xbf
 1154 02b4 5E020000 		.4byte	0x25e
 1155 02b8 14       		.byte	0x14
 1156 02b9 07       		.uleb128 0x7
 1157 02ba 72313000 		.ascii	"r10\000"
 1158 02be 08       		.byte	0x8
 1159 02bf C0       		.byte	0xc0
 1160 02c0 5E020000 		.4byte	0x25e
 1161 02c4 18       		.byte	0x18
 1162 02c5 07       		.uleb128 0x7
 1163 02c6 72313100 		.ascii	"r11\000"
 1164 02ca 08       		.byte	0x8
 1165 02cb C1       		.byte	0xc1
 1166 02cc 5E020000 		.4byte	0x25e
 1167 02d0 1C       		.byte	0x1c
 1168 02d1 07       		.uleb128 0x7
 1169 02d2 6C7200   		.ascii	"lr\000"
 1170 02d5 08       		.byte	0x8
 1171 02d6 C2       		.byte	0xc2
 1172 02d7 5E020000 		.4byte	0x25e
 1173 02db 20       		.byte	0x20
 1174 02dc 00       		.byte	0
 1175 02dd 05       		.uleb128 0x5
 1176 02de 01010000 		.4byte	.LASF47
 1177 02e2 04       		.byte	0x4
 1178 02e3 08       		.byte	0x8
 1179 02e4 CA       		.byte	0xca
 1180 02e5 F6020000 		.4byte	0x2f6
 1181 02e9 07       		.uleb128 0x7
 1182 02ea 72313300 		.ascii	"r13\000"
 1183 02ee 08       		.byte	0x8
 1184 02ef CB       		.byte	0xcb
 1185 02f0 F6020000 		.4byte	0x2f6
 1186 02f4 00       		.byte	0
 1187 02f5 00       		.byte	0
 1188 02f6 09       		.uleb128 0x9
 1189 02f7 04       		.byte	0x4
 1190 02f8 6B020000 		.4byte	0x26b
 1191 02fc 0B       		.uleb128 0xb
 1192 02fd 05010000 		.4byte	0x105
 1193 0301 08       		.uleb128 0x8
 1194 0302 1C       		.byte	0x1c
 1195 0303 09       		.byte	0x9
 1196 0304 57       		.byte	0x57
 1197 0305 52030000 		.4byte	0x352
ARM GAS  /tmp/ccwg9Ekn.s 			page 22


 1198 0309 06       		.uleb128 0x6
 1199 030a 5F020000 		.4byte	.LASF48
 1200 030e 09       		.byte	0x9
 1201 030f 58       		.byte	0x58
 1202 0310 33020000 		.4byte	0x233
 1203 0314 00       		.byte	0
 1204 0315 06       		.uleb128 0x6
 1205 0316 19020000 		.4byte	.LASF49
 1206 031a 09       		.byte	0x9
 1207 031b 59       		.byte	0x59
 1208 031c E4000000 		.4byte	0xe4
 1209 0320 08       		.byte	0x8
 1210 0321 06       		.uleb128 0x6
 1211 0322 99010000 		.4byte	.LASF50
 1212 0326 09       		.byte	0x9
 1213 0327 5B       		.byte	0x5b
 1214 0328 DD020000 		.4byte	0x2dd
 1215 032c 0C       		.byte	0xc
 1216 032d 06       		.uleb128 0x6
 1217 032e 22010000 		.4byte	.LASF51
 1218 0332 09       		.byte	0x9
 1219 0333 5E       		.byte	0x5e
 1220 0334 2D020000 		.4byte	0x22d
 1221 0338 10       		.byte	0x10
 1222 0339 06       		.uleb128 0x6
 1223 033a BE010000 		.4byte	.LASF52
 1224 033e 09       		.byte	0x9
 1225 033f 5F       		.byte	0x5f
 1226 0340 2D020000 		.4byte	0x22d
 1227 0344 14       		.byte	0x14
 1228 0345 06       		.uleb128 0x6
 1229 0346 B4010000 		.4byte	.LASF53
 1230 034a 09       		.byte	0x9
 1231 034b 62       		.byte	0x62
 1232 034c 2D020000 		.4byte	0x22d
 1233 0350 18       		.byte	0x18
 1234 0351 00       		.byte	0
 1235 0352 04       		.uleb128 0x4
 1236 0353 42030000 		.4byte	.LASF54
 1237 0357 09       		.byte	0x9
 1238 0358 64       		.byte	0x64
 1239 0359 01030000 		.4byte	0x301
 1240 035d 05       		.uleb128 0x5
 1241 035e 78010000 		.4byte	.LASF55
 1242 0362 10       		.byte	0x10
 1243 0363 0A       		.byte	0xa
 1244 0364 25       		.byte	0x25
 1245 0365 8E030000 		.4byte	0x38e
 1246 0369 06       		.uleb128 0x6
 1247 036a 6B000000 		.4byte	.LASF56
 1248 036e 0A       		.byte	0xa
 1249 036f 26       		.byte	0x26
 1250 0370 33020000 		.4byte	0x233
 1251 0374 00       		.byte	0
 1252 0375 06       		.uleb128 0x6
 1253 0376 F4030000 		.4byte	.LASF57
 1254 037a 0A       		.byte	0xa
ARM GAS  /tmp/ccwg9Ekn.s 			page 23


 1255 037b 28       		.byte	0x28
 1256 037c 2D020000 		.4byte	0x22d
 1257 0380 08       		.byte	0x8
 1258 0381 06       		.uleb128 0x6
 1259 0382 A0020000 		.4byte	.LASF58
 1260 0386 0A       		.byte	0xa
 1261 0387 2A       		.byte	0x2a
 1262 0388 8E030000 		.4byte	0x38e
 1263 038c 0C       		.byte	0xc
 1264 038d 00       		.byte	0
 1265 038e 09       		.uleb128 0x9
 1266 038f 04       		.byte	0x4
 1267 0390 5D030000 		.4byte	0x35d
 1268 0394 04       		.uleb128 0x4
 1269 0395 78010000 		.4byte	.LASF55
 1270 0399 0A       		.byte	0xa
 1271 039a 2C       		.byte	0x2c
 1272 039b 5D030000 		.4byte	0x35d
 1273 039f 0C       		.uleb128 0xc
 1274 03a0 04       		.byte	0x4
 1275 03a1 07       		.byte	0x7
 1276 03a2 8F       		.byte	0x8f
 1277 03a3 D4030000 		.4byte	0x3d4
 1278 03a7 0D       		.uleb128 0xd
 1279 03a8 06000000 		.4byte	.LASF59
 1280 03ac 07       		.byte	0x7
 1281 03ad 96       		.byte	0x96
 1282 03ae EF000000 		.4byte	0xef
 1283 03b2 0D       		.uleb128 0xd
 1284 03b3 2E000000 		.4byte	.LASF60
 1285 03b7 07       		.byte	0x7
 1286 03b8 9D       		.byte	0x9d
 1287 03b9 EF000000 		.4byte	0xef
 1288 03bd 0D       		.uleb128 0xd
 1289 03be 5A030000 		.4byte	.LASF61
 1290 03c2 07       		.byte	0x7
 1291 03c3 A4       		.byte	0xa4
 1292 03c4 69020000 		.4byte	0x269
 1293 03c8 0D       		.uleb128 0xd
 1294 03c9 20020000 		.4byte	.LASF62
 1295 03cd 07       		.byte	0x7
 1296 03ce AB       		.byte	0xab
 1297 03cf FA000000 		.4byte	0xfa
 1298 03d3 00       		.byte	0
 1299 03d4 09       		.uleb128 0x9
 1300 03d5 04       		.byte	0x4
 1301 03d6 DA030000 		.4byte	0x3da
 1302 03da 0E       		.uleb128 0xe
 1303 03db DF030000 		.4byte	0x3df
 1304 03df 03       		.uleb128 0x3
 1305 03e0 01       		.byte	0x1
 1306 03e1 08       		.byte	0x8
 1307 03e2 73020000 		.4byte	.LASF63
 1308 03e6 09       		.uleb128 0x9
 1309 03e7 04       		.byte	0x4
 1310 03e8 94030000 		.4byte	0x394
 1311 03ec 03       		.uleb128 0x3
ARM GAS  /tmp/ccwg9Ekn.s 			page 24


 1312 03ed 04       		.byte	0x4
 1313 03ee 07       		.byte	0x7
 1314 03ef 7E010000 		.4byte	.LASF64
 1315 03f3 0F       		.uleb128 0xf
 1316 03f4 AC010000 		.4byte	.LASF65
 1317 03f8 02       		.byte	0x2
 1318 03f9 42       		.byte	0x42
 1319 03fa 2D020000 		.4byte	0x22d
 1320 03fe 03       		.byte	0x3
 1321 03ff 0E040000 		.4byte	0x40e
 1322 0403 10       		.uleb128 0x10
 1323 0404 747000   		.ascii	"tp\000"
 1324 0407 02       		.byte	0x2
 1325 0408 42       		.byte	0x42
 1326 0409 2D020000 		.4byte	0x22d
 1327 040d 00       		.byte	0
 1328 040e 11       		.uleb128 0x11
 1329 040f C6020000 		.4byte	.LASF82
 1330 0413 02       		.byte	0x2
 1331 0414 22       		.byte	0x22
 1332 0415 03       		.byte	0x3
 1333 0416 3A040000 		.4byte	0x43a
 1334 041a 10       		.uleb128 0x10
 1335 041b 747000   		.ascii	"tp\000"
 1336 041e 02       		.byte	0x2
 1337 041f 22       		.byte	0x22
 1338 0420 2D020000 		.4byte	0x22d
 1339 0424 10       		.uleb128 0x10
 1340 0425 74717000 		.ascii	"tqp\000"
 1341 0429 02       		.byte	0x2
 1342 042a 22       		.byte	0x22
 1343 042b 3A040000 		.4byte	0x43a
 1344 042f 12       		.uleb128 0x12
 1345 0430 637000   		.ascii	"cp\000"
 1346 0433 02       		.byte	0x2
 1347 0434 24       		.byte	0x24
 1348 0435 2D020000 		.4byte	0x22d
 1349 0439 00       		.byte	0
 1350 043a 09       		.uleb128 0x9
 1351 043b 04       		.byte	0x4
 1352 043c 33020000 		.4byte	0x233
 1353 0440 13       		.uleb128 0x13
 1354 0441 9A000000 		.4byte	.LASF75
 1355 0445 01       		.byte	0x1
 1356 0446 E3       		.byte	0xe3
 1357 0447 AD000000 		.4byte	0xad
 1358 044b 01       		.byte	0x1
 1359 044c 5B040000 		.4byte	0x45b
 1360 0450 10       		.uleb128 0x10
 1361 0451 6D7000   		.ascii	"mp\000"
 1362 0454 01       		.byte	0x1
 1363 0455 E3       		.byte	0xe3
 1364 0456 E6030000 		.4byte	0x3e6
 1365 045a 00       		.byte	0
 1366 045b 0F       		.uleb128 0xf
 1367 045c 78020000 		.4byte	.LASF66
 1368 0460 02       		.byte	0x2
ARM GAS  /tmp/ccwg9Ekn.s 			page 25


 1369 0461 34       		.byte	0x34
 1370 0462 2D020000 		.4byte	0x22d
 1371 0466 03       		.byte	0x3
 1372 0467 81040000 		.4byte	0x481
 1373 046b 10       		.uleb128 0x10
 1374 046c 74717000 		.ascii	"tqp\000"
 1375 0470 02       		.byte	0x2
 1376 0471 34       		.byte	0x34
 1377 0472 3A040000 		.4byte	0x43a
 1378 0476 12       		.uleb128 0x12
 1379 0477 747000   		.ascii	"tp\000"
 1380 047a 02       		.byte	0x2
 1381 047b 35       		.byte	0x35
 1382 047c 2D020000 		.4byte	0x22d
 1383 0480 00       		.byte	0
 1384 0481 14       		.uleb128 0x14
 1385 0482 49010000 		.4byte	.LASF67
 1386 0486 01       		.byte	0x1
 1387 0487 4F       		.byte	0x4f
 1388 0488 00000000 		.4byte	.LFB7
 1389 048c 14000000 		.4byte	.LFE7-.LFB7
 1390 0490 01       		.uleb128 0x1
 1391 0491 9C       		.byte	0x9c
 1392 0492 A3040000 		.4byte	0x4a3
 1393 0496 15       		.uleb128 0x15
 1394 0497 6D7000   		.ascii	"mp\000"
 1395 049a 01       		.byte	0x1
 1396 049b 4F       		.byte	0x4f
 1397 049c E6030000 		.4byte	0x3e6
 1398 04a0 01       		.uleb128 0x1
 1399 04a1 50       		.byte	0x50
 1400 04a2 00       		.byte	0
 1401 04a3 14       		.uleb128 0x14
 1402 04a4 8F000000 		.4byte	.LASF68
 1403 04a8 01       		.byte	0x1
 1404 04a9 72       		.byte	0x72
 1405 04aa 00000000 		.4byte	.LFB9
 1406 04ae 7C010000 		.4byte	.LFE9-.LFB9
 1407 04b2 01       		.uleb128 0x1
 1408 04b3 9C       		.byte	0x9c
 1409 04b4 04060000 		.4byte	0x604
 1410 04b8 16       		.uleb128 0x16
 1411 04b9 6D7000   		.ascii	"mp\000"
 1412 04bc 01       		.byte	0x1
 1413 04bd 72       		.byte	0x72
 1414 04be E6030000 		.4byte	0x3e6
 1415 04c2 00000000 		.4byte	.LLST0
 1416 04c6 17       		.uleb128 0x17
 1417 04c7 63747000 		.ascii	"ctp\000"
 1418 04cb 01       		.byte	0x1
 1419 04cc 73       		.byte	0x73
 1420 04cd 2D020000 		.4byte	0x22d
 1421 04d1 51000000 		.4byte	.LLST1
 1422 04d5 18       		.uleb128 0x18
 1423 04d6 00000000 		.4byte	.Ldebug_ranges0+0
 1424 04da 17       		.uleb128 0x17
 1425 04db 747000   		.ascii	"tp\000"
ARM GAS  /tmp/ccwg9Ekn.s 			page 26


 1426 04de 01       		.byte	0x1
 1427 04df 7D       		.byte	0x7d
 1428 04e0 2D020000 		.4byte	0x22d
 1429 04e4 7B000000 		.4byte	.LLST2
 1430 04e8 19       		.uleb128 0x19
 1431 04e9 0E040000 		.4byte	0x40e
 1432 04ed 4C000000 		.4byte	.LBB28
 1433 04f1 38000000 		.4byte	.LBE28-.LBB28
 1434 04f5 01       		.byte	0x1
 1435 04f6 A6       		.byte	0xa6
 1436 04f7 21050000 		.4byte	0x521
 1437 04fb 1A       		.uleb128 0x1a
 1438 04fc 24040000 		.4byte	0x424
 1439 0500 AF000000 		.4byte	.LLST3
 1440 0504 1A       		.uleb128 0x1a
 1441 0505 1A040000 		.4byte	0x41a
 1442 0509 DF000000 		.4byte	.LLST4
 1443 050d 1B       		.uleb128 0x1b
 1444 050e 4C000000 		.4byte	.LBB29
 1445 0512 38000000 		.4byte	.LBE29-.LBB29
 1446 0516 1C       		.uleb128 0x1c
 1447 0517 2F040000 		.4byte	0x42f
 1448 051b FE000000 		.4byte	.LLST5
 1449 051f 00       		.byte	0
 1450 0520 00       		.byte	0
 1451 0521 1D       		.uleb128 0x1d
 1452 0522 F3030000 		.4byte	0x3f3
 1453 0526 94000000 		.4byte	.LBB30
 1454 052a 18000000 		.4byte	.Ldebug_ranges0+0x18
 1455 052e 01       		.byte	0x1
 1456 052f A0       		.byte	0xa0
 1457 0530 3E050000 		.4byte	0x53e
 1458 0534 1A       		.uleb128 0x1a
 1459 0535 03040000 		.4byte	0x403
 1460 0539 1C010000 		.4byte	.LLST6
 1461 053d 00       		.byte	0
 1462 053e 1D       		.uleb128 0x1d
 1463 053f F3030000 		.4byte	0x3f3
 1464 0543 B0000000 		.4byte	.LBB34
 1465 0547 30000000 		.4byte	.Ldebug_ranges0+0x30
 1466 054b 01       		.byte	0x1
 1467 054c 97       		.byte	0x97
 1468 054d 5B050000 		.4byte	0x55b
 1469 0551 1A       		.uleb128 0x1a
 1470 0552 03040000 		.4byte	0x403
 1471 0556 3A010000 		.4byte	.LLST7
 1472 055a 00       		.byte	0
 1473 055b 1D       		.uleb128 0x1d
 1474 055c 0E040000 		.4byte	0x40e
 1475 0560 C4000000 		.4byte	.LBB39
 1476 0564 50000000 		.4byte	.Ldebug_ranges0+0x50
 1477 0568 01       		.byte	0x1
 1478 0569 97       		.byte	0x97
 1479 056a 90050000 		.4byte	0x590
 1480 056e 1A       		.uleb128 0x1a
 1481 056f 24040000 		.4byte	0x424
 1482 0573 4D010000 		.4byte	.LLST8
ARM GAS  /tmp/ccwg9Ekn.s 			page 27


 1483 0577 1A       		.uleb128 0x1a
 1484 0578 1A040000 		.4byte	0x41a
 1485 057c 60010000 		.4byte	.LLST9
 1486 0580 18       		.uleb128 0x18
 1487 0581 50000000 		.4byte	.Ldebug_ranges0+0x50
 1488 0585 1C       		.uleb128 0x1c
 1489 0586 2F040000 		.4byte	0x42f
 1490 058a 73010000 		.4byte	.LLST10
 1491 058e 00       		.byte	0
 1492 058f 00       		.byte	0
 1493 0590 1D       		.uleb128 0x1d
 1494 0591 F3030000 		.4byte	0x3f3
 1495 0595 00010000 		.4byte	.LBB44
 1496 0599 68000000 		.4byte	.Ldebug_ranges0+0x68
 1497 059d 01       		.byte	0x1
 1498 059e 87       		.byte	0x87
 1499 059f AD050000 		.4byte	0x5ad
 1500 05a3 1A       		.uleb128 0x1a
 1501 05a4 03040000 		.4byte	0x403
 1502 05a8 91010000 		.4byte	.LLST11
 1503 05ac 00       		.byte	0
 1504 05ad 19       		.uleb128 0x19
 1505 05ae 0E040000 		.4byte	0x40e
 1506 05b2 20010000 		.4byte	.LBB50
 1507 05b6 2C000000 		.4byte	.LBE50-.LBB50
 1508 05ba 01       		.byte	0x1
 1509 05bb 87       		.byte	0x87
 1510 05bc E6050000 		.4byte	0x5e6
 1511 05c0 1A       		.uleb128 0x1a
 1512 05c1 24040000 		.4byte	0x424
 1513 05c5 B0010000 		.4byte	.LLST12
 1514 05c9 1A       		.uleb128 0x1a
 1515 05ca 1A040000 		.4byte	0x41a
 1516 05ce C3010000 		.4byte	.LLST13
 1517 05d2 1B       		.uleb128 0x1b
 1518 05d3 20010000 		.4byte	.LBB51
 1519 05d7 2C000000 		.4byte	.LBE51-.LBB51
 1520 05db 1C       		.uleb128 0x1c
 1521 05dc 2F040000 		.4byte	0x42f
 1522 05e0 E2010000 		.4byte	.LLST14
 1523 05e4 00       		.byte	0
 1524 05e5 00       		.byte	0
 1525 05e6 1E       		.uleb128 0x1e
 1526 05e7 94000000 		.4byte	.LVL9
 1527 05eb A8080000 		.4byte	0x8a8
 1528 05ef F9050000 		.4byte	0x5f9
 1529 05f3 1F       		.uleb128 0x1f
 1530 05f4 01       		.uleb128 0x1
 1531 05f5 50       		.byte	0x50
 1532 05f6 01       		.uleb128 0x1
 1533 05f7 34       		.byte	0x34
 1534 05f8 00       		.byte	0
 1535 05f9 20       		.uleb128 0x20
 1536 05fa AC000000 		.4byte	.LVL11
 1537 05fe B9080000 		.4byte	0x8b9
 1538 0602 00       		.byte	0
 1539 0603 00       		.byte	0
ARM GAS  /tmp/ccwg9Ekn.s 			page 28


 1540 0604 14       		.uleb128 0x14
 1541 0605 87010000 		.4byte	.LASF69
 1542 0609 01       		.byte	0x1
 1543 060a 60       		.byte	0x60
 1544 060b 00000000 		.4byte	.LFB8
 1545 060f 14000000 		.4byte	.LFE8-.LFB8
 1546 0613 01       		.uleb128 0x1
 1547 0614 9C       		.byte	0x9c
 1548 0615 39060000 		.4byte	0x639
 1549 0619 16       		.uleb128 0x16
 1550 061a 6D7000   		.ascii	"mp\000"
 1551 061d 01       		.byte	0x1
 1552 061e 60       		.byte	0x60
 1553 061f E6030000 		.4byte	0x3e6
 1554 0623 00020000 		.4byte	.LLST15
 1555 0627 21       		.uleb128 0x21
 1556 0628 0C000000 		.4byte	.LVL24
 1557 062c A3040000 		.4byte	0x4a3
 1558 0630 1F       		.uleb128 0x1f
 1559 0631 01       		.uleb128 0x1
 1560 0632 50       		.byte	0x50
 1561 0633 03       		.uleb128 0x3
 1562 0634 F3       		.byte	0xf3
 1563 0635 01       		.uleb128 0x1
 1564 0636 50       		.byte	0x50
 1565 0637 00       		.byte	0
 1566 0638 00       		.byte	0
 1567 0639 22       		.uleb128 0x22
 1568 063a 6B010000 		.4byte	.LASF70
 1569 063e 01       		.byte	0x1
 1570 063f C7       		.byte	0xc7
 1571 0640 AD000000 		.4byte	0xad
 1572 0644 00000000 		.4byte	.LFB10
 1573 0648 3C000000 		.4byte	.LFE10-.LFB10
 1574 064c 01       		.uleb128 0x1
 1575 064d 9C       		.byte	0x9c
 1576 064e 92060000 		.4byte	0x692
 1577 0652 16       		.uleb128 0x16
 1578 0653 6D7000   		.ascii	"mp\000"
 1579 0656 01       		.byte	0x1
 1580 0657 C7       		.byte	0xc7
 1581 0658 E6030000 		.4byte	0x3e6
 1582 065c 21020000 		.4byte	.LLST16
 1583 0660 12       		.uleb128 0x12
 1584 0661 6200     		.ascii	"b\000"
 1585 0663 01       		.byte	0x1
 1586 0664 C8       		.byte	0xc8
 1587 0665 AD000000 		.4byte	0xad
 1588 0669 23       		.uleb128 0x23
 1589 066a 40040000 		.4byte	0x440
 1590 066e 08000000 		.4byte	.LBB57
 1591 0672 28000000 		.4byte	.LBE57-.LBB57
 1592 0676 01       		.byte	0x1
 1593 0677 CC       		.byte	0xcc
 1594 0678 1A       		.uleb128 0x1a
 1595 0679 50040000 		.4byte	0x450
 1596 067d 3F020000 		.4byte	.LLST17
ARM GAS  /tmp/ccwg9Ekn.s 			page 29


 1597 0681 18       		.uleb128 0x18
 1598 0682 88000000 		.4byte	.Ldebug_ranges0+0x88
 1599 0686 1A       		.uleb128 0x1a
 1600 0687 50040000 		.4byte	0x450
 1601 068b 5D020000 		.4byte	.LLST18
 1602 068f 00       		.byte	0
 1603 0690 00       		.byte	0
 1604 0691 00       		.byte	0
 1605 0692 24       		.uleb128 0x24
 1606 0693 40040000 		.4byte	0x440
 1607 0697 00000000 		.4byte	.LFB11
 1608 069b 34000000 		.4byte	.LFE11-.LFB11
 1609 069f 01       		.uleb128 0x1
 1610 06a0 9C       		.byte	0x9c
 1611 06a1 BE060000 		.4byte	0x6be
 1612 06a5 1A       		.uleb128 0x1a
 1613 06a6 50040000 		.4byte	0x450
 1614 06aa 7B020000 		.4byte	.LLST19
 1615 06ae 18       		.uleb128 0x18
 1616 06af A0000000 		.4byte	.Ldebug_ranges0+0xa0
 1617 06b3 1A       		.uleb128 0x1a
 1618 06b4 50040000 		.4byte	0x450
 1619 06b8 99020000 		.4byte	.LLST20
 1620 06bc 00       		.byte	0
 1621 06bd 00       		.byte	0
 1622 06be 22       		.uleb128 0x22
 1623 06bf 37000000 		.4byte	.LASF71
 1624 06c3 01       		.byte	0x1
 1625 06c4 FA       		.byte	0xfa
 1626 06c5 E6030000 		.4byte	0x3e6
 1627 06c9 00000000 		.4byte	.LFB12
 1628 06cd A0000000 		.4byte	.LFE12-.LFB12
 1629 06d1 01       		.uleb128 0x1
 1630 06d2 9C       		.byte	0x9c
 1631 06d3 63070000 		.4byte	0x763
 1632 06d7 17       		.uleb128 0x17
 1633 06d8 63747000 		.ascii	"ctp\000"
 1634 06dc 01       		.byte	0x1
 1635 06dd FB       		.byte	0xfb
 1636 06de 2D020000 		.4byte	0x22d
 1637 06e2 B7020000 		.4byte	.LLST21
 1638 06e6 25       		.uleb128 0x25
 1639 06e7 756D7000 		.ascii	"ump\000"
 1640 06eb 01       		.byte	0x1
 1641 06ec FC       		.byte	0xfc
 1642 06ed E6030000 		.4byte	0x3e6
 1643 06f1 01       		.uleb128 0x1
 1644 06f2 54       		.byte	0x54
 1645 06f3 17       		.uleb128 0x17
 1646 06f4 6D7000   		.ascii	"mp\000"
 1647 06f7 01       		.byte	0x1
 1648 06f8 FC       		.byte	0xfc
 1649 06f9 E6030000 		.4byte	0x3e6
 1650 06fd D5020000 		.4byte	.LLST22
 1651 0701 1B       		.uleb128 0x1b
 1652 0702 28000000 		.4byte	.LBB69
 1653 0706 5C000000 		.4byte	.LBE69-.LBB69
ARM GAS  /tmp/ccwg9Ekn.s 			page 30


 1654 070a 26       		.uleb128 0x26
 1655 070b 747000   		.ascii	"tp\000"
 1656 070e 01       		.byte	0x1
 1657 070f 0B01     		.2byte	0x10b
 1658 0711 2D020000 		.4byte	0x22d
 1659 0715 27       		.uleb128 0x27
 1660 0716 39010000 		.4byte	.LASF72
 1661 071a 01       		.byte	0x1
 1662 071b 0F01     		.2byte	0x10f
 1663 071d E4000000 		.4byte	0xe4
 1664 0721 E8020000 		.4byte	.LLST23
 1665 0725 28       		.uleb128 0x28
 1666 0726 5B040000 		.4byte	0x45b
 1667 072a 5C000000 		.4byte	.LBB70
 1668 072e B8000000 		.4byte	.Ldebug_ranges0+0xb8
 1669 0732 01       		.byte	0x1
 1670 0733 1E01     		.2byte	0x11e
 1671 0735 52070000 		.4byte	0x752
 1672 0739 1A       		.uleb128 0x1a
 1673 073a 6B040000 		.4byte	0x46b
 1674 073e FB020000 		.4byte	.LLST24
 1675 0742 18       		.uleb128 0x18
 1676 0743 B8000000 		.4byte	.Ldebug_ranges0+0xb8
 1677 0747 1C       		.uleb128 0x1c
 1678 0748 76040000 		.4byte	0x476
 1679 074c 0E030000 		.4byte	.LLST25
 1680 0750 00       		.byte	0
 1681 0751 00       		.byte	0
 1682 0752 21       		.uleb128 0x21
 1683 0753 84000000 		.4byte	.LVL41
 1684 0757 CE080000 		.4byte	0x8ce
 1685 075b 1F       		.uleb128 0x1f
 1686 075c 01       		.uleb128 0x1
 1687 075d 51       		.byte	0x51
 1688 075e 01       		.uleb128 0x1
 1689 075f 30       		.byte	0x30
 1690 0760 00       		.byte	0
 1691 0761 00       		.byte	0
 1692 0762 00       		.byte	0
 1693 0763 29       		.uleb128 0x29
 1694 0764 D5000000 		.4byte	.LASF73
 1695 0768 01       		.byte	0x1
 1696 0769 3601     		.2byte	0x136
 1697 076b E6030000 		.4byte	0x3e6
 1698 076f 00000000 		.4byte	.LFB13
 1699 0773 98000000 		.4byte	.LFE13-.LFB13
 1700 0777 01       		.uleb128 0x1
 1701 0778 9C       		.byte	0x9c
 1702 0779 06080000 		.4byte	0x806
 1703 077d 2A       		.uleb128 0x2a
 1704 077e 63747000 		.ascii	"ctp\000"
 1705 0782 01       		.byte	0x1
 1706 0783 3701     		.2byte	0x137
 1707 0785 2D020000 		.4byte	0x22d
 1708 0789 21030000 		.4byte	.LLST26
 1709 078d 2B       		.uleb128 0x2b
 1710 078e 756D7000 		.ascii	"ump\000"
ARM GAS  /tmp/ccwg9Ekn.s 			page 31


 1711 0792 01       		.byte	0x1
 1712 0793 3801     		.2byte	0x138
 1713 0795 E6030000 		.4byte	0x3e6
 1714 0799 01       		.uleb128 0x1
 1715 079a 54       		.byte	0x54
 1716 079b 2A       		.uleb128 0x2a
 1717 079c 6D7000   		.ascii	"mp\000"
 1718 079f 01       		.byte	0x1
 1719 07a0 3801     		.2byte	0x138
 1720 07a2 E6030000 		.4byte	0x3e6
 1721 07a6 3F030000 		.4byte	.LLST27
 1722 07aa 1B       		.uleb128 0x1b
 1723 07ab 24000000 		.4byte	.LBB76
 1724 07af 58000000 		.4byte	.LBE76-.LBB76
 1725 07b3 26       		.uleb128 0x26
 1726 07b4 747000   		.ascii	"tp\000"
 1727 07b7 01       		.byte	0x1
 1728 07b8 4801     		.2byte	0x148
 1729 07ba 2D020000 		.4byte	0x22d
 1730 07be 27       		.uleb128 0x27
 1731 07bf 39010000 		.4byte	.LASF72
 1732 07c3 01       		.byte	0x1
 1733 07c4 4C01     		.2byte	0x14c
 1734 07c6 E4000000 		.4byte	0xe4
 1735 07ca 52030000 		.4byte	.LLST28
 1736 07ce 28       		.uleb128 0x28
 1737 07cf 5B040000 		.4byte	0x45b
 1738 07d3 58000000 		.4byte	.LBB77
 1739 07d7 D8000000 		.4byte	.Ldebug_ranges0+0xd8
 1740 07db 01       		.byte	0x1
 1741 07dc 5901     		.2byte	0x159
 1742 07de FB070000 		.4byte	0x7fb
 1743 07e2 1A       		.uleb128 0x1a
 1744 07e3 6B040000 		.4byte	0x46b
 1745 07e7 65030000 		.4byte	.LLST29
 1746 07eb 18       		.uleb128 0x18
 1747 07ec D8000000 		.4byte	.Ldebug_ranges0+0xd8
 1748 07f0 1C       		.uleb128 0x1c
 1749 07f1 76040000 		.4byte	0x476
 1750 07f5 78030000 		.4byte	.LLST30
 1751 07f9 00       		.byte	0
 1752 07fa 00       		.byte	0
 1753 07fb 20       		.uleb128 0x20
 1754 07fc 7C000000 		.4byte	.LVL51
 1755 0800 B9080000 		.4byte	0x8b9
 1756 0804 00       		.byte	0
 1757 0805 00       		.byte	0
 1758 0806 2C       		.uleb128 0x2c
 1759 0807 2A010000 		.4byte	.LASF74
 1760 080b 01       		.byte	0x1
 1761 080c 6F01     		.2byte	0x16f
 1762 080e 00000000 		.4byte	.LFB14
 1763 0812 80000000 		.4byte	.LFE14-.LFB14
 1764 0816 01       		.uleb128 0x1
 1765 0817 9C       		.byte	0x9c
 1766 0818 9D080000 		.4byte	0x89d
 1767 081c 2B       		.uleb128 0x2b
ARM GAS  /tmp/ccwg9Ekn.s 			page 32


 1768 081d 63747000 		.ascii	"ctp\000"
 1769 0821 01       		.byte	0x1
 1770 0822 7001     		.2byte	0x170
 1771 0824 2D020000 		.4byte	0x22d
 1772 0828 01       		.uleb128 0x1
 1773 0829 54       		.byte	0x54
 1774 082a 2D       		.uleb128 0x2d
 1775 082b 1C000000 		.4byte	.LBB83
 1776 082f 40000000 		.4byte	.LBE83-.LBB83
 1777 0833 93080000 		.4byte	0x893
 1778 0837 2A       		.uleb128 0x2a
 1779 0838 756D7000 		.ascii	"ump\000"
 1780 083c 01       		.byte	0x1
 1781 083d 7501     		.2byte	0x175
 1782 083f E6030000 		.4byte	0x3e6
 1783 0843 8B030000 		.4byte	.LLST31
 1784 0847 1B       		.uleb128 0x1b
 1785 0848 38000000 		.4byte	.LBB84
 1786 084c 24000000 		.4byte	.LBE84-.LBB84
 1787 0850 26       		.uleb128 0x26
 1788 0851 747000   		.ascii	"tp\000"
 1789 0854 01       		.byte	0x1
 1790 0855 7801     		.2byte	0x178
 1791 0857 2D020000 		.4byte	0x22d
 1792 085b 28       		.uleb128 0x28
 1793 085c 5B040000 		.4byte	0x45b
 1794 0860 3C000000 		.4byte	.LBB85
 1795 0864 F8000000 		.4byte	.Ldebug_ranges0+0xf8
 1796 0868 01       		.byte	0x1
 1797 0869 7801     		.2byte	0x178
 1798 086b 88080000 		.4byte	0x888
 1799 086f 1A       		.uleb128 0x1a
 1800 0870 6B040000 		.4byte	0x46b
 1801 0874 8B030000 		.4byte	.LLST31
 1802 0878 18       		.uleb128 0x18
 1803 0879 F8000000 		.4byte	.Ldebug_ranges0+0xf8
 1804 087d 1C       		.uleb128 0x1c
 1805 087e 76040000 		.4byte	0x476
 1806 0882 9E030000 		.4byte	.LLST33
 1807 0886 00       		.byte	0
 1808 0887 00       		.byte	0
 1809 0888 20       		.uleb128 0x20
 1810 0889 5C000000 		.4byte	.LVL57
 1811 088d B9080000 		.4byte	0x8b9
 1812 0891 00       		.byte	0
 1813 0892 00       		.byte	0
 1814 0893 20       		.uleb128 0x20
 1815 0894 74000000 		.4byte	.LVL58
 1816 0898 E4080000 		.4byte	0x8e4
 1817 089c 00       		.byte	0
 1818 089d 2E       		.uleb128 0x2e
 1819 089e 4C030000 		.4byte	.LASF83
 1820 08a2 09       		.byte	0x9
 1821 08a3 68       		.byte	0x68
 1822 08a4 52030000 		.4byte	0x352
 1823 08a8 2F       		.uleb128 0x2f
 1824 08a9 3D020000 		.4byte	.LASF77
ARM GAS  /tmp/ccwg9Ekn.s 			page 33


 1825 08ad 09       		.byte	0x9
 1826 08ae 8C       		.byte	0x8c
 1827 08af B9080000 		.4byte	0x8b9
 1828 08b3 30       		.uleb128 0x30
 1829 08b4 C3000000 		.4byte	0xc3
 1830 08b8 00       		.byte	0
 1831 08b9 31       		.uleb128 0x31
 1832 08ba 67020000 		.4byte	.LASF76
 1833 08be 09       		.byte	0x9
 1834 08bf 89       		.byte	0x89
 1835 08c0 2D020000 		.4byte	0x22d
 1836 08c4 CE080000 		.4byte	0x8ce
 1837 08c8 30       		.uleb128 0x30
 1838 08c9 2D020000 		.4byte	0x22d
 1839 08cd 00       		.byte	0
 1840 08ce 2F       		.uleb128 0x2f
 1841 08cf EB020000 		.4byte	.LASF78
 1842 08d3 09       		.byte	0x9
 1843 08d4 92       		.byte	0x92
 1844 08d5 E4080000 		.4byte	0x8e4
 1845 08d9 30       		.uleb128 0x30
 1846 08da 2D020000 		.4byte	0x22d
 1847 08de 30       		.uleb128 0x30
 1848 08df EF000000 		.4byte	0xef
 1849 08e3 00       		.byte	0
 1850 08e4 32       		.uleb128 0x32
 1851 08e5 B0000000 		.4byte	.LASF84
 1852 08e9 09       		.byte	0x9
 1853 08ea 95       		.byte	0x95
 1854 08eb 00       		.byte	0
 1855              		.section	.debug_abbrev,"",%progbits
 1856              	.Ldebug_abbrev0:
 1857 0000 01       		.uleb128 0x1
 1858 0001 11       		.uleb128 0x11
 1859 0002 01       		.byte	0x1
 1860 0003 25       		.uleb128 0x25
 1861 0004 0E       		.uleb128 0xe
 1862 0005 13       		.uleb128 0x13
 1863 0006 0B       		.uleb128 0xb
 1864 0007 03       		.uleb128 0x3
 1865 0008 0E       		.uleb128 0xe
 1866 0009 1B       		.uleb128 0x1b
 1867 000a 0E       		.uleb128 0xe
 1868 000b 55       		.uleb128 0x55
 1869 000c 17       		.uleb128 0x17
 1870 000d 11       		.uleb128 0x11
 1871 000e 01       		.uleb128 0x1
 1872 000f 10       		.uleb128 0x10
 1873 0010 17       		.uleb128 0x17
 1874 0011 00       		.byte	0
 1875 0012 00       		.byte	0
 1876 0013 02       		.uleb128 0x2
 1877 0014 24       		.uleb128 0x24
 1878 0015 00       		.byte	0
 1879 0016 0B       		.uleb128 0xb
 1880 0017 0B       		.uleb128 0xb
 1881 0018 3E       		.uleb128 0x3e
ARM GAS  /tmp/ccwg9Ekn.s 			page 34


 1882 0019 0B       		.uleb128 0xb
 1883 001a 03       		.uleb128 0x3
 1884 001b 08       		.uleb128 0x8
 1885 001c 00       		.byte	0
 1886 001d 00       		.byte	0
 1887 001e 03       		.uleb128 0x3
 1888 001f 24       		.uleb128 0x24
 1889 0020 00       		.byte	0
 1890 0021 0B       		.uleb128 0xb
 1891 0022 0B       		.uleb128 0xb
 1892 0023 3E       		.uleb128 0x3e
 1893 0024 0B       		.uleb128 0xb
 1894 0025 03       		.uleb128 0x3
 1895 0026 0E       		.uleb128 0xe
 1896 0027 00       		.byte	0
 1897 0028 00       		.byte	0
 1898 0029 04       		.uleb128 0x4
 1899 002a 16       		.uleb128 0x16
 1900 002b 00       		.byte	0
 1901 002c 03       		.uleb128 0x3
 1902 002d 0E       		.uleb128 0xe
 1903 002e 3A       		.uleb128 0x3a
 1904 002f 0B       		.uleb128 0xb
 1905 0030 3B       		.uleb128 0x3b
 1906 0031 0B       		.uleb128 0xb
 1907 0032 49       		.uleb128 0x49
 1908 0033 13       		.uleb128 0x13
 1909 0034 00       		.byte	0
 1910 0035 00       		.byte	0
 1911 0036 05       		.uleb128 0x5
 1912 0037 13       		.uleb128 0x13
 1913 0038 01       		.byte	0x1
 1914 0039 03       		.uleb128 0x3
 1915 003a 0E       		.uleb128 0xe
 1916 003b 0B       		.uleb128 0xb
 1917 003c 0B       		.uleb128 0xb
 1918 003d 3A       		.uleb128 0x3a
 1919 003e 0B       		.uleb128 0xb
 1920 003f 3B       		.uleb128 0x3b
 1921 0040 0B       		.uleb128 0xb
 1922 0041 01       		.uleb128 0x1
 1923 0042 13       		.uleb128 0x13
 1924 0043 00       		.byte	0
 1925 0044 00       		.byte	0
 1926 0045 06       		.uleb128 0x6
 1927 0046 0D       		.uleb128 0xd
 1928 0047 00       		.byte	0
 1929 0048 03       		.uleb128 0x3
 1930 0049 0E       		.uleb128 0xe
 1931 004a 3A       		.uleb128 0x3a
 1932 004b 0B       		.uleb128 0xb
 1933 004c 3B       		.uleb128 0x3b
 1934 004d 0B       		.uleb128 0xb
 1935 004e 49       		.uleb128 0x49
 1936 004f 13       		.uleb128 0x13
 1937 0050 38       		.uleb128 0x38
 1938 0051 0B       		.uleb128 0xb
ARM GAS  /tmp/ccwg9Ekn.s 			page 35


 1939 0052 00       		.byte	0
 1940 0053 00       		.byte	0
 1941 0054 07       		.uleb128 0x7
 1942 0055 0D       		.uleb128 0xd
 1943 0056 00       		.byte	0
 1944 0057 03       		.uleb128 0x3
 1945 0058 08       		.uleb128 0x8
 1946 0059 3A       		.uleb128 0x3a
 1947 005a 0B       		.uleb128 0xb
 1948 005b 3B       		.uleb128 0x3b
 1949 005c 0B       		.uleb128 0xb
 1950 005d 49       		.uleb128 0x49
 1951 005e 13       		.uleb128 0x13
 1952 005f 38       		.uleb128 0x38
 1953 0060 0B       		.uleb128 0xb
 1954 0061 00       		.byte	0
 1955 0062 00       		.byte	0
 1956 0063 08       		.uleb128 0x8
 1957 0064 13       		.uleb128 0x13
 1958 0065 01       		.byte	0x1
 1959 0066 0B       		.uleb128 0xb
 1960 0067 0B       		.uleb128 0xb
 1961 0068 3A       		.uleb128 0x3a
 1962 0069 0B       		.uleb128 0xb
 1963 006a 3B       		.uleb128 0x3b
 1964 006b 0B       		.uleb128 0xb
 1965 006c 01       		.uleb128 0x1
 1966 006d 13       		.uleb128 0x13
 1967 006e 00       		.byte	0
 1968 006f 00       		.byte	0
 1969 0070 09       		.uleb128 0x9
 1970 0071 0F       		.uleb128 0xf
 1971 0072 00       		.byte	0
 1972 0073 0B       		.uleb128 0xb
 1973 0074 0B       		.uleb128 0xb
 1974 0075 49       		.uleb128 0x49
 1975 0076 13       		.uleb128 0x13
 1976 0077 00       		.byte	0
 1977 0078 00       		.byte	0
 1978 0079 0A       		.uleb128 0xa
 1979 007a 0F       		.uleb128 0xf
 1980 007b 00       		.byte	0
 1981 007c 0B       		.uleb128 0xb
 1982 007d 0B       		.uleb128 0xb
 1983 007e 00       		.byte	0
 1984 007f 00       		.byte	0
 1985 0080 0B       		.uleb128 0xb
 1986 0081 35       		.uleb128 0x35
 1987 0082 00       		.byte	0
 1988 0083 49       		.uleb128 0x49
 1989 0084 13       		.uleb128 0x13
 1990 0085 00       		.byte	0
 1991 0086 00       		.byte	0
 1992 0087 0C       		.uleb128 0xc
 1993 0088 17       		.uleb128 0x17
 1994 0089 01       		.byte	0x1
 1995 008a 0B       		.uleb128 0xb
ARM GAS  /tmp/ccwg9Ekn.s 			page 36


 1996 008b 0B       		.uleb128 0xb
 1997 008c 3A       		.uleb128 0x3a
 1998 008d 0B       		.uleb128 0xb
 1999 008e 3B       		.uleb128 0x3b
 2000 008f 0B       		.uleb128 0xb
 2001 0090 01       		.uleb128 0x1
 2002 0091 13       		.uleb128 0x13
 2003 0092 00       		.byte	0
 2004 0093 00       		.byte	0
 2005 0094 0D       		.uleb128 0xd
 2006 0095 0D       		.uleb128 0xd
 2007 0096 00       		.byte	0
 2008 0097 03       		.uleb128 0x3
 2009 0098 0E       		.uleb128 0xe
 2010 0099 3A       		.uleb128 0x3a
 2011 009a 0B       		.uleb128 0xb
 2012 009b 3B       		.uleb128 0x3b
 2013 009c 0B       		.uleb128 0xb
 2014 009d 49       		.uleb128 0x49
 2015 009e 13       		.uleb128 0x13
 2016 009f 00       		.byte	0
 2017 00a0 00       		.byte	0
 2018 00a1 0E       		.uleb128 0xe
 2019 00a2 26       		.uleb128 0x26
 2020 00a3 00       		.byte	0
 2021 00a4 49       		.uleb128 0x49
 2022 00a5 13       		.uleb128 0x13
 2023 00a6 00       		.byte	0
 2024 00a7 00       		.byte	0
 2025 00a8 0F       		.uleb128 0xf
 2026 00a9 2E       		.uleb128 0x2e
 2027 00aa 01       		.byte	0x1
 2028 00ab 03       		.uleb128 0x3
 2029 00ac 0E       		.uleb128 0xe
 2030 00ad 3A       		.uleb128 0x3a
 2031 00ae 0B       		.uleb128 0xb
 2032 00af 3B       		.uleb128 0x3b
 2033 00b0 0B       		.uleb128 0xb
 2034 00b1 27       		.uleb128 0x27
 2035 00b2 19       		.uleb128 0x19
 2036 00b3 49       		.uleb128 0x49
 2037 00b4 13       		.uleb128 0x13
 2038 00b5 20       		.uleb128 0x20
 2039 00b6 0B       		.uleb128 0xb
 2040 00b7 01       		.uleb128 0x1
 2041 00b8 13       		.uleb128 0x13
 2042 00b9 00       		.byte	0
 2043 00ba 00       		.byte	0
 2044 00bb 10       		.uleb128 0x10
 2045 00bc 05       		.uleb128 0x5
 2046 00bd 00       		.byte	0
 2047 00be 03       		.uleb128 0x3
 2048 00bf 08       		.uleb128 0x8
 2049 00c0 3A       		.uleb128 0x3a
 2050 00c1 0B       		.uleb128 0xb
 2051 00c2 3B       		.uleb128 0x3b
 2052 00c3 0B       		.uleb128 0xb
ARM GAS  /tmp/ccwg9Ekn.s 			page 37


 2053 00c4 49       		.uleb128 0x49
 2054 00c5 13       		.uleb128 0x13
 2055 00c6 00       		.byte	0
 2056 00c7 00       		.byte	0
 2057 00c8 11       		.uleb128 0x11
 2058 00c9 2E       		.uleb128 0x2e
 2059 00ca 01       		.byte	0x1
 2060 00cb 03       		.uleb128 0x3
 2061 00cc 0E       		.uleb128 0xe
 2062 00cd 3A       		.uleb128 0x3a
 2063 00ce 0B       		.uleb128 0xb
 2064 00cf 3B       		.uleb128 0x3b
 2065 00d0 0B       		.uleb128 0xb
 2066 00d1 27       		.uleb128 0x27
 2067 00d2 19       		.uleb128 0x19
 2068 00d3 20       		.uleb128 0x20
 2069 00d4 0B       		.uleb128 0xb
 2070 00d5 01       		.uleb128 0x1
 2071 00d6 13       		.uleb128 0x13
 2072 00d7 00       		.byte	0
 2073 00d8 00       		.byte	0
 2074 00d9 12       		.uleb128 0x12
 2075 00da 34       		.uleb128 0x34
 2076 00db 00       		.byte	0
 2077 00dc 03       		.uleb128 0x3
 2078 00dd 08       		.uleb128 0x8
 2079 00de 3A       		.uleb128 0x3a
 2080 00df 0B       		.uleb128 0xb
 2081 00e0 3B       		.uleb128 0x3b
 2082 00e1 0B       		.uleb128 0xb
 2083 00e2 49       		.uleb128 0x49
 2084 00e3 13       		.uleb128 0x13
 2085 00e4 00       		.byte	0
 2086 00e5 00       		.byte	0
 2087 00e6 13       		.uleb128 0x13
 2088 00e7 2E       		.uleb128 0x2e
 2089 00e8 01       		.byte	0x1
 2090 00e9 3F       		.uleb128 0x3f
 2091 00ea 19       		.uleb128 0x19
 2092 00eb 03       		.uleb128 0x3
 2093 00ec 0E       		.uleb128 0xe
 2094 00ed 3A       		.uleb128 0x3a
 2095 00ee 0B       		.uleb128 0xb
 2096 00ef 3B       		.uleb128 0x3b
 2097 00f0 0B       		.uleb128 0xb
 2098 00f1 27       		.uleb128 0x27
 2099 00f2 19       		.uleb128 0x19
 2100 00f3 49       		.uleb128 0x49
 2101 00f4 13       		.uleb128 0x13
 2102 00f5 20       		.uleb128 0x20
 2103 00f6 0B       		.uleb128 0xb
 2104 00f7 01       		.uleb128 0x1
 2105 00f8 13       		.uleb128 0x13
 2106 00f9 00       		.byte	0
 2107 00fa 00       		.byte	0
 2108 00fb 14       		.uleb128 0x14
 2109 00fc 2E       		.uleb128 0x2e
ARM GAS  /tmp/ccwg9Ekn.s 			page 38


 2110 00fd 01       		.byte	0x1
 2111 00fe 3F       		.uleb128 0x3f
 2112 00ff 19       		.uleb128 0x19
 2113 0100 03       		.uleb128 0x3
 2114 0101 0E       		.uleb128 0xe
 2115 0102 3A       		.uleb128 0x3a
 2116 0103 0B       		.uleb128 0xb
 2117 0104 3B       		.uleb128 0x3b
 2118 0105 0B       		.uleb128 0xb
 2119 0106 27       		.uleb128 0x27
 2120 0107 19       		.uleb128 0x19
 2121 0108 11       		.uleb128 0x11
 2122 0109 01       		.uleb128 0x1
 2123 010a 12       		.uleb128 0x12
 2124 010b 06       		.uleb128 0x6
 2125 010c 40       		.uleb128 0x40
 2126 010d 18       		.uleb128 0x18
 2127 010e 9742     		.uleb128 0x2117
 2128 0110 19       		.uleb128 0x19
 2129 0111 01       		.uleb128 0x1
 2130 0112 13       		.uleb128 0x13
 2131 0113 00       		.byte	0
 2132 0114 00       		.byte	0
 2133 0115 15       		.uleb128 0x15
 2134 0116 05       		.uleb128 0x5
 2135 0117 00       		.byte	0
 2136 0118 03       		.uleb128 0x3
 2137 0119 08       		.uleb128 0x8
 2138 011a 3A       		.uleb128 0x3a
 2139 011b 0B       		.uleb128 0xb
 2140 011c 3B       		.uleb128 0x3b
 2141 011d 0B       		.uleb128 0xb
 2142 011e 49       		.uleb128 0x49
 2143 011f 13       		.uleb128 0x13
 2144 0120 02       		.uleb128 0x2
 2145 0121 18       		.uleb128 0x18
 2146 0122 00       		.byte	0
 2147 0123 00       		.byte	0
 2148 0124 16       		.uleb128 0x16
 2149 0125 05       		.uleb128 0x5
 2150 0126 00       		.byte	0
 2151 0127 03       		.uleb128 0x3
 2152 0128 08       		.uleb128 0x8
 2153 0129 3A       		.uleb128 0x3a
 2154 012a 0B       		.uleb128 0xb
 2155 012b 3B       		.uleb128 0x3b
 2156 012c 0B       		.uleb128 0xb
 2157 012d 49       		.uleb128 0x49
 2158 012e 13       		.uleb128 0x13
 2159 012f 02       		.uleb128 0x2
 2160 0130 17       		.uleb128 0x17
 2161 0131 00       		.byte	0
 2162 0132 00       		.byte	0
 2163 0133 17       		.uleb128 0x17
 2164 0134 34       		.uleb128 0x34
 2165 0135 00       		.byte	0
 2166 0136 03       		.uleb128 0x3
ARM GAS  /tmp/ccwg9Ekn.s 			page 39


 2167 0137 08       		.uleb128 0x8
 2168 0138 3A       		.uleb128 0x3a
 2169 0139 0B       		.uleb128 0xb
 2170 013a 3B       		.uleb128 0x3b
 2171 013b 0B       		.uleb128 0xb
 2172 013c 49       		.uleb128 0x49
 2173 013d 13       		.uleb128 0x13
 2174 013e 02       		.uleb128 0x2
 2175 013f 17       		.uleb128 0x17
 2176 0140 00       		.byte	0
 2177 0141 00       		.byte	0
 2178 0142 18       		.uleb128 0x18
 2179 0143 0B       		.uleb128 0xb
 2180 0144 01       		.byte	0x1
 2181 0145 55       		.uleb128 0x55
 2182 0146 17       		.uleb128 0x17
 2183 0147 00       		.byte	0
 2184 0148 00       		.byte	0
 2185 0149 19       		.uleb128 0x19
 2186 014a 1D       		.uleb128 0x1d
 2187 014b 01       		.byte	0x1
 2188 014c 31       		.uleb128 0x31
 2189 014d 13       		.uleb128 0x13
 2190 014e 11       		.uleb128 0x11
 2191 014f 01       		.uleb128 0x1
 2192 0150 12       		.uleb128 0x12
 2193 0151 06       		.uleb128 0x6
 2194 0152 58       		.uleb128 0x58
 2195 0153 0B       		.uleb128 0xb
 2196 0154 59       		.uleb128 0x59
 2197 0155 0B       		.uleb128 0xb
 2198 0156 01       		.uleb128 0x1
 2199 0157 13       		.uleb128 0x13
 2200 0158 00       		.byte	0
 2201 0159 00       		.byte	0
 2202 015a 1A       		.uleb128 0x1a
 2203 015b 05       		.uleb128 0x5
 2204 015c 00       		.byte	0
 2205 015d 31       		.uleb128 0x31
 2206 015e 13       		.uleb128 0x13
 2207 015f 02       		.uleb128 0x2
 2208 0160 17       		.uleb128 0x17
 2209 0161 00       		.byte	0
 2210 0162 00       		.byte	0
 2211 0163 1B       		.uleb128 0x1b
 2212 0164 0B       		.uleb128 0xb
 2213 0165 01       		.byte	0x1
 2214 0166 11       		.uleb128 0x11
 2215 0167 01       		.uleb128 0x1
 2216 0168 12       		.uleb128 0x12
 2217 0169 06       		.uleb128 0x6
 2218 016a 00       		.byte	0
 2219 016b 00       		.byte	0
 2220 016c 1C       		.uleb128 0x1c
 2221 016d 34       		.uleb128 0x34
 2222 016e 00       		.byte	0
 2223 016f 31       		.uleb128 0x31
ARM GAS  /tmp/ccwg9Ekn.s 			page 40


 2224 0170 13       		.uleb128 0x13
 2225 0171 02       		.uleb128 0x2
 2226 0172 17       		.uleb128 0x17
 2227 0173 00       		.byte	0
 2228 0174 00       		.byte	0
 2229 0175 1D       		.uleb128 0x1d
 2230 0176 1D       		.uleb128 0x1d
 2231 0177 01       		.byte	0x1
 2232 0178 31       		.uleb128 0x31
 2233 0179 13       		.uleb128 0x13
 2234 017a 52       		.uleb128 0x52
 2235 017b 01       		.uleb128 0x1
 2236 017c 55       		.uleb128 0x55
 2237 017d 17       		.uleb128 0x17
 2238 017e 58       		.uleb128 0x58
 2239 017f 0B       		.uleb128 0xb
 2240 0180 59       		.uleb128 0x59
 2241 0181 0B       		.uleb128 0xb
 2242 0182 01       		.uleb128 0x1
 2243 0183 13       		.uleb128 0x13
 2244 0184 00       		.byte	0
 2245 0185 00       		.byte	0
 2246 0186 1E       		.uleb128 0x1e
 2247 0187 898201   		.uleb128 0x4109
 2248 018a 01       		.byte	0x1
 2249 018b 11       		.uleb128 0x11
 2250 018c 01       		.uleb128 0x1
 2251 018d 9542     		.uleb128 0x2115
 2252 018f 19       		.uleb128 0x19
 2253 0190 31       		.uleb128 0x31
 2254 0191 13       		.uleb128 0x13
 2255 0192 01       		.uleb128 0x1
 2256 0193 13       		.uleb128 0x13
 2257 0194 00       		.byte	0
 2258 0195 00       		.byte	0
 2259 0196 1F       		.uleb128 0x1f
 2260 0197 8A8201   		.uleb128 0x410a
 2261 019a 00       		.byte	0
 2262 019b 02       		.uleb128 0x2
 2263 019c 18       		.uleb128 0x18
 2264 019d 9142     		.uleb128 0x2111
 2265 019f 18       		.uleb128 0x18
 2266 01a0 00       		.byte	0
 2267 01a1 00       		.byte	0
 2268 01a2 20       		.uleb128 0x20
 2269 01a3 898201   		.uleb128 0x4109
 2270 01a6 00       		.byte	0
 2271 01a7 11       		.uleb128 0x11
 2272 01a8 01       		.uleb128 0x1
 2273 01a9 31       		.uleb128 0x31
 2274 01aa 13       		.uleb128 0x13
 2275 01ab 00       		.byte	0
 2276 01ac 00       		.byte	0
 2277 01ad 21       		.uleb128 0x21
 2278 01ae 898201   		.uleb128 0x4109
 2279 01b1 01       		.byte	0x1
 2280 01b2 11       		.uleb128 0x11
ARM GAS  /tmp/ccwg9Ekn.s 			page 41


 2281 01b3 01       		.uleb128 0x1
 2282 01b4 31       		.uleb128 0x31
 2283 01b5 13       		.uleb128 0x13
 2284 01b6 00       		.byte	0
 2285 01b7 00       		.byte	0
 2286 01b8 22       		.uleb128 0x22
 2287 01b9 2E       		.uleb128 0x2e
 2288 01ba 01       		.byte	0x1
 2289 01bb 3F       		.uleb128 0x3f
 2290 01bc 19       		.uleb128 0x19
 2291 01bd 03       		.uleb128 0x3
 2292 01be 0E       		.uleb128 0xe
 2293 01bf 3A       		.uleb128 0x3a
 2294 01c0 0B       		.uleb128 0xb
 2295 01c1 3B       		.uleb128 0x3b
 2296 01c2 0B       		.uleb128 0xb
 2297 01c3 27       		.uleb128 0x27
 2298 01c4 19       		.uleb128 0x19
 2299 01c5 49       		.uleb128 0x49
 2300 01c6 13       		.uleb128 0x13
 2301 01c7 11       		.uleb128 0x11
 2302 01c8 01       		.uleb128 0x1
 2303 01c9 12       		.uleb128 0x12
 2304 01ca 06       		.uleb128 0x6
 2305 01cb 40       		.uleb128 0x40
 2306 01cc 18       		.uleb128 0x18
 2307 01cd 9742     		.uleb128 0x2117
 2308 01cf 19       		.uleb128 0x19
 2309 01d0 01       		.uleb128 0x1
 2310 01d1 13       		.uleb128 0x13
 2311 01d2 00       		.byte	0
 2312 01d3 00       		.byte	0
 2313 01d4 23       		.uleb128 0x23
 2314 01d5 1D       		.uleb128 0x1d
 2315 01d6 01       		.byte	0x1
 2316 01d7 31       		.uleb128 0x31
 2317 01d8 13       		.uleb128 0x13
 2318 01d9 11       		.uleb128 0x11
 2319 01da 01       		.uleb128 0x1
 2320 01db 12       		.uleb128 0x12
 2321 01dc 06       		.uleb128 0x6
 2322 01dd 58       		.uleb128 0x58
 2323 01de 0B       		.uleb128 0xb
 2324 01df 59       		.uleb128 0x59
 2325 01e0 0B       		.uleb128 0xb
 2326 01e1 00       		.byte	0
 2327 01e2 00       		.byte	0
 2328 01e3 24       		.uleb128 0x24
 2329 01e4 2E       		.uleb128 0x2e
 2330 01e5 01       		.byte	0x1
 2331 01e6 31       		.uleb128 0x31
 2332 01e7 13       		.uleb128 0x13
 2333 01e8 11       		.uleb128 0x11
 2334 01e9 01       		.uleb128 0x1
 2335 01ea 12       		.uleb128 0x12
 2336 01eb 06       		.uleb128 0x6
 2337 01ec 40       		.uleb128 0x40
ARM GAS  /tmp/ccwg9Ekn.s 			page 42


 2338 01ed 18       		.uleb128 0x18
 2339 01ee 9742     		.uleb128 0x2117
 2340 01f0 19       		.uleb128 0x19
 2341 01f1 01       		.uleb128 0x1
 2342 01f2 13       		.uleb128 0x13
 2343 01f3 00       		.byte	0
 2344 01f4 00       		.byte	0
 2345 01f5 25       		.uleb128 0x25
 2346 01f6 34       		.uleb128 0x34
 2347 01f7 00       		.byte	0
 2348 01f8 03       		.uleb128 0x3
 2349 01f9 08       		.uleb128 0x8
 2350 01fa 3A       		.uleb128 0x3a
 2351 01fb 0B       		.uleb128 0xb
 2352 01fc 3B       		.uleb128 0x3b
 2353 01fd 0B       		.uleb128 0xb
 2354 01fe 49       		.uleb128 0x49
 2355 01ff 13       		.uleb128 0x13
 2356 0200 02       		.uleb128 0x2
 2357 0201 18       		.uleb128 0x18
 2358 0202 00       		.byte	0
 2359 0203 00       		.byte	0
 2360 0204 26       		.uleb128 0x26
 2361 0205 34       		.uleb128 0x34
 2362 0206 00       		.byte	0
 2363 0207 03       		.uleb128 0x3
 2364 0208 08       		.uleb128 0x8
 2365 0209 3A       		.uleb128 0x3a
 2366 020a 0B       		.uleb128 0xb
 2367 020b 3B       		.uleb128 0x3b
 2368 020c 05       		.uleb128 0x5
 2369 020d 49       		.uleb128 0x49
 2370 020e 13       		.uleb128 0x13
 2371 020f 00       		.byte	0
 2372 0210 00       		.byte	0
 2373 0211 27       		.uleb128 0x27
 2374 0212 34       		.uleb128 0x34
 2375 0213 00       		.byte	0
 2376 0214 03       		.uleb128 0x3
 2377 0215 0E       		.uleb128 0xe
 2378 0216 3A       		.uleb128 0x3a
 2379 0217 0B       		.uleb128 0xb
 2380 0218 3B       		.uleb128 0x3b
 2381 0219 05       		.uleb128 0x5
 2382 021a 49       		.uleb128 0x49
 2383 021b 13       		.uleb128 0x13
 2384 021c 02       		.uleb128 0x2
 2385 021d 17       		.uleb128 0x17
 2386 021e 00       		.byte	0
 2387 021f 00       		.byte	0
 2388 0220 28       		.uleb128 0x28
 2389 0221 1D       		.uleb128 0x1d
 2390 0222 01       		.byte	0x1
 2391 0223 31       		.uleb128 0x31
 2392 0224 13       		.uleb128 0x13
 2393 0225 52       		.uleb128 0x52
 2394 0226 01       		.uleb128 0x1
ARM GAS  /tmp/ccwg9Ekn.s 			page 43


 2395 0227 55       		.uleb128 0x55
 2396 0228 17       		.uleb128 0x17
 2397 0229 58       		.uleb128 0x58
 2398 022a 0B       		.uleb128 0xb
 2399 022b 59       		.uleb128 0x59
 2400 022c 05       		.uleb128 0x5
 2401 022d 01       		.uleb128 0x1
 2402 022e 13       		.uleb128 0x13
 2403 022f 00       		.byte	0
 2404 0230 00       		.byte	0
 2405 0231 29       		.uleb128 0x29
 2406 0232 2E       		.uleb128 0x2e
 2407 0233 01       		.byte	0x1
 2408 0234 3F       		.uleb128 0x3f
 2409 0235 19       		.uleb128 0x19
 2410 0236 03       		.uleb128 0x3
 2411 0237 0E       		.uleb128 0xe
 2412 0238 3A       		.uleb128 0x3a
 2413 0239 0B       		.uleb128 0xb
 2414 023a 3B       		.uleb128 0x3b
 2415 023b 05       		.uleb128 0x5
 2416 023c 27       		.uleb128 0x27
 2417 023d 19       		.uleb128 0x19
 2418 023e 49       		.uleb128 0x49
 2419 023f 13       		.uleb128 0x13
 2420 0240 11       		.uleb128 0x11
 2421 0241 01       		.uleb128 0x1
 2422 0242 12       		.uleb128 0x12
 2423 0243 06       		.uleb128 0x6
 2424 0244 40       		.uleb128 0x40
 2425 0245 18       		.uleb128 0x18
 2426 0246 9742     		.uleb128 0x2117
 2427 0248 19       		.uleb128 0x19
 2428 0249 01       		.uleb128 0x1
 2429 024a 13       		.uleb128 0x13
 2430 024b 00       		.byte	0
 2431 024c 00       		.byte	0
 2432 024d 2A       		.uleb128 0x2a
 2433 024e 34       		.uleb128 0x34
 2434 024f 00       		.byte	0
 2435 0250 03       		.uleb128 0x3
 2436 0251 08       		.uleb128 0x8
 2437 0252 3A       		.uleb128 0x3a
 2438 0253 0B       		.uleb128 0xb
 2439 0254 3B       		.uleb128 0x3b
 2440 0255 05       		.uleb128 0x5
 2441 0256 49       		.uleb128 0x49
 2442 0257 13       		.uleb128 0x13
 2443 0258 02       		.uleb128 0x2
 2444 0259 17       		.uleb128 0x17
 2445 025a 00       		.byte	0
 2446 025b 00       		.byte	0
 2447 025c 2B       		.uleb128 0x2b
 2448 025d 34       		.uleb128 0x34
 2449 025e 00       		.byte	0
 2450 025f 03       		.uleb128 0x3
 2451 0260 08       		.uleb128 0x8
ARM GAS  /tmp/ccwg9Ekn.s 			page 44


 2452 0261 3A       		.uleb128 0x3a
 2453 0262 0B       		.uleb128 0xb
 2454 0263 3B       		.uleb128 0x3b
 2455 0264 05       		.uleb128 0x5
 2456 0265 49       		.uleb128 0x49
 2457 0266 13       		.uleb128 0x13
 2458 0267 02       		.uleb128 0x2
 2459 0268 18       		.uleb128 0x18
 2460 0269 00       		.byte	0
 2461 026a 00       		.byte	0
 2462 026b 2C       		.uleb128 0x2c
 2463 026c 2E       		.uleb128 0x2e
 2464 026d 01       		.byte	0x1
 2465 026e 3F       		.uleb128 0x3f
 2466 026f 19       		.uleb128 0x19
 2467 0270 03       		.uleb128 0x3
 2468 0271 0E       		.uleb128 0xe
 2469 0272 3A       		.uleb128 0x3a
 2470 0273 0B       		.uleb128 0xb
 2471 0274 3B       		.uleb128 0x3b
 2472 0275 05       		.uleb128 0x5
 2473 0276 27       		.uleb128 0x27
 2474 0277 19       		.uleb128 0x19
 2475 0278 11       		.uleb128 0x11
 2476 0279 01       		.uleb128 0x1
 2477 027a 12       		.uleb128 0x12
 2478 027b 06       		.uleb128 0x6
 2479 027c 40       		.uleb128 0x40
 2480 027d 18       		.uleb128 0x18
 2481 027e 9742     		.uleb128 0x2117
 2482 0280 19       		.uleb128 0x19
 2483 0281 01       		.uleb128 0x1
 2484 0282 13       		.uleb128 0x13
 2485 0283 00       		.byte	0
 2486 0284 00       		.byte	0
 2487 0285 2D       		.uleb128 0x2d
 2488 0286 0B       		.uleb128 0xb
 2489 0287 01       		.byte	0x1
 2490 0288 11       		.uleb128 0x11
 2491 0289 01       		.uleb128 0x1
 2492 028a 12       		.uleb128 0x12
 2493 028b 06       		.uleb128 0x6
 2494 028c 01       		.uleb128 0x1
 2495 028d 13       		.uleb128 0x13
 2496 028e 00       		.byte	0
 2497 028f 00       		.byte	0
 2498 0290 2E       		.uleb128 0x2e
 2499 0291 34       		.uleb128 0x34
 2500 0292 00       		.byte	0
 2501 0293 03       		.uleb128 0x3
 2502 0294 0E       		.uleb128 0xe
 2503 0295 3A       		.uleb128 0x3a
 2504 0296 0B       		.uleb128 0xb
 2505 0297 3B       		.uleb128 0x3b
 2506 0298 0B       		.uleb128 0xb
 2507 0299 49       		.uleb128 0x49
 2508 029a 13       		.uleb128 0x13
ARM GAS  /tmp/ccwg9Ekn.s 			page 45


 2509 029b 3F       		.uleb128 0x3f
 2510 029c 19       		.uleb128 0x19
 2511 029d 3C       		.uleb128 0x3c
 2512 029e 19       		.uleb128 0x19
 2513 029f 00       		.byte	0
 2514 02a0 00       		.byte	0
 2515 02a1 2F       		.uleb128 0x2f
 2516 02a2 2E       		.uleb128 0x2e
 2517 02a3 01       		.byte	0x1
 2518 02a4 3F       		.uleb128 0x3f
 2519 02a5 19       		.uleb128 0x19
 2520 02a6 03       		.uleb128 0x3
 2521 02a7 0E       		.uleb128 0xe
 2522 02a8 3A       		.uleb128 0x3a
 2523 02a9 0B       		.uleb128 0xb
 2524 02aa 3B       		.uleb128 0x3b
 2525 02ab 0B       		.uleb128 0xb
 2526 02ac 27       		.uleb128 0x27
 2527 02ad 19       		.uleb128 0x19
 2528 02ae 3C       		.uleb128 0x3c
 2529 02af 19       		.uleb128 0x19
 2530 02b0 01       		.uleb128 0x1
 2531 02b1 13       		.uleb128 0x13
 2532 02b2 00       		.byte	0
 2533 02b3 00       		.byte	0
 2534 02b4 30       		.uleb128 0x30
 2535 02b5 05       		.uleb128 0x5
 2536 02b6 00       		.byte	0
 2537 02b7 49       		.uleb128 0x49
 2538 02b8 13       		.uleb128 0x13
 2539 02b9 00       		.byte	0
 2540 02ba 00       		.byte	0
 2541 02bb 31       		.uleb128 0x31
 2542 02bc 2E       		.uleb128 0x2e
 2543 02bd 01       		.byte	0x1
 2544 02be 3F       		.uleb128 0x3f
 2545 02bf 19       		.uleb128 0x19
 2546 02c0 03       		.uleb128 0x3
 2547 02c1 0E       		.uleb128 0xe
 2548 02c2 3A       		.uleb128 0x3a
 2549 02c3 0B       		.uleb128 0xb
 2550 02c4 3B       		.uleb128 0x3b
 2551 02c5 0B       		.uleb128 0xb
 2552 02c6 27       		.uleb128 0x27
 2553 02c7 19       		.uleb128 0x19
 2554 02c8 49       		.uleb128 0x49
 2555 02c9 13       		.uleb128 0x13
 2556 02ca 3C       		.uleb128 0x3c
 2557 02cb 19       		.uleb128 0x19
 2558 02cc 01       		.uleb128 0x1
 2559 02cd 13       		.uleb128 0x13
 2560 02ce 00       		.byte	0
 2561 02cf 00       		.byte	0
 2562 02d0 32       		.uleb128 0x32
 2563 02d1 2E       		.uleb128 0x2e
 2564 02d2 00       		.byte	0
 2565 02d3 3F       		.uleb128 0x3f
ARM GAS  /tmp/ccwg9Ekn.s 			page 46


 2566 02d4 19       		.uleb128 0x19
 2567 02d5 03       		.uleb128 0x3
 2568 02d6 0E       		.uleb128 0xe
 2569 02d7 3A       		.uleb128 0x3a
 2570 02d8 0B       		.uleb128 0xb
 2571 02d9 3B       		.uleb128 0x3b
 2572 02da 0B       		.uleb128 0xb
 2573 02db 27       		.uleb128 0x27
 2574 02dc 19       		.uleb128 0x19
 2575 02dd 3C       		.uleb128 0x3c
 2576 02de 19       		.uleb128 0x19
 2577 02df 00       		.byte	0
 2578 02e0 00       		.byte	0
 2579 02e1 00       		.byte	0
 2580              		.section	.debug_loc,"",%progbits
 2581              	.Ldebug_loc0:
 2582              	.LLST0:
 2583 0000 00000000 		.4byte	.LVL1
 2584 0004 2C000000 		.4byte	.LVL4
 2585 0008 0100     		.2byte	0x1
 2586 000a 50       		.byte	0x50
 2587 000b 2C000000 		.4byte	.LVL4
 2588 000f 90000000 		.4byte	.LVL8
 2589 0013 0100     		.2byte	0x1
 2590 0015 55       		.byte	0x55
 2591 0016 90000000 		.4byte	.LVL8
 2592 001a 93000000 		.4byte	.LVL9-1
 2593 001e 0500     		.2byte	0x5
 2594 0020 72       		.byte	0x72
 2595 0021 00       		.sleb128 0
 2596 0022 06       		.byte	0x6
 2597 0023 23       		.byte	0x23
 2598 0024 24       		.uleb128 0x24
 2599 0025 93000000 		.4byte	.LVL9-1
 2600 0029 94000000 		.4byte	.LVL9
 2601 002d 0400     		.2byte	0x4
 2602 002f F3       		.byte	0xf3
 2603 0030 01       		.uleb128 0x1
 2604 0031 50       		.byte	0x50
 2605 0032 9F       		.byte	0x9f
 2606 0033 94000000 		.4byte	.LVL9
 2607 0037 64010000 		.4byte	.LVL22
 2608 003b 0100     		.2byte	0x1
 2609 003d 55       		.byte	0x55
 2610 003e 64010000 		.4byte	.LVL22
 2611 0042 7C010000 		.4byte	.LFE9
 2612 0046 0100     		.2byte	0x1
 2613 0048 50       		.byte	0x50
 2614 0049 00000000 		.4byte	0
 2615 004d 00000000 		.4byte	0
 2616              	.LLST1:
 2617 0051 14000000 		.4byte	.LVL2
 2618 0055 90000000 		.4byte	.LVL8
 2619 0059 0100     		.2byte	0x1
 2620 005b 54       		.byte	0x54
 2621 005c 90000000 		.4byte	.LVL8
 2622 0060 93000000 		.4byte	.LVL9-1
ARM GAS  /tmp/ccwg9Ekn.s 			page 47


 2623 0064 0200     		.2byte	0x2
 2624 0066 72       		.byte	0x72
 2625 0067 00       		.sleb128 0
 2626 0068 94000000 		.4byte	.LVL9
 2627 006c 7C010000 		.4byte	.LFE9
 2628 0070 0100     		.2byte	0x1
 2629 0072 54       		.byte	0x54
 2630 0073 00000000 		.4byte	0
 2631 0077 00000000 		.4byte	0
 2632              	.LLST2:
 2633 007b 24000000 		.4byte	.LVL3
 2634 007f 4C000000 		.4byte	.LVL5
 2635 0083 0100     		.2byte	0x1
 2636 0085 52       		.byte	0x52
 2637 0086 94000000 		.4byte	.LVL9
 2638 008a A4000000 		.4byte	.LVL10
 2639 008e 0100     		.2byte	0x1
 2640 0090 52       		.byte	0x52
 2641 0091 A4000000 		.4byte	.LVL10
 2642 0095 AB000000 		.4byte	.LVL11-1
 2643 0099 0100     		.2byte	0x1
 2644 009b 50       		.byte	0x50
 2645 009c B0000000 		.4byte	.LVL12
 2646 00a0 64010000 		.4byte	.LVL22
 2647 00a4 0100     		.2byte	0x1
 2648 00a6 52       		.byte	0x52
 2649 00a7 00000000 		.4byte	0
 2650 00ab 00000000 		.4byte	0
 2651              	.LLST3:
 2652 00af 4C000000 		.4byte	.LVL5
 2653 00b3 90000000 		.4byte	.LVL8
 2654 00b7 0100     		.2byte	0x1
 2655 00b9 55       		.byte	0x55
 2656 00ba 90000000 		.4byte	.LVL8
 2657 00be 93000000 		.4byte	.LVL9-1
 2658 00c2 0500     		.2byte	0x5
 2659 00c4 72       		.byte	0x72
 2660 00c5 00       		.sleb128 0
 2661 00c6 06       		.byte	0x6
 2662 00c7 23       		.byte	0x23
 2663 00c8 24       		.uleb128 0x24
 2664 00c9 93000000 		.4byte	.LVL9-1
 2665 00cd 94000000 		.4byte	.LVL9
 2666 00d1 0400     		.2byte	0x4
 2667 00d3 F3       		.byte	0xf3
 2668 00d4 01       		.uleb128 0x1
 2669 00d5 50       		.byte	0x50
 2670 00d6 9F       		.byte	0x9f
 2671 00d7 00000000 		.4byte	0
 2672 00db 00000000 		.4byte	0
 2673              	.LLST4:
 2674 00df 4C000000 		.4byte	.LVL5
 2675 00e3 90000000 		.4byte	.LVL8
 2676 00e7 0100     		.2byte	0x1
 2677 00e9 54       		.byte	0x54
 2678 00ea 90000000 		.4byte	.LVL8
 2679 00ee 93000000 		.4byte	.LVL9-1
ARM GAS  /tmp/ccwg9Ekn.s 			page 48


 2680 00f2 0200     		.2byte	0x2
 2681 00f4 72       		.byte	0x72
 2682 00f5 00       		.sleb128 0
 2683 00f6 00000000 		.4byte	0
 2684 00fa 00000000 		.4byte	0
 2685              	.LLST5:
 2686 00fe 4C000000 		.4byte	.LVL5
 2687 0102 54000000 		.4byte	.LVL6
 2688 0106 0100     		.2byte	0x1
 2689 0108 55       		.byte	0x55
 2690 0109 54000000 		.4byte	.LVL6
 2691 010d 90000000 		.4byte	.LVL8
 2692 0111 0100     		.2byte	0x1
 2693 0113 53       		.byte	0x53
 2694 0114 00000000 		.4byte	0
 2695 0118 00000000 		.4byte	0
 2696              	.LLST6:
 2697 011c 94000000 		.4byte	.LVL9
 2698 0120 A4000000 		.4byte	.LVL10
 2699 0124 0100     		.2byte	0x1
 2700 0126 52       		.byte	0x52
 2701 0127 A4000000 		.4byte	.LVL10
 2702 012b AB000000 		.4byte	.LVL11-1
 2703 012f 0100     		.2byte	0x1
 2704 0131 50       		.byte	0x50
 2705 0132 00000000 		.4byte	0
 2706 0136 00000000 		.4byte	0
 2707              	.LLST7:
 2708 013a B0000000 		.4byte	.LVL12
 2709 013e 00010000 		.4byte	.LVL16
 2710 0142 0100     		.2byte	0x1
 2711 0144 52       		.byte	0x52
 2712 0145 00000000 		.4byte	0
 2713 0149 00000000 		.4byte	0
 2714              	.LLST8:
 2715 014d BC000000 		.4byte	.LVL13
 2716 0151 00010000 		.4byte	.LVL16
 2717 0155 0100     		.2byte	0x1
 2718 0157 5C       		.byte	0x5c
 2719 0158 00000000 		.4byte	0
 2720 015c 00000000 		.4byte	0
 2721              	.LLST9:
 2722 0160 BC000000 		.4byte	.LVL13
 2723 0164 00010000 		.4byte	.LVL16
 2724 0168 0100     		.2byte	0x1
 2725 016a 52       		.byte	0x52
 2726 016b 00000000 		.4byte	0
 2727 016f 00000000 		.4byte	0
 2728              	.LLST10:
 2729 0173 BC000000 		.4byte	.LVL13
 2730 0177 D0000000 		.4byte	.LVL14
 2731 017b 0100     		.2byte	0x1
 2732 017d 5C       		.byte	0x5c
 2733 017e D0000000 		.4byte	.LVL14
 2734 0182 00010000 		.4byte	.LVL16
 2735 0186 0100     		.2byte	0x1
 2736 0188 53       		.byte	0x53
ARM GAS  /tmp/ccwg9Ekn.s 			page 49


 2737 0189 00000000 		.4byte	0
 2738 018d 00000000 		.4byte	0
 2739              	.LLST11:
 2740 0191 00010000 		.4byte	.LVL16
 2741 0195 50010000 		.4byte	.LVL20
 2742 0199 0100     		.2byte	0x1
 2743 019b 52       		.byte	0x52
 2744 019c 50010000 		.4byte	.LVL20
 2745 01a0 58010000 		.4byte	.LVL21
 2746 01a4 0200     		.2byte	0x2
 2747 01a6 73       		.byte	0x73
 2748 01a7 04       		.sleb128 4
 2749 01a8 00000000 		.4byte	0
 2750 01ac 00000000 		.4byte	0
 2751              	.LLST12:
 2752 01b0 0C010000 		.4byte	.LVL17
 2753 01b4 64010000 		.4byte	.LVL22
 2754 01b8 0100     		.2byte	0x1
 2755 01ba 5C       		.byte	0x5c
 2756 01bb 00000000 		.4byte	0
 2757 01bf 00000000 		.4byte	0
 2758              	.LLST13:
 2759 01c3 0C010000 		.4byte	.LVL17
 2760 01c7 50010000 		.4byte	.LVL20
 2761 01cb 0100     		.2byte	0x1
 2762 01cd 52       		.byte	0x52
 2763 01ce 50010000 		.4byte	.LVL20
 2764 01d2 58010000 		.4byte	.LVL21
 2765 01d6 0200     		.2byte	0x2
 2766 01d8 73       		.byte	0x73
 2767 01d9 04       		.sleb128 4
 2768 01da 00000000 		.4byte	0
 2769 01de 00000000 		.4byte	0
 2770              	.LLST14:
 2771 01e2 0C010000 		.4byte	.LVL17
 2772 01e6 20010000 		.4byte	.LVL18
 2773 01ea 0100     		.2byte	0x1
 2774 01ec 5C       		.byte	0x5c
 2775 01ed 20010000 		.4byte	.LVL18
 2776 01f1 58010000 		.4byte	.LVL21
 2777 01f5 0100     		.2byte	0x1
 2778 01f7 53       		.byte	0x53
 2779 01f8 00000000 		.4byte	0
 2780 01fc 00000000 		.4byte	0
 2781              	.LLST15:
 2782 0200 00000000 		.4byte	.LVL23
 2783 0204 0B000000 		.4byte	.LVL24-1
 2784 0208 0100     		.2byte	0x1
 2785 020a 50       		.byte	0x50
 2786 020b 0B000000 		.4byte	.LVL24-1
 2787 020f 14000000 		.4byte	.LFE8
 2788 0213 0400     		.2byte	0x4
 2789 0215 F3       		.byte	0xf3
 2790 0216 01       		.uleb128 0x1
 2791 0217 50       		.byte	0x50
 2792 0218 9F       		.byte	0x9f
 2793 0219 00000000 		.4byte	0
ARM GAS  /tmp/ccwg9Ekn.s 			page 50


 2794 021d 00000000 		.4byte	0
 2795              	.LLST16:
 2796 0221 00000000 		.4byte	.LVL25
 2797 0225 18000000 		.4byte	.LVL28
 2798 0229 0100     		.2byte	0x1
 2799 022b 50       		.byte	0x50
 2800 022c 18000000 		.4byte	.LVL28
 2801 0230 3C000000 		.4byte	.LFE10
 2802 0234 0100     		.2byte	0x1
 2803 0236 53       		.byte	0x53
 2804 0237 00000000 		.4byte	0
 2805 023b 00000000 		.4byte	0
 2806              	.LLST17:
 2807 023f 08000000 		.4byte	.LVL26
 2808 0243 18000000 		.4byte	.LVL28
 2809 0247 0100     		.2byte	0x1
 2810 0249 50       		.byte	0x50
 2811 024a 18000000 		.4byte	.LVL28
 2812 024e 3C000000 		.4byte	.LFE10
 2813 0252 0100     		.2byte	0x1
 2814 0254 53       		.byte	0x53
 2815 0255 00000000 		.4byte	0
 2816 0259 00000000 		.4byte	0
 2817              	.LLST18:
 2818 025d 10000000 		.4byte	.LVL27
 2819 0261 18000000 		.4byte	.LVL28
 2820 0265 0100     		.2byte	0x1
 2821 0267 50       		.byte	0x50
 2822 0268 18000000 		.4byte	.LVL28
 2823 026c 3C000000 		.4byte	.LFE10
 2824 0270 0100     		.2byte	0x1
 2825 0272 53       		.byte	0x53
 2826 0273 00000000 		.4byte	0
 2827 0277 00000000 		.4byte	0
 2828              	.LLST19:
 2829 027b 00000000 		.4byte	.LVL29
 2830 027f 14000000 		.4byte	.LVL31
 2831 0283 0100     		.2byte	0x1
 2832 0285 50       		.byte	0x50
 2833 0286 14000000 		.4byte	.LVL31
 2834 028a 34000000 		.4byte	.LFE11
 2835 028e 0100     		.2byte	0x1
 2836 0290 53       		.byte	0x53
 2837 0291 00000000 		.4byte	0
 2838 0295 00000000 		.4byte	0
 2839              	.LLST20:
 2840 0299 0C000000 		.4byte	.LVL30
 2841 029d 14000000 		.4byte	.LVL31
 2842 02a1 0100     		.2byte	0x1
 2843 02a3 50       		.byte	0x50
 2844 02a4 14000000 		.4byte	.LVL31
 2845 02a8 34000000 		.4byte	.LFE11
 2846 02ac 0100     		.2byte	0x1
 2847 02ae 53       		.byte	0x53
 2848 02af 00000000 		.4byte	0
 2849 02b3 00000000 		.4byte	0
 2850              	.LLST21:
ARM GAS  /tmp/ccwg9Ekn.s 			page 51


 2851 02b7 0C000000 		.4byte	.LVL32
 2852 02bb 6C000000 		.4byte	.LVL39
 2853 02bf 0100     		.2byte	0x1
 2854 02c1 50       		.byte	0x50
 2855 02c2 90000000 		.4byte	.LVL42
 2856 02c6 A0000000 		.4byte	.LFE12
 2857 02ca 0100     		.2byte	0x1
 2858 02cc 50       		.byte	0x50
 2859 02cd 00000000 		.4byte	0
 2860 02d1 00000000 		.4byte	0
 2861              	.LLST22:
 2862 02d5 30000000 		.4byte	.LVL34
 2863 02d9 60000000 		.4byte	.LVL37
 2864 02dd 0100     		.2byte	0x1
 2865 02df 53       		.byte	0x53
 2866 02e0 00000000 		.4byte	0
 2867 02e4 00000000 		.4byte	0
 2868              	.LLST23:
 2869 02e8 30000000 		.4byte	.LVL34
 2870 02ec 74000000 		.4byte	.LVL40
 2871 02f0 0100     		.2byte	0x1
 2872 02f2 51       		.byte	0x51
 2873 02f3 00000000 		.4byte	0
 2874 02f7 00000000 		.4byte	0
 2875              	.LLST24:
 2876 02fb 64000000 		.4byte	.LVL38
 2877 02ff 84000000 		.4byte	.LVL41
 2878 0303 0100     		.2byte	0x1
 2879 0305 54       		.byte	0x54
 2880 0306 00000000 		.4byte	0
 2881 030a 00000000 		.4byte	0
 2882              	.LLST25:
 2883 030e 64000000 		.4byte	.LVL38
 2884 0312 83000000 		.4byte	.LVL41-1
 2885 0316 0100     		.2byte	0x1
 2886 0318 5C       		.byte	0x5c
 2887 0319 00000000 		.4byte	0
 2888 031d 00000000 		.4byte	0
 2889              	.LLST26:
 2890 0321 0C000000 		.4byte	.LVL43
 2891 0325 68000000 		.4byte	.LVL50
 2892 0329 0100     		.2byte	0x1
 2893 032b 50       		.byte	0x50
 2894 032c 84000000 		.4byte	.LVL52
 2895 0330 8C000000 		.4byte	.LVL53
 2896 0334 0100     		.2byte	0x1
 2897 0336 50       		.byte	0x50
 2898 0337 00000000 		.4byte	0
 2899 033b 00000000 		.4byte	0
 2900              	.LLST27:
 2901 033f 2C000000 		.4byte	.LVL45
 2902 0343 5C000000 		.4byte	.LVL48
 2903 0347 0100     		.2byte	0x1
 2904 0349 53       		.byte	0x53
 2905 034a 00000000 		.4byte	0
 2906 034e 00000000 		.4byte	0
 2907              	.LLST28:
ARM GAS  /tmp/ccwg9Ekn.s 			page 52


 2908 0352 2C000000 		.4byte	.LVL45
 2909 0356 7B000000 		.4byte	.LVL51-1
 2910 035a 0100     		.2byte	0x1
 2911 035c 51       		.byte	0x51
 2912 035d 00000000 		.4byte	0
 2913 0361 00000000 		.4byte	0
 2914              	.LLST29:
 2915 0365 60000000 		.4byte	.LVL49
 2916 0369 84000000 		.4byte	.LVL52
 2917 036d 0100     		.2byte	0x1
 2918 036f 54       		.byte	0x54
 2919 0370 00000000 		.4byte	0
 2920 0374 00000000 		.4byte	0
 2921              	.LLST30:
 2922 0378 60000000 		.4byte	.LVL49
 2923 037c 7B000000 		.4byte	.LVL51-1
 2924 0380 0100     		.2byte	0x1
 2925 0382 5C       		.byte	0x5c
 2926 0383 00000000 		.4byte	0
 2927 0387 00000000 		.4byte	0
 2928              	.LLST31:
 2929 038b 20000000 		.4byte	.LVL55
 2930 038f 5B000000 		.4byte	.LVL57-1
 2931 0393 0100     		.2byte	0x1
 2932 0395 53       		.byte	0x53
 2933 0396 00000000 		.4byte	0
 2934 039a 00000000 		.4byte	0
 2935              	.LLST33:
 2936 039e 24000000 		.4byte	.LVL56
 2937 03a2 5B000000 		.4byte	.LVL57-1
 2938 03a6 0100     		.2byte	0x1
 2939 03a8 52       		.byte	0x52
 2940 03a9 00000000 		.4byte	0
 2941 03ad 00000000 		.4byte	0
 2942              		.section	.debug_aranges,"",%progbits
 2943 0000 54000000 		.4byte	0x54
 2944 0004 0200     		.2byte	0x2
 2945 0006 00000000 		.4byte	.Ldebug_info0
 2946 000a 04       		.byte	0x4
 2947 000b 00       		.byte	0
 2948 000c 0000     		.2byte	0
 2949 000e 0000     		.2byte	0
 2950 0010 00000000 		.4byte	.LFB7
 2951 0014 14000000 		.4byte	.LFE7-.LFB7
 2952 0018 00000000 		.4byte	.LFB9
 2953 001c 7C010000 		.4byte	.LFE9-.LFB9
 2954 0020 00000000 		.4byte	.LFB8
 2955 0024 14000000 		.4byte	.LFE8-.LFB8
 2956 0028 00000000 		.4byte	.LFB10
 2957 002c 3C000000 		.4byte	.LFE10-.LFB10
 2958 0030 00000000 		.4byte	.LFB11
 2959 0034 34000000 		.4byte	.LFE11-.LFB11
 2960 0038 00000000 		.4byte	.LFB12
 2961 003c A0000000 		.4byte	.LFE12-.LFB12
 2962 0040 00000000 		.4byte	.LFB13
 2963 0044 98000000 		.4byte	.LFE13-.LFB13
 2964 0048 00000000 		.4byte	.LFB14
ARM GAS  /tmp/ccwg9Ekn.s 			page 53


 2965 004c 80000000 		.4byte	.LFE14-.LFB14
 2966 0050 00000000 		.4byte	0
 2967 0054 00000000 		.4byte	0
 2968              		.section	.debug_ranges,"",%progbits
 2969              	.Ldebug_ranges0:
 2970 0000 18000000 		.4byte	.LBB27
 2971 0004 8C000000 		.4byte	.LBE27
 2972 0008 90000000 		.4byte	.LBB52
 2973 000c 64010000 		.4byte	.LBE52
 2974 0010 00000000 		.4byte	0
 2975 0014 00000000 		.4byte	0
 2976 0018 94000000 		.4byte	.LBB30
 2977 001c 9C000000 		.4byte	.LBE30
 2978 0020 A0000000 		.4byte	.LBB33
 2979 0024 A8000000 		.4byte	.LBE33
 2980 0028 00000000 		.4byte	0
 2981 002c 00000000 		.4byte	0
 2982 0030 B0000000 		.4byte	.LBB34
 2983 0034 B8000000 		.4byte	.LBE34
 2984 0038 BC000000 		.4byte	.LBB38
 2985 003c C4000000 		.4byte	.LBE38
 2986 0040 C8000000 		.4byte	.LBB42
 2987 0044 D0000000 		.4byte	.LBE42
 2988 0048 00000000 		.4byte	0
 2989 004c 00000000 		.4byte	0
 2990 0050 C4000000 		.4byte	.LBB39
 2991 0054 C8000000 		.4byte	.LBE39
 2992 0058 D0000000 		.4byte	.LBB43
 2993 005c 00010000 		.4byte	.LBE43
 2994 0060 00000000 		.4byte	0
 2995 0064 00000000 		.4byte	0
 2996 0068 00010000 		.4byte	.LBB44
 2997 006c 08010000 		.4byte	.LBE44
 2998 0070 0C010000 		.4byte	.LBB48
 2999 0074 14010000 		.4byte	.LBE48
 3000 0078 18010000 		.4byte	.LBB49
 3001 007c 20010000 		.4byte	.LBE49
 3002 0080 00000000 		.4byte	0
 3003 0084 00000000 		.4byte	0
 3004 0088 10000000 		.4byte	.LBB59
 3005 008c 1C000000 		.4byte	.LBE59
 3006 0090 20000000 		.4byte	.LBB62
 3007 0094 30000000 		.4byte	.LBE62
 3008 0098 00000000 		.4byte	0
 3009 009c 00000000 		.4byte	0
 3010 00a0 0C000000 		.4byte	.LBB65
 3011 00a4 18000000 		.4byte	.LBE65
 3012 00a8 1C000000 		.4byte	.LBB68
 3013 00ac 2C000000 		.4byte	.LBE68
 3014 00b0 00000000 		.4byte	0
 3015 00b4 00000000 		.4byte	0
 3016 00b8 5C000000 		.4byte	.LBB70
 3017 00bc 60000000 		.4byte	.LBE70
 3018 00c0 64000000 		.4byte	.LBB74
 3019 00c4 68000000 		.4byte	.LBE74
 3020 00c8 6C000000 		.4byte	.LBB75
 3021 00cc 70000000 		.4byte	.LBE75
ARM GAS  /tmp/ccwg9Ekn.s 			page 54


 3022 00d0 00000000 		.4byte	0
 3023 00d4 00000000 		.4byte	0
 3024 00d8 58000000 		.4byte	.LBB77
 3025 00dc 5C000000 		.4byte	.LBE77
 3026 00e0 60000000 		.4byte	.LBB81
 3027 00e4 64000000 		.4byte	.LBE81
 3028 00e8 68000000 		.4byte	.LBB82
 3029 00ec 6C000000 		.4byte	.LBE82
 3030 00f0 00000000 		.4byte	0
 3031 00f4 00000000 		.4byte	0
 3032 00f8 3C000000 		.4byte	.LBB85
 3033 00fc 40000000 		.4byte	.LBE85
 3034 0100 44000000 		.4byte	.LBB88
 3035 0104 4C000000 		.4byte	.LBE88
 3036 0108 00000000 		.4byte	0
 3037 010c 00000000 		.4byte	0
 3038 0110 00000000 		.4byte	.LFB7
 3039 0114 14000000 		.4byte	.LFE7
 3040 0118 00000000 		.4byte	.LFB9
 3041 011c 7C010000 		.4byte	.LFE9
 3042 0120 00000000 		.4byte	.LFB8
 3043 0124 14000000 		.4byte	.LFE8
 3044 0128 00000000 		.4byte	.LFB10
 3045 012c 3C000000 		.4byte	.LFE10
 3046 0130 00000000 		.4byte	.LFB11
 3047 0134 34000000 		.4byte	.LFE11
 3048 0138 00000000 		.4byte	.LFB12
 3049 013c A0000000 		.4byte	.LFE12
 3050 0140 00000000 		.4byte	.LFB13
 3051 0144 98000000 		.4byte	.LFE13
 3052 0148 00000000 		.4byte	.LFB14
 3053 014c 80000000 		.4byte	.LFE14
 3054 0150 00000000 		.4byte	0
 3055 0154 00000000 		.4byte	0
 3056              		.section	.debug_line,"",%progbits
 3057              	.Ldebug_line0:
 3058 0000 13030000 		.section	.debug_str,"MS",%progbits,1
 3058      02001001 
 3058      00000201 
 3058      FB0E0D00 
 3058      01010101 
 3059              	.LASF39:
 3060 0000 705F6D73 		.ascii	"p_msg\000"
 3060      6700
 3061              	.LASF59:
 3062 0006 7264796D 		.ascii	"rdymsg\000"
 3062      736700
 3063              	.LASF5:
 3064 000d 5F5F7569 		.ascii	"__uint8_t\000"
 3064      6E74385F 
 3064      7400
 3065              	.LASF11:
 3066 0017 6C6F6E67 		.ascii	"long long unsigned int\000"
 3066      206C6F6E 
 3066      6720756E 
 3066      7369676E 
 3066      65642069 
ARM GAS  /tmp/ccwg9Ekn.s 			page 55


 3067              	.LASF60:
 3068 002e 65786974 		.ascii	"exitcode\000"
 3068      636F6465 
 3068      00
 3069              	.LASF71:
 3070 0037 63684D74 		.ascii	"chMtxUnlock\000"
 3070      78556E6C 
 3070      6F636B00 
 3071              	.LASF27:
 3072 0043 705F7072 		.ascii	"p_prio\000"
 3072      696F00
 3073              	.LASF10:
 3074 004a 6C6F6E67 		.ascii	"long long int\000"
 3074      206C6F6E 
 3074      6720696E 
 3074      7400
 3075              	.LASF1:
 3076 0058 7369676E 		.ascii	"signed char\000"
 3076      65642063 
 3076      68617200 
 3077              	.LASF15:
 3078 0064 626F6F6C 		.ascii	"bool_t\000"
 3078      5F7400
 3079              	.LASF56:
 3080 006b 6D5F7175 		.ascii	"m_queue\000"
 3080      65756500 
 3081              	.LASF19:
 3082 0073 74736C69 		.ascii	"tslices_t\000"
 3082      6365735F 
 3082      7400
 3083              	.LASF7:
 3084 007d 6C6F6E67 		.ascii	"long int\000"
 3084      20696E74 
 3084      00
 3085              	.LASF17:
 3086 0086 74737461 		.ascii	"tstate_t\000"
 3086      74655F74 
 3086      00
 3087              	.LASF68:
 3088 008f 63684D74 		.ascii	"chMtxLockS\000"
 3088      784C6F63 
 3088      6B5300
 3089              	.LASF75:
 3090 009a 63684D74 		.ascii	"chMtxTryLockS\000"
 3090      78547279 
 3090      4C6F636B 
 3090      5300
 3091              	.LASF29:
 3092 00a8 705F6E65 		.ascii	"p_newer\000"
 3092      77657200 
 3093              	.LASF84:
 3094 00b0 63685363 		.ascii	"chSchRescheduleS\000"
 3094      68526573 
 3094      63686564 
 3094      756C6553 
 3094      00
 3095              	.LASF8:
ARM GAS  /tmp/ccwg9Ekn.s 			page 56


 3096 00c1 5F5F7569 		.ascii	"__uint32_t\000"
 3096      6E743332 
 3096      5F7400
 3097              	.LASF45:
 3098 00cc 72656761 		.ascii	"regarm_t\000"
 3098      726D5F74 
 3098      00
 3099              	.LASF73:
 3100 00d5 63684D74 		.ascii	"chMtxUnlockS\000"
 3100      78556E6C 
 3100      6F636B53 
 3100      00
 3101              	.LASF0:
 3102 00e2 756E7369 		.ascii	"unsigned int\000"
 3102      676E6564 
 3102      20696E74 
 3102      00
 3103              	.LASF9:
 3104 00ef 6C6F6E67 		.ascii	"long unsigned int\000"
 3104      20756E73 
 3104      69676E65 
 3104      6420696E 
 3104      7400
 3105              	.LASF47:
 3106 0101 636F6E74 		.ascii	"context\000"
 3106      65787400 
 3107              	.LASF4:
 3108 0109 73686F72 		.ascii	"short unsigned int\000"
 3108      7420756E 
 3108      7369676E 
 3108      65642069 
 3108      6E7400
 3109              	.LASF21:
 3110 011c 6D73675F 		.ascii	"msg_t\000"
 3110      7400
 3111              	.LASF51:
 3112 0122 725F6E65 		.ascii	"r_newer\000"
 3112      77657200 
 3113              	.LASF74:
 3114 012a 63684D74 		.ascii	"chMtxUnlockAll\000"
 3114      78556E6C 
 3114      6F636B41 
 3114      6C6C00
 3115              	.LASF72:
 3116 0139 6E657770 		.ascii	"newprio\000"
 3116      72696F00 
 3117              	.LASF16:
 3118 0141 746D6F64 		.ascii	"tmode_t\000"
 3118      655F7400 
 3119              	.LASF67:
 3120 0149 63684D74 		.ascii	"chMtxInit\000"
 3120      78496E69 
 3120      7400
 3121              	.LASF44:
 3122 0153 54687265 		.ascii	"ThreadsList\000"
 3122      6164734C 
 3122      69737400 
ARM GAS  /tmp/ccwg9Ekn.s 			page 57


 3123              	.LASF22:
 3124 015f 6576656E 		.ascii	"eventmask_t\000"
 3124      746D6173 
 3124      6B5F7400 
 3125              	.LASF70:
 3126 016b 63684D74 		.ascii	"chMtxTryLock\000"
 3126      78547279 
 3126      4C6F636B 
 3126      00
 3127              	.LASF55:
 3128 0178 4D757465 		.ascii	"Mutex\000"
 3128      7800
 3129              	.LASF64:
 3130 017e 73697A65 		.ascii	"sizetype\000"
 3130      74797065 
 3130      00
 3131              	.LASF69:
 3132 0187 63684D74 		.ascii	"chMtxLock\000"
 3132      784C6F63 
 3132      6B00
 3133              	.LASF30:
 3134 0191 705F6F6C 		.ascii	"p_older\000"
 3134      64657200 
 3135              	.LASF50:
 3136 0199 725F6374 		.ascii	"r_ctx\000"
 3136      7800
 3137              	.LASF43:
 3138 019f 54687265 		.ascii	"ThreadsQueue\000"
 3138      61647351 
 3138      75657565 
 3138      00
 3139              	.LASF65:
 3140 01ac 64657175 		.ascii	"dequeue\000"
 3140      65756500 
 3141              	.LASF53:
 3142 01b4 725F6375 		.ascii	"r_current\000"
 3142      7272656E 
 3142      7400
 3143              	.LASF52:
 3144 01be 725F6F6C 		.ascii	"r_older\000"
 3144      64657200 
 3145              	.LASF18:
 3146 01c6 74726566 		.ascii	"trefs_t\000"
 3146      735F7400 
 3147              	.LASF26:
 3148 01ce 705F7072 		.ascii	"p_prev\000"
 3148      657600
 3149              	.LASF20:
 3150 01d5 74707269 		.ascii	"tprio_t\000"
 3150      6F5F7400 
 3151              	.LASF13:
 3152 01dd 696E7433 		.ascii	"int32_t\000"
 3152      325F7400 
 3153              	.LASF2:
 3154 01e5 756E7369 		.ascii	"unsigned char\000"
 3154      676E6564 
 3154      20636861 
ARM GAS  /tmp/ccwg9Ekn.s 			page 58


 3154      7200
 3155              	.LASF41:
 3156 01f3 705F6D74 		.ascii	"p_mtxlist\000"
 3156      786C6973 
 3156      7400
 3157              	.LASF3:
 3158 01fd 73686F72 		.ascii	"short int\000"
 3158      7420696E 
 3158      7400
 3159              	.LASF32:
 3160 0207 705F7374 		.ascii	"p_state\000"
 3160      61746500 
 3161              	.LASF35:
 3162 020f 705F7072 		.ascii	"p_preempt\000"
 3162      65656D70 
 3162      7400
 3163              	.LASF49:
 3164 0219 725F7072 		.ascii	"r_prio\000"
 3164      696F00
 3165              	.LASF62:
 3166 0220 65776D61 		.ascii	"ewmask\000"
 3166      736B00
 3167              	.LASF25:
 3168 0227 705F6E65 		.ascii	"p_next\000"
 3168      787400
 3169              	.LASF33:
 3170 022e 705F666C 		.ascii	"p_flags\000"
 3170      61677300 
 3171              	.LASF24:
 3172 0236 54687265 		.ascii	"Thread\000"
 3172      616400
 3173              	.LASF77:
 3174 023d 63685363 		.ascii	"chSchGoSleepS\000"
 3174      68476F53 
 3174      6C656570 
 3174      5300
 3175              	.LASF40:
 3176 024b 705F6570 		.ascii	"p_epending\000"
 3176      656E6469 
 3176      6E6700
 3177              	.LASF14:
 3178 0256 75696E74 		.ascii	"uint32_t\000"
 3178      33325F74 
 3178      00
 3179              	.LASF48:
 3180 025f 725F7175 		.ascii	"r_queue\000"
 3180      65756500 
 3181              	.LASF76:
 3182 0267 63685363 		.ascii	"chSchReadyI\000"
 3182      68526561 
 3182      64794900 
 3183              	.LASF63:
 3184 0273 63686172 		.ascii	"char\000"
 3184      00
 3185              	.LASF66:
 3186 0278 6669666F 		.ascii	"fifo_remove\000"
 3186      5F72656D 
ARM GAS  /tmp/ccwg9Ekn.s 			page 59


 3186      6F766500 
 3187              	.LASF80:
 3188 0284 2E2E2F2E 		.ascii	"../../os/kernel/src/chmtx.c\000"
 3188      2E2F6F73 
 3188      2F6B6572 
 3188      6E656C2F 
 3188      7372632F 
 3189              	.LASF58:
 3190 02a0 6D5F6E65 		.ascii	"m_next\000"
 3190      787400
 3191              	.LASF23:
 3192 02a7 73797374 		.ascii	"systime_t\000"
 3192      696D655F 
 3192      7400
 3193              	.LASF42:
 3194 02b1 705F7265 		.ascii	"p_realprio\000"
 3194      616C7072 
 3194      696F00
 3195              	.LASF6:
 3196 02bc 5F5F696E 		.ascii	"__int32_t\000"
 3196      7433325F 
 3196      7400
 3197              	.LASF82:
 3198 02c6 7072696F 		.ascii	"prio_insert\000"
 3198      5F696E73 
 3198      65727400 
 3199              	.LASF36:
 3200 02d2 705F7469 		.ascii	"p_time\000"
 3200      6D6500
 3201              	.LASF46:
 3202 02d9 696E7463 		.ascii	"intctx\000"
 3202      747800
 3203              	.LASF38:
 3204 02e0 705F6D73 		.ascii	"p_msgqueue\000"
 3204      67717565 
 3204      756500
 3205              	.LASF78:
 3206 02eb 63685363 		.ascii	"chSchWakeupS\000"
 3206      6857616B 
 3206      65757053 
 3206      00
 3207              	.LASF81:
 3208 02f8 2F686F6D 		.ascii	"/home/hunter/development/chibi/ChibiOS-RPi/demos/AR"
 3208      652F6875 
 3208      6E746572 
 3208      2F646576 
 3208      656C6F70 
 3209 032b 4D31312D 		.ascii	"M11-BCM2835-GCC\000"
 3209      42434D32 
 3209      3833352D 
 3209      47434300 
 3210              	.LASF34:
 3211 033b 705F7265 		.ascii	"p_refs\000"
 3211      667300
 3212              	.LASF54:
 3213 0342 52656164 		.ascii	"ReadyList\000"
 3213      794C6973 
ARM GAS  /tmp/ccwg9Ekn.s 			page 60


 3213      7400
 3214              	.LASF83:
 3215 034c 726C6973 		.ascii	"rlist\000"
 3215      7400
 3216              	.LASF12:
 3217 0352 75696E74 		.ascii	"uint8_t\000"
 3217      385F7400 
 3218              	.LASF61:
 3219 035a 77746F62 		.ascii	"wtobjp\000"
 3219      6A7000
 3220              	.LASF31:
 3221 0361 705F6E61 		.ascii	"p_name\000"
 3221      6D6500
 3222              	.LASF79:
 3223 0368 474E5520 		.ascii	"GNU C 4.9.3 20150529 (prerelease) -mcpu=arm1176jz-s"
 3223      4320342E 
 3223      392E3320 
 3223      32303135 
 3223      30353239 
 3224 039b 202D6D6E 		.ascii	" -mno-thumb-interwork -ggdb -O2 -fomit-frame-pointe"
 3224      6F2D7468 
 3224      756D622D 
 3224      696E7465 
 3224      72776F72 
 3225 03ce 72202D66 		.ascii	"r -ffunction-sections -fdata-sections\000"
 3225      66756E63 
 3225      74696F6E 
 3225      2D736563 
 3225      74696F6E 
 3226              	.LASF57:
 3227 03f4 6D5F6F77 		.ascii	"m_owner\000"
 3227      6E657200 
 3228              	.LASF28:
 3229 03fc 705F6374 		.ascii	"p_ctx\000"
 3229      7800
 3230              	.LASF37:
 3231 0402 705F7761 		.ascii	"p_waiting\000"
 3231      6974696E 
 3231      6700
 3232              		.ident	"GCC: (15:4.9.3+svn231177-1) 4.9.3 20150529 (prerelease)"
ARM GAS  /tmp/ccwg9Ekn.s 			page 61


DEFINED SYMBOLS
                            *ABS*:0000000000000000 chmtx.c
     /tmp/ccwg9Ekn.s:17     .text.chMtxInit:0000000000000000 $a
     /tmp/ccwg9Ekn.s:20     .text.chMtxInit:0000000000000000 chMtxInit
     /tmp/ccwg9Ekn.s:41     .text.chMtxLockS:0000000000000000 $a
     /tmp/ccwg9Ekn.s:44     .text.chMtxLockS:0000000000000000 chMtxLockS
     /tmp/ccwg9Ekn.s:308    .text.chMtxLockS:0000000000000178 $d
     /tmp/ccwg9Ekn.s:313    .text.chMtxLock:0000000000000000 $a
     /tmp/ccwg9Ekn.s:316    .text.chMtxLock:0000000000000000 chMtxLock
     /tmp/ccwg9Ekn.s:343    .text.chMtxTryLock:0000000000000000 $a
     /tmp/ccwg9Ekn.s:346    .text.chMtxTryLock:0000000000000000 chMtxTryLock
     /tmp/ccwg9Ekn.s:403    .text.chMtxTryLock:0000000000000038 $d
     /tmp/ccwg9Ekn.s:408    .text.chMtxTryLockS:0000000000000000 $a
     /tmp/ccwg9Ekn.s:411    .text.chMtxTryLockS:0000000000000000 chMtxTryLockS
     /tmp/ccwg9Ekn.s:455    .text.chMtxTryLockS:0000000000000030 $d
     /tmp/ccwg9Ekn.s:460    .text.chMtxUnlock:0000000000000000 $a
     /tmp/ccwg9Ekn.s:463    .text.chMtxUnlock:0000000000000000 chMtxUnlock
     /tmp/ccwg9Ekn.s:579    .text.chMtxUnlock:000000000000009c $d
     /tmp/ccwg9Ekn.s:584    .text.chMtxUnlockS:0000000000000000 $a
     /tmp/ccwg9Ekn.s:587    .text.chMtxUnlockS:0000000000000000 chMtxUnlockS
     /tmp/ccwg9Ekn.s:696    .text.chMtxUnlockS:0000000000000094 $d
     /tmp/ccwg9Ekn.s:701    .text.chMtxUnlockAll:0000000000000000 $a
     /tmp/ccwg9Ekn.s:704    .text.chMtxUnlockAll:0000000000000000 chMtxUnlockAll
     /tmp/ccwg9Ekn.s:795    .text.chMtxUnlockAll:000000000000007c $d
                     .debug_frame:0000000000000010 $d

UNDEFINED SYMBOLS
chSchGoSleepS
chSchReadyI
rlist
chSchWakeupS
chSchRescheduleS
