ARM GAS  /tmp/cckkBObn.s 			page 1


   1              		.cpu arm1176jz-s
   2              		.fpu softvfp
   3              		.eabi_attribute 20, 1
   4              		.eabi_attribute 21, 1
   5              		.eabi_attribute 23, 3
   6              		.eabi_attribute 24, 1
   7              		.eabi_attribute 25, 1
   8              		.eabi_attribute 26, 1
   9              		.eabi_attribute 30, 2
  10              		.eabi_attribute 34, 1
  11              		.eabi_attribute 18, 4
  12              		.file	"chprintf.c"
  13              		.text
  14              	.Ltext0:
  15              		.cfi_sections	.debug_frame
  16              		.global	__aeabi_uidivmod
  17              		.global	__aeabi_uidiv
  18              		.section	.text.long_to_string_with_divisor,"ax",%progbits
  19              		.align	2
  20              		.type	long_to_string_with_divisor, %function
  21              	long_to_string_with_divisor:
  22              	.LFB7:
  23              		.file 1 "../../os/various/chprintf.c"
  24              		.loc 1 43 0
  25              		.cfi_startproc
  26              		@ args = 0, pretend = 0, frame = 0
  27              		@ frame_needed = 0, uses_anonymous_args = 0
  28              	.LVL0:
  29 0000 F0472DE9 		stmfd	sp!, {r4, r5, r6, r7, r8, r9, r10, lr}
  30              		.cfi_def_cfa_offset 32
  31              		.cfi_offset 4, -32
  32              		.cfi_offset 5, -28
  33              		.cfi_offset 6, -24
  34              		.cfi_offset 7, -20
  35              		.cfi_offset 8, -16
  36              		.cfi_offset 9, -12
  37              		.cfi_offset 10, -8
  38              		.cfi_offset 14, -4
  39              		.loc 1 49 0
  40 0004 000053E3 		cmp	r3, #0
  41              		.loc 1 55 0
  42 0008 0B9080E2 		add	r9, r0, #11
  43              		.loc 1 43 0
  44 000c 0060A0E1 		mov	r6, r0
  45 0010 0170A0E1 		mov	r7, r1
  46              	.LVL1:
  47              		.loc 1 49 0
  48 0014 03A0A011 		movne	r10, r3
  49 0018 01A0A001 		moveq	r10, r1
  50              	.LVL2:
  51              		.loc 1 43 0
  52 001c 0280A0E1 		mov	r8, r2
  53              		.loc 1 55 0
  54 0020 0950A0E1 		mov	r5, r9
  55              	.LVL3:
  56              	.L4:
  57              		.loc 1 57 0
ARM GAS  /tmp/cckkBObn.s 			page 2


  58 0024 0700A0E1 		mov	r0, r7
  59 0028 0810A0E1 		mov	r1, r8
  60 002c FEFFFFEB 		bl	__aeabi_uidivmod
  61              	.LVL4:
  62 0030 0130A0E1 		mov	r3, r1
  63              	.LVL5:
  64              		.loc 1 58 0
  65 0034 304083E2 		add	r4, r3, #48
  66              	.LVL6:
  67              		.loc 1 59 0
  68 0038 390054E3 		cmp	r4, #57
  69              		.loc 1 60 0
  70 003c 374083C2 		addgt	r4, r3, #55
  71              	.LVL7:
  72              		.loc 1 61 0
  73 0040 7440EFE6 		uxtb	r4, r4
  74              	.LVL8:
  75              		.loc 1 62 0
  76 0044 0700A0E1 		mov	r0, r7
  77 0048 0810A0E1 		mov	r1, r8
  78              	.LVL9:
  79              		.loc 1 61 0
  80 004c 014065E5 		strb	r4, [r5, #-1]!
  81              	.LVL10:
  82              		.loc 1 62 0
  83 0050 FEFFFFEB 		bl	__aeabi_uidiv
  84              	.LVL11:
  85              		.loc 1 63 0
  86 0054 0810A0E1 		mov	r1, r8
  87              		.loc 1 62 0
  88 0058 0070A0E1 		mov	r7, r0
  89              	.LVL12:
  90              		.loc 1 63 0
  91 005c 0A00A0E1 		mov	r0, r10
  92              	.LVL13:
  93 0060 FEFFFFEB 		bl	__aeabi_uidiv
  94              	.LVL14:
  95 0064 00A050E2 		subs	r10, r0, #0
  96 0068 EDFFFF1A 		bne	.L4
  97              	.LVL15:
  98              		.loc 1 65 0
  99 006c 099065E0 		rsb	r9, r5, r9
 100              	.LVL16:
 101 0070 099086E0 		add	r9, r6, r9
 102 0074 000000EA 		b	.L6
 103              	.LVL17:
 104              	.L12:
 105 0078 0140F5E5 		ldrb	r4, [r5, #1]!	@ zero_extendqisi2
 106              	.LVL18:
 107              	.L6:
 108              		.loc 1 67 0 discriminator 1
 109 007c 0140C6E4 		strb	r4, [r6], #1
 110              	.LVL19:
 111              		.loc 1 68 0 discriminator 1
 112 0080 090056E1 		cmp	r6, r9
 113 0084 FBFFFF1A 		bne	.L12
 114              		.loc 1 71 0
ARM GAS  /tmp/cckkBObn.s 			page 3


 115 0088 0600A0E1 		mov	r0, r6
 116              	.LVL20:
 117 008c F087BDE8 		ldmfd	sp!, {r4, r5, r6, r7, r8, r9, r10, pc}
 118              		.cfi_endproc
 119              	.LFE7:
 120              		.size	long_to_string_with_divisor, .-long_to_string_with_divisor
 121              		.global	__aeabi_d2f
 122              		.global	__aeabi_fcmplt
 123              		.global	__aeabi_f2iz
 124              		.global	__aeabi_f2d
 125              		.global	__aeabi_i2d
 126              		.global	__aeabi_dsub
 127              		.global	__aeabi_dmul
 128              		.global	__aeabi_d2iz
 129              		.section	.text.chprintf,"ax",%progbits
 130              		.align	2
 131              		.global	chprintf
 132              		.type	chprintf, %function
 133              	chprintf:
 134              	.LFB10:
 135              		.loc 1 112 0
 136              		.cfi_startproc
 137              		@ args = 4, pretend = 12, frame = 48
 138              		@ frame_needed = 0, uses_anonymous_args = 1
 139              	.LVL21:
 140 0000 0E002DE9 		stmfd	sp!, {r1, r2, r3}
 141              		.cfi_def_cfa_offset 12
 142              		.cfi_offset 1, -12
 143              		.cfi_offset 2, -8
 144              		.cfi_offset 3, -4
 145 0004 F04F2DE9 		stmfd	sp!, {r4, r5, r6, r7, r8, r9, r10, fp, lr}
 146              		.cfi_def_cfa_offset 48
 147              		.cfi_offset 4, -48
 148              		.cfi_offset 5, -44
 149              		.cfi_offset 6, -40
 150              		.cfi_offset 7, -36
 151              		.cfi_offset 8, -32
 152              		.cfi_offset 9, -28
 153              		.cfi_offset 10, -24
 154              		.cfi_offset 11, -20
 155              		.cfi_offset 14, -16
 156 0008 0060A0E1 		mov	r6, r0
 157 000c 30D04DE2 		sub	sp, sp, #48
 158              		.cfi_def_cfa_offset 96
 159              		.loc 1 125 0
 160 0010 58308DE2 		add	r3, sp, #88
 161 0014 18808DE2 		add	r8, sp, #24
 162 0018 14308DE5 		str	r3, [sp, #20]
 163              		.loc 1 112 0
 164 001c 54509DE5 		ldr	r5, [sp, #84]
 165 0020 19308DE2 		add	r3, sp, #25
 166 0024 03B068E0 		rsb	fp, r8, r3
 167              	.LVL22:
 168              	.L14:
 169              		.loc 1 127 0
 170 0028 0010D5E5 		ldrb	r1, [r5]	@ zero_extendqisi2
 171 002c 012085E2 		add	r2, r5, #1
ARM GAS  /tmp/cckkBObn.s 			page 4


 172              	.LVL23:
 173              		.loc 1 128 0
 174 0030 000051E3 		cmp	r1, #0
 175 0034 0A00000A 		beq	.L93
 176              	.L103:
 177              		.loc 1 132 0
 178 0038 250051E3 		cmp	r1, #37
 179 003c 0C00000A 		beq	.L16
 180              		.loc 1 127 0
 181 0040 0250A0E1 		mov	r5, r2
 182              		.loc 1 133 0
 183 0044 003096E5 		ldr	r3, [r6]
 184 0048 0600A0E1 		mov	r0, r6
 185 004c 083093E5 		ldr	r3, [r3, #8]
 186 0050 33FF2FE1 		blx	r3
 187              	.LVL24:
 188              		.loc 1 127 0
 189 0054 0010D5E5 		ldrb	r1, [r5]	@ zero_extendqisi2
 190 0058 012085E2 		add	r2, r5, #1
 191              	.LVL25:
 192              		.loc 1 128 0
 193 005c 000051E3 		cmp	r1, #0
 194 0060 F4FFFF1A 		bne	.L103
 195              	.L93:
 196              		.loc 1 263 0
 197 0064 30D08DE2 		add	sp, sp, #48
 198              		.cfi_remember_state
 199              		.cfi_def_cfa_offset 48
 200              		@ sp needed
 201 0068 F04FBDE8 		ldmfd	sp!, {r4, r5, r6, r7, r8, r9, r10, fp, lr}
 202              		.cfi_restore 14
 203              		.cfi_restore 11
 204              		.cfi_restore 10
 205              		.cfi_restore 9
 206              		.cfi_restore 8
 207              		.cfi_restore 7
 208              		.cfi_restore 6
 209              		.cfi_restore 5
 210              		.cfi_restore 4
 211              		.cfi_def_cfa_offset 12
 212              	.LVL26:
 213 006c 0CD08DE2 		add	sp, sp, #12
 214              		.cfi_restore 3
 215              		.cfi_restore 2
 216              		.cfi_restore 1
 217              		.cfi_def_cfa_offset 0
 218 0070 1EFF2FE1 		bx	lr
 219              	.LVL27:
 220              	.L16:
 221              		.cfi_restore_state
 222              		.loc 1 139 0
 223 0074 0110D5E5 		ldrb	r1, [r5, #1]	@ zero_extendqisi2
 224              	.LVL28:
 225              		.loc 1 148 0
 226 0078 0040A0E3 		mov	r4, #0
 227              		.loc 1 139 0
 228 007c 2D0051E3 		cmp	r1, #45
ARM GAS  /tmp/cckkBObn.s 			page 5


 229 0080 0210D505 		ldreqb	r1, [r5, #2]	@ zero_extendqisi2
 230              		.loc 1 140 0
 231 0084 02208502 		addeq	r2, r5, #2
 232              	.LVL29:
 233              		.loc 1 141 0
 234 0088 0190A003 		moveq	r9, #1
 235              		.loc 1 138 0
 236 008c 0090A013 		movne	r9, #0
 237              	.LVL30:
 238              		.loc 1 144 0
 239 0090 2E0051E3 		cmp	r1, #46
 240 0094 0110D205 		ldreqb	r1, [r2, #1]	@ zero_extendqisi2
 241              		.loc 1 145 0
 242 0098 01208202 		addeq	r2, r2, #1
 243              	.LVL31:
 244              		.loc 1 146 0
 245 009c 3070A003 		moveq	r7, #48
 246              		.loc 1 143 0
 247 00a0 2070A013 		movne	r7, #32
 248              	.LVL32:
 249 00a4 14009DE5 		ldr	r0, [sp, #20]
 250 00a8 012082E2 		add	r2, r2, #1
 251              	.LVL33:
 252 00ac 040000EA 		b	.L22
 253              	.LVL34:
 254              	.L104:
 255              		.loc 1 154 0
 256 00b0 0030D0E5 		ldrb	r3, [r0]	@ zero_extendqisi2
 257              	.LVL35:
 258 00b4 040080E2 		add	r0, r0, #4
 259              	.LVL36:
 260              	.L20:
 261 00b8 0010D5E5 		ldrb	r1, [r5]	@ zero_extendqisi2
 262              		.loc 1 157 0
 263 00bc 8C4083E0 		add	r4, r3, ip, asl #1
 264              	.LVL37:
 265 00c0 012082E2 		add	r2, r2, #1
 266              	.LVL38:
 267              	.L22:
 268              		.loc 1 151 0
 269 00c4 303041E2 		sub	r3, r1, #48
 270 00c8 7330EFE6 		uxtb	r3, r3
 271 00cc 090053E3 		cmp	r3, #9
 272              		.loc 1 157 0
 273 00d0 04C184E0 		add	ip, r4, r4, asl #2
 274              		.loc 1 150 0
 275 00d4 0250A0E1 		mov	r5, r2
 276              	.LVL39:
 277              		.loc 1 151 0
 278 00d8 F6FFFF9A 		bls	.L20
 279              		.loc 1 153 0
 280 00dc 2A0051E3 		cmp	r1, #42
 281 00e0 F2FFFF0A 		beq	.L104
 282              		.loc 1 160 0
 283 00e4 2E0051E3 		cmp	r1, #46
 284 00e8 0020A0E3 		mov	r2, #0
 285              	.LVL40:
ARM GAS  /tmp/cckkBObn.s 			page 6


 286 00ec 14008DE5 		str	r0, [sp, #20]
 287              	.LVL41:
 288 00f0 4200000A 		beq	.L26
 289              	.LVL42:
 290              		.loc 1 174 0
 291 00f4 DF3001E2 		and	r3, r1, #223
 292 00f8 4C0053E3 		cmp	r3, #76
 293 00fc 4B00001A 		bne	.L27
 294              	.L105:
 295              	.LVL43:
 296              		.loc 1 176 0
 297 0100 0030D5E5 		ldrb	r3, [r5]	@ zero_extendqisi2
 298 0104 000053E3 		cmp	r3, #0
 299              		.loc 1 177 0
 300 0108 0310A011 		movne	r1, r3
 301              	.LVL44:
 302              		.loc 1 183 0
 303 010c 443041E2 		sub	r3, r1, #68
 304              		.loc 1 177 0
 305 0110 01508512 		addne	r5, r5, #1
 306              	.LVL45:
 307              		.loc 1 183 0
 308 0114 340053E3 		cmp	r3, #52
 309 0118 03F19F97 		ldrls	pc, [pc, r3, asl #2]
 310 011c 080100EA 		b	.L29
 311              	.L60:
 312 0120 C0050000 		.word	.L45
 313 0124 44050000 		.word	.L29
 314 0128 44050000 		.word	.L29
 315 012c 44050000 		.word	.L29
 316 0130 44050000 		.word	.L29
 317 0134 44050000 		.word	.L29
 318 0138 44050000 		.word	.L29
 319 013c 44050000 		.word	.L29
 320 0140 44050000 		.word	.L29
 321 0144 44050000 		.word	.L29
 322 0148 44050000 		.word	.L29
 323 014c 94050000 		.word	.L75
 324 0150 44050000 		.word	.L29
 325 0154 44050000 		.word	.L29
 326 0158 44050000 		.word	.L29
 327 015c 44050000 		.word	.L29
 328 0160 44050000 		.word	.L29
 329 0164 58050000 		.word	.L76
 330 0168 44050000 		.word	.L29
 331 016c 44050000 		.word	.L29
 332 0170 04060000 		.word	.L61
 333 0174 44050000 		.word	.L29
 334 0178 44050000 		.word	.L29
 335 017c 44050000 		.word	.L29
 336 0180 44050000 		.word	.L29
 337 0184 44050000 		.word	.L29
 338 0188 44050000 		.word	.L29
 339 018c 44050000 		.word	.L29
 340 0190 44050000 		.word	.L29
 341 0194 44050000 		.word	.L29
 342 0198 44050000 		.word	.L29
ARM GAS  /tmp/cckkBObn.s 			page 7


 343 019c 1C050000 		.word	.L35
 344 01a0 C0050000 		.word	.L45
 345 01a4 44050000 		.word	.L29
 346 01a8 CC030000 		.word	.L36
 347 01ac 44050000 		.word	.L29
 348 01b0 44050000 		.word	.L29
 349 01b4 44050000 		.word	.L29
 350 01b8 44050000 		.word	.L29
 351 01bc 44050000 		.word	.L29
 352 01c0 44050000 		.word	.L29
 353 01c4 44050000 		.word	.L29
 354 01c8 44050000 		.word	.L29
 355 01cc 94050000 		.word	.L75
 356 01d0 44050000 		.word	.L29
 357 01d4 44050000 		.word	.L29
 358 01d8 44050000 		.word	.L29
 359 01dc 2C030000 		.word	.L37
 360 01e0 44050000 		.word	.L29
 361 01e4 58050000 		.word	.L76
 362 01e8 44050000 		.word	.L29
 363 01ec 44050000 		.word	.L29
 364 01f0 04060000 		.word	.L61
 365              	.LVL46:
 366              	.L25:
 367              		.loc 1 166 0
 368 01f4 0030D0E5 		ldrb	r3, [r0]	@ zero_extendqisi2
 369              	.LVL47:
 370 01f8 040080E2 		add	r0, r0, #4
 371              	.LVL48:
 372              	.L24:
 373              		.loc 1 170 0
 374 01fc 8C2083E0 		add	r2, r3, ip, asl #1
 375              	.LVL49:
 376              	.L26:
 377              		.loc 1 162 0
 378 0200 0110D5E4 		ldrb	r1, [r5], #1	@ zero_extendqisi2
 379              	.LVL50:
 380              		.loc 1 169 0
 381 0204 02C182E0 		add	ip, r2, r2, asl #2
 382              		.loc 1 163 0
 383 0208 303041E2 		sub	r3, r1, #48
 384 020c 7330EFE6 		uxtb	r3, r3
 385 0210 090053E3 		cmp	r3, #9
 386 0214 F8FFFF9A 		bls	.L24
 387              		.loc 1 165 0
 388 0218 2A0051E3 		cmp	r1, #42
 389 021c F4FFFF0A 		beq	.L25
 390              		.loc 1 174 0
 391 0220 DF3001E2 		and	r3, r1, #223
 392 0224 4C0053E3 		cmp	r3, #76
 393 0228 14008DE5 		str	r0, [sp, #20]
 394              	.LVL51:
 395 022c B3FFFF0A 		beq	.L105
 396              	.L27:
 397              		.loc 1 180 0
 398 0230 413041E2 		sub	r3, r1, #65
 399 0234 7330EFE6 		uxtb	r3, r3
ARM GAS  /tmp/cckkBObn.s 			page 8


 400 0238 190053E3 		cmp	r3, #25
 401 023c 0030A083 		movhi	r3, #0
 402 0240 0130A093 		movls	r3, #1
 403              		.loc 1 183 0
 404 0244 440041E2 		sub	r0, r1, #68
 405              		.loc 1 180 0
 406 0248 03C0A0E1 		mov	ip, r3
 407              	.LVL52:
 408              		.loc 1 183 0
 409 024c 340050E3 		cmp	r0, #52
 410 0250 00F19F97 		ldrls	pc, [pc, r0, asl #2]
 411 0254 BA0000EA 		b	.L29
 412              	.L31:
 413 0258 B8050000 		.word	.L30
 414 025c 44050000 		.word	.L29
 415 0260 44050000 		.word	.L29
 416 0264 44050000 		.word	.L29
 417 0268 44050000 		.word	.L29
 418 026c 44050000 		.word	.L29
 419 0270 44050000 		.word	.L29
 420 0274 44050000 		.word	.L29
 421 0278 44050000 		.word	.L29
 422 027c 44050000 		.word	.L29
 423 0280 44050000 		.word	.L29
 424 0284 98050000 		.word	.L32
 425 0288 44050000 		.word	.L29
 426 028c 44050000 		.word	.L29
 427 0290 44050000 		.word	.L29
 428 0294 44050000 		.word	.L29
 429 0298 44050000 		.word	.L29
 430 029c 5C050000 		.word	.L33
 431 02a0 44050000 		.word	.L29
 432 02a4 44050000 		.word	.L29
 433 02a8 FC050000 		.word	.L70
 434 02ac 44050000 		.word	.L29
 435 02b0 44050000 		.word	.L29
 436 02b4 44050000 		.word	.L29
 437 02b8 44050000 		.word	.L29
 438 02bc 44050000 		.word	.L29
 439 02c0 44050000 		.word	.L29
 440 02c4 44050000 		.word	.L29
 441 02c8 44050000 		.word	.L29
 442 02cc 44050000 		.word	.L29
 443 02d0 44050000 		.word	.L29
 444 02d4 1C050000 		.word	.L35
 445 02d8 B8050000 		.word	.L30
 446 02dc 44050000 		.word	.L29
 447 02e0 CC030000 		.word	.L36
 448 02e4 44050000 		.word	.L29
 449 02e8 44050000 		.word	.L29
 450 02ec 44050000 		.word	.L29
 451 02f0 44050000 		.word	.L29
 452 02f4 44050000 		.word	.L29
 453 02f8 44050000 		.word	.L29
 454 02fc 44050000 		.word	.L29
 455 0300 44050000 		.word	.L29
 456 0304 98050000 		.word	.L32
ARM GAS  /tmp/cckkBObn.s 			page 9


 457 0308 44050000 		.word	.L29
 458 030c 44050000 		.word	.L29
 459 0310 44050000 		.word	.L29
 460 0314 2C030000 		.word	.L37
 461 0318 44050000 		.word	.L29
 462 031c 5C050000 		.word	.L33
 463 0320 44050000 		.word	.L29
 464 0324 44050000 		.word	.L29
 465 0328 FC050000 		.word	.L70
 466              	.LVL53:
 467              	.L37:
 468              		.loc 1 190 0
 469 032c 14309DE5 		ldr	r3, [sp, #20]
 470              		.loc 1 191 0
 471 0330 4C139FE5 		ldr	r1, .L109
 472              	.LVL54:
 473              		.loc 1 190 0
 474 0334 00A093E5 		ldr	r10, [r3]
 475              	.LVL55:
 476 0338 043083E2 		add	r3, r3, #4
 477              		.loc 1 191 0
 478 033c 00005AE3 		cmp	r10, #0
 479 0340 01A0A001 		moveq	r10, r1
 480              	.LVL56:
 481              		.loc 1 192 0
 482 0344 000052E3 		cmp	r2, #0
 483              		.loc 1 190 0
 484 0348 14308DE5 		str	r3, [sp, #20]
 485              		.loc 1 194 0
 486 034c 0030DAE5 		ldrb	r3, [r10]	@ zero_extendqisi2
 487              		.loc 1 192 0
 488 0350 B600000A 		beq	.L40
 489              	.LVL57:
 490              		.loc 1 194 0 discriminator 1
 491 0354 000053E3 		cmp	r3, #0
 492 0358 B700000A 		beq	.L41
 493              		.loc 1 194 0 is_stmt 0
 494 035c 012042E2 		sub	r2, r2, #1
 495              	.LVL58:
 496              	.L62:
 497              		.loc 1 194 0 discriminator 4
 498 0360 0A00A0E1 		mov	r0, r10
 499 0364 010000EA 		b	.L43
 500              	.LVL59:
 501              	.L106:
 502              		.loc 1 194 0 discriminator 3
 503 0368 010072E3 		cmn	r2, #1
 504 036c 0300000A 		beq	.L99
 505              	.LVL60:
 506              	.L43:
 507              		.loc 1 194 0 discriminator 4
 508 0370 0130F0E5 		ldrb	r3, [r0, #1]!	@ zero_extendqisi2
 509              	.LVL61:
 510 0374 012042E2 		sub	r2, r2, #1
 511              	.LVL62:
 512 0378 000053E3 		cmp	r3, #0
 513 037c F9FFFF1A 		bne	.L106
ARM GAS  /tmp/cckkBObn.s 			page 10


 514              	.L99:
 515 0380 00006AE0 		rsb	r0, r10, r0
 516              	.LVL63:
 517              		.loc 1 242 0 is_stmt 1
 518 0384 044060E0 		rsb	r4, r0, r4
 519              	.LVL64:
 520              		.loc 1 244 0
 521 0388 000059E3 		cmp	r9, #0
 522 038c 013040E2 		sub	r3, r0, #1
 523              		.loc 1 189 0
 524 0390 2070A0E3 		mov	r7, #32
 525              	.LVL65:
 526 0394 C44FC4E1 		bic	r4, r4, r4, asr #31
 527              	.LVL66:
 528              		.loc 1 244 0
 529 0398 4500000A 		beq	.L107
 530              	.LVL67:
 531              	.L52:
 532              		.loc 1 255 0
 533 039c 009053E2 		subs	r9, r3, #0
 534              	.LVL68:
 535 03a0 540000AA 		bge	.L58
 536              	.LVL69:
 537              	.L57:
 538              		.loc 1 258 0
 539 03a4 000054E3 		cmp	r4, #0
 540 03a8 1EFFFF0A 		beq	.L14
 541              	.L59:
 542              		.loc 1 259 0
 543 03ac 003096E5 		ldr	r3, [r6]
 544 03b0 0600A0E1 		mov	r0, r6
 545 03b4 083093E5 		ldr	r3, [r3, #8]
 546 03b8 0710A0E1 		mov	r1, r7
 547 03bc 33FF2FE1 		blx	r3
 548              	.LVL70:
 549              		.loc 1 258 0
 550 03c0 014054E2 		subs	r4, r4, #1
 551              	.LVL71:
 552 03c4 F8FFFF1A 		bne	.L59
 553 03c8 16FFFFEA 		b	.L14
 554              	.LVL72:
 555              	.L36:
 556              		.loc 1 211 0
 557 03cc 14309DE5 		ldr	r3, [sp, #20]
 558 03d0 073083E2 		add	r3, r3, #7
 559 03d4 0730C3E3 		bic	r3, r3, #7
 560 03d8 082083E2 		add	r2, r3, #8
 561              	.LVL73:
 562 03dc D000C3E1 		ldrd	r0, [r3]
 563 03e0 14208DE5 		str	r2, [sp, #20]
 564 03e4 FEFFFFEB 		bl	__aeabi_d2f
 565              	.LVL74:
 566              		.loc 1 212 0
 567 03e8 0010A0E3 		mov	r1, #0
 568              		.loc 1 211 0
 569 03ec 00A0A0E1 		mov	r10, r0
 570              	.LVL75:
ARM GAS  /tmp/cckkBObn.s 			page 11


 571              		.loc 1 212 0
 572 03f0 FEFFFFEB 		bl	__aeabi_fcmplt
 573              	.LVL76:
 574 03f4 000050E3 		cmp	r0, #0
 575              	.LVL77:
 576              		.loc 1 213 0
 577 03f8 2D30A013 		movne	r3, #45
 578              		.loc 1 136 0
 579 03fc 0830A001 		moveq	r3, r8
 580              		.loc 1 214 0
 581 0400 02A18A12 		addne	r10, r10, #-2147483648
 582              	.LVL78:
 583              		.loc 1 213 0
 584 0404 1830CD15 		strneb	r3, [sp, #24]
 585              	.LBB12:
 586              	.LBB13:
 587              		.loc 1 83 0
 588 0408 0A00A0E1 		mov	r0, r10
 589              	.LBE13:
 590              	.LBE12:
 591              		.loc 1 213 0
 592 040c 19308D12 		addne	r3, sp, #25
 593 0410 08308DE5 		str	r3, [sp, #8]
 594              	.LVL79:
 595              	.LBB17:
 596              	.LBB14:
 597              		.loc 1 83 0
 598 0414 FEFFFFEB 		bl	__aeabi_f2iz
 599              	.LVL80:
 600 0418 0020A0E1 		mov	r2, r0
 601              	.LVL81:
 602              		.loc 1 84 0
 603 041c 08309DE5 		ldr	r3, [sp, #8]
 604 0420 0210A0E1 		mov	r1, r2
 605 0424 0300A0E1 		mov	r0, r3
 606              	.LVL82:
 607 0428 08208DE5 		str	r2, [sp, #8]
 608 042c 0030A0E3 		mov	r3, #0
 609 0430 0A20A0E3 		mov	r2, #10
 610 0434 FEFFFFEB 		bl	long_to_string_with_divisor
 611              	.LVL83:
 612              		.loc 1 85 0
 613 0438 2E30A0E3 		mov	r3, #46
 614 043c 00C0A0E1 		mov	ip, r0
 615              	.LBE14:
 616              	.LBE17:
 617              		.loc 1 216 0
 618 0440 0A00A0E1 		mov	r0, r10
 619              	.LVL84:
 620              	.LBB18:
 621              	.LBB15:
 622              		.loc 1 85 0
 623 0444 0130CCE4 		strb	r3, [ip], #1
 624              	.LVL85:
 625 0448 0CC08DE5 		str	ip, [sp, #12]
 626 044c 00C08DE5 		str	ip, [sp]
 627              	.LBE15:
ARM GAS  /tmp/cckkBObn.s 			page 12


 628              	.LBE18:
 629              		.loc 1 216 0
 630 0450 FEFFFFEB 		bl	__aeabi_f2d
 631              	.LVL86:
 632 0454 F000CDE1 		strd	r0, [sp]
 633              	.LVL87:
 634              	.LBB19:
 635              	.LBB16:
 636              		.loc 1 86 0
 637 0458 08009DE5 		ldr	r0, [sp, #8]
 638 045c FEFFFFEB 		bl	__aeabi_i2d
 639              	.LVL88:
 640 0460 0020A0E1 		mov	r2, r0
 641 0464 0130A0E1 		mov	r3, r1
 642 0468 D000CDE1 		ldrd	r0, [sp]
 643 046c FEFFFFEB 		bl	__aeabi_dsub
 644              	.LVL89:
 645 0470 0020A0E3 		mov	r2, #0
 646 0474 0C329FE5 		ldr	r3, .L109+4
 647 0478 FEFFFFEB 		bl	__aeabi_dmul
 648              	.LVL90:
 649 047c FEFFFFEB 		bl	__aeabi_d2iz
 650              	.LVL91:
 651              		.loc 1 87 0
 652 0480 0CC09DE5 		ldr	ip, [sp, #12]
 653              		.loc 1 86 0
 654 0484 0010A0E1 		mov	r1, r0
 655              		.loc 1 87 0
 656 0488 FC319FE5 		ldr	r3, .L109+8
 657 048c 0C00A0E1 		mov	r0, ip
 658 0490 0A20A0E3 		mov	r2, #10
 659 0494 FEFFFFEB 		bl	long_to_string_with_divisor
 660              	.LVL92:
 661              	.LBE16:
 662              	.LBE19:
 663              		.loc 1 137 0
 664 0498 08A0A0E1 		mov	r10, r8
 665              	.LVL93:
 666 049c 000068E0 		rsb	r0, r8, r0
 667 04a0 013040E2 		sub	r3, r0, #1
 668              	.LVL94:
 669              	.L38:
 670              		.loc 1 242 0
 671 04a4 044060E0 		rsb	r4, r0, r4
 672              	.LVL95:
 673              		.loc 1 244 0
 674 04a8 000059E3 		cmp	r9, #0
 675 04ac C44FC4E1 		bic	r4, r4, r4, asr #31
 676              	.LVL96:
 677 04b0 B9FFFF1A 		bne	.L52
 678              	.LVL97:
 679              	.L107:
 680              		.loc 1 245 0
 681 04b4 004064E2 		rsb	r4, r4, #0
 682              	.LVL98:
 683              		.loc 1 246 0
 684 04b8 000054E3 		cmp	r4, #0
ARM GAS  /tmp/cckkBObn.s 			page 13


 685 04bc 4B00000A 		beq	.L73
 686              		.loc 1 247 0
 687 04c0 0020DAE5 		ldrb	r2, [r10]	@ zero_extendqisi2
 688 04c4 2D0052E3 		cmp	r2, #45
 689 04c8 30005703 		cmpeq	r7, #48
 690 04cc 0390A011 		movne	r9, r3
 691              	.LVL99:
 692 04d0 6300000A 		beq	.L108
 693              	.LVL100:
 694              	.L55:
 695              		.loc 1 252 0 discriminator 1
 696 04d4 003096E5 		ldr	r3, [r6]
 697 04d8 0600A0E1 		mov	r0, r6
 698 04dc 083093E5 		ldr	r3, [r3, #8]
 699 04e0 0710A0E1 		mov	r1, r7
 700 04e4 33FF2FE1 		blx	r3
 701              	.LVL101:
 702              		.loc 1 253 0 discriminator 1
 703 04e8 014094E2 		adds	r4, r4, #1
 704              	.LVL102:
 705 04ec F8FFFF1A 		bne	.L55
 706              	.LVL103:
 707              		.loc 1 255 0
 708 04f0 000059E3 		cmp	r9, #0
 709 04f4 CBFEFFBA 		blt	.L14
 710              	.LVL104:
 711              	.L58:
 712              		.loc 1 256 0
 713 04f8 003096E5 		ldr	r3, [r6]
 714              		.loc 1 255 0
 715 04fc 019049E2 		sub	r9, r9, #1
 716              	.LVL105:
 717              		.loc 1 256 0
 718 0500 083093E5 		ldr	r3, [r3, #8]
 719 0504 0600A0E1 		mov	r0, r6
 720 0508 0110DAE4 		ldrb	r1, [r10], #1	@ zero_extendqisi2
 721              	.LVL106:
 722 050c 33FF2FE1 		blx	r3
 723              	.LVL107:
 724              		.loc 1 255 0
 725 0510 010079E3 		cmn	r9, #1
 726 0514 F7FFFF1A 		bne	.L58
 727 0518 A1FFFFEA 		b	.L57
 728              	.LVL108:
 729              	.L35:
 730              		.loc 1 186 0
 731 051c 14309DE5 		ldr	r3, [sp, #20]
 732 0520 0B00A0E1 		mov	r0, fp
 733 0524 002093E5 		ldr	r2, [r3]
 734              	.LVL109:
 735 0528 043083E2 		add	r3, r3, #4
 736 052c 14308DE5 		str	r3, [sp, #20]
 737 0530 1820CDE5 		strb	r2, [sp, #24]
 738 0534 01304BE2 		sub	r3, fp, #1
 739              		.loc 1 185 0
 740 0538 2070A0E3 		mov	r7, #32
 741              		.loc 1 137 0
ARM GAS  /tmp/cckkBObn.s 			page 14


 742 053c 08A0A0E1 		mov	r10, r8
 743              		.loc 1 187 0
 744 0540 D7FFFFEA 		b	.L38
 745              	.LVL110:
 746              	.L29:
 747 0544 0B00A0E1 		mov	r0, fp
 748              		.loc 1 137 0
 749 0548 08A0A0E1 		mov	r10, r8
 750              		.loc 1 238 0
 751 054c 1810CDE5 		strb	r1, [sp, #24]
 752 0550 01304BE2 		sub	r3, fp, #1
 753              		.loc 1 239 0
 754 0554 D2FFFFEA 		b	.L38
 755              	.LVL111:
 756              	.L76:
 757              		.loc 1 183 0
 758 0558 01C0A0E3 		mov	ip, #1
 759              	.LVL112:
 760              	.L33:
 761              		.loc 1 226 0
 762 055c 0A20A0E3 		mov	r2, #10
 763              	.LVL113:
 764              	.L34:
 765              		.loc 1 231 0
 766 0560 00005CE3 		cmp	ip, #0
 767 0564 0E00001A 		bne	.L65
 768              	.L50:
 769              		.loc 1 234 0
 770 0568 14309DE5 		ldr	r3, [sp, #20]
 771 056c 040083E2 		add	r0, r3, #4
 772 0570 001093E5 		ldr	r1, [r3]
 773              	.LVL114:
 774 0574 14008DE5 		str	r0, [sp, #20]
 775              	.L51:
 776              	.LVL115:
 777              	.LBB20:
 778              	.LBB21:
 779              		.loc 1 75 0
 780 0578 0800A0E1 		mov	r0, r8
 781              	.LVL116:
 782              	.L100:
 783 057c 0030A0E3 		mov	r3, #0
 784 0580 FEFFFFEB 		bl	long_to_string_with_divisor
 785              	.LVL117:
 786 0584 000068E0 		rsb	r0, r8, r0
 787 0588 013040E2 		sub	r3, r0, #1
 788              	.LBE21:
 789              	.LBE20:
 790              		.loc 1 137 0
 791 058c 08A0A0E1 		mov	r10, r8
 792              		.loc 1 236 0
 793 0590 C3FFFFEA 		b	.L38
 794              	.LVL118:
 795              	.L75:
 796              		.loc 1 183 0
 797 0594 01C0A0E3 		mov	ip, #1
 798              	.LVL119:
ARM GAS  /tmp/cckkBObn.s 			page 15


 799              	.L32:
 800              		.loc 1 231 0
 801 0598 00005CE3 		cmp	ip, #0
 802 059c 0820A0E3 		mov	r2, #8
 803              	.LVL120:
 804 05a0 F0FFFF0A 		beq	.L50
 805              	.L65:
 806              		.loc 1 232 0
 807 05a4 14309DE5 		ldr	r3, [sp, #20]
 808 05a8 041083E2 		add	r1, r3, #4
 809 05ac 14108DE5 		str	r1, [sp, #20]
 810 05b0 001093E5 		ldr	r1, [r3]
 811              	.LVL121:
 812 05b4 EFFFFFEA 		b	.L51
 813              	.LVL122:
 814              	.L30:
 815              		.loc 1 199 0
 816 05b8 000053E3 		cmp	r3, #0
 817 05bc 1600000A 		beq	.L44
 818              	.LVL123:
 819              	.L45:
 820              		.loc 1 200 0
 821 05c0 14309DE5 		ldr	r3, [sp, #20]
 822 05c4 042083E2 		add	r2, r3, #4
 823              	.LVL124:
 824 05c8 001093E5 		ldr	r1, [r3]
 825              	.LVL125:
 826 05cc 14208DE5 		str	r2, [sp, #20]
 827              	.L46:
 828              		.loc 1 203 0
 829 05d0 000051E3 		cmp	r1, #0
 830              	.LVL126:
 831              		.loc 1 204 0
 832 05d4 2D30A0B3 		movlt	r3, #45
 833              		.loc 1 205 0
 834 05d8 001061B2 		rsblt	r1, r1, #0
 835              	.LVL127:
 836              		.loc 1 204 0
 837 05dc 1830CDB5 		strltb	r3, [sp, #24]
 838 05e0 19008DB2 		addlt	r0, sp, #25
 839              		.loc 1 136 0
 840 05e4 0800A0A1 		movge	r0, r8
 841              	.LVL128:
 842              	.LBB22:
 843              	.LBB23:
 844              		.loc 1 75 0
 845 05e8 0A20A0E3 		mov	r2, #10
 846 05ec E2FFFFEA 		b	.L100
 847              	.LVL129:
 848              	.L73:
 849              	.LBE23:
 850              	.LBE22:
 851              		.loc 1 255 0
 852 05f0 009053E2 		subs	r9, r3, #0
 853              	.LVL130:
 854 05f4 BFFFFFAA 		bge	.L58
 855 05f8 8AFEFFEA 		b	.L14
ARM GAS  /tmp/cckkBObn.s 			page 16


 856              	.LVL131:
 857              	.L70:
 858              		.loc 1 183 0
 859 05fc 1020A0E3 		mov	r2, #16
 860              	.LVL132:
 861 0600 D6FFFFEA 		b	.L34
 862              	.LVL133:
 863              	.L61:
 864              		.loc 1 232 0
 865 0604 14309DE5 		ldr	r3, [sp, #20]
 866              		.loc 1 183 0
 867 0608 1020A0E3 		mov	r2, #16
 868              	.LVL134:
 869              		.loc 1 232 0
 870 060c 041083E2 		add	r1, r3, #4
 871 0610 14108DE5 		str	r1, [sp, #20]
 872 0614 001093E5 		ldr	r1, [r3]
 873              	.LVL135:
 874 0618 D6FFFFEA 		b	.L51
 875              	.LVL136:
 876              	.L44:
 877              		.loc 1 202 0
 878 061c 14309DE5 		ldr	r3, [sp, #20]
 879              	.LVL137:
 880 0620 042083E2 		add	r2, r3, #4
 881              	.LVL138:
 882 0624 001093E5 		ldr	r1, [r3]
 883              	.LVL139:
 884 0628 14208DE5 		str	r2, [sp, #20]
 885 062c E7FFFFEA 		b	.L46
 886              	.LVL140:
 887              	.L40:
 888              		.loc 1 194 0
 889 0630 000053E3 		cmp	r3, #0
 890 0634 54209F15 		ldrne	r2, .L109+12
 891 0638 48FFFF1A 		bne	.L62
 892              	.LVL141:
 893              	.L41:
 894              		.loc 1 244 0
 895 063c 000059E3 		cmp	r9, #0
 896 0640 C44FC4E1 		bic	r4, r4, r4, asr #31
 897              	.LVL142:
 898 0644 2070A013 		movne	r7, #32
 899 0648 55FFFF1A 		bne	.L57
 900              		.loc 1 245 0
 901 064c 004064E2 		rsb	r4, r4, #0
 902              	.LVL143:
 903              		.loc 1 246 0
 904 0650 000054E3 		cmp	r4, #0
 905              		.loc 1 244 0
 906 0654 2070A0E3 		mov	r7, #32
 907              		.loc 1 246 0
 908 0658 0090E013 		mvnne	r9, #0
 909              	.LVL144:
 910 065c 9CFFFF1A 		bne	.L55
 911 0660 70FEFFEA 		b	.L14
 912              	.LVL145:
ARM GAS  /tmp/cckkBObn.s 			page 17


 913              	.L108:
 914              		.loc 1 248 0
 915 0664 002096E5 		ldr	r2, [r6]
 916 0668 0600A0E1 		mov	r0, r6
 917              	.LVL146:
 918 066c 082092E5 		ldr	r2, [r2, #8]
 919 0670 2D10A0E3 		mov	r1, #45
 920 0674 01A08AE2 		add	r10, r10, #1
 921              	.LVL147:
 922 0678 019043E2 		sub	r9, r3, #1
 923 067c 32FF2FE1 		blx	r2
 924              	.LVL148:
 925 0680 93FFFFEA 		b	.L55
 926              	.L110:
 927              		.align	2
 928              	.L109:
 929 0684 00000000 		.word	.LC0
 930 0688 006AF840 		.word	1090021888
 931 068c 10270000 		.word	10000
 932 0690 FE7F0000 		.word	32766
 933              		.cfi_endproc
 934              	.LFE10:
 935              		.size	chprintf, .-chprintf
 936              		.section	.rodata.str1.4,"aMS",%progbits,1
 937              		.align	2
 938              	.LC0:
 939 0000 286E756C 		.ascii	"(null)\000"
 939      6C2900
 940              		.text
 941              	.Letext0:
 942              		.file 2 "/usr/lib/gcc/arm-none-eabi/4.9.3/include/stdarg.h"
 943              		.file 3 "/usr/lib/gcc/arm-none-eabi/4.9.3/include/stddef.h"
 944              		.file 4 "/usr/include/newlib/machine/_default_types.h"
 945              		.file 5 "/usr/include/newlib/sys/_stdint.h"
 946              		.file 6 "../../os/ports/GCC/ARM/chtypes.h"
 947              		.file 7 "<built-in>"
 948              		.file 8 "../../os/kernel/include/chstreams.h"