ARM GAS  /tmp/cconxEuC.s 			page 1


   1              		.cpu arm1176jz-s
   2              		.fpu softvfp
   3              		.eabi_attribute 20, 1
   4              		.eabi_attribute 21, 1
   5              		.eabi_attribute 23, 3
   6              		.eabi_attribute 24, 1
   7              		.eabi_attribute 25, 1
   8              		.eabi_attribute 26, 1
   9              		.eabi_attribute 30, 2
  10              		.eabi_attribute 34, 1
  11              		.eabi_attribute 18, 4
  12              		.file	"chqueues.c"
  13              		.text
  14              	.Ltext0:
  15              		.cfi_sections	.debug_frame
  16              		.section	.text.qwait,"ax",%progbits
  17              		.align	2
  18              		.type	qwait, %function
  19              	qwait:
  20              	.LFB7:
  21              		.file 1 "../../os/kernel/src/chqueues.c"
  22              		.loc 1 63 0
  23              		.cfi_startproc
  24              		@ args = 0, pretend = 0, frame = 0
  25              		@ frame_needed = 0, uses_anonymous_args = 0
  26              		@ link register save eliminated.
  27              	.LVL0:
  28              		.loc 1 65 0
  29 0000 000051E3 		cmp	r1, #0
  30              		.loc 1 63 0
  31 0004 0020A0E1 		mov	r2, r0
  32              		.loc 1 65 0
  33 0008 0800000A 		beq	.L2
  34              		.loc 1 67 0
  35 000c 24309FE5 		ldr	r3, .L4
  36              		.loc 1 69 0
  37 0010 0D00A0E3 		mov	r0, #13
  38              	.LVL1:
  39              		.loc 1 67 0
  40 0014 183093E5 		ldr	r3, [r3, #24]
  41 0018 242083E5 		str	r2, [r3, #36]
  42              	.LVL2:
  43              	.LBB12:
  44              	.LBB13:
  45              		.file 2 "../../os/kernel/include/chinline.h"
  46              		.loc 2 48 0
  47 001c 04C092E5 		ldr	ip, [r2, #4]
  48 0020 041083E8 		stmia	r3, {r2, ip}
  49              		.loc 2 49 0
  50 0024 043082E5 		str	r3, [r2, #4]
  51 0028 00308CE5 		str	r3, [ip]
  52              	.LBE13:
  53              	.LBE12:
  54              		.loc 1 69 0
  55 002c FEFFFFEA 		b	chSchGoSleepTimeoutS
  56              	.LVL3:
  57              	.L2:
ARM GAS  /tmp/cconxEuC.s 			page 2


  58              		.loc 1 70 0
  59 0030 0000E0E3 		mvn	r0, #0
  60              	.LVL4:
  61 0034 1EFF2FE1 		bx	lr
  62              	.L5:
  63              		.align	2
  64              	.L4:
  65 0038 00000000 		.word	rlist
  66              		.cfi_endproc
  67              	.LFE7:
  68              		.size	qwait, .-qwait
  69              		.section	.text.chIQInit,"ax",%progbits
  70              		.align	2
  71              		.global	chIQInit
  72              		.type	chIQInit, %function
  73              	chIQInit:
  74              	.LFB8:
  75              		.loc 1 89 0
  76              		.cfi_startproc
  77              		@ args = 4, pretend = 0, frame = 0
  78              		@ frame_needed = 0, uses_anonymous_args = 0
  79              	.LVL5:
  80 0000 04E02DE5 		str	lr, [sp, #-4]!
  81              		.cfi_def_cfa_offset 4
  82              		.cfi_offset 14, -4
  83              		.loc 1 92 0
  84 0004 00E0A0E3 		mov	lr, #0
  85              		.loc 1 89 0
  86 0008 04C09DE5 		ldr	ip, [sp, #4]
  87              		.loc 1 94 0
  88 000c 022081E0 		add	r2, r1, r2
  89              	.LVL6:
  90 0010 102080E5 		str	r2, [r0, #16]
  91              		.loc 1 91 0
  92 0014 040080E5 		str	r0, [r0, #4]
  93 0018 000080E5 		str	r0, [r0]
  94              		.loc 1 93 0
  95 001c 141080E5 		str	r1, [r0, #20]
  96 0020 181080E5 		str	r1, [r0, #24]
  97 0024 0C1080E5 		str	r1, [r0, #12]
  98              		.loc 1 95 0
  99 0028 1C3080E5 		str	r3, [r0, #28]
 100              		.loc 1 92 0
 101 002c 08E080E5 		str	lr, [r0, #8]
 102              		.loc 1 96 0
 103 0030 20C080E5 		str	ip, [r0, #32]
 104 0034 04F09DE4 		ldr	pc, [sp], #4
 105              		.cfi_endproc
 106              	.LFE8:
 107              		.size	chIQInit, .-chIQInit
 108              		.section	.text.chIQResetI,"ax",%progbits
 109              		.align	2
 110              		.global	chIQResetI
 111              		.type	chIQResetI, %function
 112              	chIQResetI:
 113              	.LFB9:
 114              		.loc 1 110 0
ARM GAS  /tmp/cconxEuC.s 			page 3


 115              		.cfi_startproc
 116              		@ args = 0, pretend = 0, frame = 0
 117              		@ frame_needed = 0, uses_anonymous_args = 0
 118              	.LVL7:
 119 0000 38402DE9 		stmfd	sp!, {r3, r4, r5, lr}
 120              		.cfi_def_cfa_offset 16
 121              		.cfi_offset 3, -16
 122              		.cfi_offset 4, -12
 123              		.cfi_offset 5, -8
 124              		.cfi_offset 14, -4
 125              		.loc 1 110 0
 126 0004 0040A0E1 		mov	r4, r0
 127              		.loc 1 115 0
 128 0008 0020A0E3 		mov	r2, #0
 129              		.loc 1 116 0
 130 000c 000090E5 		ldr	r0, [r0]
 131              	.LVL8:
 132              		.loc 1 114 0
 133 0010 0C3094E5 		ldr	r3, [r4, #12]
 134              		.loc 1 116 0
 135 0014 040050E1 		cmp	r0, r4
 136              		.loc 1 115 0
 137 0018 082084E5 		str	r2, [r4, #8]
 138              		.loc 1 114 0
 139 001c 143084E5 		str	r3, [r4, #20]
 140 0020 183084E5 		str	r3, [r4, #24]
 141              		.loc 1 116 0
 142 0024 3880BD08 		ldmeqfd	sp!, {r3, r4, r5, pc}
 143              		.loc 1 117 0
 144 0028 0150E0E3 		mvn	r5, #1
 145              	.L10:
 146              	.LVL9:
 147              	.LBB14:
 148              	.LBB15:
 149              		.loc 2 55 0
 150 002c 003090E5 		ldr	r3, [r0]
 151 0030 003084E5 		str	r3, [r4]
 152 0034 044083E5 		str	r4, [r3, #4]
 153              	.LBE15:
 154              	.LBE14:
 155              		.loc 1 117 0
 156 0038 FEFFFFEB 		bl	chSchReadyI
 157              	.LVL10:
 158 003c 245080E5 		str	r5, [r0, #36]
 159              		.loc 1 116 0
 160 0040 000094E5 		ldr	r0, [r4]
 161 0044 040050E1 		cmp	r0, r4
 162 0048 F7FFFF1A 		bne	.L10
 163 004c 3880BDE8 		ldmfd	sp!, {r3, r4, r5, pc}
 164              		.cfi_endproc
 165              	.LFE9:
 166              		.size	chIQResetI, .-chIQResetI
 167              		.section	.text.chIQPutI,"ax",%progbits
 168              		.align	2
 169              		.global	chIQPutI
 170              		.type	chIQPutI, %function
 171              	chIQPutI:
ARM GAS  /tmp/cconxEuC.s 			page 4


 172              	.LFB10:
 173              		.loc 1 133 0
 174              		.cfi_startproc
 175              		@ args = 0, pretend = 0, frame = 0
 176              		@ frame_needed = 0, uses_anonymous_args = 0
 177              	.LVL11:
 178 0000 08402DE9 		stmfd	sp!, {r3, lr}
 179              		.cfi_def_cfa_offset 8
 180              		.cfi_offset 3, -8
 181              		.cfi_offset 14, -4
 182              		.loc 1 133 0
 183 0004 0030A0E1 		mov	r3, r0
 184              		.loc 1 137 0
 185 0008 140090E5 		ldr	r0, [r0, #20]
 186              	.LVL12:
 187 000c 182093E5 		ldr	r2, [r3, #24]
 188 0010 020050E1 		cmp	r0, r2
 189 0014 082093E5 		ldr	r2, [r3, #8]
 190 0018 1600000A 		beq	.L22
 191              	.L16:
 192              		.loc 1 140 0
 193 001c 012082E2 		add	r2, r2, #1
 194              		.loc 1 141 0
 195 0020 01C080E2 		add	ip, r0, #1
 196 0024 14C083E5 		str	ip, [r3, #20]
 197              		.loc 1 140 0
 198 0028 082083E5 		str	r2, [r3, #8]
 199              		.loc 1 141 0
 200 002c 0010C0E5 		strb	r1, [r0]
 201              		.loc 1 142 0
 202 0030 102093E5 		ldr	r2, [r3, #16]
 203 0034 141093E5 		ldr	r1, [r3, #20]
 204              	.LVL13:
 205              		.loc 1 145 0
 206 0038 000093E5 		ldr	r0, [r3]
 207              	.LVL14:
 208              		.loc 1 142 0
 209 003c 020051E1 		cmp	r1, r2
 210              		.loc 1 143 0
 211 0040 0C209325 		ldrcs	r2, [r3, #12]
 212 0044 14208325 		strcs	r2, [r3, #20]
 213              	.LVL15:
 214              		.loc 1 145 0
 215 0048 030050E1 		cmp	r0, r3
 216 004c 0700000A 		beq	.L20
 217              	.LVL16:
 218              	.LBB16:
 219              	.LBB17:
 220              		.loc 2 55 0
 221 0050 002090E5 		ldr	r2, [r0]
 222 0054 002083E5 		str	r2, [r3]
 223 0058 043082E5 		str	r3, [r2, #4]
 224              	.LBE17:
 225              	.LBE16:
 226              		.loc 1 146 0
 227 005c FEFFFFEB 		bl	chSchReadyI
 228              	.LVL17:
ARM GAS  /tmp/cconxEuC.s 			page 5


 229 0060 0030A0E3 		mov	r3, #0
 230 0064 243080E5 		str	r3, [r0, #36]
 231              		.loc 1 148 0
 232 0068 0300A0E1 		mov	r0, r3
 233 006c 0880BDE8 		ldmfd	sp!, {r3, pc}
 234              	.LVL18:
 235              	.L20:
 236 0070 0000A0E3 		mov	r0, #0
 237              		.loc 1 149 0
 238 0074 0880BDE8 		ldmfd	sp!, {r3, pc}
 239              	.LVL19:
 240              	.L22:
 241              		.loc 1 137 0 discriminator 1
 242 0078 000052E3 		cmp	r2, #0
 243 007c E6FFFF0A 		beq	.L16
 244              		.loc 1 138 0
 245 0080 0300E0E3 		mvn	r0, #3
 246 0084 0880BDE8 		ldmfd	sp!, {r3, pc}
 247              		.cfi_endproc
 248              	.LFE10:
 249              		.size	chIQPutI, .-chIQPutI
 250              		.section	.text.chIQGetTimeout,"ax",%progbits
 251              		.align	2
 252              		.global	chIQGetTimeout
 253              		.type	chIQGetTimeout, %function
 254              	chIQGetTimeout:
 255              	.LFB11:
 256              		.loc 1 171 0
 257              		.cfi_startproc
 258              		@ args = 0, pretend = 0, frame = 0
 259              		@ frame_needed = 0, uses_anonymous_args = 0
 260              	.LVL20:
 261 0000 38402DE9 		stmfd	sp!, {r3, r4, r5, lr}
 262              		.cfi_def_cfa_offset 16
 263              		.cfi_offset 3, -16
 264              		.cfi_offset 4, -12
 265              		.cfi_offset 5, -8
 266              		.cfi_offset 14, -4
 267              		.loc 1 171 0
 268 0004 0150A0E1 		mov	r5, r1
 269 0008 0040A0E1 		mov	r4, r0
 270              		.loc 1 174 0
 271              	@ 174 "../../os/kernel/src/chqueues.c" 1
 272 000c 9FF021E3 		msr     CPSR_c, #0x9F
 273              	@ 0 "" 2
 274              		.loc 1 175 0
 275 0010 1C3090E5 		ldr	r3, [r0, #28]
 276 0014 000053E3 		cmp	r3, #0
 277 0018 0600000A 		beq	.L25
 278              		.loc 1 176 0
 279 001c 33FF2FE1 		blx	r3
 280              	.LVL21:
 281 0020 040000EA 		b	.L25
 282              	.L27:
 283              	.LBB18:
 284              		.loc 1 180 0
 285 0024 0400A0E1 		mov	r0, r4
ARM GAS  /tmp/cconxEuC.s 			page 6


 286 0028 0510A0E1 		mov	r1, r5
 287 002c FEFFFFEB 		bl	qwait
 288              	.LVL22:
 289 0030 000050E3 		cmp	r0, #0
 290 0034 0C0000BA 		blt	.L28
 291              	.LVL23:
 292              	.L25:
 293              	.LBE18:
 294              		.loc 1 178 0
 295 0038 083094E5 		ldr	r3, [r4, #8]
 296 003c 000053E3 		cmp	r3, #0
 297 0040 F7FFFF0A 		beq	.L27
 298              		.loc 1 187 0
 299 0044 182094E5 		ldr	r2, [r4, #24]
 300              		.loc 1 188 0
 301 0048 100094E5 		ldr	r0, [r4, #16]
 302              		.loc 1 187 0
 303 004c 011082E2 		add	r1, r2, #1
 304              		.loc 1 186 0
 305 0050 013043E2 		sub	r3, r3, #1
 306              		.loc 1 188 0
 307 0054 000051E1 		cmp	r1, r0
 308              		.loc 1 186 0
 309 0058 083084E5 		str	r3, [r4, #8]
 310              		.loc 1 189 0
 311 005c 0C309425 		ldrcs	r3, [r4, #12]
 312              		.loc 1 187 0
 313 0060 181084E5 		str	r1, [r4, #24]
 314 0064 0000D2E5 		ldrb	r0, [r2]	@ zero_extendqisi2
 315              	.LVL24:
 316              		.loc 1 189 0
 317 0068 18308425 		strcs	r3, [r4, #24]
 318              	.LVL25:
 319              	.L28:
 320              		.loc 1 191 0
 321              	@ 191 "../../os/kernel/src/chqueues.c" 1
 322 006c 1FF021E3 		msr     CPSR_c, #0x1F
 323              	@ 0 "" 2
 324              		.loc 1 193 0
 325 0070 3880BDE8 		ldmfd	sp!, {r3, r4, r5, pc}
 326              		.cfi_endproc
 327              	.LFE11:
 328              		.size	chIQGetTimeout, .-chIQGetTimeout
 329              		.section	.text.chIQReadTimeout,"ax",%progbits
 330              		.align	2
 331              		.global	chIQReadTimeout
 332              		.type	chIQReadTimeout, %function
 333              	chIQReadTimeout:
 334              	.LFB12:
 335              		.loc 1 220 0
 336              		.cfi_startproc
 337              		@ args = 0, pretend = 0, frame = 0
 338              		@ frame_needed = 0, uses_anonymous_args = 0
 339              	.LVL26:
 340 0000 F8432DE9 		stmfd	sp!, {r3, r4, r5, r6, r7, r8, r9, lr}
 341              		.cfi_def_cfa_offset 32
 342              		.cfi_offset 3, -32
ARM GAS  /tmp/cconxEuC.s 			page 7


 343              		.cfi_offset 4, -28
 344              		.cfi_offset 5, -24
 345              		.cfi_offset 6, -20
 346              		.cfi_offset 7, -16
 347              		.cfi_offset 8, -12
 348              		.cfi_offset 9, -8
 349              		.cfi_offset 14, -4
 350              		.loc 1 220 0
 351 0004 0040A0E1 		mov	r4, r0
 352 0008 0180A0E1 		mov	r8, r1
 353 000c 0290A0E1 		mov	r9, r2
 354 0010 0350A0E1 		mov	r5, r3
 355              		.loc 1 221 0
 356 0014 1C7090E5 		ldr	r7, [r0, #28]
 357              	.LVL27:
 358              		.loc 1 226 0
 359              	@ 226 "../../os/kernel/src/chqueues.c" 1
 360 0018 9FF021E3 		msr     CPSR_c, #0x9F
 361              	@ 0 "" 2
 362              		.loc 1 222 0
 363 001c 0060A0E3 		mov	r6, #0
 364              	.LVL28:
 365              	.L40:
 366              		.loc 1 228 0
 367 0020 000057E3 		cmp	r7, #0
 368 0024 0700000A 		beq	.L36
 369              		.loc 1 229 0
 370 0028 0400A0E1 		mov	r0, r4
 371 002c 37FF2FE1 		blx	r7
 372              	.LVL29:
 373 0030 040000EA 		b	.L36
 374              	.L38:
 375              		.loc 1 232 0
 376 0034 0400A0E1 		mov	r0, r4
 377 0038 0510A0E1 		mov	r1, r5
 378 003c FEFFFFEB 		bl	qwait
 379              	.LVL30:
 380 0040 000050E3 		cmp	r0, #0
 381 0044 1400001A 		bne	.L47
 382              	.L36:
 383              		.loc 1 231 0
 384 0048 083094E5 		ldr	r3, [r4, #8]
 385 004c 000053E3 		cmp	r3, #0
 386 0050 F7FFFF0A 		beq	.L38
 387              		.loc 1 239 0
 388 0054 182094E5 		ldr	r2, [r4, #24]
 389              		.loc 1 238 0
 390 0058 013043E2 		sub	r3, r3, #1
 391              		.loc 1 239 0
 392 005c 011082E2 		add	r1, r2, #1
 393 0060 181084E5 		str	r1, [r4, #24]
 394              		.loc 1 238 0
 395 0064 083084E5 		str	r3, [r4, #8]
 396              		.loc 1 239 0
 397 0068 0030D2E5 		ldrb	r3, [r2]	@ zero_extendqisi2
 398 006c 0130C8E4 		strb	r3, [r8], #1
 399              	.LVL31:
ARM GAS  /tmp/cconxEuC.s 			page 8


 400              		.loc 1 240 0
 401 0070 103094E5 		ldr	r3, [r4, #16]
 402 0074 182094E5 		ldr	r2, [r4, #24]
 403 0078 030052E1 		cmp	r2, r3
 404              		.loc 1 241 0
 405 007c 0C309425 		ldrcs	r3, [r4, #12]
 406 0080 18308425 		strcs	r3, [r4, #24]
 407              		.loc 1 243 0
 408              	@ 243 "../../os/kernel/src/chqueues.c" 1
 409 0084 1FF021E3 		msr     CPSR_c, #0x1F
 410              	@ 0 "" 2
 411              		.loc 1 244 0
 412 0088 016086E2 		add	r6, r6, #1
 413              	.LVL32:
 414              		.loc 1 245 0
 415 008c 060059E1 		cmp	r9, r6
 416 0090 0200000A 		beq	.L37
 417              		.loc 1 248 0
 418              	@ 248 "../../os/kernel/src/chqueues.c" 1
 419 0094 9FF021E3 		msr     CPSR_c, #0x9F
 420              	@ 0 "" 2
 421              		.loc 1 249 0
 422 0098 E0FFFFEA 		b	.L40
 423              	.LVL33:
 424              	.L47:
 425              		.loc 1 233 0
 426              	@ 233 "../../os/kernel/src/chqueues.c" 1
 427 009c 1FF021E3 		msr     CPSR_c, #0x1F
 428              	@ 0 "" 2
 429              	.LVL34:
 430              	.L37:
 431              		.loc 1 250 0
 432 00a0 0600A0E1 		mov	r0, r6
 433 00a4 F883BDE8 		ldmfd	sp!, {r3, r4, r5, r6, r7, r8, r9, pc}
 434              		.cfi_endproc
 435              	.LFE12:
 436              		.size	chIQReadTimeout, .-chIQReadTimeout
 437              		.section	.text.chOQInit,"ax",%progbits
 438              		.align	2
 439              		.global	chOQInit
 440              		.type	chOQInit, %function
 441              	chOQInit:
 442              	.LFB13:
 443              		.loc 1 269 0
 444              		.cfi_startproc
 445              		@ args = 4, pretend = 0, frame = 0
 446              		@ frame_needed = 0, uses_anonymous_args = 0
 447              	.LVL35:
 448 0000 04E02DE5 		str	lr, [sp, #-4]!
 449              		.cfi_def_cfa_offset 4
 450              		.cfi_offset 14, -4
 451              		.loc 1 269 0
 452 0004 04C09DE5 		ldr	ip, [sp, #4]
 453              		.loc 1 274 0
 454 0008 02E081E0 		add	lr, r1, r2
 455              		.loc 1 271 0
 456 000c 040080E5 		str	r0, [r0, #4]
ARM GAS  /tmp/cconxEuC.s 			page 9


 457 0010 000080E5 		str	r0, [r0]
 458              		.loc 1 272 0
 459 0014 082080E5 		str	r2, [r0, #8]
 460              		.loc 1 274 0
 461 0018 10E080E5 		str	lr, [r0, #16]
 462              		.loc 1 273 0
 463 001c 141080E5 		str	r1, [r0, #20]
 464 0020 181080E5 		str	r1, [r0, #24]
 465 0024 0C1080E5 		str	r1, [r0, #12]
 466              		.loc 1 275 0
 467 0028 1C3080E5 		str	r3, [r0, #28]
 468              		.loc 1 276 0
 469 002c 20C080E5 		str	ip, [r0, #32]
 470 0030 04F09DE4 		ldr	pc, [sp], #4
 471              		.cfi_endproc
 472              	.LFE13:
 473              		.size	chOQInit, .-chOQInit
 474              		.section	.text.chOQResetI,"ax",%progbits
 475              		.align	2
 476              		.global	chOQResetI
 477              		.type	chOQResetI, %function
 478              	chOQResetI:
 479              	.LFB14:
 480              		.loc 1 290 0
 481              		.cfi_startproc
 482              		@ args = 0, pretend = 0, frame = 0
 483              		@ frame_needed = 0, uses_anonymous_args = 0
 484              	.LVL36:
 485 0000 38402DE9 		stmfd	sp!, {r3, r4, r5, lr}
 486              		.cfi_def_cfa_offset 16
 487              		.cfi_offset 3, -16
 488              		.cfi_offset 4, -12
 489              		.cfi_offset 5, -8
 490              		.cfi_offset 14, -4
 491              		.loc 1 290 0
 492 0004 0040A0E1 		mov	r4, r0
 493              		.loc 1 294 0
 494 0008 0C2090E5 		ldr	r2, [r0, #12]
 495              		.loc 1 295 0
 496 000c 103090E5 		ldr	r3, [r0, #16]
 497              		.loc 1 296 0
 498 0010 000090E5 		ldr	r0, [r0]
 499              	.LVL37:
 500              		.loc 1 295 0
 501 0014 033062E0 		rsb	r3, r2, r3
 502              		.loc 1 296 0
 503 0018 040050E1 		cmp	r0, r4
 504              		.loc 1 294 0
 505 001c 142084E5 		str	r2, [r4, #20]
 506 0020 182084E5 		str	r2, [r4, #24]
 507              		.loc 1 295 0
 508 0024 083084E5 		str	r3, [r4, #8]
 509              		.loc 1 296 0
 510 0028 3880BD08 		ldmeqfd	sp!, {r3, r4, r5, pc}
 511              		.loc 1 297 0
 512 002c 0150E0E3 		mvn	r5, #1
 513              	.L52:
ARM GAS  /tmp/cconxEuC.s 			page 10


 514              	.LVL38:
 515              	.LBB19:
 516              	.LBB20:
 517              		.loc 2 55 0
 518 0030 003090E5 		ldr	r3, [r0]
 519 0034 003084E5 		str	r3, [r4]
 520 0038 044083E5 		str	r4, [r3, #4]
 521              	.LBE20:
 522              	.LBE19:
 523              		.loc 1 297 0
 524 003c FEFFFFEB 		bl	chSchReadyI
 525              	.LVL39:
 526 0040 245080E5 		str	r5, [r0, #36]
 527              		.loc 1 296 0
 528 0044 000094E5 		ldr	r0, [r4]
 529 0048 040050E1 		cmp	r0, r4
 530 004c F7FFFF1A 		bne	.L52
 531 0050 3880BDE8 		ldmfd	sp!, {r3, r4, r5, pc}
 532              		.cfi_endproc
 533              	.LFE14:
 534              		.size	chOQResetI, .-chOQResetI
 535              		.section	.text.chOQPutTimeout,"ax",%progbits
 536              		.align	2
 537              		.global	chOQPutTimeout
 538              		.type	chOQPutTimeout, %function
 539              	chOQPutTimeout:
 540              	.LFB15:
 541              		.loc 1 322 0
 542              		.cfi_startproc
 543              		@ args = 0, pretend = 0, frame = 0
 544              		@ frame_needed = 0, uses_anonymous_args = 0
 545              	.LVL40:
 546 0000 70402DE9 		stmfd	sp!, {r4, r5, r6, lr}
 547              		.cfi_def_cfa_offset 16
 548              		.cfi_offset 4, -16
 549              		.cfi_offset 5, -12
 550              		.cfi_offset 6, -8
 551              		.cfi_offset 14, -4
 552              		.loc 1 322 0
 553 0004 0040A0E1 		mov	r4, r0
 554 0008 0160A0E1 		mov	r6, r1
 555 000c 0250A0E1 		mov	r5, r2
 556              		.loc 1 324 0
 557              	@ 324 "../../os/kernel/src/chqueues.c" 1
 558 0010 9FF021E3 		msr     CPSR_c, #0x9F
 559              	@ 0 "" 2
 560              		.loc 1 325 0
 561 0014 040000EA 		b	.L57
 562              	.LVL41:
 563              	.L59:
 564              	.LBB21:
 565              		.loc 1 328 0
 566 0018 0400A0E1 		mov	r0, r4
 567 001c 0510A0E1 		mov	r1, r5
 568 0020 FEFFFFEB 		bl	qwait
 569              	.LVL42:
 570 0024 000050E3 		cmp	r0, #0
ARM GAS  /tmp/cconxEuC.s 			page 11


 571 0028 150000BA 		blt	.L67
 572              	.LVL43:
 573              	.L57:
 574              	.LBE21:
 575              		.loc 1 325 0
 576 002c 083094E5 		ldr	r3, [r4, #8]
 577 0030 000053E3 		cmp	r3, #0
 578 0034 F7FFFF0A 		beq	.L59
 579              		.loc 1 335 0
 580 0038 142094E5 		ldr	r2, [r4, #20]
 581              		.loc 1 334 0
 582 003c 013043E2 		sub	r3, r3, #1
 583              		.loc 1 335 0
 584 0040 011082E2 		add	r1, r2, #1
 585 0044 141084E5 		str	r1, [r4, #20]
 586              		.loc 1 334 0
 587 0048 083084E5 		str	r3, [r4, #8]
 588              		.loc 1 335 0
 589 004c 0060C2E5 		strb	r6, [r2]
 590              		.loc 1 336 0
 591 0050 103094E5 		ldr	r3, [r4, #16]
 592 0054 142094E5 		ldr	r2, [r4, #20]
 593 0058 030052E1 		cmp	r2, r3
 594              		.loc 1 337 0
 595 005c 0C309425 		ldrcs	r3, [r4, #12]
 596 0060 14308425 		strcs	r3, [r4, #20]
 597              		.loc 1 339 0
 598 0064 1C3094E5 		ldr	r3, [r4, #28]
 599 0068 000053E3 		cmp	r3, #0
 600 006c 0100000A 		beq	.L61
 601              		.loc 1 340 0
 602 0070 0400A0E1 		mov	r0, r4
 603 0074 33FF2FE1 		blx	r3
 604              	.LVL44:
 605              	.L61:
 606              		.loc 1 342 0
 607              	@ 342 "../../os/kernel/src/chqueues.c" 1
 608 0078 1FF021E3 		msr     CPSR_c, #0x1F
 609              	@ 0 "" 2
 610              		.loc 1 343 0
 611 007c 0000A0E3 		mov	r0, #0
 612              		.loc 1 344 0
 613 0080 7080BDE8 		ldmfd	sp!, {r4, r5, r6, pc}
 614              	.LVL45:
 615              	.L67:
 616              	.LBB22:
 617              		.loc 1 329 0
 618              	@ 329 "../../os/kernel/src/chqueues.c" 1
 619 0084 1FF021E3 		msr     CPSR_c, #0x1F
 620              	@ 0 "" 2
 621              		.loc 1 330 0
 622 0088 7080BDE8 		ldmfd	sp!, {r4, r5, r6, pc}
 623              	.LBE22:
 624              		.cfi_endproc
 625              	.LFE15:
 626              		.size	chOQPutTimeout, .-chOQPutTimeout
 627              		.section	.text.chOQGetI,"ax",%progbits
ARM GAS  /tmp/cconxEuC.s 			page 12


 628              		.align	2
 629              		.global	chOQGetI
 630              		.type	chOQGetI, %function
 631              	chOQGetI:
 632              	.LFB16:
 633              		.loc 1 356 0
 634              		.cfi_startproc
 635              		@ args = 0, pretend = 0, frame = 0
 636              		@ frame_needed = 0, uses_anonymous_args = 0
 637              	.LVL46:
 638              		.loc 1 361 0
 639 0000 143090E5 		ldr	r3, [r0, #20]
 640 0004 182090E5 		ldr	r2, [r0, #24]
 641              		.loc 1 356 0
 642 0008 10402DE9 		stmfd	sp!, {r4, lr}
 643              		.cfi_def_cfa_offset 8
 644              		.cfi_offset 4, -8
 645              		.cfi_offset 14, -4
 646              		.loc 1 361 0
 647 000c 020053E1 		cmp	r3, r2
 648 0010 083090E5 		ldr	r3, [r0, #8]
 649 0014 1500000A 		beq	.L76
 650              	.L70:
 651              		.loc 1 366 0
 652 0018 10C090E5 		ldr	ip, [r0, #16]
 653              		.loc 1 364 0
 654 001c 013083E2 		add	r3, r3, #1
 655              		.loc 1 365 0
 656 0020 011082E2 		add	r1, r2, #1
 657              		.loc 1 366 0
 658 0024 0C0051E1 		cmp	r1, ip
 659              		.loc 1 364 0
 660 0028 083080E5 		str	r3, [r0, #8]
 661              		.loc 1 365 0
 662 002c 181080E5 		str	r1, [r0, #24]
 663 0030 0040D2E5 		ldrb	r4, [r2]	@ zero_extendqisi2
 664              	.LVL47:
 665              		.loc 1 367 0
 666 0034 0C309025 		ldrcs	r3, [r0, #12]
 667              		.loc 1 369 0
 668 0038 002090E5 		ldr	r2, [r0]
 669              		.loc 1 367 0
 670 003c 18308025 		strcs	r3, [r0, #24]
 671              		.loc 1 369 0
 672 0040 000052E1 		cmp	r2, r0
 673 0044 0700000A 		beq	.L73
 674 0048 0030A0E1 		mov	r3, r0
 675              	.LVL48:
 676              	.LBB23:
 677              	.LBB24:
 678              		.loc 2 55 0
 679 004c 001092E5 		ldr	r1, [r2]
 680              	.LBE24:
 681              	.LBE23:
 682              		.loc 1 370 0
 683 0050 0200A0E1 		mov	r0, r2
 684              	.LVL49:
ARM GAS  /tmp/cconxEuC.s 			page 13


 685              	.LBB26:
 686              	.LBB25:
 687              		.loc 2 55 0
 688 0054 001083E5 		str	r1, [r3]
 689 0058 043081E5 		str	r3, [r1, #4]
 690              	.LBE25:
 691              	.LBE26:
 692              		.loc 1 370 0
 693 005c FEFFFFEB 		bl	chSchReadyI
 694              	.LVL50:
 695 0060 0030A0E3 		mov	r3, #0
 696 0064 243080E5 		str	r3, [r0, #36]
 697              	.LVL51:
 698              	.L73:
 699              		.loc 1 372 0
 700 0068 0400A0E1 		mov	r0, r4
 701 006c 1080BDE8 		ldmfd	sp!, {r4, pc}
 702              	.LVL52:
 703              	.L76:
 704              		.loc 1 361 0 discriminator 1
 705 0070 000053E3 		cmp	r3, #0
 706 0074 E7FFFF0A 		beq	.L70
 707              		.loc 1 362 0
 708 0078 0200E0E3 		mvn	r0, #2
 709              	.LVL53:
 710              		.loc 1 373 0
 711 007c 1080BDE8 		ldmfd	sp!, {r4, pc}
 712              		.cfi_endproc
 713              	.LFE16:
 714              		.size	chOQGetI, .-chOQGetI
 715              		.section	.text.chOQWriteTimeout,"ax",%progbits
 716              		.align	2
 717              		.global	chOQWriteTimeout
 718              		.type	chOQWriteTimeout, %function
 719              	chOQWriteTimeout:
 720              	.LFB17:
 721              		.loc 1 400 0
 722              		.cfi_startproc
 723              		@ args = 0, pretend = 0, frame = 0
 724              		@ frame_needed = 0, uses_anonymous_args = 0
 725              	.LVL54:
 726 0000 F0472DE9 		stmfd	sp!, {r4, r5, r6, r7, r8, r9, r10, lr}
 727              		.cfi_def_cfa_offset 32
 728              		.cfi_offset 4, -32
 729              		.cfi_offset 5, -28
 730              		.cfi_offset 6, -24
 731              		.cfi_offset 7, -20
 732              		.cfi_offset 8, -16
 733              		.cfi_offset 9, -12
 734              		.cfi_offset 10, -8
 735              		.cfi_offset 14, -4
 736              		.loc 1 400 0
 737 0004 0040A0E1 		mov	r4, r0
 738 0008 0150A0E1 		mov	r5, r1
 739 000c 0260A0E1 		mov	r6, r2
 740 0010 0390A0E1 		mov	r9, r3
 741              		.loc 1 401 0
ARM GAS  /tmp/cconxEuC.s 			page 14


 742 0014 1C8090E5 		ldr	r8, [r0, #28]
 743              	.LVL55:
 744              		.loc 1 406 0
 745              	@ 406 "../../os/kernel/src/chqueues.c" 1
 746 0018 9FF021E3 		msr     CPSR_c, #0x9F
 747              	@ 0 "" 2
 748              		.loc 1 402 0
 749 001c 0070A0E3 		mov	r7, #0
 750              	.LVL56:
 751              	.L78:
 752              		.loc 1 408 0
 753 0020 083094E5 		ldr	r3, [r4, #8]
 754              		.loc 1 415 0
 755 0024 01A085E2 		add	r10, r5, #1
 756              	.LVL57:
 757              		.loc 1 408 0
 758 0028 000053E3 		cmp	r3, #0
 759              		.loc 1 414 0
 760 002c 012043E2 		sub	r2, r3, #1
 761              		.loc 1 408 0
 762 0030 1500000A 		beq	.L81
 763              		.loc 1 415 0
 764 0034 143094E5 		ldr	r3, [r4, #20]
 765              		.loc 1 414 0
 766 0038 082084E5 		str	r2, [r4, #8]
 767              		.loc 1 415 0
 768 003c 012083E2 		add	r2, r3, #1
 769 0040 142084E5 		str	r2, [r4, #20]
 770 0044 0020D5E5 		ldrb	r2, [r5]	@ zero_extendqisi2
 771 0048 0020C3E5 		strb	r2, [r3]
 772              		.loc 1 416 0
 773 004c 103094E5 		ldr	r3, [r4, #16]
 774 0050 142094E5 		ldr	r2, [r4, #20]
 775 0054 030052E1 		cmp	r2, r3
 776              		.loc 1 417 0
 777 0058 0C309425 		ldrcs	r3, [r4, #12]
 778 005c 14308425 		strcs	r3, [r4, #20]
 779              		.loc 1 419 0
 780 0060 000058E3 		cmp	r8, #0
 781 0064 0100000A 		beq	.L83
 782              		.loc 1 420 0
 783 0068 0400A0E1 		mov	r0, r4
 784 006c 38FF2FE1 		blx	r8
 785              	.LVL58:
 786              	.L83:
 787              		.loc 1 422 0
 788              	@ 422 "../../os/kernel/src/chqueues.c" 1
 789 0070 1FF021E3 		msr     CPSR_c, #0x1F
 790              	@ 0 "" 2
 791              		.loc 1 424 0
 792 0074 016056E2 		subs	r6, r6, #1
 793              	.LVL59:
 794              		.loc 1 423 0
 795 0078 017087E2 		add	r7, r7, #1
 796              	.LVL60:
 797              		.loc 1 424 0
 798 007c 0800000A 		beq	.L80
ARM GAS  /tmp/cconxEuC.s 			page 15


 799              		.loc 1 426 0
 800              	@ 426 "../../os/kernel/src/chqueues.c" 1
 801 0080 9FF021E3 		msr     CPSR_c, #0x9F
 802              	@ 0 "" 2
 803              		.loc 1 415 0
 804 0084 0A50A0E1 		mov	r5, r10
 805              		.loc 1 427 0
 806 0088 E4FFFFEA 		b	.L78
 807              	.LVL61:
 808              	.L81:
 809              		.loc 1 409 0
 810 008c 0400A0E1 		mov	r0, r4
 811 0090 0910A0E1 		mov	r1, r9
 812 0094 FEFFFFEB 		bl	qwait
 813              	.LVL62:
 814 0098 000050E3 		cmp	r0, #0
 815 009c DFFFFF0A 		beq	.L78
 816              		.loc 1 410 0
 817              	@ 410 "../../os/kernel/src/chqueues.c" 1
 818 00a0 1FF021E3 		msr     CPSR_c, #0x1F
 819              	@ 0 "" 2
 820              	.LVL63:
 821              	.L80:
 822              		.loc 1 428 0
 823 00a4 0700A0E1 		mov	r0, r7
 824 00a8 F087BDE8 		ldmfd	sp!, {r4, r5, r6, r7, r8, r9, r10, pc}
 825              		.cfi_endproc
 826              	.LFE17:
 827              		.size	chOQWriteTimeout, .-chOQWriteTimeout
 828              		.text
 829              	.Letext0:
 830              		.file 3 "/usr/lib/gcc/arm-none-eabi/4.9.3/include/stddef.h"
 831              		.file 4 "/usr/include/newlib/machine/_default_types.h"
 832              		.file 5 "/usr/include/newlib/sys/_stdint.h"
 833              		.file 6 "../../os/ports/GCC/ARM/chtypes.h"
 834              		.file 7 "../../os/kernel/include/chlists.h"
 835              		.file 8 "../../os/kernel/include/chthreads.h"
 836              		.file 9 "../../os/ports/GCC/ARM/chcore.h"
 837              		.file 10 "../../os/kernel/include/chschd.h"
 838              		.file 11 "../../os/kernel/include/chmtx.h"
 839              		.file 12 "../../os/kernel/include/chqueues.h"