ARM GAS  /tmp/cconxEuC.s 			page 1


   1              		.cpu arm1176jz-s
   2              		.fpu softvfp
   3              		.eabi_attribute 20, 1
   4              		.eabi_attribute 21, 1
   5              		.eabi_attribute 23, 3
   6              		.eabi_attribute 24, 1
   7              		.eabi_attribute 25, 1
   8              		.eabi_attribute 26, 1
   9              		.eabi_attribute 30, 2
  10              		.eabi_attribute 34, 1
  11              		.eabi_attribute 18, 4
  12              		.file	"chqueues.c"
  13              		.text
  14              	.Ltext0:
  15              		.cfi_sections	.debug_frame
  16              		.section	.text.qwait,"ax",%progbits
  17              		.align	2
  18              		.type	qwait, %function
  19              	qwait:
  20              	.LFB7:
  21              		.file 1 "../../os/kernel/src/chqueues.c"
  22              		.loc 1 63 0
  23              		.cfi_startproc
  24              		@ args = 0, pretend = 0, frame = 0
  25              		@ frame_needed = 0, uses_anonymous_args = 0
  26              		@ link register save eliminated.
  27              	.LVL0:
  28              		.loc 1 65 0
  29 0000 000051E3 		cmp	r1, #0
  30              		.loc 1 63 0
  31 0004 0020A0E1 		mov	r2, r0
  32              		.loc 1 65 0
  33 0008 0800000A 		beq	.L2
  34              		.loc 1 67 0
  35 000c 24309FE5 		ldr	r3, .L4
  36              		.loc 1 69 0
  37 0010 0D00A0E3 		mov	r0, #13
  38              	.LVL1:
  39              		.loc 1 67 0
  40 0014 183093E5 		ldr	r3, [r3, #24]
  41 0018 242083E5 		str	r2, [r3, #36]
  42              	.LVL2:
  43              	.LBB12:
  44              	.LBB13:
  45              		.file 2 "../../os/kernel/include/chinline.h"
  46              		.loc 2 48 0
  47 001c 04C092E5 		ldr	ip, [r2, #4]
  48 0020 041083E8 		stmia	r3, {r2, ip}
  49              		.loc 2 49 0
  50 0024 043082E5 		str	r3, [r2, #4]
  51 0028 00308CE5 		str	r3, [ip]
  52              	.LBE13:
  53              	.LBE12:
  54              		.loc 1 69 0
  55 002c FEFFFFEA 		b	chSchGoSleepTimeoutS
  56              	.LVL3:
  57              	.L2:
ARM GAS  /tmp/cconxEuC.s 			page 2


  58              		.loc 1 70 0
  59 0030 0000E0E3 		mvn	r0, #0
  60              	.LVL4:
  61 0034 1EFF2FE1 		bx	lr
  62              	.L5:
  63              		.align	2
  64              	.L4:
  65 0038 00000000 		.word	rlist
  66              		.cfi_endproc
  67              	.LFE7:
  68              		.size	qwait, .-qwait
  69              		.section	.text.chIQInit,"ax",%progbits
  70              		.align	2
  71              		.global	chIQInit
  72              		.type	chIQInit, %function
  73              	chIQInit:
  74              	.LFB8:
  75              		.loc 1 89 0
  76              		.cfi_startproc
  77              		@ args = 4, pretend = 0, frame = 0
  78              		@ frame_needed = 0, uses_anonymous_args = 0
  79              	.LVL5:
  80 0000 04E02DE5 		str	lr, [sp, #-4]!
  81              		.cfi_def_cfa_offset 4
  82              		.cfi_offset 14, -4
  83              		.loc 1 92 0
  84 0004 00E0A0E3 		mov	lr, #0
  85              		.loc 1 89 0
  86 0008 04C09DE5 		ldr	ip, [sp, #4]
  87              		.loc 1 94 0
  88 000c 022081E0 		add	r2, r1, r2
  89              	.LVL6:
  90 0010 102080E5 		str	r2, [r0, #16]
  91              		.loc 1 91 0
  92 0014 040080E5 		str	r0, [r0, #4]
  93 0018 000080E5 		str	r0, [r0]
  94              		.loc 1 93 0
  95 001c 141080E5 		str	r1, [r0, #20]
  96 0020 181080E5 		str	r1, [r0, #24]
  97 0024 0C1080E5 		str	r1, [r0, #12]
  98              		.loc 1 95 0
  99 0028 1C3080E5 		str	r3, [r0, #28]
 100              		.loc 1 92 0
 101 002c 08E080E5 		str	lr, [r0, #8]
 102              		.loc 1 96 0
 103 0030 20C080E5 		str	ip, [r0, #32]
 104 0034 04F09DE4 		ldr	pc, [sp], #4
 105              		.cfi_endproc
 106              	.LFE8:
 107              		.size	chIQInit, .-chIQInit
 108              		.section	.text.chIQResetI,"ax",%progbits
 109              		.align	2
 110              		.global	chIQResetI
 111              		.type	chIQResetI, %function
 112              	chIQResetI:
 113              	.LFB9:
 114              		.loc 1 110 0
ARM GAS  /tmp/cconxEuC.s 			page 3


 115              		.cfi_startproc
 116              		@ args = 0, pretend = 0, frame = 0
 117              		@ frame_needed = 0, uses_anonymous_args = 0
 118              	.LVL7:
 119 0000 38402DE9 		stmfd	sp!, {r3, r4, r5, lr}
 120              		.cfi_def_cfa_offset 16
 121              		.cfi_offset 3, -16
 122              		.cfi_offset 4, -12
 123              		.cfi_offset 5, -8
 124              		.cfi_offset 14, -4
 125              		.loc 1 110 0
 126 0004 0040A0E1 		mov	r4, r0
 127              		.loc 1 115 0
 128 0008 0020A0E3 		mov	r2, #0
 129              		.loc 1 116 0
 130 000c 000090E5 		ldr	r0, [r0]
 131              	.LVL8:
 132              		.loc 1 114 0
 133 0010 0C3094E5 		ldr	r3, [r4, #12]
 134              		.loc 1 116 0
 135 0014 040050E1 		cmp	r0, r4
 136              		.loc 1 115 0
 137 0018 082084E5 		str	r2, [r4, #8]
 138              		.loc 1 114 0
 139 001c 143084E5 		str	r3, [r4, #20]
 140 0020 183084E5 		str	r3, [r4, #24]
 141              		.loc 1 116 0
 142 0024 3880BD08 		ldmeqfd	sp!, {r3, r4, r5, pc}
 143              		.loc 1 117 0
 144 0028 0150E0E3 		mvn	r5, #1
 145              	.L10:
 146              	.LVL9:
 147              	.LBB14:
 148              	.LBB15:
 149              		.loc 2 55 0
 150 002c 003090E5 		ldr	r3, [r0]
 151 0030 003084E5 		str	r3, [r4]
 152 0034 044083E5 		str	r4, [r3, #4]
 153              	.LBE15:
 154              	.LBE14:
 155              		.loc 1 117 0
 156 0038 FEFFFFEB 		bl	chSchReadyI
 157              	.LVL10:
 158 003c 245080E5 		str	r5, [r0, #36]
 159              		.loc 1 116 0
 160 0040 000094E5 		ldr	r0, [r4]
 161 0044 040050E1 		cmp	r0, r4
 162 0048 F7FFFF1A 		bne	.L10
 163 004c 3880BDE8 		ldmfd	sp!, {r3, r4, r5, pc}
 164              		.cfi_endproc
 165              	.LFE9:
 166              		.size	chIQResetI, .-chIQResetI
 167              		.section	.text.chIQPutI,"ax",%progbits
 168              		.align	2
 169              		.global	chIQPutI
 170              		.type	chIQPutI, %function
 171              	chIQPutI:
ARM GAS  /tmp/cconxEuC.s 			page 4


 172              	.LFB10:
 173              		.loc 1 133 0
 174              		.cfi_startproc
 175              		@ args = 0, pretend = 0, frame = 0
 176              		@ frame_needed = 0, uses_anonymous_args = 0
 177              	.LVL11:
 178 0000 08402DE9 		stmfd	sp!, {r3, lr}
 179              		.cfi_def_cfa_offset 8
 180              		.cfi_offset 3, -8
 181              		.cfi_offset 14, -4
 182              		.loc 1 133 0
 183 0004 0030A0E1 		mov	r3, r0
 184              		.loc 1 137 0
 185 0008 140090E5 		ldr	r0, [r0, #20]
 186              	.LVL12:
 187 000c 182093E5 		ldr	r2, [r3, #24]
 188 0010 020050E1 		cmp	r0, r2
 189 0014 082093E5 		ldr	r2, [r3, #8]
 190 0018 1600000A 		beq	.L22
 191              	.L16:
 192              		.loc 1 140 0
 193 001c 012082E2 		add	r2, r2, #1
 194              		.loc 1 141 0
 195 0020 01C080E2 		add	ip, r0, #1
 196 0024 14C083E5 		str	ip, [r3, #20]
 197              		.loc 1 140 0
 198 0028 082083E5 		str	r2, [r3, #8]
 199              		.loc 1 141 0
 200 002c 0010C0E5 		strb	r1, [r0]
 201              		.loc 1 142 0
 202 0030 102093E5 		ldr	r2, [r3, #16]
 203 0034 141093E5 		ldr	r1, [r3, #20]
 204              	.LVL13:
 205              		.loc 1 145 0
 206 0038 000093E5 		ldr	r0, [r3]
 207              	.LVL14:
 208              		.loc 1 142 0
 209 003c 020051E1 		cmp	r1, r2
 210              		.loc 1 143 0
 211 0040 0C209325 		ldrcs	r2, [r3, #12]
 212 0044 14208325 		strcs	r2, [r3, #20]
 213              	.LVL15:
 214              		.loc 1 145 0
 215 0048 030050E1 		cmp	r0, r3
 216 004c 0700000A 		beq	.L20
 217              	.LVL16:
 218              	.LBB16:
 219              	.LBB17:
 220              		.loc 2 55 0
 221 0050 002090E5 		ldr	r2, [r0]
 222 0054 002083E5 		str	r2, [r3]
 223 0058 043082E5 		str	r3, [r2, #4]
 224              	.LBE17:
 225              	.LBE16:
 226              		.loc 1 146 0
 227 005c FEFFFFEB 		bl	chSchReadyI
 228              	.LVL17:
ARM GAS  /tmp/cconxEuC.s 			page 5


 229 0060 0030A0E3 		mov	r3, #0
 230 0064 243080E5 		str	r3, [r0, #36]
 231              		.loc 1 148 0
 232 0068 0300A0E1 		mov	r0, r3
 233 006c 0880BDE8 		ldmfd	sp!, {r3, pc}
 234              	.LVL18:
 235              	.L20:
 236 0070 0000A0E3 		mov	r0, #0
 237              		.loc 1 149 0
 238 0074 0880BDE8 		ldmfd	sp!, {r3, pc}
 239              	.LVL19:
 240              	.L22:
 241              		.loc 1 137 0 discriminator 1
 242 0078 000052E3 		cmp	r2, #0
 243 007c E6FFFF0A 		beq	.L16
 244              		.loc 1 138 0
 245 0080 0300E0E3 		mvn	r0, #3
 246 0084 0880BDE8 		ldmfd	sp!, {r3, pc}
 247              		.cfi_endproc
 248              	.LFE10:
 249              		.size	chIQPutI, .-chIQPutI
 250              		.section	.text.chIQGetTimeout,"ax",%progbits
 251              		.align	2
 252              		.global	chIQGetTimeout
 253              		.type	chIQGetTimeout, %function
 254              	chIQGetTimeout:
 255              	.LFB11:
 256              		.loc 1 171 0
 257              		.cfi_startproc
 258              		@ args = 0, pretend = 0, frame = 0
 259              		@ frame_needed = 0, uses_anonymous_args = 0
 260              	.LVL20:
 261 0000 38402DE9 		stmfd	sp!, {r3, r4, r5, lr}
 262              		.cfi_def_cfa_offset 16
 263              		.cfi_offset 3, -16
 264              		.cfi_offset 4, -12
 265              		.cfi_offset 5, -8
 266              		.cfi_offset 14, -4
 267              		.loc 1 171 0
 268 0004 0150A0E1 		mov	r5, r1
 269 0008 0040A0E1 		mov	r4, r0
 270              		.loc 1 174 0
 271              	@ 174 "../../os/kernel/src/chqueues.c" 1
 272 000c 9FF021E3 		msr     CPSR_c, #0x9F
 273              	@ 0 "" 2
 274              		.loc 1 175 0
 275 0010 1C3090E5 		ldr	r3, [r0, #28]
 276 0014 000053E3 		cmp	r3, #0
 277 0018 0600000A 		beq	.L25
 278              		.loc 1 176 0
 279 001c 33FF2FE1 		blx	r3
 280              	.LVL21:
 281 0020 040000EA 		b	.L25
 282              	.L27:
 283              	.LBB18:
 284              		.loc 1 180 0
 285 0024 0400A0E1 		mov	r0, r4
ARM GAS  /tmp/cconxEuC.s 			page 6


 286 0028 0510A0E1 		mov	r1, r5
 287 002c FEFFFFEB 		bl	qwait
 288              	.LVL22:
 289 0030 000050E3 		cmp	r0, #0
 290 0034 0C0000BA 		blt	.L28
 291              	.LVL23:
 292              	.L25:
 293              	.LBE18:
 294              		.loc 1 178 0
 295 0038 083094E5 		ldr	r3, [r4, #8]
 296 003c 000053E3 		cmp	r3, #0
 297 0040 F7FFFF0A 		beq	.L27
 298              		.loc 1 187 0
 299 0044 182094E5 		ldr	r2, [r4, #24]
 300              		.loc 1 188 0
 301 0048 100094E5 		ldr	r0, [r4, #16]
 302              		.loc 1 187 0
 303 004c 011082E2 		add	r1, r2, #1
 304              		.loc 1 186 0
 305 0050 013043E2 		sub	r3, r3, #1
 306              		.loc 1 188 0
 307 0054 000051E1 		cmp	r1, r0
 308              		.loc 1 186 0
 309 0058 083084E5 		str	r3, [r4, #8]
 310              		.loc 1 189 0
 311 005c 0C309425 		ldrcs	r3, [r4, #12]
 312              		.loc 1 187 0
 313 0060 181084E5 		str	r1, [r4, #24]
 314 0064 0000D2E5 		ldrb	r0, [r2]	@ zero_extendqisi2
 315              	.LVL24:
 316              		.loc 1 189 0
 317 0068 18308425 		strcs	r3, [r4, #24]
 318              	.LVL25:
 319              	.L28:
 320              		.loc 1 191 0
 321              	@ 191 "../../os/kernel/src/chqueues.c" 1
 322 006c 1FF021E3 		msr     CPSR_c, #0x1F
 323              	@ 0 "" 2
 324              		.loc 1 193 0
 325 0070 3880BDE8 		ldmfd	sp!, {r3, r4, r5, pc}
 326              		.cfi_endproc
 327              	.LFE11:
 328              		.size	chIQGetTimeout, .-chIQGetTimeout
 329              		.section	.text.chIQReadTimeout,"ax",%progbits
 330              		.align	2
 331              		.global	chIQReadTimeout
 332              		.type	chIQReadTimeout, %function
 333              	chIQReadTimeout:
 334              	.LFB12:
 335              		.loc 1 220 0
 336              		.cfi_startproc
 337              		@ args = 0, pretend = 0, frame = 0
 338              		@ frame_needed = 0, uses_anonymous_args = 0
 339              	.LVL26:
 340 0000 F8432DE9 		stmfd	sp!, {r3, r4, r5, r6, r7, r8, r9, lr}
 341              		.cfi_def_cfa_offset 32
 342              		.cfi_offset 3, -32
ARM GAS  /tmp/cconxEuC.s 			page 7


 343              		.cfi_offset 4, -28
 344              		.cfi_offset 5, -24
 345              		.cfi_offset 6, -20
 346              		.cfi_offset 7, -16
 347              		.cfi_offset 8, -12
 348              		.cfi_offset 9, -8
 349              		.cfi_offset 14, -4
 350              		.loc 1 220 0
 351 0004 0040A0E1 		mov	r4, r0
 352 0008 0180A0E1 		mov	r8, r1
 353 000c 0290A0E1 		mov	r9, r2
 354 0010 0350A0E1 		mov	r5, r3
 355              		.loc 1 221 0
 356 0014 1C7090E5 		ldr	r7, [r0, #28]
 357              	.LVL27:
 358              		.loc 1 226 0
 359              	@ 226 "../../os/kernel/src/chqueues.c" 1
 360 0018 9FF021E3 		msr     CPSR_c, #0x9F
 361              	@ 0 "" 2
 362              		.loc 1 222 0
 363 001c 0060A0E3 		mov	r6, #0
 364              	.LVL28:
 365              	.L40:
 366              		.loc 1 228 0
 367 0020 000057E3 		cmp	r7, #0
 368 0024 0700000A 		beq	.L36
 369              		.loc 1 229 0
 370 0028 0400A0E1 		mov	r0, r4
 371 002c 37FF2FE1 		blx	r7
 372              	.LVL29:
 373 0030 040000EA 		b	.L36
 374              	.L38:
 375              		.loc 1 232 0
 376 0034 0400A0E1 		mov	r0, r4
 377 0038 0510A0E1 		mov	r1, r5
 378 003c FEFFFFEB 		bl	qwait
 379              	.LVL30:
 380 0040 000050E3 		cmp	r0, #0
 381 0044 1400001A 		bne	.L47
 382              	.L36:
 383              		.loc 1 231 0
 384 0048 083094E5 		ldr	r3, [r4, #8]
 385 004c 000053E3 		cmp	r3, #0
 386 0050 F7FFFF0A 		beq	.L38
 387              		.loc 1 239 0
 388 0054 182094E5 		ldr	r2, [r4, #24]
 389              		.loc 1 238 0
 390 0058 013043E2 		sub	r3, r3, #1
 391              		.loc 1 239 0
 392 005c 011082E2 		add	r1, r2, #1
 393 0060 181084E5 		str	r1, [r4, #24]
 394              		.loc 1 238 0
 395 0064 083084E5 		str	r3, [r4, #8]
 396              		.loc 1 239 0
 397 0068 0030D2E5 		ldrb	r3, [r2]	@ zero_extendqisi2
 398 006c 0130C8E4 		strb	r3, [r8], #1
 399              	.LVL31:
ARM GAS  /tmp/cconxEuC.s 			page 8


 400              		.loc 1 240 0
 401 0070 103094E5 		ldr	r3, [r4, #16]
 402 0074 182094E5 		ldr	r2, [r4, #24]
 403 0078 030052E1 		cmp	r2, r3
 404              		.loc 1 241 0
 405 007c 0C309425 		ldrcs	r3, [r4, #12]
 406 0080 18308425 		strcs	r3, [r4, #24]
 407              		.loc 1 243 0
 408              	@ 243 "../../os/kernel/src/chqueues.c" 1
 409 0084 1FF021E3 		msr     CPSR_c, #0x1F
 410              	@ 0 "" 2
 411              		.loc 1 244 0
 412 0088 016086E2 		add	r6, r6, #1
 413              	.LVL32:
 414              		.loc 1 245 0
 415 008c 060059E1 		cmp	r9, r6
 416 0090 0200000A 		beq	.L37
 417              		.loc 1 248 0
 418              	@ 248 "../../os/kernel/src/chqueues.c" 1
 419 0094 9FF021E3 		msr     CPSR_c, #0x9F
 420              	@ 0 "" 2
 421              		.loc 1 249 0
 422 0098 E0FFFFEA 		b	.L40
 423              	.LVL33:
 424              	.L47:
 425              		.loc 1 233 0
 426              	@ 233 "../../os/kernel/src/chqueues.c" 1
 427 009c 1FF021E3 		msr     CPSR_c, #0x1F
 428              	@ 0 "" 2
 429              	.LVL34:
 430              	.L37:
 431              		.loc 1 250 0
 432 00a0 0600A0E1 		mov	r0, r6
 433 00a4 F883BDE8 		ldmfd	sp!, {r3, r4, r5, r6, r7, r8, r9, pc}
 434              		.cfi_endproc
 435              	.LFE12:
 436              		.size	chIQReadTimeout, .-chIQReadTimeout
 437              		.section	.text.chOQInit,"ax",%progbits
 438              		.align	2
 439              		.global	chOQInit
 440              		.type	chOQInit, %function
 441              	chOQInit:
 442              	.LFB13:
 443              		.loc 1 269 0
 444              		.cfi_startproc
 445              		@ args = 4, pretend = 0, frame = 0
 446              		@ frame_needed = 0, uses_anonymous_args = 0
 447              	.LVL35:
 448 0000 04E02DE5 		str	lr, [sp, #-4]!
 449              		.cfi_def_cfa_offset 4
 450              		.cfi_offset 14, -4
 451              		.loc 1 269 0
 452 0004 04C09DE5 		ldr	ip, [sp, #4]
 453              		.loc 1 274 0
 454 0008 02E081E0 		add	lr, r1, r2
 455              		.loc 1 271 0
 456 000c 040080E5 		str	r0, [r0, #4]
ARM GAS  /tmp/cconxEuC.s 			page 9


 457 0010 000080E5 		str	r0, [r0]
 458              		.loc 1 272 0
 459 0014 082080E5 		str	r2, [r0, #8]
 460              		.loc 1 274 0
 461 0018 10E080E5 		str	lr, [r0, #16]
 462              		.loc 1 273 0
 463 001c 141080E5 		str	r1, [r0, #20]
 464 0020 181080E5 		str	r1, [r0, #24]
 465 0024 0C1080E5 		str	r1, [r0, #12]
 466              		.loc 1 275 0
 467 0028 1C3080E5 		str	r3, [r0, #28]
 468              		.loc 1 276 0
 469 002c 20C080E5 		str	ip, [r0, #32]
 470 0030 04F09DE4 		ldr	pc, [sp], #4
 471              		.cfi_endproc
 472              	.LFE13:
 473              		.size	chOQInit, .-chOQInit
 474              		.section	.text.chOQResetI,"ax",%progbits
 475              		.align	2
 476              		.global	chOQResetI
 477              		.type	chOQResetI, %function
 478              	chOQResetI:
 479              	.LFB14:
 480              		.loc 1 290 0
 481              		.cfi_startproc
 482              		@ args = 0, pretend = 0, frame = 0
 483              		@ frame_needed = 0, uses_anonymous_args = 0
 484              	.LVL36:
 485 0000 38402DE9 		stmfd	sp!, {r3, r4, r5, lr}
 486              		.cfi_def_cfa_offset 16
 487              		.cfi_offset 3, -16
 488              		.cfi_offset 4, -12
 489              		.cfi_offset 5, -8
 490              		.cfi_offset 14, -4
 491              		.loc 1 290 0
 492 0004 0040A0E1 		mov	r4, r0
 493              		.loc 1 294 0
 494 0008 0C2090E5 		ldr	r2, [r0, #12]
 495              		.loc 1 295 0
 496 000c 103090E5 		ldr	r3, [r0, #16]
 497              		.loc 1 296 0
 498 0010 000090E5 		ldr	r0, [r0]
 499              	.LVL37:
 500              		.loc 1 295 0
 501 0014 033062E0 		rsb	r3, r2, r3
 502              		.loc 1 296 0
 503 0018 040050E1 		cmp	r0, r4
 504              		.loc 1 294 0
 505 001c 142084E5 		str	r2, [r4, #20]
 506 0020 182084E5 		str	r2, [r4, #24]
 507              		.loc 1 295 0
 508 0024 083084E5 		str	r3, [r4, #8]
 509              		.loc 1 296 0
 510 0028 3880BD08 		ldmeqfd	sp!, {r3, r4, r5, pc}
 511              		.loc 1 297 0
 512 002c 0150E0E3 		mvn	r5, #1
 513              	.L52:
ARM GAS  /tmp/cconxEuC.s 			page 10


 514              	.LVL38:
 515              	.LBB19:
 516              	.LBB20:
 517              		.loc 2 55 0
 518 0030 003090E5 		ldr	r3, [r0]
 519 0034 003084E5 		str	r3, [r4]
 520 0038 044083E5 		str	r4, [r3, #4]
 521              	.LBE20:
 522              	.LBE19:
 523              		.loc 1 297 0
 524 003c FEFFFFEB 		bl	chSchReadyI
 525              	.LVL39:
 526 0040 245080E5 		str	r5, [r0, #36]
 527              		.loc 1 296 0
 528 0044 000094E5 		ldr	r0, [r4]
 529 0048 040050E1 		cmp	r0, r4
 530 004c F7FFFF1A 		bne	.L52
 531 0050 3880BDE8 		ldmfd	sp!, {r3, r4, r5, pc}
 532              		.cfi_endproc
 533              	.LFE14:
 534              		.size	chOQResetI, .-chOQResetI
 535              		.section	.text.chOQPutTimeout,"ax",%progbits
 536              		.align	2
 537              		.global	chOQPutTimeout
 538              		.type	chOQPutTimeout, %function
 539              	chOQPutTimeout:
 540              	.LFB15:
 541              		.loc 1 322 0
 542              		.cfi_startproc
 543              		@ args = 0, pretend = 0, frame = 0
 544              		@ frame_needed = 0, uses_anonymous_args = 0
 545              	.LVL40:
 546 0000 70402DE9 		stmfd	sp!, {r4, r5, r6, lr}
 547              		.cfi_def_cfa_offset 16
 548              		.cfi_offset 4, -16
 549              		.cfi_offset 5, -12
 550              		.cfi_offset 6, -8
 551              		.cfi_offset 14, -4
 552              		.loc 1 322 0
 553 0004 0040A0E1 		mov	r4, r0
 554 0008 0160A0E1 		mov	r6, r1
 555 000c 0250A0E1 		mov	r5, r2
 556              		.loc 1 324 0
 557              	@ 324 "../../os/kernel/src/chqueues.c" 1
 558 0010 9FF021E3 		msr     CPSR_c, #0x9F
 559              	@ 0 "" 2
 560              		.loc 1 325 0
 561 0014 040000EA 		b	.L57
 562              	.LVL41:
 563              	.L59:
 564              	.LBB21:
 565              		.loc 1 328 0
 566 0018 0400A0E1 		mov	r0, r4
 567 001c 0510A0E1 		mov	r1, r5
 568 0020 FEFFFFEB 		bl	qwait
 569              	.LVL42:
 570 0024 000050E3 		cmp	r0, #0
ARM GAS  /tmp/cconxEuC.s 			page 11


 571 0028 150000BA 		blt	.L67
 572              	.LVL43:
 573              	.L57:
 574              	.LBE21:
 575              		.loc 1 325 0
 576 002c 083094E5 		ldr	r3, [r4, #8]
 577 0030 000053E3 		cmp	r3, #0
 578 0034 F7FFFF0A 		beq	.L59
 579              		.loc 1 335 0
 580 0038 142094E5 		ldr	r2, [r4, #20]
 581              		.loc 1 334 0
 582 003c 013043E2 		sub	r3, r3, #1
 583              		.loc 1 335 0
 584 0040 011082E2 		add	r1, r2, #1
 585 0044 141084E5 		str	r1, [r4, #20]
 586              		.loc 1 334 0
 587 0048 083084E5 		str	r3, [r4, #8]
 588              		.loc 1 335 0
 589 004c 0060C2E5 		strb	r6, [r2]
 590              		.loc 1 336 0
 591 0050 103094E5 		ldr	r3, [r4, #16]
 592 0054 142094E5 		ldr	r2, [r4, #20]
 593 0058 030052E1 		cmp	r2, r3
 594              		.loc 1 337 0
 595 005c 0C309425 		ldrcs	r3, [r4, #12]
 596 0060 14308425 		strcs	r3, [r4, #20]
 597              		.loc 1 339 0
 598 0064 1C3094E5 		ldr	r3, [r4, #28]
 599 0068 000053E3 		cmp	r3, #0
 600 006c 0100000A 		beq	.L61
 601              		.loc 1 340 0
 602 0070 0400A0E1 		mov	r0, r4
 603 0074 33FF2FE1 		blx	r3
 604              	.LVL44:
 605              	.L61:
 606              		.loc 1 342 0
 607              	@ 342 "../../os/kernel/src/chqueues.c" 1
 608 0078 1FF021E3 		msr     CPSR_c, #0x1F
 609              	@ 0 "" 2
 610              		.loc 1 343 0
 611 007c 0000A0E3 		mov	r0, #0
 612              		.loc 1 344 0
 613 0080 7080BDE8 		ldmfd	sp!, {r4, r5, r6, pc}
 614              	.LVL45:
 615              	.L67:
 616              	.LBB22:
 617              		.loc 1 329 0
 618              	@ 329 "../../os/kernel/src/chqueues.c" 1
 619 0084 1FF021E3 		msr     CPSR_c, #0x1F
 620              	@ 0 "" 2
 621              		.loc 1 330 0
 622 0088 7080BDE8 		ldmfd	sp!, {r4, r5, r6, pc}
 623              	.LBE22:
 624              		.cfi_endproc
 625              	.LFE15:
 626              		.size	chOQPutTimeout, .-chOQPutTimeout
 627              		.section	.text.chOQGetI,"ax",%progbits
ARM GAS  /tmp/cconxEuC.s 			page 12


 628              		.align	2
 629              		.global	chOQGetI
 630              		.type	chOQGetI, %function
 631              	chOQGetI:
 632              	.LFB16:
 633              		.loc 1 356 0
 634              		.cfi_startproc
 635              		@ args = 0, pretend = 0, frame = 0
 636              		@ frame_needed = 0, uses_anonymous_args = 0
 637              	.LVL46:
 638              		.loc 1 361 0
 639 0000 143090E5 		ldr	r3, [r0, #20]
 640 0004 182090E5 		ldr	r2, [r0, #24]
 641              		.loc 1 356 0
 642 0008 10402DE9 		stmfd	sp!, {r4, lr}
 643              		.cfi_def_cfa_offset 8
 644              		.cfi_offset 4, -8
 645              		.cfi_offset 14, -4
 646              		.loc 1 361 0
 647 000c 020053E1 		cmp	r3, r2
 648 0010 083090E5 		ldr	r3, [r0, #8]
 649 0014 1500000A 		beq	.L76
 650              	.L70:
 651              		.loc 1 366 0
 652 0018 10C090E5 		ldr	ip, [r0, #16]
 653              		.loc 1 364 0
 654 001c 013083E2 		add	r3, r3, #1
 655              		.loc 1 365 0
 656 0020 011082E2 		add	r1, r2, #1
 657              		.loc 1 366 0
 658 0024 0C0051E1 		cmp	r1, ip
 659              		.loc 1 364 0
 660 0028 083080E5 		str	r3, [r0, #8]
 661              		.loc 1 365 0
 662 002c 181080E5 		str	r1, [r0, #24]
 663 0030 0040D2E5 		ldrb	r4, [r2]	@ zero_extendqisi2
 664              	.LVL47:
 665              		.loc 1 367 0
 666 0034 0C309025 		ldrcs	r3, [r0, #12]
 667              		.loc 1 369 0
 668 0038 002090E5 		ldr	r2, [r0]
 669              		.loc 1 367 0
 670 003c 18308025 		strcs	r3, [r0, #24]
 671              		.loc 1 369 0
 672 0040 000052E1 		cmp	r2, r0
 673 0044 0700000A 		beq	.L73
 674 0048 0030A0E1 		mov	r3, r0
 675              	.LVL48:
 676              	.LBB23:
 677              	.LBB24:
 678              		.loc 2 55 0
 679 004c 001092E5 		ldr	r1, [r2]
 680              	.LBE24:
 681              	.LBE23:
 682              		.loc 1 370 0
 683 0050 0200A0E1 		mov	r0, r2
 684              	.LVL49:
ARM GAS  /tmp/cconxEuC.s 			page 13


 685              	.LBB26:
 686              	.LBB25:
 687              		.loc 2 55 0
 688 0054 001083E5 		str	r1, [r3]
 689 0058 043081E5 		str	r3, [r1, #4]
 690              	.LBE25:
 691              	.LBE26:
 692              		.loc 1 370 0
 693 005c FEFFFFEB 		bl	chSchReadyI
 694              	.LVL50:
 695 0060 0030A0E3 		mov	r3, #0
 696 0064 243080E5 		str	r3, [r0, #36]
 697              	.LVL51:
 698              	.L73:
 699              		.loc 1 372 0
 700 0068 0400A0E1 		mov	r0, r4
 701 006c 1080BDE8 		ldmfd	sp!, {r4, pc}
 702              	.LVL52:
 703              	.L76:
 704              		.loc 1 361 0 discriminator 1
 705 0070 000053E3 		cmp	r3, #0
 706 0074 E7FFFF0A 		beq	.L70
 707              		.loc 1 362 0
 708 0078 0200E0E3 		mvn	r0, #2
 709              	.LVL53:
 710              		.loc 1 373 0
 711 007c 1080BDE8 		ldmfd	sp!, {r4, pc}
 712              		.cfi_endproc
 713              	.LFE16:
 714              		.size	chOQGetI, .-chOQGetI
 715              		.section	.text.chOQWriteTimeout,"ax",%progbits
 716              		.align	2
 717              		.global	chOQWriteTimeout
 718              		.type	chOQWriteTimeout, %function
 719              	chOQWriteTimeout:
 720              	.LFB17:
 721              		.loc 1 400 0
 722              		.cfi_startproc
 723              		@ args = 0, pretend = 0, frame = 0
 724              		@ frame_needed = 0, uses_anonymous_args = 0
 725              	.LVL54:
 726 0000 F0472DE9 		stmfd	sp!, {r4, r5, r6, r7, r8, r9, r10, lr}
 727              		.cfi_def_cfa_offset 32
 728              		.cfi_offset 4, -32
 729              		.cfi_offset 5, -28
 730              		.cfi_offset 6, -24
 731              		.cfi_offset 7, -20
 732              		.cfi_offset 8, -16
 733              		.cfi_offset 9, -12
 734              		.cfi_offset 10, -8
 735              		.cfi_offset 14, -4
 736              		.loc 1 400 0
 737 0004 0040A0E1 		mov	r4, r0
 738 0008 0150A0E1 		mov	r5, r1
 739 000c 0260A0E1 		mov	r6, r2
 740 0010 0390A0E1 		mov	r9, r3
 741              		.loc 1 401 0
ARM GAS  /tmp/cconxEuC.s 			page 14


 742 0014 1C8090E5 		ldr	r8, [r0, #28]
 743              	.LVL55:
 744              		.loc 1 406 0
 745              	@ 406 "../../os/kernel/src/chqueues.c" 1
 746 0018 9FF021E3 		msr     CPSR_c, #0x9F
 747              	@ 0 "" 2
 748              		.loc 1 402 0
 749 001c 0070A0E3 		mov	r7, #0
 750              	.LVL56:
 751              	.L78:
 752              		.loc 1 408 0
 753 0020 083094E5 		ldr	r3, [r4, #8]
 754              		.loc 1 415 0
 755 0024 01A085E2 		add	r10, r5, #1
 756              	.LVL57:
 757              		.loc 1 408 0
 758 0028 000053E3 		cmp	r3, #0
 759              		.loc 1 414 0
 760 002c 012043E2 		sub	r2, r3, #1
 761              		.loc 1 408 0
 762 0030 1500000A 		beq	.L81
 763              		.loc 1 415 0
 764 0034 143094E5 		ldr	r3, [r4, #20]
 765              		.loc 1 414 0
 766 0038 082084E5 		str	r2, [r4, #8]
 767              		.loc 1 415 0
 768 003c 012083E2 		add	r2, r3, #1
 769 0040 142084E5 		str	r2, [r4, #20]
 770 0044 0020D5E5 		ldrb	r2, [r5]	@ zero_extendqisi2
 771 0048 0020C3E5 		strb	r2, [r3]
 772              		.loc 1 416 0
 773 004c 103094E5 		ldr	r3, [r4, #16]
 774 0050 142094E5 		ldr	r2, [r4, #20]
 775 0054 030052E1 		cmp	r2, r3
 776              		.loc 1 417 0
 777 0058 0C309425 		ldrcs	r3, [r4, #12]
 778 005c 14308425 		strcs	r3, [r4, #20]
 779              		.loc 1 419 0
 780 0060 000058E3 		cmp	r8, #0
 781 0064 0100000A 		beq	.L83
 782              		.loc 1 420 0
 783 0068 0400A0E1 		mov	r0, r4
 784 006c 38FF2FE1 		blx	r8
 785              	.LVL58:
 786              	.L83:
 787              		.loc 1 422 0
 788              	@ 422 "../../os/kernel/src/chqueues.c" 1
 789 0070 1FF021E3 		msr     CPSR_c, #0x1F
 790              	@ 0 "" 2
 791              		.loc 1 424 0
 792 0074 016056E2 		subs	r6, r6, #1
 793              	.LVL59:
 794              		.loc 1 423 0
 795 0078 017087E2 		add	r7, r7, #1
 796              	.LVL60:
 797              		.loc 1 424 0
 798 007c 0800000A 		beq	.L80
ARM GAS  /tmp/cconxEuC.s 			page 15


 799              		.loc 1 426 0
 800              	@ 426 "../../os/kernel/src/chqueues.c" 1
 801 0080 9FF021E3 		msr     CPSR_c, #0x9F
 802              	@ 0 "" 2
 803              		.loc 1 415 0
 804 0084 0A50A0E1 		mov	r5, r10
 805              		.loc 1 427 0
 806 0088 E4FFFFEA 		b	.L78
 807              	.LVL61:
 808              	.L81:
 809              		.loc 1 409 0
 810 008c 0400A0E1 		mov	r0, r4
 811 0090 0910A0E1 		mov	r1, r9
 812 0094 FEFFFFEB 		bl	qwait
 813              	.LVL62:
 814 0098 000050E3 		cmp	r0, #0
 815 009c DFFFFF0A 		beq	.L78
 816              		.loc 1 410 0
 817              	@ 410 "../../os/kernel/src/chqueues.c" 1
 818 00a0 1FF021E3 		msr     CPSR_c, #0x1F
 819              	@ 0 "" 2
 820              	.LVL63:
 821              	.L80:
 822              		.loc 1 428 0
 823 00a4 0700A0E1 		mov	r0, r7
 824 00a8 F087BDE8 		ldmfd	sp!, {r4, r5, r6, r7, r8, r9, r10, pc}
 825              		.cfi_endproc
 826              	.LFE17:
 827              		.size	chOQWriteTimeout, .-chOQWriteTimeout
 828              		.text
 829              	.Letext0:
 830              		.file 3 "/usr/lib/gcc/arm-none-eabi/4.9.3/include/stddef.h"
 831              		.file 4 "/usr/include/newlib/machine/_default_types.h"
 832              		.file 5 "/usr/include/newlib/sys/_stdint.h"
 833              		.file 6 "../../os/ports/GCC/ARM/chtypes.h"
 834              		.file 7 "../../os/kernel/include/chlists.h"
 835              		.file 8 "../../os/kernel/include/chthreads.h"
 836              		.file 9 "../../os/ports/GCC/ARM/chcore.h"
 837              		.file 10 "../../os/kernel/include/chschd.h"
 838              		.file 11 "../../os/kernel/include/chmtx.h"
 839              		.file 12 "../../os/kernel/include/chqueues.h"
 840              		.section	.debug_info,"",%progbits
 841              	.Ldebug_info0:
 842 0000 4A0A0000 		.4byte	0xa4a
 843 0004 0400     		.2byte	0x4
 844 0006 00000000 		.4byte	.Ldebug_abbrev0
 845 000a 04       		.byte	0x4
 846 000b 01       		.uleb128 0x1
 847 000c C8030000 		.4byte	.LASF93
 848 0010 01       		.byte	0x1
 849 0011 85010000 		.4byte	.LASF94
 850 0015 49030000 		.4byte	.LASF95
 851 0019 30000000 		.4byte	.Ldebug_ranges0+0x30
 852 001d 00000000 		.4byte	0
 853 0021 00000000 		.4byte	.Ldebug_line0
 854 0025 02       		.uleb128 0x2
 855 0026 04       		.byte	0x4
ARM GAS  /tmp/cconxEuC.s 			page 16


 856 0027 05       		.byte	0x5
 857 0028 696E7400 		.ascii	"int\000"
 858 002c 03       		.uleb128 0x3
 859 002d 21000000 		.4byte	.LASF2
 860 0031 03       		.byte	0x3
 861 0032 D4       		.byte	0xd4
 862 0033 37000000 		.4byte	0x37
 863 0037 04       		.uleb128 0x4
 864 0038 04       		.byte	0x4
 865 0039 07       		.byte	0x7
 866 003a 2D010000 		.4byte	.LASF0
 867 003e 04       		.uleb128 0x4
 868 003f 01       		.byte	0x1
 869 0040 06       		.byte	0x6
 870 0041 9D000000 		.4byte	.LASF1
 871 0045 03       		.uleb128 0x3
 872 0046 44000000 		.4byte	.LASF3
 873 004a 04       		.byte	0x4
 874 004b 1D       		.byte	0x1d
 875 004c 50000000 		.4byte	0x50
 876 0050 04       		.uleb128 0x4
 877 0051 01       		.byte	0x1
 878 0052 08       		.byte	0x8
 879 0053 61020000 		.4byte	.LASF4
 880 0057 04       		.uleb128 0x4
 881 0058 02       		.byte	0x2
 882 0059 05       		.byte	0x5
 883 005a 79020000 		.4byte	.LASF5
 884 005e 04       		.uleb128 0x4
 885 005f 02       		.byte	0x2
 886 0060 07       		.byte	0x7
 887 0061 64010000 		.4byte	.LASF6
 888 0065 03       		.uleb128 0x3
 889 0066 16030000 		.4byte	.LASF7
 890 006a 04       		.byte	0x4
 891 006b 3F       		.byte	0x3f
 892 006c 70000000 		.4byte	0x70
 893 0070 04       		.uleb128 0x4
 894 0071 04       		.byte	0x4
 895 0072 05       		.byte	0x5
 896 0073 C8000000 		.4byte	.LASF8
 897 0077 03       		.uleb128 0x3
 898 0078 FC000000 		.4byte	.LASF9
 899 007c 04       		.byte	0x4
 900 007d 41       		.byte	0x41
 901 007e 82000000 		.4byte	0x82
 902 0082 04       		.uleb128 0x4
 903 0083 04       		.byte	0x4
 904 0084 07       		.byte	0x7
 905 0085 45010000 		.4byte	.LASF10
 906 0089 04       		.uleb128 0x4
 907 008a 08       		.byte	0x8
 908 008b 05       		.byte	0x5
 909 008c 8F000000 		.4byte	.LASF11
 910 0090 04       		.uleb128 0x4
 911 0091 08       		.byte	0x8
 912 0092 07       		.byte	0x7
ARM GAS  /tmp/cconxEuC.s 			page 17


 913 0093 5E000000 		.4byte	.LASF12
 914 0097 03       		.uleb128 0x3
 915 0098 B2030000 		.4byte	.LASF13
 916 009c 05       		.byte	0x5
 917 009d 14       		.byte	0x14
 918 009e 45000000 		.4byte	0x45
 919 00a2 03       		.uleb128 0x3
 920 00a3 59020000 		.4byte	.LASF14
 921 00a7 05       		.byte	0x5
 922 00a8 1F       		.byte	0x1f
 923 00a9 65000000 		.4byte	0x65
 924 00ad 03       		.uleb128 0x3
 925 00ae CC020000 		.4byte	.LASF15
 926 00b2 05       		.byte	0x5
 927 00b3 20       		.byte	0x20
 928 00b4 77000000 		.4byte	0x77
 929 00b8 03       		.uleb128 0x3
 930 00b9 A9000000 		.4byte	.LASF16
 931 00bd 06       		.byte	0x6
 932 00be 29       		.byte	0x29
 933 00bf A2000000 		.4byte	0xa2
 934 00c3 03       		.uleb128 0x3
 935 00c4 AA020000 		.4byte	.LASF17
 936 00c8 06       		.byte	0x6
 937 00c9 2A       		.byte	0x2a
 938 00ca 97000000 		.4byte	0x97
 939 00ce 03       		.uleb128 0x3
 940 00cf D1000000 		.4byte	.LASF18
 941 00d3 06       		.byte	0x6
 942 00d4 2B       		.byte	0x2b
 943 00d5 97000000 		.4byte	0x97
 944 00d9 03       		.uleb128 0x3
 945 00da 30020000 		.4byte	.LASF19
 946 00de 06       		.byte	0x6
 947 00df 2C       		.byte	0x2c
 948 00e0 97000000 		.4byte	0x97
 949 00e4 03       		.uleb128 0x3
 950 00e5 B8000000 		.4byte	.LASF20
 951 00e9 06       		.byte	0x6
 952 00ea 2D       		.byte	0x2d
 953 00eb 97000000 		.4byte	0x97
 954 00ef 03       		.uleb128 0x3
 955 00f0 49020000 		.4byte	.LASF21
 956 00f4 06       		.byte	0x6
 957 00f5 2E       		.byte	0x2e
 958 00f6 AD000000 		.4byte	0xad
 959 00fa 03       		.uleb128 0x3
 960 00fb 77010000 		.4byte	.LASF22
 961 00ff 06       		.byte	0x6
 962 0100 2F       		.byte	0x2f
 963 0101 A2000000 		.4byte	0xa2
 964 0105 03       		.uleb128 0x3
 965 0106 B0010000 		.4byte	.LASF23
 966 010a 06       		.byte	0x6
 967 010b 31       		.byte	0x31
 968 010c AD000000 		.4byte	0xad
 969 0110 03       		.uleb128 0x3
ARM GAS  /tmp/cconxEuC.s 			page 18


 970 0111 01030000 		.4byte	.LASF24
 971 0115 06       		.byte	0x6
 972 0116 33       		.byte	0x33
 973 0117 AD000000 		.4byte	0xad
 974 011b 03       		.uleb128 0x3
 975 011c BA020000 		.4byte	.LASF25
 976 0120 07       		.byte	0x7
 977 0121 23       		.byte	0x23
 978 0122 26010000 		.4byte	0x126
 979 0126 05       		.uleb128 0x5
 980 0127 BA020000 		.4byte	.LASF25
 981 012b 44       		.byte	0x44
 982 012c 08       		.byte	0x8
 983 012d 57       		.byte	0x57
 984 012e 17020000 		.4byte	0x217
 985 0132 06       		.uleb128 0x6
 986 0133 A3020000 		.4byte	.LASF26
 987 0137 08       		.byte	0x8
 988 0138 58       		.byte	0x58
 989 0139 38020000 		.4byte	0x238
 990 013d 00       		.byte	0
 991 013e 06       		.uleb128 0x6
 992 013f 42020000 		.4byte	.LASF27
 993 0143 08       		.byte	0x8
 994 0144 5A       		.byte	0x5a
 995 0145 38020000 		.4byte	0x238
 996 0149 04       		.byte	0x4
 997 014a 06       		.uleb128 0x6
 998 014b 7E000000 		.4byte	.LASF28
 999 014f 08       		.byte	0x8
 1000 0150 5C       		.byte	0x5c
 1001 0151 EF000000 		.4byte	0xef
 1002 0155 08       		.byte	0x8
 1003 0156 06       		.uleb128 0x6
 1004 0157 78040000 		.4byte	.LASF29
 1005 015b 08       		.byte	0x8
 1006 015c 5D       		.byte	0x5d
 1007 015d E8020000 		.4byte	0x2e8
 1008 0161 0C       		.byte	0xc
 1009 0162 06       		.uleb128 0x6
 1010 0163 F4000000 		.4byte	.LASF30
 1011 0167 08       		.byte	0x8
 1012 0168 5F       		.byte	0x5f
 1013 0169 38020000 		.4byte	0x238
 1014 016d 10       		.byte	0x10
 1015 016e 06       		.uleb128 0x6
 1016 016f FE010000 		.4byte	.LASF31
 1017 0173 08       		.byte	0x8
 1018 0174 60       		.byte	0x60
 1019 0175 38020000 		.4byte	0x238
 1020 0179 14       		.byte	0x14
 1021 017a 06       		.uleb128 0x6
 1022 017b C1030000 		.4byte	.LASF32
 1023 017f 08       		.byte	0x8
 1024 0180 67       		.byte	0x67
 1025 0181 DF030000 		.4byte	0x3df
 1026 0185 18       		.byte	0x18
ARM GAS  /tmp/cconxEuC.s 			page 19


 1027 0186 06       		.uleb128 0x6
 1028 0187 83020000 		.4byte	.LASF33
 1029 018b 08       		.byte	0x8
 1030 018c 72       		.byte	0x72
 1031 018d CE000000 		.4byte	0xce
 1032 0191 1C       		.byte	0x1c
 1033 0192 06       		.uleb128 0x6
 1034 0193 B2020000 		.4byte	.LASF34
 1035 0197 08       		.byte	0x8
 1036 0198 76       		.byte	0x76
 1037 0199 C3000000 		.4byte	0xc3
 1038 019d 1D       		.byte	0x1d
 1039 019e 06       		.uleb128 0x6
 1040 019f 92030000 		.4byte	.LASF35
 1041 01a3 08       		.byte	0x8
 1042 01a4 7B       		.byte	0x7b
 1043 01a5 D9000000 		.4byte	0xd9
 1044 01a9 1E       		.byte	0x1e
 1045 01aa 06       		.uleb128 0x6
 1046 01ab 8B020000 		.4byte	.LASF36
 1047 01af 08       		.byte	0x8
 1048 01b0 81       		.byte	0x81
 1049 01b1 E4000000 		.4byte	0xe4
 1050 01b5 1F       		.byte	0x1f
 1051 01b6 06       		.uleb128 0x6
 1052 01b7 30030000 		.4byte	.LASF37
 1053 01bb 08       		.byte	0x8
 1054 01bc 88       		.byte	0x88
 1055 01bd 07030000 		.4byte	0x307
 1056 01c1 20       		.byte	0x20
 1057 01c2 07       		.uleb128 0x7
 1058 01c3 705F7500 		.ascii	"p_u\000"
 1059 01c7 08       		.byte	0x8
 1060 01c8 AD       		.byte	0xad
 1061 01c9 AA030000 		.4byte	0x3aa
 1062 01cd 24       		.byte	0x24
 1063 01ce 06       		.uleb128 0x6
 1064 01cf 7E040000 		.4byte	.LASF38
 1065 01d3 08       		.byte	0x8
 1066 01d4 B2       		.byte	0xb2
 1067 01d5 5E020000 		.4byte	0x25e
 1068 01d9 28       		.byte	0x28
 1069 01da 06       		.uleb128 0x6
 1070 01db 3E030000 		.4byte	.LASF39
 1071 01df 08       		.byte	0x8
 1072 01e0 B8       		.byte	0xb8
 1073 01e1 3E020000 		.4byte	0x23e
 1074 01e5 2C       		.byte	0x2c
 1075 01e6 06       		.uleb128 0x6
 1076 01e7 09000000 		.4byte	.LASF40
 1077 01eb 08       		.byte	0x8
 1078 01ec BC       		.byte	0xbc
 1079 01ed FA000000 		.4byte	0xfa
 1080 01f1 34       		.byte	0x34
 1081 01f2 06       		.uleb128 0x6
 1082 01f3 C1020000 		.4byte	.LASF41
 1083 01f7 08       		.byte	0x8
ARM GAS  /tmp/cconxEuC.s 			page 20


 1084 01f8 C2       		.byte	0xc2
 1085 01f9 05010000 		.4byte	0x105
 1086 01fd 38       		.byte	0x38
 1087 01fe 06       		.uleb128 0x6
 1088 01ff 6F020000 		.4byte	.LASF42
 1089 0203 08       		.byte	0x8
 1090 0204 C9       		.byte	0xc9
 1091 0205 F1030000 		.4byte	0x3f1
 1092 0209 3C       		.byte	0x3c
 1093 020a 06       		.uleb128 0x6
 1094 020b 0B030000 		.4byte	.LASF43
 1095 020f 08       		.byte	0x8
 1096 0210 CD       		.byte	0xcd
 1097 0211 EF000000 		.4byte	0xef
 1098 0215 40       		.byte	0x40
 1099 0216 00       		.byte	0
 1100 0217 08       		.uleb128 0x8
 1101 0218 08       		.byte	0x8
 1102 0219 07       		.byte	0x7
 1103 021a 5A       		.byte	0x5a
 1104 021b 38020000 		.4byte	0x238
 1105 021f 06       		.uleb128 0x6
 1106 0220 A3020000 		.4byte	.LASF26
 1107 0224 07       		.byte	0x7
 1108 0225 5B       		.byte	0x5b
 1109 0226 38020000 		.4byte	0x238
 1110 022a 00       		.byte	0
 1111 022b 06       		.uleb128 0x6
 1112 022c 42020000 		.4byte	.LASF27
 1113 0230 07       		.byte	0x7
 1114 0231 5D       		.byte	0x5d
 1115 0232 38020000 		.4byte	0x238
 1116 0236 04       		.byte	0x4
 1117 0237 00       		.byte	0
 1118 0238 09       		.uleb128 0x9
 1119 0239 04       		.byte	0x4
 1120 023a 1B010000 		.4byte	0x11b
 1121 023e 03       		.uleb128 0x3
 1122 023f 0C020000 		.4byte	.LASF44
 1123 0243 07       		.byte	0x7
 1124 0244 5F       		.byte	0x5f
 1125 0245 17020000 		.4byte	0x217
 1126 0249 08       		.uleb128 0x8
 1127 024a 04       		.byte	0x4
 1128 024b 07       		.byte	0x7
 1129 024c 64       		.byte	0x64
 1130 024d 5E020000 		.4byte	0x25e
 1131 0251 06       		.uleb128 0x6
 1132 0252 A3020000 		.4byte	.LASF26
 1133 0256 07       		.byte	0x7
 1134 0257 66       		.byte	0x66
 1135 0258 38020000 		.4byte	0x238
 1136 025c 00       		.byte	0
 1137 025d 00       		.byte	0
 1138 025e 03       		.uleb128 0x3
 1139 025f A4010000 		.4byte	.LASF45
 1140 0263 07       		.byte	0x7
ARM GAS  /tmp/cconxEuC.s 			page 21


 1141 0264 69       		.byte	0x69
 1142 0265 49020000 		.4byte	0x249
 1143 0269 03       		.uleb128 0x3
 1144 026a 07010000 		.4byte	.LASF46
 1145 026e 09       		.byte	0x9
 1146 026f A2       		.byte	0xa2
 1147 0270 74020000 		.4byte	0x274
 1148 0274 0A       		.uleb128 0xa
 1149 0275 04       		.byte	0x4
 1150 0276 05       		.uleb128 0x5
 1151 0277 37030000 		.4byte	.LASF47
 1152 027b 24       		.byte	0x24
 1153 027c 09       		.byte	0x9
 1154 027d B9       		.byte	0xb9
 1155 027e E8020000 		.4byte	0x2e8
 1156 0282 07       		.uleb128 0x7
 1157 0283 723400   		.ascii	"r4\000"
 1158 0286 09       		.byte	0x9
 1159 0287 BA       		.byte	0xba
 1160 0288 69020000 		.4byte	0x269
 1161 028c 00       		.byte	0
 1162 028d 07       		.uleb128 0x7
 1163 028e 723500   		.ascii	"r5\000"
 1164 0291 09       		.byte	0x9
 1165 0292 BB       		.byte	0xbb
 1166 0293 69020000 		.4byte	0x269
 1167 0297 04       		.byte	0x4
 1168 0298 07       		.uleb128 0x7
 1169 0299 723600   		.ascii	"r6\000"
 1170 029c 09       		.byte	0x9
 1171 029d BC       		.byte	0xbc
 1172 029e 69020000 		.4byte	0x269
 1173 02a2 08       		.byte	0x8
 1174 02a3 07       		.uleb128 0x7
 1175 02a4 723700   		.ascii	"r7\000"
 1176 02a7 09       		.byte	0x9
 1177 02a8 BD       		.byte	0xbd
 1178 02a9 69020000 		.4byte	0x269
 1179 02ad 0C       		.byte	0xc
 1180 02ae 07       		.uleb128 0x7
 1181 02af 723800   		.ascii	"r8\000"
 1182 02b2 09       		.byte	0x9
 1183 02b3 BE       		.byte	0xbe
 1184 02b4 69020000 		.4byte	0x269
 1185 02b8 10       		.byte	0x10
 1186 02b9 07       		.uleb128 0x7
 1187 02ba 723900   		.ascii	"r9\000"
 1188 02bd 09       		.byte	0x9
 1189 02be BF       		.byte	0xbf
 1190 02bf 69020000 		.4byte	0x269
 1191 02c3 14       		.byte	0x14
 1192 02c4 07       		.uleb128 0x7
 1193 02c5 72313000 		.ascii	"r10\000"
 1194 02c9 09       		.byte	0x9
 1195 02ca C0       		.byte	0xc0
 1196 02cb 69020000 		.4byte	0x269
 1197 02cf 18       		.byte	0x18
ARM GAS  /tmp/cconxEuC.s 			page 22


 1198 02d0 07       		.uleb128 0x7
 1199 02d1 72313100 		.ascii	"r11\000"
 1200 02d5 09       		.byte	0x9
 1201 02d6 C1       		.byte	0xc1
 1202 02d7 69020000 		.4byte	0x269
 1203 02db 1C       		.byte	0x1c
 1204 02dc 07       		.uleb128 0x7
 1205 02dd 6C7200   		.ascii	"lr\000"
 1206 02e0 09       		.byte	0x9
 1207 02e1 C2       		.byte	0xc2
 1208 02e2 69020000 		.4byte	0x269
 1209 02e6 20       		.byte	0x20
 1210 02e7 00       		.byte	0
 1211 02e8 05       		.uleb128 0x5
 1212 02e9 57010000 		.4byte	.LASF48
 1213 02ed 04       		.byte	0x4
 1214 02ee 09       		.byte	0x9
 1215 02ef CA       		.byte	0xca
 1216 02f0 01030000 		.4byte	0x301
 1217 02f4 07       		.uleb128 0x7
 1218 02f5 72313300 		.ascii	"r13\000"
 1219 02f9 09       		.byte	0x9
 1220 02fa CB       		.byte	0xcb
 1221 02fb 01030000 		.4byte	0x301
 1222 02ff 00       		.byte	0
 1223 0300 00       		.byte	0
 1224 0301 09       		.uleb128 0x9
 1225 0302 04       		.byte	0x4
 1226 0303 76020000 		.4byte	0x276
 1227 0307 0B       		.uleb128 0xb
 1228 0308 10010000 		.4byte	0x110
 1229 030c 08       		.uleb128 0x8
 1230 030d 1C       		.byte	0x1c
 1231 030e 0A       		.byte	0xa
 1232 030f 57       		.byte	0x57
 1233 0310 5D030000 		.4byte	0x35d
 1234 0314 06       		.uleb128 0x6
 1235 0315 D5020000 		.4byte	.LASF49
 1236 0319 0A       		.byte	0xa
 1237 031a 58       		.byte	0x58
 1238 031b 3E020000 		.4byte	0x23e
 1239 031f 00       		.byte	0
 1240 0320 06       		.uleb128 0x6
 1241 0321 95020000 		.4byte	.LASF50
 1242 0325 0A       		.byte	0xa
 1243 0326 59       		.byte	0x59
 1244 0327 EF000000 		.4byte	0xef
 1245 032b 08       		.byte	0x8
 1246 032c 06       		.uleb128 0x6
 1247 032d 06020000 		.4byte	.LASF51
 1248 0331 0A       		.byte	0xa
 1249 0332 5B       		.byte	0x5b
 1250 0333 E8020000 		.4byte	0x2e8
 1251 0337 0C       		.byte	0xc
 1252 0338 06       		.uleb128 0x6
 1253 0339 7D010000 		.4byte	.LASF52
 1254 033d 0A       		.byte	0xa
ARM GAS  /tmp/cconxEuC.s 			page 23


 1255 033e 5E       		.byte	0x5e
 1256 033f 38020000 		.4byte	0x238
 1257 0343 10       		.byte	0x10
 1258 0344 06       		.uleb128 0x6
 1259 0345 28020000 		.4byte	.LASF53
 1260 0349 0A       		.byte	0xa
 1261 034a 5F       		.byte	0x5f
 1262 034b 38020000 		.4byte	0x238
 1263 034f 14       		.byte	0x14
 1264 0350 06       		.uleb128 0x6
 1265 0351 1E020000 		.4byte	.LASF54
 1266 0355 0A       		.byte	0xa
 1267 0356 62       		.byte	0x62
 1268 0357 38020000 		.4byte	0x238
 1269 035b 18       		.byte	0x18
 1270 035c 00       		.byte	0
 1271 035d 03       		.uleb128 0x3
 1272 035e 99030000 		.4byte	.LASF55
 1273 0362 0A       		.byte	0xa
 1274 0363 64       		.byte	0x64
 1275 0364 0C030000 		.4byte	0x30c
 1276 0368 05       		.uleb128 0x5
 1277 0369 C7010000 		.4byte	.LASF56
 1278 036d 10       		.byte	0x10
 1279 036e 0B       		.byte	0xb
 1280 036f 25       		.byte	0x25
 1281 0370 99030000 		.4byte	0x399
 1282 0374 06       		.uleb128 0x6
 1283 0375 B0000000 		.4byte	.LASF57
 1284 0379 0B       		.byte	0xb
 1285 037a 26       		.byte	0x26
 1286 037b 3E020000 		.4byte	0x23e
 1287 037f 00       		.byte	0
 1288 0380 06       		.uleb128 0x6
 1289 0381 70040000 		.4byte	.LASF58
 1290 0385 0B       		.byte	0xb
 1291 0386 28       		.byte	0x28
 1292 0387 38020000 		.4byte	0x238
 1293 038b 08       		.byte	0x8
 1294 038c 06       		.uleb128 0x6
 1295 038d FA020000 		.4byte	.LASF59
 1296 0391 0B       		.byte	0xb
 1297 0392 2A       		.byte	0x2a
 1298 0393 99030000 		.4byte	0x399
 1299 0397 0C       		.byte	0xc
 1300 0398 00       		.byte	0
 1301 0399 09       		.uleb128 0x9
 1302 039a 04       		.byte	0x4
 1303 039b 68030000 		.4byte	0x368
 1304 039f 03       		.uleb128 0x3
 1305 03a0 C7010000 		.4byte	.LASF56
 1306 03a4 0B       		.byte	0xb
 1307 03a5 2C       		.byte	0x2c
 1308 03a6 68030000 		.4byte	0x368
 1309 03aa 0C       		.uleb128 0xc
 1310 03ab 04       		.byte	0x4
 1311 03ac 08       		.byte	0x8
ARM GAS  /tmp/cconxEuC.s 			page 24


 1312 03ad 8F       		.byte	0x8f
 1313 03ae DF030000 		.4byte	0x3df
 1314 03b2 0D       		.uleb128 0xd
 1315 03b3 28000000 		.4byte	.LASF60
 1316 03b7 08       		.byte	0x8
 1317 03b8 96       		.byte	0x96
 1318 03b9 FA000000 		.4byte	0xfa
 1319 03bd 0D       		.uleb128 0xd
 1320 03be 75000000 		.4byte	.LASF61
 1321 03c2 08       		.byte	0x8
 1322 03c3 9D       		.byte	0x9d
 1323 03c4 FA000000 		.4byte	0xfa
 1324 03c8 0D       		.uleb128 0xd
 1325 03c9 BA030000 		.4byte	.LASF62
 1326 03cd 08       		.byte	0x8
 1327 03ce A4       		.byte	0xa4
 1328 03cf 74020000 		.4byte	0x274
 1329 03d3 0D       		.uleb128 0xd
 1330 03d4 9C020000 		.4byte	.LASF63
 1331 03d8 08       		.byte	0x8
 1332 03d9 AB       		.byte	0xab
 1333 03da 05010000 		.4byte	0x105
 1334 03de 00       		.byte	0
 1335 03df 09       		.uleb128 0x9
 1336 03e0 04       		.byte	0x4
 1337 03e1 E5030000 		.4byte	0x3e5
 1338 03e5 0E       		.uleb128 0xe
 1339 03e6 EA030000 		.4byte	0x3ea
 1340 03ea 04       		.uleb128 0x4
 1341 03eb 01       		.byte	0x1
 1342 03ec 08       		.byte	0x8
 1343 03ed E9020000 		.4byte	.LASF64
 1344 03f1 09       		.uleb128 0x9
 1345 03f2 04       		.byte	0x4
 1346 03f3 9F030000 		.4byte	0x39f
 1347 03f7 04       		.uleb128 0x4
 1348 03f8 04       		.byte	0x4
 1349 03f9 07       		.byte	0x7
 1350 03fa EB010000 		.4byte	.LASF65
 1351 03fe 03       		.uleb128 0x3
 1352 03ff CD010000 		.4byte	.LASF66
 1353 0403 0C       		.byte	0xc
 1354 0404 30       		.byte	0x30
 1355 0405 09040000 		.4byte	0x409
 1356 0409 05       		.uleb128 0x5
 1357 040a CD010000 		.4byte	.LASF66
 1358 040e 24       		.byte	0x24
 1359 040f 0C       		.byte	0xc
 1360 0410 3E       		.byte	0x3e
 1361 0411 76040000 		.4byte	0x476
 1362 0415 06       		.uleb128 0x6
 1363 0416 85000000 		.4byte	.LASF67
 1364 041a 0C       		.byte	0xc
 1365 041b 3F       		.byte	0x3f
 1366 041c 3E020000 		.4byte	0x23e
 1367 0420 00       		.byte	0
 1368 0421 06       		.uleb128 0x6
ARM GAS  /tmp/cconxEuC.s 			page 25


 1369 0422 F4010000 		.4byte	.LASF68
 1370 0426 0C       		.byte	0xc
 1371 0427 40       		.byte	0x40
 1372 0428 2C000000 		.4byte	0x2c
 1373 042c 08       		.byte	0x8
 1374 042d 06       		.uleb128 0x6
 1375 042e E3000000 		.4byte	.LASF69
 1376 0432 0C       		.byte	0xc
 1377 0433 41       		.byte	0x41
 1378 0434 98040000 		.4byte	0x498
 1379 0438 0C       		.byte	0xc
 1380 0439 06       		.uleb128 0x6
 1381 043a 8C030000 		.4byte	.LASF70
 1382 043e 0C       		.byte	0xc
 1383 043f 42       		.byte	0x42
 1384 0440 98040000 		.4byte	0x498
 1385 0444 10       		.byte	0x10
 1386 0445 06       		.uleb128 0x6
 1387 0446 EC000000 		.4byte	.LASF71
 1388 044a 0C       		.byte	0xc
 1389 044b 44       		.byte	0x44
 1390 044c 98040000 		.4byte	0x498
 1391 0450 14       		.byte	0x14
 1392 0451 06       		.uleb128 0x6
 1393 0452 51020000 		.4byte	.LASF72
 1394 0456 0C       		.byte	0xc
 1395 0457 45       		.byte	0x45
 1396 0458 98040000 		.4byte	0x498
 1397 045c 18       		.byte	0x18
 1398 045d 06       		.uleb128 0x6
 1399 045e A3030000 		.4byte	.LASF73
 1400 0462 0C       		.byte	0xc
 1401 0463 46       		.byte	0x46
 1402 0464 76040000 		.4byte	0x476
 1403 0468 1C       		.byte	0x1c
 1404 0469 06       		.uleb128 0x6
 1405 046a 69040000 		.4byte	.LASF74
 1406 046e 0C       		.byte	0xc
 1407 046f 47       		.byte	0x47
 1408 0470 74020000 		.4byte	0x274
 1409 0474 20       		.byte	0x20
 1410 0475 00       		.byte	0
 1411 0476 03       		.uleb128 0x3
 1412 0477 38020000 		.4byte	.LASF75
 1413 047b 0C       		.byte	0xc
 1414 047c 33       		.byte	0x33
 1415 047d 81040000 		.4byte	0x481
 1416 0481 09       		.uleb128 0x9
 1417 0482 04       		.byte	0x4
 1418 0483 87040000 		.4byte	0x487
 1419 0487 0F       		.uleb128 0xf
 1420 0488 92040000 		.4byte	0x492
 1421 048c 10       		.uleb128 0x10
 1422 048d 92040000 		.4byte	0x492
 1423 0491 00       		.byte	0
 1424 0492 09       		.uleb128 0x9
 1425 0493 04       		.byte	0x4
ARM GAS  /tmp/cconxEuC.s 			page 26


 1426 0494 FE030000 		.4byte	0x3fe
 1427 0498 09       		.uleb128 0x9
 1428 0499 04       		.byte	0x4
 1429 049a 97000000 		.4byte	0x97
 1430 049e 03       		.uleb128 0x3
 1431 049f BC010000 		.4byte	.LASF76
 1432 04a3 0C       		.byte	0xc
 1433 04a4 7B       		.byte	0x7b
 1434 04a5 FE030000 		.4byte	0x3fe
 1435 04a9 03       		.uleb128 0x3
 1436 04aa 38000000 		.4byte	.LASF77
 1437 04ae 0C       		.byte	0xc
 1438 04af EE       		.byte	0xee
 1439 04b0 FE030000 		.4byte	0x3fe
 1440 04b4 09       		.uleb128 0x9
 1441 04b5 04       		.byte	0x4
 1442 04b6 BA040000 		.4byte	0x4ba
 1443 04ba 0E       		.uleb128 0xe
 1444 04bb 97000000 		.4byte	0x97
 1445 04bf 11       		.uleb128 0x11
 1446 04c0 0F000000 		.4byte	.LASF96
 1447 04c4 02       		.byte	0x2
 1448 04c5 2D       		.byte	0x2d
 1449 04c6 03       		.byte	0x3
 1450 04c7 E1040000 		.4byte	0x4e1
 1451 04cb 12       		.uleb128 0x12
 1452 04cc 747000   		.ascii	"tp\000"
 1453 04cf 02       		.byte	0x2
 1454 04d0 2D       		.byte	0x2d
 1455 04d1 38020000 		.4byte	0x238
 1456 04d5 12       		.uleb128 0x12
 1457 04d6 74717000 		.ascii	"tqp\000"
 1458 04da 02       		.byte	0x2
 1459 04db 2D       		.byte	0x2d
 1460 04dc E1040000 		.4byte	0x4e1
 1461 04e0 00       		.byte	0
 1462 04e1 09       		.uleb128 0x9
 1463 04e2 04       		.byte	0x4
 1464 04e3 3E020000 		.4byte	0x23e
 1465 04e7 13       		.uleb128 0x13
 1466 04e8 EE020000 		.4byte	.LASF97
 1467 04ec 02       		.byte	0x2
 1468 04ed 34       		.byte	0x34
 1469 04ee 38020000 		.4byte	0x238
 1470 04f2 03       		.byte	0x3
 1471 04f3 0D050000 		.4byte	0x50d
 1472 04f7 12       		.uleb128 0x12
 1473 04f8 74717000 		.ascii	"tqp\000"
 1474 04fc 02       		.byte	0x2
 1475 04fd 34       		.byte	0x34
 1476 04fe E1040000 		.4byte	0x4e1
 1477 0502 14       		.uleb128 0x14
 1478 0503 747000   		.ascii	"tp\000"
 1479 0506 02       		.byte	0x2
 1480 0507 35       		.byte	0x35
 1481 0508 38020000 		.4byte	0x238
 1482 050c 00       		.byte	0
ARM GAS  /tmp/cconxEuC.s 			page 27


 1483 050d 15       		.uleb128 0x15
 1484 050e C2000000 		.4byte	.LASF98
 1485 0512 01       		.byte	0x1
 1486 0513 3F       		.byte	0x3f
 1487 0514 FA000000 		.4byte	0xfa
 1488 0518 00000000 		.4byte	.LFB7
 1489 051c 3C000000 		.4byte	.LFE7-.LFB7
 1490 0520 01       		.uleb128 0x1
 1491 0521 9C       		.byte	0x9c
 1492 0522 80050000 		.4byte	0x580
 1493 0526 16       		.uleb128 0x16
 1494 0527 717000   		.ascii	"qp\000"
 1495 052a 01       		.byte	0x1
 1496 052b 3F       		.byte	0x3f
 1497 052c 92040000 		.4byte	0x492
 1498 0530 00000000 		.4byte	.LLST0
 1499 0534 17       		.uleb128 0x17
 1500 0535 19020000 		.4byte	.LASF78
 1501 0539 01       		.byte	0x1
 1502 053a 3F       		.byte	0x3f
 1503 053b 10010000 		.4byte	0x110
 1504 053f 42000000 		.4byte	.LLST1
 1505 0543 18       		.uleb128 0x18
 1506 0544 BF040000 		.4byte	0x4bf
 1507 0548 1C000000 		.4byte	.LBB12
 1508 054c 10000000 		.4byte	.LBE12-.LBB12
 1509 0550 01       		.byte	0x1
 1510 0551 44       		.byte	0x44
 1511 0552 69050000 		.4byte	0x569
 1512 0556 19       		.uleb128 0x19
 1513 0557 D5040000 		.4byte	0x4d5
 1514 055b 6E000000 		.4byte	.LLST2
 1515 055f 19       		.uleb128 0x19
 1516 0560 CB040000 		.4byte	0x4cb
 1517 0564 8F000000 		.4byte	.LLST3
 1518 0568 00       		.byte	0
 1519 0569 1A       		.uleb128 0x1a
 1520 056a 30000000 		.4byte	.LVL3
 1521 056e 220A0000 		.4byte	0xa22
 1522 0572 1B       		.uleb128 0x1b
 1523 0573 01       		.uleb128 0x1
 1524 0574 51       		.byte	0x51
 1525 0575 03       		.uleb128 0x3
 1526 0576 F3       		.byte	0xf3
 1527 0577 01       		.uleb128 0x1
 1528 0578 51       		.byte	0x51
 1529 0579 1B       		.uleb128 0x1b
 1530 057a 01       		.uleb128 0x1
 1531 057b 50       		.byte	0x50
 1532 057c 01       		.uleb128 0x1
 1533 057d 3D       		.byte	0x3d
 1534 057e 00       		.byte	0
 1535 057f 00       		.byte	0
 1536 0580 1C       		.uleb128 0x1c
 1537 0581 2F000000 		.4byte	.LASF82
 1538 0585 01       		.byte	0x1
 1539 0586 58       		.byte	0x58
ARM GAS  /tmp/cconxEuC.s 			page 28


 1540 0587 00000000 		.4byte	.LFB8
 1541 058b 38000000 		.4byte	.LFE8-.LFB8
 1542 058f 01       		.uleb128 0x1
 1543 0590 9C       		.byte	0x9c
 1544 0591 D9050000 		.4byte	0x5d9
 1545 0595 1D       		.uleb128 0x1d
 1546 0596 69717000 		.ascii	"iqp\000"
 1547 059a 01       		.byte	0x1
 1548 059b 58       		.byte	0x58
 1549 059c D9050000 		.4byte	0x5d9
 1550 05a0 01       		.uleb128 0x1
 1551 05a1 50       		.byte	0x50
 1552 05a2 1D       		.uleb128 0x1d
 1553 05a3 627000   		.ascii	"bp\000"
 1554 05a6 01       		.byte	0x1
 1555 05a7 58       		.byte	0x58
 1556 05a8 98040000 		.4byte	0x498
 1557 05ac 01       		.uleb128 0x1
 1558 05ad 51       		.byte	0x51
 1559 05ae 17       		.uleb128 0x17
 1560 05af 5F010000 		.4byte	.LASF79
 1561 05b3 01       		.byte	0x1
 1562 05b4 58       		.byte	0x58
 1563 05b5 2C000000 		.4byte	0x2c
 1564 05b9 A2000000 		.4byte	.LLST4
 1565 05bd 1E       		.uleb128 0x1e
 1566 05be 20030000 		.4byte	.LASF80
 1567 05c2 01       		.byte	0x1
 1568 05c3 58       		.byte	0x58
 1569 05c4 76040000 		.4byte	0x476
 1570 05c8 01       		.uleb128 0x1
 1571 05c9 53       		.byte	0x53
 1572 05ca 1E       		.uleb128 0x1e
 1573 05cb 10010000 		.4byte	.LASF81
 1574 05cf 01       		.byte	0x1
 1575 05d0 59       		.byte	0x59
 1576 05d1 74020000 		.4byte	0x274
 1577 05d5 02       		.uleb128 0x2
 1578 05d6 91       		.byte	0x91
 1579 05d7 00       		.sleb128 0
 1580 05d8 00       		.byte	0
 1581 05d9 09       		.uleb128 0x9
 1582 05da 04       		.byte	0x4
 1583 05db 9E040000 		.4byte	0x49e
 1584 05df 1C       		.uleb128 0x1c
 1585 05e0 3A010000 		.4byte	.LASF83
 1586 05e4 01       		.byte	0x1
 1587 05e5 6E       		.byte	0x6e
 1588 05e6 00000000 		.4byte	.LFB9
 1589 05ea 50000000 		.4byte	.LFE9-.LFB9
 1590 05ee 01       		.uleb128 0x1
 1591 05ef 9C       		.byte	0x9c
 1592 05f0 3B060000 		.4byte	0x63b
 1593 05f4 16       		.uleb128 0x16
 1594 05f5 69717000 		.ascii	"iqp\000"
 1595 05f9 01       		.byte	0x1
 1596 05fa 6E       		.byte	0x6e
ARM GAS  /tmp/cconxEuC.s 			page 29


 1597 05fb D9050000 		.4byte	0x5d9
 1598 05ff C3000000 		.4byte	.LLST5
 1599 0603 18       		.uleb128 0x18
 1600 0604 E7040000 		.4byte	0x4e7
 1601 0608 2C000000 		.4byte	.LBB14
 1602 060c 0C000000 		.4byte	.LBE14-.LBB14
 1603 0610 01       		.byte	0x1
 1604 0611 75       		.byte	0x75
 1605 0612 31060000 		.4byte	0x631
 1606 0616 1F       		.uleb128 0x1f
 1607 0617 F7040000 		.4byte	0x4f7
 1608 061b 01       		.uleb128 0x1
 1609 061c 54       		.byte	0x54
 1610 061d 20       		.uleb128 0x20
 1611 061e 2C000000 		.4byte	.LBB15
 1612 0622 0C000000 		.4byte	.LBE15-.LBB15
 1613 0626 21       		.uleb128 0x21
 1614 0627 02050000 		.4byte	0x502
 1615 062b E1000000 		.4byte	.LLST6
 1616 062f 00       		.byte	0
 1617 0630 00       		.byte	0
 1618 0631 22       		.uleb128 0x22
 1619 0632 3C000000 		.4byte	.LVL10
 1620 0636 3C0A0000 		.4byte	0xa3c
 1621 063a 00       		.byte	0
 1622 063b 23       		.uleb128 0x23
 1623 063c 24010000 		.4byte	.LASF84
 1624 0640 01       		.byte	0x1
 1625 0641 85       		.byte	0x85
 1626 0642 FA000000 		.4byte	0xfa
 1627 0646 00000000 		.4byte	.LFB10
 1628 064a 88000000 		.4byte	.LFE10-.LFB10
 1629 064e 01       		.uleb128 0x1
 1630 064f 9C       		.byte	0x9c
 1631 0650 AA060000 		.4byte	0x6aa
 1632 0654 16       		.uleb128 0x16
 1633 0655 69717000 		.ascii	"iqp\000"
 1634 0659 01       		.byte	0x1
 1635 065a 85       		.byte	0x85
 1636 065b D9050000 		.4byte	0x5d9
 1637 065f F4000000 		.4byte	.LLST7
 1638 0663 16       		.uleb128 0x16
 1639 0664 6200     		.ascii	"b\000"
 1640 0666 01       		.byte	0x1
 1641 0667 85       		.byte	0x85
 1642 0668 97000000 		.4byte	0x97
 1643 066c 2B010000 		.4byte	.LLST8
 1644 0670 18       		.uleb128 0x18
 1645 0671 E7040000 		.4byte	0x4e7
 1646 0675 50000000 		.4byte	.LBB16
 1647 0679 0C000000 		.4byte	.LBE16-.LBB16
 1648 067d 01       		.byte	0x1
 1649 067e 92       		.byte	0x92
 1650 067f A0060000 		.4byte	0x6a0
 1651 0683 19       		.uleb128 0x19
 1652 0684 F7040000 		.4byte	0x4f7
 1653 0688 6F010000 		.4byte	.LLST9
ARM GAS  /tmp/cconxEuC.s 			page 30


 1654 068c 20       		.uleb128 0x20
 1655 068d 50000000 		.4byte	.LBB17
 1656 0691 0C000000 		.4byte	.LBE17-.LBB17
 1657 0695 21       		.uleb128 0x21
 1658 0696 02050000 		.4byte	0x502
 1659 069a 90010000 		.4byte	.LLST10
 1660 069e 00       		.byte	0
 1661 069f 00       		.byte	0
 1662 06a0 22       		.uleb128 0x22
 1663 06a1 60000000 		.4byte	.LVL17
 1664 06a5 3C0A0000 		.4byte	0xa3c
 1665 06a9 00       		.byte	0
 1666 06aa 23       		.uleb128 0x23
 1667 06ab 88040000 		.4byte	.LASF85
 1668 06af 01       		.byte	0x1
 1669 06b0 AB       		.byte	0xab
 1670 06b1 FA000000 		.4byte	0xfa
 1671 06b5 00000000 		.4byte	.LFB11
 1672 06b9 74000000 		.4byte	.LFE11-.LFB11
 1673 06bd 01       		.uleb128 0x1
 1674 06be 9C       		.byte	0x9c
 1675 06bf 2E070000 		.4byte	0x72e
 1676 06c3 16       		.uleb128 0x16
 1677 06c4 69717000 		.ascii	"iqp\000"
 1678 06c8 01       		.byte	0x1
 1679 06c9 AB       		.byte	0xab
 1680 06ca D9050000 		.4byte	0x5d9
 1681 06ce A3010000 		.4byte	.LLST11
 1682 06d2 17       		.uleb128 0x17
 1683 06d3 19020000 		.4byte	.LASF78
 1684 06d7 01       		.byte	0x1
 1685 06d8 AB       		.byte	0xab
 1686 06d9 10010000 		.4byte	0x110
 1687 06dd C1010000 		.4byte	.LLST12
 1688 06e1 24       		.uleb128 0x24
 1689 06e2 6200     		.ascii	"b\000"
 1690 06e4 01       		.byte	0x1
 1691 06e5 AC       		.byte	0xac
 1692 06e6 97000000 		.4byte	0x97
 1693 06ea DF010000 		.4byte	.LLST13
 1694 06ee 25       		.uleb128 0x25
 1695 06ef 24000000 		.4byte	.LBB18
 1696 06f3 14000000 		.4byte	.LBE18-.LBB18
 1697 06f7 21070000 		.4byte	0x721
 1698 06fb 24       		.uleb128 0x24
 1699 06fc 6D736700 		.ascii	"msg\000"
 1700 0700 01       		.byte	0x1
 1701 0701 B3       		.byte	0xb3
 1702 0702 FA000000 		.4byte	0xfa
 1703 0706 F2010000 		.4byte	.LLST14
 1704 070a 26       		.uleb128 0x26
 1705 070b 30000000 		.4byte	.LVL22
 1706 070f 0D050000 		.4byte	0x50d
 1707 0713 1B       		.uleb128 0x1b
 1708 0714 01       		.uleb128 0x1
 1709 0715 51       		.byte	0x51
 1710 0716 02       		.uleb128 0x2
ARM GAS  /tmp/cconxEuC.s 			page 31


 1711 0717 75       		.byte	0x75
 1712 0718 00       		.sleb128 0
 1713 0719 1B       		.uleb128 0x1b
 1714 071a 01       		.uleb128 0x1
 1715 071b 50       		.byte	0x50
 1716 071c 02       		.uleb128 0x2
 1717 071d 74       		.byte	0x74
 1718 071e 00       		.sleb128 0
 1719 071f 00       		.byte	0
 1720 0720 00       		.byte	0
 1721 0721 27       		.uleb128 0x27
 1722 0722 20000000 		.4byte	.LVL21
 1723 0726 1B       		.uleb128 0x1b
 1724 0727 01       		.uleb128 0x1
 1725 0728 50       		.byte	0x50
 1726 0729 02       		.uleb128 0x2
 1727 072a 74       		.byte	0x74
 1728 072b 00       		.sleb128 0
 1729 072c 00       		.byte	0
 1730 072d 00       		.byte	0
 1731 072e 23       		.uleb128 0x23
 1732 072f 4E000000 		.4byte	.LASF86
 1733 0733 01       		.byte	0x1
 1734 0734 DB       		.byte	0xdb
 1735 0735 2C000000 		.4byte	0x2c
 1736 0739 00000000 		.4byte	.LFB12
 1737 073d A8000000 		.4byte	.LFE12-.LFB12
 1738 0741 01       		.uleb128 0x1
 1739 0742 9C       		.byte	0x9c
 1740 0743 C4070000 		.4byte	0x7c4
 1741 0747 16       		.uleb128 0x16
 1742 0748 69717000 		.ascii	"iqp\000"
 1743 074c 01       		.byte	0x1
 1744 074d DB       		.byte	0xdb
 1745 074e D9050000 		.4byte	0x5d9
 1746 0752 05020000 		.4byte	.LLST15
 1747 0756 16       		.uleb128 0x16
 1748 0757 627000   		.ascii	"bp\000"
 1749 075a 01       		.byte	0x1
 1750 075b DB       		.byte	0xdb
 1751 075c 98040000 		.4byte	0x498
 1752 0760 23020000 		.4byte	.LLST16
 1753 0764 16       		.uleb128 0x16
 1754 0765 6E00     		.ascii	"n\000"
 1755 0767 01       		.byte	0x1
 1756 0768 DC       		.byte	0xdc
 1757 0769 2C000000 		.4byte	0x2c
 1758 076d 59020000 		.4byte	.LLST17
 1759 0771 17       		.uleb128 0x17
 1760 0772 19020000 		.4byte	.LASF78
 1761 0776 01       		.byte	0x1
 1762 0777 DC       		.byte	0xdc
 1763 0778 10010000 		.4byte	0x110
 1764 077c 7C020000 		.4byte	.LLST18
 1765 0780 28       		.uleb128 0x28
 1766 0781 6E667900 		.ascii	"nfy\000"
 1767 0785 01       		.byte	0x1
ARM GAS  /tmp/cconxEuC.s 			page 32


 1768 0786 DD       		.byte	0xdd
 1769 0787 76040000 		.4byte	0x476
 1770 078b 01       		.uleb128 0x1
 1771 078c 57       		.byte	0x57
 1772 078d 24       		.uleb128 0x24
 1773 078e 7200     		.ascii	"r\000"
 1774 0790 01       		.byte	0x1
 1775 0791 DE       		.byte	0xde
 1776 0792 2C000000 		.4byte	0x2c
 1777 0796 9A020000 		.4byte	.LLST19
 1778 079a 29       		.uleb128 0x29
 1779 079b 30000000 		.4byte	.LVL29
 1780 079f 02       		.uleb128 0x2
 1781 07a0 77       		.byte	0x77
 1782 07a1 00       		.sleb128 0
 1783 07a2 AD070000 		.4byte	0x7ad
 1784 07a6 1B       		.uleb128 0x1b
 1785 07a7 01       		.uleb128 0x1
 1786 07a8 50       		.byte	0x50
 1787 07a9 02       		.uleb128 0x2
 1788 07aa 74       		.byte	0x74
 1789 07ab 00       		.sleb128 0
 1790 07ac 00       		.byte	0
 1791 07ad 26       		.uleb128 0x26
 1792 07ae 40000000 		.4byte	.LVL30
 1793 07b2 0D050000 		.4byte	0x50d
 1794 07b6 1B       		.uleb128 0x1b
 1795 07b7 01       		.uleb128 0x1
 1796 07b8 51       		.byte	0x51
 1797 07b9 02       		.uleb128 0x2
 1798 07ba 75       		.byte	0x75
 1799 07bb 00       		.sleb128 0
 1800 07bc 1B       		.uleb128 0x1b
 1801 07bd 01       		.uleb128 0x1
 1802 07be 50       		.byte	0x50
 1803 07bf 02       		.uleb128 0x2
 1804 07c0 74       		.byte	0x74
 1805 07c1 00       		.sleb128 0
 1806 07c2 00       		.byte	0
 1807 07c3 00       		.byte	0
 1808 07c4 2A       		.uleb128 0x2a
 1809 07c5 00000000 		.4byte	.LASF87
 1810 07c9 01       		.byte	0x1
 1811 07ca 0C01     		.2byte	0x10c
 1812 07cc 00000000 		.4byte	.LFB13
 1813 07d0 34000000 		.4byte	.LFE13-.LFB13
 1814 07d4 01       		.uleb128 0x1
 1815 07d5 9C       		.byte	0x9c
 1816 07d6 21080000 		.4byte	0x821
 1817 07da 2B       		.uleb128 0x2b
 1818 07db 6F717000 		.ascii	"oqp\000"
 1819 07df 01       		.byte	0x1
 1820 07e0 0C01     		.2byte	0x10c
 1821 07e2 21080000 		.4byte	0x821
 1822 07e6 01       		.uleb128 0x1
 1823 07e7 50       		.byte	0x50
 1824 07e8 2B       		.uleb128 0x2b
ARM GAS  /tmp/cconxEuC.s 			page 33


 1825 07e9 627000   		.ascii	"bp\000"
 1826 07ec 01       		.byte	0x1
 1827 07ed 0C01     		.2byte	0x10c
 1828 07ef 98040000 		.4byte	0x498
 1829 07f3 01       		.uleb128 0x1
 1830 07f4 51       		.byte	0x51
 1831 07f5 2C       		.uleb128 0x2c
 1832 07f6 5F010000 		.4byte	.LASF79
 1833 07fa 01       		.byte	0x1
 1834 07fb 0C01     		.2byte	0x10c
 1835 07fd 2C000000 		.4byte	0x2c
 1836 0801 01       		.uleb128 0x1
 1837 0802 52       		.byte	0x52
 1838 0803 2C       		.uleb128 0x2c
 1839 0804 1C000000 		.4byte	.LASF88
 1840 0808 01       		.byte	0x1
 1841 0809 0C01     		.2byte	0x10c
 1842 080b 76040000 		.4byte	0x476
 1843 080f 01       		.uleb128 0x1
 1844 0810 53       		.byte	0x53
 1845 0811 2C       		.uleb128 0x2c
 1846 0812 10010000 		.4byte	.LASF81
 1847 0816 01       		.byte	0x1
 1848 0817 0D01     		.2byte	0x10d
 1849 0819 74020000 		.4byte	0x274
 1850 081d 02       		.uleb128 0x2
 1851 081e 91       		.byte	0x91
 1852 081f 00       		.sleb128 0
 1853 0820 00       		.byte	0
 1854 0821 09       		.uleb128 0x9
 1855 0822 04       		.byte	0x4
 1856 0823 A9040000 		.4byte	0x4a9
 1857 0827 2A       		.uleb128 0x2a
 1858 0828 25030000 		.4byte	.LASF89
 1859 082c 01       		.byte	0x1
 1860 082d 2201     		.2byte	0x122
 1861 082f 00000000 		.4byte	.LFB14
 1862 0833 54000000 		.4byte	.LFE14-.LFB14
 1863 0837 01       		.uleb128 0x1
 1864 0838 9C       		.byte	0x9c
 1865 0839 86080000 		.4byte	0x886
 1866 083d 2D       		.uleb128 0x2d
 1867 083e 6F717000 		.ascii	"oqp\000"
 1868 0842 01       		.byte	0x1
 1869 0843 2201     		.2byte	0x122
 1870 0845 21080000 		.4byte	0x821
 1871 0849 B9020000 		.4byte	.LLST20
 1872 084d 2E       		.uleb128 0x2e
 1873 084e E7040000 		.4byte	0x4e7
 1874 0852 30000000 		.4byte	.LBB19
 1875 0856 0C000000 		.4byte	.LBE19-.LBB19
 1876 085a 01       		.byte	0x1
 1877 085b 2901     		.2byte	0x129
 1878 085d 7C080000 		.4byte	0x87c
 1879 0861 1F       		.uleb128 0x1f
 1880 0862 F7040000 		.4byte	0x4f7
 1881 0866 01       		.uleb128 0x1
ARM GAS  /tmp/cconxEuC.s 			page 34


 1882 0867 54       		.byte	0x54
 1883 0868 20       		.uleb128 0x20
 1884 0869 30000000 		.4byte	.LBB20
 1885 086d 0C000000 		.4byte	.LBE20-.LBB20
 1886 0871 21       		.uleb128 0x21
 1887 0872 02050000 		.4byte	0x502
 1888 0876 D7020000 		.4byte	.LLST21
 1889 087a 00       		.byte	0
 1890 087b 00       		.byte	0
 1891 087c 22       		.uleb128 0x22
 1892 087d 40000000 		.4byte	.LVL39
 1893 0881 3C0A0000 		.4byte	0xa3c
 1894 0885 00       		.byte	0
 1895 0886 2F       		.uleb128 0x2f
 1896 0887 15010000 		.4byte	.LASF90
 1897 088b 01       		.byte	0x1
 1898 088c 4201     		.2byte	0x142
 1899 088e FA000000 		.4byte	0xfa
 1900 0892 00000000 		.4byte	.LFB15
 1901 0896 8C000000 		.4byte	.LFE15-.LFB15
 1902 089a 01       		.uleb128 0x1
 1903 089b 9C       		.byte	0x9c
 1904 089c 0B090000 		.4byte	0x90b
 1905 08a0 2D       		.uleb128 0x2d
 1906 08a1 6F717000 		.ascii	"oqp\000"
 1907 08a5 01       		.byte	0x1
 1908 08a6 4201     		.2byte	0x142
 1909 08a8 21080000 		.4byte	0x821
 1910 08ac EA020000 		.4byte	.LLST22
 1911 08b0 2D       		.uleb128 0x2d
 1912 08b1 6200     		.ascii	"b\000"
 1913 08b3 01       		.byte	0x1
 1914 08b4 4201     		.2byte	0x142
 1915 08b6 97000000 		.4byte	0x97
 1916 08ba 08030000 		.4byte	.LLST23
 1917 08be 30       		.uleb128 0x30
 1918 08bf 19020000 		.4byte	.LASF78
 1919 08c3 01       		.byte	0x1
 1920 08c4 4201     		.2byte	0x142
 1921 08c6 10010000 		.4byte	0x110
 1922 08ca 29030000 		.4byte	.LLST24
 1923 08ce 31       		.uleb128 0x31
 1924 08cf 00000000 		.4byte	.Ldebug_ranges0+0
 1925 08d3 FE080000 		.4byte	0x8fe
 1926 08d7 32       		.uleb128 0x32
 1927 08d8 6D736700 		.ascii	"msg\000"
 1928 08dc 01       		.byte	0x1
 1929 08dd 4601     		.2byte	0x146
 1930 08df FA000000 		.4byte	0xfa
 1931 08e3 47030000 		.4byte	.LLST25
 1932 08e7 26       		.uleb128 0x26
 1933 08e8 24000000 		.4byte	.LVL42
 1934 08ec 0D050000 		.4byte	0x50d
 1935 08f0 1B       		.uleb128 0x1b
 1936 08f1 01       		.uleb128 0x1
 1937 08f2 51       		.byte	0x51
 1938 08f3 02       		.uleb128 0x2
ARM GAS  /tmp/cconxEuC.s 			page 35


 1939 08f4 75       		.byte	0x75
 1940 08f5 00       		.sleb128 0
 1941 08f6 1B       		.uleb128 0x1b
 1942 08f7 01       		.uleb128 0x1
 1943 08f8 50       		.byte	0x50
 1944 08f9 02       		.uleb128 0x2
 1945 08fa 74       		.byte	0x74
 1946 08fb 00       		.sleb128 0
 1947 08fc 00       		.byte	0
 1948 08fd 00       		.byte	0
 1949 08fe 27       		.uleb128 0x27
 1950 08ff 78000000 		.4byte	.LVL44
 1951 0903 1B       		.uleb128 0x1b
 1952 0904 01       		.uleb128 0x1
 1953 0905 50       		.byte	0x50
 1954 0906 02       		.uleb128 0x2
 1955 0907 74       		.byte	0x74
 1956 0908 00       		.sleb128 0
 1957 0909 00       		.byte	0
 1958 090a 00       		.byte	0
 1959 090b 2F       		.uleb128 0x2f
 1960 090c DA000000 		.4byte	.LASF91
 1961 0910 01       		.byte	0x1
 1962 0911 6401     		.2byte	0x164
 1963 0913 FA000000 		.4byte	0xfa
 1964 0917 00000000 		.4byte	.LFB16
 1965 091b 80000000 		.4byte	.LFE16-.LFB16
 1966 091f 01       		.uleb128 0x1
 1967 0920 9C       		.byte	0x9c
 1968 0921 7A090000 		.4byte	0x97a
 1969 0925 2D       		.uleb128 0x2d
 1970 0926 6F717000 		.ascii	"oqp\000"
 1971 092a 01       		.byte	0x1
 1972 092b 6401     		.2byte	0x164
 1973 092d 21080000 		.4byte	0x821
 1974 0931 65030000 		.4byte	.LLST26
 1975 0935 32       		.uleb128 0x32
 1976 0936 6200     		.ascii	"b\000"
 1977 0938 01       		.byte	0x1
 1978 0939 6501     		.2byte	0x165
 1979 093b 97000000 		.4byte	0x97
 1980 093f AA030000 		.4byte	.LLST27
 1981 0943 33       		.uleb128 0x33
 1982 0944 E7040000 		.4byte	0x4e7
 1983 0948 4C000000 		.4byte	.LBB23
 1984 094c 18000000 		.4byte	.Ldebug_ranges0+0x18
 1985 0950 01       		.byte	0x1
 1986 0951 7201     		.2byte	0x172
 1987 0953 70090000 		.4byte	0x970
 1988 0957 19       		.uleb128 0x19
 1989 0958 F7040000 		.4byte	0x4f7
 1990 095c BD030000 		.4byte	.LLST28
 1991 0960 34       		.uleb128 0x34
 1992 0961 18000000 		.4byte	.Ldebug_ranges0+0x18
 1993 0965 21       		.uleb128 0x21
 1994 0966 02050000 		.4byte	0x502
 1995 096a DE030000 		.4byte	.LLST29
ARM GAS  /tmp/cconxEuC.s 			page 36


 1996 096e 00       		.byte	0
 1997 096f 00       		.byte	0
 1998 0970 22       		.uleb128 0x22
 1999 0971 60000000 		.4byte	.LVL50
 2000 0975 3C0A0000 		.4byte	0xa3c
 2001 0979 00       		.byte	0
 2002 097a 2F       		.uleb128 0x2f
 2003 097b DA010000 		.4byte	.LASF92
 2004 097f 01       		.byte	0x1
 2005 0980 8F01     		.2byte	0x18f
 2006 0982 2C000000 		.4byte	0x2c
 2007 0986 00000000 		.4byte	.LFB17
 2008 098a AC000000 		.4byte	.LFE17-.LFB17
 2009 098e 01       		.uleb128 0x1
 2010 098f 9C       		.byte	0x9c
 2011 0990 170A0000 		.4byte	0xa17
 2012 0994 2D       		.uleb128 0x2d
 2013 0995 6F717000 		.ascii	"oqp\000"
 2014 0999 01       		.byte	0x1
 2015 099a 8F01     		.2byte	0x18f
 2016 099c 21080000 		.4byte	0x821
 2017 09a0 F1030000 		.4byte	.LLST30
 2018 09a4 2D       		.uleb128 0x2d
 2019 09a5 627000   		.ascii	"bp\000"
 2020 09a8 01       		.byte	0x1
 2021 09a9 8F01     		.2byte	0x18f
 2022 09ab B4040000 		.4byte	0x4b4
 2023 09af 0F040000 		.4byte	.LLST31
 2024 09b3 2D       		.uleb128 0x2d
 2025 09b4 6E00     		.ascii	"n\000"
 2026 09b6 01       		.byte	0x1
 2027 09b7 9001     		.2byte	0x190
 2028 09b9 2C000000 		.4byte	0x2c
 2029 09bd 38040000 		.4byte	.LLST32
 2030 09c1 30       		.uleb128 0x30
 2031 09c2 19020000 		.4byte	.LASF78
 2032 09c6 01       		.byte	0x1
 2033 09c7 9001     		.2byte	0x190
 2034 09c9 10010000 		.4byte	0x110
 2035 09cd 6E040000 		.4byte	.LLST33
 2036 09d1 35       		.uleb128 0x35
 2037 09d2 6E667900 		.ascii	"nfy\000"
 2038 09d6 01       		.byte	0x1
 2039 09d7 9101     		.2byte	0x191
 2040 09d9 76040000 		.4byte	0x476
 2041 09dd 01       		.uleb128 0x1
 2042 09de 58       		.byte	0x58
 2043 09df 32       		.uleb128 0x32
 2044 09e0 7700     		.ascii	"w\000"
 2045 09e2 01       		.byte	0x1
 2046 09e3 9201     		.2byte	0x192
 2047 09e5 2C000000 		.4byte	0x2c
 2048 09e9 8C040000 		.4byte	.LLST34
 2049 09ed 29       		.uleb128 0x29
 2050 09ee 70000000 		.4byte	.LVL58
 2051 09f2 02       		.uleb128 0x2
 2052 09f3 78       		.byte	0x78
ARM GAS  /tmp/cconxEuC.s 			page 37


 2053 09f4 00       		.sleb128 0
 2054 09f5 000A0000 		.4byte	0xa00
 2055 09f9 1B       		.uleb128 0x1b
 2056 09fa 01       		.uleb128 0x1
 2057 09fb 50       		.byte	0x50
 2058 09fc 02       		.uleb128 0x2
 2059 09fd 74       		.byte	0x74
 2060 09fe 00       		.sleb128 0
 2061 09ff 00       		.byte	0
 2062 0a00 26       		.uleb128 0x26
 2063 0a01 98000000 		.4byte	.LVL62
 2064 0a05 0D050000 		.4byte	0x50d
 2065 0a09 1B       		.uleb128 0x1b
 2066 0a0a 01       		.uleb128 0x1
 2067 0a0b 51       		.byte	0x51
 2068 0a0c 02       		.uleb128 0x2
 2069 0a0d 79       		.byte	0x79
 2070 0a0e 00       		.sleb128 0
 2071 0a0f 1B       		.uleb128 0x1b
 2072 0a10 01       		.uleb128 0x1
 2073 0a11 50       		.byte	0x50
 2074 0a12 02       		.uleb128 0x2
 2075 0a13 74       		.byte	0x74
 2076 0a14 00       		.sleb128 0
 2077 0a15 00       		.byte	0
 2078 0a16 00       		.byte	0
 2079 0a17 36       		.uleb128 0x36
 2080 0a18 AC030000 		.4byte	.LASF99
 2081 0a1c 0A       		.byte	0xa
 2082 0a1d 68       		.byte	0x68
 2083 0a1e 5D030000 		.4byte	0x35d
 2084 0a22 37       		.uleb128 0x37
 2085 0a23 54040000 		.4byte	.LASF100
 2086 0a27 0A       		.byte	0xa
 2087 0a28 8F       		.byte	0x8f
 2088 0a29 FA000000 		.4byte	0xfa
 2089 0a2d 3C0A0000 		.4byte	0xa3c
 2090 0a31 10       		.uleb128 0x10
 2091 0a32 CE000000 		.4byte	0xce
 2092 0a36 10       		.uleb128 0x10
 2093 0a37 10010000 		.4byte	0x110
 2094 0a3b 00       		.byte	0
 2095 0a3c 38       		.uleb128 0x38
 2096 0a3d DD020000 		.4byte	.LASF101
 2097 0a41 0A       		.byte	0xa
 2098 0a42 89       		.byte	0x89
 2099 0a43 38020000 		.4byte	0x238
 2100 0a47 10       		.uleb128 0x10
 2101 0a48 38020000 		.4byte	0x238
 2102 0a4c 00       		.byte	0
 2103 0a4d 00       		.byte	0
 2104              		.section	.debug_abbrev,"",%progbits
 2105              	.Ldebug_abbrev0:
 2106 0000 01       		.uleb128 0x1
 2107 0001 11       		.uleb128 0x11
 2108 0002 01       		.byte	0x1
 2109 0003 25       		.uleb128 0x25
ARM GAS  /tmp/cconxEuC.s 			page 38


 2110 0004 0E       		.uleb128 0xe
 2111 0005 13       		.uleb128 0x13
 2112 0006 0B       		.uleb128 0xb
 2113 0007 03       		.uleb128 0x3
 2114 0008 0E       		.uleb128 0xe
 2115 0009 1B       		.uleb128 0x1b
 2116 000a 0E       		.uleb128 0xe
 2117 000b 55       		.uleb128 0x55
 2118 000c 17       		.uleb128 0x17
 2119 000d 11       		.uleb128 0x11
 2120 000e 01       		.uleb128 0x1
 2121 000f 10       		.uleb128 0x10
 2122 0010 17       		.uleb128 0x17
 2123 0011 00       		.byte	0
 2124 0012 00       		.byte	0
 2125 0013 02       		.uleb128 0x2
 2126 0014 24       		.uleb128 0x24
 2127 0015 00       		.byte	0
 2128 0016 0B       		.uleb128 0xb
 2129 0017 0B       		.uleb128 0xb
 2130 0018 3E       		.uleb128 0x3e
 2131 0019 0B       		.uleb128 0xb
 2132 001a 03       		.uleb128 0x3
 2133 001b 08       		.uleb128 0x8
 2134 001c 00       		.byte	0
 2135 001d 00       		.byte	0
 2136 001e 03       		.uleb128 0x3
 2137 001f 16       		.uleb128 0x16
 2138 0020 00       		.byte	0
 2139 0021 03       		.uleb128 0x3
 2140 0022 0E       		.uleb128 0xe
 2141 0023 3A       		.uleb128 0x3a
 2142 0024 0B       		.uleb128 0xb
 2143 0025 3B       		.uleb128 0x3b
 2144 0026 0B       		.uleb128 0xb
 2145 0027 49       		.uleb128 0x49
 2146 0028 13       		.uleb128 0x13
 2147 0029 00       		.byte	0
 2148 002a 00       		.byte	0
 2149 002b 04       		.uleb128 0x4
 2150 002c 24       		.uleb128 0x24
 2151 002d 00       		.byte	0
 2152 002e 0B       		.uleb128 0xb
 2153 002f 0B       		.uleb128 0xb
 2154 0030 3E       		.uleb128 0x3e
 2155 0031 0B       		.uleb128 0xb
 2156 0032 03       		.uleb128 0x3
 2157 0033 0E       		.uleb128 0xe
 2158 0034 00       		.byte	0
 2159 0035 00       		.byte	0
 2160 0036 05       		.uleb128 0x5
 2161 0037 13       		.uleb128 0x13
 2162 0038 01       		.byte	0x1
 2163 0039 03       		.uleb128 0x3
 2164 003a 0E       		.uleb128 0xe
 2165 003b 0B       		.uleb128 0xb
 2166 003c 0B       		.uleb128 0xb
ARM GAS  /tmp/cconxEuC.s 			page 39


 2167 003d 3A       		.uleb128 0x3a
 2168 003e 0B       		.uleb128 0xb
 2169 003f 3B       		.uleb128 0x3b
 2170 0040 0B       		.uleb128 0xb
 2171 0041 01       		.uleb128 0x1
 2172 0042 13       		.uleb128 0x13
 2173 0043 00       		.byte	0
 2174 0044 00       		.byte	0
 2175 0045 06       		.uleb128 0x6
 2176 0046 0D       		.uleb128 0xd
 2177 0047 00       		.byte	0
 2178 0048 03       		.uleb128 0x3
 2179 0049 0E       		.uleb128 0xe
 2180 004a 3A       		.uleb128 0x3a
 2181 004b 0B       		.uleb128 0xb
 2182 004c 3B       		.uleb128 0x3b
 2183 004d 0B       		.uleb128 0xb
 2184 004e 49       		.uleb128 0x49
 2185 004f 13       		.uleb128 0x13
 2186 0050 38       		.uleb128 0x38
 2187 0051 0B       		.uleb128 0xb
 2188 0052 00       		.byte	0
 2189 0053 00       		.byte	0
 2190 0054 07       		.uleb128 0x7
 2191 0055 0D       		.uleb128 0xd
 2192 0056 00       		.byte	0
 2193 0057 03       		.uleb128 0x3
 2194 0058 08       		.uleb128 0x8
 2195 0059 3A       		.uleb128 0x3a
 2196 005a 0B       		.uleb128 0xb
 2197 005b 3B       		.uleb128 0x3b
 2198 005c 0B       		.uleb128 0xb
 2199 005d 49       		.uleb128 0x49
 2200 005e 13       		.uleb128 0x13
 2201 005f 38       		.uleb128 0x38
 2202 0060 0B       		.uleb128 0xb
 2203 0061 00       		.byte	0
 2204 0062 00       		.byte	0
 2205 0063 08       		.uleb128 0x8
 2206 0064 13       		.uleb128 0x13
 2207 0065 01       		.byte	0x1
 2208 0066 0B       		.uleb128 0xb
 2209 0067 0B       		.uleb128 0xb
 2210 0068 3A       		.uleb128 0x3a
 2211 0069 0B       		.uleb128 0xb
 2212 006a 3B       		.uleb128 0x3b
 2213 006b 0B       		.uleb128 0xb
 2214 006c 01       		.uleb128 0x1
 2215 006d 13       		.uleb128 0x13
 2216 006e 00       		.byte	0
 2217 006f 00       		.byte	0
 2218 0070 09       		.uleb128 0x9
 2219 0071 0F       		.uleb128 0xf
 2220 0072 00       		.byte	0
 2221 0073 0B       		.uleb128 0xb
 2222 0074 0B       		.uleb128 0xb
 2223 0075 49       		.uleb128 0x49
ARM GAS  /tmp/cconxEuC.s 			page 40


 2224 0076 13       		.uleb128 0x13
 2225 0077 00       		.byte	0
 2226 0078 00       		.byte	0
 2227 0079 0A       		.uleb128 0xa
 2228 007a 0F       		.uleb128 0xf
 2229 007b 00       		.byte	0
 2230 007c 0B       		.uleb128 0xb
 2231 007d 0B       		.uleb128 0xb
 2232 007e 00       		.byte	0
 2233 007f 00       		.byte	0
 2234 0080 0B       		.uleb128 0xb
 2235 0081 35       		.uleb128 0x35
 2236 0082 00       		.byte	0
 2237 0083 49       		.uleb128 0x49
 2238 0084 13       		.uleb128 0x13
 2239 0085 00       		.byte	0
 2240 0086 00       		.byte	0
 2241 0087 0C       		.uleb128 0xc
 2242 0088 17       		.uleb128 0x17
 2243 0089 01       		.byte	0x1
 2244 008a 0B       		.uleb128 0xb
 2245 008b 0B       		.uleb128 0xb
 2246 008c 3A       		.uleb128 0x3a
 2247 008d 0B       		.uleb128 0xb
 2248 008e 3B       		.uleb128 0x3b
 2249 008f 0B       		.uleb128 0xb
 2250 0090 01       		.uleb128 0x1
 2251 0091 13       		.uleb128 0x13
 2252 0092 00       		.byte	0
 2253 0093 00       		.byte	0
 2254 0094 0D       		.uleb128 0xd
 2255 0095 0D       		.uleb128 0xd
 2256 0096 00       		.byte	0
 2257 0097 03       		.uleb128 0x3
 2258 0098 0E       		.uleb128 0xe
 2259 0099 3A       		.uleb128 0x3a
 2260 009a 0B       		.uleb128 0xb
 2261 009b 3B       		.uleb128 0x3b
 2262 009c 0B       		.uleb128 0xb
 2263 009d 49       		.uleb128 0x49
 2264 009e 13       		.uleb128 0x13
 2265 009f 00       		.byte	0
 2266 00a0 00       		.byte	0
 2267 00a1 0E       		.uleb128 0xe
 2268 00a2 26       		.uleb128 0x26
 2269 00a3 00       		.byte	0
 2270 00a4 49       		.uleb128 0x49
 2271 00a5 13       		.uleb128 0x13
 2272 00a6 00       		.byte	0
 2273 00a7 00       		.byte	0
 2274 00a8 0F       		.uleb128 0xf
 2275 00a9 15       		.uleb128 0x15
 2276 00aa 01       		.byte	0x1
 2277 00ab 27       		.uleb128 0x27
 2278 00ac 19       		.uleb128 0x19
 2279 00ad 01       		.uleb128 0x1
 2280 00ae 13       		.uleb128 0x13
ARM GAS  /tmp/cconxEuC.s 			page 41


 2281 00af 00       		.byte	0
 2282 00b0 00       		.byte	0
 2283 00b1 10       		.uleb128 0x10
 2284 00b2 05       		.uleb128 0x5
 2285 00b3 00       		.byte	0
 2286 00b4 49       		.uleb128 0x49
 2287 00b5 13       		.uleb128 0x13
 2288 00b6 00       		.byte	0
 2289 00b7 00       		.byte	0
 2290 00b8 11       		.uleb128 0x11
 2291 00b9 2E       		.uleb128 0x2e
 2292 00ba 01       		.byte	0x1
 2293 00bb 03       		.uleb128 0x3
 2294 00bc 0E       		.uleb128 0xe
 2295 00bd 3A       		.uleb128 0x3a
 2296 00be 0B       		.uleb128 0xb
 2297 00bf 3B       		.uleb128 0x3b
 2298 00c0 0B       		.uleb128 0xb
 2299 00c1 27       		.uleb128 0x27
 2300 00c2 19       		.uleb128 0x19
 2301 00c3 20       		.uleb128 0x20
 2302 00c4 0B       		.uleb128 0xb
 2303 00c5 01       		.uleb128 0x1
 2304 00c6 13       		.uleb128 0x13
 2305 00c7 00       		.byte	0
 2306 00c8 00       		.byte	0
 2307 00c9 12       		.uleb128 0x12
 2308 00ca 05       		.uleb128 0x5
 2309 00cb 00       		.byte	0
 2310 00cc 03       		.uleb128 0x3
 2311 00cd 08       		.uleb128 0x8
 2312 00ce 3A       		.uleb128 0x3a
 2313 00cf 0B       		.uleb128 0xb
 2314 00d0 3B       		.uleb128 0x3b
 2315 00d1 0B       		.uleb128 0xb
 2316 00d2 49       		.uleb128 0x49
 2317 00d3 13       		.uleb128 0x13
 2318 00d4 00       		.byte	0
 2319 00d5 00       		.byte	0
 2320 00d6 13       		.uleb128 0x13
 2321 00d7 2E       		.uleb128 0x2e
 2322 00d8 01       		.byte	0x1
 2323 00d9 03       		.uleb128 0x3
 2324 00da 0E       		.uleb128 0xe
 2325 00db 3A       		.uleb128 0x3a
 2326 00dc 0B       		.uleb128 0xb
 2327 00dd 3B       		.uleb128 0x3b
 2328 00de 0B       		.uleb128 0xb
 2329 00df 27       		.uleb128 0x27
 2330 00e0 19       		.uleb128 0x19
 2331 00e1 49       		.uleb128 0x49
 2332 00e2 13       		.uleb128 0x13
 2333 00e3 20       		.uleb128 0x20
 2334 00e4 0B       		.uleb128 0xb
 2335 00e5 01       		.uleb128 0x1
 2336 00e6 13       		.uleb128 0x13
 2337 00e7 00       		.byte	0
ARM GAS  /tmp/cconxEuC.s 			page 42


 2338 00e8 00       		.byte	0
 2339 00e9 14       		.uleb128 0x14
 2340 00ea 34       		.uleb128 0x34
 2341 00eb 00       		.byte	0
 2342 00ec 03       		.uleb128 0x3
 2343 00ed 08       		.uleb128 0x8
 2344 00ee 3A       		.uleb128 0x3a
 2345 00ef 0B       		.uleb128 0xb
 2346 00f0 3B       		.uleb128 0x3b
 2347 00f1 0B       		.uleb128 0xb
 2348 00f2 49       		.uleb128 0x49
 2349 00f3 13       		.uleb128 0x13
 2350 00f4 00       		.byte	0
 2351 00f5 00       		.byte	0
 2352 00f6 15       		.uleb128 0x15
 2353 00f7 2E       		.uleb128 0x2e
 2354 00f8 01       		.byte	0x1
 2355 00f9 03       		.uleb128 0x3
 2356 00fa 0E       		.uleb128 0xe
 2357 00fb 3A       		.uleb128 0x3a
 2358 00fc 0B       		.uleb128 0xb
 2359 00fd 3B       		.uleb128 0x3b
 2360 00fe 0B       		.uleb128 0xb
 2361 00ff 27       		.uleb128 0x27
 2362 0100 19       		.uleb128 0x19
 2363 0101 49       		.uleb128 0x49
 2364 0102 13       		.uleb128 0x13
 2365 0103 11       		.uleb128 0x11
 2366 0104 01       		.uleb128 0x1
 2367 0105 12       		.uleb128 0x12
 2368 0106 06       		.uleb128 0x6
 2369 0107 40       		.uleb128 0x40
 2370 0108 18       		.uleb128 0x18
 2371 0109 9742     		.uleb128 0x2117
 2372 010b 19       		.uleb128 0x19
 2373 010c 01       		.uleb128 0x1
 2374 010d 13       		.uleb128 0x13
 2375 010e 00       		.byte	0
 2376 010f 00       		.byte	0
 2377 0110 16       		.uleb128 0x16
 2378 0111 05       		.uleb128 0x5
 2379 0112 00       		.byte	0
 2380 0113 03       		.uleb128 0x3
 2381 0114 08       		.uleb128 0x8
 2382 0115 3A       		.uleb128 0x3a
 2383 0116 0B       		.uleb128 0xb
 2384 0117 3B       		.uleb128 0x3b
 2385 0118 0B       		.uleb128 0xb
 2386 0119 49       		.uleb128 0x49
 2387 011a 13       		.uleb128 0x13
 2388 011b 02       		.uleb128 0x2
 2389 011c 17       		.uleb128 0x17
 2390 011d 00       		.byte	0
 2391 011e 00       		.byte	0
 2392 011f 17       		.uleb128 0x17
 2393 0120 05       		.uleb128 0x5
 2394 0121 00       		.byte	0
ARM GAS  /tmp/cconxEuC.s 			page 43


 2395 0122 03       		.uleb128 0x3
 2396 0123 0E       		.uleb128 0xe
 2397 0124 3A       		.uleb128 0x3a
 2398 0125 0B       		.uleb128 0xb
 2399 0126 3B       		.uleb128 0x3b
 2400 0127 0B       		.uleb128 0xb
 2401 0128 49       		.uleb128 0x49
 2402 0129 13       		.uleb128 0x13
 2403 012a 02       		.uleb128 0x2
 2404 012b 17       		.uleb128 0x17
 2405 012c 00       		.byte	0
 2406 012d 00       		.byte	0
 2407 012e 18       		.uleb128 0x18
 2408 012f 1D       		.uleb128 0x1d
 2409 0130 01       		.byte	0x1
 2410 0131 31       		.uleb128 0x31
 2411 0132 13       		.uleb128 0x13
 2412 0133 11       		.uleb128 0x11
 2413 0134 01       		.uleb128 0x1
 2414 0135 12       		.uleb128 0x12
 2415 0136 06       		.uleb128 0x6
 2416 0137 58       		.uleb128 0x58
 2417 0138 0B       		.uleb128 0xb
 2418 0139 59       		.uleb128 0x59
 2419 013a 0B       		.uleb128 0xb
 2420 013b 01       		.uleb128 0x1
 2421 013c 13       		.uleb128 0x13
 2422 013d 00       		.byte	0
 2423 013e 00       		.byte	0
 2424 013f 19       		.uleb128 0x19
 2425 0140 05       		.uleb128 0x5
 2426 0141 00       		.byte	0
 2427 0142 31       		.uleb128 0x31
 2428 0143 13       		.uleb128 0x13
 2429 0144 02       		.uleb128 0x2
 2430 0145 17       		.uleb128 0x17
 2431 0146 00       		.byte	0
 2432 0147 00       		.byte	0
 2433 0148 1A       		.uleb128 0x1a
 2434 0149 898201   		.uleb128 0x4109
 2435 014c 01       		.byte	0x1
 2436 014d 11       		.uleb128 0x11
 2437 014e 01       		.uleb128 0x1
 2438 014f 9542     		.uleb128 0x2115
 2439 0151 19       		.uleb128 0x19
 2440 0152 31       		.uleb128 0x31
 2441 0153 13       		.uleb128 0x13
 2442 0154 00       		.byte	0
 2443 0155 00       		.byte	0
 2444 0156 1B       		.uleb128 0x1b
 2445 0157 8A8201   		.uleb128 0x410a
 2446 015a 00       		.byte	0
 2447 015b 02       		.uleb128 0x2
 2448 015c 18       		.uleb128 0x18
 2449 015d 9142     		.uleb128 0x2111
 2450 015f 18       		.uleb128 0x18
 2451 0160 00       		.byte	0
ARM GAS  /tmp/cconxEuC.s 			page 44


 2452 0161 00       		.byte	0
 2453 0162 1C       		.uleb128 0x1c
 2454 0163 2E       		.uleb128 0x2e
 2455 0164 01       		.byte	0x1
 2456 0165 3F       		.uleb128 0x3f
 2457 0166 19       		.uleb128 0x19
 2458 0167 03       		.uleb128 0x3
 2459 0168 0E       		.uleb128 0xe
 2460 0169 3A       		.uleb128 0x3a
 2461 016a 0B       		.uleb128 0xb
 2462 016b 3B       		.uleb128 0x3b
 2463 016c 0B       		.uleb128 0xb
 2464 016d 27       		.uleb128 0x27
 2465 016e 19       		.uleb128 0x19
 2466 016f 11       		.uleb128 0x11
 2467 0170 01       		.uleb128 0x1
 2468 0171 12       		.uleb128 0x12
 2469 0172 06       		.uleb128 0x6
 2470 0173 40       		.uleb128 0x40
 2471 0174 18       		.uleb128 0x18
 2472 0175 9742     		.uleb128 0x2117
 2473 0177 19       		.uleb128 0x19
 2474 0178 01       		.uleb128 0x1
 2475 0179 13       		.uleb128 0x13
 2476 017a 00       		.byte	0
 2477 017b 00       		.byte	0
 2478 017c 1D       		.uleb128 0x1d
 2479 017d 05       		.uleb128 0x5
 2480 017e 00       		.byte	0
 2481 017f 03       		.uleb128 0x3
 2482 0180 08       		.uleb128 0x8
 2483 0181 3A       		.uleb128 0x3a
 2484 0182 0B       		.uleb128 0xb
 2485 0183 3B       		.uleb128 0x3b
 2486 0184 0B       		.uleb128 0xb
 2487 0185 49       		.uleb128 0x49
 2488 0186 13       		.uleb128 0x13
 2489 0187 02       		.uleb128 0x2
 2490 0188 18       		.uleb128 0x18
 2491 0189 00       		.byte	0
 2492 018a 00       		.byte	0
 2493 018b 1E       		.uleb128 0x1e
 2494 018c 05       		.uleb128 0x5
 2495 018d 00       		.byte	0
 2496 018e 03       		.uleb128 0x3
 2497 018f 0E       		.uleb128 0xe
 2498 0190 3A       		.uleb128 0x3a
 2499 0191 0B       		.uleb128 0xb
 2500 0192 3B       		.uleb128 0x3b
 2501 0193 0B       		.uleb128 0xb
 2502 0194 49       		.uleb128 0x49
 2503 0195 13       		.uleb128 0x13
 2504 0196 02       		.uleb128 0x2
 2505 0197 18       		.uleb128 0x18
 2506 0198 00       		.byte	0
 2507 0199 00       		.byte	0
 2508 019a 1F       		.uleb128 0x1f
ARM GAS  /tmp/cconxEuC.s 			page 45


 2509 019b 05       		.uleb128 0x5
 2510 019c 00       		.byte	0
 2511 019d 31       		.uleb128 0x31
 2512 019e 13       		.uleb128 0x13
 2513 019f 02       		.uleb128 0x2
 2514 01a0 18       		.uleb128 0x18
 2515 01a1 00       		.byte	0
 2516 01a2 00       		.byte	0
 2517 01a3 20       		.uleb128 0x20
 2518 01a4 0B       		.uleb128 0xb
 2519 01a5 01       		.byte	0x1
 2520 01a6 11       		.uleb128 0x11
 2521 01a7 01       		.uleb128 0x1
 2522 01a8 12       		.uleb128 0x12
 2523 01a9 06       		.uleb128 0x6
 2524 01aa 00       		.byte	0
 2525 01ab 00       		.byte	0
 2526 01ac 21       		.uleb128 0x21
 2527 01ad 34       		.uleb128 0x34
 2528 01ae 00       		.byte	0
 2529 01af 31       		.uleb128 0x31
 2530 01b0 13       		.uleb128 0x13
 2531 01b1 02       		.uleb128 0x2
 2532 01b2 17       		.uleb128 0x17
 2533 01b3 00       		.byte	0
 2534 01b4 00       		.byte	0
 2535 01b5 22       		.uleb128 0x22
 2536 01b6 898201   		.uleb128 0x4109
 2537 01b9 00       		.byte	0
 2538 01ba 11       		.uleb128 0x11
 2539 01bb 01       		.uleb128 0x1
 2540 01bc 31       		.uleb128 0x31
 2541 01bd 13       		.uleb128 0x13
 2542 01be 00       		.byte	0
 2543 01bf 00       		.byte	0
 2544 01c0 23       		.uleb128 0x23
 2545 01c1 2E       		.uleb128 0x2e
 2546 01c2 01       		.byte	0x1
 2547 01c3 3F       		.uleb128 0x3f
 2548 01c4 19       		.uleb128 0x19
 2549 01c5 03       		.uleb128 0x3
 2550 01c6 0E       		.uleb128 0xe
 2551 01c7 3A       		.uleb128 0x3a
 2552 01c8 0B       		.uleb128 0xb
 2553 01c9 3B       		.uleb128 0x3b
 2554 01ca 0B       		.uleb128 0xb
 2555 01cb 27       		.uleb128 0x27
 2556 01cc 19       		.uleb128 0x19
 2557 01cd 49       		.uleb128 0x49
 2558 01ce 13       		.uleb128 0x13
 2559 01cf 11       		.uleb128 0x11
 2560 01d0 01       		.uleb128 0x1
 2561 01d1 12       		.uleb128 0x12
 2562 01d2 06       		.uleb128 0x6
 2563 01d3 40       		.uleb128 0x40
 2564 01d4 18       		.uleb128 0x18
 2565 01d5 9742     		.uleb128 0x2117
ARM GAS  /tmp/cconxEuC.s 			page 46


 2566 01d7 19       		.uleb128 0x19
 2567 01d8 01       		.uleb128 0x1
 2568 01d9 13       		.uleb128 0x13
 2569 01da 00       		.byte	0
 2570 01db 00       		.byte	0
 2571 01dc 24       		.uleb128 0x24
 2572 01dd 34       		.uleb128 0x34
 2573 01de 00       		.byte	0
 2574 01df 03       		.uleb128 0x3
 2575 01e0 08       		.uleb128 0x8
 2576 01e1 3A       		.uleb128 0x3a
 2577 01e2 0B       		.uleb128 0xb
 2578 01e3 3B       		.uleb128 0x3b
 2579 01e4 0B       		.uleb128 0xb
 2580 01e5 49       		.uleb128 0x49
 2581 01e6 13       		.uleb128 0x13
 2582 01e7 02       		.uleb128 0x2
 2583 01e8 17       		.uleb128 0x17
 2584 01e9 00       		.byte	0
 2585 01ea 00       		.byte	0
 2586 01eb 25       		.uleb128 0x25
 2587 01ec 0B       		.uleb128 0xb
 2588 01ed 01       		.byte	0x1
 2589 01ee 11       		.uleb128 0x11
 2590 01ef 01       		.uleb128 0x1
 2591 01f0 12       		.uleb128 0x12
 2592 01f1 06       		.uleb128 0x6
 2593 01f2 01       		.uleb128 0x1
 2594 01f3 13       		.uleb128 0x13
 2595 01f4 00       		.byte	0
 2596 01f5 00       		.byte	0
 2597 01f6 26       		.uleb128 0x26
 2598 01f7 898201   		.uleb128 0x4109
 2599 01fa 01       		.byte	0x1
 2600 01fb 11       		.uleb128 0x11
 2601 01fc 01       		.uleb128 0x1
 2602 01fd 31       		.uleb128 0x31
 2603 01fe 13       		.uleb128 0x13
 2604 01ff 00       		.byte	0
 2605 0200 00       		.byte	0
 2606 0201 27       		.uleb128 0x27
 2607 0202 898201   		.uleb128 0x4109
 2608 0205 01       		.byte	0x1
 2609 0206 11       		.uleb128 0x11
 2610 0207 01       		.uleb128 0x1
 2611 0208 00       		.byte	0
 2612 0209 00       		.byte	0
 2613 020a 28       		.uleb128 0x28
 2614 020b 34       		.uleb128 0x34
 2615 020c 00       		.byte	0
 2616 020d 03       		.uleb128 0x3
 2617 020e 08       		.uleb128 0x8
 2618 020f 3A       		.uleb128 0x3a
 2619 0210 0B       		.uleb128 0xb
 2620 0211 3B       		.uleb128 0x3b
 2621 0212 0B       		.uleb128 0xb
 2622 0213 49       		.uleb128 0x49
ARM GAS  /tmp/cconxEuC.s 			page 47


 2623 0214 13       		.uleb128 0x13
 2624 0215 02       		.uleb128 0x2
 2625 0216 18       		.uleb128 0x18
 2626 0217 00       		.byte	0
 2627 0218 00       		.byte	0
 2628 0219 29       		.uleb128 0x29
 2629 021a 898201   		.uleb128 0x4109
 2630 021d 01       		.byte	0x1
 2631 021e 11       		.uleb128 0x11
 2632 021f 01       		.uleb128 0x1
 2633 0220 9342     		.uleb128 0x2113
 2634 0222 18       		.uleb128 0x18
 2635 0223 01       		.uleb128 0x1
 2636 0224 13       		.uleb128 0x13
 2637 0225 00       		.byte	0
 2638 0226 00       		.byte	0
 2639 0227 2A       		.uleb128 0x2a
 2640 0228 2E       		.uleb128 0x2e
 2641 0229 01       		.byte	0x1
 2642 022a 3F       		.uleb128 0x3f
 2643 022b 19       		.uleb128 0x19
 2644 022c 03       		.uleb128 0x3
 2645 022d 0E       		.uleb128 0xe
 2646 022e 3A       		.uleb128 0x3a
 2647 022f 0B       		.uleb128 0xb
 2648 0230 3B       		.uleb128 0x3b
 2649 0231 05       		.uleb128 0x5
 2650 0232 27       		.uleb128 0x27
 2651 0233 19       		.uleb128 0x19
 2652 0234 11       		.uleb128 0x11
 2653 0235 01       		.uleb128 0x1
 2654 0236 12       		.uleb128 0x12
 2655 0237 06       		.uleb128 0x6
 2656 0238 40       		.uleb128 0x40
 2657 0239 18       		.uleb128 0x18
 2658 023a 9742     		.uleb128 0x2117
 2659 023c 19       		.uleb128 0x19
 2660 023d 01       		.uleb128 0x1
 2661 023e 13       		.uleb128 0x13
 2662 023f 00       		.byte	0
 2663 0240 00       		.byte	0
 2664 0241 2B       		.uleb128 0x2b
 2665 0242 05       		.uleb128 0x5
 2666 0243 00       		.byte	0
 2667 0244 03       		.uleb128 0x3
 2668 0245 08       		.uleb128 0x8
 2669 0246 3A       		.uleb128 0x3a
 2670 0247 0B       		.uleb128 0xb
 2671 0248 3B       		.uleb128 0x3b
 2672 0249 05       		.uleb128 0x5
 2673 024a 49       		.uleb128 0x49
 2674 024b 13       		.uleb128 0x13
 2675 024c 02       		.uleb128 0x2
 2676 024d 18       		.uleb128 0x18
 2677 024e 00       		.byte	0
 2678 024f 00       		.byte	0
 2679 0250 2C       		.uleb128 0x2c
ARM GAS  /tmp/cconxEuC.s 			page 48


 2680 0251 05       		.uleb128 0x5
 2681 0252 00       		.byte	0
 2682 0253 03       		.uleb128 0x3
 2683 0254 0E       		.uleb128 0xe
 2684 0255 3A       		.uleb128 0x3a
 2685 0256 0B       		.uleb128 0xb
 2686 0257 3B       		.uleb128 0x3b
 2687 0258 05       		.uleb128 0x5
 2688 0259 49       		.uleb128 0x49
 2689 025a 13       		.uleb128 0x13
 2690 025b 02       		.uleb128 0x2
 2691 025c 18       		.uleb128 0x18
 2692 025d 00       		.byte	0
 2693 025e 00       		.byte	0
 2694 025f 2D       		.uleb128 0x2d
 2695 0260 05       		.uleb128 0x5
 2696 0261 00       		.byte	0
 2697 0262 03       		.uleb128 0x3
 2698 0263 08       		.uleb128 0x8
 2699 0264 3A       		.uleb128 0x3a
 2700 0265 0B       		.uleb128 0xb
 2701 0266 3B       		.uleb128 0x3b
 2702 0267 05       		.uleb128 0x5
 2703 0268 49       		.uleb128 0x49
 2704 0269 13       		.uleb128 0x13
 2705 026a 02       		.uleb128 0x2
 2706 026b 17       		.uleb128 0x17
 2707 026c 00       		.byte	0
 2708 026d 00       		.byte	0
 2709 026e 2E       		.uleb128 0x2e
 2710 026f 1D       		.uleb128 0x1d
 2711 0270 01       		.byte	0x1
 2712 0271 31       		.uleb128 0x31
 2713 0272 13       		.uleb128 0x13
 2714 0273 11       		.uleb128 0x11
 2715 0274 01       		.uleb128 0x1
 2716 0275 12       		.uleb128 0x12
 2717 0276 06       		.uleb128 0x6
 2718 0277 58       		.uleb128 0x58
 2719 0278 0B       		.uleb128 0xb
 2720 0279 59       		.uleb128 0x59
 2721 027a 05       		.uleb128 0x5
 2722 027b 01       		.uleb128 0x1
 2723 027c 13       		.uleb128 0x13
 2724 027d 00       		.byte	0
 2725 027e 00       		.byte	0
 2726 027f 2F       		.uleb128 0x2f
 2727 0280 2E       		.uleb128 0x2e
 2728 0281 01       		.byte	0x1
 2729 0282 3F       		.uleb128 0x3f
 2730 0283 19       		.uleb128 0x19
 2731 0284 03       		.uleb128 0x3
 2732 0285 0E       		.uleb128 0xe
 2733 0286 3A       		.uleb128 0x3a
 2734 0287 0B       		.uleb128 0xb
 2735 0288 3B       		.uleb128 0x3b
 2736 0289 05       		.uleb128 0x5
ARM GAS  /tmp/cconxEuC.s 			page 49


 2737 028a 27       		.uleb128 0x27
 2738 028b 19       		.uleb128 0x19
 2739 028c 49       		.uleb128 0x49
 2740 028d 13       		.uleb128 0x13
 2741 028e 11       		.uleb128 0x11
 2742 028f 01       		.uleb128 0x1
 2743 0290 12       		.uleb128 0x12
 2744 0291 06       		.uleb128 0x6
 2745 0292 40       		.uleb128 0x40
 2746 0293 18       		.uleb128 0x18
 2747 0294 9742     		.uleb128 0x2117
 2748 0296 19       		.uleb128 0x19
 2749 0297 01       		.uleb128 0x1
 2750 0298 13       		.uleb128 0x13
 2751 0299 00       		.byte	0
 2752 029a 00       		.byte	0
 2753 029b 30       		.uleb128 0x30
 2754 029c 05       		.uleb128 0x5
 2755 029d 00       		.byte	0
 2756 029e 03       		.uleb128 0x3
 2757 029f 0E       		.uleb128 0xe
 2758 02a0 3A       		.uleb128 0x3a
 2759 02a1 0B       		.uleb128 0xb
 2760 02a2 3B       		.uleb128 0x3b
 2761 02a3 05       		.uleb128 0x5
 2762 02a4 49       		.uleb128 0x49
 2763 02a5 13       		.uleb128 0x13
 2764 02a6 02       		.uleb128 0x2
 2765 02a7 17       		.uleb128 0x17
 2766 02a8 00       		.byte	0
 2767 02a9 00       		.byte	0
 2768 02aa 31       		.uleb128 0x31
 2769 02ab 0B       		.uleb128 0xb
 2770 02ac 01       		.byte	0x1
 2771 02ad 55       		.uleb128 0x55
 2772 02ae 17       		.uleb128 0x17
 2773 02af 01       		.uleb128 0x1
 2774 02b0 13       		.uleb128 0x13
 2775 02b1 00       		.byte	0
 2776 02b2 00       		.byte	0
 2777 02b3 32       		.uleb128 0x32
 2778 02b4 34       		.uleb128 0x34
 2779 02b5 00       		.byte	0
 2780 02b6 03       		.uleb128 0x3
 2781 02b7 08       		.uleb128 0x8
 2782 02b8 3A       		.uleb128 0x3a
 2783 02b9 0B       		.uleb128 0xb
 2784 02ba 3B       		.uleb128 0x3b
 2785 02bb 05       		.uleb128 0x5
 2786 02bc 49       		.uleb128 0x49
 2787 02bd 13       		.uleb128 0x13
 2788 02be 02       		.uleb128 0x2
 2789 02bf 17       		.uleb128 0x17
 2790 02c0 00       		.byte	0
 2791 02c1 00       		.byte	0
 2792 02c2 33       		.uleb128 0x33
 2793 02c3 1D       		.uleb128 0x1d
ARM GAS  /tmp/cconxEuC.s 			page 50


 2794 02c4 01       		.byte	0x1
 2795 02c5 31       		.uleb128 0x31
 2796 02c6 13       		.uleb128 0x13
 2797 02c7 52       		.uleb128 0x52
 2798 02c8 01       		.uleb128 0x1
 2799 02c9 55       		.uleb128 0x55
 2800 02ca 17       		.uleb128 0x17
 2801 02cb 58       		.uleb128 0x58
 2802 02cc 0B       		.uleb128 0xb
 2803 02cd 59       		.uleb128 0x59
 2804 02ce 05       		.uleb128 0x5
 2805 02cf 01       		.uleb128 0x1
 2806 02d0 13       		.uleb128 0x13
 2807 02d1 00       		.byte	0
 2808 02d2 00       		.byte	0
 2809 02d3 34       		.uleb128 0x34
 2810 02d4 0B       		.uleb128 0xb
 2811 02d5 01       		.byte	0x1
 2812 02d6 55       		.uleb128 0x55
 2813 02d7 17       		.uleb128 0x17
 2814 02d8 00       		.byte	0
 2815 02d9 00       		.byte	0
 2816 02da 35       		.uleb128 0x35
 2817 02db 34       		.uleb128 0x34
 2818 02dc 00       		.byte	0
 2819 02dd 03       		.uleb128 0x3
 2820 02de 08       		.uleb128 0x8
 2821 02df 3A       		.uleb128 0x3a
 2822 02e0 0B       		.uleb128 0xb
 2823 02e1 3B       		.uleb128 0x3b
 2824 02e2 05       		.uleb128 0x5
 2825 02e3 49       		.uleb128 0x49
 2826 02e4 13       		.uleb128 0x13
 2827 02e5 02       		.uleb128 0x2
 2828 02e6 18       		.uleb128 0x18
 2829 02e7 00       		.byte	0
 2830 02e8 00       		.byte	0
 2831 02e9 36       		.uleb128 0x36
 2832 02ea 34       		.uleb128 0x34
 2833 02eb 00       		.byte	0
 2834 02ec 03       		.uleb128 0x3
 2835 02ed 0E       		.uleb128 0xe
 2836 02ee 3A       		.uleb128 0x3a
 2837 02ef 0B       		.uleb128 0xb
 2838 02f0 3B       		.uleb128 0x3b
 2839 02f1 0B       		.uleb128 0xb
 2840 02f2 49       		.uleb128 0x49
 2841 02f3 13       		.uleb128 0x13
 2842 02f4 3F       		.uleb128 0x3f
 2843 02f5 19       		.uleb128 0x19
 2844 02f6 3C       		.uleb128 0x3c
 2845 02f7 19       		.uleb128 0x19
 2846 02f8 00       		.byte	0
 2847 02f9 00       		.byte	0
 2848 02fa 37       		.uleb128 0x37
 2849 02fb 2E       		.uleb128 0x2e
 2850 02fc 01       		.byte	0x1
ARM GAS  /tmp/cconxEuC.s 			page 51


 2851 02fd 3F       		.uleb128 0x3f
 2852 02fe 19       		.uleb128 0x19
 2853 02ff 03       		.uleb128 0x3
 2854 0300 0E       		.uleb128 0xe
 2855 0301 3A       		.uleb128 0x3a
 2856 0302 0B       		.uleb128 0xb
 2857 0303 3B       		.uleb128 0x3b
 2858 0304 0B       		.uleb128 0xb
 2859 0305 27       		.uleb128 0x27
 2860 0306 19       		.uleb128 0x19
 2861 0307 49       		.uleb128 0x49
 2862 0308 13       		.uleb128 0x13
 2863 0309 3C       		.uleb128 0x3c
 2864 030a 19       		.uleb128 0x19
 2865 030b 01       		.uleb128 0x1
 2866 030c 13       		.uleb128 0x13
 2867 030d 00       		.byte	0
 2868 030e 00       		.byte	0
 2869 030f 38       		.uleb128 0x38
 2870 0310 2E       		.uleb128 0x2e
 2871 0311 01       		.byte	0x1
 2872 0312 3F       		.uleb128 0x3f
 2873 0313 19       		.uleb128 0x19
 2874 0314 03       		.uleb128 0x3
 2875 0315 0E       		.uleb128 0xe
 2876 0316 3A       		.uleb128 0x3a
 2877 0317 0B       		.uleb128 0xb
 2878 0318 3B       		.uleb128 0x3b
 2879 0319 0B       		.uleb128 0xb
 2880 031a 27       		.uleb128 0x27
 2881 031b 19       		.uleb128 0x19
 2882 031c 49       		.uleb128 0x49
 2883 031d 13       		.uleb128 0x13
 2884 031e 3C       		.uleb128 0x3c
 2885 031f 19       		.uleb128 0x19
 2886 0320 00       		.byte	0
 2887 0321 00       		.byte	0
 2888 0322 00       		.byte	0
 2889              		.section	.debug_loc,"",%progbits
 2890              	.Ldebug_loc0:
 2891              	.LLST0:
 2892 0000 00000000 		.4byte	.LVL0
 2893 0004 14000000 		.4byte	.LVL1
 2894 0008 0100     		.2byte	0x1
 2895 000a 50       		.byte	0x50
 2896 000b 14000000 		.4byte	.LVL1
 2897 000f 2F000000 		.4byte	.LVL3-1
 2898 0013 0100     		.2byte	0x1
 2899 0015 52       		.byte	0x52
 2900 0016 2F000000 		.4byte	.LVL3-1
 2901 001a 30000000 		.4byte	.LVL3
 2902 001e 0400     		.2byte	0x4
 2903 0020 F3       		.byte	0xf3
 2904 0021 01       		.uleb128 0x1
 2905 0022 50       		.byte	0x50
 2906 0023 9F       		.byte	0x9f
 2907 0024 30000000 		.4byte	.LVL3
ARM GAS  /tmp/cconxEuC.s 			page 52


 2908 0028 34000000 		.4byte	.LVL4
 2909 002c 0100     		.2byte	0x1
 2910 002e 50       		.byte	0x50
 2911 002f 34000000 		.4byte	.LVL4
 2912 0033 3C000000 		.4byte	.LFE7
 2913 0037 0100     		.2byte	0x1
 2914 0039 52       		.byte	0x52
 2915 003a 00000000 		.4byte	0
 2916 003e 00000000 		.4byte	0
 2917              	.LLST1:
 2918 0042 00000000 		.4byte	.LVL0
 2919 0046 2F000000 		.4byte	.LVL3-1
 2920 004a 0100     		.2byte	0x1
 2921 004c 51       		.byte	0x51
 2922 004d 2F000000 		.4byte	.LVL3-1
 2923 0051 30000000 		.4byte	.LVL3
 2924 0055 0400     		.2byte	0x4
 2925 0057 F3       		.byte	0xf3
 2926 0058 01       		.uleb128 0x1
 2927 0059 51       		.byte	0x51
 2928 005a 9F       		.byte	0x9f
 2929 005b 30000000 		.4byte	.LVL3
 2930 005f 3C000000 		.4byte	.LFE7
 2931 0063 0100     		.2byte	0x1
 2932 0065 51       		.byte	0x51
 2933 0066 00000000 		.4byte	0
 2934 006a 00000000 		.4byte	0
 2935              	.LLST2:
 2936 006e 1C000000 		.4byte	.LVL2
 2937 0072 2F000000 		.4byte	.LVL3-1
 2938 0076 0100     		.2byte	0x1
 2939 0078 52       		.byte	0x52
 2940 0079 2F000000 		.4byte	.LVL3-1
 2941 007d 30000000 		.4byte	.LVL3
 2942 0081 0400     		.2byte	0x4
 2943 0083 F3       		.byte	0xf3
 2944 0084 01       		.uleb128 0x1
 2945 0085 50       		.byte	0x50
 2946 0086 9F       		.byte	0x9f
 2947 0087 00000000 		.4byte	0
 2948 008b 00000000 		.4byte	0
 2949              	.LLST3:
 2950 008f 1C000000 		.4byte	.LVL2
 2951 0093 2F000000 		.4byte	.LVL3-1
 2952 0097 0100     		.2byte	0x1
 2953 0099 53       		.byte	0x53
 2954 009a 00000000 		.4byte	0
 2955 009e 00000000 		.4byte	0
 2956              	.LLST4:
 2957 00a2 00000000 		.4byte	.LVL5
 2958 00a6 10000000 		.4byte	.LVL6
 2959 00aa 0100     		.2byte	0x1
 2960 00ac 52       		.byte	0x52
 2961 00ad 10000000 		.4byte	.LVL6
 2962 00b1 38000000 		.4byte	.LFE8
 2963 00b5 0400     		.2byte	0x4
 2964 00b7 F3       		.byte	0xf3
ARM GAS  /tmp/cconxEuC.s 			page 53


 2965 00b8 01       		.uleb128 0x1
 2966 00b9 52       		.byte	0x52
 2967 00ba 9F       		.byte	0x9f
 2968 00bb 00000000 		.4byte	0
 2969 00bf 00000000 		.4byte	0
 2970              	.LLST5:
 2971 00c3 00000000 		.4byte	.LVL7
 2972 00c7 10000000 		.4byte	.LVL8
 2973 00cb 0100     		.2byte	0x1
 2974 00cd 50       		.byte	0x50
 2975 00ce 10000000 		.4byte	.LVL8
 2976 00d2 50000000 		.4byte	.LFE9
 2977 00d6 0100     		.2byte	0x1
 2978 00d8 54       		.byte	0x54
 2979 00d9 00000000 		.4byte	0
 2980 00dd 00000000 		.4byte	0
 2981              	.LLST6:
 2982 00e1 2C000000 		.4byte	.LVL9
 2983 00e5 3B000000 		.4byte	.LVL10-1
 2984 00e9 0100     		.2byte	0x1
 2985 00eb 50       		.byte	0x50
 2986 00ec 00000000 		.4byte	0
 2987 00f0 00000000 		.4byte	0
 2988              	.LLST7:
 2989 00f4 00000000 		.4byte	.LVL11
 2990 00f8 0C000000 		.4byte	.LVL12
 2991 00fc 0100     		.2byte	0x1
 2992 00fe 50       		.byte	0x50
 2993 00ff 0C000000 		.4byte	.LVL12
 2994 0103 5F000000 		.4byte	.LVL17-1
 2995 0107 0100     		.2byte	0x1
 2996 0109 53       		.byte	0x53
 2997 010a 5F000000 		.4byte	.LVL17-1
 2998 010e 70000000 		.4byte	.LVL18
 2999 0112 0400     		.2byte	0x4
 3000 0114 F3       		.byte	0xf3
 3001 0115 01       		.uleb128 0x1
 3002 0116 50       		.byte	0x50
 3003 0117 9F       		.byte	0x9f
 3004 0118 70000000 		.4byte	.LVL18
 3005 011c 88000000 		.4byte	.LFE10
 3006 0120 0100     		.2byte	0x1
 3007 0122 53       		.byte	0x53
 3008 0123 00000000 		.4byte	0
 3009 0127 00000000 		.4byte	0
 3010              	.LLST8:
 3011 012b 00000000 		.4byte	.LVL11
 3012 012f 38000000 		.4byte	.LVL13
 3013 0133 0100     		.2byte	0x1
 3014 0135 51       		.byte	0x51
 3015 0136 38000000 		.4byte	.LVL13
 3016 013a 3C000000 		.4byte	.LVL14
 3017 013e 0200     		.2byte	0x2
 3018 0140 70       		.byte	0x70
 3019 0141 00       		.sleb128 0
 3020 0142 3C000000 		.4byte	.LVL14
 3021 0146 48000000 		.4byte	.LVL15
ARM GAS  /tmp/cconxEuC.s 			page 54


 3022 014a 0200     		.2byte	0x2
 3023 014c 7C       		.byte	0x7c
 3024 014d 7F       		.sleb128 -1
 3025 014e 48000000 		.4byte	.LVL15
 3026 0152 78000000 		.4byte	.LVL19
 3027 0156 0400     		.2byte	0x4
 3028 0158 F3       		.byte	0xf3
 3029 0159 01       		.uleb128 0x1
 3030 015a 51       		.byte	0x51
 3031 015b 9F       		.byte	0x9f
 3032 015c 78000000 		.4byte	.LVL19
 3033 0160 88000000 		.4byte	.LFE10
 3034 0164 0100     		.2byte	0x1
 3035 0166 51       		.byte	0x51
 3036 0167 00000000 		.4byte	0
 3037 016b 00000000 		.4byte	0
 3038              	.LLST9:
 3039 016f 50000000 		.4byte	.LVL16
 3040 0173 5F000000 		.4byte	.LVL17-1
 3041 0177 0100     		.2byte	0x1
 3042 0179 53       		.byte	0x53
 3043 017a 5F000000 		.4byte	.LVL17-1
 3044 017e 70000000 		.4byte	.LVL18
 3045 0182 0400     		.2byte	0x4
 3046 0184 F3       		.byte	0xf3
 3047 0185 01       		.uleb128 0x1
 3048 0186 50       		.byte	0x50
 3049 0187 9F       		.byte	0x9f
 3050 0188 00000000 		.4byte	0
 3051 018c 00000000 		.4byte	0
 3052              	.LLST10:
 3053 0190 50000000 		.4byte	.LVL16
 3054 0194 5F000000 		.4byte	.LVL17-1
 3055 0198 0100     		.2byte	0x1
 3056 019a 50       		.byte	0x50
 3057 019b 00000000 		.4byte	0
 3058 019f 00000000 		.4byte	0
 3059              	.LLST11:
 3060 01a3 00000000 		.4byte	.LVL20
 3061 01a7 1F000000 		.4byte	.LVL21-1
 3062 01ab 0100     		.2byte	0x1
 3063 01ad 50       		.byte	0x50
 3064 01ae 1F000000 		.4byte	.LVL21-1
 3065 01b2 74000000 		.4byte	.LFE11
 3066 01b6 0100     		.2byte	0x1
 3067 01b8 54       		.byte	0x54
 3068 01b9 00000000 		.4byte	0
 3069 01bd 00000000 		.4byte	0
 3070              	.LLST12:
 3071 01c1 00000000 		.4byte	.LVL20
 3072 01c5 1F000000 		.4byte	.LVL21-1
 3073 01c9 0100     		.2byte	0x1
 3074 01cb 51       		.byte	0x51
 3075 01cc 1F000000 		.4byte	.LVL21-1
 3076 01d0 74000000 		.4byte	.LFE11
 3077 01d4 0100     		.2byte	0x1
 3078 01d6 55       		.byte	0x55
ARM GAS  /tmp/cconxEuC.s 			page 55


 3079 01d7 00000000 		.4byte	0
 3080 01db 00000000 		.4byte	0
 3081              	.LLST13:
 3082 01df 68000000 		.4byte	.LVL24
 3083 01e3 6C000000 		.4byte	.LVL25
 3084 01e7 0100     		.2byte	0x1
 3085 01e9 50       		.byte	0x50
 3086 01ea 00000000 		.4byte	0
 3087 01ee 00000000 		.4byte	0
 3088              	.LLST14:
 3089 01f2 30000000 		.4byte	.LVL22
 3090 01f6 38000000 		.4byte	.LVL23
 3091 01fa 0100     		.2byte	0x1
 3092 01fc 50       		.byte	0x50
 3093 01fd 00000000 		.4byte	0
 3094 0201 00000000 		.4byte	0
 3095              	.LLST15:
 3096 0205 00000000 		.4byte	.LVL26
 3097 0209 20000000 		.4byte	.LVL28
 3098 020d 0100     		.2byte	0x1
 3099 020f 50       		.byte	0x50
 3100 0210 20000000 		.4byte	.LVL28
 3101 0214 A8000000 		.4byte	.LFE12
 3102 0218 0100     		.2byte	0x1
 3103 021a 54       		.byte	0x54
 3104 021b 00000000 		.4byte	0
 3105 021f 00000000 		.4byte	0
 3106              	.LLST16:
 3107 0223 00000000 		.4byte	.LVL26
 3108 0227 20000000 		.4byte	.LVL28
 3109 022b 0100     		.2byte	0x1
 3110 022d 51       		.byte	0x51
 3111 022e 20000000 		.4byte	.LVL28
 3112 0232 70000000 		.4byte	.LVL31
 3113 0236 0100     		.2byte	0x1
 3114 0238 58       		.byte	0x58
 3115 0239 70000000 		.4byte	.LVL31
 3116 023d 9C000000 		.4byte	.LVL33
 3117 0241 0300     		.2byte	0x3
 3118 0243 78       		.byte	0x78
 3119 0244 7F       		.sleb128 -1
 3120 0245 9F       		.byte	0x9f
 3121 0246 9C000000 		.4byte	.LVL33
 3122 024a A0000000 		.4byte	.LVL34
 3123 024e 0100     		.2byte	0x1
 3124 0250 58       		.byte	0x58
 3125 0251 00000000 		.4byte	0
 3126 0255 00000000 		.4byte	0
 3127              	.LLST17:
 3128 0259 00000000 		.4byte	.LVL26
 3129 025d 20000000 		.4byte	.LVL28
 3130 0261 0100     		.2byte	0x1
 3131 0263 52       		.byte	0x52
 3132 0264 8C000000 		.4byte	.LVL32
 3133 0268 9C000000 		.4byte	.LVL33
 3134 026c 0600     		.2byte	0x6
 3135 026e 79       		.byte	0x79
ARM GAS  /tmp/cconxEuC.s 			page 56


 3136 026f 00       		.sleb128 0
 3137 0270 76       		.byte	0x76
 3138 0271 00       		.sleb128 0
 3139 0272 1C       		.byte	0x1c
 3140 0273 9F       		.byte	0x9f
 3141 0274 00000000 		.4byte	0
 3142 0278 00000000 		.4byte	0
 3143              	.LLST18:
 3144 027c 00000000 		.4byte	.LVL26
 3145 0280 20000000 		.4byte	.LVL28
 3146 0284 0100     		.2byte	0x1
 3147 0286 53       		.byte	0x53
 3148 0287 20000000 		.4byte	.LVL28
 3149 028b A8000000 		.4byte	.LFE12
 3150 028f 0100     		.2byte	0x1
 3151 0291 55       		.byte	0x55
 3152 0292 00000000 		.4byte	0
 3153 0296 00000000 		.4byte	0
 3154              	.LLST19:
 3155 029a 18000000 		.4byte	.LVL27
 3156 029e 20000000 		.4byte	.LVL28
 3157 02a2 0200     		.2byte	0x2
 3158 02a4 30       		.byte	0x30
 3159 02a5 9F       		.byte	0x9f
 3160 02a6 20000000 		.4byte	.LVL28
 3161 02aa A8000000 		.4byte	.LFE12
 3162 02ae 0100     		.2byte	0x1
 3163 02b0 56       		.byte	0x56
 3164 02b1 00000000 		.4byte	0
 3165 02b5 00000000 		.4byte	0
 3166              	.LLST20:
 3167 02b9 00000000 		.4byte	.LVL36
 3168 02bd 14000000 		.4byte	.LVL37
 3169 02c1 0100     		.2byte	0x1
 3170 02c3 50       		.byte	0x50
 3171 02c4 14000000 		.4byte	.LVL37
 3172 02c8 54000000 		.4byte	.LFE14
 3173 02cc 0100     		.2byte	0x1
 3174 02ce 54       		.byte	0x54
 3175 02cf 00000000 		.4byte	0
 3176 02d3 00000000 		.4byte	0
 3177              	.LLST21:
 3178 02d7 30000000 		.4byte	.LVL38
 3179 02db 3F000000 		.4byte	.LVL39-1
 3180 02df 0100     		.2byte	0x1
 3181 02e1 50       		.byte	0x50
 3182 02e2 00000000 		.4byte	0
 3183 02e6 00000000 		.4byte	0
 3184              	.LLST22:
 3185 02ea 00000000 		.4byte	.LVL40
 3186 02ee 18000000 		.4byte	.LVL41
 3187 02f2 0100     		.2byte	0x1
 3188 02f4 50       		.byte	0x50
 3189 02f5 18000000 		.4byte	.LVL41
 3190 02f9 8C000000 		.4byte	.LFE15
 3191 02fd 0100     		.2byte	0x1
 3192 02ff 54       		.byte	0x54
ARM GAS  /tmp/cconxEuC.s 			page 57


 3193 0300 00000000 		.4byte	0
 3194 0304 00000000 		.4byte	0
 3195              	.LLST23:
 3196 0308 00000000 		.4byte	.LVL40
 3197 030c 18000000 		.4byte	.LVL41
 3198 0310 0100     		.2byte	0x1
 3199 0312 51       		.byte	0x51
 3200 0313 18000000 		.4byte	.LVL41
 3201 0317 8C000000 		.4byte	.LFE15
 3202 031b 0400     		.2byte	0x4
 3203 031d F3       		.byte	0xf3
 3204 031e 01       		.uleb128 0x1
 3205 031f 51       		.byte	0x51
 3206 0320 9F       		.byte	0x9f
 3207 0321 00000000 		.4byte	0
 3208 0325 00000000 		.4byte	0
 3209              	.LLST24:
 3210 0329 00000000 		.4byte	.LVL40
 3211 032d 18000000 		.4byte	.LVL41
 3212 0331 0100     		.2byte	0x1
 3213 0333 52       		.byte	0x52
 3214 0334 18000000 		.4byte	.LVL41
 3215 0338 8C000000 		.4byte	.LFE15
 3216 033c 0100     		.2byte	0x1
 3217 033e 55       		.byte	0x55
 3218 033f 00000000 		.4byte	0
 3219 0343 00000000 		.4byte	0
 3220              	.LLST25:
 3221 0347 24000000 		.4byte	.LVL42
 3222 034b 2C000000 		.4byte	.LVL43
 3223 034f 0100     		.2byte	0x1
 3224 0351 50       		.byte	0x50
 3225 0352 84000000 		.4byte	.LVL45
 3226 0356 8C000000 		.4byte	.LFE15
 3227 035a 0100     		.2byte	0x1
 3228 035c 50       		.byte	0x50
 3229 035d 00000000 		.4byte	0
 3230 0361 00000000 		.4byte	0
 3231              	.LLST26:
 3232 0365 00000000 		.4byte	.LVL46
 3233 0369 54000000 		.4byte	.LVL49
 3234 036d 0100     		.2byte	0x1
 3235 036f 50       		.byte	0x50
 3236 0370 54000000 		.4byte	.LVL49
 3237 0374 5F000000 		.4byte	.LVL50-1
 3238 0378 0100     		.2byte	0x1
 3239 037a 53       		.byte	0x53
 3240 037b 5F000000 		.4byte	.LVL50-1
 3241 037f 70000000 		.4byte	.LVL52
 3242 0383 0400     		.2byte	0x4
 3243 0385 F3       		.byte	0xf3
 3244 0386 01       		.uleb128 0x1
 3245 0387 50       		.byte	0x50
 3246 0388 9F       		.byte	0x9f
 3247 0389 70000000 		.4byte	.LVL52
 3248 038d 7C000000 		.4byte	.LVL53
 3249 0391 0100     		.2byte	0x1
ARM GAS  /tmp/cconxEuC.s 			page 58


 3250 0393 50       		.byte	0x50
 3251 0394 7C000000 		.4byte	.LVL53
 3252 0398 80000000 		.4byte	.LFE16
 3253 039c 0400     		.2byte	0x4
 3254 039e F3       		.byte	0xf3
 3255 039f 01       		.uleb128 0x1
 3256 03a0 50       		.byte	0x50
 3257 03a1 9F       		.byte	0x9f
 3258 03a2 00000000 		.4byte	0
 3259 03a6 00000000 		.4byte	0
 3260              	.LLST27:
 3261 03aa 34000000 		.4byte	.LVL47
 3262 03ae 70000000 		.4byte	.LVL52
 3263 03b2 0100     		.2byte	0x1
 3264 03b4 54       		.byte	0x54
 3265 03b5 00000000 		.4byte	0
 3266 03b9 00000000 		.4byte	0
 3267              	.LLST28:
 3268 03bd 4C000000 		.4byte	.LVL48
 3269 03c1 5F000000 		.4byte	.LVL50-1
 3270 03c5 0100     		.2byte	0x1
 3271 03c7 53       		.byte	0x53
 3272 03c8 5F000000 		.4byte	.LVL50-1
 3273 03cc 68000000 		.4byte	.LVL51
 3274 03d0 0400     		.2byte	0x4
 3275 03d2 F3       		.byte	0xf3
 3276 03d3 01       		.uleb128 0x1
 3277 03d4 50       		.byte	0x50
 3278 03d5 9F       		.byte	0x9f
 3279 03d6 00000000 		.4byte	0
 3280 03da 00000000 		.4byte	0
 3281              	.LLST29:
 3282 03de 4C000000 		.4byte	.LVL48
 3283 03e2 5F000000 		.4byte	.LVL50-1
 3284 03e6 0100     		.2byte	0x1
 3285 03e8 52       		.byte	0x52
 3286 03e9 00000000 		.4byte	0
 3287 03ed 00000000 		.4byte	0
 3288              	.LLST30:
 3289 03f1 00000000 		.4byte	.LVL54
 3290 03f5 20000000 		.4byte	.LVL56
 3291 03f9 0100     		.2byte	0x1
 3292 03fb 50       		.byte	0x50
 3293 03fc 20000000 		.4byte	.LVL56
 3294 0400 AC000000 		.4byte	.LFE17
 3295 0404 0100     		.2byte	0x1
 3296 0406 54       		.byte	0x54
 3297 0407 00000000 		.4byte	0
 3298 040b 00000000 		.4byte	0
 3299              	.LLST31:
 3300 040f 00000000 		.4byte	.LVL54
 3301 0413 20000000 		.4byte	.LVL56
 3302 0417 0100     		.2byte	0x1
 3303 0419 51       		.byte	0x51
 3304 041a 20000000 		.4byte	.LVL56
 3305 041e 28000000 		.4byte	.LVL57
 3306 0422 0100     		.2byte	0x1
ARM GAS  /tmp/cconxEuC.s 			page 59


 3307 0424 55       		.byte	0x55
 3308 0425 28000000 		.4byte	.LVL57
 3309 0429 AC000000 		.4byte	.LFE17
 3310 042d 0100     		.2byte	0x1
 3311 042f 5A       		.byte	0x5a
 3312 0430 00000000 		.4byte	0
 3313 0434 00000000 		.4byte	0
 3314              	.LLST32:
 3315 0438 00000000 		.4byte	.LVL54
 3316 043c 20000000 		.4byte	.LVL56
 3317 0440 0100     		.2byte	0x1
 3318 0442 52       		.byte	0x52
 3319 0443 20000000 		.4byte	.LVL56
 3320 0447 78000000 		.4byte	.LVL59
 3321 044b 0100     		.2byte	0x1
 3322 044d 56       		.byte	0x56
 3323 044e 78000000 		.4byte	.LVL59
 3324 0452 7C000000 		.4byte	.LVL60
 3325 0456 0300     		.2byte	0x3
 3326 0458 76       		.byte	0x76
 3327 0459 01       		.sleb128 1
 3328 045a 9F       		.byte	0x9f
 3329 045b 8C000000 		.4byte	.LVL61
 3330 045f A4000000 		.4byte	.LVL63
 3331 0463 0100     		.2byte	0x1
 3332 0465 56       		.byte	0x56
 3333 0466 00000000 		.4byte	0
 3334 046a 00000000 		.4byte	0
 3335              	.LLST33:
 3336 046e 00000000 		.4byte	.LVL54
 3337 0472 20000000 		.4byte	.LVL56
 3338 0476 0100     		.2byte	0x1
 3339 0478 53       		.byte	0x53
 3340 0479 20000000 		.4byte	.LVL56
 3341 047d AC000000 		.4byte	.LFE17
 3342 0481 0100     		.2byte	0x1
 3343 0483 59       		.byte	0x59
 3344 0484 00000000 		.4byte	0
 3345 0488 00000000 		.4byte	0
 3346              	.LLST34:
 3347 048c 18000000 		.4byte	.LVL55
 3348 0490 20000000 		.4byte	.LVL56
 3349 0494 0200     		.2byte	0x2
 3350 0496 30       		.byte	0x30
 3351 0497 9F       		.byte	0x9f
 3352 0498 20000000 		.4byte	.LVL56
 3353 049c AC000000 		.4byte	.LFE17
 3354 04a0 0100     		.2byte	0x1
 3355 04a2 57       		.byte	0x57
 3356 04a3 00000000 		.4byte	0
 3357 04a7 00000000 		.4byte	0
 3358              		.section	.debug_aranges,"",%progbits
 3359 0000 6C000000 		.4byte	0x6c
 3360 0004 0200     		.2byte	0x2
 3361 0006 00000000 		.4byte	.Ldebug_info0
 3362 000a 04       		.byte	0x4
 3363 000b 00       		.byte	0
ARM GAS  /tmp/cconxEuC.s 			page 60


 3364 000c 0000     		.2byte	0
 3365 000e 0000     		.2byte	0
 3366 0010 00000000 		.4byte	.LFB7
 3367 0014 3C000000 		.4byte	.LFE7-.LFB7
 3368 0018 00000000 		.4byte	.LFB8
 3369 001c 38000000 		.4byte	.LFE8-.LFB8
 3370 0020 00000000 		.4byte	.LFB9
 3371 0024 50000000 		.4byte	.LFE9-.LFB9
 3372 0028 00000000 		.4byte	.LFB10
 3373 002c 88000000 		.4byte	.LFE10-.LFB10
 3374 0030 00000000 		.4byte	.LFB11
 3375 0034 74000000 		.4byte	.LFE11-.LFB11
 3376 0038 00000000 		.4byte	.LFB12
 3377 003c A8000000 		.4byte	.LFE12-.LFB12
 3378 0040 00000000 		.4byte	.LFB13
 3379 0044 34000000 		.4byte	.LFE13-.LFB13
 3380 0048 00000000 		.4byte	.LFB14
 3381 004c 54000000 		.4byte	.LFE14-.LFB14
 3382 0050 00000000 		.4byte	.LFB15
 3383 0054 8C000000 		.4byte	.LFE15-.LFB15
 3384 0058 00000000 		.4byte	.LFB16
 3385 005c 80000000 		.4byte	.LFE16-.LFB16
 3386 0060 00000000 		.4byte	.LFB17
 3387 0064 AC000000 		.4byte	.LFE17-.LFB17
 3388 0068 00000000 		.4byte	0
 3389 006c 00000000 		.4byte	0
 3390              		.section	.debug_ranges,"",%progbits
 3391              	.Ldebug_ranges0:
 3392 0000 18000000 		.4byte	.LBB21
 3393 0004 2C000000 		.4byte	.LBE21
 3394 0008 84000000 		.4byte	.LBB22
 3395 000c 8C000000 		.4byte	.LBE22
 3396 0010 00000000 		.4byte	0
 3397 0014 00000000 		.4byte	0
 3398 0018 4C000000 		.4byte	.LBB23
 3399 001c 50000000 		.4byte	.LBE23
 3400 0020 54000000 		.4byte	.LBB26
 3401 0024 5C000000 		.4byte	.LBE26
 3402 0028 00000000 		.4byte	0
 3403 002c 00000000 		.4byte	0
 3404 0030 00000000 		.4byte	.LFB7
 3405 0034 3C000000 		.4byte	.LFE7
 3406 0038 00000000 		.4byte	.LFB8
 3407 003c 38000000 		.4byte	.LFE8
 3408 0040 00000000 		.4byte	.LFB9
 3409 0044 50000000 		.4byte	.LFE9
 3410 0048 00000000 		.4byte	.LFB10
 3411 004c 88000000 		.4byte	.LFE10
 3412 0050 00000000 		.4byte	.LFB11
 3413 0054 74000000 		.4byte	.LFE11
 3414 0058 00000000 		.4byte	.LFB12
 3415 005c A8000000 		.4byte	.LFE12
 3416 0060 00000000 		.4byte	.LFB13
 3417 0064 34000000 		.4byte	.LFE13
 3418 0068 00000000 		.4byte	.LFB14
 3419 006c 54000000 		.4byte	.LFE14
 3420 0070 00000000 		.4byte	.LFB15
ARM GAS  /tmp/cconxEuC.s 			page 61


 3421 0074 8C000000 		.4byte	.LFE15
 3422 0078 00000000 		.4byte	.LFB16
 3423 007c 80000000 		.4byte	.LFE16
 3424 0080 00000000 		.4byte	.LFB17
 3425 0084 AC000000 		.4byte	.LFE17
 3426 0088 00000000 		.4byte	0
 3427 008c 00000000 		.4byte	0
 3428              		.section	.debug_line,"",%progbits
 3429              	.Ldebug_line0:
 3430 0000 14030000 		.section	.debug_str,"MS",%progbits,1
 3430      02005601 
 3430      00000201 
 3430      FB0E0D00 
 3430      01010101 
 3431              	.LASF87:
 3432 0000 63684F51 		.ascii	"chOQInit\000"
 3432      496E6974 
 3432      00
 3433              	.LASF40:
 3434 0009 705F6D73 		.ascii	"p_msg\000"
 3434      6700
 3435              	.LASF96:
 3436 000f 71756575 		.ascii	"queue_insert\000"
 3436      655F696E 
 3436      73657274 
 3436      00
 3437              	.LASF88:
 3438 001c 6F6E6679 		.ascii	"onfy\000"
 3438      00
 3439              	.LASF2:
 3440 0021 73697A65 		.ascii	"size_t\000"
 3440      5F7400
 3441              	.LASF60:
 3442 0028 7264796D 		.ascii	"rdymsg\000"
 3442      736700
 3443              	.LASF82:
 3444 002f 63684951 		.ascii	"chIQInit\000"
 3444      496E6974 
 3444      00
 3445              	.LASF77:
 3446 0038 4F757470 		.ascii	"OutputQueue\000"
 3446      75745175 
 3446      65756500 
 3447              	.LASF3:
 3448 0044 5F5F7569 		.ascii	"__uint8_t\000"
 3448      6E74385F 
 3448      7400
 3449              	.LASF86:
 3450 004e 63684951 		.ascii	"chIQReadTimeout\000"
 3450      52656164 
 3450      54696D65 
 3450      6F757400 
 3451              	.LASF12:
 3452 005e 6C6F6E67 		.ascii	"long long unsigned int\000"
 3452      206C6F6E 
 3452      6720756E 
 3452      7369676E 
ARM GAS  /tmp/cconxEuC.s 			page 62


 3452      65642069 
 3453              	.LASF61:
 3454 0075 65786974 		.ascii	"exitcode\000"
 3454      636F6465 
 3454      00
 3455              	.LASF28:
 3456 007e 705F7072 		.ascii	"p_prio\000"
 3456      696F00
 3457              	.LASF67:
 3458 0085 715F7761 		.ascii	"q_waiting\000"
 3458      6974696E 
 3458      6700
 3459              	.LASF11:
 3460 008f 6C6F6E67 		.ascii	"long long int\000"
 3460      206C6F6E 
 3460      6720696E 
 3460      7400
 3461              	.LASF1:
 3462 009d 7369676E 		.ascii	"signed char\000"
 3462      65642063 
 3462      68617200 
 3463              	.LASF16:
 3464 00a9 626F6F6C 		.ascii	"bool_t\000"
 3464      5F7400
 3465              	.LASF57:
 3466 00b0 6D5F7175 		.ascii	"m_queue\000"
 3466      65756500 
 3467              	.LASF20:
 3468 00b8 74736C69 		.ascii	"tslices_t\000"
 3468      6365735F 
 3468      7400
 3469              	.LASF98:
 3470 00c2 71776169 		.ascii	"qwait\000"
 3470      7400
 3471              	.LASF8:
 3472 00c8 6C6F6E67 		.ascii	"long int\000"
 3472      20696E74 
 3472      00
 3473              	.LASF18:
 3474 00d1 74737461 		.ascii	"tstate_t\000"
 3474      74655F74 
 3474      00
 3475              	.LASF91:
 3476 00da 63684F51 		.ascii	"chOQGetI\000"
 3476      47657449 
 3476      00
 3477              	.LASF69:
 3478 00e3 715F6275 		.ascii	"q_buffer\000"
 3478      66666572 
 3478      00
 3479              	.LASF71:
 3480 00ec 715F7772 		.ascii	"q_wrptr\000"
 3480      70747200 
 3481              	.LASF30:
 3482 00f4 705F6E65 		.ascii	"p_newer\000"
 3482      77657200 
 3483              	.LASF9:
ARM GAS  /tmp/cconxEuC.s 			page 63


 3484 00fc 5F5F7569 		.ascii	"__uint32_t\000"
 3484      6E743332 
 3484      5F7400
 3485              	.LASF46:
 3486 0107 72656761 		.ascii	"regarm_t\000"
 3486      726D5F74 
 3486      00
 3487              	.LASF81:
 3488 0110 6C696E6B 		.ascii	"link\000"
 3488      00
 3489              	.LASF90:
 3490 0115 63684F51 		.ascii	"chOQPutTimeout\000"
 3490      50757454 
 3490      696D656F 
 3490      757400
 3491              	.LASF84:
 3492 0124 63684951 		.ascii	"chIQPutI\000"
 3492      50757449 
 3492      00
 3493              	.LASF0:
 3494 012d 756E7369 		.ascii	"unsigned int\000"
 3494      676E6564 
 3494      20696E74 
 3494      00
 3495              	.LASF83:
 3496 013a 63684951 		.ascii	"chIQResetI\000"
 3496      52657365 
 3496      744900
 3497              	.LASF10:
 3498 0145 6C6F6E67 		.ascii	"long unsigned int\000"
 3498      20756E73 
 3498      69676E65 
 3498      6420696E 
 3498      7400
 3499              	.LASF48:
 3500 0157 636F6E74 		.ascii	"context\000"
 3500      65787400 
 3501              	.LASF79:
 3502 015f 73697A65 		.ascii	"size\000"
 3502      00
 3503              	.LASF6:
 3504 0164 73686F72 		.ascii	"short unsigned int\000"
 3504      7420756E 
 3504      7369676E 
 3504      65642069 
 3504      6E7400
 3505              	.LASF22:
 3506 0177 6D73675F 		.ascii	"msg_t\000"
 3506      7400
 3507              	.LASF52:
 3508 017d 725F6E65 		.ascii	"r_newer\000"
 3508      77657200 
 3509              	.LASF94:
 3510 0185 2E2E2F2E 		.ascii	"../../os/kernel/src/chqueues.c\000"
 3510      2E2F6F73 
 3510      2F6B6572 
 3510      6E656C2F 
ARM GAS  /tmp/cconxEuC.s 			page 64


 3510      7372632F 
 3511              	.LASF45:
 3512 01a4 54687265 		.ascii	"ThreadsList\000"
 3512      6164734C 
 3512      69737400 
 3513              	.LASF23:
 3514 01b0 6576656E 		.ascii	"eventmask_t\000"
 3514      746D6173 
 3514      6B5F7400 
 3515              	.LASF76:
 3516 01bc 496E7075 		.ascii	"InputQueue\000"
 3516      74517565 
 3516      756500
 3517              	.LASF56:
 3518 01c7 4D757465 		.ascii	"Mutex\000"
 3518      7800
 3519              	.LASF66:
 3520 01cd 47656E65 		.ascii	"GenericQueue\000"
 3520      72696351 
 3520      75657565 
 3520      00
 3521              	.LASF92:
 3522 01da 63684F51 		.ascii	"chOQWriteTimeout\000"
 3522      57726974 
 3522      6554696D 
 3522      656F7574 
 3522      00
 3523              	.LASF65:
 3524 01eb 73697A65 		.ascii	"sizetype\000"
 3524      74797065 
 3524      00
 3525              	.LASF68:
 3526 01f4 715F636F 		.ascii	"q_counter\000"
 3526      756E7465 
 3526      7200
 3527              	.LASF31:
 3528 01fe 705F6F6C 		.ascii	"p_older\000"
 3528      64657200 
 3529              	.LASF51:
 3530 0206 725F6374 		.ascii	"r_ctx\000"
 3530      7800
 3531              	.LASF44:
 3532 020c 54687265 		.ascii	"ThreadsQueue\000"
 3532      61647351 
 3532      75657565 
 3532      00
 3533              	.LASF78:
 3534 0219 74696D65 		.ascii	"time\000"
 3534      00
 3535              	.LASF54:
 3536 021e 725F6375 		.ascii	"r_current\000"
 3536      7272656E 
 3536      7400
 3537              	.LASF53:
 3538 0228 725F6F6C 		.ascii	"r_older\000"
 3538      64657200 
 3539              	.LASF19:
ARM GAS  /tmp/cconxEuC.s 			page 65


 3540 0230 74726566 		.ascii	"trefs_t\000"
 3540      735F7400 
 3541              	.LASF75:
 3542 0238 716E6F74 		.ascii	"qnotify_t\000"
 3542      6966795F 
 3542      7400
 3543              	.LASF27:
 3544 0242 705F7072 		.ascii	"p_prev\000"
 3544      657600
 3545              	.LASF21:
 3546 0249 74707269 		.ascii	"tprio_t\000"
 3546      6F5F7400 
 3547              	.LASF72:
 3548 0251 715F7264 		.ascii	"q_rdptr\000"
 3548      70747200 
 3549              	.LASF14:
 3550 0259 696E7433 		.ascii	"int32_t\000"
 3550      325F7400 
 3551              	.LASF4:
 3552 0261 756E7369 		.ascii	"unsigned char\000"
 3552      676E6564 
 3552      20636861 
 3552      7200
 3553              	.LASF42:
 3554 026f 705F6D74 		.ascii	"p_mtxlist\000"
 3554      786C6973 
 3554      7400
 3555              	.LASF5:
 3556 0279 73686F72 		.ascii	"short int\000"
 3556      7420696E 
 3556      7400
 3557              	.LASF33:
 3558 0283 705F7374 		.ascii	"p_state\000"
 3558      61746500 
 3559              	.LASF36:
 3560 028b 705F7072 		.ascii	"p_preempt\000"
 3560      65656D70 
 3560      7400
 3561              	.LASF50:
 3562 0295 725F7072 		.ascii	"r_prio\000"
 3562      696F00
 3563              	.LASF63:
 3564 029c 65776D61 		.ascii	"ewmask\000"
 3564      736B00
 3565              	.LASF26:
 3566 02a3 705F6E65 		.ascii	"p_next\000"
 3566      787400
 3567              	.LASF17:
 3568 02aa 746D6F64 		.ascii	"tmode_t\000"
 3568      655F7400 
 3569              	.LASF34:
 3570 02b2 705F666C 		.ascii	"p_flags\000"
 3570      61677300 
 3571              	.LASF25:
 3572 02ba 54687265 		.ascii	"Thread\000"
 3572      616400
 3573              	.LASF41:
ARM GAS  /tmp/cconxEuC.s 			page 66


 3574 02c1 705F6570 		.ascii	"p_epending\000"
 3574      656E6469 
 3574      6E6700
 3575              	.LASF15:
 3576 02cc 75696E74 		.ascii	"uint32_t\000"
 3576      33325F74 
 3576      00
 3577              	.LASF49:
 3578 02d5 725F7175 		.ascii	"r_queue\000"
 3578      65756500 
 3579              	.LASF101:
 3580 02dd 63685363 		.ascii	"chSchReadyI\000"
 3580      68526561 
 3580      64794900 
 3581              	.LASF64:
 3582 02e9 63686172 		.ascii	"char\000"
 3582      00
 3583              	.LASF97:
 3584 02ee 6669666F 		.ascii	"fifo_remove\000"
 3584      5F72656D 
 3584      6F766500 
 3585              	.LASF59:
 3586 02fa 6D5F6E65 		.ascii	"m_next\000"
 3586      787400
 3587              	.LASF24:
 3588 0301 73797374 		.ascii	"systime_t\000"
 3588      696D655F 
 3588      7400
 3589              	.LASF43:
 3590 030b 705F7265 		.ascii	"p_realprio\000"
 3590      616C7072 
 3590      696F00
 3591              	.LASF7:
 3592 0316 5F5F696E 		.ascii	"__int32_t\000"
 3592      7433325F 
 3592      7400
 3593              	.LASF80:
 3594 0320 696E6679 		.ascii	"infy\000"
 3594      00
 3595              	.LASF89:
 3596 0325 63684F51 		.ascii	"chOQResetI\000"
 3596      52657365 
 3596      744900
 3597              	.LASF37:
 3598 0330 705F7469 		.ascii	"p_time\000"
 3598      6D6500
 3599              	.LASF47:
 3600 0337 696E7463 		.ascii	"intctx\000"
 3600      747800
 3601              	.LASF39:
 3602 033e 705F6D73 		.ascii	"p_msgqueue\000"
 3602      67717565 
 3602      756500
 3603              	.LASF95:
 3604 0349 2F686F6D 		.ascii	"/home/hunter/development/chibi/ChibiOS-RPi/demos/AR"
 3604      652F6875 
 3604      6E746572 
ARM GAS  /tmp/cconxEuC.s 			page 67


 3604      2F646576 
 3604      656C6F70 
 3605 037c 4D31312D 		.ascii	"M11-BCM2835-GCC\000"
 3605      42434D32 
 3605      3833352D 
 3605      47434300 
 3606              	.LASF70:
 3607 038c 715F746F 		.ascii	"q_top\000"
 3607      7000
 3608              	.LASF35:
 3609 0392 705F7265 		.ascii	"p_refs\000"
 3609      667300
 3610              	.LASF55:
 3611 0399 52656164 		.ascii	"ReadyList\000"
 3611      794C6973 
 3611      7400
 3612              	.LASF73:
 3613 03a3 715F6E6F 		.ascii	"q_notify\000"
 3613      74696679 
 3613      00
 3614              	.LASF99:
 3615 03ac 726C6973 		.ascii	"rlist\000"
 3615      7400
 3616              	.LASF13:
 3617 03b2 75696E74 		.ascii	"uint8_t\000"
 3617      385F7400 
 3618              	.LASF62:
 3619 03ba 77746F62 		.ascii	"wtobjp\000"
 3619      6A7000
 3620              	.LASF32:
 3621 03c1 705F6E61 		.ascii	"p_name\000"
 3621      6D6500
 3622              	.LASF93:
 3623 03c8 474E5520 		.ascii	"GNU C 4.9.3 20150529 (prerelease) -mcpu=arm1176jz-s"
 3623      4320342E 
 3623      392E3320 
 3623      32303135 
 3623      30353239 
 3624 03fb 202D6D6E 		.ascii	" -mno-thumb-interwork -ggdb -O2 -fomit-frame-pointe"
 3624      6F2D7468 
 3624      756D622D 
 3624      696E7465 
 3624      72776F72 
 3625 042e 72202D66 		.ascii	"r -ffunction-sections -fdata-sections\000"
 3625      66756E63 
 3625      74696F6E 
 3625      2D736563 
 3625      74696F6E 
 3626              	.LASF100:
 3627 0454 63685363 		.ascii	"chSchGoSleepTimeoutS\000"
 3627      68476F53 
 3627      6C656570 
 3627      54696D65 
 3627      6F757453 
 3628              	.LASF74:
 3629 0469 715F6C69 		.ascii	"q_link\000"
 3629      6E6B00
ARM GAS  /tmp/cconxEuC.s 			page 68


 3630              	.LASF58:
 3631 0470 6D5F6F77 		.ascii	"m_owner\000"
 3631      6E657200 
 3632              	.LASF29:
 3633 0478 705F6374 		.ascii	"p_ctx\000"
 3633      7800
 3634              	.LASF38:
 3635 047e 705F7761 		.ascii	"p_waiting\000"
 3635      6974696E 
 3635      6700
 3636              	.LASF85:
 3637 0488 63684951 		.ascii	"chIQGetTimeout\000"
 3637      47657454 
 3637      696D656F 
 3637      757400
 3638              		.ident	"GCC: (15:4.9.3+svn231177-1) 4.9.3 20150529 (prerelease)"
ARM GAS  /tmp/cconxEuC.s 			page 69


DEFINED SYMBOLS
                            *ABS*:0000000000000000 chqueues.c
     /tmp/cconxEuC.s:17     .text.qwait:0000000000000000 $a
     /tmp/cconxEuC.s:19     .text.qwait:0000000000000000 qwait
     /tmp/cconxEuC.s:65     .text.qwait:0000000000000038 $d
     /tmp/cconxEuC.s:70     .text.chIQInit:0000000000000000 $a
     /tmp/cconxEuC.s:73     .text.chIQInit:0000000000000000 chIQInit
     /tmp/cconxEuC.s:109    .text.chIQResetI:0000000000000000 $a
     /tmp/cconxEuC.s:112    .text.chIQResetI:0000000000000000 chIQResetI
     /tmp/cconxEuC.s:168    .text.chIQPutI:0000000000000000 $a
     /tmp/cconxEuC.s:171    .text.chIQPutI:0000000000000000 chIQPutI
     /tmp/cconxEuC.s:251    .text.chIQGetTimeout:0000000000000000 $a
     /tmp/cconxEuC.s:254    .text.chIQGetTimeout:0000000000000000 chIQGetTimeout
     /tmp/cconxEuC.s:330    .text.chIQReadTimeout:0000000000000000 $a
     /tmp/cconxEuC.s:333    .text.chIQReadTimeout:0000000000000000 chIQReadTimeout
     /tmp/cconxEuC.s:438    .text.chOQInit:0000000000000000 $a
     /tmp/cconxEuC.s:441    .text.chOQInit:0000000000000000 chOQInit
     /tmp/cconxEuC.s:475    .text.chOQResetI:0000000000000000 $a
     /tmp/cconxEuC.s:478    .text.chOQResetI:0000000000000000 chOQResetI
     /tmp/cconxEuC.s:536    .text.chOQPutTimeout:0000000000000000 $a
     /tmp/cconxEuC.s:539    .text.chOQPutTimeout:0000000000000000 chOQPutTimeout
     /tmp/cconxEuC.s:628    .text.chOQGetI:0000000000000000 $a
     /tmp/cconxEuC.s:631    .text.chOQGetI:0000000000000000 chOQGetI
     /tmp/cconxEuC.s:716    .text.chOQWriteTimeout:0000000000000000 $a
     /tmp/cconxEuC.s:719    .text.chOQWriteTimeout:0000000000000000 chOQWriteTimeout
                     .debug_frame:0000000000000010 $d

UNDEFINED SYMBOLS
chSchGoSleepTimeoutS
rlist
chSchReadyI
