ARM GAS  /tmp/ccInfMW2.s 			page 1


   1              		.cpu arm1176jz-s
   2              		.fpu softvfp
   3              		.eabi_attribute 20, 1
   4              		.eabi_attribute 21, 1
   5              		.eabi_attribute 23, 3
   6              		.eabi_attribute 24, 1
   7              		.eabi_attribute 25, 1
   8              		.eabi_attribute 26, 1
   9              		.eabi_attribute 30, 2
  10              		.eabi_attribute 34, 1
  11              		.eabi_attribute 18, 4
  12              		.file	"chschd.c"
  13              		.text
  14              	.Ltext0:
  15              		.cfi_sections	.debug_frame
  16              		.section	.text.wakeup,"ax",%progbits
  17              		.align	2
  18              		.type	wakeup, %function
  19              	wakeup:
  20              	.LFB10:
  21              		.file 1 "../../os/kernel/src/chschd.c"
  22              		.loc 1 129 0
  23              		.cfi_startproc
  24              		@ args = 0, pretend = 0, frame = 0
  25              		@ frame_needed = 0, uses_anonymous_args = 0
  26              		@ link register save eliminated.
  27              	.LVL0:
  28              		.loc 1 133 0
  29 0000 1C30D0E5 		ldrb	r3, [r0, #28]	@ zero_extendqisi2
  30 0004 0D0053E3 		cmp	r3, #13
  31 0008 03F19F97 		ldrls	pc, [pc, r3, asl #2]
  32 000c 150000EA 		b	.L2
  33              	.L4:
  34 0010 A4000000 		.word	.L1
  35 0014 68000000 		.word	.L2
  36 0018 68000000 		.word	.L2
  37 001c 48000000 		.word	.L5
  38 0020 68000000 		.word	.L2
  39 0024 58000000 		.word	.L6
  40 0028 68000000 		.word	.L2
  41 002c 68000000 		.word	.L2
  42 0030 68000000 		.word	.L2
  43 0034 68000000 		.word	.L2
  44 0038 68000000 		.word	.L2
  45 003c 68000000 		.word	.L2
  46 0040 68000000 		.word	.L2
  47 0044 58000000 		.word	.L6
  48              	.L5:
  49              		.loc 1 143 0
  50 0048 242090E5 		ldr	r2, [r0, #36]
  51 004c 083092E5 		ldr	r3, [r2, #8]
  52 0050 013083E2 		add	r3, r3, #1
  53 0054 083082E5 		str	r3, [r2, #8]
  54              	.L6:
  55              	.LVL1:
  56              	.LBB33:
  57              	.LBB34:
ARM GAS  /tmp/ccInfMW2.s 			page 2


  58              		.file 2 "../../os/kernel/include/chinline.h"
  59              		.loc 2 68 0
  60 0058 0C0090E8 		ldmia	r0, {r2, r3}
  61 005c 002083E5 		str	r2, [r3]
  62              		.loc 2 69 0
  63 0060 002090E5 		ldr	r2, [r0]
  64 0064 043082E5 		str	r3, [r2, #4]
  65              	.LVL2:
  66              	.L2:
  67              	.LBE34:
  68              	.LBE33:
  69              		.loc 1 156 0
  70 0068 00C0E0E3 		mvn	ip, #0
  71              	.LBB35:
  72              	.LBB36:
  73              		.loc 1 85 0
  74 006c 0020A0E3 		mov	r2, #0
  75 0070 081090E5 		ldr	r1, [r0, #8]
  76              	.LBE36:
  77              	.LBE35:
  78              	.LBB38:
  79              	.LBB39:
  80              	.LBB40:
  81              	.LBB41:
  82              		.loc 1 86 0
  83 0074 2C309FE5 		ldr	r3, .L10
  84              	.LBE41:
  85              	.LBE40:
  86              	.LBE39:
  87              	.LBE38:
  88              		.loc 1 156 0
  89 0078 24C080E5 		str	ip, [r0, #36]
  90              	.LVL3:
  91              	.LBB45:
  92              	.LBB37:
  93              		.loc 1 85 0
  94 007c 1C20C0E5 		strb	r2, [r0, #28]
  95              	.LVL4:
  96              	.L7:
  97              	.LBE37:
  98              	.LBE45:
  99              	.LBB46:
 100              	.LBB44:
 101              	.LBB43:
 102              	.LBB42:
 103              		.loc 1 88 0
 104 0080 003093E5 		ldr	r3, [r3]
 105              	.LVL5:
 106              		.loc 1 89 0
 107 0084 082093E5 		ldr	r2, [r3, #8]
 108 0088 010052E1 		cmp	r2, r1
 109 008c FBFFFF2A 		bcs	.L7
 110              		.loc 1 92 0
 111 0090 042093E5 		ldr	r2, [r3, #4]
 112              		.loc 1 91 0
 113 0094 003080E5 		str	r3, [r0]
 114              		.loc 1 92 0
ARM GAS  /tmp/ccInfMW2.s 			page 3


 115 0098 042080E5 		str	r2, [r0, #4]
 116              		.loc 1 93 0
 117 009c 040083E5 		str	r0, [r3, #4]
 118 00a0 000082E5 		str	r0, [r2]
 119              	.LVL6:
 120              	.L1:
 121 00a4 1EFF2FE1 		bx	lr
 122              	.L11:
 123              		.align	2
 124              	.L10:
 125 00a8 00000000 		.word	rlist
 126              	.LBE42:
 127              	.LBE43:
 128              	.LBE44:
 129              	.LBE46:
 130              		.cfi_endproc
 131              	.LFE10:
 132              		.size	wakeup, .-wakeup
 133              		.section	.text._scheduler_init,"ax",%progbits
 134              		.align	2
 135              		.global	_scheduler_init
 136              		.type	_scheduler_init, %function
 137              	_scheduler_init:
 138              	.LFB7:
 139              		.loc 1 48 0
 140              		.cfi_startproc
 141              		@ args = 0, pretend = 0, frame = 0
 142              		@ frame_needed = 0, uses_anonymous_args = 0
 143              		@ link register save eliminated.
 144              		.loc 1 51 0
 145 0000 0020A0E3 		mov	r2, #0
 146              		.loc 1 50 0
 147 0004 14309FE5 		ldr	r3, .L13
 148              		.loc 1 51 0
 149 0008 082083E5 		str	r2, [r3, #8]
 150              		.loc 1 50 0
 151 000c 043083E5 		str	r3, [r3, #4]
 152 0010 003083E5 		str	r3, [r3]
 153              		.loc 1 53 0
 154 0014 143083E5 		str	r3, [r3, #20]
 155 0018 103083E5 		str	r3, [r3, #16]
 156 001c 1EFF2FE1 		bx	lr
 157              	.L14:
 158              		.align	2
 159              	.L13:
 160 0020 00000000 		.word	rlist
 161              		.cfi_endproc
 162              	.LFE7:
 163              		.size	_scheduler_init, .-_scheduler_init
 164              		.section	.text.chSchReadyI,"ax",%progbits
 165              		.align	2
 166              		.global	chSchReadyI
 167              		.type	chSchReadyI, %function
 168              	chSchReadyI:
 169              	.LFB8:
 170              		.loc 1 74 0
 171              		.cfi_startproc
ARM GAS  /tmp/ccInfMW2.s 			page 4


 172              		@ args = 0, pretend = 0, frame = 0
 173              		@ frame_needed = 0, uses_anonymous_args = 0
 174              		@ link register save eliminated.
 175              	.LVL7:
 176              		.loc 1 85 0
 177 0000 0020A0E3 		mov	r2, #0
 178              		.loc 1 74 0
 179 0004 00C0A0E1 		mov	ip, r0
 180 0008 081090E5 		ldr	r1, [r0, #8]
 181              		.loc 1 86 0
 182 000c 2C309FE5 		ldr	r3, .L18
 183              		.loc 1 85 0
 184 0010 1C20C0E5 		strb	r2, [r0, #28]
 185              	.LVL8:
 186              	.L16:
 187              		.loc 1 88 0 discriminator 1
 188 0014 003093E5 		ldr	r3, [r3]
 189              	.LVL9:
 190              		.loc 1 89 0 discriminator 1
 191 0018 082093E5 		ldr	r2, [r3, #8]
 192 001c 010052E1 		cmp	r2, r1
 193 0020 FBFFFF2A 		bcs	.L16
 194              		.loc 1 92 0
 195 0024 042093E5 		ldr	r2, [r3, #4]
 196              		.loc 1 95 0
 197 0028 0C00A0E1 		mov	r0, ip
 198              	.LVL10:
 199              		.loc 1 91 0
 200 002c 00308CE5 		str	r3, [ip]
 201              		.loc 1 92 0
 202 0030 04208CE5 		str	r2, [ip, #4]
 203              		.loc 1 93 0
 204 0034 04C083E5 		str	ip, [r3, #4]
 205 0038 00C082E5 		str	ip, [r2]
 206              		.loc 1 95 0
 207 003c 1EFF2FE1 		bx	lr
 208              	.L19:
 209              		.align	2
 210              	.L18:
 211 0040 00000000 		.word	rlist
 212              		.cfi_endproc
 213              	.LFE8:
 214              		.size	chSchReadyI, .-chSchReadyI
 215              		.section	.text.chSchGoSleepS,"ax",%progbits
 216              		.align	2
 217              		.global	chSchGoSleepS
 218              		.type	chSchGoSleepS, %function
 219              	chSchGoSleepS:
 220              	.LFB9:
 221              		.loc 1 108 0
 222              		.cfi_startproc
 223              		@ args = 0, pretend = 0, frame = 0
 224              		@ frame_needed = 0, uses_anonymous_args = 0
 225              	.LVL11:
 226 0000 10402DE9 		stmfd	sp!, {r4, lr}
 227              		.cfi_def_cfa_offset 8
 228              		.cfi_offset 4, -8
ARM GAS  /tmp/ccInfMW2.s 			page 5


 229              		.cfi_offset 14, -4
 230              		.loc 1 117 0
 231 0004 1440A0E3 		mov	r4, #20
 232              		.loc 1 120 0
 233 0008 01E0A0E3 		mov	lr, #1
 234              		.loc 1 113 0
 235 000c 2C309FE5 		ldr	r3, .L22
 236              	.LBB47:
 237              	.LBB48:
 238              		.loc 2 53 0
 239 0010 002093E5 		ldr	r2, [r3]
 240              	.LBE48:
 241              	.LBE47:
 242              		.loc 1 113 0
 243 0014 181093E5 		ldr	r1, [r3, #24]
 244              	.LVL12:
 245              	.LBB52:
 246              	.LBB49:
 247              		.loc 2 55 0
 248 0018 00C092E5 		ldr	ip, [r2]
 249              	.LBE49:
 250              	.LBE52:
 251              		.loc 1 113 0
 252 001c 1C00C1E5 		strb	r0, [r1, #28]
 253              		.loc 1 117 0
 254 0020 1F40C1E5 		strb	r4, [r1, #31]
 255              	.LVL13:
 256              	.LBB53:
 257              	.LBB50:
 258              		.loc 2 55 0
 259 0024 04308CE5 		str	r3, [ip, #4]
 260              	.LBE50:
 261              	.LBE53:
 262              		.loc 1 120 0
 263 0028 1CE0C2E5 		strb	lr, [r2, #28]
 264              		.loc 1 121 0
 265 002c 0200A0E1 		mov	r0, r2
 266              	.LVL14:
 267              		.loc 1 122 0
 268 0030 1040BDE8 		ldmfd	sp!, {r4, lr}
 269              		.cfi_restore 14
 270              		.cfi_restore 4
 271              		.cfi_def_cfa_offset 0
 272              	.LBB54:
 273              	.LBB51:
 274              		.loc 2 55 0
 275 0034 00C083E5 		str	ip, [r3]
 276              	.LBE51:
 277              	.LBE54:
 278              		.loc 1 119 0
 279 0038 182083E5 		str	r2, [r3, #24]
 280              		.loc 1 121 0
 281 003c FEFFFFEA 		b	_port_switch_arm
 282              	.LVL15:
 283              	.L23:
 284              		.align	2
 285              	.L22:
ARM GAS  /tmp/ccInfMW2.s 			page 6


 286 0040 00000000 		.word	rlist
 287              		.cfi_endproc
 288              	.LFE9:
 289              		.size	chSchGoSleepS, .-chSchGoSleepS
 290              		.section	.text.chSchGoSleepTimeoutS,"ax",%progbits
 291              		.align	2
 292              		.global	chSchGoSleepTimeoutS
 293              		.type	chSchGoSleepTimeoutS, %function
 294              	chSchGoSleepTimeoutS:
 295              	.LFB11:
 296              		.loc 1 182 0
 297              		.cfi_startproc
 298              		@ args = 0, pretend = 0, frame = 24
 299              		@ frame_needed = 0, uses_anonymous_args = 0
 300              	.LVL16:
 301 0000 30402DE9 		stmfd	sp!, {r4, r5, lr}
 302              		.cfi_def_cfa_offset 12
 303              		.cfi_offset 4, -12
 304              		.cfi_offset 5, -8
 305              		.cfi_offset 14, -4
 306              		.loc 1 186 0
 307 0004 010071E3 		cmn	r1, #1
 308              		.loc 1 182 0
 309 0008 1CD04DE2 		sub	sp, sp, #28
 310              		.cfi_def_cfa_offset 40
 311              		.loc 1 186 0
 312 000c 1000000A 		beq	.L25
 313 0010 0050A0E1 		mov	r5, r0
 314              	.LBB55:
 315              		.loc 1 189 0
 316 0014 50409FE5 		ldr	r4, .L32
 317 0018 04008DE2 		add	r0, sp, #4
 318              	.LVL17:
 319 001c 183094E5 		ldr	r3, [r4, #24]
 320 0020 48209FE5 		ldr	r2, .L32+4
 321 0024 FEFFFFEB 		bl	chVTSetI
 322              	.LVL18:
 323              		.loc 1 190 0
 324 0028 0500A0E1 		mov	r0, r5
 325 002c FEFFFFEB 		bl	chSchGoSleepS
 326              	.LVL19:
 327              		.loc 1 191 0
 328 0030 10309DE5 		ldr	r3, [sp, #16]
 329 0034 000053E3 		cmp	r3, #0
 330 0038 0100000A 		beq	.L27
 331              		.loc 1 192 0
 332 003c 04008DE2 		add	r0, sp, #4
 333 0040 FEFFFFEB 		bl	chVTResetI
 334              	.LVL20:
 335              	.L27:
 336              	.LBE55:
 337              		.loc 1 196 0
 338 0044 183094E5 		ldr	r3, [r4, #24]
 339              		.loc 1 197 0
 340 0048 240093E5 		ldr	r0, [r3, #36]
 341 004c 1CD08DE2 		add	sp, sp, #28
 342              		.cfi_remember_state
ARM GAS  /tmp/ccInfMW2.s 			page 7


 343              		.cfi_def_cfa_offset 12
 344              		@ sp needed
 345 0050 3080BDE8 		ldmfd	sp!, {r4, r5, pc}
 346              	.LVL21:
 347              	.L25:
 348              		.cfi_restore_state
 349              		.loc 1 195 0
 350 0054 FEFFFFEB 		bl	chSchGoSleepS
 351              	.LVL22:
 352 0058 0C409FE5 		ldr	r4, .L32
 353              		.loc 1 196 0
 354 005c 183094E5 		ldr	r3, [r4, #24]
 355              		.loc 1 197 0
 356 0060 240093E5 		ldr	r0, [r3, #36]
 357 0064 1CD08DE2 		add	sp, sp, #28
 358              		.cfi_def_cfa_offset 12
 359              		@ sp needed
 360 0068 3080BDE8 		ldmfd	sp!, {r4, r5, pc}
 361              	.L33:
 362              		.align	2
 363              	.L32:
 364 006c 00000000 		.word	rlist
 365 0070 00000000 		.word	wakeup
 366              		.cfi_endproc
 367              	.LFE11:
 368              		.size	chSchGoSleepTimeoutS, .-chSchGoSleepTimeoutS
 369              		.section	.text.chSchWakeupS,"ax",%progbits
 370              		.align	2
 371              		.global	chSchWakeupS
 372              		.type	chSchWakeupS, %function
 373              	chSchWakeupS:
 374              	.LFB12:
 375              		.loc 1 218 0
 376              		.cfi_startproc
 377              		@ args = 0, pretend = 0, frame = 0
 378              		@ frame_needed = 0, uses_anonymous_args = 0
 379              	.LVL23:
 380              		.loc 1 227 0
 381 0000 94309FE5 		ldr	r3, .L43
 382              		.loc 1 218 0
 383 0004 30402DE9 		stmfd	sp!, {r4, r5, lr}
 384              		.cfi_def_cfa_offset 12
 385              		.cfi_offset 4, -12
 386              		.cfi_offset 5, -8
 387              		.cfi_offset 14, -4
 388              		.loc 1 227 0
 389 0008 184093E5 		ldr	r4, [r3, #24]
 390 000c 08C090E5 		ldr	ip, [r0, #8]
 391              		.loc 1 218 0
 392 0010 00E0A0E1 		mov	lr, r0
 393              		.loc 1 222 0
 394 0014 241080E5 		str	r1, [r0, #36]
 395              		.loc 1 227 0
 396 0018 080094E5 		ldr	r0, [r4, #8]
 397              	.LVL24:
 398 001c 00005CE1 		cmp	ip, r0
 399 0020 0B00008A 		bhi	.L35
ARM GAS  /tmp/ccInfMW2.s 			page 8


 400              	.LVL25:
 401              	.LBB56:
 402              	.LBB57:
 403              		.loc 1 85 0
 404 0024 0020A0E3 		mov	r2, #0
 405 0028 1C20CEE5 		strb	r2, [lr, #28]
 406              	.LVL26:
 407              	.L36:
 408              		.loc 1 88 0
 409 002c 003093E5 		ldr	r3, [r3]
 410              	.LVL27:
 411              		.loc 1 89 0
 412 0030 082093E5 		ldr	r2, [r3, #8]
 413 0034 02005CE1 		cmp	ip, r2
 414 0038 FBFFFF9A 		bls	.L36
 415              		.loc 1 92 0
 416 003c 042093E5 		ldr	r2, [r3, #4]
 417              		.loc 1 91 0
 418 0040 00308EE5 		str	r3, [lr]
 419              		.loc 1 92 0
 420 0044 04208EE5 		str	r2, [lr, #4]
 421              		.loc 1 93 0
 422 0048 04E083E5 		str	lr, [r3, #4]
 423 004c 00E082E5 		str	lr, [r2]
 424 0050 3080BDE8 		ldmfd	sp!, {r4, r5, pc}
 425              	.LVL28:
 426              	.L35:
 427              	.LBE57:
 428              	.LBE56:
 429              	.LBB58:
 430              	.LBB59:
 431              	.LBB60:
 432              		.loc 1 85 0
 433 0054 0010A0E3 		mov	r1, #0
 434              	.LVL29:
 435              		.loc 1 86 0
 436 0058 0320A0E1 		mov	r2, r3
 437              		.loc 1 85 0
 438 005c 1C10C4E5 		strb	r1, [r4, #28]
 439              	.LVL30:
 440              	.L38:
 441              		.loc 1 88 0
 442 0060 002092E5 		ldr	r2, [r2]
 443              	.LVL31:
 444              		.loc 1 89 0
 445 0064 081092E5 		ldr	r1, [r2, #8]
 446 0068 010050E1 		cmp	r0, r1
 447 006c FBFFFF9A 		bls	.L38
 448              	.LBE60:
 449              	.LBE59:
 450              		.loc 1 232 0
 451 0070 0150A0E3 		mov	r5, #1
 452              	.LBB63:
 453              	.LBB61:
 454              		.loc 1 92 0
 455 0074 04C092E5 		ldr	ip, [r2, #4]
 456              	.LBE61:
ARM GAS  /tmp/ccInfMW2.s 			page 9


 457              	.LBE63:
 458              		.loc 1 233 0
 459 0078 0410A0E1 		mov	r1, r4
 460              	.LBB64:
 461              	.LBB62:
 462              		.loc 1 92 0
 463 007c 041084E8 		stmia	r4, {r2, ip}
 464              		.loc 1 93 0
 465 0080 044082E5 		str	r4, [r2, #4]
 466 0084 00408CE5 		str	r4, [ip]
 467              	.LBE62:
 468              	.LBE64:
 469              		.loc 1 232 0
 470 0088 1C50CEE5 		strb	r5, [lr, #28]
 471              		.loc 1 233 0
 472 008c 0E00A0E1 		mov	r0, lr
 473              		.loc 1 231 0
 474 0090 18E083E5 		str	lr, [r3, #24]
 475              	.LBE58:
 476              		.loc 1 235 0
 477 0094 3040BDE8 		ldmfd	sp!, {r4, r5, lr}
 478              		.cfi_restore 14
 479              		.cfi_restore 5
 480              		.cfi_restore 4
 481              		.cfi_def_cfa_offset 0
 482              	.LVL32:
 483              	.LBB65:
 484              		.loc 1 233 0
 485 0098 FEFFFFEA 		b	_port_switch_arm
 486              	.LVL33:
 487              	.L44:
 488              		.align	2
 489              	.L43:
 490 009c 00000000 		.word	rlist
 491              	.LBE65:
 492              		.cfi_endproc
 493              	.LFE12:
 494              		.size	chSchWakeupS, .-chSchWakeupS
 495              		.section	.text.chSchIsPreemptionRequired,"ax",%progbits
 496              		.align	2
 497              		.global	chSchIsPreemptionRequired
 498              		.type	chSchIsPreemptionRequired, %function
 499              	chSchIsPreemptionRequired:
 500              	.LFB14:
 501              		.loc 1 269 0
 502              		.cfi_startproc
 503              		@ args = 0, pretend = 0, frame = 0
 504              		@ frame_needed = 0, uses_anonymous_args = 0
 505              		@ link register save eliminated.
 506              		.loc 1 270 0
 507 0000 38309FE5 		ldr	r3, .L49
 508              		.loc 1 271 0
 509 0004 182093E5 		ldr	r2, [r3, #24]
 510              		.loc 1 270 0
 511 0008 003093E5 		ldr	r3, [r3]
 512              		.loc 1 277 0
 513 000c 1F10D2E5 		ldrb	r1, [r2, #31]	@ zero_extendqisi2
ARM GAS  /tmp/ccInfMW2.s 			page 10


 514              		.loc 1 270 0
 515 0010 083093E5 		ldr	r3, [r3, #8]
 516              	.LVL34:
 517              		.loc 1 277 0
 518 0014 000051E3 		cmp	r1, #0
 519              		.loc 1 271 0
 520 0018 080092E5 		ldr	r0, [r2, #8]
 521              	.LVL35:
 522              		.loc 1 277 0
 523 001c 0300001A 		bne	.L48
 524              		.loc 1 277 0 is_stmt 0 discriminator 2
 525 0020 000053E1 		cmp	r3, r0
 526 0024 0000A033 		movcc	r0, #0
 527              	.LVL36:
 528 0028 0100A023 		movcs	r0, #1
 529              		.loc 1 283 0 is_stmt 1 discriminator 2
 530 002c 1EFF2FE1 		bx	lr
 531              	.LVL37:
 532              	.L48:
 533              		.loc 1 277 0 discriminator 1
 534 0030 000053E1 		cmp	r3, r0
 535 0034 0000A093 		movls	r0, #0
 536              	.LVL38:
 537 0038 0100A083 		movhi	r0, #1
 538 003c 1EFF2FE1 		bx	lr
 539              	.L50:
 540              		.align	2
 541              	.L49:
 542 0040 00000000 		.word	rlist
 543              		.cfi_endproc
 544              	.LFE14:
 545              		.size	chSchIsPreemptionRequired, .-chSchIsPreemptionRequired
 546              		.section	.text.chSchDoRescheduleBehind,"ax",%progbits
 547              		.align	2
 548              		.global	chSchDoRescheduleBehind
 549              		.type	chSchDoRescheduleBehind, %function
 550              	chSchDoRescheduleBehind:
 551              	.LFB15:
 552              		.loc 1 297 0
 553              		.cfi_startproc
 554              		@ args = 0, pretend = 0, frame = 0
 555              		@ frame_needed = 0, uses_anonymous_args = 0
 556 0000 70402DE9 		stmfd	sp!, {r4, r5, r6, lr}
 557              		.cfi_def_cfa_offset 16
 558              		.cfi_offset 4, -16
 559              		.cfi_offset 5, -12
 560              		.cfi_offset 6, -8
 561              		.cfi_offset 14, -4
 562              		.loc 1 303 0
 563 0004 0160A0E3 		mov	r6, #1
 564              		.loc 1 305 0
 565 0008 1450A0E3 		mov	r5, #20
 566              	.LBB66:
 567              	.LBB67:
 568              		.loc 1 85 0
 569 000c 0040A0E3 		mov	r4, #0
 570              	.LBE67:
ARM GAS  /tmp/ccInfMW2.s 			page 11


 571              	.LBE66:
 572              		.loc 1 300 0
 573 0010 5C209FE5 		ldr	r2, .L56
 574              	.LBB71:
 575              	.LBB72:
 576              		.loc 2 53 0
 577 0014 000092E5 		ldr	r0, [r2]
 578              	.LBE72:
 579              	.LBE71:
 580              		.loc 1 300 0
 581 0018 18C092E5 		ldr	ip, [r2, #24]
 582              	.LVL39:
 583              	.LBB75:
 584              	.LBB73:
 585              		.loc 2 55 0
 586 001c 00E090E5 		ldr	lr, [r0]
 587 0020 08109CE5 		ldr	r1, [ip, #8]
 588              	.LBE73:
 589              	.LBE75:
 590              	.LBB76:
 591              	.LBB68:
 592              		.loc 1 85 0
 593 0024 0030A0E1 		mov	r3, r0
 594              	.LBE68:
 595              	.LBE76:
 596              	.LBB77:
 597              	.LBB74:
 598              		.loc 2 55 0
 599 0028 04208EE5 		str	r2, [lr, #4]
 600 002c 00E082E5 		str	lr, [r2]
 601              	.LBE74:
 602              	.LBE77:
 603              		.loc 1 303 0
 604 0030 1C60C0E5 		strb	r6, [r0, #28]
 605              		.loc 1 302 0
 606 0034 180082E5 		str	r0, [r2, #24]
 607              		.loc 1 305 0
 608 0038 1F50CCE5 		strb	r5, [ip, #31]
 609              	.LVL40:
 610              	.LBB78:
 611              	.LBB69:
 612              		.loc 1 85 0
 613 003c 1C40CCE5 		strb	r4, [ip, #28]
 614              	.LVL41:
 615 0040 000000EA 		b	.L53
 616              	.LVL42:
 617              	.L55:
 618 0044 003093E5 		ldr	r3, [r3]
 619              	.LVL43:
 620              	.L53:
 621              		.loc 1 89 0
 622 0048 082093E5 		ldr	r2, [r3, #8]
 623 004c 010052E1 		cmp	r2, r1
 624 0050 FBFFFF2A 		bcs	.L55
 625              		.loc 1 92 0
 626 0054 042093E5 		ldr	r2, [r3, #4]
 627              	.LBE69:
ARM GAS  /tmp/ccInfMW2.s 			page 12


 628              	.LBE78:
 629              		.loc 1 308 0
 630 0058 0C10A0E1 		mov	r1, ip
 631              		.loc 1 309 0
 632 005c 7040BDE8 		ldmfd	sp!, {r4, r5, r6, lr}
 633              		.cfi_restore 14
 634              		.cfi_restore 6
 635              		.cfi_restore 5
 636              		.cfi_restore 4
 637              		.cfi_def_cfa_offset 0
 638              	.LBB79:
 639              	.LBB70:
 640              		.loc 1 91 0
 641 0060 00308CE5 		str	r3, [ip]
 642              		.loc 1 92 0
 643 0064 04208CE5 		str	r2, [ip, #4]
 644              		.loc 1 93 0
 645 0068 04C083E5 		str	ip, [r3, #4]
 646 006c 00C082E5 		str	ip, [r2]
 647              	.LBE70:
 648              	.LBE79:
 649              		.loc 1 308 0
 650 0070 FEFFFFEA 		b	_port_switch_arm
 651              	.LVL44:
 652              	.L57:
 653              		.align	2
 654              	.L56:
 655 0074 00000000 		.word	rlist
 656              		.cfi_endproc
 657              	.LFE15:
 658              		.size	chSchDoRescheduleBehind, .-chSchDoRescheduleBehind
 659              		.section	.text.chSchDoRescheduleAhead,"ax",%progbits
 660              		.align	2
 661              		.global	chSchDoRescheduleAhead
 662              		.type	chSchDoRescheduleAhead, %function
 663              	chSchDoRescheduleAhead:
 664              	.LFB16:
 665              		.loc 1 322 0
 666              		.cfi_startproc
 667              		@ args = 0, pretend = 0, frame = 0
 668              		@ frame_needed = 0, uses_anonymous_args = 0
 669 0000 30402DE9 		stmfd	sp!, {r4, r5, lr}
 670              		.cfi_def_cfa_offset 12
 671              		.cfi_offset 4, -12
 672              		.cfi_offset 5, -8
 673              		.cfi_offset 14, -4
 674              		.loc 1 328 0
 675 0004 0150A0E3 		mov	r5, #1
 676              		.loc 1 330 0
 677 0008 0040A0E3 		mov	r4, #0
 678              		.loc 1 325 0
 679 000c 58209FE5 		ldr	r2, .L63
 680              	.LBB80:
 681              	.LBB81:
 682              		.loc 2 53 0
 683 0010 000092E5 		ldr	r0, [r2]
 684              	.LBE81:
ARM GAS  /tmp/ccInfMW2.s 			page 13


 685              	.LBE80:
 686              		.loc 1 325 0
 687 0014 18C092E5 		ldr	ip, [r2, #24]
 688              	.LVL45:
 689              	.LBB84:
 690              	.LBB82:
 691              		.loc 2 55 0
 692 0018 00E090E5 		ldr	lr, [r0]
 693 001c 08109CE5 		ldr	r1, [ip, #8]
 694              	.LBE82:
 695              	.LBE84:
 696              		.loc 1 330 0
 697 0020 0030A0E1 		mov	r3, r0
 698              	.LBB85:
 699              	.LBB83:
 700              		.loc 2 55 0
 701 0024 04208EE5 		str	r2, [lr, #4]
 702 0028 00E082E5 		str	lr, [r2]
 703              	.LBE83:
 704              	.LBE85:
 705              		.loc 1 328 0
 706 002c 1C50C0E5 		strb	r5, [r0, #28]
 707              		.loc 1 327 0
 708 0030 180082E5 		str	r0, [r2, #24]
 709              		.loc 1 330 0
 710 0034 1C40CCE5 		strb	r4, [ip, #28]
 711              	.LVL46:
 712 0038 000000EA 		b	.L60
 713              	.LVL47:
 714              	.L62:
 715 003c 003093E5 		ldr	r3, [r3]
 716              	.LVL48:
 717              	.L60:
 718              		.loc 1 334 0 discriminator 1
 719 0040 082093E5 		ldr	r2, [r3, #8]
 720 0044 010052E1 		cmp	r2, r1
 721 0048 FBFFFF8A 		bhi	.L62
 722              		.loc 1 337 0
 723 004c 042093E5 		ldr	r2, [r3, #4]
 724              		.loc 1 340 0
 725 0050 0C10A0E1 		mov	r1, ip
 726              		.loc 1 341 0
 727 0054 3040BDE8 		ldmfd	sp!, {r4, r5, lr}
 728              		.cfi_restore 14
 729              		.cfi_restore 5
 730              		.cfi_restore 4
 731              		.cfi_def_cfa_offset 0
 732              		.loc 1 336 0
 733 0058 00308CE5 		str	r3, [ip]
 734              		.loc 1 337 0
 735 005c 04208CE5 		str	r2, [ip, #4]
 736              		.loc 1 338 0
 737 0060 04C083E5 		str	ip, [r3, #4]
 738 0064 00C082E5 		str	ip, [r2]
 739              		.loc 1 340 0
 740 0068 FEFFFFEA 		b	_port_switch_arm
 741              	.LVL49:
ARM GAS  /tmp/ccInfMW2.s 			page 14


 742              	.L64:
 743              		.align	2
 744              	.L63:
 745 006c 00000000 		.word	rlist
 746              		.cfi_endproc
 747              	.LFE16:
 748              		.size	chSchDoRescheduleAhead, .-chSchDoRescheduleAhead
 749              		.section	.text.chSchRescheduleS,"ax",%progbits
 750              		.align	2
 751              		.global	chSchRescheduleS
 752              		.type	chSchRescheduleS, %function
 753              	chSchRescheduleS:
 754              	.LFB13:
 755              		.loc 1 246 0
 756              		.cfi_startproc
 757              		@ args = 0, pretend = 0, frame = 0
 758              		@ frame_needed = 0, uses_anonymous_args = 0
 759              		@ link register save eliminated.
 760              		.loc 1 250 0
 761 0000 18309FE5 		ldr	r3, .L67
 762 0004 002093E5 		ldr	r2, [r3]
 763 0008 183093E5 		ldr	r3, [r3, #24]
 764 000c 082092E5 		ldr	r2, [r2, #8]
 765 0010 083093E5 		ldr	r3, [r3, #8]
 766 0014 030052E1 		cmp	r2, r3
 767 0018 1EFF2F91 		bxls	lr
 768              		.loc 1 251 0
 769 001c FEFFFFEA 		b	chSchDoRescheduleAhead
 770              	.LVL50:
 771              	.L68:
 772              		.align	2
 773              	.L67:
 774 0020 00000000 		.word	rlist
 775              		.cfi_endproc
 776              	.LFE13:
 777              		.size	chSchRescheduleS, .-chSchRescheduleS
 778              		.section	.text.chSchDoReschedule,"ax",%progbits
 779              		.align	2
 780              		.global	chSchDoReschedule
 781              		.type	chSchDoReschedule, %function
 782              	chSchDoReschedule:
 783              	.LFB17:
 784              		.loc 1 355 0
 785              		.cfi_startproc
 786              		@ args = 0, pretend = 0, frame = 0
 787              		@ frame_needed = 0, uses_anonymous_args = 0
 788              		@ link register save eliminated.
 789              		.loc 1 360 0
 790 0000 14309FE5 		ldr	r3, .L72
 791 0004 183093E5 		ldr	r3, [r3, #24]
 792 0008 1F30D3E5 		ldrb	r3, [r3, #31]	@ zero_extendqisi2
 793 000c 000053E3 		cmp	r3, #0
 794 0010 0000000A 		beq	.L71
 795              		.loc 1 368 0
 796 0014 FEFFFFEA 		b	chSchDoRescheduleAhead
 797              	.LVL51:
 798              	.L71:
ARM GAS  /tmp/ccInfMW2.s 			page 15


 799              		.loc 1 363 0
 800 0018 FEFFFFEA 		b	chSchDoRescheduleBehind
 801              	.LVL52:
 802              	.L73:
 803              		.align	2
 804              	.L72:
 805 001c 00000000 		.word	rlist
 806              		.cfi_endproc
 807              	.LFE17:
 808              		.size	chSchDoReschedule, .-chSchDoReschedule
 809              		.comm	rlist,28,4
 810              		.text
 811              	.Letext0:
 812              		.file 3 "/usr/include/newlib/machine/_default_types.h"
 813              		.file 4 "/usr/include/newlib/sys/_stdint.h"
 814              		.file 5 "../../os/ports/GCC/ARM/chtypes.h"
 815              		.file 6 "../../os/kernel/include/chlists.h"
 816              		.file 7 "../../os/kernel/include/chthreads.h"
 817              		.file 8 "../../os/ports/GCC/ARM/chcore.h"
 818              		.file 9 "../../os/kernel/include/chvt.h"
 819              		.file 10 "../../os/kernel/include/chschd.h"
 820              		.file 11 "../../os/kernel/include/chsem.h"
 821              		.file 12 "../../os/kernel/include/chmtx.h"