ARM GAS  /tmp/ccInfMW2.s 			page 1


   1              		.cpu arm1176jz-s
   2              		.fpu softvfp
   3              		.eabi_attribute 20, 1
   4              		.eabi_attribute 21, 1
   5              		.eabi_attribute 23, 3
   6              		.eabi_attribute 24, 1
   7              		.eabi_attribute 25, 1
   8              		.eabi_attribute 26, 1
   9              		.eabi_attribute 30, 2
  10              		.eabi_attribute 34, 1
  11              		.eabi_attribute 18, 4
  12              		.file	"chschd.c"
  13              		.text
  14              	.Ltext0:
  15              		.cfi_sections	.debug_frame
  16              		.section	.text.wakeup,"ax",%progbits
  17              		.align	2
  18              		.type	wakeup, %function
  19              	wakeup:
  20              	.LFB10:
  21              		.file 1 "../../os/kernel/src/chschd.c"
  22              		.loc 1 129 0
  23              		.cfi_startproc
  24              		@ args = 0, pretend = 0, frame = 0
  25              		@ frame_needed = 0, uses_anonymous_args = 0
  26              		@ link register save eliminated.
  27              	.LVL0:
  28              		.loc 1 133 0
  29 0000 1C30D0E5 		ldrb	r3, [r0, #28]	@ zero_extendqisi2
  30 0004 0D0053E3 		cmp	r3, #13
  31 0008 03F19F97 		ldrls	pc, [pc, r3, asl #2]
  32 000c 150000EA 		b	.L2
  33              	.L4:
  34 0010 A4000000 		.word	.L1
  35 0014 68000000 		.word	.L2
  36 0018 68000000 		.word	.L2
  37 001c 48000000 		.word	.L5
  38 0020 68000000 		.word	.L2
  39 0024 58000000 		.word	.L6
  40 0028 68000000 		.word	.L2
  41 002c 68000000 		.word	.L2
  42 0030 68000000 		.word	.L2
  43 0034 68000000 		.word	.L2
  44 0038 68000000 		.word	.L2
  45 003c 68000000 		.word	.L2
  46 0040 68000000 		.word	.L2
  47 0044 58000000 		.word	.L6
  48              	.L5:
  49              		.loc 1 143 0
  50 0048 242090E5 		ldr	r2, [r0, #36]
  51 004c 083092E5 		ldr	r3, [r2, #8]
  52 0050 013083E2 		add	r3, r3, #1
  53 0054 083082E5 		str	r3, [r2, #8]
  54              	.L6:
  55              	.LVL1:
  56              	.LBB33:
  57              	.LBB34:
ARM GAS  /tmp/ccInfMW2.s 			page 2


  58              		.file 2 "../../os/kernel/include/chinline.h"
  59              		.loc 2 68 0
  60 0058 0C0090E8 		ldmia	r0, {r2, r3}
  61 005c 002083E5 		str	r2, [r3]
  62              		.loc 2 69 0
  63 0060 002090E5 		ldr	r2, [r0]
  64 0064 043082E5 		str	r3, [r2, #4]
  65              	.LVL2:
  66              	.L2:
  67              	.LBE34:
  68              	.LBE33:
  69              		.loc 1 156 0
  70 0068 00C0E0E3 		mvn	ip, #0
  71              	.LBB35:
  72              	.LBB36:
  73              		.loc 1 85 0
  74 006c 0020A0E3 		mov	r2, #0
  75 0070 081090E5 		ldr	r1, [r0, #8]
  76              	.LBE36:
  77              	.LBE35:
  78              	.LBB38:
  79              	.LBB39:
  80              	.LBB40:
  81              	.LBB41:
  82              		.loc 1 86 0
  83 0074 2C309FE5 		ldr	r3, .L10
  84              	.LBE41:
  85              	.LBE40:
  86              	.LBE39:
  87              	.LBE38:
  88              		.loc 1 156 0
  89 0078 24C080E5 		str	ip, [r0, #36]
  90              	.LVL3:
  91              	.LBB45:
  92              	.LBB37:
  93              		.loc 1 85 0
  94 007c 1C20C0E5 		strb	r2, [r0, #28]
  95              	.LVL4:
  96              	.L7:
  97              	.LBE37:
  98              	.LBE45:
  99              	.LBB46:
 100              	.LBB44:
 101              	.LBB43:
 102              	.LBB42:
 103              		.loc 1 88 0
 104 0080 003093E5 		ldr	r3, [r3]
 105              	.LVL5:
 106              		.loc 1 89 0
 107 0084 082093E5 		ldr	r2, [r3, #8]
 108 0088 010052E1 		cmp	r2, r1
 109 008c FBFFFF2A 		bcs	.L7
 110              		.loc 1 92 0
 111 0090 042093E5 		ldr	r2, [r3, #4]
 112              		.loc 1 91 0
 113 0094 003080E5 		str	r3, [r0]
 114              		.loc 1 92 0
ARM GAS  /tmp/ccInfMW2.s 			page 3


 115 0098 042080E5 		str	r2, [r0, #4]
 116              		.loc 1 93 0
 117 009c 040083E5 		str	r0, [r3, #4]
 118 00a0 000082E5 		str	r0, [r2]
 119              	.LVL6:
 120              	.L1:
 121 00a4 1EFF2FE1 		bx	lr
 122              	.L11:
 123              		.align	2
 124              	.L10:
 125 00a8 00000000 		.word	rlist
 126              	.LBE42:
 127              	.LBE43:
 128              	.LBE44:
 129              	.LBE46:
 130              		.cfi_endproc
 131              	.LFE10:
 132              		.size	wakeup, .-wakeup
 133              		.section	.text._scheduler_init,"ax",%progbits
 134              		.align	2
 135              		.global	_scheduler_init
 136              		.type	_scheduler_init, %function
 137              	_scheduler_init:
 138              	.LFB7:
 139              		.loc 1 48 0
 140              		.cfi_startproc
 141              		@ args = 0, pretend = 0, frame = 0
 142              		@ frame_needed = 0, uses_anonymous_args = 0
 143              		@ link register save eliminated.
 144              		.loc 1 51 0
 145 0000 0020A0E3 		mov	r2, #0
 146              		.loc 1 50 0
 147 0004 14309FE5 		ldr	r3, .L13
 148              		.loc 1 51 0
 149 0008 082083E5 		str	r2, [r3, #8]
 150              		.loc 1 50 0
 151 000c 043083E5 		str	r3, [r3, #4]
 152 0010 003083E5 		str	r3, [r3]
 153              		.loc 1 53 0
 154 0014 143083E5 		str	r3, [r3, #20]
 155 0018 103083E5 		str	r3, [r3, #16]
 156 001c 1EFF2FE1 		bx	lr
 157              	.L14:
 158              		.align	2
 159              	.L13:
 160 0020 00000000 		.word	rlist
 161              		.cfi_endproc
 162              	.LFE7:
 163              		.size	_scheduler_init, .-_scheduler_init
 164              		.section	.text.chSchReadyI,"ax",%progbits
 165              		.align	2
 166              		.global	chSchReadyI
 167              		.type	chSchReadyI, %function
 168              	chSchReadyI:
 169              	.LFB8:
 170              		.loc 1 74 0
 171              		.cfi_startproc
ARM GAS  /tmp/ccInfMW2.s 			page 4


 172              		@ args = 0, pretend = 0, frame = 0
 173              		@ frame_needed = 0, uses_anonymous_args = 0
 174              		@ link register save eliminated.
 175              	.LVL7:
 176              		.loc 1 85 0
 177 0000 0020A0E3 		mov	r2, #0
 178              		.loc 1 74 0
 179 0004 00C0A0E1 		mov	ip, r0
 180 0008 081090E5 		ldr	r1, [r0, #8]
 181              		.loc 1 86 0
 182 000c 2C309FE5 		ldr	r3, .L18
 183              		.loc 1 85 0
 184 0010 1C20C0E5 		strb	r2, [r0, #28]
 185              	.LVL8:
 186              	.L16:
 187              		.loc 1 88 0 discriminator 1
 188 0014 003093E5 		ldr	r3, [r3]
 189              	.LVL9:
 190              		.loc 1 89 0 discriminator 1
 191 0018 082093E5 		ldr	r2, [r3, #8]
 192 001c 010052E1 		cmp	r2, r1
 193 0020 FBFFFF2A 		bcs	.L16
 194              		.loc 1 92 0
 195 0024 042093E5 		ldr	r2, [r3, #4]
 196              		.loc 1 95 0
 197 0028 0C00A0E1 		mov	r0, ip
 198              	.LVL10:
 199              		.loc 1 91 0
 200 002c 00308CE5 		str	r3, [ip]
 201              		.loc 1 92 0
 202 0030 04208CE5 		str	r2, [ip, #4]
 203              		.loc 1 93 0
 204 0034 04C083E5 		str	ip, [r3, #4]
 205 0038 00C082E5 		str	ip, [r2]
 206              		.loc 1 95 0
 207 003c 1EFF2FE1 		bx	lr
 208              	.L19:
 209              		.align	2
 210              	.L18:
 211 0040 00000000 		.word	rlist
 212              		.cfi_endproc
 213              	.LFE8:
 214              		.size	chSchReadyI, .-chSchReadyI
 215              		.section	.text.chSchGoSleepS,"ax",%progbits
 216              		.align	2
 217              		.global	chSchGoSleepS
 218              		.type	chSchGoSleepS, %function
 219              	chSchGoSleepS:
 220              	.LFB9:
 221              		.loc 1 108 0
 222              		.cfi_startproc
 223              		@ args = 0, pretend = 0, frame = 0
 224              		@ frame_needed = 0, uses_anonymous_args = 0
 225              	.LVL11:
 226 0000 10402DE9 		stmfd	sp!, {r4, lr}
 227              		.cfi_def_cfa_offset 8
 228              		.cfi_offset 4, -8
ARM GAS  /tmp/ccInfMW2.s 			page 5


 229              		.cfi_offset 14, -4
 230              		.loc 1 117 0
 231 0004 1440A0E3 		mov	r4, #20
 232              		.loc 1 120 0
 233 0008 01E0A0E3 		mov	lr, #1
 234              		.loc 1 113 0
 235 000c 2C309FE5 		ldr	r3, .L22
 236              	.LBB47:
 237              	.LBB48:
 238              		.loc 2 53 0
 239 0010 002093E5 		ldr	r2, [r3]
 240              	.LBE48:
 241              	.LBE47:
 242              		.loc 1 113 0
 243 0014 181093E5 		ldr	r1, [r3, #24]
 244              	.LVL12:
 245              	.LBB52:
 246              	.LBB49:
 247              		.loc 2 55 0
 248 0018 00C092E5 		ldr	ip, [r2]
 249              	.LBE49:
 250              	.LBE52:
 251              		.loc 1 113 0
 252 001c 1C00C1E5 		strb	r0, [r1, #28]
 253              		.loc 1 117 0
 254 0020 1F40C1E5 		strb	r4, [r1, #31]
 255              	.LVL13:
 256              	.LBB53:
 257              	.LBB50:
 258              		.loc 2 55 0
 259 0024 04308CE5 		str	r3, [ip, #4]
 260              	.LBE50:
 261              	.LBE53:
 262              		.loc 1 120 0
 263 0028 1CE0C2E5 		strb	lr, [r2, #28]
 264              		.loc 1 121 0
 265 002c 0200A0E1 		mov	r0, r2
 266              	.LVL14:
 267              		.loc 1 122 0
 268 0030 1040BDE8 		ldmfd	sp!, {r4, lr}
 269              		.cfi_restore 14
 270              		.cfi_restore 4
 271              		.cfi_def_cfa_offset 0
 272              	.LBB54:
 273              	.LBB51:
 274              		.loc 2 55 0
 275 0034 00C083E5 		str	ip, [r3]
 276              	.LBE51:
 277              	.LBE54:
 278              		.loc 1 119 0
 279 0038 182083E5 		str	r2, [r3, #24]
 280              		.loc 1 121 0
 281 003c FEFFFFEA 		b	_port_switch_arm
 282              	.LVL15:
 283              	.L23:
 284              		.align	2
 285              	.L22:
ARM GAS  /tmp/ccInfMW2.s 			page 6


 286 0040 00000000 		.word	rlist
 287              		.cfi_endproc
 288              	.LFE9:
 289              		.size	chSchGoSleepS, .-chSchGoSleepS
 290              		.section	.text.chSchGoSleepTimeoutS,"ax",%progbits
 291              		.align	2
 292              		.global	chSchGoSleepTimeoutS
 293              		.type	chSchGoSleepTimeoutS, %function
 294              	chSchGoSleepTimeoutS:
 295              	.LFB11:
 296              		.loc 1 182 0
 297              		.cfi_startproc
 298              		@ args = 0, pretend = 0, frame = 24
 299              		@ frame_needed = 0, uses_anonymous_args = 0
 300              	.LVL16:
 301 0000 30402DE9 		stmfd	sp!, {r4, r5, lr}
 302              		.cfi_def_cfa_offset 12
 303              		.cfi_offset 4, -12
 304              		.cfi_offset 5, -8
 305              		.cfi_offset 14, -4
 306              		.loc 1 186 0
 307 0004 010071E3 		cmn	r1, #1
 308              		.loc 1 182 0
 309 0008 1CD04DE2 		sub	sp, sp, #28
 310              		.cfi_def_cfa_offset 40
 311              		.loc 1 186 0
 312 000c 1000000A 		beq	.L25
 313 0010 0050A0E1 		mov	r5, r0
 314              	.LBB55:
 315              		.loc 1 189 0
 316 0014 50409FE5 		ldr	r4, .L32
 317 0018 04008DE2 		add	r0, sp, #4
 318              	.LVL17:
 319 001c 183094E5 		ldr	r3, [r4, #24]
 320 0020 48209FE5 		ldr	r2, .L32+4
 321 0024 FEFFFFEB 		bl	chVTSetI
 322              	.LVL18:
 323              		.loc 1 190 0
 324 0028 0500A0E1 		mov	r0, r5
 325 002c FEFFFFEB 		bl	chSchGoSleepS
 326              	.LVL19:
 327              		.loc 1 191 0
 328 0030 10309DE5 		ldr	r3, [sp, #16]
 329 0034 000053E3 		cmp	r3, #0
 330 0038 0100000A 		beq	.L27
 331              		.loc 1 192 0
 332 003c 04008DE2 		add	r0, sp, #4
 333 0040 FEFFFFEB 		bl	chVTResetI
 334              	.LVL20:
 335              	.L27:
 336              	.LBE55:
 337              		.loc 1 196 0
 338 0044 183094E5 		ldr	r3, [r4, #24]
 339              		.loc 1 197 0
 340 0048 240093E5 		ldr	r0, [r3, #36]
 341 004c 1CD08DE2 		add	sp, sp, #28
 342              		.cfi_remember_state
ARM GAS  /tmp/ccInfMW2.s 			page 7


 343              		.cfi_def_cfa_offset 12
 344              		@ sp needed
 345 0050 3080BDE8 		ldmfd	sp!, {r4, r5, pc}
 346              	.LVL21:
 347              	.L25:
 348              		.cfi_restore_state
 349              		.loc 1 195 0
 350 0054 FEFFFFEB 		bl	chSchGoSleepS
 351              	.LVL22:
 352 0058 0C409FE5 		ldr	r4, .L32
 353              		.loc 1 196 0
 354 005c 183094E5 		ldr	r3, [r4, #24]
 355              		.loc 1 197 0
 356 0060 240093E5 		ldr	r0, [r3, #36]
 357 0064 1CD08DE2 		add	sp, sp, #28
 358              		.cfi_def_cfa_offset 12
 359              		@ sp needed
 360 0068 3080BDE8 		ldmfd	sp!, {r4, r5, pc}
 361              	.L33:
 362              		.align	2
 363              	.L32:
 364 006c 00000000 		.word	rlist
 365 0070 00000000 		.word	wakeup
 366              		.cfi_endproc
 367              	.LFE11:
 368              		.size	chSchGoSleepTimeoutS, .-chSchGoSleepTimeoutS
 369              		.section	.text.chSchWakeupS,"ax",%progbits
 370              		.align	2
 371              		.global	chSchWakeupS
 372              		.type	chSchWakeupS, %function
 373              	chSchWakeupS:
 374              	.LFB12:
 375              		.loc 1 218 0
 376              		.cfi_startproc
 377              		@ args = 0, pretend = 0, frame = 0
 378              		@ frame_needed = 0, uses_anonymous_args = 0
 379              	.LVL23:
 380              		.loc 1 227 0
 381 0000 94309FE5 		ldr	r3, .L43
 382              		.loc 1 218 0
 383 0004 30402DE9 		stmfd	sp!, {r4, r5, lr}
 384              		.cfi_def_cfa_offset 12
 385              		.cfi_offset 4, -12
 386              		.cfi_offset 5, -8
 387              		.cfi_offset 14, -4
 388              		.loc 1 227 0
 389 0008 184093E5 		ldr	r4, [r3, #24]
 390 000c 08C090E5 		ldr	ip, [r0, #8]
 391              		.loc 1 218 0
 392 0010 00E0A0E1 		mov	lr, r0
 393              		.loc 1 222 0
 394 0014 241080E5 		str	r1, [r0, #36]
 395              		.loc 1 227 0
 396 0018 080094E5 		ldr	r0, [r4, #8]
 397              	.LVL24:
 398 001c 00005CE1 		cmp	ip, r0
 399 0020 0B00008A 		bhi	.L35
ARM GAS  /tmp/ccInfMW2.s 			page 8


 400              	.LVL25:
 401              	.LBB56:
 402              	.LBB57:
 403              		.loc 1 85 0
 404 0024 0020A0E3 		mov	r2, #0
 405 0028 1C20CEE5 		strb	r2, [lr, #28]
 406              	.LVL26:
 407              	.L36:
 408              		.loc 1 88 0
 409 002c 003093E5 		ldr	r3, [r3]
 410              	.LVL27:
 411              		.loc 1 89 0
 412 0030 082093E5 		ldr	r2, [r3, #8]
 413 0034 02005CE1 		cmp	ip, r2
 414 0038 FBFFFF9A 		bls	.L36
 415              		.loc 1 92 0
 416 003c 042093E5 		ldr	r2, [r3, #4]
 417              		.loc 1 91 0
 418 0040 00308EE5 		str	r3, [lr]
 419              		.loc 1 92 0
 420 0044 04208EE5 		str	r2, [lr, #4]
 421              		.loc 1 93 0
 422 0048 04E083E5 		str	lr, [r3, #4]
 423 004c 00E082E5 		str	lr, [r2]
 424 0050 3080BDE8 		ldmfd	sp!, {r4, r5, pc}
 425              	.LVL28:
 426              	.L35:
 427              	.LBE57:
 428              	.LBE56:
 429              	.LBB58:
 430              	.LBB59:
 431              	.LBB60:
 432              		.loc 1 85 0
 433 0054 0010A0E3 		mov	r1, #0
 434              	.LVL29:
 435              		.loc 1 86 0
 436 0058 0320A0E1 		mov	r2, r3
 437              		.loc 1 85 0
 438 005c 1C10C4E5 		strb	r1, [r4, #28]
 439              	.LVL30:
 440              	.L38:
 441              		.loc 1 88 0
 442 0060 002092E5 		ldr	r2, [r2]
 443              	.LVL31:
 444              		.loc 1 89 0
 445 0064 081092E5 		ldr	r1, [r2, #8]
 446 0068 010050E1 		cmp	r0, r1
 447 006c FBFFFF9A 		bls	.L38
 448              	.LBE60:
 449              	.LBE59:
 450              		.loc 1 232 0
 451 0070 0150A0E3 		mov	r5, #1
 452              	.LBB63:
 453              	.LBB61:
 454              		.loc 1 92 0
 455 0074 04C092E5 		ldr	ip, [r2, #4]
 456              	.LBE61:
ARM GAS  /tmp/ccInfMW2.s 			page 9


 457              	.LBE63:
 458              		.loc 1 233 0
 459 0078 0410A0E1 		mov	r1, r4
 460              	.LBB64:
 461              	.LBB62:
 462              		.loc 1 92 0
 463 007c 041084E8 		stmia	r4, {r2, ip}
 464              		.loc 1 93 0
 465 0080 044082E5 		str	r4, [r2, #4]
 466 0084 00408CE5 		str	r4, [ip]
 467              	.LBE62:
 468              	.LBE64:
 469              		.loc 1 232 0
 470 0088 1C50CEE5 		strb	r5, [lr, #28]
 471              		.loc 1 233 0
 472 008c 0E00A0E1 		mov	r0, lr
 473              		.loc 1 231 0
 474 0090 18E083E5 		str	lr, [r3, #24]
 475              	.LBE58:
 476              		.loc 1 235 0
 477 0094 3040BDE8 		ldmfd	sp!, {r4, r5, lr}
 478              		.cfi_restore 14
 479              		.cfi_restore 5
 480              		.cfi_restore 4
 481              		.cfi_def_cfa_offset 0
 482              	.LVL32:
 483              	.LBB65:
 484              		.loc 1 233 0
 485 0098 FEFFFFEA 		b	_port_switch_arm
 486              	.LVL33:
 487              	.L44:
 488              		.align	2
 489              	.L43:
 490 009c 00000000 		.word	rlist
 491              	.LBE65:
 492              		.cfi_endproc
 493              	.LFE12:
 494              		.size	chSchWakeupS, .-chSchWakeupS
 495              		.section	.text.chSchIsPreemptionRequired,"ax",%progbits
 496              		.align	2
 497              		.global	chSchIsPreemptionRequired
 498              		.type	chSchIsPreemptionRequired, %function
 499              	chSchIsPreemptionRequired:
 500              	.LFB14:
 501              		.loc 1 269 0
 502              		.cfi_startproc
 503              		@ args = 0, pretend = 0, frame = 0
 504              		@ frame_needed = 0, uses_anonymous_args = 0
 505              		@ link register save eliminated.
 506              		.loc 1 270 0
 507 0000 38309FE5 		ldr	r3, .L49
 508              		.loc 1 271 0
 509 0004 182093E5 		ldr	r2, [r3, #24]
 510              		.loc 1 270 0
 511 0008 003093E5 		ldr	r3, [r3]
 512              		.loc 1 277 0
 513 000c 1F10D2E5 		ldrb	r1, [r2, #31]	@ zero_extendqisi2
ARM GAS  /tmp/ccInfMW2.s 			page 10


 514              		.loc 1 270 0
 515 0010 083093E5 		ldr	r3, [r3, #8]
 516              	.LVL34:
 517              		.loc 1 277 0
 518 0014 000051E3 		cmp	r1, #0
 519              		.loc 1 271 0
 520 0018 080092E5 		ldr	r0, [r2, #8]
 521              	.LVL35:
 522              		.loc 1 277 0
 523 001c 0300001A 		bne	.L48
 524              		.loc 1 277 0 is_stmt 0 discriminator 2
 525 0020 000053E1 		cmp	r3, r0
 526 0024 0000A033 		movcc	r0, #0
 527              	.LVL36:
 528 0028 0100A023 		movcs	r0, #1
 529              		.loc 1 283 0 is_stmt 1 discriminator 2
 530 002c 1EFF2FE1 		bx	lr
 531              	.LVL37:
 532              	.L48:
 533              		.loc 1 277 0 discriminator 1
 534 0030 000053E1 		cmp	r3, r0
 535 0034 0000A093 		movls	r0, #0
 536              	.LVL38:
 537 0038 0100A083 		movhi	r0, #1
 538 003c 1EFF2FE1 		bx	lr
 539              	.L50:
 540              		.align	2
 541              	.L49:
 542 0040 00000000 		.word	rlist
 543              		.cfi_endproc
 544              	.LFE14:
 545              		.size	chSchIsPreemptionRequired, .-chSchIsPreemptionRequired
 546              		.section	.text.chSchDoRescheduleBehind,"ax",%progbits
 547              		.align	2
 548              		.global	chSchDoRescheduleBehind
 549              		.type	chSchDoRescheduleBehind, %function
 550              	chSchDoRescheduleBehind:
 551              	.LFB15:
 552              		.loc 1 297 0
 553              		.cfi_startproc
 554              		@ args = 0, pretend = 0, frame = 0
 555              		@ frame_needed = 0, uses_anonymous_args = 0
 556 0000 70402DE9 		stmfd	sp!, {r4, r5, r6, lr}
 557              		.cfi_def_cfa_offset 16
 558              		.cfi_offset 4, -16
 559              		.cfi_offset 5, -12
 560              		.cfi_offset 6, -8
 561              		.cfi_offset 14, -4
 562              		.loc 1 303 0
 563 0004 0160A0E3 		mov	r6, #1
 564              		.loc 1 305 0
 565 0008 1450A0E3 		mov	r5, #20
 566              	.LBB66:
 567              	.LBB67:
 568              		.loc 1 85 0
 569 000c 0040A0E3 		mov	r4, #0
 570              	.LBE67:
ARM GAS  /tmp/ccInfMW2.s 			page 11


 571              	.LBE66:
 572              		.loc 1 300 0
 573 0010 5C209FE5 		ldr	r2, .L56
 574              	.LBB71:
 575              	.LBB72:
 576              		.loc 2 53 0
 577 0014 000092E5 		ldr	r0, [r2]
 578              	.LBE72:
 579              	.LBE71:
 580              		.loc 1 300 0
 581 0018 18C092E5 		ldr	ip, [r2, #24]
 582              	.LVL39:
 583              	.LBB75:
 584              	.LBB73:
 585              		.loc 2 55 0
 586 001c 00E090E5 		ldr	lr, [r0]
 587 0020 08109CE5 		ldr	r1, [ip, #8]
 588              	.LBE73:
 589              	.LBE75:
 590              	.LBB76:
 591              	.LBB68:
 592              		.loc 1 85 0
 593 0024 0030A0E1 		mov	r3, r0
 594              	.LBE68:
 595              	.LBE76:
 596              	.LBB77:
 597              	.LBB74:
 598              		.loc 2 55 0
 599 0028 04208EE5 		str	r2, [lr, #4]
 600 002c 00E082E5 		str	lr, [r2]
 601              	.LBE74:
 602              	.LBE77:
 603              		.loc 1 303 0
 604 0030 1C60C0E5 		strb	r6, [r0, #28]
 605              		.loc 1 302 0
 606 0034 180082E5 		str	r0, [r2, #24]
 607              		.loc 1 305 0
 608 0038 1F50CCE5 		strb	r5, [ip, #31]
 609              	.LVL40:
 610              	.LBB78:
 611              	.LBB69:
 612              		.loc 1 85 0
 613 003c 1C40CCE5 		strb	r4, [ip, #28]
 614              	.LVL41:
 615 0040 000000EA 		b	.L53
 616              	.LVL42:
 617              	.L55:
 618 0044 003093E5 		ldr	r3, [r3]
 619              	.LVL43:
 620              	.L53:
 621              		.loc 1 89 0
 622 0048 082093E5 		ldr	r2, [r3, #8]
 623 004c 010052E1 		cmp	r2, r1
 624 0050 FBFFFF2A 		bcs	.L55
 625              		.loc 1 92 0
 626 0054 042093E5 		ldr	r2, [r3, #4]
 627              	.LBE69:
ARM GAS  /tmp/ccInfMW2.s 			page 12


 628              	.LBE78:
 629              		.loc 1 308 0
 630 0058 0C10A0E1 		mov	r1, ip
 631              		.loc 1 309 0
 632 005c 7040BDE8 		ldmfd	sp!, {r4, r5, r6, lr}
 633              		.cfi_restore 14
 634              		.cfi_restore 6
 635              		.cfi_restore 5
 636              		.cfi_restore 4
 637              		.cfi_def_cfa_offset 0
 638              	.LBB79:
 639              	.LBB70:
 640              		.loc 1 91 0
 641 0060 00308CE5 		str	r3, [ip]
 642              		.loc 1 92 0
 643 0064 04208CE5 		str	r2, [ip, #4]
 644              		.loc 1 93 0
 645 0068 04C083E5 		str	ip, [r3, #4]
 646 006c 00C082E5 		str	ip, [r2]
 647              	.LBE70:
 648              	.LBE79:
 649              		.loc 1 308 0
 650 0070 FEFFFFEA 		b	_port_switch_arm
 651              	.LVL44:
 652              	.L57:
 653              		.align	2
 654              	.L56:
 655 0074 00000000 		.word	rlist
 656              		.cfi_endproc
 657              	.LFE15:
 658              		.size	chSchDoRescheduleBehind, .-chSchDoRescheduleBehind
 659              		.section	.text.chSchDoRescheduleAhead,"ax",%progbits
 660              		.align	2
 661              		.global	chSchDoRescheduleAhead
 662              		.type	chSchDoRescheduleAhead, %function
 663              	chSchDoRescheduleAhead:
 664              	.LFB16:
 665              		.loc 1 322 0
 666              		.cfi_startproc
 667              		@ args = 0, pretend = 0, frame = 0
 668              		@ frame_needed = 0, uses_anonymous_args = 0
 669 0000 30402DE9 		stmfd	sp!, {r4, r5, lr}
 670              		.cfi_def_cfa_offset 12
 671              		.cfi_offset 4, -12
 672              		.cfi_offset 5, -8
 673              		.cfi_offset 14, -4
 674              		.loc 1 328 0
 675 0004 0150A0E3 		mov	r5, #1
 676              		.loc 1 330 0
 677 0008 0040A0E3 		mov	r4, #0
 678              		.loc 1 325 0
 679 000c 58209FE5 		ldr	r2, .L63
 680              	.LBB80:
 681              	.LBB81:
 682              		.loc 2 53 0
 683 0010 000092E5 		ldr	r0, [r2]
 684              	.LBE81:
ARM GAS  /tmp/ccInfMW2.s 			page 13


 685              	.LBE80:
 686              		.loc 1 325 0
 687 0014 18C092E5 		ldr	ip, [r2, #24]
 688              	.LVL45:
 689              	.LBB84:
 690              	.LBB82:
 691              		.loc 2 55 0
 692 0018 00E090E5 		ldr	lr, [r0]
 693 001c 08109CE5 		ldr	r1, [ip, #8]
 694              	.LBE82:
 695              	.LBE84:
 696              		.loc 1 330 0
 697 0020 0030A0E1 		mov	r3, r0
 698              	.LBB85:
 699              	.LBB83:
 700              		.loc 2 55 0
 701 0024 04208EE5 		str	r2, [lr, #4]
 702 0028 00E082E5 		str	lr, [r2]
 703              	.LBE83:
 704              	.LBE85:
 705              		.loc 1 328 0
 706 002c 1C50C0E5 		strb	r5, [r0, #28]
 707              		.loc 1 327 0
 708 0030 180082E5 		str	r0, [r2, #24]
 709              		.loc 1 330 0
 710 0034 1C40CCE5 		strb	r4, [ip, #28]
 711              	.LVL46:
 712 0038 000000EA 		b	.L60
 713              	.LVL47:
 714              	.L62:
 715 003c 003093E5 		ldr	r3, [r3]
 716              	.LVL48:
 717              	.L60:
 718              		.loc 1 334 0 discriminator 1
 719 0040 082093E5 		ldr	r2, [r3, #8]
 720 0044 010052E1 		cmp	r2, r1
 721 0048 FBFFFF8A 		bhi	.L62
 722              		.loc 1 337 0
 723 004c 042093E5 		ldr	r2, [r3, #4]
 724              		.loc 1 340 0
 725 0050 0C10A0E1 		mov	r1, ip
 726              		.loc 1 341 0
 727 0054 3040BDE8 		ldmfd	sp!, {r4, r5, lr}
 728              		.cfi_restore 14
 729              		.cfi_restore 5
 730              		.cfi_restore 4
 731              		.cfi_def_cfa_offset 0
 732              		.loc 1 336 0
 733 0058 00308CE5 		str	r3, [ip]
 734              		.loc 1 337 0
 735 005c 04208CE5 		str	r2, [ip, #4]
 736              		.loc 1 338 0
 737 0060 04C083E5 		str	ip, [r3, #4]
 738 0064 00C082E5 		str	ip, [r2]
 739              		.loc 1 340 0
 740 0068 FEFFFFEA 		b	_port_switch_arm
 741              	.LVL49:
ARM GAS  /tmp/ccInfMW2.s 			page 14


 742              	.L64:
 743              		.align	2
 744              	.L63:
 745 006c 00000000 		.word	rlist
 746              		.cfi_endproc
 747              	.LFE16:
 748              		.size	chSchDoRescheduleAhead, .-chSchDoRescheduleAhead
 749              		.section	.text.chSchRescheduleS,"ax",%progbits
 750              		.align	2
 751              		.global	chSchRescheduleS
 752              		.type	chSchRescheduleS, %function
 753              	chSchRescheduleS:
 754              	.LFB13:
 755              		.loc 1 246 0
 756              		.cfi_startproc
 757              		@ args = 0, pretend = 0, frame = 0
 758              		@ frame_needed = 0, uses_anonymous_args = 0
 759              		@ link register save eliminated.
 760              		.loc 1 250 0
 761 0000 18309FE5 		ldr	r3, .L67
 762 0004 002093E5 		ldr	r2, [r3]
 763 0008 183093E5 		ldr	r3, [r3, #24]
 764 000c 082092E5 		ldr	r2, [r2, #8]
 765 0010 083093E5 		ldr	r3, [r3, #8]
 766 0014 030052E1 		cmp	r2, r3
 767 0018 1EFF2F91 		bxls	lr
 768              		.loc 1 251 0
 769 001c FEFFFFEA 		b	chSchDoRescheduleAhead
 770              	.LVL50:
 771              	.L68:
 772              		.align	2
 773              	.L67:
 774 0020 00000000 		.word	rlist
 775              		.cfi_endproc
 776              	.LFE13:
 777              		.size	chSchRescheduleS, .-chSchRescheduleS
 778              		.section	.text.chSchDoReschedule,"ax",%progbits
 779              		.align	2
 780              		.global	chSchDoReschedule
 781              		.type	chSchDoReschedule, %function
 782              	chSchDoReschedule:
 783              	.LFB17:
 784              		.loc 1 355 0
 785              		.cfi_startproc
 786              		@ args = 0, pretend = 0, frame = 0
 787              		@ frame_needed = 0, uses_anonymous_args = 0
 788              		@ link register save eliminated.
 789              		.loc 1 360 0
 790 0000 14309FE5 		ldr	r3, .L72
 791 0004 183093E5 		ldr	r3, [r3, #24]
 792 0008 1F30D3E5 		ldrb	r3, [r3, #31]	@ zero_extendqisi2
 793 000c 000053E3 		cmp	r3, #0
 794 0010 0000000A 		beq	.L71
 795              		.loc 1 368 0
 796 0014 FEFFFFEA 		b	chSchDoRescheduleAhead
 797              	.LVL51:
 798              	.L71:
ARM GAS  /tmp/ccInfMW2.s 			page 15


 799              		.loc 1 363 0
 800 0018 FEFFFFEA 		b	chSchDoRescheduleBehind
 801              	.LVL52:
 802              	.L73:
 803              		.align	2
 804              	.L72:
 805 001c 00000000 		.word	rlist
 806              		.cfi_endproc
 807              	.LFE17:
 808              		.size	chSchDoReschedule, .-chSchDoReschedule
 809              		.comm	rlist,28,4
 810              		.text
 811              	.Letext0:
 812              		.file 3 "/usr/include/newlib/machine/_default_types.h"
 813              		.file 4 "/usr/include/newlib/sys/_stdint.h"
 814              		.file 5 "../../os/ports/GCC/ARM/chtypes.h"
 815              		.file 6 "../../os/kernel/include/chlists.h"
 816              		.file 7 "../../os/kernel/include/chthreads.h"
 817              		.file 8 "../../os/ports/GCC/ARM/chcore.h"
 818              		.file 9 "../../os/kernel/include/chvt.h"
 819              		.file 10 "../../os/kernel/include/chschd.h"
 820              		.file 11 "../../os/kernel/include/chsem.h"
 821              		.file 12 "../../os/kernel/include/chmtx.h"
 822              		.section	.debug_info,"",%progbits
 823              	.Ldebug_info0:
 824 0000 9D090000 		.4byte	0x99d
 825 0004 0400     		.2byte	0x4
 826 0006 00000000 		.4byte	.Ldebug_abbrev0
 827 000a 04       		.byte	0x4
 828 000b 01       		.uleb128 0x1
 829 000c F3030000 		.4byte	.LASF90
 830 0010 01       		.byte	0x1
 831 0011 BA030000 		.4byte	.LASF91
 832 0015 66030000 		.4byte	.LASF92
 833 0019 F8000000 		.4byte	.Ldebug_ranges0+0xf8
 834 001d 00000000 		.4byte	0
 835 0021 00000000 		.4byte	.Ldebug_line0
 836 0025 02       		.uleb128 0x2
 837 0026 04       		.byte	0x4
 838 0027 05       		.byte	0x5
 839 0028 696E7400 		.ascii	"int\000"
 840 002c 03       		.uleb128 0x3
 841 002d 04       		.byte	0x4
 842 002e 07       		.byte	0x7
 843 002f 19010000 		.4byte	.LASF0
 844 0033 03       		.uleb128 0x3
 845 0034 01       		.byte	0x1
 846 0035 06       		.byte	0x6
 847 0036 73000000 		.4byte	.LASF1
 848 003a 04       		.uleb128 0x4
 849 003b 24000000 		.4byte	.LASF5
 850 003f 03       		.byte	0x3
 851 0040 1D       		.byte	0x1d
 852 0041 45000000 		.4byte	0x45
 853 0045 03       		.uleb128 0x3
 854 0046 01       		.byte	0x1
 855 0047 08       		.byte	0x8
ARM GAS  /tmp/ccInfMW2.s 			page 16


 856 0048 51020000 		.4byte	.LASF2
 857 004c 03       		.uleb128 0x3
 858 004d 02       		.byte	0x2
 859 004e 05       		.byte	0x5
 860 004f 72020000 		.4byte	.LASF3
 861 0053 03       		.uleb128 0x3
 862 0054 02       		.byte	0x2
 863 0055 07       		.byte	0x7
 864 0056 6F010000 		.4byte	.LASF4
 865 005a 04       		.uleb128 0x4
 866 005b 37030000 		.4byte	.LASF6
 867 005f 03       		.byte	0x3
 868 0060 3F       		.byte	0x3f
 869 0061 65000000 		.4byte	0x65
 870 0065 03       		.uleb128 0x3
 871 0066 04       		.byte	0x4
 872 0067 05       		.byte	0x5
 873 0068 98000000 		.4byte	.LASF7
 874 006c 04       		.uleb128 0x4
 875 006d E5000000 		.4byte	.LASF8
 876 0071 03       		.byte	0x3
 877 0072 41       		.byte	0x41
 878 0073 77000000 		.4byte	0x77
 879 0077 03       		.uleb128 0x3
 880 0078 04       		.byte	0x4
 881 0079 07       		.byte	0x7
 882 007a 46010000 		.4byte	.LASF9
 883 007e 03       		.uleb128 0x3
 884 007f 08       		.byte	0x8
 885 0080 05       		.byte	0x5
 886 0081 65000000 		.4byte	.LASF10
 887 0085 03       		.uleb128 0x3
 888 0086 08       		.byte	0x8
 889 0087 07       		.byte	0x7
 890 0088 2E000000 		.4byte	.LASF11
 891 008c 04       		.uleb128 0x4
 892 008d DD030000 		.4byte	.LASF12
 893 0091 04       		.byte	0x4
 894 0092 14       		.byte	0x14
 895 0093 3A000000 		.4byte	0x3a
 896 0097 04       		.uleb128 0x4
 897 0098 49020000 		.4byte	.LASF13
 898 009c 04       		.byte	0x4
 899 009d 1F       		.byte	0x1f
 900 009e 5A000000 		.4byte	0x5a
 901 00a2 04       		.uleb128 0x4
 902 00a3 E0020000 		.4byte	.LASF14
 903 00a7 04       		.byte	0x4
 904 00a8 20       		.byte	0x20
 905 00a9 6C000000 		.4byte	0x6c
 906 00ad 04       		.uleb128 0x4
 907 00ae 7F000000 		.4byte	.LASF15
 908 00b2 05       		.byte	0x5
 909 00b3 29       		.byte	0x29
 910 00b4 97000000 		.4byte	0x97
 911 00b8 04       		.uleb128 0x4
 912 00b9 9D010000 		.4byte	.LASF16
ARM GAS  /tmp/ccInfMW2.s 			page 17


 913 00bd 05       		.byte	0x5
 914 00be 2A       		.byte	0x2a
 915 00bf 8C000000 		.4byte	0x8c
 916 00c3 04       		.uleb128 0x4
 917 00c4 A1000000 		.4byte	.LASF17
 918 00c8 05       		.byte	0x5
 919 00c9 2B       		.byte	0x2b
 920 00ca 8C000000 		.4byte	0x8c
 921 00ce 04       		.uleb128 0x4
 922 00cf 32020000 		.4byte	.LASF18
 923 00d3 05       		.byte	0x5
 924 00d4 2C       		.byte	0x2c
 925 00d5 8C000000 		.4byte	0x8c
 926 00d9 04       		.uleb128 0x4
 927 00da 8E000000 		.4byte	.LASF19
 928 00de 05       		.byte	0x5
 929 00df 2D       		.byte	0x2d
 930 00e0 8C000000 		.4byte	0x8c
 931 00e4 04       		.uleb128 0x4
 932 00e5 41020000 		.4byte	.LASF20
 933 00e9 05       		.byte	0x5
 934 00ea 2E       		.byte	0x2e
 935 00eb A2000000 		.4byte	0xa2
 936 00ef 04       		.uleb128 0x4
 937 00f0 8F010000 		.4byte	.LASF21
 938 00f4 05       		.byte	0x5
 939 00f5 2F       		.byte	0x2f
 940 00f6 97000000 		.4byte	0x97
 941 00fa 04       		.uleb128 0x4
 942 00fb B1010000 		.4byte	.LASF22
 943 00ff 05       		.byte	0x5
 944 0100 31       		.byte	0x31
 945 0101 A2000000 		.4byte	0xa2
 946 0105 04       		.uleb128 0x4
 947 0106 22030000 		.4byte	.LASF23
 948 010a 05       		.byte	0x5
 949 010b 33       		.byte	0x33
 950 010c A2000000 		.4byte	0xa2
 951 0110 04       		.uleb128 0x4
 952 0111 13010000 		.4byte	.LASF24
 953 0115 05       		.byte	0x5
 954 0116 34       		.byte	0x34
 955 0117 97000000 		.4byte	0x97
 956 011b 04       		.uleb128 0x4
 957 011c AB020000 		.4byte	.LASF25
 958 0120 06       		.byte	0x6
 959 0121 23       		.byte	0x23
 960 0122 26010000 		.4byte	0x126
 961 0126 05       		.uleb128 0x5
 962 0127 AB020000 		.4byte	.LASF25
 963 012b 44       		.byte	0x44
 964 012c 07       		.byte	0x7
 965 012d 57       		.byte	0x57
 966 012e 17020000 		.4byte	0x217
 967 0132 06       		.uleb128 0x6
 968 0133 9C020000 		.4byte	.LASF26
 969 0137 07       		.byte	0x7
ARM GAS  /tmp/ccInfMW2.s 			page 18


 970 0138 58       		.byte	0x58
 971 0139 38020000 		.4byte	0x238
 972 013d 00       		.byte	0
 973 013e 06       		.uleb128 0x6
 974 013f 3A020000 		.4byte	.LASF27
 975 0143 07       		.byte	0x7
 976 0144 5A       		.byte	0x5a
 977 0145 38020000 		.4byte	0x238
 978 0149 04       		.byte	0x4
 979 014a 06       		.uleb128 0x6
 980 014b 4E000000 		.4byte	.LASF28
 981 014f 07       		.byte	0x7
 982 0150 5C       		.byte	0x5c
 983 0151 E4000000 		.4byte	0xe4
 984 0155 08       		.byte	0x8
 985 0156 06       		.uleb128 0x6
 986 0157 9C040000 		.4byte	.LASF29
 987 015b 07       		.byte	0x7
 988 015c 5D       		.byte	0x5d
 989 015d E8020000 		.4byte	0x2e8
 990 0161 0C       		.byte	0xc
 991 0162 06       		.uleb128 0x6
 992 0163 C4000000 		.4byte	.LASF30
 993 0167 07       		.byte	0x7
 994 0168 5F       		.byte	0x5f
 995 0169 38020000 		.4byte	0x238
 996 016d 10       		.byte	0x10
 997 016e 06       		.uleb128 0x6
 998 016f FD010000 		.4byte	.LASF31
 999 0173 07       		.byte	0x7
 1000 0174 60       		.byte	0x60
 1001 0175 38020000 		.4byte	0x238
 1002 0179 14       		.byte	0x14
 1003 017a 06       		.uleb128 0x6
 1004 017b EC030000 		.4byte	.LASF32
 1005 017f 07       		.byte	0x7
 1006 0180 67       		.byte	0x67
 1007 0181 85040000 		.4byte	0x485
 1008 0185 18       		.byte	0x18
 1009 0186 06       		.uleb128 0x6
 1010 0187 7C020000 		.4byte	.LASF33
 1011 018b 07       		.byte	0x7
 1012 018c 72       		.byte	0x72
 1013 018d C3000000 		.4byte	0xc3
 1014 0191 1C       		.byte	0x1c
 1015 0192 06       		.uleb128 0x6
 1016 0193 A3020000 		.4byte	.LASF34
 1017 0197 07       		.byte	0x7
 1018 0198 76       		.byte	0x76
 1019 0199 B8000000 		.4byte	0xb8
 1020 019d 1D       		.byte	0x1d
 1021 019e 06       		.uleb128 0x6
 1022 019f A9030000 		.4byte	.LASF35
 1023 01a3 07       		.byte	0x7
 1024 01a4 7B       		.byte	0x7b
 1025 01a5 CE000000 		.4byte	0xce
 1026 01a9 1E       		.byte	0x1e
ARM GAS  /tmp/ccInfMW2.s 			page 19


 1027 01aa 06       		.uleb128 0x6
 1028 01ab 84020000 		.4byte	.LASF36
 1029 01af 07       		.byte	0x7
 1030 01b0 81       		.byte	0x81
 1031 01b1 D9000000 		.4byte	0xd9
 1032 01b5 1F       		.byte	0x1f
 1033 01b6 06       		.uleb128 0x6
 1034 01b7 41030000 		.4byte	.LASF37
 1035 01bb 07       		.byte	0x7
 1036 01bc 88       		.byte	0x88
 1037 01bd 7D030000 		.4byte	0x37d
 1038 01c1 20       		.byte	0x20
 1039 01c2 07       		.uleb128 0x7
 1040 01c3 705F7500 		.ascii	"p_u\000"
 1041 01c7 07       		.byte	0x7
 1042 01c8 AD       		.byte	0xad
 1043 01c9 50040000 		.4byte	0x450
 1044 01cd 24       		.byte	0x24
 1045 01ce 06       		.uleb128 0x6
 1046 01cf A2040000 		.4byte	.LASF38
 1047 01d3 07       		.byte	0x7
 1048 01d4 B2       		.byte	0xb2
 1049 01d5 5E020000 		.4byte	0x25e
 1050 01d9 28       		.byte	0x28
 1051 01da 06       		.uleb128 0x6
 1052 01db 4F030000 		.4byte	.LASF39
 1053 01df 07       		.byte	0x7
 1054 01e0 B8       		.byte	0xb8
 1055 01e1 3E020000 		.4byte	0x23e
 1056 01e5 2C       		.byte	0x2c
 1057 01e6 06       		.uleb128 0x6
 1058 01e7 00000000 		.4byte	.LASF40
 1059 01eb 07       		.byte	0x7
 1060 01ec BC       		.byte	0xbc
 1061 01ed EF000000 		.4byte	0xef
 1062 01f1 34       		.byte	0x34
 1063 01f2 06       		.uleb128 0x6
 1064 01f3 CB020000 		.4byte	.LASF41
 1065 01f7 07       		.byte	0x7
 1066 01f8 C2       		.byte	0xc2
 1067 01f9 FA000000 		.4byte	0xfa
 1068 01fd 38       		.byte	0x38
 1069 01fe 06       		.uleb128 0x6
 1070 01ff 68020000 		.4byte	.LASF42
 1071 0203 07       		.byte	0x7
 1072 0204 C9       		.byte	0xc9
 1073 0205 97040000 		.4byte	0x497
 1074 0209 3C       		.byte	0x3c
 1075 020a 06       		.uleb128 0x6
 1076 020b 2C030000 		.4byte	.LASF43
 1077 020f 07       		.byte	0x7
 1078 0210 CD       		.byte	0xcd
 1079 0211 E4000000 		.4byte	0xe4
 1080 0215 40       		.byte	0x40
 1081 0216 00       		.byte	0
 1082 0217 08       		.uleb128 0x8
 1083 0218 08       		.byte	0x8
ARM GAS  /tmp/ccInfMW2.s 			page 20


 1084 0219 06       		.byte	0x6
 1085 021a 5A       		.byte	0x5a
 1086 021b 38020000 		.4byte	0x238
 1087 021f 06       		.uleb128 0x6
 1088 0220 9C020000 		.4byte	.LASF26
 1089 0224 06       		.byte	0x6
 1090 0225 5B       		.byte	0x5b
 1091 0226 38020000 		.4byte	0x238
 1092 022a 00       		.byte	0
 1093 022b 06       		.uleb128 0x6
 1094 022c 3A020000 		.4byte	.LASF27
 1095 0230 06       		.byte	0x6
 1096 0231 5D       		.byte	0x5d
 1097 0232 38020000 		.4byte	0x238
 1098 0236 04       		.byte	0x4
 1099 0237 00       		.byte	0
 1100 0238 09       		.uleb128 0x9
 1101 0239 04       		.byte	0x4
 1102 023a 1B010000 		.4byte	0x11b
 1103 023e 04       		.uleb128 0x4
 1104 023f 0B020000 		.4byte	.LASF44
 1105 0243 06       		.byte	0x6
 1106 0244 5F       		.byte	0x5f
 1107 0245 17020000 		.4byte	0x217
 1108 0249 08       		.uleb128 0x8
 1109 024a 04       		.byte	0x4
 1110 024b 06       		.byte	0x6
 1111 024c 64       		.byte	0x64
 1112 024d 5E020000 		.4byte	0x25e
 1113 0251 06       		.uleb128 0x6
 1114 0252 9C020000 		.4byte	.LASF26
 1115 0256 06       		.byte	0x6
 1116 0257 66       		.byte	0x66
 1117 0258 38020000 		.4byte	0x238
 1118 025c 00       		.byte	0
 1119 025d 00       		.byte	0
 1120 025e 04       		.uleb128 0x4
 1121 025f A5010000 		.4byte	.LASF45
 1122 0263 06       		.byte	0x6
 1123 0264 69       		.byte	0x69
 1124 0265 49020000 		.4byte	0x249
 1125 0269 04       		.uleb128 0x4
 1126 026a F0000000 		.4byte	.LASF46
 1127 026e 08       		.byte	0x8
 1128 026f A2       		.byte	0xa2
 1129 0270 74020000 		.4byte	0x274
 1130 0274 0A       		.uleb128 0xa
 1131 0275 04       		.byte	0x4
 1132 0276 05       		.uleb128 0x5
 1133 0277 48030000 		.4byte	.LASF47
 1134 027b 24       		.byte	0x24
 1135 027c 08       		.byte	0x8
 1136 027d B9       		.byte	0xb9
 1137 027e E8020000 		.4byte	0x2e8
 1138 0282 07       		.uleb128 0x7
 1139 0283 723400   		.ascii	"r4\000"
 1140 0286 08       		.byte	0x8
ARM GAS  /tmp/ccInfMW2.s 			page 21


 1141 0287 BA       		.byte	0xba
 1142 0288 69020000 		.4byte	0x269
 1143 028c 00       		.byte	0
 1144 028d 07       		.uleb128 0x7
 1145 028e 723500   		.ascii	"r5\000"
 1146 0291 08       		.byte	0x8
 1147 0292 BB       		.byte	0xbb
 1148 0293 69020000 		.4byte	0x269
 1149 0297 04       		.byte	0x4
 1150 0298 07       		.uleb128 0x7
 1151 0299 723600   		.ascii	"r6\000"
 1152 029c 08       		.byte	0x8
 1153 029d BC       		.byte	0xbc
 1154 029e 69020000 		.4byte	0x269
 1155 02a2 08       		.byte	0x8
 1156 02a3 07       		.uleb128 0x7
 1157 02a4 723700   		.ascii	"r7\000"
 1158 02a7 08       		.byte	0x8
 1159 02a8 BD       		.byte	0xbd
 1160 02a9 69020000 		.4byte	0x269
 1161 02ad 0C       		.byte	0xc
 1162 02ae 07       		.uleb128 0x7
 1163 02af 723800   		.ascii	"r8\000"
 1164 02b2 08       		.byte	0x8
 1165 02b3 BE       		.byte	0xbe
 1166 02b4 69020000 		.4byte	0x269
 1167 02b8 10       		.byte	0x10
 1168 02b9 07       		.uleb128 0x7
 1169 02ba 723900   		.ascii	"r9\000"
 1170 02bd 08       		.byte	0x8
 1171 02be BF       		.byte	0xbf
 1172 02bf 69020000 		.4byte	0x269
 1173 02c3 14       		.byte	0x14
 1174 02c4 07       		.uleb128 0x7
 1175 02c5 72313000 		.ascii	"r10\000"
 1176 02c9 08       		.byte	0x8
 1177 02ca C0       		.byte	0xc0
 1178 02cb 69020000 		.4byte	0x269
 1179 02cf 18       		.byte	0x18
 1180 02d0 07       		.uleb128 0x7
 1181 02d1 72313100 		.ascii	"r11\000"
 1182 02d5 08       		.byte	0x8
 1183 02d6 C1       		.byte	0xc1
 1184 02d7 69020000 		.4byte	0x269
 1185 02db 1C       		.byte	0x1c
 1186 02dc 07       		.uleb128 0x7
 1187 02dd 6C7200   		.ascii	"lr\000"
 1188 02e0 08       		.byte	0x8
 1189 02e1 C2       		.byte	0xc2
 1190 02e2 69020000 		.4byte	0x269
 1191 02e6 20       		.byte	0x20
 1192 02e7 00       		.byte	0
 1193 02e8 05       		.uleb128 0x5
 1194 02e9 67010000 		.4byte	.LASF48
 1195 02ed 04       		.byte	0x4
 1196 02ee 08       		.byte	0x8
 1197 02ef CA       		.byte	0xca
ARM GAS  /tmp/ccInfMW2.s 			page 22


 1198 02f0 01030000 		.4byte	0x301
 1199 02f4 07       		.uleb128 0x7
 1200 02f5 72313300 		.ascii	"r13\000"
 1201 02f9 08       		.byte	0x8
 1202 02fa CB       		.byte	0xcb
 1203 02fb 01030000 		.4byte	0x301
 1204 02ff 00       		.byte	0
 1205 0300 00       		.byte	0
 1206 0301 09       		.uleb128 0x9
 1207 0302 04       		.byte	0x4
 1208 0303 76020000 		.4byte	0x276
 1209 0307 04       		.uleb128 0x4
 1210 0308 58010000 		.4byte	.LASF49
 1211 030c 09       		.byte	0x9
 1212 030d 4E       		.byte	0x4e
 1213 030e 12030000 		.4byte	0x312
 1214 0312 09       		.uleb128 0x9
 1215 0313 04       		.byte	0x4
 1216 0314 18030000 		.4byte	0x318
 1217 0318 0B       		.uleb128 0xb
 1218 0319 23030000 		.4byte	0x323
 1219 031d 0C       		.uleb128 0xc
 1220 031e 74020000 		.4byte	0x274
 1221 0322 00       		.byte	0
 1222 0323 04       		.uleb128 0x4
 1223 0324 F1020000 		.4byte	.LASF50
 1224 0328 09       		.byte	0x9
 1225 0329 53       		.byte	0x53
 1226 032a 2E030000 		.4byte	0x32e
 1227 032e 05       		.uleb128 0x5
 1228 032f F1020000 		.4byte	.LASF50
 1229 0333 14       		.byte	0x14
 1230 0334 09       		.byte	0x9
 1231 0335 5A       		.byte	0x5a
 1232 0336 77030000 		.4byte	0x377
 1233 033a 06       		.uleb128 0x6
 1234 033b 2D010000 		.4byte	.LASF51
 1235 033f 09       		.byte	0x9
 1236 0340 5B       		.byte	0x5b
 1237 0341 77030000 		.4byte	0x377
 1238 0345 00       		.byte	0
 1239 0346 06       		.uleb128 0x6
 1240 0347 F9000000 		.4byte	.LASF52
 1241 034b 09       		.byte	0x9
 1242 034c 5D       		.byte	0x5d
 1243 034d 77030000 		.4byte	0x377
 1244 0351 04       		.byte	0x4
 1245 0352 06       		.uleb128 0x6
 1246 0353 C3010000 		.4byte	.LASF53
 1247 0357 09       		.byte	0x9
 1248 0358 5F       		.byte	0x5f
 1249 0359 05010000 		.4byte	0x105
 1250 035d 08       		.byte	0x8
 1251 035e 06       		.uleb128 0x6
 1252 035f D4010000 		.4byte	.LASF54
 1253 0363 09       		.byte	0x9
 1254 0364 60       		.byte	0x60
ARM GAS  /tmp/ccInfMW2.s 			page 23


 1255 0365 07030000 		.4byte	0x307
 1256 0369 0C       		.byte	0xc
 1257 036a 06       		.uleb128 0x6
 1258 036b 5F030000 		.4byte	.LASF55
 1259 036f 09       		.byte	0x9
 1260 0370 62       		.byte	0x62
 1261 0371 74020000 		.4byte	0x274
 1262 0375 10       		.byte	0x10
 1263 0376 00       		.byte	0
 1264 0377 09       		.uleb128 0x9
 1265 0378 04       		.byte	0x4
 1266 0379 23030000 		.4byte	0x323
 1267 037d 0D       		.uleb128 0xd
 1268 037e 05010000 		.4byte	0x105
 1269 0382 08       		.uleb128 0x8
 1270 0383 1C       		.byte	0x1c
 1271 0384 0A       		.byte	0xa
 1272 0385 57       		.byte	0x57
 1273 0386 D3030000 		.4byte	0x3d3
 1274 038a 06       		.uleb128 0x6
 1275 038b E9020000 		.4byte	.LASF56
 1276 038f 0A       		.byte	0xa
 1277 0390 58       		.byte	0x58
 1278 0391 3E020000 		.4byte	0x23e
 1279 0395 00       		.byte	0
 1280 0396 06       		.uleb128 0x6
 1281 0397 8E020000 		.4byte	.LASF57
 1282 039b 0A       		.byte	0xa
 1283 039c 59       		.byte	0x59
 1284 039d E4000000 		.4byte	0xe4
 1285 03a1 08       		.byte	0x8
 1286 03a2 06       		.uleb128 0x6
 1287 03a3 05020000 		.4byte	.LASF58
 1288 03a7 0A       		.byte	0xa
 1289 03a8 5B       		.byte	0x5b
 1290 03a9 E8020000 		.4byte	0x2e8
 1291 03ad 0C       		.byte	0xc
 1292 03ae 06       		.uleb128 0x6
 1293 03af 95010000 		.4byte	.LASF59
 1294 03b3 0A       		.byte	0xa
 1295 03b4 5E       		.byte	0x5e
 1296 03b5 38020000 		.4byte	0x238
 1297 03b9 10       		.byte	0x10
 1298 03ba 06       		.uleb128 0x6
 1299 03bb 2A020000 		.4byte	.LASF60
 1300 03bf 0A       		.byte	0xa
 1301 03c0 5F       		.byte	0x5f
 1302 03c1 38020000 		.4byte	0x238
 1303 03c5 14       		.byte	0x14
 1304 03c6 06       		.uleb128 0x6
 1305 03c7 20020000 		.4byte	.LASF61
 1306 03cb 0A       		.byte	0xa
 1307 03cc 62       		.byte	0x62
 1308 03cd 38020000 		.4byte	0x238
 1309 03d1 18       		.byte	0x18
 1310 03d2 00       		.byte	0
 1311 03d3 04       		.uleb128 0x4
ARM GAS  /tmp/ccInfMW2.s 			page 24


 1312 03d4 B0030000 		.4byte	.LASF62
 1313 03d8 0A       		.byte	0xa
 1314 03d9 64       		.byte	0x64
 1315 03da 82030000 		.4byte	0x382
 1316 03de 05       		.uleb128 0x5
 1317 03df D6020000 		.4byte	.LASF63
 1318 03e3 0C       		.byte	0xc
 1319 03e4 0B       		.byte	0xb
 1320 03e5 25       		.byte	0x25
 1321 03e6 03040000 		.4byte	0x403
 1322 03ea 06       		.uleb128 0x6
 1323 03eb CC000000 		.4byte	.LASF64
 1324 03ef 0B       		.byte	0xb
 1325 03f0 26       		.byte	0x26
 1326 03f1 3E020000 		.4byte	0x23e
 1327 03f5 00       		.byte	0
 1328 03f6 06       		.uleb128 0x6
 1329 03f7 61010000 		.4byte	.LASF65
 1330 03fb 0B       		.byte	0xb
 1331 03fc 28       		.byte	0x28
 1332 03fd 10010000 		.4byte	0x110
 1333 0401 08       		.byte	0x8
 1334 0402 00       		.byte	0
 1335 0403 04       		.uleb128 0x4
 1336 0404 D6020000 		.4byte	.LASF63
 1337 0408 0B       		.byte	0xb
 1338 0409 29       		.byte	0x29
 1339 040a DE030000 		.4byte	0x3de
 1340 040e 05       		.uleb128 0x5
 1341 040f BD010000 		.4byte	.LASF66
 1342 0413 10       		.byte	0x10
 1343 0414 0C       		.byte	0xc
 1344 0415 25       		.byte	0x25
 1345 0416 3F040000 		.4byte	0x43f
 1346 041a 06       		.uleb128 0x6
 1347 041b 86000000 		.4byte	.LASF67
 1348 041f 0C       		.byte	0xc
 1349 0420 26       		.byte	0x26
 1350 0421 3E020000 		.4byte	0x23e
 1351 0425 00       		.byte	0
 1352 0426 06       		.uleb128 0x6
 1353 0427 94040000 		.4byte	.LASF68
 1354 042b 0C       		.byte	0xc
 1355 042c 28       		.byte	0x28
 1356 042d 38020000 		.4byte	0x238
 1357 0431 08       		.byte	0x8
 1358 0432 06       		.uleb128 0x6
 1359 0433 1B030000 		.4byte	.LASF69
 1360 0437 0C       		.byte	0xc
 1361 0438 2A       		.byte	0x2a
 1362 0439 3F040000 		.4byte	0x43f
 1363 043d 0C       		.byte	0xc
 1364 043e 00       		.byte	0
 1365 043f 09       		.uleb128 0x9
 1366 0440 04       		.byte	0x4
 1367 0441 0E040000 		.4byte	0x40e
 1368 0445 04       		.uleb128 0x4
ARM GAS  /tmp/ccInfMW2.s 			page 25


 1369 0446 BD010000 		.4byte	.LASF66
 1370 044a 0C       		.byte	0xc
 1371 044b 2C       		.byte	0x2c
 1372 044c 0E040000 		.4byte	0x40e
 1373 0450 0E       		.uleb128 0xe
 1374 0451 04       		.byte	0x4
 1375 0452 07       		.byte	0x7
 1376 0453 8F       		.byte	0x8f
 1377 0454 85040000 		.4byte	0x485
 1378 0458 0F       		.uleb128 0xf
 1379 0459 06000000 		.4byte	.LASF70
 1380 045d 07       		.byte	0x7
 1381 045e 96       		.byte	0x96
 1382 045f EF000000 		.4byte	0xef
 1383 0463 0F       		.uleb128 0xf
 1384 0464 45000000 		.4byte	.LASF71
 1385 0468 07       		.byte	0x7
 1386 0469 9D       		.byte	0x9d
 1387 046a EF000000 		.4byte	0xef
 1388 046e 0F       		.uleb128 0xf
 1389 046f E5030000 		.4byte	.LASF72
 1390 0473 07       		.byte	0x7
 1391 0474 A4       		.byte	0xa4
 1392 0475 74020000 		.4byte	0x274
 1393 0479 0F       		.uleb128 0xf
 1394 047a 95020000 		.4byte	.LASF73
 1395 047e 07       		.byte	0x7
 1396 047f AB       		.byte	0xab
 1397 0480 FA000000 		.4byte	0xfa
 1398 0484 00       		.byte	0
 1399 0485 09       		.uleb128 0x9
 1400 0486 04       		.byte	0x4
 1401 0487 8B040000 		.4byte	0x48b
 1402 048b 10       		.uleb128 0x10
 1403 048c 90040000 		.4byte	0x490
 1404 0490 03       		.uleb128 0x3
 1405 0491 01       		.byte	0x1
 1406 0492 08       		.byte	0x8
 1407 0493 FE020000 		.4byte	.LASF74
 1408 0497 09       		.uleb128 0x9
 1409 0498 04       		.byte	0x4
 1410 0499 45040000 		.4byte	0x445
 1411 049d 03       		.uleb128 0x3
 1412 049e 04       		.byte	0x4
 1413 049f 07       		.byte	0x7
 1414 04a0 CB010000 		.4byte	.LASF75
 1415 04a4 11       		.uleb128 0x11
 1416 04a5 18020000 		.4byte	.LASF76
 1417 04a9 02       		.byte	0x2
 1418 04aa 42       		.byte	0x42
 1419 04ab 38020000 		.4byte	0x238
 1420 04af 03       		.byte	0x3
 1421 04b0 BF040000 		.4byte	0x4bf
 1422 04b4 12       		.uleb128 0x12
 1423 04b5 747000   		.ascii	"tp\000"
 1424 04b8 02       		.byte	0x2
 1425 04b9 42       		.byte	0x42
ARM GAS  /tmp/ccInfMW2.s 			page 26


 1426 04ba 38020000 		.4byte	0x238
 1427 04be 00       		.byte	0
 1428 04bf 13       		.uleb128 0x13
 1429 04c0 0F030000 		.4byte	.LASF93
 1430 04c4 01       		.byte	0x1
 1431 04c5 4A       		.byte	0x4a
 1432 04c6 38020000 		.4byte	0x238
 1433 04ca 01       		.byte	0x1
 1434 04cb E4040000 		.4byte	0x4e4
 1435 04cf 12       		.uleb128 0x12
 1436 04d0 747000   		.ascii	"tp\000"
 1437 04d3 01       		.byte	0x1
 1438 04d4 4A       		.byte	0x4a
 1439 04d5 38020000 		.4byte	0x238
 1440 04d9 14       		.uleb128 0x14
 1441 04da 637000   		.ascii	"cp\000"
 1442 04dd 01       		.byte	0x1
 1443 04de 4B       		.byte	0x4b
 1444 04df 38020000 		.4byte	0x238
 1445 04e3 00       		.byte	0
 1446 04e4 15       		.uleb128 0x15
 1447 04e5 26010000 		.4byte	.LASF94
 1448 04e9 01       		.byte	0x1
 1449 04ea 81       		.byte	0x81
 1450 04eb 01       		.byte	0x1
 1451 04ec 04050000 		.4byte	0x504
 1452 04f0 12       		.uleb128 0x12
 1453 04f1 7000     		.ascii	"p\000"
 1454 04f3 01       		.byte	0x1
 1455 04f4 81       		.byte	0x81
 1456 04f5 74020000 		.4byte	0x274
 1457 04f9 14       		.uleb128 0x14
 1458 04fa 747000   		.ascii	"tp\000"
 1459 04fd 01       		.byte	0x1
 1460 04fe 82       		.byte	0x82
 1461 04ff 38020000 		.4byte	0x238
 1462 0503 00       		.byte	0
 1463 0504 11       		.uleb128 0x11
 1464 0505 03030000 		.4byte	.LASF77
 1465 0509 02       		.byte	0x2
 1466 050a 34       		.byte	0x34
 1467 050b 38020000 		.4byte	0x238
 1468 050f 03       		.byte	0x3
 1469 0510 2A050000 		.4byte	0x52a
 1470 0514 12       		.uleb128 0x12
 1471 0515 74717000 		.ascii	"tqp\000"
 1472 0519 02       		.byte	0x2
 1473 051a 34       		.byte	0x34
 1474 051b 2A050000 		.4byte	0x52a
 1475 051f 14       		.uleb128 0x14
 1476 0520 747000   		.ascii	"tp\000"
 1477 0523 02       		.byte	0x2
 1478 0524 35       		.byte	0x35
 1479 0525 38020000 		.4byte	0x238
 1480 0529 00       		.byte	0
 1481 052a 09       		.uleb128 0x9
 1482 052b 04       		.byte	0x4
ARM GAS  /tmp/ccInfMW2.s 			page 27


 1483 052c 3E020000 		.4byte	0x23e
 1484 0530 16       		.uleb128 0x16
 1485 0531 E4040000 		.4byte	0x4e4
 1486 0535 00000000 		.4byte	.LFB10
 1487 0539 AC000000 		.4byte	.LFE10-.LFB10
 1488 053d 01       		.uleb128 0x1
 1489 053e 9C       		.byte	0x9c
 1490 053f D9050000 		.4byte	0x5d9
 1491 0543 17       		.uleb128 0x17
 1492 0544 F0040000 		.4byte	0x4f0
 1493 0548 01       		.uleb128 0x1
 1494 0549 50       		.byte	0x50
 1495 054a 18       		.uleb128 0x18
 1496 054b F9040000 		.4byte	0x4f9
 1497 054f 01       		.uleb128 0x1
 1498 0550 50       		.byte	0x50
 1499 0551 19       		.uleb128 0x19
 1500 0552 A4040000 		.4byte	0x4a4
 1501 0556 58000000 		.4byte	.LBB33
 1502 055a 10000000 		.4byte	.LBE33-.LBB33
 1503 055e 01       		.byte	0x1
 1504 055f 99       		.byte	0x99
 1505 0560 6E050000 		.4byte	0x56e
 1506 0564 1A       		.uleb128 0x1a
 1507 0565 B4040000 		.4byte	0x4b4
 1508 0569 00000000 		.4byte	.LLST0
 1509 056d 00       		.byte	0
 1510 056e 1B       		.uleb128 0x1b
 1511 056f BF040000 		.4byte	0x4bf
 1512 0573 6C000000 		.4byte	.LBB35
 1513 0577 00000000 		.4byte	.Ldebug_ranges0+0
 1514 057b 01       		.byte	0x1
 1515 057c 9D       		.byte	0x9d
 1516 057d 9A050000 		.4byte	0x59a
 1517 0581 1A       		.uleb128 0x1a
 1518 0582 CF040000 		.4byte	0x4cf
 1519 0586 13000000 		.4byte	.LLST1
 1520 058a 1C       		.uleb128 0x1c
 1521 058b 00000000 		.4byte	.Ldebug_ranges0+0
 1522 058f 1D       		.uleb128 0x1d
 1523 0590 D9040000 		.4byte	0x4d9
 1524 0594 26000000 		.4byte	.LLST2
 1525 0598 00       		.byte	0
 1526 0599 00       		.byte	0
 1527 059a 1C       		.uleb128 0x1c
 1528 059b 18000000 		.4byte	.Ldebug_ranges0+0x18
 1529 059f 1A       		.uleb128 0x1a
 1530 05a0 F0040000 		.4byte	0x4f0
 1531 05a4 3E000000 		.4byte	.LLST3
 1532 05a8 1C       		.uleb128 0x1c
 1533 05a9 18000000 		.4byte	.Ldebug_ranges0+0x18
 1534 05ad 1E       		.uleb128 0x1e
 1535 05ae F9040000 		.4byte	0x4f9
 1536 05b2 1F       		.uleb128 0x1f
 1537 05b3 BF040000 		.4byte	0x4bf
 1538 05b7 74000000 		.4byte	.LBB40
 1539 05bb 18000000 		.4byte	.Ldebug_ranges0+0x18
ARM GAS  /tmp/ccInfMW2.s 			page 28


 1540 05bf 01       		.byte	0x1
 1541 05c0 9D       		.byte	0x9d
 1542 05c1 20       		.uleb128 0x20
 1543 05c2 CF040000 		.4byte	0x4cf
 1544 05c6 1C       		.uleb128 0x1c
 1545 05c7 18000000 		.4byte	.Ldebug_ranges0+0x18
 1546 05cb 1D       		.uleb128 0x1d
 1547 05cc D9040000 		.4byte	0x4d9
 1548 05d0 51000000 		.4byte	.LLST4
 1549 05d4 00       		.byte	0
 1550 05d5 00       		.byte	0
 1551 05d6 00       		.byte	0
 1552 05d7 00       		.byte	0
 1553 05d8 00       		.byte	0
 1554 05d9 21       		.uleb128 0x21
 1555 05da 55000000 		.4byte	.LASF95
 1556 05de 01       		.byte	0x1
 1557 05df 30       		.byte	0x30
 1558 05e0 00000000 		.4byte	.LFB7
 1559 05e4 24000000 		.4byte	.LFE7-.LFB7
 1560 05e8 01       		.uleb128 0x1
 1561 05e9 9C       		.byte	0x9c
 1562 05ea 16       		.uleb128 0x16
 1563 05eb BF040000 		.4byte	0x4bf
 1564 05ef 00000000 		.4byte	.LFB8
 1565 05f3 44000000 		.4byte	.LFE8-.LFB8
 1566 05f7 01       		.uleb128 0x1
 1567 05f8 9C       		.byte	0x9c
 1568 05f9 0E060000 		.4byte	0x60e
 1569 05fd 1A       		.uleb128 0x1a
 1570 05fe CF040000 		.4byte	0x4cf
 1571 0602 64000000 		.4byte	.LLST5
 1572 0606 18       		.uleb128 0x18
 1573 0607 D9040000 		.4byte	0x4d9
 1574 060b 01       		.uleb128 0x1
 1575 060c 53       		.byte	0x53
 1576 060d 00       		.byte	0
 1577 060e 22       		.uleb128 0x22
 1578 060f BD020000 		.4byte	.LASF80
 1579 0613 01       		.byte	0x1
 1580 0614 6C       		.byte	0x6c
 1581 0615 00000000 		.4byte	.LFB9
 1582 0619 44000000 		.4byte	.LFE9-.LFB9
 1583 061d 01       		.uleb128 0x1
 1584 061e 9C       		.byte	0x9c
 1585 061f 7A060000 		.4byte	0x67a
 1586 0623 23       		.uleb128 0x23
 1587 0624 5F020000 		.4byte	.LASF78
 1588 0628 01       		.byte	0x1
 1589 0629 6C       		.byte	0x6c
 1590 062a C3000000 		.4byte	0xc3
 1591 062e 82000000 		.4byte	.LLST6
 1592 0632 24       		.uleb128 0x24
 1593 0633 6F747000 		.ascii	"otp\000"
 1594 0637 01       		.byte	0x1
 1595 0638 6D       		.byte	0x6d
 1596 0639 38020000 		.4byte	0x238
ARM GAS  /tmp/ccInfMW2.s 			page 29


 1597 063d A3000000 		.4byte	.LLST7
 1598 0641 1B       		.uleb128 0x1b
 1599 0642 04050000 		.4byte	0x504
 1600 0646 10000000 		.4byte	.LBB47
 1601 064a 30000000 		.4byte	.Ldebug_ranges0+0x30
 1602 064e 01       		.byte	0x1
 1603 064f 77       		.byte	0x77
 1604 0650 70060000 		.4byte	0x670
 1605 0654 17       		.uleb128 0x17
 1606 0655 14050000 		.4byte	0x514
 1607 0659 06       		.uleb128 0x6
 1608 065a 03       		.byte	0x3
 1609 065b 00000000 		.4byte	rlist
 1610 065f 9F       		.byte	0x9f
 1611 0660 1C       		.uleb128 0x1c
 1612 0661 30000000 		.4byte	.Ldebug_ranges0+0x30
 1613 0665 1D       		.uleb128 0x1d
 1614 0666 1F050000 		.4byte	0x51f
 1615 066a B6000000 		.4byte	.LLST8
 1616 066e 00       		.byte	0
 1617 066f 00       		.byte	0
 1618 0670 25       		.uleb128 0x25
 1619 0671 40000000 		.4byte	.LVL15
 1620 0675 5C090000 		.4byte	0x95c
 1621 0679 00       		.byte	0
 1622 067a 26       		.uleb128 0x26
 1623 067b 7F040000 		.4byte	.LASF82
 1624 067f 01       		.byte	0x1
 1625 0680 B6       		.byte	0xb6
 1626 0681 EF000000 		.4byte	0xef
 1627 0685 00000000 		.4byte	.LFB11
 1628 0689 74000000 		.4byte	.LFE11-.LFB11
 1629 068d 01       		.uleb128 0x1
 1630 068e 9C       		.byte	0x9c
 1631 068f 1E070000 		.4byte	0x71e
 1632 0693 23       		.uleb128 0x23
 1633 0694 5F020000 		.4byte	.LASF78
 1634 0698 01       		.byte	0x1
 1635 0699 B6       		.byte	0xb6
 1636 069a C3000000 		.4byte	0xc3
 1637 069e C9000000 		.4byte	.LLST9
 1638 06a2 23       		.uleb128 0x23
 1639 06a3 5A030000 		.4byte	.LASF79
 1640 06a7 01       		.byte	0x1
 1641 06a8 B6       		.byte	0xb6
 1642 06a9 05010000 		.4byte	0x105
 1643 06ad 03010000 		.4byte	.LLST10
 1644 06b1 27       		.uleb128 0x27
 1645 06b2 14000000 		.4byte	.LBB55
 1646 06b6 30000000 		.4byte	.LBE55-.LBB55
 1647 06ba 14070000 		.4byte	0x714
 1648 06be 28       		.uleb128 0x28
 1649 06bf 767400   		.ascii	"vt\000"
 1650 06c2 01       		.byte	0x1
 1651 06c3 BB       		.byte	0xbb
 1652 06c4 23030000 		.4byte	0x323
 1653 06c8 02       		.uleb128 0x2
ARM GAS  /tmp/ccInfMW2.s 			page 30


 1654 06c9 91       		.byte	0x91
 1655 06ca 5C       		.sleb128 -36
 1656 06cb 29       		.uleb128 0x29
 1657 06cc 28000000 		.4byte	.LVL18
 1658 06d0 73090000 		.4byte	0x973
 1659 06d4 EF060000 		.4byte	0x6ef
 1660 06d8 2A       		.uleb128 0x2a
 1661 06d9 01       		.uleb128 0x1
 1662 06da 52       		.byte	0x52
 1663 06db 05       		.uleb128 0x5
 1664 06dc 03       		.byte	0x3
 1665 06dd 00000000 		.4byte	wakeup
 1666 06e1 2A       		.uleb128 0x2a
 1667 06e2 01       		.uleb128 0x1
 1668 06e3 51       		.byte	0x51
 1669 06e4 03       		.uleb128 0x3
 1670 06e5 F3       		.byte	0xf3
 1671 06e6 01       		.uleb128 0x1
 1672 06e7 51       		.byte	0x51
 1673 06e8 2A       		.uleb128 0x2a
 1674 06e9 01       		.uleb128 0x1
 1675 06ea 50       		.byte	0x50
 1676 06eb 02       		.uleb128 0x2
 1677 06ec 91       		.byte	0x91
 1678 06ed 54       		.sleb128 -44
 1679 06ee 00       		.byte	0
 1680 06ef 29       		.uleb128 0x29
 1681 06f0 30000000 		.4byte	.LVL19
 1682 06f4 0E060000 		.4byte	0x60e
 1683 06f8 03070000 		.4byte	0x703
 1684 06fc 2A       		.uleb128 0x2a
 1685 06fd 01       		.uleb128 0x1
 1686 06fe 50       		.byte	0x50
 1687 06ff 02       		.uleb128 0x2
 1688 0700 75       		.byte	0x75
 1689 0701 00       		.sleb128 0
 1690 0702 00       		.byte	0
 1691 0703 2B       		.uleb128 0x2b
 1692 0704 44000000 		.4byte	.LVL20
 1693 0708 93090000 		.4byte	0x993
 1694 070c 2A       		.uleb128 0x2a
 1695 070d 01       		.uleb128 0x1
 1696 070e 50       		.byte	0x50
 1697 070f 02       		.uleb128 0x2
 1698 0710 91       		.byte	0x91
 1699 0711 54       		.sleb128 -44
 1700 0712 00       		.byte	0
 1701 0713 00       		.byte	0
 1702 0714 2C       		.uleb128 0x2c
 1703 0715 58000000 		.4byte	.LVL22
 1704 0719 0E060000 		.4byte	0x60e
 1705 071d 00       		.byte	0
 1706 071e 22       		.uleb128 0x22
 1707 071f 82010000 		.4byte	.LASF81
 1708 0723 01       		.byte	0x1
 1709 0724 DA       		.byte	0xda
 1710 0725 00000000 		.4byte	.LFB12
ARM GAS  /tmp/ccInfMW2.s 			page 31


 1711 0729 A0000000 		.4byte	.LFE12-.LFB12
 1712 072d 01       		.uleb128 0x1
 1713 072e 9C       		.byte	0x9c
 1714 072f D0070000 		.4byte	0x7d0
 1715 0733 2D       		.uleb128 0x2d
 1716 0734 6E747000 		.ascii	"ntp\000"
 1717 0738 01       		.byte	0x1
 1718 0739 DA       		.byte	0xda
 1719 073a 38020000 		.4byte	0x238
 1720 073e 3D010000 		.4byte	.LLST11
 1721 0742 2D       		.uleb128 0x2d
 1722 0743 6D736700 		.ascii	"msg\000"
 1723 0747 01       		.byte	0x1
 1724 0748 DA       		.byte	0xda
 1725 0749 EF000000 		.4byte	0xef
 1726 074d 74010000 		.4byte	.LLST12
 1727 0751 19       		.uleb128 0x19
 1728 0752 BF040000 		.4byte	0x4bf
 1729 0756 24000000 		.4byte	.LBB56
 1730 075a 30000000 		.4byte	.LBE56-.LBB56
 1731 075e 01       		.byte	0x1
 1732 075f E4       		.byte	0xe4
 1733 0760 81070000 		.4byte	0x781
 1734 0764 1A       		.uleb128 0x1a
 1735 0765 CF040000 		.4byte	0x4cf
 1736 0769 AD010000 		.4byte	.LLST13
 1737 076d 2E       		.uleb128 0x2e
 1738 076e 24000000 		.4byte	.LBB57
 1739 0772 30000000 		.4byte	.LBE57-.LBB57
 1740 0776 1D       		.uleb128 0x1d
 1741 0777 D9040000 		.4byte	0x4d9
 1742 077b C0010000 		.4byte	.LLST14
 1743 077f 00       		.byte	0
 1744 0780 00       		.byte	0
 1745 0781 1C       		.uleb128 0x1c
 1746 0782 58000000 		.4byte	.Ldebug_ranges0+0x58
 1747 0786 14       		.uleb128 0x14
 1748 0787 6F747000 		.ascii	"otp\000"
 1749 078b 01       		.byte	0x1
 1750 078c E6       		.byte	0xe6
 1751 078d 38020000 		.4byte	0x238
 1752 0791 1B       		.uleb128 0x1b
 1753 0792 BF040000 		.4byte	0x4bf
 1754 0796 54000000 		.4byte	.LBB59
 1755 079a 70000000 		.4byte	.Ldebug_ranges0+0x70
 1756 079e 01       		.byte	0x1
 1757 079f E6       		.byte	0xe6
 1758 07a0 BD070000 		.4byte	0x7bd
 1759 07a4 1A       		.uleb128 0x1a
 1760 07a5 CF040000 		.4byte	0x4cf
 1761 07a9 D3010000 		.4byte	.LLST15
 1762 07ad 1C       		.uleb128 0x1c
 1763 07ae 70000000 		.4byte	.Ldebug_ranges0+0x70
 1764 07b2 1D       		.uleb128 0x1d
 1765 07b3 D9040000 		.4byte	0x4d9
 1766 07b7 F1010000 		.4byte	.LLST16
 1767 07bb 00       		.byte	0
ARM GAS  /tmp/ccInfMW2.s 			page 32


 1768 07bc 00       		.byte	0
 1769 07bd 2F       		.uleb128 0x2f
 1770 07be 9C000000 		.4byte	.LVL33
 1771 07c2 5C090000 		.4byte	0x95c
 1772 07c6 2A       		.uleb128 0x2a
 1773 07c7 01       		.uleb128 0x1
 1774 07c8 50       		.byte	0x50
 1775 07c9 03       		.uleb128 0x3
 1776 07ca F3       		.byte	0xf3
 1777 07cb 01       		.uleb128 0x1
 1778 07cc 50       		.byte	0x50
 1779 07cd 00       		.byte	0
 1780 07ce 00       		.byte	0
 1781 07cf 00       		.byte	0
 1782 07d0 30       		.uleb128 0x30
 1783 07d1 AA000000 		.4byte	.LASF83
 1784 07d5 01       		.byte	0x1
 1785 07d6 0D01     		.2byte	0x10d
 1786 07d8 AD000000 		.4byte	0xad
 1787 07dc 00000000 		.4byte	.LFB14
 1788 07e0 44000000 		.4byte	.LFE14-.LFB14
 1789 07e4 01       		.uleb128 0x1
 1790 07e5 9C       		.byte	0x9c
 1791 07e6 07080000 		.4byte	0x807
 1792 07ea 31       		.uleb128 0x31
 1793 07eb 703100   		.ascii	"p1\000"
 1794 07ee 01       		.byte	0x1
 1795 07ef 0E01     		.2byte	0x10e
 1796 07f1 E4000000 		.4byte	0xe4
 1797 07f5 01       		.uleb128 0x1
 1798 07f6 53       		.byte	0x53
 1799 07f7 32       		.uleb128 0x32
 1800 07f8 703200   		.ascii	"p2\000"
 1801 07fb 01       		.byte	0x1
 1802 07fc 0F01     		.2byte	0x10f
 1803 07fe E4000000 		.4byte	0xe4
 1804 0802 04020000 		.4byte	.LLST17
 1805 0806 00       		.byte	0
 1806 0807 33       		.uleb128 0x33
 1807 0808 DC010000 		.4byte	.LASF84
 1808 080c 01       		.byte	0x1
 1809 080d 2901     		.2byte	0x129
 1810 080f 00000000 		.4byte	.LFB15
 1811 0813 78000000 		.4byte	.LFE15-.LFB15
 1812 0817 01       		.uleb128 0x1
 1813 0818 9C       		.byte	0x9c
 1814 0819 94080000 		.4byte	0x894
 1815 081d 32       		.uleb128 0x32
 1816 081e 6F747000 		.ascii	"otp\000"
 1817 0822 01       		.byte	0x1
 1818 0823 2A01     		.2byte	0x12a
 1819 0825 38020000 		.4byte	0x238
 1820 0829 3A020000 		.4byte	.LLST18
 1821 082d 34       		.uleb128 0x34
 1822 082e BF040000 		.4byte	0x4bf
 1823 0832 0C000000 		.4byte	.LBB66
 1824 0836 90000000 		.4byte	.Ldebug_ranges0+0x90
ARM GAS  /tmp/ccInfMW2.s 			page 33


 1825 083a 01       		.byte	0x1
 1826 083b 3301     		.2byte	0x133
 1827 083d 5A080000 		.4byte	0x85a
 1828 0841 1A       		.uleb128 0x1a
 1829 0842 CF040000 		.4byte	0x4cf
 1830 0846 4D020000 		.4byte	.LLST19
 1831 084a 1C       		.uleb128 0x1c
 1832 084b 90000000 		.4byte	.Ldebug_ranges0+0x90
 1833 084f 1D       		.uleb128 0x1d
 1834 0850 D9040000 		.4byte	0x4d9
 1835 0854 60020000 		.4byte	.LLST20
 1836 0858 00       		.byte	0
 1837 0859 00       		.byte	0
 1838 085a 34       		.uleb128 0x34
 1839 085b 04050000 		.4byte	0x504
 1840 085f 14000000 		.4byte	.LBB71
 1841 0863 B8000000 		.4byte	.Ldebug_ranges0+0xb8
 1842 0867 01       		.byte	0x1
 1843 0868 2E01     		.2byte	0x12e
 1844 086a 8A080000 		.4byte	0x88a
 1845 086e 17       		.uleb128 0x17
 1846 086f 14050000 		.4byte	0x514
 1847 0873 06       		.uleb128 0x6
 1848 0874 03       		.byte	0x3
 1849 0875 00000000 		.4byte	rlist
 1850 0879 9F       		.byte	0x9f
 1851 087a 1C       		.uleb128 0x1c
 1852 087b B8000000 		.4byte	.Ldebug_ranges0+0xb8
 1853 087f 1D       		.uleb128 0x1d
 1854 0880 1F050000 		.4byte	0x51f
 1855 0884 83020000 		.4byte	.LLST21
 1856 0888 00       		.byte	0
 1857 0889 00       		.byte	0
 1858 088a 25       		.uleb128 0x25
 1859 088b 74000000 		.4byte	.LVL44
 1860 088f 5C090000 		.4byte	0x95c
 1861 0893 00       		.byte	0
 1862 0894 33       		.uleb128 0x33
 1863 0895 0D000000 		.4byte	.LASF85
 1864 0899 01       		.byte	0x1
 1865 089a 4201     		.2byte	0x142
 1866 089c 00000000 		.4byte	.LFB16
 1867 08a0 70000000 		.4byte	.LFE16-.LFB16
 1868 08a4 01       		.uleb128 0x1
 1869 08a5 9C       		.byte	0x9c
 1870 08a6 03090000 		.4byte	0x903
 1871 08aa 32       		.uleb128 0x32
 1872 08ab 6F747000 		.ascii	"otp\000"
 1873 08af 01       		.byte	0x1
 1874 08b0 4301     		.2byte	0x143
 1875 08b2 38020000 		.4byte	0x238
 1876 08b6 96020000 		.4byte	.LLST22
 1877 08ba 32       		.uleb128 0x32
 1878 08bb 637000   		.ascii	"cp\000"
 1879 08be 01       		.byte	0x1
 1880 08bf 4301     		.2byte	0x143
 1881 08c1 38020000 		.4byte	0x238
ARM GAS  /tmp/ccInfMW2.s 			page 34


 1882 08c5 A9020000 		.4byte	.LLST23
 1883 08c9 34       		.uleb128 0x34
 1884 08ca 04050000 		.4byte	0x504
 1885 08ce 10000000 		.4byte	.LBB80
 1886 08d2 D8000000 		.4byte	.Ldebug_ranges0+0xd8
 1887 08d6 01       		.byte	0x1
 1888 08d7 4701     		.2byte	0x147
 1889 08d9 F9080000 		.4byte	0x8f9
 1890 08dd 17       		.uleb128 0x17
 1891 08de 14050000 		.4byte	0x514
 1892 08e2 06       		.uleb128 0x6
 1893 08e3 03       		.byte	0x3
 1894 08e4 00000000 		.4byte	rlist
 1895 08e8 9F       		.byte	0x9f
 1896 08e9 1C       		.uleb128 0x1c
 1897 08ea D8000000 		.4byte	.Ldebug_ranges0+0xd8
 1898 08ee 1D       		.uleb128 0x1d
 1899 08ef 1F050000 		.4byte	0x51f
 1900 08f3 CC020000 		.4byte	.LLST24
 1901 08f7 00       		.byte	0
 1902 08f8 00       		.byte	0
 1903 08f9 25       		.uleb128 0x25
 1904 08fa 6C000000 		.4byte	.LVL49
 1905 08fe 5C090000 		.4byte	0x95c
 1906 0902 00       		.byte	0
 1907 0903 22       		.uleb128 0x22
 1908 0904 D4000000 		.4byte	.LASF86
 1909 0908 01       		.byte	0x1
 1910 0909 F6       		.byte	0xf6
 1911 090a 00000000 		.4byte	.LFB13
 1912 090e 24000000 		.4byte	.LFE13-.LFB13
 1913 0912 01       		.uleb128 0x1
 1914 0913 9C       		.byte	0x9c
 1915 0914 22090000 		.4byte	0x922
 1916 0918 25       		.uleb128 0x25
 1917 0919 20000000 		.4byte	.LVL50
 1918 091d 94080000 		.4byte	0x894
 1919 0921 00       		.byte	0
 1920 0922 33       		.uleb128 0x33
 1921 0923 01010000 		.4byte	.LASF87
 1922 0927 01       		.byte	0x1
 1923 0928 6301     		.2byte	0x163
 1924 092a 00000000 		.4byte	.LFB17
 1925 092e 20000000 		.4byte	.LFE17-.LFB17
 1926 0932 01       		.uleb128 0x1
 1927 0933 9C       		.byte	0x9c
 1928 0934 4B090000 		.4byte	0x94b
 1929 0938 25       		.uleb128 0x25
 1930 0939 18000000 		.4byte	.LVL51
 1931 093d 94080000 		.4byte	0x894
 1932 0941 25       		.uleb128 0x25
 1933 0942 1C000000 		.4byte	.LVL52
 1934 0946 07080000 		.4byte	0x807
 1935 094a 00       		.byte	0
 1936 094b 35       		.uleb128 0x35
 1937 094c D7030000 		.4byte	.LASF96
 1938 0950 01       		.byte	0x1
ARM GAS  /tmp/ccInfMW2.s 			page 35


 1939 0951 28       		.byte	0x28
 1940 0952 D3030000 		.4byte	0x3d3
 1941 0956 05       		.uleb128 0x5
 1942 0957 03       		.byte	0x3
 1943 0958 00000000 		.4byte	rlist
 1944 095c 36       		.uleb128 0x36
 1945 095d 35010000 		.4byte	.LASF88
 1946 0961 08       		.byte	0x8
 1947 0962 DA01     		.2byte	0x1da
 1948 0964 73090000 		.4byte	0x973
 1949 0968 0C       		.uleb128 0xc
 1950 0969 38020000 		.4byte	0x238
 1951 096d 0C       		.uleb128 0xc
 1952 096e 38020000 		.4byte	0x238
 1953 0972 00       		.byte	0
 1954 0973 37       		.uleb128 0x37
 1955 0974 F4010000 		.4byte	.LASF89
 1956 0978 09       		.byte	0x9
 1957 0979 DA       		.byte	0xda
 1958 097a 93090000 		.4byte	0x993
 1959 097e 0C       		.uleb128 0xc
 1960 097f 77030000 		.4byte	0x377
 1961 0983 0C       		.uleb128 0xc
 1962 0984 05010000 		.4byte	0x105
 1963 0988 0C       		.uleb128 0xc
 1964 0989 07030000 		.4byte	0x307
 1965 098d 0C       		.uleb128 0xc
 1966 098e 74020000 		.4byte	0x274
 1967 0992 00       		.byte	0
 1968 0993 38       		.uleb128 0x38
 1969 0994 B2020000 		.4byte	.LASF97
 1970 0998 09       		.byte	0x9
 1971 0999 DB       		.byte	0xdb
 1972 099a 0C       		.uleb128 0xc
 1973 099b 77030000 		.4byte	0x377
 1974 099f 00       		.byte	0
 1975 09a0 00       		.byte	0
 1976              		.section	.debug_abbrev,"",%progbits
 1977              	.Ldebug_abbrev0:
 1978 0000 01       		.uleb128 0x1
 1979 0001 11       		.uleb128 0x11
 1980 0002 01       		.byte	0x1
 1981 0003 25       		.uleb128 0x25
 1982 0004 0E       		.uleb128 0xe
 1983 0005 13       		.uleb128 0x13
 1984 0006 0B       		.uleb128 0xb
 1985 0007 03       		.uleb128 0x3
 1986 0008 0E       		.uleb128 0xe
 1987 0009 1B       		.uleb128 0x1b
 1988 000a 0E       		.uleb128 0xe
 1989 000b 55       		.uleb128 0x55
 1990 000c 17       		.uleb128 0x17
 1991 000d 11       		.uleb128 0x11
 1992 000e 01       		.uleb128 0x1
 1993 000f 10       		.uleb128 0x10
 1994 0010 17       		.uleb128 0x17
 1995 0011 00       		.byte	0
ARM GAS  /tmp/ccInfMW2.s 			page 36


 1996 0012 00       		.byte	0
 1997 0013 02       		.uleb128 0x2
 1998 0014 24       		.uleb128 0x24
 1999 0015 00       		.byte	0
 2000 0016 0B       		.uleb128 0xb
 2001 0017 0B       		.uleb128 0xb
 2002 0018 3E       		.uleb128 0x3e
 2003 0019 0B       		.uleb128 0xb
 2004 001a 03       		.uleb128 0x3
 2005 001b 08       		.uleb128 0x8
 2006 001c 00       		.byte	0
 2007 001d 00       		.byte	0
 2008 001e 03       		.uleb128 0x3
 2009 001f 24       		.uleb128 0x24
 2010 0020 00       		.byte	0
 2011 0021 0B       		.uleb128 0xb
 2012 0022 0B       		.uleb128 0xb
 2013 0023 3E       		.uleb128 0x3e
 2014 0024 0B       		.uleb128 0xb
 2015 0025 03       		.uleb128 0x3
 2016 0026 0E       		.uleb128 0xe
 2017 0027 00       		.byte	0
 2018 0028 00       		.byte	0
 2019 0029 04       		.uleb128 0x4
 2020 002a 16       		.uleb128 0x16
 2021 002b 00       		.byte	0
 2022 002c 03       		.uleb128 0x3
 2023 002d 0E       		.uleb128 0xe
 2024 002e 3A       		.uleb128 0x3a
 2025 002f 0B       		.uleb128 0xb
 2026 0030 3B       		.uleb128 0x3b
 2027 0031 0B       		.uleb128 0xb
 2028 0032 49       		.uleb128 0x49
 2029 0033 13       		.uleb128 0x13
 2030 0034 00       		.byte	0
 2031 0035 00       		.byte	0
 2032 0036 05       		.uleb128 0x5
 2033 0037 13       		.uleb128 0x13
 2034 0038 01       		.byte	0x1
 2035 0039 03       		.uleb128 0x3
 2036 003a 0E       		.uleb128 0xe
 2037 003b 0B       		.uleb128 0xb
 2038 003c 0B       		.uleb128 0xb
 2039 003d 3A       		.uleb128 0x3a
 2040 003e 0B       		.uleb128 0xb
 2041 003f 3B       		.uleb128 0x3b
 2042 0040 0B       		.uleb128 0xb
 2043 0041 01       		.uleb128 0x1
 2044 0042 13       		.uleb128 0x13
 2045 0043 00       		.byte	0
 2046 0044 00       		.byte	0
 2047 0045 06       		.uleb128 0x6
 2048 0046 0D       		.uleb128 0xd
 2049 0047 00       		.byte	0
 2050 0048 03       		.uleb128 0x3
 2051 0049 0E       		.uleb128 0xe
 2052 004a 3A       		.uleb128 0x3a
ARM GAS  /tmp/ccInfMW2.s 			page 37


 2053 004b 0B       		.uleb128 0xb
 2054 004c 3B       		.uleb128 0x3b
 2055 004d 0B       		.uleb128 0xb
 2056 004e 49       		.uleb128 0x49
 2057 004f 13       		.uleb128 0x13
 2058 0050 38       		.uleb128 0x38
 2059 0051 0B       		.uleb128 0xb
 2060 0052 00       		.byte	0
 2061 0053 00       		.byte	0
 2062 0054 07       		.uleb128 0x7
 2063 0055 0D       		.uleb128 0xd
 2064 0056 00       		.byte	0
 2065 0057 03       		.uleb128 0x3
 2066 0058 08       		.uleb128 0x8
 2067 0059 3A       		.uleb128 0x3a
 2068 005a 0B       		.uleb128 0xb
 2069 005b 3B       		.uleb128 0x3b
 2070 005c 0B       		.uleb128 0xb
 2071 005d 49       		.uleb128 0x49
 2072 005e 13       		.uleb128 0x13
 2073 005f 38       		.uleb128 0x38
 2074 0060 0B       		.uleb128 0xb
 2075 0061 00       		.byte	0
 2076 0062 00       		.byte	0
 2077 0063 08       		.uleb128 0x8
 2078 0064 13       		.uleb128 0x13
 2079 0065 01       		.byte	0x1
 2080 0066 0B       		.uleb128 0xb
 2081 0067 0B       		.uleb128 0xb
 2082 0068 3A       		.uleb128 0x3a
 2083 0069 0B       		.uleb128 0xb
 2084 006a 3B       		.uleb128 0x3b
 2085 006b 0B       		.uleb128 0xb
 2086 006c 01       		.uleb128 0x1
 2087 006d 13       		.uleb128 0x13
 2088 006e 00       		.byte	0
 2089 006f 00       		.byte	0
 2090 0070 09       		.uleb128 0x9
 2091 0071 0F       		.uleb128 0xf
 2092 0072 00       		.byte	0
 2093 0073 0B       		.uleb128 0xb
 2094 0074 0B       		.uleb128 0xb
 2095 0075 49       		.uleb128 0x49
 2096 0076 13       		.uleb128 0x13
 2097 0077 00       		.byte	0
 2098 0078 00       		.byte	0
 2099 0079 0A       		.uleb128 0xa
 2100 007a 0F       		.uleb128 0xf
 2101 007b 00       		.byte	0
 2102 007c 0B       		.uleb128 0xb
 2103 007d 0B       		.uleb128 0xb
 2104 007e 00       		.byte	0
 2105 007f 00       		.byte	0
 2106 0080 0B       		.uleb128 0xb
 2107 0081 15       		.uleb128 0x15
 2108 0082 01       		.byte	0x1
 2109 0083 27       		.uleb128 0x27
ARM GAS  /tmp/ccInfMW2.s 			page 38


 2110 0084 19       		.uleb128 0x19
 2111 0085 01       		.uleb128 0x1
 2112 0086 13       		.uleb128 0x13
 2113 0087 00       		.byte	0
 2114 0088 00       		.byte	0
 2115 0089 0C       		.uleb128 0xc
 2116 008a 05       		.uleb128 0x5
 2117 008b 00       		.byte	0
 2118 008c 49       		.uleb128 0x49
 2119 008d 13       		.uleb128 0x13
 2120 008e 00       		.byte	0
 2121 008f 00       		.byte	0
 2122 0090 0D       		.uleb128 0xd
 2123 0091 35       		.uleb128 0x35
 2124 0092 00       		.byte	0
 2125 0093 49       		.uleb128 0x49
 2126 0094 13       		.uleb128 0x13
 2127 0095 00       		.byte	0
 2128 0096 00       		.byte	0
 2129 0097 0E       		.uleb128 0xe
 2130 0098 17       		.uleb128 0x17
 2131 0099 01       		.byte	0x1
 2132 009a 0B       		.uleb128 0xb
 2133 009b 0B       		.uleb128 0xb
 2134 009c 3A       		.uleb128 0x3a
 2135 009d 0B       		.uleb128 0xb
 2136 009e 3B       		.uleb128 0x3b
 2137 009f 0B       		.uleb128 0xb
 2138 00a0 01       		.uleb128 0x1
 2139 00a1 13       		.uleb128 0x13
 2140 00a2 00       		.byte	0
 2141 00a3 00       		.byte	0
 2142 00a4 0F       		.uleb128 0xf
 2143 00a5 0D       		.uleb128 0xd
 2144 00a6 00       		.byte	0
 2145 00a7 03       		.uleb128 0x3
 2146 00a8 0E       		.uleb128 0xe
 2147 00a9 3A       		.uleb128 0x3a
 2148 00aa 0B       		.uleb128 0xb
 2149 00ab 3B       		.uleb128 0x3b
 2150 00ac 0B       		.uleb128 0xb
 2151 00ad 49       		.uleb128 0x49
 2152 00ae 13       		.uleb128 0x13
 2153 00af 00       		.byte	0
 2154 00b0 00       		.byte	0
 2155 00b1 10       		.uleb128 0x10
 2156 00b2 26       		.uleb128 0x26
 2157 00b3 00       		.byte	0
 2158 00b4 49       		.uleb128 0x49
 2159 00b5 13       		.uleb128 0x13
 2160 00b6 00       		.byte	0
 2161 00b7 00       		.byte	0
 2162 00b8 11       		.uleb128 0x11
 2163 00b9 2E       		.uleb128 0x2e
 2164 00ba 01       		.byte	0x1
 2165 00bb 03       		.uleb128 0x3
 2166 00bc 0E       		.uleb128 0xe
ARM GAS  /tmp/ccInfMW2.s 			page 39


 2167 00bd 3A       		.uleb128 0x3a
 2168 00be 0B       		.uleb128 0xb
 2169 00bf 3B       		.uleb128 0x3b
 2170 00c0 0B       		.uleb128 0xb
 2171 00c1 27       		.uleb128 0x27
 2172 00c2 19       		.uleb128 0x19
 2173 00c3 49       		.uleb128 0x49
 2174 00c4 13       		.uleb128 0x13
 2175 00c5 20       		.uleb128 0x20
 2176 00c6 0B       		.uleb128 0xb
 2177 00c7 01       		.uleb128 0x1
 2178 00c8 13       		.uleb128 0x13
 2179 00c9 00       		.byte	0
 2180 00ca 00       		.byte	0
 2181 00cb 12       		.uleb128 0x12
 2182 00cc 05       		.uleb128 0x5
 2183 00cd 00       		.byte	0
 2184 00ce 03       		.uleb128 0x3
 2185 00cf 08       		.uleb128 0x8
 2186 00d0 3A       		.uleb128 0x3a
 2187 00d1 0B       		.uleb128 0xb
 2188 00d2 3B       		.uleb128 0x3b
 2189 00d3 0B       		.uleb128 0xb
 2190 00d4 49       		.uleb128 0x49
 2191 00d5 13       		.uleb128 0x13
 2192 00d6 00       		.byte	0
 2193 00d7 00       		.byte	0
 2194 00d8 13       		.uleb128 0x13
 2195 00d9 2E       		.uleb128 0x2e
 2196 00da 01       		.byte	0x1
 2197 00db 3F       		.uleb128 0x3f
 2198 00dc 19       		.uleb128 0x19
 2199 00dd 03       		.uleb128 0x3
 2200 00de 0E       		.uleb128 0xe
 2201 00df 3A       		.uleb128 0x3a
 2202 00e0 0B       		.uleb128 0xb
 2203 00e1 3B       		.uleb128 0x3b
 2204 00e2 0B       		.uleb128 0xb
 2205 00e3 27       		.uleb128 0x27
 2206 00e4 19       		.uleb128 0x19
 2207 00e5 49       		.uleb128 0x49
 2208 00e6 13       		.uleb128 0x13
 2209 00e7 20       		.uleb128 0x20
 2210 00e8 0B       		.uleb128 0xb
 2211 00e9 01       		.uleb128 0x1
 2212 00ea 13       		.uleb128 0x13
 2213 00eb 00       		.byte	0
 2214 00ec 00       		.byte	0
 2215 00ed 14       		.uleb128 0x14
 2216 00ee 34       		.uleb128 0x34
 2217 00ef 00       		.byte	0
 2218 00f0 03       		.uleb128 0x3
 2219 00f1 08       		.uleb128 0x8
 2220 00f2 3A       		.uleb128 0x3a
 2221 00f3 0B       		.uleb128 0xb
 2222 00f4 3B       		.uleb128 0x3b
 2223 00f5 0B       		.uleb128 0xb
ARM GAS  /tmp/ccInfMW2.s 			page 40


 2224 00f6 49       		.uleb128 0x49
 2225 00f7 13       		.uleb128 0x13
 2226 00f8 00       		.byte	0
 2227 00f9 00       		.byte	0
 2228 00fa 15       		.uleb128 0x15
 2229 00fb 2E       		.uleb128 0x2e
 2230 00fc 01       		.byte	0x1
 2231 00fd 03       		.uleb128 0x3
 2232 00fe 0E       		.uleb128 0xe
 2233 00ff 3A       		.uleb128 0x3a
 2234 0100 0B       		.uleb128 0xb
 2235 0101 3B       		.uleb128 0x3b
 2236 0102 0B       		.uleb128 0xb
 2237 0103 27       		.uleb128 0x27
 2238 0104 19       		.uleb128 0x19
 2239 0105 20       		.uleb128 0x20
 2240 0106 0B       		.uleb128 0xb
 2241 0107 01       		.uleb128 0x1
 2242 0108 13       		.uleb128 0x13
 2243 0109 00       		.byte	0
 2244 010a 00       		.byte	0
 2245 010b 16       		.uleb128 0x16
 2246 010c 2E       		.uleb128 0x2e
 2247 010d 01       		.byte	0x1
 2248 010e 31       		.uleb128 0x31
 2249 010f 13       		.uleb128 0x13
 2250 0110 11       		.uleb128 0x11
 2251 0111 01       		.uleb128 0x1
 2252 0112 12       		.uleb128 0x12
 2253 0113 06       		.uleb128 0x6
 2254 0114 40       		.uleb128 0x40
 2255 0115 18       		.uleb128 0x18
 2256 0116 9742     		.uleb128 0x2117
 2257 0118 19       		.uleb128 0x19
 2258 0119 01       		.uleb128 0x1
 2259 011a 13       		.uleb128 0x13
 2260 011b 00       		.byte	0
 2261 011c 00       		.byte	0
 2262 011d 17       		.uleb128 0x17
 2263 011e 05       		.uleb128 0x5
 2264 011f 00       		.byte	0
 2265 0120 31       		.uleb128 0x31
 2266 0121 13       		.uleb128 0x13
 2267 0122 02       		.uleb128 0x2
 2268 0123 18       		.uleb128 0x18
 2269 0124 00       		.byte	0
 2270 0125 00       		.byte	0
 2271 0126 18       		.uleb128 0x18
 2272 0127 34       		.uleb128 0x34
 2273 0128 00       		.byte	0
 2274 0129 31       		.uleb128 0x31
 2275 012a 13       		.uleb128 0x13
 2276 012b 02       		.uleb128 0x2
 2277 012c 18       		.uleb128 0x18
 2278 012d 00       		.byte	0
 2279 012e 00       		.byte	0
 2280 012f 19       		.uleb128 0x19
ARM GAS  /tmp/ccInfMW2.s 			page 41


 2281 0130 1D       		.uleb128 0x1d
 2282 0131 01       		.byte	0x1
 2283 0132 31       		.uleb128 0x31
 2284 0133 13       		.uleb128 0x13
 2285 0134 11       		.uleb128 0x11
 2286 0135 01       		.uleb128 0x1
 2287 0136 12       		.uleb128 0x12
 2288 0137 06       		.uleb128 0x6
 2289 0138 58       		.uleb128 0x58
 2290 0139 0B       		.uleb128 0xb
 2291 013a 59       		.uleb128 0x59
 2292 013b 0B       		.uleb128 0xb
 2293 013c 01       		.uleb128 0x1
 2294 013d 13       		.uleb128 0x13
 2295 013e 00       		.byte	0
 2296 013f 00       		.byte	0
 2297 0140 1A       		.uleb128 0x1a
 2298 0141 05       		.uleb128 0x5
 2299 0142 00       		.byte	0
 2300 0143 31       		.uleb128 0x31
 2301 0144 13       		.uleb128 0x13
 2302 0145 02       		.uleb128 0x2
 2303 0146 17       		.uleb128 0x17
 2304 0147 00       		.byte	0
 2305 0148 00       		.byte	0
 2306 0149 1B       		.uleb128 0x1b
 2307 014a 1D       		.uleb128 0x1d
 2308 014b 01       		.byte	0x1
 2309 014c 31       		.uleb128 0x31
 2310 014d 13       		.uleb128 0x13
 2311 014e 52       		.uleb128 0x52
 2312 014f 01       		.uleb128 0x1
 2313 0150 55       		.uleb128 0x55
 2314 0151 17       		.uleb128 0x17
 2315 0152 58       		.uleb128 0x58
 2316 0153 0B       		.uleb128 0xb
 2317 0154 59       		.uleb128 0x59
 2318 0155 0B       		.uleb128 0xb
 2319 0156 01       		.uleb128 0x1
 2320 0157 13       		.uleb128 0x13
 2321 0158 00       		.byte	0
 2322 0159 00       		.byte	0
 2323 015a 1C       		.uleb128 0x1c
 2324 015b 0B       		.uleb128 0xb
 2325 015c 01       		.byte	0x1
 2326 015d 55       		.uleb128 0x55
 2327 015e 17       		.uleb128 0x17
 2328 015f 00       		.byte	0
 2329 0160 00       		.byte	0
 2330 0161 1D       		.uleb128 0x1d
 2331 0162 34       		.uleb128 0x34
 2332 0163 00       		.byte	0
 2333 0164 31       		.uleb128 0x31
 2334 0165 13       		.uleb128 0x13
 2335 0166 02       		.uleb128 0x2
 2336 0167 17       		.uleb128 0x17
 2337 0168 00       		.byte	0
ARM GAS  /tmp/ccInfMW2.s 			page 42


 2338 0169 00       		.byte	0
 2339 016a 1E       		.uleb128 0x1e
 2340 016b 34       		.uleb128 0x34
 2341 016c 00       		.byte	0
 2342 016d 31       		.uleb128 0x31
 2343 016e 13       		.uleb128 0x13
 2344 016f 00       		.byte	0
 2345 0170 00       		.byte	0
 2346 0171 1F       		.uleb128 0x1f
 2347 0172 1D       		.uleb128 0x1d
 2348 0173 01       		.byte	0x1
 2349 0174 31       		.uleb128 0x31
 2350 0175 13       		.uleb128 0x13
 2351 0176 52       		.uleb128 0x52
 2352 0177 01       		.uleb128 0x1
 2353 0178 55       		.uleb128 0x55
 2354 0179 17       		.uleb128 0x17
 2355 017a 58       		.uleb128 0x58
 2356 017b 0B       		.uleb128 0xb
 2357 017c 59       		.uleb128 0x59
 2358 017d 0B       		.uleb128 0xb
 2359 017e 00       		.byte	0
 2360 017f 00       		.byte	0
 2361 0180 20       		.uleb128 0x20
 2362 0181 05       		.uleb128 0x5
 2363 0182 00       		.byte	0
 2364 0183 31       		.uleb128 0x31
 2365 0184 13       		.uleb128 0x13
 2366 0185 00       		.byte	0
 2367 0186 00       		.byte	0
 2368 0187 21       		.uleb128 0x21
 2369 0188 2E       		.uleb128 0x2e
 2370 0189 00       		.byte	0
 2371 018a 3F       		.uleb128 0x3f
 2372 018b 19       		.uleb128 0x19
 2373 018c 03       		.uleb128 0x3
 2374 018d 0E       		.uleb128 0xe
 2375 018e 3A       		.uleb128 0x3a
 2376 018f 0B       		.uleb128 0xb
 2377 0190 3B       		.uleb128 0x3b
 2378 0191 0B       		.uleb128 0xb
 2379 0192 27       		.uleb128 0x27
 2380 0193 19       		.uleb128 0x19
 2381 0194 11       		.uleb128 0x11
 2382 0195 01       		.uleb128 0x1
 2383 0196 12       		.uleb128 0x12
 2384 0197 06       		.uleb128 0x6
 2385 0198 40       		.uleb128 0x40
 2386 0199 18       		.uleb128 0x18
 2387 019a 9742     		.uleb128 0x2117
 2388 019c 19       		.uleb128 0x19
 2389 019d 00       		.byte	0
 2390 019e 00       		.byte	0
 2391 019f 22       		.uleb128 0x22
 2392 01a0 2E       		.uleb128 0x2e
 2393 01a1 01       		.byte	0x1
 2394 01a2 3F       		.uleb128 0x3f
ARM GAS  /tmp/ccInfMW2.s 			page 43


 2395 01a3 19       		.uleb128 0x19
 2396 01a4 03       		.uleb128 0x3
 2397 01a5 0E       		.uleb128 0xe
 2398 01a6 3A       		.uleb128 0x3a
 2399 01a7 0B       		.uleb128 0xb
 2400 01a8 3B       		.uleb128 0x3b
 2401 01a9 0B       		.uleb128 0xb
 2402 01aa 27       		.uleb128 0x27
 2403 01ab 19       		.uleb128 0x19
 2404 01ac 11       		.uleb128 0x11
 2405 01ad 01       		.uleb128 0x1
 2406 01ae 12       		.uleb128 0x12
 2407 01af 06       		.uleb128 0x6
 2408 01b0 40       		.uleb128 0x40
 2409 01b1 18       		.uleb128 0x18
 2410 01b2 9742     		.uleb128 0x2117
 2411 01b4 19       		.uleb128 0x19
 2412 01b5 01       		.uleb128 0x1
 2413 01b6 13       		.uleb128 0x13
 2414 01b7 00       		.byte	0
 2415 01b8 00       		.byte	0
 2416 01b9 23       		.uleb128 0x23
 2417 01ba 05       		.uleb128 0x5
 2418 01bb 00       		.byte	0
 2419 01bc 03       		.uleb128 0x3
 2420 01bd 0E       		.uleb128 0xe
 2421 01be 3A       		.uleb128 0x3a
 2422 01bf 0B       		.uleb128 0xb
 2423 01c0 3B       		.uleb128 0x3b
 2424 01c1 0B       		.uleb128 0xb
 2425 01c2 49       		.uleb128 0x49
 2426 01c3 13       		.uleb128 0x13
 2427 01c4 02       		.uleb128 0x2
 2428 01c5 17       		.uleb128 0x17
 2429 01c6 00       		.byte	0
 2430 01c7 00       		.byte	0
 2431 01c8 24       		.uleb128 0x24
 2432 01c9 34       		.uleb128 0x34
 2433 01ca 00       		.byte	0
 2434 01cb 03       		.uleb128 0x3
 2435 01cc 08       		.uleb128 0x8
 2436 01cd 3A       		.uleb128 0x3a
 2437 01ce 0B       		.uleb128 0xb
 2438 01cf 3B       		.uleb128 0x3b
 2439 01d0 0B       		.uleb128 0xb
 2440 01d1 49       		.uleb128 0x49
 2441 01d2 13       		.uleb128 0x13
 2442 01d3 02       		.uleb128 0x2
 2443 01d4 17       		.uleb128 0x17
 2444 01d5 00       		.byte	0
 2445 01d6 00       		.byte	0
 2446 01d7 25       		.uleb128 0x25
 2447 01d8 898201   		.uleb128 0x4109
 2448 01db 00       		.byte	0
 2449 01dc 11       		.uleb128 0x11
 2450 01dd 01       		.uleb128 0x1
 2451 01de 9542     		.uleb128 0x2115
ARM GAS  /tmp/ccInfMW2.s 			page 44


 2452 01e0 19       		.uleb128 0x19
 2453 01e1 31       		.uleb128 0x31
 2454 01e2 13       		.uleb128 0x13
 2455 01e3 00       		.byte	0
 2456 01e4 00       		.byte	0
 2457 01e5 26       		.uleb128 0x26
 2458 01e6 2E       		.uleb128 0x2e
 2459 01e7 01       		.byte	0x1
 2460 01e8 3F       		.uleb128 0x3f
 2461 01e9 19       		.uleb128 0x19
 2462 01ea 03       		.uleb128 0x3
 2463 01eb 0E       		.uleb128 0xe
 2464 01ec 3A       		.uleb128 0x3a
 2465 01ed 0B       		.uleb128 0xb
 2466 01ee 3B       		.uleb128 0x3b
 2467 01ef 0B       		.uleb128 0xb
 2468 01f0 27       		.uleb128 0x27
 2469 01f1 19       		.uleb128 0x19
 2470 01f2 49       		.uleb128 0x49
 2471 01f3 13       		.uleb128 0x13
 2472 01f4 11       		.uleb128 0x11
 2473 01f5 01       		.uleb128 0x1
 2474 01f6 12       		.uleb128 0x12
 2475 01f7 06       		.uleb128 0x6
 2476 01f8 40       		.uleb128 0x40
 2477 01f9 18       		.uleb128 0x18
 2478 01fa 9742     		.uleb128 0x2117
 2479 01fc 19       		.uleb128 0x19
 2480 01fd 01       		.uleb128 0x1
 2481 01fe 13       		.uleb128 0x13
 2482 01ff 00       		.byte	0
 2483 0200 00       		.byte	0
 2484 0201 27       		.uleb128 0x27
 2485 0202 0B       		.uleb128 0xb
 2486 0203 01       		.byte	0x1
 2487 0204 11       		.uleb128 0x11
 2488 0205 01       		.uleb128 0x1
 2489 0206 12       		.uleb128 0x12
 2490 0207 06       		.uleb128 0x6
 2491 0208 01       		.uleb128 0x1
 2492 0209 13       		.uleb128 0x13
 2493 020a 00       		.byte	0
 2494 020b 00       		.byte	0
 2495 020c 28       		.uleb128 0x28
 2496 020d 34       		.uleb128 0x34
 2497 020e 00       		.byte	0
 2498 020f 03       		.uleb128 0x3
 2499 0210 08       		.uleb128 0x8
 2500 0211 3A       		.uleb128 0x3a
 2501 0212 0B       		.uleb128 0xb
 2502 0213 3B       		.uleb128 0x3b
 2503 0214 0B       		.uleb128 0xb
 2504 0215 49       		.uleb128 0x49
 2505 0216 13       		.uleb128 0x13
 2506 0217 02       		.uleb128 0x2
 2507 0218 18       		.uleb128 0x18
 2508 0219 00       		.byte	0
ARM GAS  /tmp/ccInfMW2.s 			page 45


 2509 021a 00       		.byte	0
 2510 021b 29       		.uleb128 0x29
 2511 021c 898201   		.uleb128 0x4109
 2512 021f 01       		.byte	0x1
 2513 0220 11       		.uleb128 0x11
 2514 0221 01       		.uleb128 0x1
 2515 0222 31       		.uleb128 0x31
 2516 0223 13       		.uleb128 0x13
 2517 0224 01       		.uleb128 0x1
 2518 0225 13       		.uleb128 0x13
 2519 0226 00       		.byte	0
 2520 0227 00       		.byte	0
 2521 0228 2A       		.uleb128 0x2a
 2522 0229 8A8201   		.uleb128 0x410a
 2523 022c 00       		.byte	0
 2524 022d 02       		.uleb128 0x2
 2525 022e 18       		.uleb128 0x18
 2526 022f 9142     		.uleb128 0x2111
 2527 0231 18       		.uleb128 0x18
 2528 0232 00       		.byte	0
 2529 0233 00       		.byte	0
 2530 0234 2B       		.uleb128 0x2b
 2531 0235 898201   		.uleb128 0x4109
 2532 0238 01       		.byte	0x1
 2533 0239 11       		.uleb128 0x11
 2534 023a 01       		.uleb128 0x1
 2535 023b 31       		.uleb128 0x31
 2536 023c 13       		.uleb128 0x13
 2537 023d 00       		.byte	0
 2538 023e 00       		.byte	0
 2539 023f 2C       		.uleb128 0x2c
 2540 0240 898201   		.uleb128 0x4109
 2541 0243 00       		.byte	0
 2542 0244 11       		.uleb128 0x11
 2543 0245 01       		.uleb128 0x1
 2544 0246 31       		.uleb128 0x31
 2545 0247 13       		.uleb128 0x13
 2546 0248 00       		.byte	0
 2547 0249 00       		.byte	0
 2548 024a 2D       		.uleb128 0x2d
 2549 024b 05       		.uleb128 0x5
 2550 024c 00       		.byte	0
 2551 024d 03       		.uleb128 0x3
 2552 024e 08       		.uleb128 0x8
 2553 024f 3A       		.uleb128 0x3a
 2554 0250 0B       		.uleb128 0xb
 2555 0251 3B       		.uleb128 0x3b
 2556 0252 0B       		.uleb128 0xb
 2557 0253 49       		.uleb128 0x49
 2558 0254 13       		.uleb128 0x13
 2559 0255 02       		.uleb128 0x2
 2560 0256 17       		.uleb128 0x17
 2561 0257 00       		.byte	0
 2562 0258 00       		.byte	0
 2563 0259 2E       		.uleb128 0x2e
 2564 025a 0B       		.uleb128 0xb
 2565 025b 01       		.byte	0x1
ARM GAS  /tmp/ccInfMW2.s 			page 46


 2566 025c 11       		.uleb128 0x11
 2567 025d 01       		.uleb128 0x1
 2568 025e 12       		.uleb128 0x12
 2569 025f 06       		.uleb128 0x6
 2570 0260 00       		.byte	0
 2571 0261 00       		.byte	0
 2572 0262 2F       		.uleb128 0x2f
 2573 0263 898201   		.uleb128 0x4109
 2574 0266 01       		.byte	0x1
 2575 0267 11       		.uleb128 0x11
 2576 0268 01       		.uleb128 0x1
 2577 0269 9542     		.uleb128 0x2115
 2578 026b 19       		.uleb128 0x19
 2579 026c 31       		.uleb128 0x31
 2580 026d 13       		.uleb128 0x13
 2581 026e 00       		.byte	0
 2582 026f 00       		.byte	0
 2583 0270 30       		.uleb128 0x30
 2584 0271 2E       		.uleb128 0x2e
 2585 0272 01       		.byte	0x1
 2586 0273 3F       		.uleb128 0x3f
 2587 0274 19       		.uleb128 0x19
 2588 0275 03       		.uleb128 0x3
 2589 0276 0E       		.uleb128 0xe
 2590 0277 3A       		.uleb128 0x3a
 2591 0278 0B       		.uleb128 0xb
 2592 0279 3B       		.uleb128 0x3b
 2593 027a 05       		.uleb128 0x5
 2594 027b 27       		.uleb128 0x27
 2595 027c 19       		.uleb128 0x19
 2596 027d 49       		.uleb128 0x49
 2597 027e 13       		.uleb128 0x13
 2598 027f 11       		.uleb128 0x11
 2599 0280 01       		.uleb128 0x1
 2600 0281 12       		.uleb128 0x12
 2601 0282 06       		.uleb128 0x6
 2602 0283 40       		.uleb128 0x40
 2603 0284 18       		.uleb128 0x18
 2604 0285 9742     		.uleb128 0x2117
 2605 0287 19       		.uleb128 0x19
 2606 0288 01       		.uleb128 0x1
 2607 0289 13       		.uleb128 0x13
 2608 028a 00       		.byte	0
 2609 028b 00       		.byte	0
 2610 028c 31       		.uleb128 0x31
 2611 028d 34       		.uleb128 0x34
 2612 028e 00       		.byte	0
 2613 028f 03       		.uleb128 0x3
 2614 0290 08       		.uleb128 0x8
 2615 0291 3A       		.uleb128 0x3a
 2616 0292 0B       		.uleb128 0xb
 2617 0293 3B       		.uleb128 0x3b
 2618 0294 05       		.uleb128 0x5
 2619 0295 49       		.uleb128 0x49
 2620 0296 13       		.uleb128 0x13
 2621 0297 02       		.uleb128 0x2
 2622 0298 18       		.uleb128 0x18
ARM GAS  /tmp/ccInfMW2.s 			page 47


 2623 0299 00       		.byte	0
 2624 029a 00       		.byte	0
 2625 029b 32       		.uleb128 0x32
 2626 029c 34       		.uleb128 0x34
 2627 029d 00       		.byte	0
 2628 029e 03       		.uleb128 0x3
 2629 029f 08       		.uleb128 0x8
 2630 02a0 3A       		.uleb128 0x3a
 2631 02a1 0B       		.uleb128 0xb
 2632 02a2 3B       		.uleb128 0x3b
 2633 02a3 05       		.uleb128 0x5
 2634 02a4 49       		.uleb128 0x49
 2635 02a5 13       		.uleb128 0x13
 2636 02a6 02       		.uleb128 0x2
 2637 02a7 17       		.uleb128 0x17
 2638 02a8 00       		.byte	0
 2639 02a9 00       		.byte	0
 2640 02aa 33       		.uleb128 0x33
 2641 02ab 2E       		.uleb128 0x2e
 2642 02ac 01       		.byte	0x1
 2643 02ad 3F       		.uleb128 0x3f
 2644 02ae 19       		.uleb128 0x19
 2645 02af 03       		.uleb128 0x3
 2646 02b0 0E       		.uleb128 0xe
 2647 02b1 3A       		.uleb128 0x3a
 2648 02b2 0B       		.uleb128 0xb
 2649 02b3 3B       		.uleb128 0x3b
 2650 02b4 05       		.uleb128 0x5
 2651 02b5 27       		.uleb128 0x27
 2652 02b6 19       		.uleb128 0x19
 2653 02b7 11       		.uleb128 0x11
 2654 02b8 01       		.uleb128 0x1
 2655 02b9 12       		.uleb128 0x12
 2656 02ba 06       		.uleb128 0x6
 2657 02bb 40       		.uleb128 0x40
 2658 02bc 18       		.uleb128 0x18
 2659 02bd 9742     		.uleb128 0x2117
 2660 02bf 19       		.uleb128 0x19
 2661 02c0 01       		.uleb128 0x1
 2662 02c1 13       		.uleb128 0x13
 2663 02c2 00       		.byte	0
 2664 02c3 00       		.byte	0
 2665 02c4 34       		.uleb128 0x34
 2666 02c5 1D       		.uleb128 0x1d
 2667 02c6 01       		.byte	0x1
 2668 02c7 31       		.uleb128 0x31
 2669 02c8 13       		.uleb128 0x13
 2670 02c9 52       		.uleb128 0x52
 2671 02ca 01       		.uleb128 0x1
 2672 02cb 55       		.uleb128 0x55
 2673 02cc 17       		.uleb128 0x17
 2674 02cd 58       		.uleb128 0x58
 2675 02ce 0B       		.uleb128 0xb
 2676 02cf 59       		.uleb128 0x59
 2677 02d0 05       		.uleb128 0x5
 2678 02d1 01       		.uleb128 0x1
 2679 02d2 13       		.uleb128 0x13
ARM GAS  /tmp/ccInfMW2.s 			page 48


 2680 02d3 00       		.byte	0
 2681 02d4 00       		.byte	0
 2682 02d5 35       		.uleb128 0x35
 2683 02d6 34       		.uleb128 0x34
 2684 02d7 00       		.byte	0
 2685 02d8 03       		.uleb128 0x3
 2686 02d9 0E       		.uleb128 0xe
 2687 02da 3A       		.uleb128 0x3a
 2688 02db 0B       		.uleb128 0xb
 2689 02dc 3B       		.uleb128 0x3b
 2690 02dd 0B       		.uleb128 0xb
 2691 02de 49       		.uleb128 0x49
 2692 02df 13       		.uleb128 0x13
 2693 02e0 3F       		.uleb128 0x3f
 2694 02e1 19       		.uleb128 0x19
 2695 02e2 02       		.uleb128 0x2
 2696 02e3 18       		.uleb128 0x18
 2697 02e4 00       		.byte	0
 2698 02e5 00       		.byte	0
 2699 02e6 36       		.uleb128 0x36
 2700 02e7 2E       		.uleb128 0x2e
 2701 02e8 01       		.byte	0x1
 2702 02e9 3F       		.uleb128 0x3f
 2703 02ea 19       		.uleb128 0x19
 2704 02eb 03       		.uleb128 0x3
 2705 02ec 0E       		.uleb128 0xe
 2706 02ed 3A       		.uleb128 0x3a
 2707 02ee 0B       		.uleb128 0xb
 2708 02ef 3B       		.uleb128 0x3b
 2709 02f0 05       		.uleb128 0x5
 2710 02f1 27       		.uleb128 0x27
 2711 02f2 19       		.uleb128 0x19
 2712 02f3 3C       		.uleb128 0x3c
 2713 02f4 19       		.uleb128 0x19
 2714 02f5 01       		.uleb128 0x1
 2715 02f6 13       		.uleb128 0x13
 2716 02f7 00       		.byte	0
 2717 02f8 00       		.byte	0
 2718 02f9 37       		.uleb128 0x37
 2719 02fa 2E       		.uleb128 0x2e
 2720 02fb 01       		.byte	0x1
 2721 02fc 3F       		.uleb128 0x3f
 2722 02fd 19       		.uleb128 0x19
 2723 02fe 03       		.uleb128 0x3
 2724 02ff 0E       		.uleb128 0xe
 2725 0300 3A       		.uleb128 0x3a
 2726 0301 0B       		.uleb128 0xb
 2727 0302 3B       		.uleb128 0x3b
 2728 0303 0B       		.uleb128 0xb
 2729 0304 27       		.uleb128 0x27
 2730 0305 19       		.uleb128 0x19
 2731 0306 3C       		.uleb128 0x3c
 2732 0307 19       		.uleb128 0x19
 2733 0308 01       		.uleb128 0x1
 2734 0309 13       		.uleb128 0x13
 2735 030a 00       		.byte	0
 2736 030b 00       		.byte	0
ARM GAS  /tmp/ccInfMW2.s 			page 49


 2737 030c 38       		.uleb128 0x38
 2738 030d 2E       		.uleb128 0x2e
 2739 030e 01       		.byte	0x1
 2740 030f 3F       		.uleb128 0x3f
 2741 0310 19       		.uleb128 0x19
 2742 0311 03       		.uleb128 0x3
 2743 0312 0E       		.uleb128 0xe
 2744 0313 3A       		.uleb128 0x3a
 2745 0314 0B       		.uleb128 0xb
 2746 0315 3B       		.uleb128 0x3b
 2747 0316 0B       		.uleb128 0xb
 2748 0317 27       		.uleb128 0x27
 2749 0318 19       		.uleb128 0x19
 2750 0319 3C       		.uleb128 0x3c
 2751 031a 19       		.uleb128 0x19
 2752 031b 00       		.byte	0
 2753 031c 00       		.byte	0
 2754 031d 00       		.byte	0
 2755              		.section	.debug_loc,"",%progbits
 2756              	.Ldebug_loc0:
 2757              	.LLST0:
 2758 0000 58000000 		.4byte	.LVL1
 2759 0004 68000000 		.4byte	.LVL2
 2760 0008 0100     		.2byte	0x1
 2761 000a 50       		.byte	0x50
 2762 000b 00000000 		.4byte	0
 2763 000f 00000000 		.4byte	0
 2764              	.LLST1:
 2765 0013 7C000000 		.4byte	.LVL3
 2766 0017 A4000000 		.4byte	.LVL6
 2767 001b 0100     		.2byte	0x1
 2768 001d 50       		.byte	0x50
 2769 001e 00000000 		.4byte	0
 2770 0022 00000000 		.4byte	0
 2771              	.LLST2:
 2772 0026 80000000 		.4byte	.LVL4
 2773 002a A4000000 		.4byte	.LVL6
 2774 002e 0600     		.2byte	0x6
 2775 0030 03       		.byte	0x3
 2776 0031 00000000 		.4byte	rlist
 2777 0035 9F       		.byte	0x9f
 2778 0036 00000000 		.4byte	0
 2779 003a 00000000 		.4byte	0
 2780              	.LLST3:
 2781 003e 80000000 		.4byte	.LVL4
 2782 0042 A4000000 		.4byte	.LVL6
 2783 0046 0100     		.2byte	0x1
 2784 0048 50       		.byte	0x50
 2785 0049 00000000 		.4byte	0
 2786 004d 00000000 		.4byte	0
 2787              	.LLST4:
 2788 0051 80000000 		.4byte	.LVL4
 2789 0055 A4000000 		.4byte	.LVL6
 2790 0059 0100     		.2byte	0x1
 2791 005b 53       		.byte	0x53
 2792 005c 00000000 		.4byte	0
 2793 0060 00000000 		.4byte	0
ARM GAS  /tmp/ccInfMW2.s 			page 50


 2794              	.LLST5:
 2795 0064 00000000 		.4byte	.LVL7
 2796 0068 2C000000 		.4byte	.LVL10
 2797 006c 0100     		.2byte	0x1
 2798 006e 50       		.byte	0x50
 2799 006f 2C000000 		.4byte	.LVL10
 2800 0073 44000000 		.4byte	.LFE8
 2801 0077 0100     		.2byte	0x1
 2802 0079 5C       		.byte	0x5c
 2803 007a 00000000 		.4byte	0
 2804 007e 00000000 		.4byte	0
 2805              	.LLST6:
 2806 0082 00000000 		.4byte	.LVL11
 2807 0086 30000000 		.4byte	.LVL14
 2808 008a 0100     		.2byte	0x1
 2809 008c 50       		.byte	0x50
 2810 008d 30000000 		.4byte	.LVL14
 2811 0091 44000000 		.4byte	.LFE9
 2812 0095 0400     		.2byte	0x4
 2813 0097 F3       		.byte	0xf3
 2814 0098 01       		.uleb128 0x1
 2815 0099 50       		.byte	0x50
 2816 009a 9F       		.byte	0x9f
 2817 009b 00000000 		.4byte	0
 2818 009f 00000000 		.4byte	0
 2819              	.LLST7:
 2820 00a3 18000000 		.4byte	.LVL12
 2821 00a7 3F000000 		.4byte	.LVL15-1
 2822 00ab 0100     		.2byte	0x1
 2823 00ad 51       		.byte	0x51
 2824 00ae 00000000 		.4byte	0
 2825 00b2 00000000 		.4byte	0
 2826              	.LLST8:
 2827 00b6 24000000 		.4byte	.LVL13
 2828 00ba 3F000000 		.4byte	.LVL15-1
 2829 00be 0100     		.2byte	0x1
 2830 00c0 52       		.byte	0x52
 2831 00c1 00000000 		.4byte	0
 2832 00c5 00000000 		.4byte	0
 2833              	.LLST9:
 2834 00c9 00000000 		.4byte	.LVL16
 2835 00cd 1C000000 		.4byte	.LVL17
 2836 00d1 0100     		.2byte	0x1
 2837 00d3 50       		.byte	0x50
 2838 00d4 1C000000 		.4byte	.LVL17
 2839 00d8 54000000 		.4byte	.LVL21
 2840 00dc 0400     		.2byte	0x4
 2841 00de F3       		.byte	0xf3
 2842 00df 01       		.uleb128 0x1
 2843 00e0 50       		.byte	0x50
 2844 00e1 9F       		.byte	0x9f
 2845 00e2 54000000 		.4byte	.LVL21
 2846 00e6 57000000 		.4byte	.LVL22-1
 2847 00ea 0100     		.2byte	0x1
 2848 00ec 50       		.byte	0x50
 2849 00ed 57000000 		.4byte	.LVL22-1
 2850 00f1 74000000 		.4byte	.LFE11
ARM GAS  /tmp/ccInfMW2.s 			page 51


 2851 00f5 0400     		.2byte	0x4
 2852 00f7 F3       		.byte	0xf3
 2853 00f8 01       		.uleb128 0x1
 2854 00f9 50       		.byte	0x50
 2855 00fa 9F       		.byte	0x9f
 2856 00fb 00000000 		.4byte	0
 2857 00ff 00000000 		.4byte	0
 2858              	.LLST10:
 2859 0103 00000000 		.4byte	.LVL16
 2860 0107 27000000 		.4byte	.LVL18-1
 2861 010b 0100     		.2byte	0x1
 2862 010d 51       		.byte	0x51
 2863 010e 27000000 		.4byte	.LVL18-1
 2864 0112 54000000 		.4byte	.LVL21
 2865 0116 0400     		.2byte	0x4
 2866 0118 F3       		.byte	0xf3
 2867 0119 01       		.uleb128 0x1
 2868 011a 51       		.byte	0x51
 2869 011b 9F       		.byte	0x9f
 2870 011c 54000000 		.4byte	.LVL21
 2871 0120 57000000 		.4byte	.LVL22-1
 2872 0124 0100     		.2byte	0x1
 2873 0126 51       		.byte	0x51
 2874 0127 57000000 		.4byte	.LVL22-1
 2875 012b 74000000 		.4byte	.LFE11
 2876 012f 0400     		.2byte	0x4
 2877 0131 F3       		.byte	0xf3
 2878 0132 01       		.uleb128 0x1
 2879 0133 51       		.byte	0x51
 2880 0134 9F       		.byte	0x9f
 2881 0135 00000000 		.4byte	0
 2882 0139 00000000 		.4byte	0
 2883              	.LLST11:
 2884 013d 00000000 		.4byte	.LVL23
 2885 0141 1C000000 		.4byte	.LVL24
 2886 0145 0100     		.2byte	0x1
 2887 0147 50       		.byte	0x50
 2888 0148 1C000000 		.4byte	.LVL24
 2889 014c 98000000 		.4byte	.LVL32
 2890 0150 0100     		.2byte	0x1
 2891 0152 5E       		.byte	0x5e
 2892 0153 98000000 		.4byte	.LVL32
 2893 0157 9B000000 		.4byte	.LVL33-1
 2894 015b 0100     		.2byte	0x1
 2895 015d 50       		.byte	0x50
 2896 015e 9B000000 		.4byte	.LVL33-1
 2897 0162 A0000000 		.4byte	.LFE12
 2898 0166 0400     		.2byte	0x4
 2899 0168 F3       		.byte	0xf3
 2900 0169 01       		.uleb128 0x1
 2901 016a 50       		.byte	0x50
 2902 016b 9F       		.byte	0x9f
 2903 016c 00000000 		.4byte	0
 2904 0170 00000000 		.4byte	0
 2905              	.LLST12:
 2906 0174 00000000 		.4byte	.LVL23
 2907 0178 58000000 		.4byte	.LVL29
ARM GAS  /tmp/ccInfMW2.s 			page 52


 2908 017c 0100     		.2byte	0x1
 2909 017e 51       		.byte	0x51
 2910 017f 58000000 		.4byte	.LVL29
 2911 0183 98000000 		.4byte	.LVL32
 2912 0187 0200     		.2byte	0x2
 2913 0189 7E       		.byte	0x7e
 2914 018a 24       		.sleb128 36
 2915 018b 98000000 		.4byte	.LVL32
 2916 018f 9B000000 		.4byte	.LVL33-1
 2917 0193 0200     		.2byte	0x2
 2918 0195 70       		.byte	0x70
 2919 0196 24       		.sleb128 36
 2920 0197 9B000000 		.4byte	.LVL33-1
 2921 019b A0000000 		.4byte	.LFE12
 2922 019f 0400     		.2byte	0x4
 2923 01a1 F3       		.byte	0xf3
 2924 01a2 01       		.uleb128 0x1
 2925 01a3 51       		.byte	0x51
 2926 01a4 9F       		.byte	0x9f
 2927 01a5 00000000 		.4byte	0
 2928 01a9 00000000 		.4byte	0
 2929              	.LLST13:
 2930 01ad 24000000 		.4byte	.LVL25
 2931 01b1 54000000 		.4byte	.LVL28
 2932 01b5 0100     		.2byte	0x1
 2933 01b7 5E       		.byte	0x5e
 2934 01b8 00000000 		.4byte	0
 2935 01bc 00000000 		.4byte	0
 2936              	.LLST14:
 2937 01c0 2C000000 		.4byte	.LVL26
 2938 01c4 54000000 		.4byte	.LVL28
 2939 01c8 0100     		.2byte	0x1
 2940 01ca 53       		.byte	0x53
 2941 01cb 00000000 		.4byte	0
 2942 01cf 00000000 		.4byte	0
 2943              	.LLST15:
 2944 01d3 54000000 		.4byte	.LVL28
 2945 01d7 98000000 		.4byte	.LVL32
 2946 01db 0100     		.2byte	0x1
 2947 01dd 54       		.byte	0x54
 2948 01de 98000000 		.4byte	.LVL32
 2949 01e2 9B000000 		.4byte	.LVL33-1
 2950 01e6 0100     		.2byte	0x1
 2951 01e8 51       		.byte	0x51
 2952 01e9 00000000 		.4byte	0
 2953 01ed 00000000 		.4byte	0
 2954              	.LLST16:
 2955 01f1 60000000 		.4byte	.LVL30
 2956 01f5 9B000000 		.4byte	.LVL33-1
 2957 01f9 0100     		.2byte	0x1
 2958 01fb 52       		.byte	0x52
 2959 01fc 00000000 		.4byte	0
 2960 0200 00000000 		.4byte	0
 2961              	.LLST17:
 2962 0204 1C000000 		.4byte	.LVL35
 2963 0208 28000000 		.4byte	.LVL36
 2964 020c 0100     		.2byte	0x1
ARM GAS  /tmp/ccInfMW2.s 			page 53


 2965 020e 50       		.byte	0x50
 2966 020f 28000000 		.4byte	.LVL36
 2967 0213 30000000 		.4byte	.LVL37
 2968 0217 0200     		.2byte	0x2
 2969 0219 72       		.byte	0x72
 2970 021a 08       		.sleb128 8
 2971 021b 30000000 		.4byte	.LVL37
 2972 021f 38000000 		.4byte	.LVL38
 2973 0223 0100     		.2byte	0x1
 2974 0225 50       		.byte	0x50
 2975 0226 38000000 		.4byte	.LVL38
 2976 022a 44000000 		.4byte	.LFE14
 2977 022e 0200     		.2byte	0x2
 2978 0230 72       		.byte	0x72
 2979 0231 08       		.sleb128 8
 2980 0232 00000000 		.4byte	0
 2981 0236 00000000 		.4byte	0
 2982              	.LLST18:
 2983 023a 1C000000 		.4byte	.LVL39
 2984 023e 73000000 		.4byte	.LVL44-1
 2985 0242 0100     		.2byte	0x1
 2986 0244 5C       		.byte	0x5c
 2987 0245 00000000 		.4byte	0
 2988 0249 00000000 		.4byte	0
 2989              	.LLST19:
 2990 024d 3C000000 		.4byte	.LVL40
 2991 0251 73000000 		.4byte	.LVL44-1
 2992 0255 0100     		.2byte	0x1
 2993 0257 5C       		.byte	0x5c
 2994 0258 00000000 		.4byte	0
 2995 025c 00000000 		.4byte	0
 2996              	.LLST20:
 2997 0260 40000000 		.4byte	.LVL41
 2998 0264 44000000 		.4byte	.LVL42
 2999 0268 0600     		.2byte	0x6
 3000 026a 03       		.byte	0x3
 3001 026b 00000000 		.4byte	rlist
 3002 026f 9F       		.byte	0x9f
 3003 0270 44000000 		.4byte	.LVL42
 3004 0274 73000000 		.4byte	.LVL44-1
 3005 0278 0100     		.2byte	0x1
 3006 027a 53       		.byte	0x53
 3007 027b 00000000 		.4byte	0
 3008 027f 00000000 		.4byte	0
 3009              	.LLST21:
 3010 0283 1C000000 		.4byte	.LVL39
 3011 0287 73000000 		.4byte	.LVL44-1
 3012 028b 0100     		.2byte	0x1
 3013 028d 50       		.byte	0x50
 3014 028e 00000000 		.4byte	0
 3015 0292 00000000 		.4byte	0
 3016              	.LLST22:
 3017 0296 18000000 		.4byte	.LVL45
 3018 029a 6B000000 		.4byte	.LVL49-1
 3019 029e 0100     		.2byte	0x1
 3020 02a0 5C       		.byte	0x5c
 3021 02a1 00000000 		.4byte	0
ARM GAS  /tmp/ccInfMW2.s 			page 54


 3022 02a5 00000000 		.4byte	0
 3023              	.LLST23:
 3024 02a9 38000000 		.4byte	.LVL46
 3025 02ad 3C000000 		.4byte	.LVL47
 3026 02b1 0600     		.2byte	0x6
 3027 02b3 03       		.byte	0x3
 3028 02b4 00000000 		.4byte	rlist
 3029 02b8 9F       		.byte	0x9f
 3030 02b9 3C000000 		.4byte	.LVL47
 3031 02bd 6B000000 		.4byte	.LVL49-1
 3032 02c1 0100     		.2byte	0x1
 3033 02c3 53       		.byte	0x53
 3034 02c4 00000000 		.4byte	0
 3035 02c8 00000000 		.4byte	0
 3036              	.LLST24:
 3037 02cc 18000000 		.4byte	.LVL45
 3038 02d0 6B000000 		.4byte	.LVL49-1
 3039 02d4 0100     		.2byte	0x1
 3040 02d6 50       		.byte	0x50
 3041 02d7 00000000 		.4byte	0
 3042 02db 00000000 		.4byte	0
 3043              		.section	.debug_aranges,"",%progbits
 3044 0000 6C000000 		.4byte	0x6c
 3045 0004 0200     		.2byte	0x2
 3046 0006 00000000 		.4byte	.Ldebug_info0
 3047 000a 04       		.byte	0x4
 3048 000b 00       		.byte	0
 3049 000c 0000     		.2byte	0
 3050 000e 0000     		.2byte	0
 3051 0010 00000000 		.4byte	.LFB10
 3052 0014 AC000000 		.4byte	.LFE10-.LFB10
 3053 0018 00000000 		.4byte	.LFB7
 3054 001c 24000000 		.4byte	.LFE7-.LFB7
 3055 0020 00000000 		.4byte	.LFB8
 3056 0024 44000000 		.4byte	.LFE8-.LFB8
 3057 0028 00000000 		.4byte	.LFB9
 3058 002c 44000000 		.4byte	.LFE9-.LFB9
 3059 0030 00000000 		.4byte	.LFB11
 3060 0034 74000000 		.4byte	.LFE11-.LFB11
 3061 0038 00000000 		.4byte	.LFB12
 3062 003c A0000000 		.4byte	.LFE12-.LFB12
 3063 0040 00000000 		.4byte	.LFB14
 3064 0044 44000000 		.4byte	.LFE14-.LFB14
 3065 0048 00000000 		.4byte	.LFB15
 3066 004c 78000000 		.4byte	.LFE15-.LFB15
 3067 0050 00000000 		.4byte	.LFB16
 3068 0054 70000000 		.4byte	.LFE16-.LFB16
 3069 0058 00000000 		.4byte	.LFB13
 3070 005c 24000000 		.4byte	.LFE13-.LFB13
 3071 0060 00000000 		.4byte	.LFB17
 3072 0064 20000000 		.4byte	.LFE17-.LFB17
 3073 0068 00000000 		.4byte	0
 3074 006c 00000000 		.4byte	0
 3075              		.section	.debug_ranges,"",%progbits
 3076              	.Ldebug_ranges0:
 3077 0000 6C000000 		.4byte	.LBB35
 3078 0004 74000000 		.4byte	.LBE35
ARM GAS  /tmp/ccInfMW2.s 			page 55


 3079 0008 7C000000 		.4byte	.LBB45
 3080 000c 80000000 		.4byte	.LBE45
 3081 0010 00000000 		.4byte	0
 3082 0014 00000000 		.4byte	0
 3083 0018 74000000 		.4byte	.LBB38
 3084 001c 78000000 		.4byte	.LBE38
 3085 0020 80000000 		.4byte	.LBB46
 3086 0024 AC000000 		.4byte	.LBE46
 3087 0028 00000000 		.4byte	0
 3088 002c 00000000 		.4byte	0
 3089 0030 10000000 		.4byte	.LBB47
 3090 0034 14000000 		.4byte	.LBE47
 3091 0038 18000000 		.4byte	.LBB52
 3092 003c 1C000000 		.4byte	.LBE52
 3093 0040 24000000 		.4byte	.LBB53
 3094 0044 28000000 		.4byte	.LBE53
 3095 0048 34000000 		.4byte	.LBB54
 3096 004c 38000000 		.4byte	.LBE54
 3097 0050 00000000 		.4byte	0
 3098 0054 00000000 		.4byte	0
 3099 0058 54000000 		.4byte	.LBB58
 3100 005c 94000000 		.4byte	.LBE58
 3101 0060 98000000 		.4byte	.LBB65
 3102 0064 A0000000 		.4byte	.LBE65
 3103 0068 00000000 		.4byte	0
 3104 006c 00000000 		.4byte	0
 3105 0070 54000000 		.4byte	.LBB59
 3106 0074 70000000 		.4byte	.LBE59
 3107 0078 74000000 		.4byte	.LBB63
 3108 007c 78000000 		.4byte	.LBE63
 3109 0080 7C000000 		.4byte	.LBB64
 3110 0084 88000000 		.4byte	.LBE64
 3111 0088 00000000 		.4byte	0
 3112 008c 00000000 		.4byte	0
 3113 0090 0C000000 		.4byte	.LBB66
 3114 0094 10000000 		.4byte	.LBE66
 3115 0098 24000000 		.4byte	.LBB76
 3116 009c 28000000 		.4byte	.LBE76
 3117 00a0 3C000000 		.4byte	.LBB78
 3118 00a4 58000000 		.4byte	.LBE78
 3119 00a8 60000000 		.4byte	.LBB79
 3120 00ac 70000000 		.4byte	.LBE79
 3121 00b0 00000000 		.4byte	0
 3122 00b4 00000000 		.4byte	0
 3123 00b8 14000000 		.4byte	.LBB71
 3124 00bc 18000000 		.4byte	.LBE71
 3125 00c0 1C000000 		.4byte	.LBB75
 3126 00c4 24000000 		.4byte	.LBE75
 3127 00c8 28000000 		.4byte	.LBB77
 3128 00cc 30000000 		.4byte	.LBE77
 3129 00d0 00000000 		.4byte	0
 3130 00d4 00000000 		.4byte	0
 3131 00d8 10000000 		.4byte	.LBB80
 3132 00dc 14000000 		.4byte	.LBE80
 3133 00e0 18000000 		.4byte	.LBB84
 3134 00e4 20000000 		.4byte	.LBE84
 3135 00e8 24000000 		.4byte	.LBB85
ARM GAS  /tmp/ccInfMW2.s 			page 56


 3136 00ec 2C000000 		.4byte	.LBE85
 3137 00f0 00000000 		.4byte	0
 3138 00f4 00000000 		.4byte	0
 3139 00f8 00000000 		.4byte	.LFB10
 3140 00fc AC000000 		.4byte	.LFE10
 3141 0100 00000000 		.4byte	.LFB7
 3142 0104 24000000 		.4byte	.LFE7
 3143 0108 00000000 		.4byte	.LFB8
 3144 010c 44000000 		.4byte	.LFE8
 3145 0110 00000000 		.4byte	.LFB9
 3146 0114 44000000 		.4byte	.LFE9
 3147 0118 00000000 		.4byte	.LFB11
 3148 011c 74000000 		.4byte	.LFE11
 3149 0120 00000000 		.4byte	.LFB12
 3150 0124 A0000000 		.4byte	.LFE12
 3151 0128 00000000 		.4byte	.LFB14
 3152 012c 44000000 		.4byte	.LFE14
 3153 0130 00000000 		.4byte	.LFB15
 3154 0134 78000000 		.4byte	.LFE15
 3155 0138 00000000 		.4byte	.LFB16
 3156 013c 70000000 		.4byte	.LFE16
 3157 0140 00000000 		.4byte	.LFB13
 3158 0144 24000000 		.4byte	.LFE13
 3159 0148 00000000 		.4byte	.LFB17
 3160 014c 20000000 		.4byte	.LFE17
 3161 0150 00000000 		.4byte	0
 3162 0154 00000000 		.4byte	0
 3163              		.section	.debug_line,"",%progbits
 3164              	.Ldebug_line0:
 3165 0000 36030000 		.section	.debug_str,"MS",%progbits,1
 3165      02002601 
 3165      00000201 
 3165      FB0E0D00 
 3165      01010101 
 3166              	.LASF40:
 3167 0000 705F6D73 		.ascii	"p_msg\000"
 3167      6700
 3168              	.LASF70:
 3169 0006 7264796D 		.ascii	"rdymsg\000"
 3169      736700
 3170              	.LASF85:
 3171 000d 63685363 		.ascii	"chSchDoRescheduleAhead\000"
 3171      68446F52 
 3171      65736368 
 3171      6564756C 
 3171      65416865 
 3172              	.LASF5:
 3173 0024 5F5F7569 		.ascii	"__uint8_t\000"
 3173      6E74385F 
 3173      7400
 3174              	.LASF11:
 3175 002e 6C6F6E67 		.ascii	"long long unsigned int\000"
 3175      206C6F6E 
 3175      6720756E 
 3175      7369676E 
 3175      65642069 
 3176              	.LASF71:
ARM GAS  /tmp/ccInfMW2.s 			page 57


 3177 0045 65786974 		.ascii	"exitcode\000"
 3177      636F6465 
 3177      00
 3178              	.LASF28:
 3179 004e 705F7072 		.ascii	"p_prio\000"
 3179      696F00
 3180              	.LASF95:
 3181 0055 5F736368 		.ascii	"_scheduler_init\000"
 3181      6564756C 
 3181      65725F69 
 3181      6E697400 
 3182              	.LASF10:
 3183 0065 6C6F6E67 		.ascii	"long long int\000"
 3183      206C6F6E 
 3183      6720696E 
 3183      7400
 3184              	.LASF1:
 3185 0073 7369676E 		.ascii	"signed char\000"
 3185      65642063 
 3185      68617200 
 3186              	.LASF15:
 3187 007f 626F6F6C 		.ascii	"bool_t\000"
 3187      5F7400
 3188              	.LASF67:
 3189 0086 6D5F7175 		.ascii	"m_queue\000"
 3189      65756500 
 3190              	.LASF19:
 3191 008e 74736C69 		.ascii	"tslices_t\000"
 3191      6365735F 
 3191      7400
 3192              	.LASF7:
 3193 0098 6C6F6E67 		.ascii	"long int\000"
 3193      20696E74 
 3193      00
 3194              	.LASF17:
 3195 00a1 74737461 		.ascii	"tstate_t\000"
 3195      74655F74 
 3195      00
 3196              	.LASF83:
 3197 00aa 63685363 		.ascii	"chSchIsPreemptionRequired\000"
 3197      68497350 
 3197      7265656D 
 3197      7074696F 
 3197      6E526571 
 3198              	.LASF30:
 3199 00c4 705F6E65 		.ascii	"p_newer\000"
 3199      77657200 
 3200              	.LASF64:
 3201 00cc 735F7175 		.ascii	"s_queue\000"
 3201      65756500 
 3202              	.LASF86:
 3203 00d4 63685363 		.ascii	"chSchRescheduleS\000"
 3203      68526573 
 3203      63686564 
 3203      756C6553 
 3203      00
 3204              	.LASF8:
ARM GAS  /tmp/ccInfMW2.s 			page 58


 3205 00e5 5F5F7569 		.ascii	"__uint32_t\000"
 3205      6E743332 
 3205      5F7400
 3206              	.LASF46:
 3207 00f0 72656761 		.ascii	"regarm_t\000"
 3207      726D5F74 
 3207      00
 3208              	.LASF52:
 3209 00f9 76745F70 		.ascii	"vt_prev\000"
 3209      72657600 
 3210              	.LASF87:
 3211 0101 63685363 		.ascii	"chSchDoReschedule\000"
 3211      68446F52 
 3211      65736368 
 3211      6564756C 
 3211      6500
 3212              	.LASF24:
 3213 0113 636E745F 		.ascii	"cnt_t\000"
 3213      7400
 3214              	.LASF0:
 3215 0119 756E7369 		.ascii	"unsigned int\000"
 3215      676E6564 
 3215      20696E74 
 3215      00
 3216              	.LASF94:
 3217 0126 77616B65 		.ascii	"wakeup\000"
 3217      757000
 3218              	.LASF51:
 3219 012d 76745F6E 		.ascii	"vt_next\000"
 3219      65787400 
 3220              	.LASF88:
 3221 0135 5F706F72 		.ascii	"_port_switch_arm\000"
 3221      745F7377 
 3221      69746368 
 3221      5F61726D 
 3221      00
 3222              	.LASF9:
 3223 0146 6C6F6E67 		.ascii	"long unsigned int\000"
 3223      20756E73 
 3223      69676E65 
 3223      6420696E 
 3223      7400
 3224              	.LASF49:
 3225 0158 76746675 		.ascii	"vtfunc_t\000"
 3225      6E635F74 
 3225      00
 3226              	.LASF65:
 3227 0161 735F636E 		.ascii	"s_cnt\000"
 3227      7400
 3228              	.LASF48:
 3229 0167 636F6E74 		.ascii	"context\000"
 3229      65787400 
 3230              	.LASF4:
 3231 016f 73686F72 		.ascii	"short unsigned int\000"
 3231      7420756E 
 3231      7369676E 
 3231      65642069 
ARM GAS  /tmp/ccInfMW2.s 			page 59


 3231      6E7400
 3232              	.LASF81:
 3233 0182 63685363 		.ascii	"chSchWakeupS\000"
 3233      6857616B 
 3233      65757053 
 3233      00
 3234              	.LASF21:
 3235 018f 6D73675F 		.ascii	"msg_t\000"
 3235      7400
 3236              	.LASF59:
 3237 0195 725F6E65 		.ascii	"r_newer\000"
 3237      77657200 
 3238              	.LASF16:
 3239 019d 746D6F64 		.ascii	"tmode_t\000"
 3239      655F7400 
 3240              	.LASF45:
 3241 01a5 54687265 		.ascii	"ThreadsList\000"
 3241      6164734C 
 3241      69737400 
 3242              	.LASF22:
 3243 01b1 6576656E 		.ascii	"eventmask_t\000"
 3243      746D6173 
 3243      6B5F7400 
 3244              	.LASF66:
 3245 01bd 4D757465 		.ascii	"Mutex\000"
 3245      7800
 3246              	.LASF53:
 3247 01c3 76745F74 		.ascii	"vt_time\000"
 3247      696D6500 
 3248              	.LASF75:
 3249 01cb 73697A65 		.ascii	"sizetype\000"
 3249      74797065 
 3249      00
 3250              	.LASF54:
 3251 01d4 76745F66 		.ascii	"vt_func\000"
 3251      756E6300 
 3252              	.LASF84:
 3253 01dc 63685363 		.ascii	"chSchDoRescheduleBehind\000"
 3253      68446F52 
 3253      65736368 
 3253      6564756C 
 3253      65426568 
 3254              	.LASF89:
 3255 01f4 63685654 		.ascii	"chVTSetI\000"
 3255      53657449 
 3255      00
 3256              	.LASF31:
 3257 01fd 705F6F6C 		.ascii	"p_older\000"
 3257      64657200 
 3258              	.LASF58:
 3259 0205 725F6374 		.ascii	"r_ctx\000"
 3259      7800
 3260              	.LASF44:
 3261 020b 54687265 		.ascii	"ThreadsQueue\000"
 3261      61647351 
 3261      75657565 
 3261      00
ARM GAS  /tmp/ccInfMW2.s 			page 60


 3262              	.LASF76:
 3263 0218 64657175 		.ascii	"dequeue\000"
 3263      65756500 
 3264              	.LASF61:
 3265 0220 725F6375 		.ascii	"r_current\000"
 3265      7272656E 
 3265      7400
 3266              	.LASF60:
 3267 022a 725F6F6C 		.ascii	"r_older\000"
 3267      64657200 
 3268              	.LASF18:
 3269 0232 74726566 		.ascii	"trefs_t\000"
 3269      735F7400 
 3270              	.LASF27:
 3271 023a 705F7072 		.ascii	"p_prev\000"
 3271      657600
 3272              	.LASF20:
 3273 0241 74707269 		.ascii	"tprio_t\000"
 3273      6F5F7400 
 3274              	.LASF13:
 3275 0249 696E7433 		.ascii	"int32_t\000"
 3275      325F7400 
 3276              	.LASF2:
 3277 0251 756E7369 		.ascii	"unsigned char\000"
 3277      676E6564 
 3277      20636861 
 3277      7200
 3278              	.LASF78:
 3279 025f 6E657773 		.ascii	"newstate\000"
 3279      74617465 
 3279      00
 3280              	.LASF42:
 3281 0268 705F6D74 		.ascii	"p_mtxlist\000"
 3281      786C6973 
 3281      7400
 3282              	.LASF3:
 3283 0272 73686F72 		.ascii	"short int\000"
 3283      7420696E 
 3283      7400
 3284              	.LASF33:
 3285 027c 705F7374 		.ascii	"p_state\000"
 3285      61746500 
 3286              	.LASF36:
 3287 0284 705F7072 		.ascii	"p_preempt\000"
 3287      65656D70 
 3287      7400
 3288              	.LASF57:
 3289 028e 725F7072 		.ascii	"r_prio\000"
 3289      696F00
 3290              	.LASF73:
 3291 0295 65776D61 		.ascii	"ewmask\000"
 3291      736B00
 3292              	.LASF26:
 3293 029c 705F6E65 		.ascii	"p_next\000"
 3293      787400
 3294              	.LASF34:
 3295 02a3 705F666C 		.ascii	"p_flags\000"
ARM GAS  /tmp/ccInfMW2.s 			page 61


 3295      61677300 
 3296              	.LASF25:
 3297 02ab 54687265 		.ascii	"Thread\000"
 3297      616400
 3298              	.LASF97:
 3299 02b2 63685654 		.ascii	"chVTResetI\000"
 3299      52657365 
 3299      744900
 3300              	.LASF80:
 3301 02bd 63685363 		.ascii	"chSchGoSleepS\000"
 3301      68476F53 
 3301      6C656570 
 3301      5300
 3302              	.LASF41:
 3303 02cb 705F6570 		.ascii	"p_epending\000"
 3303      656E6469 
 3303      6E6700
 3304              	.LASF63:
 3305 02d6 53656D61 		.ascii	"Semaphore\000"
 3305      70686F72 
 3305      6500
 3306              	.LASF14:
 3307 02e0 75696E74 		.ascii	"uint32_t\000"
 3307      33325F74 
 3307      00
 3308              	.LASF56:
 3309 02e9 725F7175 		.ascii	"r_queue\000"
 3309      65756500 
 3310              	.LASF50:
 3311 02f1 56697274 		.ascii	"VirtualTimer\000"
 3311      75616C54 
 3311      696D6572 
 3311      00
 3312              	.LASF74:
 3313 02fe 63686172 		.ascii	"char\000"
 3313      00
 3314              	.LASF77:
 3315 0303 6669666F 		.ascii	"fifo_remove\000"
 3315      5F72656D 
 3315      6F766500 
 3316              	.LASF93:
 3317 030f 63685363 		.ascii	"chSchReadyI\000"
 3317      68526561 
 3317      64794900 
 3318              	.LASF69:
 3319 031b 6D5F6E65 		.ascii	"m_next\000"
 3319      787400
 3320              	.LASF23:
 3321 0322 73797374 		.ascii	"systime_t\000"
 3321      696D655F 
 3321      7400
 3322              	.LASF43:
 3323 032c 705F7265 		.ascii	"p_realprio\000"
 3323      616C7072 
 3323      696F00
 3324              	.LASF6:
 3325 0337 5F5F696E 		.ascii	"__int32_t\000"
ARM GAS  /tmp/ccInfMW2.s 			page 62


 3325      7433325F 
 3325      7400
 3326              	.LASF37:
 3327 0341 705F7469 		.ascii	"p_time\000"
 3327      6D6500
 3328              	.LASF47:
 3329 0348 696E7463 		.ascii	"intctx\000"
 3329      747800
 3330              	.LASF39:
 3331 034f 705F6D73 		.ascii	"p_msgqueue\000"
 3331      67717565 
 3331      756500
 3332              	.LASF79:
 3333 035a 74696D65 		.ascii	"time\000"
 3333      00
 3334              	.LASF55:
 3335 035f 76745F70 		.ascii	"vt_par\000"
 3335      617200
 3336              	.LASF92:
 3337 0366 2F686F6D 		.ascii	"/home/hunter/development/chibi/ChibiOS-RPi/demos/AR"
 3337      652F6875 
 3337      6E746572 
 3337      2F646576 
 3337      656C6F70 
 3338 0399 4D31312D 		.ascii	"M11-BCM2835-GCC\000"
 3338      42434D32 
 3338      3833352D 
 3338      47434300 
 3339              	.LASF35:
 3340 03a9 705F7265 		.ascii	"p_refs\000"
 3340      667300
 3341              	.LASF62:
 3342 03b0 52656164 		.ascii	"ReadyList\000"
 3342      794C6973 
 3342      7400
 3343              	.LASF91:
 3344 03ba 2E2E2F2E 		.ascii	"../../os/kernel/src/chschd.c\000"
 3344      2E2F6F73 
 3344      2F6B6572 
 3344      6E656C2F 
 3344      7372632F 
 3345              	.LASF96:
 3346 03d7 726C6973 		.ascii	"rlist\000"
 3346      7400
 3347              	.LASF12:
 3348 03dd 75696E74 		.ascii	"uint8_t\000"
 3348      385F7400 
 3349              	.LASF72:
 3350 03e5 77746F62 		.ascii	"wtobjp\000"
 3350      6A7000
 3351              	.LASF32:
 3352 03ec 705F6E61 		.ascii	"p_name\000"
 3352      6D6500
 3353              	.LASF90:
 3354 03f3 474E5520 		.ascii	"GNU C 4.9.3 20150529 (prerelease) -mcpu=arm1176jz-s"
 3354      4320342E 
 3354      392E3320 
ARM GAS  /tmp/ccInfMW2.s 			page 63


 3354      32303135 
 3354      30353239 
 3355 0426 202D6D6E 		.ascii	" -mno-thumb-interwork -ggdb -O2 -fomit-frame-pointe"
 3355      6F2D7468 
 3355      756D622D 
 3355      696E7465 
 3355      72776F72 
 3356 0459 72202D66 		.ascii	"r -ffunction-sections -fdata-sections\000"
 3356      66756E63 
 3356      74696F6E 
 3356      2D736563 
 3356      74696F6E 
 3357              	.LASF82:
 3358 047f 63685363 		.ascii	"chSchGoSleepTimeoutS\000"
 3358      68476F53 
 3358      6C656570 
 3358      54696D65 
 3358      6F757453 
 3359              	.LASF68:
 3360 0494 6D5F6F77 		.ascii	"m_owner\000"
 3360      6E657200 
 3361              	.LASF29:
 3362 049c 705F6374 		.ascii	"p_ctx\000"
 3362      7800
 3363              	.LASF38:
 3364 04a2 705F7761 		.ascii	"p_waiting\000"
 3364      6974696E 
 3364      6700
 3365              		.ident	"GCC: (15:4.9.3+svn231177-1) 4.9.3 20150529 (prerelease)"
ARM GAS  /tmp/ccInfMW2.s 			page 64


DEFINED SYMBOLS
                            *ABS*:0000000000000000 chschd.c
     /tmp/ccInfMW2.s:17     .text.wakeup:0000000000000000 $a
     /tmp/ccInfMW2.s:19     .text.wakeup:0000000000000000 wakeup
     /tmp/ccInfMW2.s:34     .text.wakeup:0000000000000010 $d
     /tmp/ccInfMW2.s:50     .text.wakeup:0000000000000048 $a
     /tmp/ccInfMW2.s:125    .text.wakeup:00000000000000a8 $d
                            *COM*:000000000000001c rlist
     /tmp/ccInfMW2.s:134    .text._scheduler_init:0000000000000000 $a
     /tmp/ccInfMW2.s:137    .text._scheduler_init:0000000000000000 _scheduler_init
     /tmp/ccInfMW2.s:160    .text._scheduler_init:0000000000000020 $d
     /tmp/ccInfMW2.s:165    .text.chSchReadyI:0000000000000000 $a
     /tmp/ccInfMW2.s:168    .text.chSchReadyI:0000000000000000 chSchReadyI
     /tmp/ccInfMW2.s:211    .text.chSchReadyI:0000000000000040 $d
     /tmp/ccInfMW2.s:216    .text.chSchGoSleepS:0000000000000000 $a
     /tmp/ccInfMW2.s:219    .text.chSchGoSleepS:0000000000000000 chSchGoSleepS
     /tmp/ccInfMW2.s:286    .text.chSchGoSleepS:0000000000000040 $d
     /tmp/ccInfMW2.s:291    .text.chSchGoSleepTimeoutS:0000000000000000 $a
     /tmp/ccInfMW2.s:294    .text.chSchGoSleepTimeoutS:0000000000000000 chSchGoSleepTimeoutS
     /tmp/ccInfMW2.s:364    .text.chSchGoSleepTimeoutS:000000000000006c $d
     /tmp/ccInfMW2.s:370    .text.chSchWakeupS:0000000000000000 $a
     /tmp/ccInfMW2.s:373    .text.chSchWakeupS:0000000000000000 chSchWakeupS
     /tmp/ccInfMW2.s:490    .text.chSchWakeupS:000000000000009c $d
     /tmp/ccInfMW2.s:496    .text.chSchIsPreemptionRequired:0000000000000000 $a
     /tmp/ccInfMW2.s:499    .text.chSchIsPreemptionRequired:0000000000000000 chSchIsPreemptionRequired
     /tmp/ccInfMW2.s:542    .text.chSchIsPreemptionRequired:0000000000000040 $d
     /tmp/ccInfMW2.s:547    .text.chSchDoRescheduleBehind:0000000000000000 $a
     /tmp/ccInfMW2.s:550    .text.chSchDoRescheduleBehind:0000000000000000 chSchDoRescheduleBehind
     /tmp/ccInfMW2.s:655    .text.chSchDoRescheduleBehind:0000000000000074 $d
     /tmp/ccInfMW2.s:660    .text.chSchDoRescheduleAhead:0000000000000000 $a
     /tmp/ccInfMW2.s:663    .text.chSchDoRescheduleAhead:0000000000000000 chSchDoRescheduleAhead
     /tmp/ccInfMW2.s:745    .text.chSchDoRescheduleAhead:000000000000006c $d
     /tmp/ccInfMW2.s:750    .text.chSchRescheduleS:0000000000000000 $a
     /tmp/ccInfMW2.s:753    .text.chSchRescheduleS:0000000000000000 chSchRescheduleS
     /tmp/ccInfMW2.s:774    .text.chSchRescheduleS:0000000000000020 $d
     /tmp/ccInfMW2.s:779    .text.chSchDoReschedule:0000000000000000 $a
     /tmp/ccInfMW2.s:782    .text.chSchDoReschedule:0000000000000000 chSchDoReschedule
     /tmp/ccInfMW2.s:805    .text.chSchDoReschedule:000000000000001c $d
                     .debug_frame:0000000000000010 $d

UNDEFINED SYMBOLS
_port_switch_arm
chVTSetI
chVTResetI
