ARM GAS  /tmp/ccDT7ei7.s 			page 1


   1              		.cpu arm1176jz-s
   2              		.fpu softvfp
   3              		.eabi_attribute 20, 1
   4              		.eabi_attribute 21, 1
   5              		.eabi_attribute 23, 3
   6              		.eabi_attribute 24, 1
   7              		.eabi_attribute 25, 1
   8              		.eabi_attribute 26, 1
   9              		.eabi_attribute 30, 2
  10              		.eabi_attribute 34, 1
  11              		.eabi_attribute 18, 4
  12              		.file	"hal.c"
  13              		.text
  14              	.Ltext0:
  15              		.cfi_sections	.debug_frame
  16              		.section	.text.halInit,"ax",%progbits
  17              		.align	2
  18              		.global	halInit
  19              		.type	halInit, %function
  20              	halInit:
  21              	.LFB7:
  22              		.file 1 "../../os/hal/src/hal.c"
  23              		.loc 1 61 0
  24              		.cfi_startproc
  25              		@ args = 0, pretend = 0, frame = 0
  26              		@ frame_needed = 0, uses_anonymous_args = 0
  27 0000 08402DE9 		stmfd	sp!, {r3, lr}
  28              		.cfi_def_cfa_offset 8
  29              		.cfi_offset 3, -8
  30              		.cfi_offset 14, -4
  31              		.loc 1 63 0
  32 0004 FEFFFFEB 		bl	hal_lld_init
  33              	.LVL0:
  34              		.loc 1 66 0
  35 0008 FEFFFFEB 		bl	tmInit
  36              	.LVL1:
  37              		.loc 1 69 0
  38 000c 14009FE5 		ldr	r0, .L3
  39 0010 FEFFFFEB 		bl	_pal_lld_init
  40              	.LVL2:
  41              		.loc 1 84 0
  42 0014 FEFFFFEB 		bl	i2cInit
  43              	.LVL3:
  44              		.loc 1 96 0
  45 0018 FEFFFFEB 		bl	sdInit
  46              	.LVL4:
  47              		.loc 1 102 0
  48 001c FEFFFFEB 		bl	spiInit
  49              	.LVL5:
  50              		.loc 1 121 0
  51 0020 0840BDE8 		ldmfd	sp!, {r3, lr}
  52              		.cfi_restore 14
  53              		.cfi_restore 3
  54              		.cfi_def_cfa_offset 0
  55              		.loc 1 120 0
  56 0024 FEFFFFEA 		b	boardInit
  57              	.LVL6:
ARM GAS  /tmp/ccDT7ei7.s 			page 2


  58              	.L4:
  59              		.align	2
  60              	.L3:
  61 0028 00000000 		.word	pal_default_config
  62              		.cfi_endproc
  63              	.LFE7:
  64              		.size	halInit, .-halInit
  65              		.section	.text.halIsCounterWithin,"ax",%progbits
  66              		.align	2
  67              		.global	halIsCounterWithin
  68              		.type	halIsCounterWithin, %function
  69              	halIsCounterWithin:
  70              	.LFB8:
  71              		.loc 1 167 0
  72              		.cfi_startproc
  73              		@ args = 0, pretend = 0, frame = 0
  74              		@ frame_needed = 0, uses_anonymous_args = 0
  75              		@ link register save eliminated.
  76              	.LVL7:
  77              		.loc 1 168 0
  78 0000 44309FE5 		ldr	r3, .L10
  79              		.loc 1 170 0
  80 0004 000051E1 		cmp	r1, r0
  81              		.loc 1 168 0
  82 0008 043093E5 		ldr	r3, [r3, #4]
  83              	.LVL8:
  84              		.loc 1 170 0
  85 000c 0700008A 		bhi	.L9
  86              		.loc 1 171 0 discriminator 2
  87 0010 000053E1 		cmp	r3, r0
  88 0014 0000A033 		movcc	r0, #0
  89              	.LVL9:
  90 0018 0100A023 		movcs	r0, #1
  91              		.loc 1 170 0 discriminator 2
  92 001c 010053E1 		cmp	r3, r1
  93 0020 0010A021 		movcs	r1, r0
  94 0024 01108033 		orrcc	r1, r0, #1
  95              	.LVL10:
  96              		.loc 1 172 0 discriminator 2
  97 0028 0100A0E1 		mov	r0, r1
  98 002c 1EFF2FE1 		bx	lr
  99              	.LVL11:
 100              	.L9:
 101              		.loc 1 170 0 discriminator 1
 102 0030 010053E1 		cmp	r3, r1
 103 0034 0110A033 		movcc	r1, #1
 104              	.LVL12:
 105 0038 0010A023 		movcs	r1, #0
 106 003c 000053E1 		cmp	r3, r0
 107 0040 0010A033 		movcc	r1, #0
 108              		.loc 1 172 0 discriminator 1
 109 0044 0100A0E1 		mov	r0, r1
 110              	.LVL13:
 111 0048 1EFF2FE1 		bx	lr
 112              	.L11:
 113              		.align	2
 114              	.L10:
ARM GAS  /tmp/ccDT7ei7.s 			page 3


 115 004c 00300020 		.word	536883200
 116              		.cfi_endproc
 117              	.LFE8:
 118              		.size	halIsCounterWithin, .-halIsCounterWithin
 119              		.section	.text.halPolledDelay,"ax",%progbits
 120              		.align	2
 121              		.global	halPolledDelay
 122              		.type	halPolledDelay, %function
 123              	halPolledDelay:
 124              	.LFB9:
 125              		.loc 1 186 0
 126              		.cfi_startproc
 127              		@ args = 0, pretend = 0, frame = 0
 128              		@ frame_needed = 0, uses_anonymous_args = 0
 129              		@ link register save eliminated.
 130              	.LVL14:
 131              		.loc 1 187 0
 132 0000 54309FE5 		ldr	r3, .L19
 133 0004 041093E5 		ldr	r1, [r3, #4]
 134              	.LVL15:
 135              	.LBB4:
 136              	.LBB5:
 137              		.loc 1 168 0
 138 0008 03C0A0E1 		mov	ip, r3
 139              	.LBE5:
 140              	.LBE4:
 141              		.loc 1 188 0
 142 000c 010080E0 		add	r0, r0, r1
 143              	.LVL16:
 144              		.loc 1 189 0
 145 0010 060000EA 		b	.L15
 146              	.LVL17:
 147              	.L18:
 148              	.LBB8:
 149              	.LBB6:
 150              		.loc 1 170 0
 151 0014 020050E1 		cmp	r0, r2
 152 0018 0130A083 		movhi	r3, #1
 153 001c 0030A093 		movls	r3, #0
 154 0020 020051E1 		cmp	r1, r2
 155 0024 0030A083 		movhi	r3, #0
 156              	.LBE6:
 157              	.LBE8:
 158              		.loc 1 189 0
 159 0028 000053E3 		cmp	r3, #0
 160 002c 0900000A 		beq	.L17
 161              	.LVL18:
 162              	.L15:
 163              	.LBB9:
 164              	.LBB7:
 165              		.loc 1 170 0 discriminator 1
 166 0030 000051E1 		cmp	r1, r0
 167              		.loc 1 168 0 discriminator 1
 168 0034 04209CE5 		ldr	r2, [ip, #4]
 169              	.LVL19:
 170              		.loc 1 170 0 discriminator 1
 171 0038 F5FFFF3A 		bcc	.L18
ARM GAS  /tmp/ccDT7ei7.s 			page 4


 172              		.loc 1 171 0
 173 003c 020051E1 		cmp	r1, r2
 174 0040 0030A083 		movhi	r3, #0
 175 0044 0130A093 		movls	r3, #1
 176              		.loc 1 170 0
 177 0048 020050E1 		cmp	r0, r2
 178 004c 01308383 		orrhi	r3, r3, #1
 179              	.LBE7:
 180              	.LBE9:
 181              		.loc 1 189 0
 182 0050 000053E3 		cmp	r3, #0
 183 0054 F5FFFF1A 		bne	.L15
 184              	.L17:
 185              		.loc 1 191 0
 186 0058 1EFF2FE1 		bx	lr
 187              	.L20:
 188              		.align	2
 189              	.L19:
 190 005c 00300020 		.word	536883200
 191              		.cfi_endproc
 192              	.LFE9:
 193              		.size	halPolledDelay, .-halPolledDelay
 194              		.text
 195              	.Letext0:
 196              		.file 2 "/usr/include/newlib/machine/_default_types.h"
 197              		.file 3 "/usr/include/newlib/sys/_stdint.h"
 198              		.file 4 "../../os/ports/GCC/ARM/chtypes.h"
 199              		.file 5 "../../os/hal/platforms/BCM2835/hal_lld.h"
 200              		.file 6 "../../os/hal/platforms/BCM2835/pal_lld.h"
 201              		.file 7 "../../os/hal/include/tm.h"
 202              		.file 8 "../../os/hal/include/i2c.h"
 203              		.file 9 "../../os/hal/include/serial.h"
 204              		.file 10 "../../os/hal/include/spi.h"
 205              		.file 11 "../../boards/RASPBERRYPI_MODB/board.h"