ARM GAS  /tmp/ccDT7ei7.s 			page 1


   1              		.cpu arm1176jz-s
   2              		.fpu softvfp
   3              		.eabi_attribute 20, 1
   4              		.eabi_attribute 21, 1
   5              		.eabi_attribute 23, 3
   6              		.eabi_attribute 24, 1
   7              		.eabi_attribute 25, 1
   8              		.eabi_attribute 26, 1
   9              		.eabi_attribute 30, 2
  10              		.eabi_attribute 34, 1
  11              		.eabi_attribute 18, 4
  12              		.file	"hal.c"
  13              		.text
  14              	.Ltext0:
  15              		.cfi_sections	.debug_frame
  16              		.section	.text.halInit,"ax",%progbits
  17              		.align	2
  18              		.global	halInit
  19              		.type	halInit, %function
  20              	halInit:
  21              	.LFB7:
  22              		.file 1 "../../os/hal/src/hal.c"
  23              		.loc 1 61 0
  24              		.cfi_startproc
  25              		@ args = 0, pretend = 0, frame = 0
  26              		@ frame_needed = 0, uses_anonymous_args = 0
  27 0000 08402DE9 		stmfd	sp!, {r3, lr}
  28              		.cfi_def_cfa_offset 8
  29              		.cfi_offset 3, -8
  30              		.cfi_offset 14, -4
  31              		.loc 1 63 0
  32 0004 FEFFFFEB 		bl	hal_lld_init
  33              	.LVL0:
  34              		.loc 1 66 0
  35 0008 FEFFFFEB 		bl	tmInit
  36              	.LVL1:
  37              		.loc 1 69 0
  38 000c 14009FE5 		ldr	r0, .L3
  39 0010 FEFFFFEB 		bl	_pal_lld_init
  40              	.LVL2:
  41              		.loc 1 84 0
  42 0014 FEFFFFEB 		bl	i2cInit
  43              	.LVL3:
  44              		.loc 1 96 0
  45 0018 FEFFFFEB 		bl	sdInit
  46              	.LVL4:
  47              		.loc 1 102 0
  48 001c FEFFFFEB 		bl	spiInit
  49              	.LVL5:
  50              		.loc 1 121 0
  51 0020 0840BDE8 		ldmfd	sp!, {r3, lr}
  52              		.cfi_restore 14
  53              		.cfi_restore 3
  54              		.cfi_def_cfa_offset 0
  55              		.loc 1 120 0
  56 0024 FEFFFFEA 		b	boardInit
  57              	.LVL6:
ARM GAS  /tmp/ccDT7ei7.s 			page 2


  58              	.L4:
  59              		.align	2
  60              	.L3:
  61 0028 00000000 		.word	pal_default_config
  62              		.cfi_endproc
  63              	.LFE7:
  64              		.size	halInit, .-halInit
  65              		.section	.text.halIsCounterWithin,"ax",%progbits
  66              		.align	2
  67              		.global	halIsCounterWithin
  68              		.type	halIsCounterWithin, %function
  69              	halIsCounterWithin:
  70              	.LFB8:
  71              		.loc 1 167 0
  72              		.cfi_startproc
  73              		@ args = 0, pretend = 0, frame = 0
  74              		@ frame_needed = 0, uses_anonymous_args = 0
  75              		@ link register save eliminated.
  76              	.LVL7:
  77              		.loc 1 168 0
  78 0000 44309FE5 		ldr	r3, .L10
  79              		.loc 1 170 0
  80 0004 000051E1 		cmp	r1, r0
  81              		.loc 1 168 0
  82 0008 043093E5 		ldr	r3, [r3, #4]
  83              	.LVL8:
  84              		.loc 1 170 0
  85 000c 0700008A 		bhi	.L9
  86              		.loc 1 171 0 discriminator 2
  87 0010 000053E1 		cmp	r3, r0
  88 0014 0000A033 		movcc	r0, #0
  89              	.LVL9:
  90 0018 0100A023 		movcs	r0, #1
  91              		.loc 1 170 0 discriminator 2
  92 001c 010053E1 		cmp	r3, r1
  93 0020 0010A021 		movcs	r1, r0
  94 0024 01108033 		orrcc	r1, r0, #1
  95              	.LVL10:
  96              		.loc 1 172 0 discriminator 2
  97 0028 0100A0E1 		mov	r0, r1
  98 002c 1EFF2FE1 		bx	lr
  99              	.LVL11:
 100              	.L9:
 101              		.loc 1 170 0 discriminator 1
 102 0030 010053E1 		cmp	r3, r1
 103 0034 0110A033 		movcc	r1, #1
 104              	.LVL12:
 105 0038 0010A023 		movcs	r1, #0
 106 003c 000053E1 		cmp	r3, r0
 107 0040 0010A033 		movcc	r1, #0
 108              		.loc 1 172 0 discriminator 1
 109 0044 0100A0E1 		mov	r0, r1
 110              	.LVL13:
 111 0048 1EFF2FE1 		bx	lr
 112              	.L11:
 113              		.align	2
 114              	.L10:
ARM GAS  /tmp/ccDT7ei7.s 			page 3


 115 004c 00300020 		.word	536883200
 116              		.cfi_endproc
 117              	.LFE8:
 118              		.size	halIsCounterWithin, .-halIsCounterWithin
 119              		.section	.text.halPolledDelay,"ax",%progbits
 120              		.align	2
 121              		.global	halPolledDelay
 122              		.type	halPolledDelay, %function
 123              	halPolledDelay:
 124              	.LFB9:
 125              		.loc 1 186 0
 126              		.cfi_startproc
 127              		@ args = 0, pretend = 0, frame = 0
 128              		@ frame_needed = 0, uses_anonymous_args = 0
 129              		@ link register save eliminated.
 130              	.LVL14:
 131              		.loc 1 187 0
 132 0000 54309FE5 		ldr	r3, .L19
 133 0004 041093E5 		ldr	r1, [r3, #4]
 134              	.LVL15:
 135              	.LBB4:
 136              	.LBB5:
 137              		.loc 1 168 0
 138 0008 03C0A0E1 		mov	ip, r3
 139              	.LBE5:
 140              	.LBE4:
 141              		.loc 1 188 0
 142 000c 010080E0 		add	r0, r0, r1
 143              	.LVL16:
 144              		.loc 1 189 0
 145 0010 060000EA 		b	.L15
 146              	.LVL17:
 147              	.L18:
 148              	.LBB8:
 149              	.LBB6:
 150              		.loc 1 170 0
 151 0014 020050E1 		cmp	r0, r2
 152 0018 0130A083 		movhi	r3, #1
 153 001c 0030A093 		movls	r3, #0
 154 0020 020051E1 		cmp	r1, r2
 155 0024 0030A083 		movhi	r3, #0
 156              	.LBE6:
 157              	.LBE8:
 158              		.loc 1 189 0
 159 0028 000053E3 		cmp	r3, #0
 160 002c 0900000A 		beq	.L17
 161              	.LVL18:
 162              	.L15:
 163              	.LBB9:
 164              	.LBB7:
 165              		.loc 1 170 0 discriminator 1
 166 0030 000051E1 		cmp	r1, r0
 167              		.loc 1 168 0 discriminator 1
 168 0034 04209CE5 		ldr	r2, [ip, #4]
 169              	.LVL19:
 170              		.loc 1 170 0 discriminator 1
 171 0038 F5FFFF3A 		bcc	.L18
ARM GAS  /tmp/ccDT7ei7.s 			page 4


 172              		.loc 1 171 0
 173 003c 020051E1 		cmp	r1, r2
 174 0040 0030A083 		movhi	r3, #0
 175 0044 0130A093 		movls	r3, #1
 176              		.loc 1 170 0
 177 0048 020050E1 		cmp	r0, r2
 178 004c 01308383 		orrhi	r3, r3, #1
 179              	.LBE7:
 180              	.LBE9:
 181              		.loc 1 189 0
 182 0050 000053E3 		cmp	r3, #0
 183 0054 F5FFFF1A 		bne	.L15
 184              	.L17:
 185              		.loc 1 191 0
 186 0058 1EFF2FE1 		bx	lr
 187              	.L20:
 188              		.align	2
 189              	.L19:
 190 005c 00300020 		.word	536883200
 191              		.cfi_endproc
 192              	.LFE9:
 193              		.size	halPolledDelay, .-halPolledDelay
 194              		.text
 195              	.Letext0:
 196              		.file 2 "/usr/include/newlib/machine/_default_types.h"
 197              		.file 3 "/usr/include/newlib/sys/_stdint.h"
 198              		.file 4 "../../os/ports/GCC/ARM/chtypes.h"
 199              		.file 5 "../../os/hal/platforms/BCM2835/hal_lld.h"
 200              		.file 6 "../../os/hal/platforms/BCM2835/pal_lld.h"
 201              		.file 7 "../../os/hal/include/tm.h"
 202              		.file 8 "../../os/hal/include/i2c.h"
 203              		.file 9 "../../os/hal/include/serial.h"
 204              		.file 10 "../../os/hal/include/spi.h"
 205              		.file 11 "../../boards/RASPBERRYPI_MODB/board.h"
 206              		.section	.debug_info,"",%progbits
 207              	.Ldebug_info0:
 208 0000 3A020000 		.4byte	0x23a
 209 0004 0400     		.2byte	0x4
 210 0006 00000000 		.4byte	.Ldebug_abbrev0
 211 000a 04       		.byte	0x4
 212 000b 01       		.uleb128 0x1
 213 000c 06000000 		.4byte	.LASF28
 214 0010 01       		.byte	0x1
 215 0011 ED010000 		.4byte	.LASF29
 216 0015 B0000000 		.4byte	.LASF30
 217 0019 20000000 		.4byte	.Ldebug_ranges0+0x20
 218 001d 00000000 		.4byte	0
 219 0021 00000000 		.4byte	.Ldebug_line0
 220 0025 02       		.uleb128 0x2
 221 0026 04       		.byte	0x4
 222 0027 05       		.byte	0x5
 223 0028 696E7400 		.ascii	"int\000"
 224 002c 03       		.uleb128 0x3
 225 002d 04       		.byte	0x4
 226 002e 07       		.byte	0x7
 227 002f 90010000 		.4byte	.LASF0
 228 0033 03       		.uleb128 0x3
ARM GAS  /tmp/ccDT7ei7.s 			page 5


 229 0034 01       		.byte	0x1
 230 0035 06       		.byte	0x6
 231 0036 42020000 		.4byte	.LASF1
 232 003a 03       		.uleb128 0x3
 233 003b 01       		.byte	0x1
 234 003c 08       		.byte	0x8
 235 003d 0A010000 		.4byte	.LASF2
 236 0041 03       		.uleb128 0x3
 237 0042 02       		.byte	0x2
 238 0043 05       		.byte	0x5
 239 0044 21020000 		.4byte	.LASF3
 240 0048 03       		.uleb128 0x3
 241 0049 02       		.byte	0x2
 242 004a 07       		.byte	0x7
 243 004b 3E010000 		.4byte	.LASF4
 244 004f 04       		.uleb128 0x4
 245 0050 A0000000 		.4byte	.LASF6
 246 0054 02       		.byte	0x2
 247 0055 3F       		.byte	0x3f
 248 0056 5A000000 		.4byte	0x5a
 249 005a 03       		.uleb128 0x3
 250 005b 04       		.byte	0x4
 251 005c 05       		.byte	0x5
 252 005d 34020000 		.4byte	.LASF5
 253 0061 04       		.uleb128 0x4
 254 0062 85010000 		.4byte	.LASF7
 255 0066 02       		.byte	0x2
 256 0067 41       		.byte	0x41
 257 0068 6C000000 		.4byte	0x6c
 258 006c 03       		.uleb128 0x3
 259 006d 04       		.byte	0x4
 260 006e 07       		.byte	0x7
 261 006f 1F010000 		.4byte	.LASF8
 262 0073 03       		.uleb128 0x3
 263 0074 08       		.byte	0x8
 264 0075 05       		.byte	0x5
 265 0076 04020000 		.4byte	.LASF9
 266 007a 03       		.uleb128 0x3
 267 007b 08       		.byte	0x8
 268 007c 07       		.byte	0x7
 269 007d A8010000 		.4byte	.LASF10
 270 0081 04       		.uleb128 0x4
 271 0082 DC010000 		.4byte	.LASF11
 272 0086 03       		.byte	0x3
 273 0087 1F       		.byte	0x1f
 274 0088 4F000000 		.4byte	0x4f
 275 008c 04       		.uleb128 0x4
 276 008d 2B020000 		.4byte	.LASF12
 277 0091 03       		.byte	0x3
 278 0092 20       		.byte	0x20
 279 0093 61000000 		.4byte	0x61
 280 0097 04       		.uleb128 0x4
 281 0098 F3000000 		.4byte	.LASF13
 282 009c 04       		.byte	0x4
 283 009d 29       		.byte	0x29
 284 009e 81000000 		.4byte	0x81
 285 00a2 03       		.uleb128 0x3
ARM GAS  /tmp/ccDT7ei7.s 			page 6


 286 00a3 01       		.byte	0x1
 287 00a4 08       		.byte	0x8
 288 00a5 3D020000 		.4byte	.LASF14
 289 00a9 03       		.uleb128 0x3
 290 00aa 04       		.byte	0x4
 291 00ab 07       		.byte	0x7
 292 00ac E4010000 		.4byte	.LASF15
 293 00b0 04       		.uleb128 0x4
 294 00b1 9D010000 		.4byte	.LASF16
 295 00b5 05       		.byte	0x5
 296 00b6 45       		.byte	0x45
 297 00b7 8C000000 		.4byte	0x8c
 298 00bb 05       		.uleb128 0x5
 299 00bc 00       		.byte	0
 300 00bd 06       		.byte	0x6
 301 00be 43       		.byte	0x43
 302 00bf 04       		.uleb128 0x4
 303 00c0 68010000 		.4byte	.LASF17
 304 00c4 06       		.byte	0x6
 305 00c5 45       		.byte	0x45
 306 00c6 BB000000 		.4byte	0xbb
 307 00ca 06       		.uleb128 0x6
 308 00cb C9010000 		.4byte	.LASF31
 309 00cf 01       		.byte	0x1
 310 00d0 A7       		.byte	0xa7
 311 00d1 97000000 		.4byte	0x97
 312 00d5 01       		.byte	0x1
 313 00d6 FC000000 		.4byte	0xfc
 314 00da 07       		.uleb128 0x7
 315 00db AA000000 		.4byte	.LASF18
 316 00df 01       		.byte	0x1
 317 00e0 A7       		.byte	0xa7
 318 00e1 B0000000 		.4byte	0xb0
 319 00e5 08       		.uleb128 0x8
 320 00e6 656E6400 		.ascii	"end\000"
 321 00ea 01       		.byte	0x1
 322 00eb A7       		.byte	0xa7
 323 00ec B0000000 		.4byte	0xb0
 324 00f0 09       		.uleb128 0x9
 325 00f1 6E6F7700 		.ascii	"now\000"
 326 00f5 01       		.byte	0x1
 327 00f6 A8       		.byte	0xa8
 328 00f7 B0000000 		.4byte	0xb0
 329 00fb 00       		.byte	0
 330 00fc 0A       		.uleb128 0xa
 331 00fd 02010000 		.4byte	.LASF19
 332 0101 01       		.byte	0x1
 333 0102 3D       		.byte	0x3d
 334 0103 00000000 		.4byte	.LFB7
 335 0107 2C000000 		.4byte	.LFE7-.LFB7
 336 010b 01       		.uleb128 0x1
 337 010c 9C       		.byte	0x9c
 338 010d 51010000 		.4byte	0x151
 339 0111 0B       		.uleb128 0xb
 340 0112 08000000 		.4byte	.LVL0
 341 0116 FA010000 		.4byte	0x1fa
 342 011a 0B       		.uleb128 0xb
ARM GAS  /tmp/ccDT7ei7.s 			page 7


 343 011b 0C000000 		.4byte	.LVL1
 344 011f 01020000 		.4byte	0x201
 345 0123 0B       		.uleb128 0xb
 346 0124 14000000 		.4byte	.LVL2
 347 0128 08020000 		.4byte	0x208
 348 012c 0B       		.uleb128 0xb
 349 012d 18000000 		.4byte	.LVL3
 350 0131 1F020000 		.4byte	0x21f
 351 0135 0B       		.uleb128 0xb
 352 0136 1C000000 		.4byte	.LVL4
 353 013a 26020000 		.4byte	0x226
 354 013e 0B       		.uleb128 0xb
 355 013f 20000000 		.4byte	.LVL5
 356 0143 2E020000 		.4byte	0x22e
 357 0147 0C       		.uleb128 0xc
 358 0148 28000000 		.4byte	.LVL6
 359 014c 36020000 		.4byte	0x236
 360 0150 00       		.byte	0
 361 0151 0D       		.uleb128 0xd
 362 0152 CA000000 		.4byte	0xca
 363 0156 00000000 		.4byte	.LFB8
 364 015a 50000000 		.4byte	.LFE8-.LFB8
 365 015e 01       		.uleb128 0x1
 366 015f 9C       		.byte	0x9c
 367 0160 7E010000 		.4byte	0x17e
 368 0164 0E       		.uleb128 0xe
 369 0165 DA000000 		.4byte	0xda
 370 0169 00000000 		.4byte	.LLST0
 371 016d 0E       		.uleb128 0xe
 372 016e E5000000 		.4byte	0xe5
 373 0172 3A000000 		.4byte	.LLST1
 374 0176 0F       		.uleb128 0xf
 375 0177 F0000000 		.4byte	0xf0
 376 017b 01       		.uleb128 0x1
 377 017c 53       		.byte	0x53
 378 017d 00       		.byte	0
 379 017e 0A       		.uleb128 0xa
 380 017f 51010000 		.4byte	.LASF20
 381 0183 01       		.byte	0x1
 382 0184 BA       		.byte	0xba
 383 0185 00000000 		.4byte	.LFB9
 384 0189 60000000 		.4byte	.LFE9-.LFB9
 385 018d 01       		.uleb128 0x1
 386 018e 9C       		.byte	0x9c
 387 018f EA010000 		.4byte	0x1ea
 388 0193 10       		.uleb128 0x10
 389 0194 00000000 		.4byte	.LASF32
 390 0198 01       		.byte	0x1
 391 0199 BA       		.byte	0xba
 392 019a B0000000 		.4byte	0xb0
 393 019e 74000000 		.4byte	.LLST2
 394 01a2 11       		.uleb128 0x11
 395 01a3 AA000000 		.4byte	.LASF18
 396 01a7 01       		.byte	0x1
 397 01a8 BB       		.byte	0xbb
 398 01a9 B0000000 		.4byte	0xb0
 399 01ad 01       		.uleb128 0x1
ARM GAS  /tmp/ccDT7ei7.s 			page 8


 400 01ae 51       		.byte	0x51
 401 01af 11       		.uleb128 0x11
 402 01b0 12020000 		.4byte	.LASF21
 403 01b4 01       		.byte	0x1
 404 01b5 BC       		.byte	0xbc
 405 01b6 B0000000 		.4byte	0xb0
 406 01ba 01       		.uleb128 0x1
 407 01bb 50       		.byte	0x50
 408 01bc 12       		.uleb128 0x12
 409 01bd CA000000 		.4byte	0xca
 410 01c1 08000000 		.4byte	.LBB4
 411 01c5 00000000 		.4byte	.Ldebug_ranges0+0
 412 01c9 01       		.byte	0x1
 413 01ca BD       		.byte	0xbd
 414 01cb 13       		.uleb128 0x13
 415 01cc E5000000 		.4byte	0xe5
 416 01d0 01       		.uleb128 0x1
 417 01d1 50       		.byte	0x50
 418 01d2 13       		.uleb128 0x13
 419 01d3 DA000000 		.4byte	0xda
 420 01d7 01       		.uleb128 0x1
 421 01d8 51       		.byte	0x51
 422 01d9 14       		.uleb128 0x14
 423 01da 00000000 		.4byte	.Ldebug_ranges0+0
 424 01de 15       		.uleb128 0x15
 425 01df F0000000 		.4byte	0xf0
 426 01e3 95000000 		.4byte	.LLST3
 427 01e7 00       		.byte	0
 428 01e8 00       		.byte	0
 429 01e9 00       		.byte	0
 430 01ea 16       		.uleb128 0x16
 431 01eb 72010000 		.4byte	.LASF33
 432 01ef 06       		.byte	0x6
 433 01f0 75       		.byte	0x75
 434 01f1 F5010000 		.4byte	0x1f5
 435 01f5 17       		.uleb128 0x17
 436 01f6 BF000000 		.4byte	0xbf
 437 01fa 18       		.uleb128 0x18
 438 01fb 31010000 		.4byte	.LASF22
 439 01ff 05       		.byte	0x5
 440 0200 51       		.byte	0x51
 441 0201 18       		.uleb128 0x18
 442 0202 18010000 		.4byte	.LASF23
 443 0206 07       		.byte	0x7
 444 0207 6C       		.byte	0x6c
 445 0208 19       		.uleb128 0x19
 446 0209 92000000 		.4byte	.LASF34
 447 020d 06       		.byte	0x6
 448 020e B4       		.byte	0xb4
 449 020f 19020000 		.4byte	0x219
 450 0213 1A       		.uleb128 0x1a
 451 0214 19020000 		.4byte	0x219
 452 0218 00       		.byte	0
 453 0219 1B       		.uleb128 0x1b
 454 021a 04       		.byte	0x4
 455 021b F5010000 		.4byte	0x1f5
 456 021f 18       		.uleb128 0x18
ARM GAS  /tmp/ccDT7ei7.s 			page 9


 457 0220 60010000 		.4byte	.LASF24
 458 0224 08       		.byte	0x8
 459 0225 79       		.byte	0x79
 460 0226 1C       		.uleb128 0x1c
 461 0227 1A020000 		.4byte	.LASF25
 462 022b 09       		.byte	0x9
 463 022c 3001     		.2byte	0x130
 464 022e 1C       		.uleb128 0x1c
 465 022f FA000000 		.4byte	.LASF26
 466 0233 0A       		.byte	0xa
 467 0234 2601     		.2byte	0x126
 468 0236 18       		.uleb128 0x18
 469 0237 BF010000 		.4byte	.LASF27
 470 023b 0B       		.byte	0xb
 471 023c 1C       		.byte	0x1c
 472 023d 00       		.byte	0
 473              		.section	.debug_abbrev,"",%progbits
 474              	.Ldebug_abbrev0:
 475 0000 01       		.uleb128 0x1
 476 0001 11       		.uleb128 0x11
 477 0002 01       		.byte	0x1
 478 0003 25       		.uleb128 0x25
 479 0004 0E       		.uleb128 0xe
 480 0005 13       		.uleb128 0x13
 481 0006 0B       		.uleb128 0xb
 482 0007 03       		.uleb128 0x3
 483 0008 0E       		.uleb128 0xe
 484 0009 1B       		.uleb128 0x1b
 485 000a 0E       		.uleb128 0xe
 486 000b 55       		.uleb128 0x55
 487 000c 17       		.uleb128 0x17
 488 000d 11       		.uleb128 0x11
 489 000e 01       		.uleb128 0x1
 490 000f 10       		.uleb128 0x10
 491 0010 17       		.uleb128 0x17
 492 0011 00       		.byte	0
 493 0012 00       		.byte	0
 494 0013 02       		.uleb128 0x2
 495 0014 24       		.uleb128 0x24
 496 0015 00       		.byte	0
 497 0016 0B       		.uleb128 0xb
 498 0017 0B       		.uleb128 0xb
 499 0018 3E       		.uleb128 0x3e
 500 0019 0B       		.uleb128 0xb
 501 001a 03       		.uleb128 0x3
 502 001b 08       		.uleb128 0x8
 503 001c 00       		.byte	0
 504 001d 00       		.byte	0
 505 001e 03       		.uleb128 0x3
 506 001f 24       		.uleb128 0x24
 507 0020 00       		.byte	0
 508 0021 0B       		.uleb128 0xb
 509 0022 0B       		.uleb128 0xb
 510 0023 3E       		.uleb128 0x3e
 511 0024 0B       		.uleb128 0xb
 512 0025 03       		.uleb128 0x3
 513 0026 0E       		.uleb128 0xe
ARM GAS  /tmp/ccDT7ei7.s 			page 10


 514 0027 00       		.byte	0
 515 0028 00       		.byte	0
 516 0029 04       		.uleb128 0x4
 517 002a 16       		.uleb128 0x16
 518 002b 00       		.byte	0
 519 002c 03       		.uleb128 0x3
 520 002d 0E       		.uleb128 0xe
 521 002e 3A       		.uleb128 0x3a
 522 002f 0B       		.uleb128 0xb
 523 0030 3B       		.uleb128 0x3b
 524 0031 0B       		.uleb128 0xb
 525 0032 49       		.uleb128 0x49
 526 0033 13       		.uleb128 0x13
 527 0034 00       		.byte	0
 528 0035 00       		.byte	0
 529 0036 05       		.uleb128 0x5
 530 0037 13       		.uleb128 0x13
 531 0038 00       		.byte	0
 532 0039 0B       		.uleb128 0xb
 533 003a 0B       		.uleb128 0xb
 534 003b 3A       		.uleb128 0x3a
 535 003c 0B       		.uleb128 0xb
 536 003d 3B       		.uleb128 0x3b
 537 003e 0B       		.uleb128 0xb
 538 003f 00       		.byte	0
 539 0040 00       		.byte	0
 540 0041 06       		.uleb128 0x6
 541 0042 2E       		.uleb128 0x2e
 542 0043 01       		.byte	0x1
 543 0044 3F       		.uleb128 0x3f
 544 0045 19       		.uleb128 0x19
 545 0046 03       		.uleb128 0x3
 546 0047 0E       		.uleb128 0xe
 547 0048 3A       		.uleb128 0x3a
 548 0049 0B       		.uleb128 0xb
 549 004a 3B       		.uleb128 0x3b
 550 004b 0B       		.uleb128 0xb
 551 004c 27       		.uleb128 0x27
 552 004d 19       		.uleb128 0x19
 553 004e 49       		.uleb128 0x49
 554 004f 13       		.uleb128 0x13
 555 0050 20       		.uleb128 0x20
 556 0051 0B       		.uleb128 0xb
 557 0052 01       		.uleb128 0x1
 558 0053 13       		.uleb128 0x13
 559 0054 00       		.byte	0
 560 0055 00       		.byte	0
 561 0056 07       		.uleb128 0x7
 562 0057 05       		.uleb128 0x5
 563 0058 00       		.byte	0
 564 0059 03       		.uleb128 0x3
 565 005a 0E       		.uleb128 0xe
 566 005b 3A       		.uleb128 0x3a
 567 005c 0B       		.uleb128 0xb
 568 005d 3B       		.uleb128 0x3b
 569 005e 0B       		.uleb128 0xb
 570 005f 49       		.uleb128 0x49
ARM GAS  /tmp/ccDT7ei7.s 			page 11


 571 0060 13       		.uleb128 0x13
 572 0061 00       		.byte	0
 573 0062 00       		.byte	0
 574 0063 08       		.uleb128 0x8
 575 0064 05       		.uleb128 0x5
 576 0065 00       		.byte	0
 577 0066 03       		.uleb128 0x3
 578 0067 08       		.uleb128 0x8
 579 0068 3A       		.uleb128 0x3a
 580 0069 0B       		.uleb128 0xb
 581 006a 3B       		.uleb128 0x3b
 582 006b 0B       		.uleb128 0xb
 583 006c 49       		.uleb128 0x49
 584 006d 13       		.uleb128 0x13
 585 006e 00       		.byte	0
 586 006f 00       		.byte	0
 587 0070 09       		.uleb128 0x9
 588 0071 34       		.uleb128 0x34
 589 0072 00       		.byte	0
 590 0073 03       		.uleb128 0x3
 591 0074 08       		.uleb128 0x8
 592 0075 3A       		.uleb128 0x3a
 593 0076 0B       		.uleb128 0xb
 594 0077 3B       		.uleb128 0x3b
 595 0078 0B       		.uleb128 0xb
 596 0079 49       		.uleb128 0x49
 597 007a 13       		.uleb128 0x13
 598 007b 00       		.byte	0
 599 007c 00       		.byte	0
 600 007d 0A       		.uleb128 0xa
 601 007e 2E       		.uleb128 0x2e
 602 007f 01       		.byte	0x1
 603 0080 3F       		.uleb128 0x3f
 604 0081 19       		.uleb128 0x19
 605 0082 03       		.uleb128 0x3
 606 0083 0E       		.uleb128 0xe
 607 0084 3A       		.uleb128 0x3a
 608 0085 0B       		.uleb128 0xb
 609 0086 3B       		.uleb128 0x3b
 610 0087 0B       		.uleb128 0xb
 611 0088 27       		.uleb128 0x27
 612 0089 19       		.uleb128 0x19
 613 008a 11       		.uleb128 0x11
 614 008b 01       		.uleb128 0x1
 615 008c 12       		.uleb128 0x12
 616 008d 06       		.uleb128 0x6
 617 008e 40       		.uleb128 0x40
 618 008f 18       		.uleb128 0x18
 619 0090 9742     		.uleb128 0x2117
 620 0092 19       		.uleb128 0x19
 621 0093 01       		.uleb128 0x1
 622 0094 13       		.uleb128 0x13
 623 0095 00       		.byte	0
 624 0096 00       		.byte	0
 625 0097 0B       		.uleb128 0xb
 626 0098 898201   		.uleb128 0x4109
 627 009b 00       		.byte	0
ARM GAS  /tmp/ccDT7ei7.s 			page 12


 628 009c 11       		.uleb128 0x11
 629 009d 01       		.uleb128 0x1
 630 009e 31       		.uleb128 0x31
 631 009f 13       		.uleb128 0x13
 632 00a0 00       		.byte	0
 633 00a1 00       		.byte	0
 634 00a2 0C       		.uleb128 0xc
 635 00a3 898201   		.uleb128 0x4109
 636 00a6 00       		.byte	0
 637 00a7 11       		.uleb128 0x11
 638 00a8 01       		.uleb128 0x1
 639 00a9 9542     		.uleb128 0x2115
 640 00ab 19       		.uleb128 0x19
 641 00ac 31       		.uleb128 0x31
 642 00ad 13       		.uleb128 0x13
 643 00ae 00       		.byte	0
 644 00af 00       		.byte	0
 645 00b0 0D       		.uleb128 0xd
 646 00b1 2E       		.uleb128 0x2e
 647 00b2 01       		.byte	0x1
 648 00b3 31       		.uleb128 0x31
 649 00b4 13       		.uleb128 0x13
 650 00b5 11       		.uleb128 0x11
 651 00b6 01       		.uleb128 0x1
 652 00b7 12       		.uleb128 0x12
 653 00b8 06       		.uleb128 0x6
 654 00b9 40       		.uleb128 0x40
 655 00ba 18       		.uleb128 0x18
 656 00bb 9742     		.uleb128 0x2117
 657 00bd 19       		.uleb128 0x19
 658 00be 01       		.uleb128 0x1
 659 00bf 13       		.uleb128 0x13
 660 00c0 00       		.byte	0
 661 00c1 00       		.byte	0
 662 00c2 0E       		.uleb128 0xe
 663 00c3 05       		.uleb128 0x5
 664 00c4 00       		.byte	0
 665 00c5 31       		.uleb128 0x31
 666 00c6 13       		.uleb128 0x13
 667 00c7 02       		.uleb128 0x2
 668 00c8 17       		.uleb128 0x17
 669 00c9 00       		.byte	0
 670 00ca 00       		.byte	0
 671 00cb 0F       		.uleb128 0xf
 672 00cc 34       		.uleb128 0x34
 673 00cd 00       		.byte	0
 674 00ce 31       		.uleb128 0x31
 675 00cf 13       		.uleb128 0x13
 676 00d0 02       		.uleb128 0x2
 677 00d1 18       		.uleb128 0x18
 678 00d2 00       		.byte	0
 679 00d3 00       		.byte	0
 680 00d4 10       		.uleb128 0x10
 681 00d5 05       		.uleb128 0x5
 682 00d6 00       		.byte	0
 683 00d7 03       		.uleb128 0x3
 684 00d8 0E       		.uleb128 0xe
ARM GAS  /tmp/ccDT7ei7.s 			page 13


 685 00d9 3A       		.uleb128 0x3a
 686 00da 0B       		.uleb128 0xb
 687 00db 3B       		.uleb128 0x3b
 688 00dc 0B       		.uleb128 0xb
 689 00dd 49       		.uleb128 0x49
 690 00de 13       		.uleb128 0x13
 691 00df 02       		.uleb128 0x2
 692 00e0 17       		.uleb128 0x17
 693 00e1 00       		.byte	0
 694 00e2 00       		.byte	0
 695 00e3 11       		.uleb128 0x11
 696 00e4 34       		.uleb128 0x34
 697 00e5 00       		.byte	0
 698 00e6 03       		.uleb128 0x3
 699 00e7 0E       		.uleb128 0xe
 700 00e8 3A       		.uleb128 0x3a
 701 00e9 0B       		.uleb128 0xb
 702 00ea 3B       		.uleb128 0x3b
 703 00eb 0B       		.uleb128 0xb
 704 00ec 49       		.uleb128 0x49
 705 00ed 13       		.uleb128 0x13
 706 00ee 02       		.uleb128 0x2
 707 00ef 18       		.uleb128 0x18
 708 00f0 00       		.byte	0
 709 00f1 00       		.byte	0
 710 00f2 12       		.uleb128 0x12
 711 00f3 1D       		.uleb128 0x1d
 712 00f4 01       		.byte	0x1
 713 00f5 31       		.uleb128 0x31
 714 00f6 13       		.uleb128 0x13
 715 00f7 52       		.uleb128 0x52
 716 00f8 01       		.uleb128 0x1
 717 00f9 55       		.uleb128 0x55
 718 00fa 17       		.uleb128 0x17
 719 00fb 58       		.uleb128 0x58
 720 00fc 0B       		.uleb128 0xb
 721 00fd 59       		.uleb128 0x59
 722 00fe 0B       		.uleb128 0xb
 723 00ff 00       		.byte	0
 724 0100 00       		.byte	0
 725 0101 13       		.uleb128 0x13
 726 0102 05       		.uleb128 0x5
 727 0103 00       		.byte	0
 728 0104 31       		.uleb128 0x31
 729 0105 13       		.uleb128 0x13
 730 0106 02       		.uleb128 0x2
 731 0107 18       		.uleb128 0x18
 732 0108 00       		.byte	0
 733 0109 00       		.byte	0
 734 010a 14       		.uleb128 0x14
 735 010b 0B       		.uleb128 0xb
 736 010c 01       		.byte	0x1
 737 010d 55       		.uleb128 0x55
 738 010e 17       		.uleb128 0x17
 739 010f 00       		.byte	0
 740 0110 00       		.byte	0
 741 0111 15       		.uleb128 0x15
ARM GAS  /tmp/ccDT7ei7.s 			page 14


 742 0112 34       		.uleb128 0x34
 743 0113 00       		.byte	0
 744 0114 31       		.uleb128 0x31
 745 0115 13       		.uleb128 0x13
 746 0116 02       		.uleb128 0x2
 747 0117 17       		.uleb128 0x17
 748 0118 00       		.byte	0
 749 0119 00       		.byte	0
 750 011a 16       		.uleb128 0x16
 751 011b 34       		.uleb128 0x34
 752 011c 00       		.byte	0
 753 011d 03       		.uleb128 0x3
 754 011e 0E       		.uleb128 0xe
 755 011f 3A       		.uleb128 0x3a
 756 0120 0B       		.uleb128 0xb
 757 0121 3B       		.uleb128 0x3b
 758 0122 0B       		.uleb128 0xb
 759 0123 49       		.uleb128 0x49
 760 0124 13       		.uleb128 0x13
 761 0125 3F       		.uleb128 0x3f
 762 0126 19       		.uleb128 0x19
 763 0127 3C       		.uleb128 0x3c
 764 0128 19       		.uleb128 0x19
 765 0129 00       		.byte	0
 766 012a 00       		.byte	0
 767 012b 17       		.uleb128 0x17
 768 012c 26       		.uleb128 0x26
 769 012d 00       		.byte	0
 770 012e 49       		.uleb128 0x49
 771 012f 13       		.uleb128 0x13
 772 0130 00       		.byte	0
 773 0131 00       		.byte	0
 774 0132 18       		.uleb128 0x18
 775 0133 2E       		.uleb128 0x2e
 776 0134 00       		.byte	0
 777 0135 3F       		.uleb128 0x3f
 778 0136 19       		.uleb128 0x19
 779 0137 03       		.uleb128 0x3
 780 0138 0E       		.uleb128 0xe
 781 0139 3A       		.uleb128 0x3a
 782 013a 0B       		.uleb128 0xb
 783 013b 3B       		.uleb128 0x3b
 784 013c 0B       		.uleb128 0xb
 785 013d 27       		.uleb128 0x27
 786 013e 19       		.uleb128 0x19
 787 013f 3C       		.uleb128 0x3c
 788 0140 19       		.uleb128 0x19
 789 0141 00       		.byte	0
 790 0142 00       		.byte	0
 791 0143 19       		.uleb128 0x19
 792 0144 2E       		.uleb128 0x2e
 793 0145 01       		.byte	0x1
 794 0146 3F       		.uleb128 0x3f
 795 0147 19       		.uleb128 0x19
 796 0148 03       		.uleb128 0x3
 797 0149 0E       		.uleb128 0xe
 798 014a 3A       		.uleb128 0x3a
ARM GAS  /tmp/ccDT7ei7.s 			page 15


 799 014b 0B       		.uleb128 0xb
 800 014c 3B       		.uleb128 0x3b
 801 014d 0B       		.uleb128 0xb
 802 014e 27       		.uleb128 0x27
 803 014f 19       		.uleb128 0x19
 804 0150 3C       		.uleb128 0x3c
 805 0151 19       		.uleb128 0x19
 806 0152 01       		.uleb128 0x1
 807 0153 13       		.uleb128 0x13
 808 0154 00       		.byte	0
 809 0155 00       		.byte	0
 810 0156 1A       		.uleb128 0x1a
 811 0157 05       		.uleb128 0x5
 812 0158 00       		.byte	0
 813 0159 49       		.uleb128 0x49
 814 015a 13       		.uleb128 0x13
 815 015b 00       		.byte	0
 816 015c 00       		.byte	0
 817 015d 1B       		.uleb128 0x1b
 818 015e 0F       		.uleb128 0xf
 819 015f 00       		.byte	0
 820 0160 0B       		.uleb128 0xb
 821 0161 0B       		.uleb128 0xb
 822 0162 49       		.uleb128 0x49
 823 0163 13       		.uleb128 0x13
 824 0164 00       		.byte	0
 825 0165 00       		.byte	0
 826 0166 1C       		.uleb128 0x1c
 827 0167 2E       		.uleb128 0x2e
 828 0168 00       		.byte	0
 829 0169 3F       		.uleb128 0x3f
 830 016a 19       		.uleb128 0x19
 831 016b 03       		.uleb128 0x3
 832 016c 0E       		.uleb128 0xe
 833 016d 3A       		.uleb128 0x3a
 834 016e 0B       		.uleb128 0xb
 835 016f 3B       		.uleb128 0x3b
 836 0170 05       		.uleb128 0x5
 837 0171 27       		.uleb128 0x27
 838 0172 19       		.uleb128 0x19
 839 0173 3C       		.uleb128 0x3c
 840 0174 19       		.uleb128 0x19
 841 0175 00       		.byte	0
 842 0176 00       		.byte	0
 843 0177 00       		.byte	0
 844              		.section	.debug_loc,"",%progbits
 845              	.Ldebug_loc0:
 846              	.LLST0:
 847 0000 00000000 		.4byte	.LVL7
 848 0004 18000000 		.4byte	.LVL9
 849 0008 0100     		.2byte	0x1
 850 000a 50       		.byte	0x50
 851 000b 18000000 		.4byte	.LVL9
 852 000f 30000000 		.4byte	.LVL11
 853 0013 0400     		.2byte	0x4
 854 0015 F3       		.byte	0xf3
 855 0016 01       		.uleb128 0x1
ARM GAS  /tmp/ccDT7ei7.s 			page 16


 856 0017 50       		.byte	0x50
 857 0018 9F       		.byte	0x9f
 858 0019 30000000 		.4byte	.LVL11
 859 001d 48000000 		.4byte	.LVL13
 860 0021 0100     		.2byte	0x1
 861 0023 50       		.byte	0x50
 862 0024 48000000 		.4byte	.LVL13
 863 0028 50000000 		.4byte	.LFE8
 864 002c 0400     		.2byte	0x4
 865 002e F3       		.byte	0xf3
 866 002f 01       		.uleb128 0x1
 867 0030 50       		.byte	0x50
 868 0031 9F       		.byte	0x9f
 869 0032 00000000 		.4byte	0
 870 0036 00000000 		.4byte	0
 871              	.LLST1:
 872 003a 00000000 		.4byte	.LVL7
 873 003e 28000000 		.4byte	.LVL10
 874 0042 0100     		.2byte	0x1
 875 0044 51       		.byte	0x51
 876 0045 28000000 		.4byte	.LVL10
 877 0049 30000000 		.4byte	.LVL11
 878 004d 0400     		.2byte	0x4
 879 004f F3       		.byte	0xf3
 880 0050 01       		.uleb128 0x1
 881 0051 51       		.byte	0x51
 882 0052 9F       		.byte	0x9f
 883 0053 30000000 		.4byte	.LVL11
 884 0057 38000000 		.4byte	.LVL12
 885 005b 0100     		.2byte	0x1
 886 005d 51       		.byte	0x51
 887 005e 38000000 		.4byte	.LVL12
 888 0062 50000000 		.4byte	.LFE8
 889 0066 0400     		.2byte	0x4
 890 0068 F3       		.byte	0xf3
 891 0069 01       		.uleb128 0x1
 892 006a 51       		.byte	0x51
 893 006b 9F       		.byte	0x9f
 894 006c 00000000 		.4byte	0
 895 0070 00000000 		.4byte	0
 896              	.LLST2:
 897 0074 00000000 		.4byte	.LVL14
 898 0078 10000000 		.4byte	.LVL16
 899 007c 0100     		.2byte	0x1
 900 007e 50       		.byte	0x50
 901 007f 10000000 		.4byte	.LVL16
 902 0083 60000000 		.4byte	.LFE9
 903 0087 0400     		.2byte	0x4
 904 0089 F3       		.byte	0xf3
 905 008a 01       		.uleb128 0x1
 906 008b 50       		.byte	0x50
 907 008c 9F       		.byte	0x9f
 908 008d 00000000 		.4byte	0
 909 0091 00000000 		.4byte	0
 910              	.LLST3:
 911 0095 14000000 		.4byte	.LVL17
 912 0099 30000000 		.4byte	.LVL18
ARM GAS  /tmp/ccDT7ei7.s 			page 17


 913 009d 0100     		.2byte	0x1
 914 009f 52       		.byte	0x52
 915 00a0 38000000 		.4byte	.LVL19
 916 00a4 60000000 		.4byte	.LFE9
 917 00a8 0100     		.2byte	0x1
 918 00aa 52       		.byte	0x52
 919 00ab 00000000 		.4byte	0
 920 00af 00000000 		.4byte	0
 921              		.section	.debug_aranges,"",%progbits
 922 0000 2C000000 		.4byte	0x2c
 923 0004 0200     		.2byte	0x2
 924 0006 00000000 		.4byte	.Ldebug_info0
 925 000a 04       		.byte	0x4
 926 000b 00       		.byte	0
 927 000c 0000     		.2byte	0
 928 000e 0000     		.2byte	0
 929 0010 00000000 		.4byte	.LFB7
 930 0014 2C000000 		.4byte	.LFE7-.LFB7
 931 0018 00000000 		.4byte	.LFB8
 932 001c 50000000 		.4byte	.LFE8-.LFB8
 933 0020 00000000 		.4byte	.LFB9
 934 0024 60000000 		.4byte	.LFE9-.LFB9
 935 0028 00000000 		.4byte	0
 936 002c 00000000 		.4byte	0
 937              		.section	.debug_ranges,"",%progbits
 938              	.Ldebug_ranges0:
 939 0000 08000000 		.4byte	.LBB4
 940 0004 0C000000 		.4byte	.LBE4
 941 0008 14000000 		.4byte	.LBB8
 942 000c 28000000 		.4byte	.LBE8
 943 0010 30000000 		.4byte	.LBB9
 944 0014 50000000 		.4byte	.LBE9
 945 0018 00000000 		.4byte	0
 946 001c 00000000 		.4byte	0
 947 0020 00000000 		.4byte	.LFB7
 948 0024 2C000000 		.4byte	.LFE7
 949 0028 00000000 		.4byte	.LFB8
 950 002c 50000000 		.4byte	.LFE8
 951 0030 00000000 		.4byte	.LFB9
 952 0034 60000000 		.4byte	.LFE9
 953 0038 00000000 		.4byte	0
 954 003c 00000000 		.4byte	0
 955              		.section	.debug_line,"",%progbits
 956              	.Ldebug_line0:
 957 0000 C8010000 		.section	.debug_str,"MS",%progbits,1
 957      02004301 
 957      00000201 
 957      FB0E0D00 
 957      01010101 
 958              	.LASF32:
 959 0000 7469636B 		.ascii	"ticks\000"
 959      7300
 960              	.LASF28:
 961 0006 474E5520 		.ascii	"GNU C 4.9.3 20150529 (prerelease) -mcpu=arm1176jz-s"
 961      4320342E 
 961      392E3320 
 961      32303135 
ARM GAS  /tmp/ccDT7ei7.s 			page 18


 961      30353239 
 962 0039 202D6D6E 		.ascii	" -mno-thumb-interwork -ggdb -O2 -fomit-frame-pointe"
 962      6F2D7468 
 962      756D622D 
 962      696E7465 
 962      72776F72 
 963 006c 72202D66 		.ascii	"r -ffunction-sections -fdata-sections\000"
 963      66756E63 
 963      74696F6E 
 963      2D736563 
 963      74696F6E 
 964              	.LASF34:
 965 0092 5F70616C 		.ascii	"_pal_lld_init\000"
 965      5F6C6C64 
 965      5F696E69 
 965      7400
 966              	.LASF6:
 967 00a0 5F5F696E 		.ascii	"__int32_t\000"
 967      7433325F 
 967      7400
 968              	.LASF18:
 969 00aa 73746172 		.ascii	"start\000"
 969      7400
 970              	.LASF30:
 971 00b0 2F686F6D 		.ascii	"/home/hunter/development/chibi/ChibiOS-RPi/demos/AR"
 971      652F6875 
 971      6E746572 
 971      2F646576 
 971      656C6F70 
 972 00e3 4D31312D 		.ascii	"M11-BCM2835-GCC\000"
 972      42434D32 
 972      3833352D 
 972      47434300 
 973              	.LASF13:
 974 00f3 626F6F6C 		.ascii	"bool_t\000"
 974      5F7400
 975              	.LASF26:
 976 00fa 73706949 		.ascii	"spiInit\000"
 976      6E697400 
 977              	.LASF19:
 978 0102 68616C49 		.ascii	"halInit\000"
 978      6E697400 
 979              	.LASF2:
 980 010a 756E7369 		.ascii	"unsigned char\000"
 980      676E6564 
 980      20636861 
 980      7200
 981              	.LASF23:
 982 0118 746D496E 		.ascii	"tmInit\000"
 982      697400
 983              	.LASF8:
 984 011f 6C6F6E67 		.ascii	"long unsigned int\000"
 984      20756E73 
 984      69676E65 
 984      6420696E 
 984      7400
 985              	.LASF22:
ARM GAS  /tmp/ccDT7ei7.s 			page 19


 986 0131 68616C5F 		.ascii	"hal_lld_init\000"
 986      6C6C645F 
 986      696E6974 
 986      00
 987              	.LASF4:
 988 013e 73686F72 		.ascii	"short unsigned int\000"
 988      7420756E 
 988      7369676E 
 988      65642069 
 988      6E7400
 989              	.LASF20:
 990 0151 68616C50 		.ascii	"halPolledDelay\000"
 990      6F6C6C65 
 990      6444656C 
 990      617900
 991              	.LASF24:
 992 0160 69326349 		.ascii	"i2cInit\000"
 992      6E697400 
 993              	.LASF17:
 994 0168 50414C43 		.ascii	"PALConfig\000"
 994      6F6E6669 
 994      6700
 995              	.LASF33:
 996 0172 70616C5F 		.ascii	"pal_default_config\000"
 996      64656661 
 996      756C745F 
 996      636F6E66 
 996      696700
 997              	.LASF7:
 998 0185 5F5F7569 		.ascii	"__uint32_t\000"
 998      6E743332 
 998      5F7400
 999              	.LASF0:
 1000 0190 756E7369 		.ascii	"unsigned int\000"
 1000      676E6564 
 1000      20696E74 
 1000      00
 1001              	.LASF16:
 1002 019d 68616C72 		.ascii	"halrtcnt_t\000"
 1002      74636E74 
 1002      5F7400
 1003              	.LASF10:
 1004 01a8 6C6F6E67 		.ascii	"long long unsigned int\000"
 1004      206C6F6E 
 1004      6720756E 
 1004      7369676E 
 1004      65642069 
 1005              	.LASF27:
 1006 01bf 626F6172 		.ascii	"boardInit\000"
 1006      64496E69 
 1006      7400
 1007              	.LASF31:
 1008 01c9 68616C49 		.ascii	"halIsCounterWithin\000"
 1008      73436F75 
 1008      6E746572 
 1008      57697468 
 1008      696E00
ARM GAS  /tmp/ccDT7ei7.s 			page 20


 1009              	.LASF11:
 1010 01dc 696E7433 		.ascii	"int32_t\000"
 1010      325F7400 
 1011              	.LASF15:
 1012 01e4 73697A65 		.ascii	"sizetype\000"
 1012      74797065 
 1012      00
 1013              	.LASF29:
 1014 01ed 2E2E2F2E 		.ascii	"../../os/hal/src/hal.c\000"
 1014      2E2F6F73 
 1014      2F68616C 
 1014      2F737263 
 1014      2F68616C 
 1015              	.LASF9:
 1016 0204 6C6F6E67 		.ascii	"long long int\000"
 1016      206C6F6E 
 1016      6720696E 
 1016      7400
 1017              	.LASF21:
 1018 0212 74696D65 		.ascii	"timeout\000"
 1018      6F757400 
 1019              	.LASF25:
 1020 021a 7364496E 		.ascii	"sdInit\000"
 1020      697400
 1021              	.LASF3:
 1022 0221 73686F72 		.ascii	"short int\000"
 1022      7420696E 
 1022      7400
 1023              	.LASF12:
 1024 022b 75696E74 		.ascii	"uint32_t\000"
 1024      33325F74 
 1024      00
 1025              	.LASF5:
 1026 0234 6C6F6E67 		.ascii	"long int\000"
 1026      20696E74 
 1026      00
 1027              	.LASF14:
 1028 023d 63686172 		.ascii	"char\000"
 1028      00
 1029              	.LASF1:
 1030 0242 7369676E 		.ascii	"signed char\000"
 1030      65642063 
 1030      68617200 
 1031              		.ident	"GCC: (15:4.9.3+svn231177-1) 4.9.3 20150529 (prerelease)"
ARM GAS  /tmp/ccDT7ei7.s 			page 21


DEFINED SYMBOLS
                            *ABS*:0000000000000000 hal.c
     /tmp/ccDT7ei7.s:17     .text.halInit:0000000000000000 $a
     /tmp/ccDT7ei7.s:20     .text.halInit:0000000000000000 halInit
     /tmp/ccDT7ei7.s:61     .text.halInit:0000000000000028 $d
     /tmp/ccDT7ei7.s:66     .text.halIsCounterWithin:0000000000000000 $a
     /tmp/ccDT7ei7.s:69     .text.halIsCounterWithin:0000000000000000 halIsCounterWithin
     /tmp/ccDT7ei7.s:115    .text.halIsCounterWithin:000000000000004c $d
     /tmp/ccDT7ei7.s:120    .text.halPolledDelay:0000000000000000 $a
     /tmp/ccDT7ei7.s:123    .text.halPolledDelay:0000000000000000 halPolledDelay
     /tmp/ccDT7ei7.s:190    .text.halPolledDelay:000000000000005c $d
                     .debug_frame:0000000000000010 $d

UNDEFINED SYMBOLS
hal_lld_init
tmInit
_pal_lld_init
i2cInit
sdInit
spiInit
boardInit
pal_default_config
