ARM GAS  /tmp/ccVMW02f.s 			page 1


   1              		.cpu arm1176jz-s
   2              		.fpu softvfp
   3              		.eabi_attribute 20, 1
   4              		.eabi_attribute 21, 1
   5              		.eabi_attribute 23, 3
   6              		.eabi_attribute 24, 1
   7              		.eabi_attribute 25, 1
   8              		.eabi_attribute 26, 1
   9              		.eabi_attribute 30, 2
  10              		.eabi_attribute 34, 1
  11              		.eabi_attribute 18, 4
  12              		.file	"i2c.c"
  13              		.text
  14              	.Ltext0:
  15              		.cfi_sections	.debug_frame
  16              		.section	.text.i2cInit,"ax",%progbits
  17              		.align	2
  18              		.global	i2cInit
  19              		.type	i2cInit, %function
  20              	i2cInit:
  21              	.LFB7:
  22              		.file 1 "../../os/hal/src/i2c.c"
  23              		.loc 1 64 0
  24              		.cfi_startproc
  25              		@ args = 0, pretend = 0, frame = 0
  26              		@ frame_needed = 0, uses_anonymous_args = 0
  27              		@ link register save eliminated.
  28              		.loc 1 65 0
  29 0000 FEFFFFEA 		b	i2c_lld_init
  30              	.LVL0:
  31              		.cfi_endproc
  32              	.LFE7:
  33              		.size	i2cInit, .-i2cInit
  34              		.section	.text.i2cObjectInit,"ax",%progbits
  35              		.align	2
  36              		.global	i2cObjectInit
  37              		.type	i2cObjectInit, %function
  38              	i2cObjectInit:
  39              	.LFB8:
  40              		.loc 1 75 0
  41              		.cfi_startproc
  42              		@ args = 0, pretend = 0, frame = 0
  43              		@ frame_needed = 0, uses_anonymous_args = 0
  44              		@ link register save eliminated.
  45              	.LVL1:
  46              		.loc 1 77 0
  47 0000 0120A0E3 		mov	r2, #1
  48              		.loc 1 78 0
  49 0004 0030A0E3 		mov	r3, #0
  50              		.loc 1 77 0
  51 0008 0020C0E5 		strb	r2, [r0]
  52              		.loc 1 78 0
  53 000c 043080E5 		str	r3, [r0, #4]
  54              		.loc 1 82 0
  55 0010 100080E2 		add	r0, r0, #16
  56              	.LVL2:
  57 0014 FEFFFFEA 		b	chMtxInit
ARM GAS  /tmp/ccVMW02f.s 			page 2


  58              	.LVL3:
  59              		.cfi_endproc
  60              	.LFE8:
  61              		.size	i2cObjectInit, .-i2cObjectInit
  62              		.section	.text.i2cStart,"ax",%progbits
  63              		.align	2
  64              		.global	i2cStart
  65              		.type	i2cStart, %function
  66              	i2cStart:
  67              	.LFB9:
  68              		.loc 1 101 0
  69              		.cfi_startproc
  70              		@ args = 0, pretend = 0, frame = 0
  71              		@ frame_needed = 0, uses_anonymous_args = 0
  72              	.LVL4:
  73 0000 10402DE9 		stmfd	sp!, {r4, lr}
  74              		.cfi_def_cfa_offset 8
  75              		.cfi_offset 4, -8
  76              		.cfi_offset 14, -4
  77              		.loc 1 101 0
  78 0004 0040A0E1 		mov	r4, r0
  79              		.loc 1 109 0
  80              	@ 109 "../../os/hal/src/i2c.c" 1
  81 0008 9FF021E3 		msr     CPSR_c, #0x9F
  82              	@ 0 "" 2
  83              		.loc 1 110 0
  84 000c 041080E5 		str	r1, [r0, #4]
  85              		.loc 1 111 0
  86 0010 FEFFFFEB 		bl	i2c_lld_start
  87              	.LVL5:
  88              		.loc 1 112 0
  89 0014 0230A0E3 		mov	r3, #2
  90 0018 0030C4E5 		strb	r3, [r4]
  91              		.loc 1 113 0
  92              	@ 113 "../../os/hal/src/i2c.c" 1
  93 001c 1FF021E3 		msr     CPSR_c, #0x1F
  94              	@ 0 "" 2
  95 0020 1080BDE8 		ldmfd	sp!, {r4, pc}
  96              		.cfi_endproc
  97              	.LFE9:
  98              		.size	i2cStart, .-i2cStart
  99              		.section	.text.i2cStop,"ax",%progbits
 100              		.align	2
 101              		.global	i2cStop
 102              		.type	i2cStop, %function
 103              	i2cStop:
 104              	.LFB10:
 105              		.loc 1 123 0
 106              		.cfi_startproc
 107              		@ args = 0, pretend = 0, frame = 0
 108              		@ frame_needed = 0, uses_anonymous_args = 0
 109              	.LVL6:
 110 0000 10402DE9 		stmfd	sp!, {r4, lr}
 111              		.cfi_def_cfa_offset 8
 112              		.cfi_offset 4, -8
 113              		.cfi_offset 14, -4
 114              		.loc 1 123 0
ARM GAS  /tmp/ccVMW02f.s 			page 3


 115 0004 0040A0E1 		mov	r4, r0
 116              		.loc 1 131 0
 117              	@ 131 "../../os/hal/src/i2c.c" 1
 118 0008 9FF021E3 		msr     CPSR_c, #0x9F
 119              	@ 0 "" 2
 120              		.loc 1 132 0
 121 000c FEFFFFEB 		bl	i2c_lld_stop
 122              	.LVL7:
 123              		.loc 1 133 0
 124 0010 0130A0E3 		mov	r3, #1
 125 0014 0030C4E5 		strb	r3, [r4]
 126              		.loc 1 134 0
 127              	@ 134 "../../os/hal/src/i2c.c" 1
 128 0018 1FF021E3 		msr     CPSR_c, #0x1F
 129              	@ 0 "" 2
 130 001c 1080BDE8 		ldmfd	sp!, {r4, pc}
 131              		.cfi_endproc
 132              	.LFE10:
 133              		.size	i2cStop, .-i2cStop
 134              		.section	.text.i2cGetErrors,"ax",%progbits
 135              		.align	2
 136              		.global	i2cGetErrors
 137              		.type	i2cGetErrors, %function
 138              	i2cGetErrors:
 139              	.LFB11:
 140              		.loc 1 145 0
 141              		.cfi_startproc
 142              		@ args = 0, pretend = 0, frame = 0
 143              		@ frame_needed = 0, uses_anonymous_args = 0
 144              		@ link register save eliminated.
 145              	.LVL8:
 146              		.loc 1 150 0
 147 0000 080090E5 		ldr	r0, [r0, #8]
 148              	.LVL9:
 149 0004 1EFF2FE1 		bx	lr
 150              		.cfi_endproc
 151              	.LFE11:
 152              		.size	i2cGetErrors, .-i2cGetErrors
 153              		.section	.text.i2cMasterTransmitTimeout,"ax",%progbits
 154              		.align	2
 155              		.global	i2cMasterTransmitTimeout
 156              		.type	i2cMasterTransmitTimeout, %function
 157              	i2cMasterTransmitTimeout:
 158              	.LFB12:
 159              		.loc 1 184 0
 160              		.cfi_startproc
 161              		@ args = 12, pretend = 0, frame = 0
 162              		@ frame_needed = 0, uses_anonymous_args = 0
 163              	.LVL10:
 164 0000 F0402DE9 		stmfd	sp!, {r4, r5, r6, r7, lr}
 165              		.cfi_def_cfa_offset 20
 166              		.cfi_offset 4, -20
 167              		.cfi_offset 5, -16
 168              		.cfi_offset 6, -12
 169              		.cfi_offset 7, -8
 170              		.cfi_offset 14, -4
 171 0004 14D04DE2 		sub	sp, sp, #20
ARM GAS  /tmp/ccVMW02f.s 			page 4


 172              		.cfi_def_cfa_offset 40
 173              		.loc 1 184 0
 174 0008 0040A0E1 		mov	r4, r0
 175 000c 28709DE5 		ldr	r7, [sp, #40]
 176 0010 30609DE5 		ldr	r6, [sp, #48]
 177              		.loc 1 196 0
 178              	@ 196 "../../os/hal/src/i2c.c" 1
 179 0014 9FF021E3 		msr     CPSR_c, #0x9F
 180              	@ 0 "" 2
 181              		.loc 1 198 0
 182 0018 03E0A0E3 		mov	lr, #3
 183              		.loc 1 197 0
 184 001c 0050A0E3 		mov	r5, #0
 185              		.loc 1 199 0
 186 0020 2CC0DDE5 		ldrb	ip, [sp, #44]	@ zero_extendqisi2
 187 0024 00708DE5 		str	r7, [sp]
 188 0028 08608DE5 		str	r6, [sp, #8]
 189              		.loc 1 197 0
 190 002c 085080E5 		str	r5, [r0, #8]
 191              		.loc 1 198 0
 192 0030 00E0C0E5 		strb	lr, [r0]
 193              		.loc 1 199 0
 194 0034 04C08DE5 		str	ip, [sp, #4]
 195 0038 FEFFFFEB 		bl	i2c_lld_master_transmit_timeout
 196              	.LVL11:
 197              		.loc 1 201 0
 198 003c 010070E3 		cmn	r0, #1
 199              		.loc 1 202 0
 200 0040 0530A003 		moveq	r3, #5
 201              		.loc 1 204 0
 202 0044 0230A013 		movne	r3, #2
 203 0048 0030C4E5 		strb	r3, [r4]
 204              		.loc 1 205 0
 205              	@ 205 "../../os/hal/src/i2c.c" 1
 206 004c 1FF021E3 		msr     CPSR_c, #0x1F
 207              	@ 0 "" 2
 208              		.loc 1 207 0
 209 0050 14D08DE2 		add	sp, sp, #20
 210              		.cfi_def_cfa_offset 20
 211              		@ sp needed
 212 0054 F080BDE8 		ldmfd	sp!, {r4, r5, r6, r7, pc}
 213              		.cfi_endproc
 214              	.LFE12:
 215              		.size	i2cMasterTransmitTimeout, .-i2cMasterTransmitTimeout
 216              		.section	.text.i2cMasterReceiveTimeout,"ax",%progbits
 217              		.align	2
 218              		.global	i2cMasterReceiveTimeout
 219              		.type	i2cMasterReceiveTimeout, %function
 220              	i2cMasterReceiveTimeout:
 221              	.LFB13:
 222              		.loc 1 233 0
 223              		.cfi_startproc
 224              		@ args = 4, pretend = 0, frame = 0
 225              		@ frame_needed = 0, uses_anonymous_args = 0
 226              	.LVL12:
 227 0000 30402DE9 		stmfd	sp!, {r4, r5, lr}
 228              		.cfi_def_cfa_offset 12
ARM GAS  /tmp/ccVMW02f.s 			page 5


 229              		.cfi_offset 4, -12
 230              		.cfi_offset 5, -8
 231              		.cfi_offset 14, -4
 232 0004 0CD04DE2 		sub	sp, sp, #12
 233              		.cfi_def_cfa_offset 24
 234              		.loc 1 233 0
 235 0008 0040A0E1 		mov	r4, r0
 236 000c 18509DE5 		ldr	r5, [sp, #24]
 237              		.loc 1 245 0
 238              	@ 245 "../../os/hal/src/i2c.c" 1
 239 0010 9FF021E3 		msr     CPSR_c, #0x9F
 240              	@ 0 "" 2
 241              		.loc 1 246 0
 242 0014 00E0A0E3 		mov	lr, #0
 243              		.loc 1 247 0
 244 0018 04C0A0E3 		mov	ip, #4
 245              		.loc 1 248 0
 246 001c 00508DE5 		str	r5, [sp]
 247              		.loc 1 246 0
 248 0020 08E080E5 		str	lr, [r0, #8]
 249              		.loc 1 247 0
 250 0024 00C0C0E5 		strb	ip, [r0]
 251              		.loc 1 248 0
 252 0028 FEFFFFEB 		bl	i2c_lld_master_receive_timeout
 253              	.LVL13:
 254              		.loc 1 249 0
 255 002c 010070E3 		cmn	r0, #1
 256              		.loc 1 250 0
 257 0030 0530A003 		moveq	r3, #5
 258              		.loc 1 252 0
 259 0034 0230A013 		movne	r3, #2
 260 0038 0030C4E5 		strb	r3, [r4]
 261              		.loc 1 253 0
 262              	@ 253 "../../os/hal/src/i2c.c" 1
 263 003c 1FF021E3 		msr     CPSR_c, #0x1F
 264              	@ 0 "" 2
 265              		.loc 1 255 0
 266 0040 0CD08DE2 		add	sp, sp, #12
 267              		.cfi_def_cfa_offset 12
 268              		@ sp needed
 269 0044 3080BDE8 		ldmfd	sp!, {r4, r5, pc}
 270              		.cfi_endproc
 271              	.LFE13:
 272              		.size	i2cMasterReceiveTimeout, .-i2cMasterReceiveTimeout
 273              		.section	.text.i2cAcquireBus,"ax",%progbits
 274              		.align	2
 275              		.global	i2cAcquireBus
 276              		.type	i2cAcquireBus, %function
 277              	i2cAcquireBus:
 278              	.LFB14:
 279              		.loc 1 269 0
 280              		.cfi_startproc
 281              		@ args = 0, pretend = 0, frame = 0
 282              		@ frame_needed = 0, uses_anonymous_args = 0
 283              		@ link register save eliminated.
 284              	.LVL14:
 285              		.loc 1 274 0
ARM GAS  /tmp/ccVMW02f.s 			page 6


 286 0000 100080E2 		add	r0, r0, #16
 287              	.LVL15:
 288 0004 FEFFFFEA 		b	chMtxLock
 289              	.LVL16:
 290              		.cfi_endproc
 291              	.LFE14:
 292              		.size	i2cAcquireBus, .-i2cAcquireBus
 293              		.section	.text.i2cReleaseBus,"ax",%progbits
 294              		.align	2
 295              		.global	i2cReleaseBus
 296              		.type	i2cReleaseBus, %function
 297              	i2cReleaseBus:
 298              	.LFB15:
 299              		.loc 1 289 0
 300              		.cfi_startproc
 301              		@ args = 0, pretend = 0, frame = 0
 302              		@ frame_needed = 0, uses_anonymous_args = 0
 303              		@ link register save eliminated.
 304              	.LVL17:
 305              		.loc 1 294 0
 306 0000 FEFFFFEA 		b	chMtxUnlock
 307              	.LVL18:
 308              		.cfi_endproc
 309              	.LFE15:
 310              		.size	i2cReleaseBus, .-i2cReleaseBus
 311              		.text
 312              	.Letext0:
 313              		.file 2 "/usr/lib/gcc/arm-none-eabi/4.9.3/include/stddef.h"
 314              		.file 3 "/usr/include/newlib/machine/_default_types.h"
 315              		.file 4 "/usr/include/newlib/sys/_stdint.h"
 316              		.file 5 "../../os/ports/GCC/ARM/chtypes.h"
 317              		.file 6 "../../os/kernel/include/chlists.h"
 318              		.file 7 "../../os/kernel/include/chthreads.h"
 319              		.file 8 "../../os/ports/GCC/ARM/chcore.h"
 320              		.file 9 "../../os/kernel/include/chmtx.h"
 321              		.file 10 "../../os/hal/platforms/BCM2835/bcm2835.h"
 322              		.file 11 "../../os/hal/include/i2c.h"
 323              		.file 12 "../../os/hal/platforms/BCM2835/i2c_lld.h"