ARM GAS  /tmp/ccVMW02f.s 			page 1


   1              		.cpu arm1176jz-s
   2              		.fpu softvfp
   3              		.eabi_attribute 20, 1
   4              		.eabi_attribute 21, 1
   5              		.eabi_attribute 23, 3
   6              		.eabi_attribute 24, 1
   7              		.eabi_attribute 25, 1
   8              		.eabi_attribute 26, 1
   9              		.eabi_attribute 30, 2
  10              		.eabi_attribute 34, 1
  11              		.eabi_attribute 18, 4
  12              		.file	"i2c.c"
  13              		.text
  14              	.Ltext0:
  15              		.cfi_sections	.debug_frame
  16              		.section	.text.i2cInit,"ax",%progbits
  17              		.align	2
  18              		.global	i2cInit
  19              		.type	i2cInit, %function
  20              	i2cInit:
  21              	.LFB7:
  22              		.file 1 "../../os/hal/src/i2c.c"
  23              		.loc 1 64 0
  24              		.cfi_startproc
  25              		@ args = 0, pretend = 0, frame = 0
  26              		@ frame_needed = 0, uses_anonymous_args = 0
  27              		@ link register save eliminated.
  28              		.loc 1 65 0
  29 0000 FEFFFFEA 		b	i2c_lld_init
  30              	.LVL0:
  31              		.cfi_endproc
  32              	.LFE7:
  33              		.size	i2cInit, .-i2cInit
  34              		.section	.text.i2cObjectInit,"ax",%progbits
  35              		.align	2
  36              		.global	i2cObjectInit
  37              		.type	i2cObjectInit, %function
  38              	i2cObjectInit:
  39              	.LFB8:
  40              		.loc 1 75 0
  41              		.cfi_startproc
  42              		@ args = 0, pretend = 0, frame = 0
  43              		@ frame_needed = 0, uses_anonymous_args = 0
  44              		@ link register save eliminated.
  45              	.LVL1:
  46              		.loc 1 77 0
  47 0000 0120A0E3 		mov	r2, #1
  48              		.loc 1 78 0
  49 0004 0030A0E3 		mov	r3, #0
  50              		.loc 1 77 0
  51 0008 0020C0E5 		strb	r2, [r0]
  52              		.loc 1 78 0
  53 000c 043080E5 		str	r3, [r0, #4]
  54              		.loc 1 82 0
  55 0010 100080E2 		add	r0, r0, #16
  56              	.LVL2:
  57 0014 FEFFFFEA 		b	chMtxInit
ARM GAS  /tmp/ccVMW02f.s 			page 2


  58              	.LVL3:
  59              		.cfi_endproc
  60              	.LFE8:
  61              		.size	i2cObjectInit, .-i2cObjectInit
  62              		.section	.text.i2cStart,"ax",%progbits
  63              		.align	2
  64              		.global	i2cStart
  65              		.type	i2cStart, %function
  66              	i2cStart:
  67              	.LFB9:
  68              		.loc 1 101 0
  69              		.cfi_startproc
  70              		@ args = 0, pretend = 0, frame = 0
  71              		@ frame_needed = 0, uses_anonymous_args = 0
  72              	.LVL4:
  73 0000 10402DE9 		stmfd	sp!, {r4, lr}
  74              		.cfi_def_cfa_offset 8
  75              		.cfi_offset 4, -8
  76              		.cfi_offset 14, -4
  77              		.loc 1 101 0
  78 0004 0040A0E1 		mov	r4, r0
  79              		.loc 1 109 0
  80              	@ 109 "../../os/hal/src/i2c.c" 1
  81 0008 9FF021E3 		msr     CPSR_c, #0x9F
  82              	@ 0 "" 2
  83              		.loc 1 110 0
  84 000c 041080E5 		str	r1, [r0, #4]
  85              		.loc 1 111 0
  86 0010 FEFFFFEB 		bl	i2c_lld_start
  87              	.LVL5:
  88              		.loc 1 112 0
  89 0014 0230A0E3 		mov	r3, #2
  90 0018 0030C4E5 		strb	r3, [r4]
  91              		.loc 1 113 0
  92              	@ 113 "../../os/hal/src/i2c.c" 1
  93 001c 1FF021E3 		msr     CPSR_c, #0x1F
  94              	@ 0 "" 2
  95 0020 1080BDE8 		ldmfd	sp!, {r4, pc}
  96              		.cfi_endproc
  97              	.LFE9:
  98              		.size	i2cStart, .-i2cStart
  99              		.section	.text.i2cStop,"ax",%progbits
 100              		.align	2
 101              		.global	i2cStop
 102              		.type	i2cStop, %function
 103              	i2cStop:
 104              	.LFB10:
 105              		.loc 1 123 0
 106              		.cfi_startproc
 107              		@ args = 0, pretend = 0, frame = 0
 108              		@ frame_needed = 0, uses_anonymous_args = 0
 109              	.LVL6:
 110 0000 10402DE9 		stmfd	sp!, {r4, lr}
 111              		.cfi_def_cfa_offset 8
 112              		.cfi_offset 4, -8
 113              		.cfi_offset 14, -4
 114              		.loc 1 123 0
ARM GAS  /tmp/ccVMW02f.s 			page 3


 115 0004 0040A0E1 		mov	r4, r0
 116              		.loc 1 131 0
 117              	@ 131 "../../os/hal/src/i2c.c" 1
 118 0008 9FF021E3 		msr     CPSR_c, #0x9F
 119              	@ 0 "" 2
 120              		.loc 1 132 0
 121 000c FEFFFFEB 		bl	i2c_lld_stop
 122              	.LVL7:
 123              		.loc 1 133 0
 124 0010 0130A0E3 		mov	r3, #1
 125 0014 0030C4E5 		strb	r3, [r4]
 126              		.loc 1 134 0
 127              	@ 134 "../../os/hal/src/i2c.c" 1
 128 0018 1FF021E3 		msr     CPSR_c, #0x1F
 129              	@ 0 "" 2
 130 001c 1080BDE8 		ldmfd	sp!, {r4, pc}
 131              		.cfi_endproc
 132              	.LFE10:
 133              		.size	i2cStop, .-i2cStop
 134              		.section	.text.i2cGetErrors,"ax",%progbits
 135              		.align	2
 136              		.global	i2cGetErrors
 137              		.type	i2cGetErrors, %function
 138              	i2cGetErrors:
 139              	.LFB11:
 140              		.loc 1 145 0
 141              		.cfi_startproc
 142              		@ args = 0, pretend = 0, frame = 0
 143              		@ frame_needed = 0, uses_anonymous_args = 0
 144              		@ link register save eliminated.
 145              	.LVL8:
 146              		.loc 1 150 0
 147 0000 080090E5 		ldr	r0, [r0, #8]
 148              	.LVL9:
 149 0004 1EFF2FE1 		bx	lr
 150              		.cfi_endproc
 151              	.LFE11:
 152              		.size	i2cGetErrors, .-i2cGetErrors
 153              		.section	.text.i2cMasterTransmitTimeout,"ax",%progbits
 154              		.align	2
 155              		.global	i2cMasterTransmitTimeout
 156              		.type	i2cMasterTransmitTimeout, %function
 157              	i2cMasterTransmitTimeout:
 158              	.LFB12:
 159              		.loc 1 184 0
 160              		.cfi_startproc
 161              		@ args = 12, pretend = 0, frame = 0
 162              		@ frame_needed = 0, uses_anonymous_args = 0
 163              	.LVL10:
 164 0000 F0402DE9 		stmfd	sp!, {r4, r5, r6, r7, lr}
 165              		.cfi_def_cfa_offset 20
 166              		.cfi_offset 4, -20
 167              		.cfi_offset 5, -16
 168              		.cfi_offset 6, -12
 169              		.cfi_offset 7, -8
 170              		.cfi_offset 14, -4
 171 0004 14D04DE2 		sub	sp, sp, #20
ARM GAS  /tmp/ccVMW02f.s 			page 4


 172              		.cfi_def_cfa_offset 40
 173              		.loc 1 184 0
 174 0008 0040A0E1 		mov	r4, r0
 175 000c 28709DE5 		ldr	r7, [sp, #40]
 176 0010 30609DE5 		ldr	r6, [sp, #48]
 177              		.loc 1 196 0
 178              	@ 196 "../../os/hal/src/i2c.c" 1
 179 0014 9FF021E3 		msr     CPSR_c, #0x9F
 180              	@ 0 "" 2
 181              		.loc 1 198 0
 182 0018 03E0A0E3 		mov	lr, #3
 183              		.loc 1 197 0
 184 001c 0050A0E3 		mov	r5, #0
 185              		.loc 1 199 0
 186 0020 2CC0DDE5 		ldrb	ip, [sp, #44]	@ zero_extendqisi2
 187 0024 00708DE5 		str	r7, [sp]
 188 0028 08608DE5 		str	r6, [sp, #8]
 189              		.loc 1 197 0
 190 002c 085080E5 		str	r5, [r0, #8]
 191              		.loc 1 198 0
 192 0030 00E0C0E5 		strb	lr, [r0]
 193              		.loc 1 199 0
 194 0034 04C08DE5 		str	ip, [sp, #4]
 195 0038 FEFFFFEB 		bl	i2c_lld_master_transmit_timeout
 196              	.LVL11:
 197              		.loc 1 201 0
 198 003c 010070E3 		cmn	r0, #1
 199              		.loc 1 202 0
 200 0040 0530A003 		moveq	r3, #5
 201              		.loc 1 204 0
 202 0044 0230A013 		movne	r3, #2
 203 0048 0030C4E5 		strb	r3, [r4]
 204              		.loc 1 205 0
 205              	@ 205 "../../os/hal/src/i2c.c" 1
 206 004c 1FF021E3 		msr     CPSR_c, #0x1F
 207              	@ 0 "" 2
 208              		.loc 1 207 0
 209 0050 14D08DE2 		add	sp, sp, #20
 210              		.cfi_def_cfa_offset 20
 211              		@ sp needed
 212 0054 F080BDE8 		ldmfd	sp!, {r4, r5, r6, r7, pc}
 213              		.cfi_endproc
 214              	.LFE12:
 215              		.size	i2cMasterTransmitTimeout, .-i2cMasterTransmitTimeout
 216              		.section	.text.i2cMasterReceiveTimeout,"ax",%progbits
 217              		.align	2
 218              		.global	i2cMasterReceiveTimeout
 219              		.type	i2cMasterReceiveTimeout, %function
 220              	i2cMasterReceiveTimeout:
 221              	.LFB13:
 222              		.loc 1 233 0
 223              		.cfi_startproc
 224              		@ args = 4, pretend = 0, frame = 0
 225              		@ frame_needed = 0, uses_anonymous_args = 0
 226              	.LVL12:
 227 0000 30402DE9 		stmfd	sp!, {r4, r5, lr}
 228              		.cfi_def_cfa_offset 12
ARM GAS  /tmp/ccVMW02f.s 			page 5


 229              		.cfi_offset 4, -12
 230              		.cfi_offset 5, -8
 231              		.cfi_offset 14, -4
 232 0004 0CD04DE2 		sub	sp, sp, #12
 233              		.cfi_def_cfa_offset 24
 234              		.loc 1 233 0
 235 0008 0040A0E1 		mov	r4, r0
 236 000c 18509DE5 		ldr	r5, [sp, #24]
 237              		.loc 1 245 0
 238              	@ 245 "../../os/hal/src/i2c.c" 1
 239 0010 9FF021E3 		msr     CPSR_c, #0x9F
 240              	@ 0 "" 2
 241              		.loc 1 246 0
 242 0014 00E0A0E3 		mov	lr, #0
 243              		.loc 1 247 0
 244 0018 04C0A0E3 		mov	ip, #4
 245              		.loc 1 248 0
 246 001c 00508DE5 		str	r5, [sp]
 247              		.loc 1 246 0
 248 0020 08E080E5 		str	lr, [r0, #8]
 249              		.loc 1 247 0
 250 0024 00C0C0E5 		strb	ip, [r0]
 251              		.loc 1 248 0
 252 0028 FEFFFFEB 		bl	i2c_lld_master_receive_timeout
 253              	.LVL13:
 254              		.loc 1 249 0
 255 002c 010070E3 		cmn	r0, #1
 256              		.loc 1 250 0
 257 0030 0530A003 		moveq	r3, #5
 258              		.loc 1 252 0
 259 0034 0230A013 		movne	r3, #2
 260 0038 0030C4E5 		strb	r3, [r4]
 261              		.loc 1 253 0
 262              	@ 253 "../../os/hal/src/i2c.c" 1
 263 003c 1FF021E3 		msr     CPSR_c, #0x1F
 264              	@ 0 "" 2
 265              		.loc 1 255 0
 266 0040 0CD08DE2 		add	sp, sp, #12
 267              		.cfi_def_cfa_offset 12
 268              		@ sp needed
 269 0044 3080BDE8 		ldmfd	sp!, {r4, r5, pc}
 270              		.cfi_endproc
 271              	.LFE13:
 272              		.size	i2cMasterReceiveTimeout, .-i2cMasterReceiveTimeout
 273              		.section	.text.i2cAcquireBus,"ax",%progbits
 274              		.align	2
 275              		.global	i2cAcquireBus
 276              		.type	i2cAcquireBus, %function
 277              	i2cAcquireBus:
 278              	.LFB14:
 279              		.loc 1 269 0
 280              		.cfi_startproc
 281              		@ args = 0, pretend = 0, frame = 0
 282              		@ frame_needed = 0, uses_anonymous_args = 0
 283              		@ link register save eliminated.
 284              	.LVL14:
 285              		.loc 1 274 0
ARM GAS  /tmp/ccVMW02f.s 			page 6


 286 0000 100080E2 		add	r0, r0, #16
 287              	.LVL15:
 288 0004 FEFFFFEA 		b	chMtxLock
 289              	.LVL16:
 290              		.cfi_endproc
 291              	.LFE14:
 292              		.size	i2cAcquireBus, .-i2cAcquireBus
 293              		.section	.text.i2cReleaseBus,"ax",%progbits
 294              		.align	2
 295              		.global	i2cReleaseBus
 296              		.type	i2cReleaseBus, %function
 297              	i2cReleaseBus:
 298              	.LFB15:
 299              		.loc 1 289 0
 300              		.cfi_startproc
 301              		@ args = 0, pretend = 0, frame = 0
 302              		@ frame_needed = 0, uses_anonymous_args = 0
 303              		@ link register save eliminated.
 304              	.LVL17:
 305              		.loc 1 294 0
 306 0000 FEFFFFEA 		b	chMtxUnlock
 307              	.LVL18:
 308              		.cfi_endproc
 309              	.LFE15:
 310              		.size	i2cReleaseBus, .-i2cReleaseBus
 311              		.text
 312              	.Letext0:
 313              		.file 2 "/usr/lib/gcc/arm-none-eabi/4.9.3/include/stddef.h"
 314              		.file 3 "/usr/include/newlib/machine/_default_types.h"
 315              		.file 4 "/usr/include/newlib/sys/_stdint.h"
 316              		.file 5 "../../os/ports/GCC/ARM/chtypes.h"
 317              		.file 6 "../../os/kernel/include/chlists.h"
 318              		.file 7 "../../os/kernel/include/chthreads.h"
 319              		.file 8 "../../os/ports/GCC/ARM/chcore.h"
 320              		.file 9 "../../os/kernel/include/chmtx.h"
 321              		.file 10 "../../os/hal/platforms/BCM2835/bcm2835.h"
 322              		.file 11 "../../os/hal/include/i2c.h"
 323              		.file 12 "../../os/hal/platforms/BCM2835/i2c_lld.h"
 324              		.section	.debug_info,"",%progbits
 325              	.Ldebug_info0:
 326 0000 D0080000 		.4byte	0x8d0
 327 0004 0400     		.2byte	0x4
 328 0006 00000000 		.4byte	.Ldebug_abbrev0
 329 000a 04       		.byte	0x4
 330 000b 01       		.uleb128 0x1
 331 000c 94040000 		.4byte	.LASF111
 332 0010 01       		.byte	0x1
 333 0011 C7000000 		.4byte	.LASF112
 334 0015 02040000 		.4byte	.LASF113
 335 0019 00000000 		.4byte	.Ldebug_ranges0+0
 336 001d 00000000 		.4byte	0
 337 0021 00000000 		.4byte	.Ldebug_line0
 338 0025 02       		.uleb128 0x2
 339 0026 04       		.byte	0x4
 340 0027 05       		.byte	0x5
 341 0028 696E7400 		.ascii	"int\000"
 342 002c 03       		.uleb128 0x3
ARM GAS  /tmp/ccVMW02f.s 			page 7


 343 002d 06000000 		.4byte	.LASF2
 344 0031 02       		.byte	0x2
 345 0032 D4       		.byte	0xd4
 346 0033 37000000 		.4byte	0x37
 347 0037 04       		.uleb128 0x4
 348 0038 04       		.byte	0x4
 349 0039 07       		.byte	0x7
 350 003a A7010000 		.4byte	.LASF0
 351 003e 04       		.uleb128 0x4
 352 003f 01       		.byte	0x1
 353 0040 06       		.byte	0x6
 354 0041 BB000000 		.4byte	.LASF1
 355 0045 03       		.uleb128 0x3
 356 0046 14000000 		.4byte	.LASF3
 357 004a 03       		.byte	0x3
 358 004b 1D       		.byte	0x1d
 359 004c 50000000 		.4byte	0x50
 360 0050 04       		.uleb128 0x4
 361 0051 01       		.byte	0x1
 362 0052 08       		.byte	0x8
 363 0053 17030000 		.4byte	.LASF4
 364 0057 04       		.uleb128 0x4
 365 0058 02       		.byte	0x2
 366 0059 05       		.byte	0x5
 367 005a 2F030000 		.4byte	.LASF5
 368 005e 03       		.uleb128 0x3
 369 005f AE030000 		.4byte	.LASF6
 370 0063 03       		.byte	0x3
 371 0064 2B       		.byte	0x2b
 372 0065 69000000 		.4byte	0x69
 373 0069 04       		.uleb128 0x4
 374 006a 02       		.byte	0x2
 375 006b 07       		.byte	0x7
 376 006c E3010000 		.4byte	.LASF7
 377 0070 03       		.uleb128 0x3
 378 0071 D5030000 		.4byte	.LASF8
 379 0075 03       		.byte	0x3
 380 0076 3F       		.byte	0x3f
 381 0077 7B000000 		.4byte	0x7b
 382 007b 04       		.uleb128 0x4
 383 007c 04       		.byte	0x4
 384 007d 05       		.byte	0x5
 385 007e 4A010000 		.4byte	.LASF9
 386 0082 03       		.uleb128 0x3
 387 0083 86010000 		.4byte	.LASF10
 388 0087 03       		.byte	0x3
 389 0088 41       		.byte	0x41
 390 0089 8D000000 		.4byte	0x8d
 391 008d 04       		.uleb128 0x4
 392 008e 04       		.byte	0x4
 393 008f 07       		.byte	0x7
 394 0090 C1010000 		.4byte	.LASF11
 395 0094 04       		.uleb128 0x4
 396 0095 08       		.byte	0x8
 397 0096 05       		.byte	0x5
 398 0097 AD000000 		.4byte	.LASF12
 399 009b 04       		.uleb128 0x4
ARM GAS  /tmp/ccVMW02f.s 			page 8


 400 009c 08       		.byte	0x8
 401 009d 07       		.byte	0x7
 402 009e 30000000 		.4byte	.LASF13
 403 00a2 03       		.uleb128 0x3
 404 00a3 66040000 		.4byte	.LASF14
 405 00a7 04       		.byte	0x4
 406 00a8 14       		.byte	0x14
 407 00a9 45000000 		.4byte	0x45
 408 00ad 03       		.uleb128 0x3
 409 00ae 6D010000 		.4byte	.LASF15
 410 00b2 04       		.byte	0x4
 411 00b3 1A       		.byte	0x1a
 412 00b4 5E000000 		.4byte	0x5e
 413 00b8 03       		.uleb128 0x3
 414 00b9 0F030000 		.4byte	.LASF16
 415 00bd 04       		.byte	0x4
 416 00be 1F       		.byte	0x1f
 417 00bf 70000000 		.4byte	0x70
 418 00c3 03       		.uleb128 0x3
 419 00c4 8B030000 		.4byte	.LASF17
 420 00c8 04       		.byte	0x4
 421 00c9 20       		.byte	0x20
 422 00ca 82000000 		.4byte	0x82
 423 00ce 03       		.uleb128 0x3
 424 00cf 0C020000 		.4byte	.LASF18
 425 00d3 05       		.byte	0x5
 426 00d4 2A       		.byte	0x2a
 427 00d5 A2000000 		.4byte	0xa2
 428 00d9 03       		.uleb128 0x3
 429 00da 53010000 		.4byte	.LASF19
 430 00de 05       		.byte	0x5
 431 00df 2B       		.byte	0x2b
 432 00e0 A2000000 		.4byte	0xa2
 433 00e4 03       		.uleb128 0x3
 434 00e5 B2020000 		.4byte	.LASF20
 435 00e9 05       		.byte	0x5
 436 00ea 2C       		.byte	0x2c
 437 00eb A2000000 		.4byte	0xa2
 438 00ef 03       		.uleb128 0x3
 439 00f0 25010000 		.4byte	.LASF21
 440 00f4 05       		.byte	0x5
 441 00f5 2D       		.byte	0x2d
 442 00f6 A2000000 		.4byte	0xa2
 443 00fa 03       		.uleb128 0x3
 444 00fb DA020000 		.4byte	.LASF22
 445 00ff 05       		.byte	0x5
 446 0100 2E       		.byte	0x2e
 447 0101 C3000000 		.4byte	0xc3
 448 0105 03       		.uleb128 0x3
 449 0106 00020000 		.4byte	.LASF23
 450 010a 05       		.byte	0x5
 451 010b 2F       		.byte	0x2f
 452 010c B8000000 		.4byte	0xb8
 453 0110 03       		.uleb128 0x3
 454 0111 2A020000 		.4byte	.LASF24
 455 0115 05       		.byte	0x5
 456 0116 31       		.byte	0x31
ARM GAS  /tmp/ccVMW02f.s 			page 9


 457 0117 C3000000 		.4byte	0xc3
 458 011b 03       		.uleb128 0x3
 459 011c C0030000 		.4byte	.LASF25
 460 0120 05       		.byte	0x5
 461 0121 33       		.byte	0x33
 462 0122 C3000000 		.4byte	0xc3
 463 0126 03       		.uleb128 0x3
 464 0127 6E030000 		.4byte	.LASF26
 465 012b 06       		.byte	0x6
 466 012c 23       		.byte	0x23
 467 012d 31010000 		.4byte	0x131
 468 0131 05       		.uleb128 0x5
 469 0132 6E030000 		.4byte	.LASF26
 470 0136 44       		.byte	0x44
 471 0137 07       		.byte	0x7
 472 0138 57       		.byte	0x57
 473 0139 22020000 		.4byte	0x222
 474 013d 06       		.uleb128 0x6
 475 013e 5F030000 		.4byte	.LASF27
 476 0142 07       		.byte	0x7
 477 0143 58       		.byte	0x58
 478 0144 43020000 		.4byte	0x243
 479 0148 00       		.byte	0
 480 0149 06       		.uleb128 0x6
 481 014a C5020000 		.4byte	.LASF28
 482 014e 07       		.byte	0x7
 483 014f 5A       		.byte	0x5a
 484 0150 43020000 		.4byte	0x243
 485 0154 04       		.byte	0x4
 486 0155 06       		.uleb128 0x6
 487 0156 86000000 		.4byte	.LASF29
 488 015a 07       		.byte	0x7
 489 015b 5C       		.byte	0x5c
 490 015c FA000000 		.4byte	0xfa
 491 0160 08       		.byte	0x8
 492 0161 06       		.uleb128 0x6
 493 0162 49050000 		.4byte	.LASF30
 494 0166 07       		.byte	0x7
 495 0167 5D       		.byte	0x5d
 496 0168 F3020000 		.4byte	0x2f3
 497 016c 0C       		.byte	0xc
 498 016d 06       		.uleb128 0x6
 499 016e 76010000 		.4byte	.LASF31
 500 0172 07       		.byte	0x7
 501 0173 5F       		.byte	0x5f
 502 0174 43020000 		.4byte	0x243
 503 0178 10       		.byte	0x10
 504 0179 06       		.uleb128 0x6
 505 017a 7B020000 		.4byte	.LASF32
 506 017e 07       		.byte	0x7
 507 017f 60       		.byte	0x60
 508 0180 43020000 		.4byte	0x243
 509 0184 14       		.byte	0x14
 510 0185 06       		.uleb128 0x6
 511 0186 8D040000 		.4byte	.LASF33
 512 018a 07       		.byte	0x7
 513 018b 67       		.byte	0x67
ARM GAS  /tmp/ccVMW02f.s 			page 10


 514 018c 8E030000 		.4byte	0x38e
 515 0190 18       		.byte	0x18
 516 0191 06       		.uleb128 0x6
 517 0192 39030000 		.4byte	.LASF34
 518 0196 07       		.byte	0x7
 519 0197 72       		.byte	0x72
 520 0198 D9000000 		.4byte	0xd9
 521 019c 1C       		.byte	0x1c
 522 019d 06       		.uleb128 0x6
 523 019e 66030000 		.4byte	.LASF35
 524 01a2 07       		.byte	0x7
 525 01a3 76       		.byte	0x76
 526 01a4 CE000000 		.4byte	0xce
 527 01a8 1D       		.byte	0x1d
 528 01a9 06       		.uleb128 0x6
 529 01aa 58040000 		.4byte	.LASF36
 530 01ae 07       		.byte	0x7
 531 01af 7B       		.byte	0x7b
 532 01b0 E4000000 		.4byte	0xe4
 533 01b4 1E       		.byte	0x1e
 534 01b5 06       		.uleb128 0x6
 535 01b6 41030000 		.4byte	.LASF37
 536 01ba 07       		.byte	0x7
 537 01bb 81       		.byte	0x81
 538 01bc EF000000 		.4byte	0xef
 539 01c0 1F       		.byte	0x1f
 540 01c1 06       		.uleb128 0x6
 541 01c2 E9030000 		.4byte	.LASF38
 542 01c6 07       		.byte	0x7
 543 01c7 88       		.byte	0x88
 544 01c8 12030000 		.4byte	0x312
 545 01cc 20       		.byte	0x20
 546 01cd 07       		.uleb128 0x7
 547 01ce 705F7500 		.ascii	"p_u\000"
 548 01d2 07       		.byte	0x7
 549 01d3 AD       		.byte	0xad
 550 01d4 59030000 		.4byte	0x359
 551 01d8 24       		.byte	0x24
 552 01d9 06       		.uleb128 0x6
 553 01da 4F050000 		.4byte	.LASF39
 554 01de 07       		.byte	0x7
 555 01df B2       		.byte	0xb2
 556 01e0 69020000 		.4byte	0x269
 557 01e4 28       		.byte	0x28
 558 01e5 06       		.uleb128 0x6
 559 01e6 F7030000 		.4byte	.LASF40
 560 01ea 07       		.byte	0x7
 561 01eb B8       		.byte	0xb8
 562 01ec 49020000 		.4byte	0x249
 563 01f0 2C       		.byte	0x2c
 564 01f1 06       		.uleb128 0x6
 565 01f2 00000000 		.4byte	.LASF41
 566 01f6 07       		.byte	0x7
 567 01f7 BC       		.byte	0xbc
 568 01f8 05010000 		.4byte	0x105
 569 01fc 34       		.byte	0x34
 570 01fd 06       		.uleb128 0x6
ARM GAS  /tmp/ccVMW02f.s 			page 11


 571 01fe 80030000 		.4byte	.LASF42
 572 0202 07       		.byte	0x7
 573 0203 C2       		.byte	0xc2
 574 0204 10010000 		.4byte	0x110
 575 0208 38       		.byte	0x38
 576 0209 06       		.uleb128 0x6
 577 020a 25030000 		.4byte	.LASF43
 578 020e 07       		.byte	0x7
 579 020f C9       		.byte	0xc9
 580 0210 A0030000 		.4byte	0x3a0
 581 0214 3C       		.byte	0x3c
 582 0215 06       		.uleb128 0x6
 583 0216 CA030000 		.4byte	.LASF44
 584 021a 07       		.byte	0x7
 585 021b CD       		.byte	0xcd
 586 021c FA000000 		.4byte	0xfa
 587 0220 40       		.byte	0x40
 588 0221 00       		.byte	0
 589 0222 08       		.uleb128 0x8
 590 0223 08       		.byte	0x8
 591 0224 06       		.byte	0x6
 592 0225 5A       		.byte	0x5a
 593 0226 43020000 		.4byte	0x243
 594 022a 06       		.uleb128 0x6
 595 022b 5F030000 		.4byte	.LASF27
 596 022f 06       		.byte	0x6
 597 0230 5B       		.byte	0x5b
 598 0231 43020000 		.4byte	0x243
 599 0235 00       		.byte	0
 600 0236 06       		.uleb128 0x6
 601 0237 C5020000 		.4byte	.LASF28
 602 023b 06       		.byte	0x6
 603 023c 5D       		.byte	0x5d
 604 023d 43020000 		.4byte	0x243
 605 0241 04       		.byte	0x4
 606 0242 00       		.byte	0
 607 0243 09       		.uleb128 0x9
 608 0244 04       		.byte	0x4
 609 0245 26010000 		.4byte	0x126
 610 0249 03       		.uleb128 0x3
 611 024a 95020000 		.4byte	.LASF45
 612 024e 06       		.byte	0x6
 613 024f 5F       		.byte	0x5f
 614 0250 22020000 		.4byte	0x222
 615 0254 08       		.uleb128 0x8
 616 0255 04       		.byte	0x4
 617 0256 06       		.byte	0x6
 618 0257 64       		.byte	0x64
 619 0258 69020000 		.4byte	0x269
 620 025c 06       		.uleb128 0x6
 621 025d 5F030000 		.4byte	.LASF27
 622 0261 06       		.byte	0x6
 623 0262 66       		.byte	0x66
 624 0263 43020000 		.4byte	0x243
 625 0267 00       		.byte	0
 626 0268 00       		.byte	0
 627 0269 03       		.uleb128 0x3
ARM GAS  /tmp/ccVMW02f.s 			page 12


 628 026a 1E020000 		.4byte	.LASF46
 629 026e 06       		.byte	0x6
 630 026f 69       		.byte	0x69
 631 0270 54020000 		.4byte	0x254
 632 0274 03       		.uleb128 0x3
 633 0275 91010000 		.4byte	.LASF47
 634 0279 08       		.byte	0x8
 635 027a A2       		.byte	0xa2
 636 027b 7F020000 		.4byte	0x27f
 637 027f 0A       		.uleb128 0xa
 638 0280 04       		.byte	0x4
 639 0281 05       		.uleb128 0x5
 640 0282 F0030000 		.4byte	.LASF48
 641 0286 24       		.byte	0x24
 642 0287 08       		.byte	0x8
 643 0288 B9       		.byte	0xb9
 644 0289 F3020000 		.4byte	0x2f3
 645 028d 07       		.uleb128 0x7
 646 028e 723400   		.ascii	"r4\000"
 647 0291 08       		.byte	0x8
 648 0292 BA       		.byte	0xba
 649 0293 74020000 		.4byte	0x274
 650 0297 00       		.byte	0
 651 0298 07       		.uleb128 0x7
 652 0299 723500   		.ascii	"r5\000"
 653 029c 08       		.byte	0x8
 654 029d BB       		.byte	0xbb
 655 029e 74020000 		.4byte	0x274
 656 02a2 04       		.byte	0x4
 657 02a3 07       		.uleb128 0x7
 658 02a4 723600   		.ascii	"r6\000"
 659 02a7 08       		.byte	0x8
 660 02a8 BC       		.byte	0xbc
 661 02a9 74020000 		.4byte	0x274
 662 02ad 08       		.byte	0x8
 663 02ae 07       		.uleb128 0x7
 664 02af 723700   		.ascii	"r7\000"
 665 02b2 08       		.byte	0x8
 666 02b3 BD       		.byte	0xbd
 667 02b4 74020000 		.4byte	0x274
 668 02b8 0C       		.byte	0xc
 669 02b9 07       		.uleb128 0x7
 670 02ba 723800   		.ascii	"r8\000"
 671 02bd 08       		.byte	0x8
 672 02be BE       		.byte	0xbe
 673 02bf 74020000 		.4byte	0x274
 674 02c3 10       		.byte	0x10
 675 02c4 07       		.uleb128 0x7
 676 02c5 723900   		.ascii	"r9\000"
 677 02c8 08       		.byte	0x8
 678 02c9 BF       		.byte	0xbf
 679 02ca 74020000 		.4byte	0x274
 680 02ce 14       		.byte	0x14
 681 02cf 07       		.uleb128 0x7
 682 02d0 72313000 		.ascii	"r10\000"
 683 02d4 08       		.byte	0x8
 684 02d5 C0       		.byte	0xc0
ARM GAS  /tmp/ccVMW02f.s 			page 13


 685 02d6 74020000 		.4byte	0x274
 686 02da 18       		.byte	0x18
 687 02db 07       		.uleb128 0x7
 688 02dc 72313100 		.ascii	"r11\000"
 689 02e0 08       		.byte	0x8
 690 02e1 C1       		.byte	0xc1
 691 02e2 74020000 		.4byte	0x274
 692 02e6 1C       		.byte	0x1c
 693 02e7 07       		.uleb128 0x7
 694 02e8 6C7200   		.ascii	"lr\000"
 695 02eb 08       		.byte	0x8
 696 02ec C2       		.byte	0xc2
 697 02ed 74020000 		.4byte	0x274
 698 02f1 20       		.byte	0x20
 699 02f2 00       		.byte	0
 700 02f3 05       		.uleb128 0x5
 701 02f4 DB010000 		.4byte	.LASF49
 702 02f8 04       		.byte	0x4
 703 02f9 08       		.byte	0x8
 704 02fa CA       		.byte	0xca
 705 02fb 0C030000 		.4byte	0x30c
 706 02ff 07       		.uleb128 0x7
 707 0300 72313300 		.ascii	"r13\000"
 708 0304 08       		.byte	0x8
 709 0305 CB       		.byte	0xcb
 710 0306 0C030000 		.4byte	0x30c
 711 030a 00       		.byte	0
 712 030b 00       		.byte	0
 713 030c 09       		.uleb128 0x9
 714 030d 04       		.byte	0x4
 715 030e 81020000 		.4byte	0x281
 716 0312 0B       		.uleb128 0xb
 717 0313 1B010000 		.4byte	0x11b
 718 0317 05       		.uleb128 0x5
 719 0318 36020000 		.4byte	.LASF50
 720 031c 10       		.byte	0x10
 721 031d 09       		.byte	0x9
 722 031e 25       		.byte	0x25
 723 031f 48030000 		.4byte	0x348
 724 0323 06       		.uleb128 0x6
 725 0324 DE000000 		.4byte	.LASF51
 726 0328 09       		.byte	0x9
 727 0329 26       		.byte	0x26
 728 032a 49020000 		.4byte	0x249
 729 032e 00       		.byte	0
 730 032f 06       		.uleb128 0x6
 731 0330 41050000 		.4byte	.LASF52
 732 0334 09       		.byte	0x9
 733 0335 28       		.byte	0x28
 734 0336 43020000 		.4byte	0x243
 735 033a 08       		.byte	0x8
 736 033b 06       		.uleb128 0x6
 737 033c B9030000 		.4byte	.LASF53
 738 0340 09       		.byte	0x9
 739 0341 2A       		.byte	0x2a
 740 0342 48030000 		.4byte	0x348
 741 0346 0C       		.byte	0xc
ARM GAS  /tmp/ccVMW02f.s 			page 14


 742 0347 00       		.byte	0
 743 0348 09       		.uleb128 0x9
 744 0349 04       		.byte	0x4
 745 034a 17030000 		.4byte	0x317
 746 034e 03       		.uleb128 0x3
 747 034f 36020000 		.4byte	.LASF50
 748 0353 09       		.byte	0x9
 749 0354 2C       		.byte	0x2c
 750 0355 17030000 		.4byte	0x317
 751 0359 0C       		.uleb128 0xc
 752 035a 04       		.byte	0x4
 753 035b 07       		.byte	0x7
 754 035c 8F       		.byte	0x8f
 755 035d 8E030000 		.4byte	0x38e
 756 0361 0D       		.uleb128 0xd
 757 0362 0D000000 		.4byte	.LASF54
 758 0366 07       		.byte	0x7
 759 0367 96       		.byte	0x96
 760 0368 05010000 		.4byte	0x105
 761 036c 0D       		.uleb128 0xd
 762 036d 61000000 		.4byte	.LASF55
 763 0371 07       		.byte	0x7
 764 0372 9D       		.byte	0x9d
 765 0373 05010000 		.4byte	0x105
 766 0377 0D       		.uleb128 0xd
 767 0378 86040000 		.4byte	.LASF56
 768 037c 07       		.byte	0x7
 769 037d A4       		.byte	0xa4
 770 037e 7F020000 		.4byte	0x27f
 771 0382 0D       		.uleb128 0xd
 772 0383 58030000 		.4byte	.LASF57
 773 0387 07       		.byte	0x7
 774 0388 AB       		.byte	0xab
 775 0389 10010000 		.4byte	0x110
 776 038d 00       		.byte	0
 777 038e 09       		.uleb128 0x9
 778 038f 04       		.byte	0x4
 779 0390 94030000 		.4byte	0x394
 780 0394 0E       		.uleb128 0xe
 781 0395 99030000 		.4byte	0x399
 782 0399 04       		.uleb128 0x4
 783 039a 01       		.byte	0x1
 784 039b 08       		.byte	0x8
 785 039c A2030000 		.4byte	.LASF58
 786 03a0 09       		.uleb128 0x9
 787 03a1 04       		.byte	0x4
 788 03a2 4E030000 		.4byte	0x34e
 789 03a6 04       		.uleb128 0x4
 790 03a7 04       		.byte	0x4
 791 03a8 07       		.byte	0x7
 792 03a9 52020000 		.4byte	.LASF59
 793 03ad 09       		.uleb128 0x9
 794 03ae 04       		.byte	0x4
 795 03af A2000000 		.4byte	0xa2
 796 03b3 09       		.uleb128 0x9
 797 03b4 04       		.byte	0x4
 798 03b5 B9030000 		.4byte	0x3b9
ARM GAS  /tmp/ccVMW02f.s 			page 15


 799 03b9 0E       		.uleb128 0xe
 800 03ba A2000000 		.4byte	0xa2
 801 03be 05       		.uleb128 0x5
 802 03bf 1E000000 		.4byte	.LASF60
 803 03c3 20       		.byte	0x20
 804 03c4 0A       		.byte	0xa
 805 03c5 FD       		.byte	0xfd
 806 03c6 31040000 		.4byte	0x431
 807 03ca 06       		.uleb128 0x6
 808 03cb 7E010000 		.4byte	.LASF61
 809 03cf 0A       		.byte	0xa
 810 03d0 FE       		.byte	0xfe
 811 03d1 31040000 		.4byte	0x431
 812 03d5 00       		.byte	0
 813 03d6 06       		.uleb128 0x6
 814 03d7 5F040000 		.4byte	.LASF62
 815 03db 0A       		.byte	0xa
 816 03dc FF       		.byte	0xff
 817 03dd 31040000 		.4byte	0x431
 818 03e1 04       		.byte	0x4
 819 03e2 0F       		.uleb128 0xf
 820 03e3 28050000 		.4byte	.LASF63
 821 03e7 0A       		.byte	0xa
 822 03e8 0001     		.2byte	0x100
 823 03ea 31040000 		.4byte	0x431
 824 03ee 08       		.byte	0x8
 825 03ef 0F       		.uleb128 0xf
 826 03f0 9A010000 		.4byte	.LASF64
 827 03f4 0A       		.byte	0xa
 828 03f5 0101     		.2byte	0x101
 829 03f7 31040000 		.4byte	0x431
 830 03fb 0C       		.byte	0xc
 831 03fc 0F       		.uleb128 0xf
 832 03fd 7D000000 		.4byte	.LASF65
 833 0401 0A       		.byte	0xa
 834 0402 0201     		.2byte	0x102
 835 0404 31040000 		.4byte	0x431
 836 0408 10       		.byte	0x10
 837 0409 0F       		.uleb128 0xf
 838 040a 5B020000 		.4byte	.LASF66
 839 040e 0A       		.byte	0xa
 840 040f 0301     		.2byte	0x103
 841 0411 31040000 		.4byte	0x431
 842 0415 14       		.byte	0x14
 843 0416 0F       		.uleb128 0xf
 844 0417 63010000 		.4byte	.LASF67
 845 041b 0A       		.byte	0xa
 846 041c 0401     		.2byte	0x104
 847 041e 31040000 		.4byte	0x431
 848 0422 18       		.byte	0x18
 849 0423 0F       		.uleb128 0xf
 850 0424 59050000 		.4byte	.LASF68
 851 0428 0A       		.byte	0xa
 852 0429 0501     		.2byte	0x105
 853 042b 31040000 		.4byte	0x431
 854 042f 1C       		.byte	0x1c
 855 0430 00       		.byte	0
ARM GAS  /tmp/ccVMW02f.s 			page 16


 856 0431 0B       		.uleb128 0xb
 857 0432 37000000 		.4byte	0x37
 858 0436 10       		.uleb128 0x10
 859 0437 1E000000 		.4byte	.LASF60
 860 043b 0A       		.byte	0xa
 861 043c 0801     		.2byte	0x108
 862 043e BE030000 		.4byte	0x3be
 863 0442 11       		.uleb128 0x11
 864 0443 01       		.byte	0x1
 865 0444 0B       		.byte	0xb
 866 0445 54       		.byte	0x54
 867 0446 6F040000 		.4byte	0x46f
 868 044a 12       		.uleb128 0x12
 869 044b 2F010000 		.4byte	.LASF69
 870 044f 00       		.sleb128 0
 871 0450 12       		.uleb128 0x12
 872 0451 49020000 		.4byte	.LASF70
 873 0455 01       		.sleb128 1
 874 0456 12       		.uleb128 0x12
 875 0457 DF030000 		.4byte	.LASF71
 876 045b 02       		.sleb128 2
 877 045c 12       		.uleb128 0x12
 878 045d E2020000 		.4byte	.LASF72
 879 0461 03       		.sleb128 3
 880 0462 12       		.uleb128 0x12
 881 0463 94030000 		.4byte	.LASF73
 882 0467 04       		.sleb128 4
 883 0468 12       		.uleb128 0x12
 884 0469 75030000 		.4byte	.LASF74
 885 046d 05       		.sleb128 5
 886 046e 00       		.byte	0
 887 046f 03       		.uleb128 0x3
 888 0470 BA020000 		.4byte	.LASF75
 889 0474 0B       		.byte	0xb
 890 0475 5B       		.byte	0x5b
 891 0476 42040000 		.4byte	0x442
 892 047a 03       		.uleb128 0x3
 893 047b F6010000 		.4byte	.LASF76
 894 047f 0C       		.byte	0xc
 895 0480 38       		.byte	0x38
 896 0481 85040000 		.4byte	0x485
 897 0485 05       		.uleb128 0x5
 898 0486 F6010000 		.4byte	.LASF76
 899 048a 40       		.byte	0x40
 900 048b 0C       		.byte	0xc
 901 048c 62       		.byte	0x62
 902 048d 2E050000 		.4byte	0x52e
 903 0491 06       		.uleb128 0x6
 904 0492 44010000 		.4byte	.LASF77
 905 0496 0C       		.byte	0xc
 906 0497 64       		.byte	0x64
 907 0498 6F040000 		.4byte	0x46f
 908 049c 00       		.byte	0
 909 049d 06       		.uleb128 0x6
 910 049e A7030000 		.4byte	.LASF78
 911 04a2 0C       		.byte	0xc
 912 04a3 66       		.byte	0x66
ARM GAS  /tmp/ccVMW02f.s 			page 17


 913 04a4 6A050000 		.4byte	0x56a
 914 04a8 04       		.byte	0x4
 915 04a9 06       		.uleb128 0x6
 916 04aa BA010000 		.4byte	.LASF79
 917 04ae 0C       		.byte	0xc
 918 04af 68       		.byte	0x68
 919 04b0 2E050000 		.4byte	0x52e
 920 04b4 08       		.byte	0x8
 921 04b5 06       		.uleb128 0x6
 922 04b6 A6000000 		.4byte	.LASF80
 923 04ba 0C       		.byte	0xc
 924 04bb 6A       		.byte	0x6a
 925 04bc 75050000 		.4byte	0x575
 926 04c0 0C       		.byte	0xc
 927 04c1 06       		.uleb128 0x6
 928 04c2 FB020000 		.4byte	.LASF81
 929 04c6 0C       		.byte	0xc
 930 04c7 6D       		.byte	0x6d
 931 04c8 4E030000 		.4byte	0x34e
 932 04cc 10       		.byte	0x10
 933 04cd 06       		.uleb128 0x6
 934 04ce 5C010000 		.4byte	.LASF82
 935 04d2 0C       		.byte	0xc
 936 04d3 77       		.byte	0x77
 937 04d4 43020000 		.4byte	0x243
 938 04d8 20       		.byte	0x20
 939 04d9 06       		.uleb128 0x6
 940 04da 53000000 		.4byte	.LASF83
 941 04de 0C       		.byte	0xc
 942 04df 7B       		.byte	0x7b
 943 04e0 39050000 		.4byte	0x539
 944 04e4 24       		.byte	0x24
 945 04e5 06       		.uleb128 0x6
 946 04e6 B4010000 		.4byte	.LASF84
 947 04ea 0C       		.byte	0xc
 948 04eb 7F       		.byte	0x7f
 949 04ec B3030000 		.4byte	0x3b3
 950 04f0 28       		.byte	0x28
 951 04f1 06       		.uleb128 0x6
 952 04f2 A2020000 		.4byte	.LASF85
 953 04f6 0C       		.byte	0xc
 954 04f7 83       		.byte	0x83
 955 04f8 2C000000 		.4byte	0x2c
 956 04fc 2C       		.byte	0x2c
 957 04fd 06       		.uleb128 0x6
 958 04fe 45040000 		.4byte	.LASF86
 959 0502 0C       		.byte	0xc
 960 0503 87       		.byte	0x87
 961 0504 2C000000 		.4byte	0x2c
 962 0508 30       		.byte	0x30
 963 0509 06       		.uleb128 0x6
 964 050a 2A000000 		.4byte	.LASF87
 965 050e 0C       		.byte	0xc
 966 050f 8B       		.byte	0x8b
 967 0510 AD030000 		.4byte	0x3ad
 968 0514 34       		.byte	0x34
 969 0515 06       		.uleb128 0x6
ARM GAS  /tmp/ccVMW02f.s 			page 18


 970 0516 83020000 		.4byte	.LASF88
 971 051a 0C       		.byte	0xc
 972 051b 8F       		.byte	0x8f
 973 051c 2C000000 		.4byte	0x2c
 974 0520 38       		.byte	0x38
 975 0521 06       		.uleb128 0x6
 976 0522 06020000 		.4byte	.LASF89
 977 0526 0C       		.byte	0xc
 978 0527 93       		.byte	0x93
 979 0528 2C000000 		.4byte	0x2c
 980 052c 3C       		.byte	0x3c
 981 052d 00       		.byte	0
 982 052e 03       		.uleb128 0x3
 983 052f F0020000 		.4byte	.LASF90
 984 0533 0C       		.byte	0xc
 985 0534 42       		.byte	0x42
 986 0535 C3000000 		.4byte	0xc3
 987 0539 03       		.uleb128 0x3
 988 053a 3A010000 		.4byte	.LASF91
 989 053e 0C       		.byte	0xc
 990 053f 48       		.byte	0x48
 991 0540 AD000000 		.4byte	0xad
 992 0544 09       		.uleb128 0x9
 993 0545 04       		.byte	0x4
 994 0546 7A040000 		.4byte	0x47a
 995 054a 08       		.uleb128 0x8
 996 054b 04       		.byte	0x4
 997 054c 0C       		.byte	0xc
 998 054d 57       		.byte	0x57
 999 054e 5F050000 		.4byte	0x55f
 1000 0552 06       		.uleb128 0x6
 1001 0553 68020000 		.4byte	.LASF92
 1002 0557 0C       		.byte	0xc
 1003 0558 59       		.byte	0x59
 1004 0559 C3000000 		.4byte	0xc3
 1005 055d 00       		.byte	0
 1006 055e 00       		.byte	0
 1007 055f 03       		.uleb128 0x3
 1008 0560 8B020000 		.4byte	.LASF93
 1009 0564 0C       		.byte	0xc
 1010 0565 5B       		.byte	0x5b
 1011 0566 4A050000 		.4byte	0x54a
 1012 056a 09       		.uleb128 0x9
 1013 056b 04       		.byte	0x4
 1014 056c 70050000 		.4byte	0x570
 1015 0570 0E       		.uleb128 0xe
 1016 0571 5F050000 		.4byte	0x55f
 1017 0575 09       		.uleb128 0x9
 1018 0576 04       		.byte	0x4
 1019 0577 36040000 		.4byte	0x436
 1020 057b 13       		.uleb128 0x13
 1021 057c 20050000 		.4byte	.LASF94
 1022 0580 01       		.byte	0x1
 1023 0581 40       		.byte	0x40
 1024 0582 00000000 		.4byte	.LFB7
 1025 0586 04000000 		.4byte	.LFE7-.LFB7
 1026 058a 01       		.uleb128 0x1
ARM GAS  /tmp/ccVMW02f.s 			page 19


 1027 058b 9C       		.byte	0x9c
 1028 058c 9A050000 		.4byte	0x59a
 1029 0590 14       		.uleb128 0x14
 1030 0591 04000000 		.4byte	.LVL0
 1031 0595 21080000 		.4byte	0x821
 1032 0599 00       		.byte	0
 1033 059a 13       		.uleb128 0x13
 1034 059b 33050000 		.4byte	.LASF95
 1035 059f 01       		.byte	0x1
 1036 05a0 4B       		.byte	0x4b
 1037 05a1 00000000 		.4byte	.LFB8
 1038 05a5 18000000 		.4byte	.LFE8-.LFB8
 1039 05a9 01       		.uleb128 0x1
 1040 05aa 9C       		.byte	0x9c
 1041 05ab D2050000 		.4byte	0x5d2
 1042 05af 15       		.uleb128 0x15
 1043 05b0 78000000 		.4byte	.LASF97
 1044 05b4 01       		.byte	0x1
 1045 05b5 4B       		.byte	0x4b
 1046 05b6 44050000 		.4byte	0x544
 1047 05ba 00000000 		.4byte	.LLST0
 1048 05be 16       		.uleb128 0x16
 1049 05bf 18000000 		.4byte	.LVL3
 1050 05c3 28080000 		.4byte	0x828
 1051 05c7 17       		.uleb128 0x17
 1052 05c8 01       		.uleb128 0x1
 1053 05c9 50       		.byte	0x50
 1054 05ca 05       		.uleb128 0x5
 1055 05cb F3       		.byte	0xf3
 1056 05cc 01       		.uleb128 0x1
 1057 05cd 50       		.byte	0x50
 1058 05ce 23       		.byte	0x23
 1059 05cf 10       		.uleb128 0x10
 1060 05d0 00       		.byte	0
 1061 05d1 00       		.byte	0
 1062 05d2 13       		.uleb128 0x13
 1063 05d3 58000000 		.4byte	.LASF96
 1064 05d7 01       		.byte	0x1
 1065 05d8 65       		.byte	0x65
 1066 05d9 00000000 		.4byte	.LFB9
 1067 05dd 24000000 		.4byte	.LFE9-.LFB9
 1068 05e1 01       		.uleb128 0x1
 1069 05e2 9C       		.byte	0x9c
 1070 05e3 16060000 		.4byte	0x616
 1071 05e7 15       		.uleb128 0x15
 1072 05e8 78000000 		.4byte	.LASF97
 1073 05ec 01       		.byte	0x1
 1074 05ed 65       		.byte	0x65
 1075 05ee 44050000 		.4byte	0x544
 1076 05f2 2E000000 		.4byte	.LLST1
 1077 05f6 15       		.uleb128 0x15
 1078 05f7 A7030000 		.4byte	.LASF78
 1079 05fb 01       		.byte	0x1
 1080 05fc 65       		.byte	0x65
 1081 05fd 6A050000 		.4byte	0x56a
 1082 0601 4C000000 		.4byte	.LLST2
 1083 0605 18       		.uleb128 0x18
ARM GAS  /tmp/ccVMW02f.s 			page 20


 1084 0606 14000000 		.4byte	.LVL5
 1085 060a 39080000 		.4byte	0x839
 1086 060e 17       		.uleb128 0x17
 1087 060f 01       		.uleb128 0x1
 1088 0610 50       		.byte	0x50
 1089 0611 02       		.uleb128 0x2
 1090 0612 74       		.byte	0x74
 1091 0613 00       		.sleb128 0
 1092 0614 00       		.byte	0
 1093 0615 00       		.byte	0
 1094 0616 13       		.uleb128 0x13
 1095 0617 AA020000 		.4byte	.LASF98
 1096 061b 01       		.byte	0x1
 1097 061c 7B       		.byte	0x7b
 1098 061d 00000000 		.4byte	.LFB10
 1099 0621 20000000 		.4byte	.LFE10-.LFB10
 1100 0625 01       		.uleb128 0x1
 1101 0626 9C       		.byte	0x9c
 1102 0627 4B060000 		.4byte	0x64b
 1103 062b 15       		.uleb128 0x15
 1104 062c 78000000 		.4byte	.LASF97
 1105 0630 01       		.byte	0x1
 1106 0631 7B       		.byte	0x7b
 1107 0632 44050000 		.4byte	0x544
 1108 0636 6D000000 		.4byte	.LLST3
 1109 063a 18       		.uleb128 0x18
 1110 063b 10000000 		.4byte	.LVL7
 1111 063f 4A080000 		.4byte	0x84a
 1112 0643 17       		.uleb128 0x17
 1113 0644 01       		.uleb128 0x1
 1114 0645 50       		.byte	0x50
 1115 0646 02       		.uleb128 0x2
 1116 0647 74       		.byte	0x74
 1117 0648 00       		.sleb128 0
 1118 0649 00       		.byte	0
 1119 064a 00       		.byte	0
 1120 064b 19       		.uleb128 0x19
 1121 064c 4B030000 		.4byte	.LASF99
 1122 0650 01       		.byte	0x1
 1123 0651 91       		.byte	0x91
 1124 0652 2E050000 		.4byte	0x52e
 1125 0656 00000000 		.4byte	.LFB11
 1126 065a 08000000 		.4byte	.LFE11-.LFB11
 1127 065e 01       		.uleb128 0x1
 1128 065f 9C       		.byte	0x9c
 1129 0660 74060000 		.4byte	0x674
 1130 0664 15       		.uleb128 0x15
 1131 0665 78000000 		.4byte	.LASF97
 1132 0669 01       		.byte	0x1
 1133 066a 91       		.byte	0x91
 1134 066b 44050000 		.4byte	0x544
 1135 066f 8B000000 		.4byte	.LLST4
 1136 0673 00       		.byte	0
 1137 0674 19       		.uleb128 0x19
 1138 0675 8D000000 		.4byte	.LASF100
 1139 0679 01       		.byte	0x1
 1140 067a B2       		.byte	0xb2
ARM GAS  /tmp/ccVMW02f.s 			page 21


 1141 067b 05010000 		.4byte	0x105
 1142 067f 00000000 		.4byte	.LFB12
 1143 0683 58000000 		.4byte	.LFE12-.LFB12
 1144 0687 01       		.uleb128 0x1
 1145 0688 9C       		.byte	0x9c
 1146 0689 28070000 		.4byte	0x728
 1147 068d 15       		.uleb128 0x15
 1148 068e 78000000 		.4byte	.LASF97
 1149 0692 01       		.byte	0x1
 1150 0693 B2       		.byte	0xb2
 1151 0694 44050000 		.4byte	0x544
 1152 0698 AC000000 		.4byte	.LLST5
 1153 069c 15       		.uleb128 0x15
 1154 069d 53000000 		.4byte	.LASF83
 1155 06a1 01       		.byte	0x1
 1156 06a2 B3       		.byte	0xb3
 1157 06a3 39050000 		.4byte	0x539
 1158 06a7 CA000000 		.4byte	.LLST6
 1159 06ab 15       		.uleb128 0x15
 1160 06ac B4010000 		.4byte	.LASF84
 1161 06b0 01       		.byte	0x1
 1162 06b1 B4       		.byte	0xb4
 1163 06b2 B3030000 		.4byte	0x3b3
 1164 06b6 EB000000 		.4byte	.LLST7
 1165 06ba 15       		.uleb128 0x15
 1166 06bb A2020000 		.4byte	.LASF85
 1167 06bf 01       		.byte	0x1
 1168 06c0 B5       		.byte	0xb5
 1169 06c1 2C000000 		.4byte	0x2c
 1170 06c5 0C010000 		.4byte	.LLST8
 1171 06c9 1A       		.uleb128 0x1a
 1172 06ca 2A000000 		.4byte	.LASF87
 1173 06ce 01       		.byte	0x1
 1174 06cf B6       		.byte	0xb6
 1175 06d0 AD030000 		.4byte	0x3ad
 1176 06d4 02       		.uleb128 0x2
 1177 06d5 91       		.byte	0x91
 1178 06d6 00       		.sleb128 0
 1179 06d7 1A       		.uleb128 0x1a
 1180 06d8 83020000 		.4byte	.LASF88
 1181 06dc 01       		.byte	0x1
 1182 06dd B7       		.byte	0xb7
 1183 06de 2C000000 		.4byte	0x2c
 1184 06e2 02       		.uleb128 0x2
 1185 06e3 91       		.byte	0x91
 1186 06e4 04       		.sleb128 4
 1187 06e5 1A       		.uleb128 0x1a
 1188 06e6 D3010000 		.4byte	.LASF101
 1189 06ea 01       		.byte	0x1
 1190 06eb B8       		.byte	0xb8
 1191 06ec 1B010000 		.4byte	0x11b
 1192 06f0 02       		.uleb128 0x2
 1193 06f1 91       		.byte	0x91
 1194 06f2 08       		.sleb128 8
 1195 06f3 1B       		.uleb128 0x1b
 1196 06f4 0D000000 		.4byte	.LASF54
 1197 06f8 01       		.byte	0x1
ARM GAS  /tmp/ccVMW02f.s 			page 22


 1198 06f9 B9       		.byte	0xb9
 1199 06fa 05010000 		.4byte	0x105
 1200 06fe 01       		.uleb128 0x1
 1201 06ff 50       		.byte	0x50
 1202 0700 18       		.uleb128 0x18
 1203 0701 3C000000 		.4byte	.LVL11
 1204 0705 5B080000 		.4byte	0x85b
 1205 0709 17       		.uleb128 0x17
 1206 070a 01       		.uleb128 0x1
 1207 070b 53       		.byte	0x53
 1208 070c 03       		.uleb128 0x3
 1209 070d F3       		.byte	0xf3
 1210 070e 01       		.uleb128 0x1
 1211 070f 53       		.byte	0x53
 1212 0710 17       		.uleb128 0x17
 1213 0711 01       		.uleb128 0x1
 1214 0712 52       		.byte	0x52
 1215 0713 03       		.uleb128 0x3
 1216 0714 F3       		.byte	0xf3
 1217 0715 01       		.uleb128 0x1
 1218 0716 52       		.byte	0x52
 1219 0717 17       		.uleb128 0x17
 1220 0718 01       		.uleb128 0x1
 1221 0719 50       		.byte	0x50
 1222 071a 02       		.uleb128 0x2
 1223 071b 74       		.byte	0x74
 1224 071c 00       		.sleb128 0
 1225 071d 17       		.uleb128 0x17
 1226 071e 02       		.uleb128 0x2
 1227 071f 7D       		.byte	0x7d
 1228 0720 04       		.sleb128 4
 1229 0721 04       		.uleb128 0x4
 1230 0722 91       		.byte	0x91
 1231 0723 7C       		.sleb128 -4
 1232 0724 94       		.byte	0x94
 1233 0725 01       		.byte	0x1
 1234 0726 00       		.byte	0
 1235 0727 00       		.byte	0
 1236 0728 19       		.uleb128 0x19
 1237 0729 6E040000 		.4byte	.LASF102
 1238 072d 01       		.byte	0x1
 1239 072e E5       		.byte	0xe5
 1240 072f 05010000 		.4byte	0x105
 1241 0733 00000000 		.4byte	.LFB13
 1242 0737 48000000 		.4byte	.LFE13-.LFB13
 1243 073b 01       		.uleb128 0x1
 1244 073c 9C       		.byte	0x9c
 1245 073d B7070000 		.4byte	0x7b7
 1246 0741 15       		.uleb128 0x15
 1247 0742 78000000 		.4byte	.LASF97
 1248 0746 01       		.byte	0x1
 1249 0747 E5       		.byte	0xe5
 1250 0748 44050000 		.4byte	0x544
 1251 074c 2D010000 		.4byte	.LLST9
 1252 0750 15       		.uleb128 0x15
 1253 0751 53000000 		.4byte	.LASF83
 1254 0755 01       		.byte	0x1
ARM GAS  /tmp/ccVMW02f.s 			page 23


 1255 0756 E6       		.byte	0xe6
 1256 0757 39050000 		.4byte	0x539
 1257 075b 4B010000 		.4byte	.LLST10
 1258 075f 15       		.uleb128 0x15
 1259 0760 2A000000 		.4byte	.LASF87
 1260 0764 01       		.byte	0x1
 1261 0765 E7       		.byte	0xe7
 1262 0766 AD030000 		.4byte	0x3ad
 1263 076a 6C010000 		.4byte	.LLST11
 1264 076e 15       		.uleb128 0x15
 1265 076f 83020000 		.4byte	.LASF88
 1266 0773 01       		.byte	0x1
 1267 0774 E8       		.byte	0xe8
 1268 0775 2C000000 		.4byte	0x2c
 1269 0779 8D010000 		.4byte	.LLST12
 1270 077d 1A       		.uleb128 0x1a
 1271 077e D3010000 		.4byte	.LASF101
 1272 0782 01       		.byte	0x1
 1273 0783 E9       		.byte	0xe9
 1274 0784 1B010000 		.4byte	0x11b
 1275 0788 02       		.uleb128 0x2
 1276 0789 91       		.byte	0x91
 1277 078a 00       		.sleb128 0
 1278 078b 1B       		.uleb128 0x1b
 1279 078c 0D000000 		.4byte	.LASF54
 1280 0790 01       		.byte	0x1
 1281 0791 EB       		.byte	0xeb
 1282 0792 05010000 		.4byte	0x105
 1283 0796 01       		.uleb128 0x1
 1284 0797 50       		.byte	0x50
 1285 0798 18       		.uleb128 0x18
 1286 0799 2C000000 		.4byte	.LVL13
 1287 079d 8E080000 		.4byte	0x88e
 1288 07a1 17       		.uleb128 0x17
 1289 07a2 01       		.uleb128 0x1
 1290 07a3 53       		.byte	0x53
 1291 07a4 03       		.uleb128 0x3
 1292 07a5 F3       		.byte	0xf3
 1293 07a6 01       		.uleb128 0x1
 1294 07a7 53       		.byte	0x53
 1295 07a8 17       		.uleb128 0x17
 1296 07a9 01       		.uleb128 0x1
 1297 07aa 52       		.byte	0x52
 1298 07ab 03       		.uleb128 0x3
 1299 07ac F3       		.byte	0xf3
 1300 07ad 01       		.uleb128 0x1
 1301 07ae 52       		.byte	0x52
 1302 07af 17       		.uleb128 0x17
 1303 07b0 01       		.uleb128 0x1
 1304 07b1 50       		.byte	0x50
 1305 07b2 02       		.uleb128 0x2
 1306 07b3 74       		.byte	0x74
 1307 07b4 00       		.sleb128 0
 1308 07b5 00       		.byte	0
 1309 07b6 00       		.byte	0
 1310 07b7 1C       		.uleb128 0x1c
 1311 07b8 CC020000 		.4byte	.LASF103
ARM GAS  /tmp/ccVMW02f.s 			page 24


 1312 07bc 01       		.byte	0x1
 1313 07bd 0D01     		.2byte	0x10d
 1314 07bf 00000000 		.4byte	.LFB14
 1315 07c3 08000000 		.4byte	.LFE14-.LFB14
 1316 07c7 01       		.uleb128 0x1
 1317 07c8 9C       		.byte	0x9c
 1318 07c9 F1070000 		.4byte	0x7f1
 1319 07cd 1D       		.uleb128 0x1d
 1320 07ce 78000000 		.4byte	.LASF97
 1321 07d2 01       		.byte	0x1
 1322 07d3 0D01     		.2byte	0x10d
 1323 07d5 44050000 		.4byte	0x544
 1324 07d9 AE010000 		.4byte	.LLST13
 1325 07dd 16       		.uleb128 0x16
 1326 07de 08000000 		.4byte	.LVL16
 1327 07e2 B7080000 		.4byte	0x8b7
 1328 07e6 17       		.uleb128 0x17
 1329 07e7 01       		.uleb128 0x1
 1330 07e8 50       		.byte	0x50
 1331 07e9 05       		.uleb128 0x5
 1332 07ea F3       		.byte	0xf3
 1333 07eb 01       		.uleb128 0x1
 1334 07ec 50       		.byte	0x50
 1335 07ed 23       		.byte	0x23
 1336 07ee 10       		.uleb128 0x10
 1337 07ef 00       		.byte	0
 1338 07f0 00       		.byte	0
 1339 07f1 1C       		.uleb128 0x1c
 1340 07f2 6A000000 		.4byte	.LASF104
 1341 07f6 01       		.byte	0x1
 1342 07f7 2101     		.2byte	0x121
 1343 07f9 00000000 		.4byte	.LFB15
 1344 07fd 04000000 		.4byte	.LFE15-.LFB15
 1345 0801 01       		.uleb128 0x1
 1346 0802 9C       		.byte	0x9c
 1347 0803 21080000 		.4byte	0x821
 1348 0807 1D       		.uleb128 0x1d
 1349 0808 78000000 		.4byte	.LASF97
 1350 080c 01       		.byte	0x1
 1351 080d 2101     		.2byte	0x121
 1352 080f 44050000 		.4byte	0x544
 1353 0813 DC010000 		.4byte	.LLST14
 1354 0817 14       		.uleb128 0x14
 1355 0818 04000000 		.4byte	.LVL18
 1356 081c C8080000 		.4byte	0x8c8
 1357 0820 00       		.byte	0
 1358 0821 1E       		.uleb128 0x1e
 1359 0822 4B040000 		.4byte	.LASF114
 1360 0826 0C       		.byte	0xc
 1361 0827 AB       		.byte	0xab
 1362 0828 1F       		.uleb128 0x1f
 1363 0829 14020000 		.4byte	.LASF105
 1364 082d 09       		.byte	0x9
 1365 082e 31       		.byte	0x31
 1366 082f 39080000 		.4byte	0x839
 1367 0833 20       		.uleb128 0x20
 1368 0834 A0030000 		.4byte	0x3a0
ARM GAS  /tmp/ccVMW02f.s 			page 25


 1369 0838 00       		.byte	0
 1370 0839 1F       		.uleb128 0x1f
 1371 083a 01030000 		.4byte	.LASF106
 1372 083e 0C       		.byte	0xc
 1373 083f AC       		.byte	0xac
 1374 0840 4A080000 		.4byte	0x84a
 1375 0844 20       		.uleb128 0x20
 1376 0845 44050000 		.4byte	0x544
 1377 0849 00       		.byte	0
 1378 084a 1F       		.uleb128 0x1f
 1379 084b 3C020000 		.4byte	.LASF107
 1380 084f 0C       		.byte	0xc
 1381 0850 AD       		.byte	0xad
 1382 0851 5B080000 		.4byte	0x85b
 1383 0855 20       		.uleb128 0x20
 1384 0856 44050000 		.4byte	0x544
 1385 085a 00       		.byte	0
 1386 085b 21       		.uleb128 0x21
 1387 085c 05010000 		.4byte	.LASF108
 1388 0860 0C       		.byte	0xc
 1389 0861 AF       		.byte	0xaf
 1390 0862 05010000 		.4byte	0x105
 1391 0866 8E080000 		.4byte	0x88e
 1392 086a 20       		.uleb128 0x20
 1393 086b 44050000 		.4byte	0x544
 1394 086f 20       		.uleb128 0x20
 1395 0870 39050000 		.4byte	0x539
 1396 0874 20       		.uleb128 0x20
 1397 0875 B3030000 		.4byte	0x3b3
 1398 0879 20       		.uleb128 0x20
 1399 087a 2C000000 		.4byte	0x2c
 1400 087e 20       		.uleb128 0x20
 1401 087f AD030000 		.4byte	0x3ad
 1402 0883 20       		.uleb128 0x20
 1403 0884 B9030000 		.4byte	0x3b9
 1404 0888 20       		.uleb128 0x20
 1405 0889 1B010000 		.4byte	0x11b
 1406 088d 00       		.byte	0
 1407 088e 21       		.uleb128 0x21
 1408 088f E6000000 		.4byte	.LASF109
 1409 0893 0C       		.byte	0xc
 1410 0894 B4       		.byte	0xb4
 1411 0895 05010000 		.4byte	0x105
 1412 0899 B7080000 		.4byte	0x8b7
 1413 089d 20       		.uleb128 0x20
 1414 089e 44050000 		.4byte	0x544
 1415 08a2 20       		.uleb128 0x20
 1416 08a3 39050000 		.4byte	0x539
 1417 08a7 20       		.uleb128 0x20
 1418 08a8 AD030000 		.4byte	0x3ad
 1419 08ac 20       		.uleb128 0x20
 1420 08ad 2C000000 		.4byte	0x2c
 1421 08b1 20       		.uleb128 0x20
 1422 08b2 1B010000 		.4byte	0x11b
 1423 08b6 00       		.byte	0
 1424 08b7 1F       		.uleb128 0x1f
 1425 08b8 71020000 		.4byte	.LASF110
ARM GAS  /tmp/ccVMW02f.s 			page 26


 1426 08bc 09       		.byte	0x9
 1427 08bd 32       		.byte	0x32
 1428 08be C8080000 		.4byte	0x8c8
 1429 08c2 20       		.uleb128 0x20
 1430 08c3 A0030000 		.4byte	0x3a0
 1431 08c7 00       		.byte	0
 1432 08c8 22       		.uleb128 0x22
 1433 08c9 47000000 		.4byte	.LASF115
 1434 08cd 09       		.byte	0x9
 1435 08ce 36       		.byte	0x36
 1436 08cf A0030000 		.4byte	0x3a0
 1437 08d3 00       		.byte	0
 1438              		.section	.debug_abbrev,"",%progbits
 1439              	.Ldebug_abbrev0:
 1440 0000 01       		.uleb128 0x1
 1441 0001 11       		.uleb128 0x11
 1442 0002 01       		.byte	0x1
 1443 0003 25       		.uleb128 0x25
 1444 0004 0E       		.uleb128 0xe
 1445 0005 13       		.uleb128 0x13
 1446 0006 0B       		.uleb128 0xb
 1447 0007 03       		.uleb128 0x3
 1448 0008 0E       		.uleb128 0xe
 1449 0009 1B       		.uleb128 0x1b
 1450 000a 0E       		.uleb128 0xe
 1451 000b 55       		.uleb128 0x55
 1452 000c 17       		.uleb128 0x17
 1453 000d 11       		.uleb128 0x11
 1454 000e 01       		.uleb128 0x1
 1455 000f 10       		.uleb128 0x10
 1456 0010 17       		.uleb128 0x17
 1457 0011 00       		.byte	0
 1458 0012 00       		.byte	0
 1459 0013 02       		.uleb128 0x2
 1460 0014 24       		.uleb128 0x24
 1461 0015 00       		.byte	0
 1462 0016 0B       		.uleb128 0xb
 1463 0017 0B       		.uleb128 0xb
 1464 0018 3E       		.uleb128 0x3e
 1465 0019 0B       		.uleb128 0xb
 1466 001a 03       		.uleb128 0x3
 1467 001b 08       		.uleb128 0x8
 1468 001c 00       		.byte	0
 1469 001d 00       		.byte	0
 1470 001e 03       		.uleb128 0x3
 1471 001f 16       		.uleb128 0x16
 1472 0020 00       		.byte	0
 1473 0021 03       		.uleb128 0x3
 1474 0022 0E       		.uleb128 0xe
 1475 0023 3A       		.uleb128 0x3a
 1476 0024 0B       		.uleb128 0xb
 1477 0025 3B       		.uleb128 0x3b
 1478 0026 0B       		.uleb128 0xb
 1479 0027 49       		.uleb128 0x49
 1480 0028 13       		.uleb128 0x13
 1481 0029 00       		.byte	0
 1482 002a 00       		.byte	0
ARM GAS  /tmp/ccVMW02f.s 			page 27


 1483 002b 04       		.uleb128 0x4
 1484 002c 24       		.uleb128 0x24
 1485 002d 00       		.byte	0
 1486 002e 0B       		.uleb128 0xb
 1487 002f 0B       		.uleb128 0xb
 1488 0030 3E       		.uleb128 0x3e
 1489 0031 0B       		.uleb128 0xb
 1490 0032 03       		.uleb128 0x3
 1491 0033 0E       		.uleb128 0xe
 1492 0034 00       		.byte	0
 1493 0035 00       		.byte	0
 1494 0036 05       		.uleb128 0x5
 1495 0037 13       		.uleb128 0x13
 1496 0038 01       		.byte	0x1
 1497 0039 03       		.uleb128 0x3
 1498 003a 0E       		.uleb128 0xe
 1499 003b 0B       		.uleb128 0xb
 1500 003c 0B       		.uleb128 0xb
 1501 003d 3A       		.uleb128 0x3a
 1502 003e 0B       		.uleb128 0xb
 1503 003f 3B       		.uleb128 0x3b
 1504 0040 0B       		.uleb128 0xb
 1505 0041 01       		.uleb128 0x1
 1506 0042 13       		.uleb128 0x13
 1507 0043 00       		.byte	0
 1508 0044 00       		.byte	0
 1509 0045 06       		.uleb128 0x6
 1510 0046 0D       		.uleb128 0xd
 1511 0047 00       		.byte	0
 1512 0048 03       		.uleb128 0x3
 1513 0049 0E       		.uleb128 0xe
 1514 004a 3A       		.uleb128 0x3a
 1515 004b 0B       		.uleb128 0xb
 1516 004c 3B       		.uleb128 0x3b
 1517 004d 0B       		.uleb128 0xb
 1518 004e 49       		.uleb128 0x49
 1519 004f 13       		.uleb128 0x13
 1520 0050 38       		.uleb128 0x38
 1521 0051 0B       		.uleb128 0xb
 1522 0052 00       		.byte	0
 1523 0053 00       		.byte	0
 1524 0054 07       		.uleb128 0x7
 1525 0055 0D       		.uleb128 0xd
 1526 0056 00       		.byte	0
 1527 0057 03       		.uleb128 0x3
 1528 0058 08       		.uleb128 0x8
 1529 0059 3A       		.uleb128 0x3a
 1530 005a 0B       		.uleb128 0xb
 1531 005b 3B       		.uleb128 0x3b
 1532 005c 0B       		.uleb128 0xb
 1533 005d 49       		.uleb128 0x49
 1534 005e 13       		.uleb128 0x13
 1535 005f 38       		.uleb128 0x38
 1536 0060 0B       		.uleb128 0xb
 1537 0061 00       		.byte	0
 1538 0062 00       		.byte	0
 1539 0063 08       		.uleb128 0x8
ARM GAS  /tmp/ccVMW02f.s 			page 28


 1540 0064 13       		.uleb128 0x13
 1541 0065 01       		.byte	0x1
 1542 0066 0B       		.uleb128 0xb
 1543 0067 0B       		.uleb128 0xb
 1544 0068 3A       		.uleb128 0x3a
 1545 0069 0B       		.uleb128 0xb
 1546 006a 3B       		.uleb128 0x3b
 1547 006b 0B       		.uleb128 0xb
 1548 006c 01       		.uleb128 0x1
 1549 006d 13       		.uleb128 0x13
 1550 006e 00       		.byte	0
 1551 006f 00       		.byte	0
 1552 0070 09       		.uleb128 0x9
 1553 0071 0F       		.uleb128 0xf
 1554 0072 00       		.byte	0
 1555 0073 0B       		.uleb128 0xb
 1556 0074 0B       		.uleb128 0xb
 1557 0075 49       		.uleb128 0x49
 1558 0076 13       		.uleb128 0x13
 1559 0077 00       		.byte	0
 1560 0078 00       		.byte	0
 1561 0079 0A       		.uleb128 0xa
 1562 007a 0F       		.uleb128 0xf
 1563 007b 00       		.byte	0
 1564 007c 0B       		.uleb128 0xb
 1565 007d 0B       		.uleb128 0xb
 1566 007e 00       		.byte	0
 1567 007f 00       		.byte	0
 1568 0080 0B       		.uleb128 0xb
 1569 0081 35       		.uleb128 0x35
 1570 0082 00       		.byte	0
 1571 0083 49       		.uleb128 0x49
 1572 0084 13       		.uleb128 0x13
 1573 0085 00       		.byte	0
 1574 0086 00       		.byte	0
 1575 0087 0C       		.uleb128 0xc
 1576 0088 17       		.uleb128 0x17
 1577 0089 01       		.byte	0x1
 1578 008a 0B       		.uleb128 0xb
 1579 008b 0B       		.uleb128 0xb
 1580 008c 3A       		.uleb128 0x3a
 1581 008d 0B       		.uleb128 0xb
 1582 008e 3B       		.uleb128 0x3b
 1583 008f 0B       		.uleb128 0xb
 1584 0090 01       		.uleb128 0x1
 1585 0091 13       		.uleb128 0x13
 1586 0092 00       		.byte	0
 1587 0093 00       		.byte	0
 1588 0094 0D       		.uleb128 0xd
 1589 0095 0D       		.uleb128 0xd
 1590 0096 00       		.byte	0
 1591 0097 03       		.uleb128 0x3
 1592 0098 0E       		.uleb128 0xe
 1593 0099 3A       		.uleb128 0x3a
 1594 009a 0B       		.uleb128 0xb
 1595 009b 3B       		.uleb128 0x3b
 1596 009c 0B       		.uleb128 0xb
ARM GAS  /tmp/ccVMW02f.s 			page 29


 1597 009d 49       		.uleb128 0x49
 1598 009e 13       		.uleb128 0x13
 1599 009f 00       		.byte	0
 1600 00a0 00       		.byte	0
 1601 00a1 0E       		.uleb128 0xe
 1602 00a2 26       		.uleb128 0x26
 1603 00a3 00       		.byte	0
 1604 00a4 49       		.uleb128 0x49
 1605 00a5 13       		.uleb128 0x13
 1606 00a6 00       		.byte	0
 1607 00a7 00       		.byte	0
 1608 00a8 0F       		.uleb128 0xf
 1609 00a9 0D       		.uleb128 0xd
 1610 00aa 00       		.byte	0
 1611 00ab 03       		.uleb128 0x3
 1612 00ac 0E       		.uleb128 0xe
 1613 00ad 3A       		.uleb128 0x3a
 1614 00ae 0B       		.uleb128 0xb
 1615 00af 3B       		.uleb128 0x3b
 1616 00b0 05       		.uleb128 0x5
 1617 00b1 49       		.uleb128 0x49
 1618 00b2 13       		.uleb128 0x13
 1619 00b3 38       		.uleb128 0x38
 1620 00b4 0B       		.uleb128 0xb
 1621 00b5 00       		.byte	0
 1622 00b6 00       		.byte	0
 1623 00b7 10       		.uleb128 0x10
 1624 00b8 16       		.uleb128 0x16
 1625 00b9 00       		.byte	0
 1626 00ba 03       		.uleb128 0x3
 1627 00bb 0E       		.uleb128 0xe
 1628 00bc 3A       		.uleb128 0x3a
 1629 00bd 0B       		.uleb128 0xb
 1630 00be 3B       		.uleb128 0x3b
 1631 00bf 05       		.uleb128 0x5
 1632 00c0 49       		.uleb128 0x49
 1633 00c1 13       		.uleb128 0x13
 1634 00c2 00       		.byte	0
 1635 00c3 00       		.byte	0
 1636 00c4 11       		.uleb128 0x11
 1637 00c5 04       		.uleb128 0x4
 1638 00c6 01       		.byte	0x1
 1639 00c7 0B       		.uleb128 0xb
 1640 00c8 0B       		.uleb128 0xb
 1641 00c9 3A       		.uleb128 0x3a
 1642 00ca 0B       		.uleb128 0xb
 1643 00cb 3B       		.uleb128 0x3b
 1644 00cc 0B       		.uleb128 0xb
 1645 00cd 01       		.uleb128 0x1
 1646 00ce 13       		.uleb128 0x13
 1647 00cf 00       		.byte	0
 1648 00d0 00       		.byte	0
 1649 00d1 12       		.uleb128 0x12
 1650 00d2 28       		.uleb128 0x28
 1651 00d3 00       		.byte	0
 1652 00d4 03       		.uleb128 0x3
 1653 00d5 0E       		.uleb128 0xe
ARM GAS  /tmp/ccVMW02f.s 			page 30


 1654 00d6 1C       		.uleb128 0x1c
 1655 00d7 0D       		.uleb128 0xd
 1656 00d8 00       		.byte	0
 1657 00d9 00       		.byte	0
 1658 00da 13       		.uleb128 0x13
 1659 00db 2E       		.uleb128 0x2e
 1660 00dc 01       		.byte	0x1
 1661 00dd 3F       		.uleb128 0x3f
 1662 00de 19       		.uleb128 0x19
 1663 00df 03       		.uleb128 0x3
 1664 00e0 0E       		.uleb128 0xe
 1665 00e1 3A       		.uleb128 0x3a
 1666 00e2 0B       		.uleb128 0xb
 1667 00e3 3B       		.uleb128 0x3b
 1668 00e4 0B       		.uleb128 0xb
 1669 00e5 27       		.uleb128 0x27
 1670 00e6 19       		.uleb128 0x19
 1671 00e7 11       		.uleb128 0x11
 1672 00e8 01       		.uleb128 0x1
 1673 00e9 12       		.uleb128 0x12
 1674 00ea 06       		.uleb128 0x6
 1675 00eb 40       		.uleb128 0x40
 1676 00ec 18       		.uleb128 0x18
 1677 00ed 9742     		.uleb128 0x2117
 1678 00ef 19       		.uleb128 0x19
 1679 00f0 01       		.uleb128 0x1
 1680 00f1 13       		.uleb128 0x13
 1681 00f2 00       		.byte	0
 1682 00f3 00       		.byte	0
 1683 00f4 14       		.uleb128 0x14
 1684 00f5 898201   		.uleb128 0x4109
 1685 00f8 00       		.byte	0
 1686 00f9 11       		.uleb128 0x11
 1687 00fa 01       		.uleb128 0x1
 1688 00fb 9542     		.uleb128 0x2115
 1689 00fd 19       		.uleb128 0x19
 1690 00fe 31       		.uleb128 0x31
 1691 00ff 13       		.uleb128 0x13
 1692 0100 00       		.byte	0
 1693 0101 00       		.byte	0
 1694 0102 15       		.uleb128 0x15
 1695 0103 05       		.uleb128 0x5
 1696 0104 00       		.byte	0
 1697 0105 03       		.uleb128 0x3
 1698 0106 0E       		.uleb128 0xe
 1699 0107 3A       		.uleb128 0x3a
 1700 0108 0B       		.uleb128 0xb
 1701 0109 3B       		.uleb128 0x3b
 1702 010a 0B       		.uleb128 0xb
 1703 010b 49       		.uleb128 0x49
 1704 010c 13       		.uleb128 0x13
 1705 010d 02       		.uleb128 0x2
 1706 010e 17       		.uleb128 0x17
 1707 010f 00       		.byte	0
 1708 0110 00       		.byte	0
 1709 0111 16       		.uleb128 0x16
 1710 0112 898201   		.uleb128 0x4109
ARM GAS  /tmp/ccVMW02f.s 			page 31


 1711 0115 01       		.byte	0x1
 1712 0116 11       		.uleb128 0x11
 1713 0117 01       		.uleb128 0x1
 1714 0118 9542     		.uleb128 0x2115
 1715 011a 19       		.uleb128 0x19
 1716 011b 31       		.uleb128 0x31
 1717 011c 13       		.uleb128 0x13
 1718 011d 00       		.byte	0
 1719 011e 00       		.byte	0
 1720 011f 17       		.uleb128 0x17
 1721 0120 8A8201   		.uleb128 0x410a
 1722 0123 00       		.byte	0
 1723 0124 02       		.uleb128 0x2
 1724 0125 18       		.uleb128 0x18
 1725 0126 9142     		.uleb128 0x2111
 1726 0128 18       		.uleb128 0x18
 1727 0129 00       		.byte	0
 1728 012a 00       		.byte	0
 1729 012b 18       		.uleb128 0x18
 1730 012c 898201   		.uleb128 0x4109
 1731 012f 01       		.byte	0x1
 1732 0130 11       		.uleb128 0x11
 1733 0131 01       		.uleb128 0x1
 1734 0132 31       		.uleb128 0x31
 1735 0133 13       		.uleb128 0x13
 1736 0134 00       		.byte	0
 1737 0135 00       		.byte	0
 1738 0136 19       		.uleb128 0x19
 1739 0137 2E       		.uleb128 0x2e
 1740 0138 01       		.byte	0x1
 1741 0139 3F       		.uleb128 0x3f
 1742 013a 19       		.uleb128 0x19
 1743 013b 03       		.uleb128 0x3
 1744 013c 0E       		.uleb128 0xe
 1745 013d 3A       		.uleb128 0x3a
 1746 013e 0B       		.uleb128 0xb
 1747 013f 3B       		.uleb128 0x3b
 1748 0140 0B       		.uleb128 0xb
 1749 0141 27       		.uleb128 0x27
 1750 0142 19       		.uleb128 0x19
 1751 0143 49       		.uleb128 0x49
 1752 0144 13       		.uleb128 0x13
 1753 0145 11       		.uleb128 0x11
 1754 0146 01       		.uleb128 0x1
 1755 0147 12       		.uleb128 0x12
 1756 0148 06       		.uleb128 0x6
 1757 0149 40       		.uleb128 0x40
 1758 014a 18       		.uleb128 0x18
 1759 014b 9742     		.uleb128 0x2117
 1760 014d 19       		.uleb128 0x19
 1761 014e 01       		.uleb128 0x1
 1762 014f 13       		.uleb128 0x13
 1763 0150 00       		.byte	0
 1764 0151 00       		.byte	0
 1765 0152 1A       		.uleb128 0x1a
 1766 0153 05       		.uleb128 0x5
 1767 0154 00       		.byte	0
ARM GAS  /tmp/ccVMW02f.s 			page 32


 1768 0155 03       		.uleb128 0x3
 1769 0156 0E       		.uleb128 0xe
 1770 0157 3A       		.uleb128 0x3a
 1771 0158 0B       		.uleb128 0xb
 1772 0159 3B       		.uleb128 0x3b
 1773 015a 0B       		.uleb128 0xb
 1774 015b 49       		.uleb128 0x49
 1775 015c 13       		.uleb128 0x13
 1776 015d 02       		.uleb128 0x2
 1777 015e 18       		.uleb128 0x18
 1778 015f 00       		.byte	0
 1779 0160 00       		.byte	0
 1780 0161 1B       		.uleb128 0x1b
 1781 0162 34       		.uleb128 0x34
 1782 0163 00       		.byte	0
 1783 0164 03       		.uleb128 0x3
 1784 0165 0E       		.uleb128 0xe
 1785 0166 3A       		.uleb128 0x3a
 1786 0167 0B       		.uleb128 0xb
 1787 0168 3B       		.uleb128 0x3b
 1788 0169 0B       		.uleb128 0xb
 1789 016a 49       		.uleb128 0x49
 1790 016b 13       		.uleb128 0x13
 1791 016c 02       		.uleb128 0x2
 1792 016d 18       		.uleb128 0x18
 1793 016e 00       		.byte	0
 1794 016f 00       		.byte	0
 1795 0170 1C       		.uleb128 0x1c
 1796 0171 2E       		.uleb128 0x2e
 1797 0172 01       		.byte	0x1
 1798 0173 3F       		.uleb128 0x3f
 1799 0174 19       		.uleb128 0x19
 1800 0175 03       		.uleb128 0x3
 1801 0176 0E       		.uleb128 0xe
 1802 0177 3A       		.uleb128 0x3a
 1803 0178 0B       		.uleb128 0xb
 1804 0179 3B       		.uleb128 0x3b
 1805 017a 05       		.uleb128 0x5
 1806 017b 27       		.uleb128 0x27
 1807 017c 19       		.uleb128 0x19
 1808 017d 11       		.uleb128 0x11
 1809 017e 01       		.uleb128 0x1
 1810 017f 12       		.uleb128 0x12
 1811 0180 06       		.uleb128 0x6
 1812 0181 40       		.uleb128 0x40
 1813 0182 18       		.uleb128 0x18
 1814 0183 9742     		.uleb128 0x2117
 1815 0185 19       		.uleb128 0x19
 1816 0186 01       		.uleb128 0x1
 1817 0187 13       		.uleb128 0x13
 1818 0188 00       		.byte	0
 1819 0189 00       		.byte	0
 1820 018a 1D       		.uleb128 0x1d
 1821 018b 05       		.uleb128 0x5
 1822 018c 00       		.byte	0
 1823 018d 03       		.uleb128 0x3
 1824 018e 0E       		.uleb128 0xe
ARM GAS  /tmp/ccVMW02f.s 			page 33


 1825 018f 3A       		.uleb128 0x3a
 1826 0190 0B       		.uleb128 0xb
 1827 0191 3B       		.uleb128 0x3b
 1828 0192 05       		.uleb128 0x5
 1829 0193 49       		.uleb128 0x49
 1830 0194 13       		.uleb128 0x13
 1831 0195 02       		.uleb128 0x2
 1832 0196 17       		.uleb128 0x17
 1833 0197 00       		.byte	0
 1834 0198 00       		.byte	0
 1835 0199 1E       		.uleb128 0x1e
 1836 019a 2E       		.uleb128 0x2e
 1837 019b 00       		.byte	0
 1838 019c 3F       		.uleb128 0x3f
 1839 019d 19       		.uleb128 0x19
 1840 019e 03       		.uleb128 0x3
 1841 019f 0E       		.uleb128 0xe
 1842 01a0 3A       		.uleb128 0x3a
 1843 01a1 0B       		.uleb128 0xb
 1844 01a2 3B       		.uleb128 0x3b
 1845 01a3 0B       		.uleb128 0xb
 1846 01a4 27       		.uleb128 0x27
 1847 01a5 19       		.uleb128 0x19
 1848 01a6 3C       		.uleb128 0x3c
 1849 01a7 19       		.uleb128 0x19
 1850 01a8 00       		.byte	0
 1851 01a9 00       		.byte	0
 1852 01aa 1F       		.uleb128 0x1f
 1853 01ab 2E       		.uleb128 0x2e
 1854 01ac 01       		.byte	0x1
 1855 01ad 3F       		.uleb128 0x3f
 1856 01ae 19       		.uleb128 0x19
 1857 01af 03       		.uleb128 0x3
 1858 01b0 0E       		.uleb128 0xe
 1859 01b1 3A       		.uleb128 0x3a
 1860 01b2 0B       		.uleb128 0xb
 1861 01b3 3B       		.uleb128 0x3b
 1862 01b4 0B       		.uleb128 0xb
 1863 01b5 27       		.uleb128 0x27
 1864 01b6 19       		.uleb128 0x19
 1865 01b7 3C       		.uleb128 0x3c
 1866 01b8 19       		.uleb128 0x19
 1867 01b9 01       		.uleb128 0x1
 1868 01ba 13       		.uleb128 0x13
 1869 01bb 00       		.byte	0
 1870 01bc 00       		.byte	0
 1871 01bd 20       		.uleb128 0x20
 1872 01be 05       		.uleb128 0x5
 1873 01bf 00       		.byte	0
 1874 01c0 49       		.uleb128 0x49
 1875 01c1 13       		.uleb128 0x13
 1876 01c2 00       		.byte	0
 1877 01c3 00       		.byte	0
 1878 01c4 21       		.uleb128 0x21
 1879 01c5 2E       		.uleb128 0x2e
 1880 01c6 01       		.byte	0x1
 1881 01c7 3F       		.uleb128 0x3f
ARM GAS  /tmp/ccVMW02f.s 			page 34


 1882 01c8 19       		.uleb128 0x19
 1883 01c9 03       		.uleb128 0x3
 1884 01ca 0E       		.uleb128 0xe
 1885 01cb 3A       		.uleb128 0x3a
 1886 01cc 0B       		.uleb128 0xb
 1887 01cd 3B       		.uleb128 0x3b
 1888 01ce 0B       		.uleb128 0xb
 1889 01cf 27       		.uleb128 0x27
 1890 01d0 19       		.uleb128 0x19
 1891 01d1 49       		.uleb128 0x49
 1892 01d2 13       		.uleb128 0x13
 1893 01d3 3C       		.uleb128 0x3c
 1894 01d4 19       		.uleb128 0x19
 1895 01d5 01       		.uleb128 0x1
 1896 01d6 13       		.uleb128 0x13
 1897 01d7 00       		.byte	0
 1898 01d8 00       		.byte	0
 1899 01d9 22       		.uleb128 0x22
 1900 01da 2E       		.uleb128 0x2e
 1901 01db 00       		.byte	0
 1902 01dc 3F       		.uleb128 0x3f
 1903 01dd 19       		.uleb128 0x19
 1904 01de 03       		.uleb128 0x3
 1905 01df 0E       		.uleb128 0xe
 1906 01e0 3A       		.uleb128 0x3a
 1907 01e1 0B       		.uleb128 0xb
 1908 01e2 3B       		.uleb128 0x3b
 1909 01e3 0B       		.uleb128 0xb
 1910 01e4 27       		.uleb128 0x27
 1911 01e5 19       		.uleb128 0x19
 1912 01e6 49       		.uleb128 0x49
 1913 01e7 13       		.uleb128 0x13
 1914 01e8 3C       		.uleb128 0x3c
 1915 01e9 19       		.uleb128 0x19
 1916 01ea 00       		.byte	0
 1917 01eb 00       		.byte	0
 1918 01ec 00       		.byte	0
 1919              		.section	.debug_loc,"",%progbits
 1920              	.Ldebug_loc0:
 1921              	.LLST0:
 1922 0000 00000000 		.4byte	.LVL1
 1923 0004 14000000 		.4byte	.LVL2
 1924 0008 0100     		.2byte	0x1
 1925 000a 50       		.byte	0x50
 1926 000b 14000000 		.4byte	.LVL2
 1927 000f 17000000 		.4byte	.LVL3-1
 1928 0013 0300     		.2byte	0x3
 1929 0015 70       		.byte	0x70
 1930 0016 70       		.sleb128 -16
 1931 0017 9F       		.byte	0x9f
 1932 0018 17000000 		.4byte	.LVL3-1
 1933 001c 18000000 		.4byte	.LFE8
 1934 0020 0400     		.2byte	0x4
 1935 0022 F3       		.byte	0xf3
 1936 0023 01       		.uleb128 0x1
 1937 0024 50       		.byte	0x50
 1938 0025 9F       		.byte	0x9f
ARM GAS  /tmp/ccVMW02f.s 			page 35


 1939 0026 00000000 		.4byte	0
 1940 002a 00000000 		.4byte	0
 1941              	.LLST1:
 1942 002e 00000000 		.4byte	.LVL4
 1943 0032 13000000 		.4byte	.LVL5-1
 1944 0036 0100     		.2byte	0x1
 1945 0038 50       		.byte	0x50
 1946 0039 13000000 		.4byte	.LVL5-1
 1947 003d 24000000 		.4byte	.LFE9
 1948 0041 0100     		.2byte	0x1
 1949 0043 54       		.byte	0x54
 1950 0044 00000000 		.4byte	0
 1951 0048 00000000 		.4byte	0
 1952              	.LLST2:
 1953 004c 00000000 		.4byte	.LVL4
 1954 0050 13000000 		.4byte	.LVL5-1
 1955 0054 0100     		.2byte	0x1
 1956 0056 51       		.byte	0x51
 1957 0057 13000000 		.4byte	.LVL5-1
 1958 005b 24000000 		.4byte	.LFE9
 1959 005f 0400     		.2byte	0x4
 1960 0061 F3       		.byte	0xf3
 1961 0062 01       		.uleb128 0x1
 1962 0063 51       		.byte	0x51
 1963 0064 9F       		.byte	0x9f
 1964 0065 00000000 		.4byte	0
 1965 0069 00000000 		.4byte	0
 1966              	.LLST3:
 1967 006d 00000000 		.4byte	.LVL6
 1968 0071 0F000000 		.4byte	.LVL7-1
 1969 0075 0100     		.2byte	0x1
 1970 0077 50       		.byte	0x50
 1971 0078 0F000000 		.4byte	.LVL7-1
 1972 007c 20000000 		.4byte	.LFE10
 1973 0080 0100     		.2byte	0x1
 1974 0082 54       		.byte	0x54
 1975 0083 00000000 		.4byte	0
 1976 0087 00000000 		.4byte	0
 1977              	.LLST4:
 1978 008b 00000000 		.4byte	.LVL8
 1979 008f 04000000 		.4byte	.LVL9
 1980 0093 0100     		.2byte	0x1
 1981 0095 50       		.byte	0x50
 1982 0096 04000000 		.4byte	.LVL9
 1983 009a 08000000 		.4byte	.LFE11
 1984 009e 0400     		.2byte	0x4
 1985 00a0 F3       		.byte	0xf3
 1986 00a1 01       		.uleb128 0x1
 1987 00a2 50       		.byte	0x50
 1988 00a3 9F       		.byte	0x9f
 1989 00a4 00000000 		.4byte	0
 1990 00a8 00000000 		.4byte	0
 1991              	.LLST5:
 1992 00ac 00000000 		.4byte	.LVL10
 1993 00b0 3B000000 		.4byte	.LVL11-1
 1994 00b4 0100     		.2byte	0x1
 1995 00b6 50       		.byte	0x50
ARM GAS  /tmp/ccVMW02f.s 			page 36


 1996 00b7 3B000000 		.4byte	.LVL11-1
 1997 00bb 58000000 		.4byte	.LFE12
 1998 00bf 0100     		.2byte	0x1
 1999 00c1 54       		.byte	0x54
 2000 00c2 00000000 		.4byte	0
 2001 00c6 00000000 		.4byte	0
 2002              	.LLST6:
 2003 00ca 00000000 		.4byte	.LVL10
 2004 00ce 3B000000 		.4byte	.LVL11-1
 2005 00d2 0100     		.2byte	0x1
 2006 00d4 51       		.byte	0x51
 2007 00d5 3B000000 		.4byte	.LVL11-1
 2008 00d9 58000000 		.4byte	.LFE12
 2009 00dd 0400     		.2byte	0x4
 2010 00df F3       		.byte	0xf3
 2011 00e0 01       		.uleb128 0x1
 2012 00e1 51       		.byte	0x51
 2013 00e2 9F       		.byte	0x9f
 2014 00e3 00000000 		.4byte	0
 2015 00e7 00000000 		.4byte	0
 2016              	.LLST7:
 2017 00eb 00000000 		.4byte	.LVL10
 2018 00ef 3B000000 		.4byte	.LVL11-1
 2019 00f3 0100     		.2byte	0x1
 2020 00f5 52       		.byte	0x52
 2021 00f6 3B000000 		.4byte	.LVL11-1
 2022 00fa 58000000 		.4byte	.LFE12
 2023 00fe 0400     		.2byte	0x4
 2024 0100 F3       		.byte	0xf3
 2025 0101 01       		.uleb128 0x1
 2026 0102 52       		.byte	0x52
 2027 0103 9F       		.byte	0x9f
 2028 0104 00000000 		.4byte	0
 2029 0108 00000000 		.4byte	0
 2030              	.LLST8:
 2031 010c 00000000 		.4byte	.LVL10
 2032 0110 3B000000 		.4byte	.LVL11-1
 2033 0114 0100     		.2byte	0x1
 2034 0116 53       		.byte	0x53
 2035 0117 3B000000 		.4byte	.LVL11-1
 2036 011b 58000000 		.4byte	.LFE12
 2037 011f 0400     		.2byte	0x4
 2038 0121 F3       		.byte	0xf3
 2039 0122 01       		.uleb128 0x1
 2040 0123 53       		.byte	0x53
 2041 0124 9F       		.byte	0x9f
 2042 0125 00000000 		.4byte	0
 2043 0129 00000000 		.4byte	0
 2044              	.LLST9:
 2045 012d 00000000 		.4byte	.LVL12
 2046 0131 2B000000 		.4byte	.LVL13-1
 2047 0135 0100     		.2byte	0x1
 2048 0137 50       		.byte	0x50
 2049 0138 2B000000 		.4byte	.LVL13-1
 2050 013c 48000000 		.4byte	.LFE13
 2051 0140 0100     		.2byte	0x1
 2052 0142 54       		.byte	0x54
ARM GAS  /tmp/ccVMW02f.s 			page 37


 2053 0143 00000000 		.4byte	0
 2054 0147 00000000 		.4byte	0
 2055              	.LLST10:
 2056 014b 00000000 		.4byte	.LVL12
 2057 014f 2B000000 		.4byte	.LVL13-1
 2058 0153 0100     		.2byte	0x1
 2059 0155 51       		.byte	0x51
 2060 0156 2B000000 		.4byte	.LVL13-1
 2061 015a 48000000 		.4byte	.LFE13
 2062 015e 0400     		.2byte	0x4
 2063 0160 F3       		.byte	0xf3
 2064 0161 01       		.uleb128 0x1
 2065 0162 51       		.byte	0x51
 2066 0163 9F       		.byte	0x9f
 2067 0164 00000000 		.4byte	0
 2068 0168 00000000 		.4byte	0
 2069              	.LLST11:
 2070 016c 00000000 		.4byte	.LVL12
 2071 0170 2B000000 		.4byte	.LVL13-1
 2072 0174 0100     		.2byte	0x1
 2073 0176 52       		.byte	0x52
 2074 0177 2B000000 		.4byte	.LVL13-1
 2075 017b 48000000 		.4byte	.LFE13
 2076 017f 0400     		.2byte	0x4
 2077 0181 F3       		.byte	0xf3
 2078 0182 01       		.uleb128 0x1
 2079 0183 52       		.byte	0x52
 2080 0184 9F       		.byte	0x9f
 2081 0185 00000000 		.4byte	0
 2082 0189 00000000 		.4byte	0
 2083              	.LLST12:
 2084 018d 00000000 		.4byte	.LVL12
 2085 0191 2B000000 		.4byte	.LVL13-1
 2086 0195 0100     		.2byte	0x1
 2087 0197 53       		.byte	0x53
 2088 0198 2B000000 		.4byte	.LVL13-1
 2089 019c 48000000 		.4byte	.LFE13
 2090 01a0 0400     		.2byte	0x4
 2091 01a2 F3       		.byte	0xf3
 2092 01a3 01       		.uleb128 0x1
 2093 01a4 53       		.byte	0x53
 2094 01a5 9F       		.byte	0x9f
 2095 01a6 00000000 		.4byte	0
 2096 01aa 00000000 		.4byte	0
 2097              	.LLST13:
 2098 01ae 00000000 		.4byte	.LVL14
 2099 01b2 04000000 		.4byte	.LVL15
 2100 01b6 0100     		.2byte	0x1
 2101 01b8 50       		.byte	0x50
 2102 01b9 04000000 		.4byte	.LVL15
 2103 01bd 07000000 		.4byte	.LVL16-1
 2104 01c1 0300     		.2byte	0x3
 2105 01c3 70       		.byte	0x70
 2106 01c4 70       		.sleb128 -16
 2107 01c5 9F       		.byte	0x9f
 2108 01c6 07000000 		.4byte	.LVL16-1
 2109 01ca 08000000 		.4byte	.LFE14
ARM GAS  /tmp/ccVMW02f.s 			page 38


 2110 01ce 0400     		.2byte	0x4
 2111 01d0 F3       		.byte	0xf3
 2112 01d1 01       		.uleb128 0x1
 2113 01d2 50       		.byte	0x50
 2114 01d3 9F       		.byte	0x9f
 2115 01d4 00000000 		.4byte	0
 2116 01d8 00000000 		.4byte	0
 2117              	.LLST14:
 2118 01dc 00000000 		.4byte	.LVL17
 2119 01e0 03000000 		.4byte	.LVL18-1
 2120 01e4 0100     		.2byte	0x1
 2121 01e6 50       		.byte	0x50
 2122 01e7 03000000 		.4byte	.LVL18-1
 2123 01eb 04000000 		.4byte	.LFE15
 2124 01ef 0400     		.2byte	0x4
 2125 01f1 F3       		.byte	0xf3
 2126 01f2 01       		.uleb128 0x1
 2127 01f3 50       		.byte	0x50
 2128 01f4 9F       		.byte	0x9f
 2129 01f5 00000000 		.4byte	0
 2130 01f9 00000000 		.4byte	0
 2131              		.section	.debug_aranges,"",%progbits
 2132 0000 5C000000 		.4byte	0x5c
 2133 0004 0200     		.2byte	0x2
 2134 0006 00000000 		.4byte	.Ldebug_info0
 2135 000a 04       		.byte	0x4
 2136 000b 00       		.byte	0
 2137 000c 0000     		.2byte	0
 2138 000e 0000     		.2byte	0
 2139 0010 00000000 		.4byte	.LFB7
 2140 0014 04000000 		.4byte	.LFE7-.LFB7
 2141 0018 00000000 		.4byte	.LFB8
 2142 001c 18000000 		.4byte	.LFE8-.LFB8
 2143 0020 00000000 		.4byte	.LFB9
 2144 0024 24000000 		.4byte	.LFE9-.LFB9
 2145 0028 00000000 		.4byte	.LFB10
 2146 002c 20000000 		.4byte	.LFE10-.LFB10
 2147 0030 00000000 		.4byte	.LFB11
 2148 0034 08000000 		.4byte	.LFE11-.LFB11
 2149 0038 00000000 		.4byte	.LFB12
 2150 003c 58000000 		.4byte	.LFE12-.LFB12
 2151 0040 00000000 		.4byte	.LFB13
 2152 0044 48000000 		.4byte	.LFE13-.LFB13
 2153 0048 00000000 		.4byte	.LFB14
 2154 004c 08000000 		.4byte	.LFE14-.LFB14
 2155 0050 00000000 		.4byte	.LFB15
 2156 0054 04000000 		.4byte	.LFE15-.LFB15
 2157 0058 00000000 		.4byte	0
 2158 005c 00000000 		.4byte	0
 2159              		.section	.debug_ranges,"",%progbits
 2160              	.Ldebug_ranges0:
 2161 0000 00000000 		.4byte	.LFB7
 2162 0004 04000000 		.4byte	.LFE7
 2163 0008 00000000 		.4byte	.LFB8
 2164 000c 18000000 		.4byte	.LFE8
 2165 0010 00000000 		.4byte	.LFB9
 2166 0014 24000000 		.4byte	.LFE9
ARM GAS  /tmp/ccVMW02f.s 			page 39


 2167 0018 00000000 		.4byte	.LFB10
 2168 001c 20000000 		.4byte	.LFE10
 2169 0020 00000000 		.4byte	.LFB11
 2170 0024 08000000 		.4byte	.LFE11
 2171 0028 00000000 		.4byte	.LFB12
 2172 002c 58000000 		.4byte	.LFE12
 2173 0030 00000000 		.4byte	.LFB13
 2174 0034 48000000 		.4byte	.LFE13
 2175 0038 00000000 		.4byte	.LFB14
 2176 003c 08000000 		.4byte	.LFE14
 2177 0040 00000000 		.4byte	.LFB15
 2178 0044 04000000 		.4byte	.LFE15
 2179 0048 00000000 		.4byte	0
 2180 004c 00000000 		.4byte	0
 2181              		.section	.debug_line,"",%progbits
 2182              	.Ldebug_line0:
 2183 0000 44020000 		.section	.debug_str,"MS",%progbits,1
 2183      02007D01 
 2183      00000201 
 2183      FB0E0D00 
 2183      01010101 
 2184              	.LASF41:
 2185 0000 705F6D73 		.ascii	"p_msg\000"
 2185      6700
 2186              	.LASF2:
 2187 0006 73697A65 		.ascii	"size_t\000"
 2187      5F7400
 2188              	.LASF54:
 2189 000d 7264796D 		.ascii	"rdymsg\000"
 2189      736700
 2190              	.LASF3:
 2191 0014 5F5F7569 		.ascii	"__uint8_t\000"
 2191      6E74385F 
 2191      7400
 2192              	.LASF60:
 2193 001e 62736364 		.ascii	"bscdevice_t\000"
 2193      65766963 
 2193      655F7400 
 2194              	.LASF87:
 2195 002a 72786275 		.ascii	"rxbuf\000"
 2195      6600
 2196              	.LASF13:
 2197 0030 6C6F6E67 		.ascii	"long long unsigned int\000"
 2197      206C6F6E 
 2197      6720756E 
 2197      7369676E 
 2197      65642069 
 2198              	.LASF115:
 2199 0047 63684D74 		.ascii	"chMtxUnlock\000"
 2199      78556E6C 
 2199      6F636B00 
 2200              	.LASF83:
 2201 0053 61646472 		.ascii	"addr\000"
 2201      00
 2202              	.LASF96:
 2203 0058 69326353 		.ascii	"i2cStart\000"
 2203      74617274 
ARM GAS  /tmp/ccVMW02f.s 			page 40


 2203      00
 2204              	.LASF55:
 2205 0061 65786974 		.ascii	"exitcode\000"
 2205      636F6465 
 2205      00
 2206              	.LASF104:
 2207 006a 69326352 		.ascii	"i2cReleaseBus\000"
 2207      656C6561 
 2207      73654275 
 2207      7300
 2208              	.LASF97:
 2209 0078 69326370 		.ascii	"i2cp\000"
 2209      00
 2210              	.LASF65:
 2211 007d 64617461 		.ascii	"dataFifo\000"
 2211      4669666F 
 2211      00
 2212              	.LASF29:
 2213 0086 705F7072 		.ascii	"p_prio\000"
 2213      696F00
 2214              	.LASF100:
 2215 008d 6932634D 		.ascii	"i2cMasterTransmitTimeout\000"
 2215      61737465 
 2215      72547261 
 2215      6E736D69 
 2215      7454696D 
 2216              	.LASF80:
 2217 00a6 64657669 		.ascii	"device\000"
 2217      636500
 2218              	.LASF12:
 2219 00ad 6C6F6E67 		.ascii	"long long int\000"
 2219      206C6F6E 
 2219      6720696E 
 2219      7400
 2220              	.LASF1:
 2221 00bb 7369676E 		.ascii	"signed char\000"
 2221      65642063 
 2221      68617200 
 2222              	.LASF112:
 2223 00c7 2E2E2F2E 		.ascii	"../../os/hal/src/i2c.c\000"
 2223      2E2F6F73 
 2223      2F68616C 
 2223      2F737263 
 2223      2F693263 
 2224              	.LASF51:
 2225 00de 6D5F7175 		.ascii	"m_queue\000"
 2225      65756500 
 2226              	.LASF109:
 2227 00e6 6932635F 		.ascii	"i2c_lld_master_receive_timeout\000"
 2227      6C6C645F 
 2227      6D617374 
 2227      65725F72 
 2227      65636569 
 2228              	.LASF108:
 2229 0105 6932635F 		.ascii	"i2c_lld_master_transmit_timeout\000"
 2229      6C6C645F 
 2229      6D617374 
ARM GAS  /tmp/ccVMW02f.s 			page 41


 2229      65725F74 
 2229      72616E73 
 2230              	.LASF21:
 2231 0125 74736C69 		.ascii	"tslices_t\000"
 2231      6365735F 
 2231      7400
 2232              	.LASF69:
 2233 012f 4932435F 		.ascii	"I2C_UNINIT\000"
 2233      554E494E 
 2233      495400
 2234              	.LASF91:
 2235 013a 69326361 		.ascii	"i2caddr_t\000"
 2235      6464725F 
 2235      7400
 2236              	.LASF77:
 2237 0144 73746174 		.ascii	"state\000"
 2237      6500
 2238              	.LASF9:
 2239 014a 6C6F6E67 		.ascii	"long int\000"
 2239      20696E74 
 2239      00
 2240              	.LASF19:
 2241 0153 74737461 		.ascii	"tstate_t\000"
 2241      74655F74 
 2241      00
 2242              	.LASF82:
 2243 015c 74687265 		.ascii	"thread\000"
 2243      616400
 2244              	.LASF67:
 2245 0163 64617461 		.ascii	"dataDelay\000"
 2245      44656C61 
 2245      7900
 2246              	.LASF15:
 2247 016d 75696E74 		.ascii	"uint16_t\000"
 2247      31365F74 
 2247      00
 2248              	.LASF31:
 2249 0176 705F6E65 		.ascii	"p_newer\000"
 2249      77657200 
 2250              	.LASF61:
 2251 017e 636F6E74 		.ascii	"control\000"
 2251      726F6C00 
 2252              	.LASF10:
 2253 0186 5F5F7569 		.ascii	"__uint32_t\000"
 2253      6E743332 
 2253      5F7400
 2254              	.LASF47:
 2255 0191 72656761 		.ascii	"regarm_t\000"
 2255      726D5F74 
 2255      00
 2256              	.LASF64:
 2257 019a 736C6176 		.ascii	"slaveAddress\000"
 2257      65416464 
 2257      72657373 
 2257      00
 2258              	.LASF0:
 2259 01a7 756E7369 		.ascii	"unsigned int\000"
ARM GAS  /tmp/ccVMW02f.s 			page 42


 2259      676E6564 
 2259      20696E74 
 2259      00
 2260              	.LASF84:
 2261 01b4 74786275 		.ascii	"txbuf\000"
 2261      6600
 2262              	.LASF79:
 2263 01ba 6572726F 		.ascii	"errors\000"
 2263      727300
 2264              	.LASF11:
 2265 01c1 6C6F6E67 		.ascii	"long unsigned int\000"
 2265      20756E73 
 2265      69676E65 
 2265      6420696E 
 2265      7400
 2266              	.LASF101:
 2267 01d3 74696D65 		.ascii	"timeout\000"
 2267      6F757400 
 2268              	.LASF49:
 2269 01db 636F6E74 		.ascii	"context\000"
 2269      65787400 
 2270              	.LASF7:
 2271 01e3 73686F72 		.ascii	"short unsigned int\000"
 2271      7420756E 
 2271      7369676E 
 2271      65642069 
 2271      6E7400
 2272              	.LASF76:
 2273 01f6 49324344 		.ascii	"I2CDriver\000"
 2273      72697665 
 2273      7200
 2274              	.LASF23:
 2275 0200 6D73675F 		.ascii	"msg_t\000"
 2275      7400
 2276              	.LASF89:
 2277 0206 72786964 		.ascii	"rxidx\000"
 2277      7800
 2278              	.LASF18:
 2279 020c 746D6F64 		.ascii	"tmode_t\000"
 2279      655F7400 
 2280              	.LASF105:
 2281 0214 63684D74 		.ascii	"chMtxInit\000"
 2281      78496E69 
 2281      7400
 2282              	.LASF46:
 2283 021e 54687265 		.ascii	"ThreadsList\000"
 2283      6164734C 
 2283      69737400 
 2284              	.LASF24:
 2285 022a 6576656E 		.ascii	"eventmask_t\000"
 2285      746D6173 
 2285      6B5F7400 
 2286              	.LASF50:
 2287 0236 4D757465 		.ascii	"Mutex\000"
 2287      7800
 2288              	.LASF107:
 2289 023c 6932635F 		.ascii	"i2c_lld_stop\000"
ARM GAS  /tmp/ccVMW02f.s 			page 43


 2289      6C6C645F 
 2289      73746F70 
 2289      00
 2290              	.LASF70:
 2291 0249 4932435F 		.ascii	"I2C_STOP\000"
 2291      53544F50 
 2291      00
 2292              	.LASF59:
 2293 0252 73697A65 		.ascii	"sizetype\000"
 2293      74797065 
 2293      00
 2294              	.LASF66:
 2295 025b 636C6F63 		.ascii	"clockDivider\000"
 2295      6B446976 
 2295      69646572 
 2295      00
 2296              	.LASF92:
 2297 0268 69635F73 		.ascii	"ic_speed\000"
 2297      70656564 
 2297      00
 2298              	.LASF110:
 2299 0271 63684D74 		.ascii	"chMtxLock\000"
 2299      784C6F63 
 2299      6B00
 2300              	.LASF32:
 2301 027b 705F6F6C 		.ascii	"p_older\000"
 2301      64657200 
 2302              	.LASF88:
 2303 0283 72786279 		.ascii	"rxbytes\000"
 2303      74657300 
 2304              	.LASF93:
 2305 028b 49324343 		.ascii	"I2CConfig\000"
 2305      6F6E6669 
 2305      6700
 2306              	.LASF45:
 2307 0295 54687265 		.ascii	"ThreadsQueue\000"
 2307      61647351 
 2307      75657565 
 2307      00
 2308              	.LASF85:
 2309 02a2 74786279 		.ascii	"txbytes\000"
 2309      74657300 
 2310              	.LASF98:
 2311 02aa 69326353 		.ascii	"i2cStop\000"
 2311      746F7000 
 2312              	.LASF20:
 2313 02b2 74726566 		.ascii	"trefs_t\000"
 2313      735F7400 
 2314              	.LASF75:
 2315 02ba 69326373 		.ascii	"i2cstate_t\000"
 2315      74617465 
 2315      5F7400
 2316              	.LASF28:
 2317 02c5 705F7072 		.ascii	"p_prev\000"
 2317      657600
 2318              	.LASF103:
 2319 02cc 69326341 		.ascii	"i2cAcquireBus\000"
ARM GAS  /tmp/ccVMW02f.s 			page 44


 2319      63717569 
 2319      72654275 
 2319      7300
 2320              	.LASF22:
 2321 02da 74707269 		.ascii	"tprio_t\000"
 2321      6F5F7400 
 2322              	.LASF72:
 2323 02e2 4932435F 		.ascii	"I2C_ACTIVE_TX\000"
 2323      41435449 
 2323      56455F54 
 2323      5800
 2324              	.LASF90:
 2325 02f0 69326366 		.ascii	"i2cflags_t\000"
 2325      6C616773 
 2325      5F7400
 2326              	.LASF81:
 2327 02fb 6D757465 		.ascii	"mutex\000"
 2327      7800
 2328              	.LASF106:
 2329 0301 6932635F 		.ascii	"i2c_lld_start\000"
 2329      6C6C645F 
 2329      73746172 
 2329      7400
 2330              	.LASF16:
 2331 030f 696E7433 		.ascii	"int32_t\000"
 2331      325F7400 
 2332              	.LASF4:
 2333 0317 756E7369 		.ascii	"unsigned char\000"
 2333      676E6564 
 2333      20636861 
 2333      7200
 2334              	.LASF43:
 2335 0325 705F6D74 		.ascii	"p_mtxlist\000"
 2335      786C6973 
 2335      7400
 2336              	.LASF5:
 2337 032f 73686F72 		.ascii	"short int\000"
 2337      7420696E 
 2337      7400
 2338              	.LASF34:
 2339 0339 705F7374 		.ascii	"p_state\000"
 2339      61746500 
 2340              	.LASF37:
 2341 0341 705F7072 		.ascii	"p_preempt\000"
 2341      65656D70 
 2341      7400
 2342              	.LASF99:
 2343 034b 69326347 		.ascii	"i2cGetErrors\000"
 2343      65744572 
 2343      726F7273 
 2343      00
 2344              	.LASF57:
 2345 0358 65776D61 		.ascii	"ewmask\000"
 2345      736B00
 2346              	.LASF27:
 2347 035f 705F6E65 		.ascii	"p_next\000"
 2347      787400
ARM GAS  /tmp/ccVMW02f.s 			page 45


 2348              	.LASF35:
 2349 0366 705F666C 		.ascii	"p_flags\000"
 2349      61677300 
 2350              	.LASF26:
 2351 036e 54687265 		.ascii	"Thread\000"
 2351      616400
 2352              	.LASF74:
 2353 0375 4932435F 		.ascii	"I2C_LOCKED\000"
 2353      4C4F434B 
 2353      454400
 2354              	.LASF42:
 2355 0380 705F6570 		.ascii	"p_epending\000"
 2355      656E6469 
 2355      6E6700
 2356              	.LASF17:
 2357 038b 75696E74 		.ascii	"uint32_t\000"
 2357      33325F74 
 2357      00
 2358              	.LASF73:
 2359 0394 4932435F 		.ascii	"I2C_ACTIVE_RX\000"
 2359      41435449 
 2359      56455F52 
 2359      5800
 2360              	.LASF58:
 2361 03a2 63686172 		.ascii	"char\000"
 2361      00
 2362              	.LASF78:
 2363 03a7 636F6E66 		.ascii	"config\000"
 2363      696700
 2364              	.LASF6:
 2365 03ae 5F5F7569 		.ascii	"__uint16_t\000"
 2365      6E743136 
 2365      5F7400
 2366              	.LASF53:
 2367 03b9 6D5F6E65 		.ascii	"m_next\000"
 2367      787400
 2368              	.LASF25:
 2369 03c0 73797374 		.ascii	"systime_t\000"
 2369      696D655F 
 2369      7400
 2370              	.LASF44:
 2371 03ca 705F7265 		.ascii	"p_realprio\000"
 2371      616C7072 
 2371      696F00
 2372              	.LASF8:
 2373 03d5 5F5F696E 		.ascii	"__int32_t\000"
 2373      7433325F 
 2373      7400
 2374              	.LASF71:
 2375 03df 4932435F 		.ascii	"I2C_READY\000"
 2375      52454144 
 2375      5900
 2376              	.LASF38:
 2377 03e9 705F7469 		.ascii	"p_time\000"
 2377      6D6500
 2378              	.LASF48:
 2379 03f0 696E7463 		.ascii	"intctx\000"
ARM GAS  /tmp/ccVMW02f.s 			page 46


 2379      747800
 2380              	.LASF40:
 2381 03f7 705F6D73 		.ascii	"p_msgqueue\000"
 2381      67717565 
 2381      756500
 2382              	.LASF113:
 2383 0402 2F686F6D 		.ascii	"/home/hunter/development/chibi/ChibiOS-RPi/demos/AR"
 2383      652F6875 
 2383      6E746572 
 2383      2F646576 
 2383      656C6F70 
 2384 0435 4D31312D 		.ascii	"M11-BCM2835-GCC\000"
 2384      42434D32 
 2384      3833352D 
 2384      47434300 
 2385              	.LASF86:
 2386 0445 74786964 		.ascii	"txidx\000"
 2386      7800
 2387              	.LASF114:
 2388 044b 6932635F 		.ascii	"i2c_lld_init\000"
 2388      6C6C645F 
 2388      696E6974 
 2388      00
 2389              	.LASF36:
 2390 0458 705F7265 		.ascii	"p_refs\000"
 2390      667300
 2391              	.LASF62:
 2392 045f 73746174 		.ascii	"status\000"
 2392      757300
 2393              	.LASF14:
 2394 0466 75696E74 		.ascii	"uint8_t\000"
 2394      385F7400 
 2395              	.LASF102:
 2396 046e 6932634D 		.ascii	"i2cMasterReceiveTimeout\000"
 2396      61737465 
 2396      72526563 
 2396      65697665 
 2396      54696D65 
 2397              	.LASF56:
 2398 0486 77746F62 		.ascii	"wtobjp\000"
 2398      6A7000
 2399              	.LASF33:
 2400 048d 705F6E61 		.ascii	"p_name\000"
 2400      6D6500
 2401              	.LASF111:
 2402 0494 474E5520 		.ascii	"GNU C 4.9.3 20150529 (prerelease) -mcpu=arm1176jz-s"
 2402      4320342E 
 2402      392E3320 
 2402      32303135 
 2402      30353239 
 2403 04c7 202D6D6E 		.ascii	" -mno-thumb-interwork -ggdb -O2 -fomit-frame-pointe"
 2403      6F2D7468 
 2403      756D622D 
 2403      696E7465 
 2403      72776F72 
 2404 04fa 72202D66 		.ascii	"r -ffunction-sections -fdata-sections\000"
 2404      66756E63 
ARM GAS  /tmp/ccVMW02f.s 			page 47


 2404      74696F6E 
 2404      2D736563 
 2404      74696F6E 
 2405              	.LASF94:
 2406 0520 69326349 		.ascii	"i2cInit\000"
 2406      6E697400 
 2407              	.LASF63:
 2408 0528 64617461 		.ascii	"dataLength\000"
 2408      4C656E67 
 2408      746800
 2409              	.LASF95:
 2410 0533 6932634F 		.ascii	"i2cObjectInit\000"
 2410      626A6563 
 2410      74496E69 
 2410      7400
 2411              	.LASF52:
 2412 0541 6D5F6F77 		.ascii	"m_owner\000"
 2412      6E657200 
 2413              	.LASF30:
 2414 0549 705F6374 		.ascii	"p_ctx\000"
 2414      7800
 2415              	.LASF39:
 2416 054f 705F7761 		.ascii	"p_waiting\000"
 2416      6974696E 
 2416      6700
 2417              	.LASF68:
 2418 0559 636C6F63 		.ascii	"clockStretchTimeout\000"
 2418      6B537472 
 2418      65746368 
 2418      54696D65 
 2418      6F757400 
 2419              		.ident	"GCC: (15:4.9.3+svn231177-1) 4.9.3 20150529 (prerelease)"
ARM GAS  /tmp/ccVMW02f.s 			page 48


DEFINED SYMBOLS
                            *ABS*:0000000000000000 i2c.c
     /tmp/ccVMW02f.s:17     .text.i2cInit:0000000000000000 $a
     /tmp/ccVMW02f.s:20     .text.i2cInit:0000000000000000 i2cInit
     /tmp/ccVMW02f.s:35     .text.i2cObjectInit:0000000000000000 $a
     /tmp/ccVMW02f.s:38     .text.i2cObjectInit:0000000000000000 i2cObjectInit
     /tmp/ccVMW02f.s:63     .text.i2cStart:0000000000000000 $a
     /tmp/ccVMW02f.s:66     .text.i2cStart:0000000000000000 i2cStart
     /tmp/ccVMW02f.s:100    .text.i2cStop:0000000000000000 $a
     /tmp/ccVMW02f.s:103    .text.i2cStop:0000000000000000 i2cStop
     /tmp/ccVMW02f.s:135    .text.i2cGetErrors:0000000000000000 $a
     /tmp/ccVMW02f.s:138    .text.i2cGetErrors:0000000000000000 i2cGetErrors
     /tmp/ccVMW02f.s:154    .text.i2cMasterTransmitTimeout:0000000000000000 $a
     /tmp/ccVMW02f.s:157    .text.i2cMasterTransmitTimeout:0000000000000000 i2cMasterTransmitTimeout
     /tmp/ccVMW02f.s:217    .text.i2cMasterReceiveTimeout:0000000000000000 $a
     /tmp/ccVMW02f.s:220    .text.i2cMasterReceiveTimeout:0000000000000000 i2cMasterReceiveTimeout
     /tmp/ccVMW02f.s:274    .text.i2cAcquireBus:0000000000000000 $a
     /tmp/ccVMW02f.s:277    .text.i2cAcquireBus:0000000000000000 i2cAcquireBus
     /tmp/ccVMW02f.s:294    .text.i2cReleaseBus:0000000000000000 $a
     /tmp/ccVMW02f.s:297    .text.i2cReleaseBus:0000000000000000 i2cReleaseBus
                     .debug_frame:0000000000000010 $d

UNDEFINED SYMBOLS
i2c_lld_init
chMtxInit
i2c_lld_start
i2c_lld_stop
i2c_lld_master_transmit_timeout
i2c_lld_master_receive_timeout
chMtxLock
chMtxUnlock
