ARM GAS  /tmp/cc8RsDTv.s 			page 1


   1              		.cpu arm1176jz-s
   2              		.fpu softvfp
   3              		.eabi_attribute 20, 1
   4              		.eabi_attribute 21, 1
   5              		.eabi_attribute 23, 3
   6              		.eabi_attribute 24, 1
   7              		.eabi_attribute 25, 1
   8              		.eabi_attribute 26, 1
   9              		.eabi_attribute 30, 2
  10              		.eabi_attribute 34, 1
  11              		.eabi_attribute 18, 4
  12              		.file	"main.c"
  13              		.text
  14              	.Ltext0:
  15              		.cfi_sections	.debug_frame
  16              		.section	.text.Thread1,"ax",%progbits
  17              		.align	2
  18              		.type	Thread1, %function
  19              	Thread1:
  20              	.LFB8:
  21              		.file 1 "main.c"
  22              		.loc 1 113 0
  23              		.cfi_startproc
  24              		@ Volatile: function does not return.
  25              		@ args = 0, pretend = 0, frame = 0
  26              		@ frame_needed = 0, uses_anonymous_args = 0
  27              	.LVL0:
  28 0000 08402DE9 		stmfd	sp!, {r3, lr}
  29              		.cfi_def_cfa_offset 8
  30              		.cfi_offset 3, -8
  31              		.cfi_offset 14, -4
  32              		.loc 1 115 0
  33 0004 40309FE5 		ldr	r3, .L5
  34 0008 40209FE5 		ldr	r2, .L5+4
  35 000c 183093E5 		ldr	r3, [r3, #24]
  36 0010 3C409FE5 		ldr	r4, .L5+8
  37 0014 182083E5 		str	r2, [r3, #24]
  38              	.LVL1:
  39              	.L2:
  40              		.loc 1 117 0 discriminator 1
  41 0018 001094E5 		ldr	r1, [r4]
  42 001c 30009FE5 		ldr	r0, .L5+8
  43 0020 0118C1E3 		bic	r1, r1, #65536
  44 0024 FEFFFFEB 		bl	_pal_lld_writeport
  45              	.LVL2:
  46              		.loc 1 118 0 discriminator 1
  47 0028 6400A0E3 		mov	r0, #100
  48 002c FEFFFFEB 		bl	chThdSleep
  49              	.LVL3:
  50              		.loc 1 119 0 discriminator 1
  51 0030 001094E5 		ldr	r1, [r4]
  52 0034 18009FE5 		ldr	r0, .L5+8
  53 0038 011881E3 		orr	r1, r1, #65536
  54 003c FEFFFFEB 		bl	_pal_lld_writeport
  55              	.LVL4:
  56              		.loc 1 120 0 discriminator 1
  57 0040 E10FA0E3 		mov	r0, #900
ARM GAS  /tmp/cc8RsDTv.s 			page 2


  58 0044 FEFFFFEB 		bl	chThdSleep
  59              	.LVL5:
  60              		.loc 1 121 0 discriminator 1
  61 0048 F2FFFFEA 		b	.L2
  62              	.L6:
  63              		.align	2
  64              	.L5:
  65 004c 00000000 		.word	rlist
  66 0050 00000000 		.word	.LC0
  67 0054 00000000 		.word	IOPORT0
  68              		.cfi_endproc
  69              	.LFE8:
  70              		.size	Thread1, .-Thread1
  71              		.section	.text.cmd_reboot,"ax",%progbits
  72              		.align	2
  73              		.type	cmd_reboot, %function
  74              	cmd_reboot:
  75              	.LFB7:
  76              		.loc 1 86 0
  77              		.cfi_startproc
  78              		@ args = 0, pretend = 0, frame = 0
  79              		@ frame_needed = 0, uses_anonymous_args = 0
  80              		@ link register save eliminated.
  81              	.LVL6:
  82              		.loc 1 88 0
  83 0000 000051E3 		cmp	r1, #0
  84 0004 010000DA 		ble	.L8
  85              		.loc 1 89 0
  86 0008 08109FE5 		ldr	r1, .L9
  87              	.LVL7:
  88 000c FEFFFFEA 		b	chprintf
  89              	.LVL8:
  90              	.L8:
  91              		.loc 1 94 0
  92 0010 0100A0E3 		mov	r0, #1
  93              	.LVL9:
  94 0014 FEFFFFEA 		b	watchdog_start
  95              	.LVL10:
  96              	.L10:
  97              		.align	2
  98              	.L9:
  99 0018 08000000 		.word	.LC1
 100              		.cfi_endproc
 101              	.LFE7:
 102              		.size	cmd_reboot, .-cmd_reboot
 103              		.section	.text.startup.main,"ax",%progbits
 104              		.align	2
 105              		.global	main
 106              		.type	main, %function
 107              	main:
 108              	.LFB9:
 109              		.loc 1 128 0
 110              		.cfi_startproc
 111              		@ args = 0, pretend = 0, frame = 0
 112              		@ frame_needed = 0, uses_anonymous_args = 0
 113 0000 30402DE9 		stmfd	sp!, {r4, r5, lr}
 114              		.cfi_def_cfa_offset 12
ARM GAS  /tmp/cc8RsDTv.s 			page 3


 115              		.cfi_offset 4, -12
 116              		.cfi_offset 5, -8
 117              		.cfi_offset 14, -4
 118              		.loc 1 152 0
 119 0004 0040A0E3 		mov	r4, #0
 120              		.loc 1 135 0
 121 0008 74509FE5 		ldr	r5, .L13
 122              		.loc 1 128 0
 123 000c 0CD04DE2 		sub	sp, sp, #12
 124              		.cfi_def_cfa_offset 24
 125              		.loc 1 129 0
 126 0010 FEFFFFEB 		bl	halInit
 127              	.LVL11:
 128              		.loc 1 130 0
 129 0014 FEFFFFEB 		bl	chSysInit
 130              	.LVL12:
 131              		.loc 1 135 0
 132 0018 0500A0E1 		mov	r0, r5
 133 001c 0410A0E1 		mov	r1, r4
 134 0020 FEFFFFEB 		bl	sdStart
 135              	.LVL13:
 136              		.loc 1 136 0
 137 0024 0500A0E1 		mov	r0, r5
 138 0028 58109FE5 		ldr	r1, .L13+4
 139 002c FEFFFFEB 		bl	chprintf
 140              	.LVL14:
 141              		.loc 1 141 0
 142 0030 FEFFFFEB 		bl	shellInit
 143              	.LVL15:
 144              		.loc 1 142 0
 145 0034 50109FE5 		ldr	r1, .L13+8
 146 0038 4120A0E3 		mov	r2, #65
 147 003c 4C009FE5 		ldr	r0, .L13+12
 148 0040 FEFFFFEB 		bl	shellCreate
 149              	.LVL16:
 150              		.loc 1 147 0
 151 0044 48009FE5 		ldr	r0, .L13+16
 152 0048 0118A0E3 		mov	r1, #65536
 153 004c FF20A0E3 		mov	r2, #255
 154 0050 FEFFFFEB 		bl	_pal_lld_setgroupmode
 155              	.LVL17:
 156              		.loc 1 152 0
 157 0054 461FA0E3 		mov	r1, #280
 158 0058 4020A0E3 		mov	r2, #64
 159 005c 00408DE5 		str	r4, [sp]
 160 0060 30309FE5 		ldr	r3, .L13+20
 161 0064 30009FE5 		ldr	r0, .L13+24
 162 0068 FEFFFFEB 		bl	chThdCreateStatic
 163              	.LVL18:
 164              		.loc 1 157 0
 165 006c 2C309FE5 		ldr	r3, .L13+28
 166 0070 180093E5 		ldr	r0, [r3, #24]
 167 0074 FEFFFFEB 		bl	chThdWait
 168              	.LVL19:
 169              		.loc 1 160 0
 170 0078 0400A0E1 		mov	r0, r4
 171 007c 0CD08DE2 		add	sp, sp, #12
ARM GAS  /tmp/cc8RsDTv.s 			page 4


 172              		.cfi_def_cfa_offset 12
 173              		@ sp needed
 174 0080 3080BDE8 		ldmfd	sp!, {r4, r5, pc}
 175              	.L14:
 176              		.align	2
 177              	.L13:
 178 0084 00000000 		.word	SD1
 179 0088 18000000 		.word	.LC2
 180 008c 98100000 		.word	4248
 181 0090 00000000 		.word	.LANCHOR0
 182 0094 00000000 		.word	IOPORT0
 183 0098 00000000 		.word	Thread1
 184 009c 00000000 		.word	.LANCHOR1
 185 00a0 00000000 		.word	rlist
 186              		.cfi_endproc
 187              	.LFE9:
 188              		.size	main, .-main
 189              		.section	.rodata.commands,"a",%progbits
 190              		.align	2
 191              		.type	commands, %object
 192              		.size	commands, 16
 193              	commands:
 194 0000 30000000 		.word	.LC3
 195 0004 00000000 		.word	cmd_reboot
 196 0008 00000000 		.word	0
 197 000c 00000000 		.word	0
 198              		.section	.bss.waThread1,"aw",%nobits
 199              		.align	2
 200              		.set	.LANCHOR1,. + 0
 201              		.type	waThread1, %object
 202              		.size	waThread1, 280
 203              	waThread1:
 204 0000 00000000 		.space	280
 204      00000000 
 204      00000000 
 204      00000000 
 204      00000000 
 205              		.section	.rodata.str1.4,"aMS",%progbits,1
 206              		.align	2
 207              	.LC0:
 208 0000 626C696E 		.ascii	"blinker\000"
 208      6B657200 
 209              	.LC1:
 210 0008 55736167 		.ascii	"Usage: reboot\015\012\000"
 210      653A2072 
 210      65626F6F 
 210      740D0A00 
 211              	.LC2:
 212 0018 4D61696E 		.ascii	"Main (SD1 started)\015\012\000"
 212      20285344 
 212      31207374 
 212      61727465 
 212      64290D0A 
 213 002d 000000   		.space	3
 214              	.LC3:
 215 0030 7265626F 		.ascii	"reboot\000"
 215      6F7400
ARM GAS  /tmp/cc8RsDTv.s 			page 5


 216              		.section	.rodata.shell_config,"a",%progbits
 217              		.align	2
 218              		.set	.LANCHOR0,. + 0
 219              		.type	shell_config, %object
 220              		.size	shell_config, 8
 221              	shell_config:
 222 0000 00000000 		.word	SD1
 223 0004 00000000 		.word	commands
 224              		.text
 225              	.Letext0:
 226              		.file 2 "/usr/lib/gcc/arm-none-eabi/4.9.3/include/stddef.h"
 227              		.file 3 "/usr/include/newlib/machine/_default_types.h"
 228              		.file 4 "/usr/include/newlib/sys/_stdint.h"
 229              		.file 5 "../../os/ports/GCC/ARM/chtypes.h"
 230              		.file 6 "../../os/kernel/include/chlists.h"
 231              		.file 7 "../../os/kernel/include/chthreads.h"
 232              		.file 8 "../../os/ports/GCC/ARM/chcore.h"
 233              		.file 9 "../../os/kernel/include/chschd.h"
 234              		.file 10 "../../os/kernel/include/chmtx.h"
 235              		.file 11 "../../os/kernel/include/chevents.h"
 236              		.file 12 "../../os/kernel/include/chqueues.h"
 237              		.file 13 "../../os/kernel/include/chstreams.h"
 238              		.file 14 "../../os/hal/platforms/BCM2835/pal_lld.h"
 239              		.file 15 "../../os/hal/include/serial.h"
 240              		.file 16 "../../os/hal/platforms/BCM2835/serial_lld.h"
 241              		.file 17 "../../os/various/shell.h"
 242              		.file 18 "../../os/various/chprintf.h"
 243              		.file 19 "../../os/hal/platforms/BCM2835/hal_lld.h"
 244              		.file 20 "../../os/hal/include/hal.h"
 245              		.file 21 "../../os/kernel/include/chsys.h"