ARM GAS  /tmp/cc8RsDTv.s 			page 1


   1              		.cpu arm1176jz-s
   2              		.fpu softvfp
   3              		.eabi_attribute 20, 1
   4              		.eabi_attribute 21, 1
   5              		.eabi_attribute 23, 3
   6              		.eabi_attribute 24, 1
   7              		.eabi_attribute 25, 1
   8              		.eabi_attribute 26, 1
   9              		.eabi_attribute 30, 2
  10              		.eabi_attribute 34, 1
  11              		.eabi_attribute 18, 4
  12              		.file	"main.c"
  13              		.text
  14              	.Ltext0:
  15              		.cfi_sections	.debug_frame
  16              		.section	.text.Thread1,"ax",%progbits
  17              		.align	2
  18              		.type	Thread1, %function
  19              	Thread1:
  20              	.LFB8:
  21              		.file 1 "main.c"
  22              		.loc 1 113 0
  23              		.cfi_startproc
  24              		@ Volatile: function does not return.
  25              		@ args = 0, pretend = 0, frame = 0
  26              		@ frame_needed = 0, uses_anonymous_args = 0
  27              	.LVL0:
  28 0000 08402DE9 		stmfd	sp!, {r3, lr}
  29              		.cfi_def_cfa_offset 8
  30              		.cfi_offset 3, -8
  31              		.cfi_offset 14, -4
  32              		.loc 1 115 0
  33 0004 40309FE5 		ldr	r3, .L5
  34 0008 40209FE5 		ldr	r2, .L5+4
  35 000c 183093E5 		ldr	r3, [r3, #24]
  36 0010 3C409FE5 		ldr	r4, .L5+8
  37 0014 182083E5 		str	r2, [r3, #24]
  38              	.LVL1:
  39              	.L2:
  40              		.loc 1 117 0 discriminator 1
  41 0018 001094E5 		ldr	r1, [r4]
  42 001c 30009FE5 		ldr	r0, .L5+8
  43 0020 0118C1E3 		bic	r1, r1, #65536
  44 0024 FEFFFFEB 		bl	_pal_lld_writeport
  45              	.LVL2:
  46              		.loc 1 118 0 discriminator 1
  47 0028 6400A0E3 		mov	r0, #100
  48 002c FEFFFFEB 		bl	chThdSleep
  49              	.LVL3:
  50              		.loc 1 119 0 discriminator 1
  51 0030 001094E5 		ldr	r1, [r4]
  52 0034 18009FE5 		ldr	r0, .L5+8
  53 0038 011881E3 		orr	r1, r1, #65536
  54 003c FEFFFFEB 		bl	_pal_lld_writeport
  55              	.LVL4:
  56              		.loc 1 120 0 discriminator 1
  57 0040 E10FA0E3 		mov	r0, #900
ARM GAS  /tmp/cc8RsDTv.s 			page 2


  58 0044 FEFFFFEB 		bl	chThdSleep
  59              	.LVL5:
  60              		.loc 1 121 0 discriminator 1
  61 0048 F2FFFFEA 		b	.L2
  62              	.L6:
  63              		.align	2
  64              	.L5:
  65 004c 00000000 		.word	rlist
  66 0050 00000000 		.word	.LC0
  67 0054 00000000 		.word	IOPORT0
  68              		.cfi_endproc
  69              	.LFE8:
  70              		.size	Thread1, .-Thread1
  71              		.section	.text.cmd_reboot,"ax",%progbits
  72              		.align	2
  73              		.type	cmd_reboot, %function
  74              	cmd_reboot:
  75              	.LFB7:
  76              		.loc 1 86 0
  77              		.cfi_startproc
  78              		@ args = 0, pretend = 0, frame = 0
  79              		@ frame_needed = 0, uses_anonymous_args = 0
  80              		@ link register save eliminated.
  81              	.LVL6:
  82              		.loc 1 88 0
  83 0000 000051E3 		cmp	r1, #0
  84 0004 010000DA 		ble	.L8
  85              		.loc 1 89 0
  86 0008 08109FE5 		ldr	r1, .L9
  87              	.LVL7:
  88 000c FEFFFFEA 		b	chprintf
  89              	.LVL8:
  90              	.L8:
  91              		.loc 1 94 0
  92 0010 0100A0E3 		mov	r0, #1
  93              	.LVL9:
  94 0014 FEFFFFEA 		b	watchdog_start
  95              	.LVL10:
  96              	.L10:
  97              		.align	2
  98              	.L9:
  99 0018 08000000 		.word	.LC1
 100              		.cfi_endproc
 101              	.LFE7:
 102              		.size	cmd_reboot, .-cmd_reboot
 103              		.section	.text.startup.main,"ax",%progbits
 104              		.align	2
 105              		.global	main
 106              		.type	main, %function
 107              	main:
 108              	.LFB9:
 109              		.loc 1 128 0
 110              		.cfi_startproc
 111              		@ args = 0, pretend = 0, frame = 0
 112              		@ frame_needed = 0, uses_anonymous_args = 0
 113 0000 30402DE9 		stmfd	sp!, {r4, r5, lr}
 114              		.cfi_def_cfa_offset 12
ARM GAS  /tmp/cc8RsDTv.s 			page 3


 115              		.cfi_offset 4, -12
 116              		.cfi_offset 5, -8
 117              		.cfi_offset 14, -4
 118              		.loc 1 152 0
 119 0004 0040A0E3 		mov	r4, #0
 120              		.loc 1 135 0
 121 0008 74509FE5 		ldr	r5, .L13
 122              		.loc 1 128 0
 123 000c 0CD04DE2 		sub	sp, sp, #12
 124              		.cfi_def_cfa_offset 24
 125              		.loc 1 129 0
 126 0010 FEFFFFEB 		bl	halInit
 127              	.LVL11:
 128              		.loc 1 130 0
 129 0014 FEFFFFEB 		bl	chSysInit
 130              	.LVL12:
 131              		.loc 1 135 0
 132 0018 0500A0E1 		mov	r0, r5
 133 001c 0410A0E1 		mov	r1, r4
 134 0020 FEFFFFEB 		bl	sdStart
 135              	.LVL13:
 136              		.loc 1 136 0
 137 0024 0500A0E1 		mov	r0, r5
 138 0028 58109FE5 		ldr	r1, .L13+4
 139 002c FEFFFFEB 		bl	chprintf
 140              	.LVL14:
 141              		.loc 1 141 0
 142 0030 FEFFFFEB 		bl	shellInit
 143              	.LVL15:
 144              		.loc 1 142 0
 145 0034 50109FE5 		ldr	r1, .L13+8
 146 0038 4120A0E3 		mov	r2, #65
 147 003c 4C009FE5 		ldr	r0, .L13+12
 148 0040 FEFFFFEB 		bl	shellCreate
 149              	.LVL16:
 150              		.loc 1 147 0
 151 0044 48009FE5 		ldr	r0, .L13+16
 152 0048 0118A0E3 		mov	r1, #65536
 153 004c FF20A0E3 		mov	r2, #255
 154 0050 FEFFFFEB 		bl	_pal_lld_setgroupmode
 155              	.LVL17:
 156              		.loc 1 152 0
 157 0054 461FA0E3 		mov	r1, #280
 158 0058 4020A0E3 		mov	r2, #64
 159 005c 00408DE5 		str	r4, [sp]
 160 0060 30309FE5 		ldr	r3, .L13+20
 161 0064 30009FE5 		ldr	r0, .L13+24
 162 0068 FEFFFFEB 		bl	chThdCreateStatic
 163              	.LVL18:
 164              		.loc 1 157 0
 165 006c 2C309FE5 		ldr	r3, .L13+28
 166 0070 180093E5 		ldr	r0, [r3, #24]
 167 0074 FEFFFFEB 		bl	chThdWait
 168              	.LVL19:
 169              		.loc 1 160 0
 170 0078 0400A0E1 		mov	r0, r4
 171 007c 0CD08DE2 		add	sp, sp, #12
ARM GAS  /tmp/cc8RsDTv.s 			page 4


 172              		.cfi_def_cfa_offset 12
 173              		@ sp needed
 174 0080 3080BDE8 		ldmfd	sp!, {r4, r5, pc}
 175              	.L14:
 176              		.align	2
 177              	.L13:
 178 0084 00000000 		.word	SD1
 179 0088 18000000 		.word	.LC2
 180 008c 98100000 		.word	4248
 181 0090 00000000 		.word	.LANCHOR0
 182 0094 00000000 		.word	IOPORT0
 183 0098 00000000 		.word	Thread1
 184 009c 00000000 		.word	.LANCHOR1
 185 00a0 00000000 		.word	rlist
 186              		.cfi_endproc
 187              	.LFE9:
 188              		.size	main, .-main
 189              		.section	.rodata.commands,"a",%progbits
 190              		.align	2
 191              		.type	commands, %object
 192              		.size	commands, 16
 193              	commands:
 194 0000 30000000 		.word	.LC3
 195 0004 00000000 		.word	cmd_reboot
 196 0008 00000000 		.word	0
 197 000c 00000000 		.word	0
 198              		.section	.bss.waThread1,"aw",%nobits
 199              		.align	2
 200              		.set	.LANCHOR1,. + 0
 201              		.type	waThread1, %object
 202              		.size	waThread1, 280
 203              	waThread1:
 204 0000 00000000 		.space	280
 204      00000000 
 204      00000000 
 204      00000000 
 204      00000000 
 205              		.section	.rodata.str1.4,"aMS",%progbits,1
 206              		.align	2
 207              	.LC0:
 208 0000 626C696E 		.ascii	"blinker\000"
 208      6B657200 
 209              	.LC1:
 210 0008 55736167 		.ascii	"Usage: reboot\015\012\000"
 210      653A2072 
 210      65626F6F 
 210      740D0A00 
 211              	.LC2:
 212 0018 4D61696E 		.ascii	"Main (SD1 started)\015\012\000"
 212      20285344 
 212      31207374 
 212      61727465 
 212      64290D0A 
 213 002d 000000   		.space	3
 214              	.LC3:
 215 0030 7265626F 		.ascii	"reboot\000"
 215      6F7400
ARM GAS  /tmp/cc8RsDTv.s 			page 5


 216              		.section	.rodata.shell_config,"a",%progbits
 217              		.align	2
 218              		.set	.LANCHOR0,. + 0
 219              		.type	shell_config, %object
 220              		.size	shell_config, 8
 221              	shell_config:
 222 0000 00000000 		.word	SD1
 223 0004 00000000 		.word	commands
 224              		.text
 225              	.Letext0:
 226              		.file 2 "/usr/lib/gcc/arm-none-eabi/4.9.3/include/stddef.h"
 227              		.file 3 "/usr/include/newlib/machine/_default_types.h"
 228              		.file 4 "/usr/include/newlib/sys/_stdint.h"
 229              		.file 5 "../../os/ports/GCC/ARM/chtypes.h"
 230              		.file 6 "../../os/kernel/include/chlists.h"
 231              		.file 7 "../../os/kernel/include/chthreads.h"
 232              		.file 8 "../../os/ports/GCC/ARM/chcore.h"
 233              		.file 9 "../../os/kernel/include/chschd.h"
 234              		.file 10 "../../os/kernel/include/chmtx.h"
 235              		.file 11 "../../os/kernel/include/chevents.h"
 236              		.file 12 "../../os/kernel/include/chqueues.h"
 237              		.file 13 "../../os/kernel/include/chstreams.h"
 238              		.file 14 "../../os/hal/platforms/BCM2835/pal_lld.h"
 239              		.file 15 "../../os/hal/include/serial.h"
 240              		.file 16 "../../os/hal/platforms/BCM2835/serial_lld.h"
 241              		.file 17 "../../os/various/shell.h"
 242              		.file 18 "../../os/various/chprintf.h"
 243              		.file 19 "../../os/hal/platforms/BCM2835/hal_lld.h"
 244              		.file 20 "../../os/hal/include/hal.h"
 245              		.file 21 "../../os/kernel/include/chsys.h"
 246              		.section	.debug_info,"",%progbits
 247              	.Ldebug_info0:
 248 0000 4E0C0000 		.4byte	0xc4e
 249 0004 0400     		.2byte	0x4
 250 0006 00000000 		.4byte	.Ldebug_abbrev0
 251 000a 04       		.byte	0x4
 252 000b 01       		.uleb128 0x1
 253 000c F8030000 		.4byte	.LASF143
 254 0010 01       		.byte	0x1
 255 0011 23000000 		.4byte	.LASF144
 256 0015 84050000 		.4byte	.LASF145
 257 0019 00000000 		.4byte	.Ldebug_ranges0+0
 258 001d 00000000 		.4byte	0
 259 0021 00000000 		.4byte	.Ldebug_line0
 260 0025 02       		.uleb128 0x2
 261 0026 04       		.byte	0x4
 262 0027 05       		.byte	0x5
 263 0028 696E7400 		.ascii	"int\000"
 264 002c 03       		.uleb128 0x3
 265 002d CE010000 		.4byte	.LASF2
 266 0031 02       		.byte	0x2
 267 0032 D4       		.byte	0xd4
 268 0033 37000000 		.4byte	0x37
 269 0037 04       		.uleb128 0x4
 270 0038 04       		.byte	0x4
 271 0039 07       		.byte	0x7
 272 003a 64000000 		.4byte	.LASF0
ARM GAS  /tmp/cc8RsDTv.s 			page 6


 273 003e 04       		.uleb128 0x4
 274 003f 01       		.byte	0x1
 275 0040 06       		.byte	0x6
 276 0041 FD050000 		.4byte	.LASF1
 277 0045 03       		.uleb128 0x3
 278 0046 97040000 		.4byte	.LASF3
 279 004a 03       		.byte	0x3
 280 004b 1D       		.byte	0x1d
 281 004c 50000000 		.4byte	0x50
 282 0050 04       		.uleb128 0x4
 283 0051 01       		.byte	0x1
 284 0052 08       		.byte	0x8
 285 0053 47050000 		.4byte	.LASF4
 286 0057 04       		.uleb128 0x4
 287 0058 02       		.byte	0x2
 288 0059 05       		.byte	0x5
 289 005a BE030000 		.4byte	.LASF5
 290 005e 04       		.uleb128 0x4
 291 005f 02       		.byte	0x2
 292 0060 07       		.byte	0x7
 293 0061 0F060000 		.4byte	.LASF6
 294 0065 03       		.uleb128 0x3
 295 0066 8F000000 		.4byte	.LASF7
 296 006a 03       		.byte	0x3
 297 006b 3F       		.byte	0x3f
 298 006c 70000000 		.4byte	0x70
 299 0070 04       		.uleb128 0x4
 300 0071 04       		.byte	0x4
 301 0072 05       		.byte	0x5
 302 0073 E5030000 		.4byte	.LASF8
 303 0077 03       		.uleb128 0x3
 304 0078 5D050000 		.4byte	.LASF9
 305 007c 03       		.byte	0x3
 306 007d 41       		.byte	0x41
 307 007e 82000000 		.4byte	0x82
 308 0082 04       		.uleb128 0x4
 309 0083 04       		.byte	0x4
 310 0084 07       		.byte	0x7
 311 0085 03050000 		.4byte	.LASF10
 312 0089 04       		.uleb128 0x4
 313 008a 08       		.byte	0x8
 314 008b 05       		.byte	0x5
 315 008c C5020000 		.4byte	.LASF11
 316 0090 04       		.uleb128 0x4
 317 0091 08       		.byte	0x8
 318 0092 07       		.byte	0x7
 319 0093 6B010000 		.4byte	.LASF12
 320 0097 03       		.uleb128 0x3
 321 0098 9E020000 		.4byte	.LASF13
 322 009c 04       		.byte	0x4
 323 009d 14       		.byte	0x14
 324 009e 45000000 		.4byte	0x45
 325 00a2 03       		.uleb128 0x3
 326 00a3 1F050000 		.4byte	.LASF14
 327 00a7 04       		.byte	0x4
 328 00a8 1F       		.byte	0x1f
 329 00a9 65000000 		.4byte	0x65
ARM GAS  /tmp/cc8RsDTv.s 			page 7


 330 00ad 03       		.uleb128 0x3
 331 00ae 16010000 		.4byte	.LASF15
 332 00b2 04       		.byte	0x4
 333 00b3 20       		.byte	0x20
 334 00b4 77000000 		.4byte	0x77
 335 00b8 03       		.uleb128 0x3
 336 00b9 3F030000 		.4byte	.LASF16
 337 00bd 05       		.byte	0x5
 338 00be 2A       		.byte	0x2a
 339 00bf 97000000 		.4byte	0x97
 340 00c3 03       		.uleb128 0x3
 341 00c4 72020000 		.4byte	.LASF17
 342 00c8 05       		.byte	0x5
 343 00c9 2B       		.byte	0x2b
 344 00ca 97000000 		.4byte	0x97
 345 00ce 03       		.uleb128 0x3
 346 00cf ED040000 		.4byte	.LASF18
 347 00d3 05       		.byte	0x5
 348 00d4 2C       		.byte	0x2c
 349 00d5 97000000 		.4byte	0x97
 350 00d9 03       		.uleb128 0x3
 351 00da 0D030000 		.4byte	.LASF19
 352 00de 05       		.byte	0x5
 353 00df 2D       		.byte	0x2d
 354 00e0 97000000 		.4byte	0x97
 355 00e4 03       		.uleb128 0x3
 356 00e5 5B010000 		.4byte	.LASF20
 357 00e9 05       		.byte	0x5
 358 00ea 2E       		.byte	0x2e
 359 00eb AD000000 		.4byte	0xad
 360 00ef 03       		.uleb128 0x3
 361 00f0 EA020000 		.4byte	.LASF21
 362 00f4 05       		.byte	0x5
 363 00f5 2F       		.byte	0x2f
 364 00f6 A2000000 		.4byte	0xa2
 365 00fa 03       		.uleb128 0x3
 366 00fb 2B010000 		.4byte	.LASF22
 367 00ff 05       		.byte	0x5
 368 0100 31       		.byte	0x31
 369 0101 AD000000 		.4byte	0xad
 370 0105 03       		.uleb128 0x3
 371 0106 A6020000 		.4byte	.LASF23
 372 010a 05       		.byte	0x5
 373 010b 32       		.byte	0x32
 374 010c AD000000 		.4byte	0xad
 375 0110 03       		.uleb128 0x3
 376 0111 47000000 		.4byte	.LASF24
 377 0115 05       		.byte	0x5
 378 0116 33       		.byte	0x33
 379 0117 AD000000 		.4byte	0xad
 380 011b 03       		.uleb128 0x3
 381 011c 6B020000 		.4byte	.LASF25
 382 0120 06       		.byte	0x6
 383 0121 23       		.byte	0x23
 384 0122 26010000 		.4byte	0x126
 385 0126 05       		.uleb128 0x5
 386 0127 6B020000 		.4byte	.LASF25
ARM GAS  /tmp/cc8RsDTv.s 			page 8


 387 012b 44       		.byte	0x44
 388 012c 07       		.byte	0x7
 389 012d 57       		.byte	0x57
 390 012e 17020000 		.4byte	0x217
 391 0132 06       		.uleb128 0x6
 392 0133 84040000 		.4byte	.LASF26
 393 0137 07       		.byte	0x7
 394 0138 58       		.byte	0x58
 395 0139 38020000 		.4byte	0x238
 396 013d 00       		.byte	0
 397 013e 06       		.uleb128 0x6
 398 013f DD040000 		.4byte	.LASF27
 399 0143 07       		.byte	0x7
 400 0144 5A       		.byte	0x5a
 401 0145 38020000 		.4byte	0x238
 402 0149 04       		.byte	0x4
 403 014a 06       		.uleb128 0x6
 404 014b 40000000 		.4byte	.LASF28
 405 014f 07       		.byte	0x7
 406 0150 5C       		.byte	0x5c
 407 0151 E4000000 		.4byte	0xe4
 408 0155 08       		.byte	0x8
 409 0156 06       		.uleb128 0x6
 410 0157 8B040000 		.4byte	.LASF29
 411 015b 07       		.byte	0x7
 412 015c 5D       		.byte	0x5d
 413 015d F3020000 		.4byte	0x2f3
 414 0161 0C       		.byte	0xc
 415 0162 06       		.uleb128 0x6
 416 0163 AB010000 		.4byte	.LASF30
 417 0167 07       		.byte	0x7
 418 0168 5F       		.byte	0x5f
 419 0169 38020000 		.4byte	0x238
 420 016d 10       		.byte	0x10
 421 016e 06       		.uleb128 0x6
 422 016f 8E020000 		.4byte	.LASF31
 423 0173 07       		.byte	0x7
 424 0174 60       		.byte	0x60
 425 0175 38020000 		.4byte	0x238
 426 0179 14       		.byte	0x14
 427 017a 06       		.uleb128 0x6
 428 017b 18020000 		.4byte	.LASF32
 429 017f 07       		.byte	0x7
 430 0180 67       		.byte	0x67
 431 0181 5C040000 		.4byte	0x45c
 432 0185 18       		.byte	0x18
 433 0186 06       		.uleb128 0x6
 434 0187 96020000 		.4byte	.LASF33
 435 018b 07       		.byte	0x7
 436 018c 72       		.byte	0x72
 437 018d C3000000 		.4byte	0xc3
 438 0191 1C       		.byte	0x1c
 439 0192 06       		.uleb128 0x6
 440 0193 F8020000 		.4byte	.LASF34
 441 0197 07       		.byte	0x7
 442 0198 76       		.byte	0x76
 443 0199 B8000000 		.4byte	0xb8
ARM GAS  /tmp/cc8RsDTv.s 			page 9


 444 019d 1D       		.byte	0x1d
 445 019e 06       		.uleb128 0x6
 446 019f 68050000 		.4byte	.LASF35
 447 01a3 07       		.byte	0x7
 448 01a4 7B       		.byte	0x7b
 449 01a5 CE000000 		.4byte	0xce
 450 01a9 1E       		.byte	0x1e
 451 01aa 06       		.uleb128 0x6
 452 01ab C7050000 		.4byte	.LASF36
 453 01af 07       		.byte	0x7
 454 01b0 81       		.byte	0x81
 455 01b1 D9000000 		.4byte	0xd9
 456 01b5 1F       		.byte	0x1f
 457 01b6 06       		.uleb128 0x6
 458 01b7 30000000 		.4byte	.LASF37
 459 01bb 07       		.byte	0x7
 460 01bc 88       		.byte	0x88
 461 01bd 12030000 		.4byte	0x312
 462 01c1 20       		.byte	0x20
 463 01c2 07       		.uleb128 0x7
 464 01c3 705F7500 		.ascii	"p_u\000"
 465 01c7 07       		.byte	0x7
 466 01c8 AD       		.byte	0xad
 467 01c9 27040000 		.4byte	0x427
 468 01cd 24       		.byte	0x24
 469 01ce 06       		.uleb128 0x6
 470 01cf 0C000000 		.4byte	.LASF38
 471 01d3 07       		.byte	0x7
 472 01d4 B2       		.byte	0xb2
 473 01d5 5E020000 		.4byte	0x25e
 474 01d9 28       		.byte	0x28
 475 01da 06       		.uleb128 0x6
 476 01db 59000000 		.4byte	.LASF39
 477 01df 07       		.byte	0x7
 478 01e0 B8       		.byte	0xb8
 479 01e1 3E020000 		.4byte	0x23e
 480 01e5 2C       		.byte	0x2c
 481 01e6 06       		.uleb128 0x6
 482 01e7 39030000 		.4byte	.LASF40
 483 01eb 07       		.byte	0x7
 484 01ec BC       		.byte	0xbc
 485 01ed EF000000 		.4byte	0xef
 486 01f1 34       		.byte	0x34
 487 01f2 06       		.uleb128 0x6
 488 01f3 D2030000 		.4byte	.LASF41
 489 01f7 07       		.byte	0x7
 490 01f8 C2       		.byte	0xc2
 491 01f9 FA000000 		.4byte	0xfa
 492 01fd 38       		.byte	0x38
 493 01fe 06       		.uleb128 0x6
 494 01ff B2020000 		.4byte	.LASF42
 495 0203 07       		.byte	0x7
 496 0204 C9       		.byte	0xc9
 497 0205 6E040000 		.4byte	0x46e
 498 0209 3C       		.byte	0x3c
 499 020a 06       		.uleb128 0x6
 500 020b B3030000 		.4byte	.LASF43
ARM GAS  /tmp/cc8RsDTv.s 			page 10


 501 020f 07       		.byte	0x7
 502 0210 CD       		.byte	0xcd
 503 0211 E4000000 		.4byte	0xe4
 504 0215 40       		.byte	0x40
 505 0216 00       		.byte	0
 506 0217 08       		.uleb128 0x8
 507 0218 08       		.byte	0x8
 508 0219 06       		.byte	0x6
 509 021a 5A       		.byte	0x5a
 510 021b 38020000 		.4byte	0x238
 511 021f 06       		.uleb128 0x6
 512 0220 84040000 		.4byte	.LASF26
 513 0224 06       		.byte	0x6
 514 0225 5B       		.byte	0x5b
 515 0226 38020000 		.4byte	0x238
 516 022a 00       		.byte	0
 517 022b 06       		.uleb128 0x6
 518 022c DD040000 		.4byte	.LASF27
 519 0230 06       		.byte	0x6
 520 0231 5D       		.byte	0x5d
 521 0232 38020000 		.4byte	0x238
 522 0236 04       		.byte	0x4
 523 0237 00       		.byte	0
 524 0238 09       		.uleb128 0x9
 525 0239 04       		.byte	0x4
 526 023a 1B010000 		.4byte	0x11b
 527 023e 03       		.uleb128 0x3
 528 023f 3F020000 		.4byte	.LASF44
 529 0243 06       		.byte	0x6
 530 0244 5F       		.byte	0x5f
 531 0245 17020000 		.4byte	0x217
 532 0249 08       		.uleb128 0x8
 533 024a 04       		.byte	0x4
 534 024b 06       		.byte	0x6
 535 024c 64       		.byte	0x64
 536 024d 5E020000 		.4byte	0x25e
 537 0251 06       		.uleb128 0x6
 538 0252 84040000 		.4byte	.LASF26
 539 0256 06       		.byte	0x6
 540 0257 66       		.byte	0x66
 541 0258 38020000 		.4byte	0x238
 542 025c 00       		.byte	0
 543 025d 00       		.byte	0
 544 025e 03       		.uleb128 0x3
 545 025f 00000000 		.4byte	.LASF45
 546 0263 06       		.byte	0x6
 547 0264 69       		.byte	0x69
 548 0265 49020000 		.4byte	0x249
 549 0269 03       		.uleb128 0x3
 550 026a 28060000 		.4byte	.LASF46
 551 026e 08       		.byte	0x8
 552 026f 9D       		.byte	0x9d
 553 0270 AD000000 		.4byte	0xad
 554 0274 03       		.uleb128 0x3
 555 0275 37000000 		.4byte	.LASF47
 556 0279 08       		.byte	0x8
 557 027a A2       		.byte	0xa2
ARM GAS  /tmp/cc8RsDTv.s 			page 11


 558 027b 7F020000 		.4byte	0x27f
 559 027f 0A       		.uleb128 0xa
 560 0280 04       		.byte	0x4
 561 0281 05       		.uleb128 0x5
 562 0282 73030000 		.4byte	.LASF48
 563 0286 24       		.byte	0x24
 564 0287 08       		.byte	0x8
 565 0288 B9       		.byte	0xb9
 566 0289 F3020000 		.4byte	0x2f3
 567 028d 07       		.uleb128 0x7
 568 028e 723400   		.ascii	"r4\000"
 569 0291 08       		.byte	0x8
 570 0292 BA       		.byte	0xba
 571 0293 74020000 		.4byte	0x274
 572 0297 00       		.byte	0
 573 0298 07       		.uleb128 0x7
 574 0299 723500   		.ascii	"r5\000"
 575 029c 08       		.byte	0x8
 576 029d BB       		.byte	0xbb
 577 029e 74020000 		.4byte	0x274
 578 02a2 04       		.byte	0x4
 579 02a3 07       		.uleb128 0x7
 580 02a4 723600   		.ascii	"r6\000"
 581 02a7 08       		.byte	0x8
 582 02a8 BC       		.byte	0xbc
 583 02a9 74020000 		.4byte	0x274
 584 02ad 08       		.byte	0x8
 585 02ae 07       		.uleb128 0x7
 586 02af 723700   		.ascii	"r7\000"
 587 02b2 08       		.byte	0x8
 588 02b3 BD       		.byte	0xbd
 589 02b4 74020000 		.4byte	0x274
 590 02b8 0C       		.byte	0xc
 591 02b9 07       		.uleb128 0x7
 592 02ba 723800   		.ascii	"r8\000"
 593 02bd 08       		.byte	0x8
 594 02be BE       		.byte	0xbe
 595 02bf 74020000 		.4byte	0x274
 596 02c3 10       		.byte	0x10
 597 02c4 07       		.uleb128 0x7
 598 02c5 723900   		.ascii	"r9\000"
 599 02c8 08       		.byte	0x8
 600 02c9 BF       		.byte	0xbf
 601 02ca 74020000 		.4byte	0x274
 602 02ce 14       		.byte	0x14
 603 02cf 07       		.uleb128 0x7
 604 02d0 72313000 		.ascii	"r10\000"
 605 02d4 08       		.byte	0x8
 606 02d5 C0       		.byte	0xc0
 607 02d6 74020000 		.4byte	0x274
 608 02da 18       		.byte	0x18
 609 02db 07       		.uleb128 0x7
 610 02dc 72313100 		.ascii	"r11\000"
 611 02e0 08       		.byte	0x8
 612 02e1 C1       		.byte	0xc1
 613 02e2 74020000 		.4byte	0x274
 614 02e6 1C       		.byte	0x1c
ARM GAS  /tmp/cc8RsDTv.s 			page 12


 615 02e7 07       		.uleb128 0x7
 616 02e8 6C7200   		.ascii	"lr\000"
 617 02eb 08       		.byte	0x8
 618 02ec C2       		.byte	0xc2
 619 02ed 74020000 		.4byte	0x274
 620 02f1 20       		.byte	0x20
 621 02f2 00       		.byte	0
 622 02f3 05       		.uleb128 0x5
 623 02f4 F0020000 		.4byte	.LASF49
 624 02f8 04       		.byte	0x4
 625 02f9 08       		.byte	0x8
 626 02fa CA       		.byte	0xca
 627 02fb 0C030000 		.4byte	0x30c
 628 02ff 07       		.uleb128 0x7
 629 0300 72313300 		.ascii	"r13\000"
 630 0304 08       		.byte	0x8
 631 0305 CB       		.byte	0xcb
 632 0306 0C030000 		.4byte	0x30c
 633 030a 00       		.byte	0
 634 030b 00       		.byte	0
 635 030c 09       		.uleb128 0x9
 636 030d 04       		.byte	0x4
 637 030e 81020000 		.4byte	0x281
 638 0312 0B       		.uleb128 0xb
 639 0313 10010000 		.4byte	0x110
 640 0317 08       		.uleb128 0x8
 641 0318 1C       		.byte	0x1c
 642 0319 09       		.byte	0x9
 643 031a 57       		.byte	0x57
 644 031b 68030000 		.4byte	0x368
 645 031f 06       		.uleb128 0x6
 646 0320 E2020000 		.4byte	.LASF50
 647 0324 09       		.byte	0x9
 648 0325 58       		.byte	0x58
 649 0326 3E020000 		.4byte	0x23e
 650 032a 00       		.byte	0
 651 032b 06       		.uleb128 0x6
 652 032c 37010000 		.4byte	.LASF51
 653 0330 09       		.byte	0x9
 654 0331 59       		.byte	0x59
 655 0332 E4000000 		.4byte	0xe4
 656 0336 08       		.byte	0x8
 657 0337 06       		.uleb128 0x6
 658 0338 22060000 		.4byte	.LASF52
 659 033c 09       		.byte	0x9
 660 033d 5B       		.byte	0x5b
 661 033e F3020000 		.4byte	0x2f3
 662 0342 0C       		.byte	0xc
 663 0343 06       		.uleb128 0x6
 664 0344 5B020000 		.4byte	.LASF53
 665 0348 09       		.byte	0x9
 666 0349 5E       		.byte	0x5e
 667 034a 38020000 		.4byte	0x238
 668 034e 10       		.byte	0x10
 669 034f 06       		.uleb128 0x6
 670 0350 17030000 		.4byte	.LASF54
 671 0354 09       		.byte	0x9
ARM GAS  /tmp/cc8RsDTv.s 			page 13


 672 0355 5F       		.byte	0x5f
 673 0356 38020000 		.4byte	0x238
 674 035a 14       		.byte	0x14
 675 035b 06       		.uleb128 0x6
 676 035c C8030000 		.4byte	.LASF55
 677 0360 09       		.byte	0x9
 678 0361 62       		.byte	0x62
 679 0362 38020000 		.4byte	0x238
 680 0366 18       		.byte	0x18
 681 0367 00       		.byte	0
 682 0368 03       		.uleb128 0x3
 683 0369 6F050000 		.4byte	.LASF56
 684 036d 09       		.byte	0x9
 685 036e 64       		.byte	0x64
 686 036f 17030000 		.4byte	0x317
 687 0373 05       		.uleb128 0x5
 688 0374 E9010000 		.4byte	.LASF57
 689 0378 10       		.byte	0x10
 690 0379 0A       		.byte	0xa
 691 037a 25       		.byte	0x25
 692 037b A4030000 		.4byte	0x3a4
 693 037f 06       		.uleb128 0x6
 694 0380 DD030000 		.4byte	.LASF58
 695 0384 0A       		.byte	0xa
 696 0385 26       		.byte	0x26
 697 0386 3E020000 		.4byte	0x23e
 698 038a 00       		.byte	0
 699 038b 06       		.uleb128 0x6
 700 038c 51000000 		.4byte	.LASF59
 701 0390 0A       		.byte	0xa
 702 0391 28       		.byte	0x28
 703 0392 38020000 		.4byte	0x238
 704 0396 08       		.byte	0x8
 705 0397 06       		.uleb128 0x6
 706 0398 F6050000 		.4byte	.LASF60
 707 039c 0A       		.byte	0xa
 708 039d 2A       		.byte	0x2a
 709 039e A4030000 		.4byte	0x3a4
 710 03a2 0C       		.byte	0xc
 711 03a3 00       		.byte	0
 712 03a4 09       		.uleb128 0x9
 713 03a5 04       		.byte	0x4
 714 03a6 73030000 		.4byte	0x373
 715 03aa 03       		.uleb128 0x3
 716 03ab E9010000 		.4byte	.LASF57
 717 03af 0A       		.byte	0xa
 718 03b0 2C       		.byte	0x2c
 719 03b1 73030000 		.4byte	0x373
 720 03b5 03       		.uleb128 0x3
 721 03b6 F5040000 		.4byte	.LASF61
 722 03ba 0B       		.byte	0xb
 723 03bb 25       		.byte	0x25
 724 03bc C0030000 		.4byte	0x3c0
 725 03c0 05       		.uleb128 0x5
 726 03c1 F5040000 		.4byte	.LASF61
 727 03c5 10       		.byte	0x10
 728 03c6 0B       		.byte	0xb
ARM GAS  /tmp/cc8RsDTv.s 			page 14


 729 03c7 2A       		.byte	0x2a
 730 03c8 FD030000 		.4byte	0x3fd
 731 03cc 06       		.uleb128 0x6
 732 03cd 31030000 		.4byte	.LASF62
 733 03d1 0B       		.byte	0xb
 734 03d2 2B       		.byte	0x2b
 735 03d3 FD030000 		.4byte	0x3fd
 736 03d7 00       		.byte	0
 737 03d8 06       		.uleb128 0x6
 738 03d9 A6040000 		.4byte	.LASF63
 739 03dd 0B       		.byte	0xb
 740 03de 2E       		.byte	0x2e
 741 03df 38020000 		.4byte	0x238
 742 03e3 04       		.byte	0x4
 743 03e4 06       		.uleb128 0x6
 744 03e5 AE000000 		.4byte	.LASF64
 745 03e9 0B       		.byte	0xb
 746 03ea 30       		.byte	0x30
 747 03eb FA000000 		.4byte	0xfa
 748 03ef 08       		.byte	0x8
 749 03f0 06       		.uleb128 0x6
 750 03f1 38060000 		.4byte	.LASF65
 751 03f5 0B       		.byte	0xb
 752 03f6 33       		.byte	0x33
 753 03f7 05010000 		.4byte	0x105
 754 03fb 0C       		.byte	0xc
 755 03fc 00       		.byte	0
 756 03fd 09       		.uleb128 0x9
 757 03fe 04       		.byte	0x4
 758 03ff B5030000 		.4byte	0x3b5
 759 0403 05       		.uleb128 0x5
 760 0404 C2010000 		.4byte	.LASF66
 761 0408 04       		.byte	0x4
 762 0409 0B       		.byte	0xb
 763 040a 3A       		.byte	0x3a
 764 040b 1C040000 		.4byte	0x41c
 765 040f 06       		.uleb128 0x6
 766 0410 D1050000 		.4byte	.LASF67
 767 0414 0B       		.byte	0xb
 768 0415 3B       		.byte	0x3b
 769 0416 FD030000 		.4byte	0x3fd
 770 041a 00       		.byte	0
 771 041b 00       		.byte	0
 772 041c 03       		.uleb128 0x3
 773 041d C2010000 		.4byte	.LASF66
 774 0421 0B       		.byte	0xb
 775 0422 3E       		.byte	0x3e
 776 0423 03040000 		.4byte	0x403
 777 0427 0C       		.uleb128 0xc
 778 0428 04       		.byte	0x4
 779 0429 07       		.byte	0x7
 780 042a 8F       		.byte	0x8f
 781 042b 5C040000 		.4byte	0x45c
 782 042f 0D       		.uleb128 0xd
 783 0430 D5010000 		.4byte	.LASF68
 784 0434 07       		.byte	0x7
 785 0435 96       		.byte	0x96
ARM GAS  /tmp/cc8RsDTv.s 			page 15


 786 0436 EF000000 		.4byte	0xef
 787 043a 0D       		.uleb128 0xd
 788 043b 41060000 		.4byte	.LASF69
 789 043f 07       		.byte	0x7
 790 0440 9D       		.byte	0x9d
 791 0441 EF000000 		.4byte	0xef
 792 0445 0D       		.uleb128 0xd
 793 0446 CE000000 		.4byte	.LASF70
 794 044a 07       		.byte	0x7
 795 044b A4       		.byte	0xa4
 796 044c 7F020000 		.4byte	0x27f
 797 0450 0D       		.uleb128 0xd
 798 0451 E2000000 		.4byte	.LASF71
 799 0455 07       		.byte	0x7
 800 0456 AB       		.byte	0xab
 801 0457 FA000000 		.4byte	0xfa
 802 045b 00       		.byte	0
 803 045c 09       		.uleb128 0x9
 804 045d 04       		.byte	0x4
 805 045e 62040000 		.4byte	0x462
 806 0462 0E       		.uleb128 0xe
 807 0463 67040000 		.4byte	0x467
 808 0467 04       		.uleb128 0x4
 809 0468 01       		.byte	0x1
 810 0469 08       		.byte	0x8
 811 046a 4C020000 		.4byte	.LASF72
 812 046e 09       		.uleb128 0x9
 813 046f 04       		.byte	0x4
 814 0470 AA030000 		.4byte	0x3aa
 815 0474 03       		.uleb128 0x3
 816 0475 63010000 		.4byte	.LASF73
 817 0479 07       		.byte	0x7
 818 047a DE       		.byte	0xde
 819 047b 7F040000 		.4byte	0x47f
 820 047f 09       		.uleb128 0x9
 821 0480 04       		.byte	0x4
 822 0481 85040000 		.4byte	0x485
 823 0485 0F       		.uleb128 0xf
 824 0486 EF000000 		.4byte	0xef
 825 048a 94040000 		.4byte	0x494
 826 048e 10       		.uleb128 0x10
 827 048f 7F020000 		.4byte	0x27f
 828 0493 00       		.byte	0
 829 0494 04       		.uleb128 0x4
 830 0495 04       		.byte	0x4
 831 0496 07       		.byte	0x7
 832 0497 E4040000 		.4byte	.LASF74
 833 049b 03       		.uleb128 0x3
 834 049c 5F030000 		.4byte	.LASF75
 835 04a0 0C       		.byte	0xc
 836 04a1 30       		.byte	0x30
 837 04a2 A6040000 		.4byte	0x4a6
 838 04a6 05       		.uleb128 0x5
 839 04a7 5F030000 		.4byte	.LASF75
 840 04ab 24       		.byte	0x24
 841 04ac 0C       		.byte	0xc
 842 04ad 3E       		.byte	0x3e
ARM GAS  /tmp/cc8RsDTv.s 			page 16


 843 04ae 13050000 		.4byte	0x513
 844 04b2 06       		.uleb128 0x6
 845 04b3 B3010000 		.4byte	.LASF76
 846 04b7 0C       		.byte	0xc
 847 04b8 3F       		.byte	0x3f
 848 04b9 3E020000 		.4byte	0x23e
 849 04bd 00       		.byte	0
 850 04be 06       		.uleb128 0x6
 851 04bf C8040000 		.4byte	.LASF77
 852 04c3 0C       		.byte	0xc
 853 04c4 40       		.byte	0x40
 854 04c5 2C000000 		.4byte	0x2c
 855 04c9 08       		.byte	0x8
 856 04ca 06       		.uleb128 0x6
 857 04cb D9020000 		.4byte	.LASF78
 858 04cf 0C       		.byte	0xc
 859 04d0 41       		.byte	0x41
 860 04d1 35050000 		.4byte	0x535
 861 04d5 0C       		.byte	0xc
 862 04d6 06       		.uleb128 0x6
 863 04d7 D7040000 		.4byte	.LASF79
 864 04db 0C       		.byte	0xc
 865 04dc 42       		.byte	0x42
 866 04dd 35050000 		.4byte	0x535
 867 04e1 10       		.byte	0x10
 868 04e2 06       		.uleb128 0x6
 869 04e3 63020000 		.4byte	.LASF80
 870 04e7 0C       		.byte	0xc
 871 04e8 44       		.byte	0x44
 872 04e9 35050000 		.4byte	0x535
 873 04ed 14       		.byte	0x14
 874 04ee 06       		.uleb128 0x6
 875 04ef 87000000 		.4byte	.LASF81
 876 04f3 0C       		.byte	0xc
 877 04f4 45       		.byte	0x45
 878 04f5 35050000 		.4byte	0x535
 879 04f9 18       		.byte	0x18
 880 04fa 06       		.uleb128 0x6
 881 04fb 06020000 		.4byte	.LASF82
 882 04ff 0C       		.byte	0xc
 883 0500 46       		.byte	0x46
 884 0501 13050000 		.4byte	0x513
 885 0505 1C       		.byte	0x1c
 886 0506 06       		.uleb128 0x6
 887 0507 D5000000 		.4byte	.LASF83
 888 050b 0C       		.byte	0xc
 889 050c 47       		.byte	0x47
 890 050d 7F020000 		.4byte	0x27f
 891 0511 20       		.byte	0x20
 892 0512 00       		.byte	0
 893 0513 03       		.uleb128 0x3
 894 0514 A4000000 		.4byte	.LASF84
 895 0518 0C       		.byte	0xc
 896 0519 33       		.byte	0x33
 897 051a 1E050000 		.4byte	0x51e
 898 051e 09       		.uleb128 0x9
 899 051f 04       		.byte	0x4
ARM GAS  /tmp/cc8RsDTv.s 			page 17


 900 0520 24050000 		.4byte	0x524
 901 0524 11       		.uleb128 0x11
 902 0525 2F050000 		.4byte	0x52f
 903 0529 10       		.uleb128 0x10
 904 052a 2F050000 		.4byte	0x52f
 905 052e 00       		.byte	0
 906 052f 09       		.uleb128 0x9
 907 0530 04       		.byte	0x4
 908 0531 9B040000 		.4byte	0x49b
 909 0535 09       		.uleb128 0x9
 910 0536 04       		.byte	0x4
 911 0537 97000000 		.4byte	0x97
 912 053b 03       		.uleb128 0x3
 913 053c 34020000 		.4byte	.LASF85
 914 0540 0C       		.byte	0xc
 915 0541 7B       		.byte	0x7b
 916 0542 9B040000 		.4byte	0x49b
 917 0546 03       		.uleb128 0x3
 918 0547 EF010000 		.4byte	.LASF86
 919 054b 0C       		.byte	0xc
 920 054c EE       		.byte	0xee
 921 054d 9B040000 		.4byte	0x49b
 922 0551 05       		.uleb128 0x5
 923 0552 B6000000 		.4byte	.LASF87
 924 0556 10       		.byte	0x10
 925 0557 0D       		.byte	0xd
 926 0558 41       		.byte	0x41
 927 0559 8E050000 		.4byte	0x58e
 928 055d 06       		.uleb128 0x6
 929 055e D3020000 		.4byte	.LASF88
 930 0562 0D       		.byte	0xd
 931 0563 42       		.byte	0x42
 932 0564 B2050000 		.4byte	0x5b2
 933 0568 00       		.byte	0
 934 0569 06       		.uleb128 0x6
 935 056a A1040000 		.4byte	.LASF89
 936 056e 0D       		.byte	0xd
 937 056f 42       		.byte	0x42
 938 0570 D1050000 		.4byte	0x5d1
 939 0574 04       		.byte	0x4
 940 0575 07       		.uleb128 0x7
 941 0576 70757400 		.ascii	"put\000"
 942 057a 0D       		.byte	0xd
 943 057b 42       		.byte	0x42
 944 057c EB050000 		.4byte	0x5eb
 945 0580 08       		.byte	0x8
 946 0581 07       		.uleb128 0x7
 947 0582 67657400 		.ascii	"get\000"
 948 0586 0D       		.byte	0xd
 949 0587 42       		.byte	0x42
 950 0588 7F040000 		.4byte	0x47f
 951 058c 0C       		.byte	0xc
 952 058d 00       		.byte	0
 953 058e 0F       		.uleb128 0xf
 954 058f 2C000000 		.4byte	0x2c
 955 0593 A7050000 		.4byte	0x5a7
 956 0597 10       		.uleb128 0x10
ARM GAS  /tmp/cc8RsDTv.s 			page 18


 957 0598 7F020000 		.4byte	0x27f
 958 059c 10       		.uleb128 0x10
 959 059d A7050000 		.4byte	0x5a7
 960 05a1 10       		.uleb128 0x10
 961 05a2 2C000000 		.4byte	0x2c
 962 05a6 00       		.byte	0
 963 05a7 09       		.uleb128 0x9
 964 05a8 04       		.byte	0x4
 965 05a9 AD050000 		.4byte	0x5ad
 966 05ad 0E       		.uleb128 0xe
 967 05ae 97000000 		.4byte	0x97
 968 05b2 09       		.uleb128 0x9
 969 05b3 04       		.byte	0x4
 970 05b4 8E050000 		.4byte	0x58e
 971 05b8 0F       		.uleb128 0xf
 972 05b9 2C000000 		.4byte	0x2c
 973 05bd D1050000 		.4byte	0x5d1
 974 05c1 10       		.uleb128 0x10
 975 05c2 7F020000 		.4byte	0x27f
 976 05c6 10       		.uleb128 0x10
 977 05c7 35050000 		.4byte	0x535
 978 05cb 10       		.uleb128 0x10
 979 05cc 2C000000 		.4byte	0x2c
 980 05d0 00       		.byte	0
 981 05d1 09       		.uleb128 0x9
 982 05d2 04       		.byte	0x4
 983 05d3 B8050000 		.4byte	0x5b8
 984 05d7 0F       		.uleb128 0xf
 985 05d8 EF000000 		.4byte	0xef
 986 05dc EB050000 		.4byte	0x5eb
 987 05e0 10       		.uleb128 0x10
 988 05e1 7F020000 		.4byte	0x27f
 989 05e5 10       		.uleb128 0x10
 990 05e6 97000000 		.4byte	0x97
 991 05ea 00       		.byte	0
 992 05eb 09       		.uleb128 0x9
 993 05ec 04       		.byte	0x4
 994 05ed D7050000 		.4byte	0x5d7
 995 05f1 08       		.uleb128 0x8
 996 05f2 04       		.byte	0x4
 997 05f3 0D       		.byte	0xd
 998 05f4 4A       		.byte	0x4a
 999 05f5 06060000 		.4byte	0x606
 1000 05f9 07       		.uleb128 0x7
 1001 05fa 766D7400 		.ascii	"vmt\000"
 1002 05fe 0D       		.byte	0xd
 1003 05ff 4C       		.byte	0x4c
 1004 0600 06060000 		.4byte	0x606
 1005 0604 00       		.byte	0
 1006 0605 00       		.byte	0
 1007 0606 09       		.uleb128 0x9
 1008 0607 04       		.byte	0x4
 1009 0608 0C060000 		.4byte	0x60c
 1010 060c 0E       		.uleb128 0xe
 1011 060d 51050000 		.4byte	0x551
 1012 0611 03       		.uleb128 0x3
 1013 0612 1F020000 		.4byte	.LASF90
ARM GAS  /tmp/cc8RsDTv.s 			page 19


 1014 0616 0D       		.byte	0xd
 1015 0617 4E       		.byte	0x4e
 1016 0618 F1050000 		.4byte	0x5f1
 1017 061c 0F       		.uleb128 0xf
 1018 061d EF000000 		.4byte	0xef
 1019 0621 35060000 		.4byte	0x635
 1020 0625 10       		.uleb128 0x10
 1021 0626 7F020000 		.4byte	0x27f
 1022 062a 10       		.uleb128 0x10
 1023 062b 97000000 		.4byte	0x97
 1024 062f 10       		.uleb128 0x10
 1025 0630 10010000 		.4byte	0x110
 1026 0634 00       		.byte	0
 1027 0635 09       		.uleb128 0x9
 1028 0636 04       		.byte	0x4
 1029 0637 1C060000 		.4byte	0x61c
 1030 063b 0F       		.uleb128 0xf
 1031 063c EF000000 		.4byte	0xef
 1032 0640 4F060000 		.4byte	0x64f
 1033 0644 10       		.uleb128 0x10
 1034 0645 7F020000 		.4byte	0x27f
 1035 0649 10       		.uleb128 0x10
 1036 064a 10010000 		.4byte	0x110
 1037 064e 00       		.byte	0
 1038 064f 09       		.uleb128 0x9
 1039 0650 04       		.byte	0x4
 1040 0651 3B060000 		.4byte	0x63b
 1041 0655 0F       		.uleb128 0xf
 1042 0656 2C000000 		.4byte	0x2c
 1043 065a 73060000 		.4byte	0x673
 1044 065e 10       		.uleb128 0x10
 1045 065f 7F020000 		.4byte	0x27f
 1046 0663 10       		.uleb128 0x10
 1047 0664 A7050000 		.4byte	0x5a7
 1048 0668 10       		.uleb128 0x10
 1049 0669 2C000000 		.4byte	0x2c
 1050 066d 10       		.uleb128 0x10
 1051 066e 10010000 		.4byte	0x110
 1052 0672 00       		.byte	0
 1053 0673 09       		.uleb128 0x9
 1054 0674 04       		.byte	0x4
 1055 0675 55060000 		.4byte	0x655
 1056 0679 0F       		.uleb128 0xf
 1057 067a 2C000000 		.4byte	0x2c
 1058 067e 97060000 		.4byte	0x697
 1059 0682 10       		.uleb128 0x10
 1060 0683 7F020000 		.4byte	0x27f
 1061 0687 10       		.uleb128 0x10
 1062 0688 35050000 		.4byte	0x535
 1063 068c 10       		.uleb128 0x10
 1064 068d 2C000000 		.4byte	0x2c
 1065 0691 10       		.uleb128 0x10
 1066 0692 10010000 		.4byte	0x110
 1067 0696 00       		.byte	0
 1068 0697 09       		.uleb128 0x9
 1069 0698 04       		.byte	0x4
 1070 0699 79060000 		.4byte	0x679
ARM GAS  /tmp/cc8RsDTv.s 			page 20


 1071 069d 08       		.uleb128 0x8
 1072 069e 18       		.byte	0x18
 1073 069f 0E       		.byte	0xe
 1074 06a0 2A       		.byte	0x2a
 1075 06a1 EE060000 		.4byte	0x6ee
 1076 06a5 06       		.uleb128 0x6
 1077 06a6 DF050000 		.4byte	.LASF91
 1078 06aa 0E       		.byte	0xe
 1079 06ab 2F       		.byte	0x2f
 1080 06ac AD000000 		.4byte	0xad
 1081 06b0 00       		.byte	0
 1082 06b1 06       		.uleb128 0x6
 1083 06b2 2A000000 		.4byte	.LASF92
 1084 06b6 0E       		.byte	0xe
 1085 06b7 31       		.byte	0x31
 1086 06b8 EE060000 		.4byte	0x6ee
 1087 06bc 04       		.byte	0x4
 1088 06bd 06       		.uleb128 0x6
 1089 06be DC000000 		.4byte	.LASF93
 1090 06c2 0E       		.byte	0xe
 1091 06c3 32       		.byte	0x32
 1092 06c4 EE060000 		.4byte	0x6ee
 1093 06c8 08       		.byte	0x8
 1094 06c9 06       		.uleb128 0x6
 1095 06ca 82010000 		.4byte	.LASF94
 1096 06ce 0E       		.byte	0xe
 1097 06cf 33       		.byte	0x33
 1098 06d0 EE060000 		.4byte	0x6ee
 1099 06d4 0C       		.byte	0xc
 1100 06d5 06       		.uleb128 0x6
 1101 06d6 BC020000 		.4byte	.LASF95
 1102 06da 0E       		.byte	0xe
 1103 06db 34       		.byte	0x34
 1104 06dc EE060000 		.4byte	0x6ee
 1105 06e0 10       		.byte	0x10
 1106 06e1 06       		.uleb128 0x6
 1107 06e2 27050000 		.4byte	.LASF96
 1108 06e6 0E       		.byte	0xe
 1109 06e7 35       		.byte	0x35
 1110 06e8 37000000 		.4byte	0x37
 1111 06ec 14       		.byte	0x14
 1112 06ed 00       		.byte	0
 1113 06ee 09       		.uleb128 0x9
 1114 06ef 04       		.byte	0x4
 1115 06f0 F4060000 		.4byte	0x6f4
 1116 06f4 0B       		.uleb128 0xb
 1117 06f5 AD000000 		.4byte	0xad
 1118 06f9 03       		.uleb128 0x3
 1119 06fa FC000000 		.4byte	.LASF97
 1120 06fe 0E       		.byte	0xe
 1121 06ff 37       		.byte	0x37
 1122 0700 9D060000 		.4byte	0x69d
 1123 0704 03       		.uleb128 0x3
 1124 0705 00030000 		.4byte	.LASF98
 1125 0709 0E       		.byte	0xe
 1126 070a 55       		.byte	0x55
 1127 070b AD000000 		.4byte	0xad
ARM GAS  /tmp/cc8RsDTv.s 			page 21


 1128 070f 03       		.uleb128 0x3
 1129 0710 ED050000 		.4byte	.LASF99
 1130 0714 0E       		.byte	0xe
 1131 0715 5A       		.byte	0x5a
 1132 0716 AD000000 		.4byte	0xad
 1133 071a 03       		.uleb128 0x3
 1134 071b FB010000 		.4byte	.LASF100
 1135 071f 0E       		.byte	0xe
 1136 0720 62       		.byte	0x62
 1137 0721 25070000 		.4byte	0x725
 1138 0725 09       		.uleb128 0x9
 1139 0726 04       		.byte	0x4
 1140 0727 F9060000 		.4byte	0x6f9
 1141 072b 12       		.uleb128 0x12
 1142 072c 01       		.byte	0x1
 1143 072d 0F       		.byte	0xf
 1144 072e 5D       		.byte	0x5d
 1145 072f 46070000 		.4byte	0x746
 1146 0733 13       		.uleb128 0x13
 1147 0734 B2040000 		.4byte	.LASF101
 1148 0738 00       		.sleb128 0
 1149 0739 13       		.uleb128 0x13
 1150 073a DC010000 		.4byte	.LASF102
 1151 073e 01       		.sleb128 1
 1152 073f 13       		.uleb128 0x13
 1153 0740 8D030000 		.4byte	.LASF103
 1154 0744 02       		.sleb128 2
 1155 0745 00       		.byte	0
 1156 0746 03       		.uleb128 0x3
 1157 0747 4B010000 		.4byte	.LASF104
 1158 074b 0F       		.byte	0xf
 1159 074c 61       		.byte	0x61
 1160 074d 2B070000 		.4byte	0x72b
 1161 0751 03       		.uleb128 0x3
 1162 0752 16000000 		.4byte	.LASF105
 1163 0756 0F       		.byte	0xf
 1164 0757 66       		.byte	0x66
 1165 0758 5C070000 		.4byte	0x75c
 1166 075c 05       		.uleb128 0x5
 1167 075d 16000000 		.4byte	.LASF105
 1168 0761 74       		.byte	0x74
 1169 0762 0F       		.byte	0xf
 1170 0763 80       		.byte	0x80
 1171 0764 BB070000 		.4byte	0x7bb
 1172 0768 07       		.uleb128 0x7
 1173 0769 766D7400 		.ascii	"vmt\000"
 1174 076d 0F       		.byte	0xf
 1175 076e 82       		.byte	0x82
 1176 076f 48080000 		.4byte	0x848
 1177 0773 00       		.byte	0
 1178 0774 06       		.uleb128 0x6
 1179 0775 55010000 		.4byte	.LASF106
 1180 0779 0F       		.byte	0xf
 1181 077a 83       		.byte	0x83
 1182 077b 1C040000 		.4byte	0x41c
 1183 077f 04       		.byte	0x4
 1184 0780 06       		.uleb128 0x6
ARM GAS  /tmp/cc8RsDTv.s 			page 22


 1185 0781 D9050000 		.4byte	.LASF107
 1186 0785 0F       		.byte	0xf
 1187 0786 83       		.byte	0x83
 1188 0787 46070000 		.4byte	0x746
 1189 078b 08       		.byte	0x8
 1190 078c 06       		.uleb128 0x6
 1191 078d 0F010000 		.4byte	.LASF108
 1192 0791 0F       		.byte	0xf
 1193 0792 83       		.byte	0x83
 1194 0793 3B050000 		.4byte	0x53b
 1195 0797 0C       		.byte	0xc
 1196 0798 06       		.uleb128 0x6
 1197 0799 6C030000 		.4byte	.LASF109
 1198 079d 0F       		.byte	0xf
 1199 079e 83       		.byte	0x83
 1200 079f 46050000 		.4byte	0x546
 1201 07a3 30       		.byte	0x30
 1202 07a4 07       		.uleb128 0x7
 1203 07a5 696200   		.ascii	"ib\000"
 1204 07a8 0F       		.byte	0xf
 1205 07a9 83       		.byte	0x83
 1206 07aa 53080000 		.4byte	0x853
 1207 07ae 54       		.byte	0x54
 1208 07af 07       		.uleb128 0x7
 1209 07b0 6F6200   		.ascii	"ob\000"
 1210 07b3 0F       		.byte	0xf
 1211 07b4 83       		.byte	0x83
 1212 07b5 53080000 		.4byte	0x853
 1213 07b9 64       		.byte	0x64
 1214 07ba 00       		.byte	0
 1215 07bb 08       		.uleb128 0x8
 1216 07bc 04       		.byte	0x4
 1217 07bd 10       		.byte	0x10
 1218 07be 42       		.byte	0x42
 1219 07bf D0070000 		.4byte	0x7d0
 1220 07c3 06       		.uleb128 0x6
 1221 07c4 EE030000 		.4byte	.LASF110
 1222 07c8 10       		.byte	0x10
 1223 07c9 44       		.byte	0x44
 1224 07ca AD000000 		.4byte	0xad
 1225 07ce 00       		.byte	0
 1226 07cf 00       		.byte	0
 1227 07d0 03       		.uleb128 0x3
 1228 07d1 3E010000 		.4byte	.LASF111
 1229 07d5 10       		.byte	0x10
 1230 07d6 45       		.byte	0x45
 1231 07d7 BB070000 		.4byte	0x7bb
 1232 07db 05       		.uleb128 0x5
 1233 07dc 96030000 		.4byte	.LASF112
 1234 07e0 20       		.byte	0x20
 1235 07e1 0F       		.byte	0xf
 1236 07e2 75       		.byte	0x75
 1237 07e3 48080000 		.4byte	0x848
 1238 07e7 06       		.uleb128 0x6
 1239 07e8 D3020000 		.4byte	.LASF88
 1240 07ec 0F       		.byte	0xf
 1241 07ed 76       		.byte	0x76
ARM GAS  /tmp/cc8RsDTv.s 			page 23


 1242 07ee B2050000 		.4byte	0x5b2
 1243 07f2 00       		.byte	0
 1244 07f3 06       		.uleb128 0x6
 1245 07f4 A1040000 		.4byte	.LASF89
 1246 07f8 0F       		.byte	0xf
 1247 07f9 76       		.byte	0x76
 1248 07fa D1050000 		.4byte	0x5d1
 1249 07fe 04       		.byte	0x4
 1250 07ff 07       		.uleb128 0x7
 1251 0800 70757400 		.ascii	"put\000"
 1252 0804 0F       		.byte	0xf
 1253 0805 76       		.byte	0x76
 1254 0806 EB050000 		.4byte	0x5eb
 1255 080a 08       		.byte	0x8
 1256 080b 07       		.uleb128 0x7
 1257 080c 67657400 		.ascii	"get\000"
 1258 0810 0F       		.byte	0xf
 1259 0811 76       		.byte	0x76
 1260 0812 7F040000 		.4byte	0x47f
 1261 0816 0C       		.byte	0xc
 1262 0817 06       		.uleb128 0x6
 1263 0818 BD010000 		.4byte	.LASF113
 1264 081c 0F       		.byte	0xf
 1265 081d 76       		.byte	0x76
 1266 081e 35060000 		.4byte	0x635
 1267 0822 10       		.byte	0x10
 1268 0823 06       		.uleb128 0x6
 1269 0824 D2040000 		.4byte	.LASF114
 1270 0828 0F       		.byte	0xf
 1271 0829 76       		.byte	0x76
 1272 082a 4F060000 		.4byte	0x64f
 1273 082e 14       		.byte	0x14
 1274 082f 06       		.uleb128 0x6
 1275 0830 08010000 		.4byte	.LASF115
 1276 0834 0F       		.byte	0xf
 1277 0835 76       		.byte	0x76
 1278 0836 73060000 		.4byte	0x673
 1279 083a 18       		.byte	0x18
 1280 083b 06       		.uleb128 0x6
 1281 083c 09060000 		.4byte	.LASF116
 1282 0840 0F       		.byte	0xf
 1283 0841 76       		.byte	0x76
 1284 0842 97060000 		.4byte	0x697
 1285 0846 1C       		.byte	0x1c
 1286 0847 00       		.byte	0
 1287 0848 09       		.uleb128 0x9
 1288 0849 04       		.byte	0x4
 1289 084a 4E080000 		.4byte	0x84e
 1290 084e 0E       		.uleb128 0xe
 1291 084f DB070000 		.4byte	0x7db
 1292 0853 14       		.uleb128 0x14
 1293 0854 97000000 		.4byte	0x97
 1294 0858 63080000 		.4byte	0x863
 1295 085c 15       		.uleb128 0x15
 1296 085d 94040000 		.4byte	0x494
 1297 0861 0F       		.byte	0xf
 1298 0862 00       		.byte	0
ARM GAS  /tmp/cc8RsDTv.s 			page 24


 1299 0863 14       		.uleb128 0x14
 1300 0864 69020000 		.4byte	0x269
 1301 0868 73080000 		.4byte	0x873
 1302 086c 15       		.uleb128 0x15
 1303 086d 94040000 		.4byte	0x494
 1304 0871 45       		.byte	0x45
 1305 0872 00       		.byte	0
 1306 0873 03       		.uleb128 0x3
 1307 0874 83020000 		.4byte	.LASF117
 1308 0878 11       		.byte	0x11
 1309 0879 31       		.byte	0x31
 1310 087a 7E080000 		.4byte	0x87e
 1311 087e 09       		.uleb128 0x9
 1312 087f 04       		.byte	0x4
 1313 0880 84080000 		.4byte	0x884
 1314 0884 11       		.uleb128 0x11
 1315 0885 99080000 		.4byte	0x899
 1316 0889 10       		.uleb128 0x10
 1317 088a 99080000 		.4byte	0x899
 1318 088e 10       		.uleb128 0x10
 1319 088f 25000000 		.4byte	0x25
 1320 0893 10       		.uleb128 0x10
 1321 0894 9F080000 		.4byte	0x89f
 1322 0898 00       		.byte	0
 1323 0899 09       		.uleb128 0x9
 1324 089a 04       		.byte	0x4
 1325 089b 11060000 		.4byte	0x611
 1326 089f 09       		.uleb128 0x9
 1327 08a0 04       		.byte	0x4
 1328 08a1 A5080000 		.4byte	0x8a5
 1329 08a5 09       		.uleb128 0x9
 1330 08a6 04       		.byte	0x4
 1331 08a7 67040000 		.4byte	0x467
 1332 08ab 08       		.uleb128 0x8
 1333 08ac 08       		.byte	0x8
 1334 08ad 11       		.byte	0x11
 1335 08ae 36       		.byte	0x36
 1336 08af CC080000 		.4byte	0x8cc
 1337 08b3 06       		.uleb128 0x6
 1338 08b4 7A030000 		.4byte	.LASF118
 1339 08b8 11       		.byte	0x11
 1340 08b9 37       		.byte	0x37
 1341 08ba 5C040000 		.4byte	0x45c
 1342 08be 00       		.byte	0
 1343 08bf 06       		.uleb128 0x6
 1344 08c0 4A060000 		.4byte	.LASF119
 1345 08c4 11       		.byte	0x11
 1346 08c5 38       		.byte	0x38
 1347 08c6 73080000 		.4byte	0x873
 1348 08ca 04       		.byte	0x4
 1349 08cb 00       		.byte	0
 1350 08cc 03       		.uleb128 0x3
 1351 08cd A6030000 		.4byte	.LASF120
 1352 08d1 11       		.byte	0x11
 1353 08d2 39       		.byte	0x39
 1354 08d3 AB080000 		.4byte	0x8ab
 1355 08d7 08       		.uleb128 0x8
ARM GAS  /tmp/cc8RsDTv.s 			page 25


 1356 08d8 08       		.byte	0x8
 1357 08d9 11       		.byte	0x11
 1358 08da 3E       		.byte	0x3e
 1359 08db F8080000 		.4byte	0x8f8
 1360 08df 06       		.uleb128 0x6
 1361 08e0 82030000 		.4byte	.LASF121
 1362 08e4 11       		.byte	0x11
 1363 08e5 3F       		.byte	0x3f
 1364 08e6 99080000 		.4byte	0x899
 1365 08ea 00       		.byte	0
 1366 08eb 06       		.uleb128 0x6
 1367 08ec BC040000 		.4byte	.LASF122
 1368 08f0 11       		.byte	0x11
 1369 08f1 41       		.byte	0x41
 1370 08f2 F8080000 		.4byte	0x8f8
 1371 08f6 04       		.byte	0x4
 1372 08f7 00       		.byte	0
 1373 08f8 09       		.uleb128 0x9
 1374 08f9 04       		.byte	0x4
 1375 08fa FE080000 		.4byte	0x8fe
 1376 08fe 0E       		.uleb128 0xe
 1377 08ff CC080000 		.4byte	0x8cc
 1378 0903 03       		.uleb128 0x3
 1379 0904 9F010000 		.4byte	.LASF123
 1380 0908 11       		.byte	0x11
 1381 0909 43       		.byte	0x43
 1382 090a D7080000 		.4byte	0x8d7
 1383 090e 16       		.uleb128 0x16
 1384 090f E5050000 		.4byte	.LASF146
 1385 0913 01       		.byte	0x1
 1386 0914 71       		.byte	0x71
 1387 0915 EF000000 		.4byte	0xef
 1388 0919 00000000 		.4byte	.LFB8
 1389 091d 58000000 		.4byte	.LFE8-.LFB8
 1390 0921 01       		.uleb128 0x1
 1391 0922 9C       		.byte	0x9c
 1392 0923 82090000 		.4byte	0x982
 1393 0927 17       		.uleb128 0x17
 1394 0928 7000     		.ascii	"p\000"
 1395 092a 01       		.byte	0x1
 1396 092b 71       		.byte	0x71
 1397 092c 7F020000 		.4byte	0x27f
 1398 0930 00000000 		.4byte	.LLST0
 1399 0934 18       		.uleb128 0x18
 1400 0935 28000000 		.4byte	.LVL2
 1401 0939 480B0000 		.4byte	0xb48
 1402 093d 48090000 		.4byte	0x948
 1403 0941 19       		.uleb128 0x19
 1404 0942 01       		.uleb128 0x1
 1405 0943 50       		.byte	0x50
 1406 0944 02       		.uleb128 0x2
 1407 0945 74       		.byte	0x74
 1408 0946 00       		.sleb128 0
 1409 0947 00       		.byte	0
 1410 0948 18       		.uleb128 0x18
 1411 0949 30000000 		.4byte	.LVL3
 1412 094d 5E0B0000 		.4byte	0xb5e
ARM GAS  /tmp/cc8RsDTv.s 			page 26


 1413 0951 5C090000 		.4byte	0x95c
 1414 0955 19       		.uleb128 0x19
 1415 0956 01       		.uleb128 0x1
 1416 0957 50       		.byte	0x50
 1417 0958 02       		.uleb128 0x2
 1418 0959 08       		.byte	0x8
 1419 095a 64       		.byte	0x64
 1420 095b 00       		.byte	0
 1421 095c 18       		.uleb128 0x18
 1422 095d 40000000 		.4byte	.LVL4
 1423 0961 480B0000 		.4byte	0xb48
 1424 0965 70090000 		.4byte	0x970
 1425 0969 19       		.uleb128 0x19
 1426 096a 01       		.uleb128 0x1
 1427 096b 50       		.byte	0x50
 1428 096c 02       		.uleb128 0x2
 1429 096d 74       		.byte	0x74
 1430 096e 00       		.sleb128 0
 1431 096f 00       		.byte	0
 1432 0970 1A       		.uleb128 0x1a
 1433 0971 48000000 		.4byte	.LVL5
 1434 0975 5E0B0000 		.4byte	0xb5e
 1435 0979 19       		.uleb128 0x19
 1436 097a 01       		.uleb128 0x1
 1437 097b 50       		.byte	0x50
 1438 097c 03       		.uleb128 0x3
 1439 097d 0A       		.byte	0xa
 1440 097e 8403     		.2byte	0x384
 1441 0980 00       		.byte	0
 1442 0981 00       		.byte	0
 1443 0982 1B       		.uleb128 0x1b
 1444 0983 99000000 		.4byte	.LASF147
 1445 0987 01       		.byte	0x1
 1446 0988 56       		.byte	0x56
 1447 0989 00000000 		.4byte	.LFB7
 1448 098d 1C000000 		.4byte	.LFE7-.LFB7
 1449 0991 01       		.uleb128 0x1
 1450 0992 9C       		.byte	0x9c
 1451 0993 F2090000 		.4byte	0x9f2
 1452 0997 17       		.uleb128 0x17
 1453 0998 63687000 		.ascii	"chp\000"
 1454 099c 01       		.byte	0x1
 1455 099d 56       		.byte	0x56
 1456 099e 99080000 		.4byte	0x899
 1457 09a2 21000000 		.4byte	.LLST1
 1458 09a6 1C       		.uleb128 0x1c
 1459 09a7 E4010000 		.4byte	.LASF124
 1460 09ab 01       		.byte	0x1
 1461 09ac 56       		.byte	0x56
 1462 09ad 25000000 		.4byte	0x25
 1463 09b1 5B000000 		.4byte	.LLST2
 1464 09b5 1C       		.uleb128 0x1c
 1465 09b6 5A030000 		.4byte	.LASF125
 1466 09ba 01       		.byte	0x1
 1467 09bb 56       		.byte	0x56
 1468 09bc 9F080000 		.4byte	0x89f
 1469 09c0 95000000 		.4byte	.LLST3
ARM GAS  /tmp/cc8RsDTv.s 			page 27


 1470 09c4 1D       		.uleb128 0x1d
 1471 09c5 10000000 		.4byte	.LVL8
 1472 09c9 700B0000 		.4byte	0xb70
 1473 09cd E2090000 		.4byte	0x9e2
 1474 09d1 19       		.uleb128 0x19
 1475 09d2 01       		.uleb128 0x1
 1476 09d3 51       		.byte	0x51
 1477 09d4 05       		.uleb128 0x5
 1478 09d5 03       		.byte	0x3
 1479 09d6 08000000 		.4byte	.LC1
 1480 09da 19       		.uleb128 0x19
 1481 09db 01       		.uleb128 0x1
 1482 09dc 50       		.byte	0x50
 1483 09dd 03       		.uleb128 0x3
 1484 09de F3       		.byte	0xf3
 1485 09df 01       		.uleb128 0x1
 1486 09e0 50       		.byte	0x50
 1487 09e1 00       		.byte	0
 1488 09e2 1E       		.uleb128 0x1e
 1489 09e3 18000000 		.4byte	.LVL10
 1490 09e7 870B0000 		.4byte	0xb87
 1491 09eb 19       		.uleb128 0x19
 1492 09ec 01       		.uleb128 0x1
 1493 09ed 50       		.byte	0x50
 1494 09ee 01       		.uleb128 0x1
 1495 09ef 31       		.byte	0x31
 1496 09f0 00       		.byte	0
 1497 09f1 00       		.byte	0
 1498 09f2 1F       		.uleb128 0x1f
 1499 09f3 33060000 		.4byte	.LASF148
 1500 09f7 01       		.byte	0x1
 1501 09f8 80       		.byte	0x80
 1502 09f9 25000000 		.4byte	0x25
 1503 09fd 00000000 		.4byte	.LFB9
 1504 0a01 A4000000 		.4byte	.LFE9-.LFB9
 1505 0a05 01       		.uleb128 0x1
 1506 0a06 9C       		.byte	0x9c
 1507 0a07 DA0A0000 		.4byte	0xada
 1508 0a0b 20       		.uleb128 0x20
 1509 0a0c 14000000 		.4byte	.LVL11
 1510 0a10 980B0000 		.4byte	0xb98
 1511 0a14 20       		.uleb128 0x20
 1512 0a15 18000000 		.4byte	.LVL12
 1513 0a19 9F0B0000 		.4byte	0xb9f
 1514 0a1d 18       		.uleb128 0x18
 1515 0a1e 24000000 		.4byte	.LVL13
 1516 0a22 A60B0000 		.4byte	0xba6
 1517 0a26 370A0000 		.4byte	0xa37
 1518 0a2a 19       		.uleb128 0x19
 1519 0a2b 01       		.uleb128 0x1
 1520 0a2c 51       		.byte	0x51
 1521 0a2d 02       		.uleb128 0x2
 1522 0a2e 74       		.byte	0x74
 1523 0a2f 00       		.sleb128 0
 1524 0a30 19       		.uleb128 0x19
 1525 0a31 01       		.uleb128 0x1
 1526 0a32 50       		.byte	0x50
ARM GAS  /tmp/cc8RsDTv.s 			page 28


 1527 0a33 02       		.uleb128 0x2
 1528 0a34 75       		.byte	0x75
 1529 0a35 00       		.sleb128 0
 1530 0a36 00       		.byte	0
 1531 0a37 18       		.uleb128 0x18
 1532 0a38 30000000 		.4byte	.LVL14
 1533 0a3c 700B0000 		.4byte	0xb70
 1534 0a40 540A0000 		.4byte	0xa54
 1535 0a44 19       		.uleb128 0x19
 1536 0a45 01       		.uleb128 0x1
 1537 0a46 51       		.byte	0x51
 1538 0a47 05       		.uleb128 0x5
 1539 0a48 03       		.byte	0x3
 1540 0a49 18000000 		.4byte	.LC2
 1541 0a4d 19       		.uleb128 0x19
 1542 0a4e 01       		.uleb128 0x1
 1543 0a4f 50       		.byte	0x50
 1544 0a50 02       		.uleb128 0x2
 1545 0a51 75       		.byte	0x75
 1546 0a52 00       		.sleb128 0
 1547 0a53 00       		.byte	0
 1548 0a54 20       		.uleb128 0x20
 1549 0a55 34000000 		.4byte	.LVL15
 1550 0a59 CE0B0000 		.4byte	0xbce
 1551 0a5d 18       		.uleb128 0x18
 1552 0a5e 44000000 		.4byte	.LVL16
 1553 0a62 D50B0000 		.4byte	0xbd5
 1554 0a66 810A0000 		.4byte	0xa81
 1555 0a6a 19       		.uleb128 0x19
 1556 0a6b 01       		.uleb128 0x1
 1557 0a6c 52       		.byte	0x52
 1558 0a6d 02       		.uleb128 0x2
 1559 0a6e 08       		.byte	0x8
 1560 0a6f 41       		.byte	0x41
 1561 0a70 19       		.uleb128 0x19
 1562 0a71 01       		.uleb128 0x1
 1563 0a72 51       		.byte	0x51
 1564 0a73 03       		.uleb128 0x3
 1565 0a74 0A       		.byte	0xa
 1566 0a75 9810     		.2byte	0x1098
 1567 0a77 19       		.uleb128 0x19
 1568 0a78 01       		.uleb128 0x1
 1569 0a79 50       		.byte	0x50
 1570 0a7a 05       		.uleb128 0x5
 1571 0a7b 03       		.byte	0x3
 1572 0a7c 00000000 		.4byte	.LANCHOR0
 1573 0a80 00       		.byte	0
 1574 0a81 18       		.uleb128 0x18
 1575 0a82 54000000 		.4byte	.LVL17
 1576 0a86 FA0B0000 		.4byte	0xbfa
 1577 0a8a 9C0A0000 		.4byte	0xa9c
 1578 0a8e 19       		.uleb128 0x19
 1579 0a8f 01       		.uleb128 0x1
 1580 0a90 52       		.byte	0x52
 1581 0a91 02       		.uleb128 0x2
 1582 0a92 08       		.byte	0x8
 1583 0a93 FF       		.byte	0xff
ARM GAS  /tmp/cc8RsDTv.s 			page 29


 1584 0a94 19       		.uleb128 0x19
 1585 0a95 01       		.uleb128 0x1
 1586 0a96 51       		.byte	0x51
 1587 0a97 03       		.uleb128 0x3
 1588 0a98 40       		.byte	0x40
 1589 0a99 3C       		.byte	0x3c
 1590 0a9a 24       		.byte	0x24
 1591 0a9b 00       		.byte	0
 1592 0a9c 18       		.uleb128 0x18
 1593 0a9d 6C000000 		.4byte	.LVL18
 1594 0aa1 150C0000 		.4byte	0xc15
 1595 0aa5 D00A0000 		.4byte	0xad0
 1596 0aa9 19       		.uleb128 0x19
 1597 0aaa 01       		.uleb128 0x1
 1598 0aab 53       		.byte	0x53
 1599 0aac 05       		.uleb128 0x5
 1600 0aad 03       		.byte	0x3
 1601 0aae 00000000 		.4byte	Thread1
 1602 0ab2 19       		.uleb128 0x19
 1603 0ab3 01       		.uleb128 0x1
 1604 0ab4 52       		.byte	0x52
 1605 0ab5 02       		.uleb128 0x2
 1606 0ab6 08       		.byte	0x8
 1607 0ab7 40       		.byte	0x40
 1608 0ab8 19       		.uleb128 0x19
 1609 0ab9 01       		.uleb128 0x1
 1610 0aba 51       		.byte	0x51
 1611 0abb 03       		.uleb128 0x3
 1612 0abc 0A       		.byte	0xa
 1613 0abd 1801     		.2byte	0x118
 1614 0abf 19       		.uleb128 0x19
 1615 0ac0 01       		.uleb128 0x1
 1616 0ac1 50       		.byte	0x50
 1617 0ac2 05       		.uleb128 0x5
 1618 0ac3 03       		.byte	0x3
 1619 0ac4 00000000 		.4byte	.LANCHOR1
 1620 0ac8 19       		.uleb128 0x19
 1621 0ac9 02       		.uleb128 0x2
 1622 0aca 7D       		.byte	0x7d
 1623 0acb 00       		.sleb128 0
 1624 0acc 02       		.uleb128 0x2
 1625 0acd 74       		.byte	0x74
 1626 0ace 00       		.sleb128 0
 1627 0acf 00       		.byte	0
 1628 0ad0 20       		.uleb128 0x20
 1629 0ad1 78000000 		.4byte	.LVL19
 1630 0ad5 3F0C0000 		.4byte	0xc3f
 1631 0ad9 00       		.byte	0
 1632 0ada 14       		.uleb128 0x14
 1633 0adb CC080000 		.4byte	0x8cc
 1634 0adf EA0A0000 		.4byte	0xaea
 1635 0ae3 15       		.uleb128 0x15
 1636 0ae4 94040000 		.4byte	0x494
 1637 0ae8 01       		.byte	0x1
 1638 0ae9 00       		.byte	0
 1639 0aea 21       		.uleb128 0x21
 1640 0aeb 47030000 		.4byte	.LASF126
ARM GAS  /tmp/cc8RsDTv.s 			page 30


 1641 0aef 01       		.byte	0x1
 1642 0af0 61       		.byte	0x61
 1643 0af1 FB0A0000 		.4byte	0xafb
 1644 0af5 05       		.uleb128 0x5
 1645 0af6 03       		.byte	0x3
 1646 0af7 00000000 		.4byte	commands
 1647 0afb 0E       		.uleb128 0xe
 1648 0afc DA0A0000 		.4byte	0xada
 1649 0b00 21       		.uleb128 0x21
 1650 0b01 30050000 		.4byte	.LASF127
 1651 0b05 01       		.byte	0x1
 1652 0b06 6B       		.byte	0x6b
 1653 0b07 110B0000 		.4byte	0xb11
 1654 0b0b 05       		.uleb128 0x5
 1655 0b0c 03       		.byte	0x3
 1656 0b0d 00000000 		.4byte	shell_config
 1657 0b11 0E       		.uleb128 0xe
 1658 0b12 03090000 		.4byte	0x903
 1659 0b16 21       		.uleb128 0x21
 1660 0b17 3D050000 		.4byte	.LASF128
 1661 0b1b 01       		.byte	0x1
 1662 0b1c 70       		.byte	0x70
 1663 0b1d 63080000 		.4byte	0x863
 1664 0b21 05       		.uleb128 0x5
 1665 0b22 03       		.byte	0x3
 1666 0b23 00000000 		.4byte	waThread1
 1667 0b27 22       		.uleb128 0x22
 1668 0b28 91040000 		.4byte	.LASF129
 1669 0b2c 09       		.byte	0x9
 1670 0b2d 68       		.byte	0x68
 1671 0b2e 68030000 		.4byte	0x368
 1672 0b32 22       		.uleb128 0x22
 1673 0b33 55050000 		.4byte	.LASF130
 1674 0b37 0E       		.byte	0xe
 1675 0b38 6D       		.byte	0x6d
 1676 0b39 F9060000 		.4byte	0x6f9
 1677 0b3d 23       		.uleb128 0x23
 1678 0b3e 53443100 		.ascii	"SD1\000"
 1679 0b42 10       		.byte	0x10
 1680 0b43 62       		.byte	0x62
 1681 0b44 51070000 		.4byte	0x751
 1682 0b48 24       		.uleb128 0x24
 1683 0b49 E9000000 		.4byte	.LASF131
 1684 0b4d 0E       		.byte	0xe
 1685 0b4e BA       		.byte	0xba
 1686 0b4f 5E0B0000 		.4byte	0xb5e
 1687 0b53 10       		.uleb128 0x10
 1688 0b54 1A070000 		.4byte	0x71a
 1689 0b58 10       		.uleb128 0x10
 1690 0b59 04070000 		.4byte	0x704
 1691 0b5d 00       		.byte	0
 1692 0b5e 25       		.uleb128 0x25
 1693 0b5f 79050000 		.4byte	.LASF132
 1694 0b63 07       		.byte	0x7
 1695 0b64 6901     		.2byte	0x169
 1696 0b66 700B0000 		.4byte	0xb70
 1697 0b6a 10       		.uleb128 0x10
ARM GAS  /tmp/cc8RsDTv.s 			page 31


 1698 0b6b 10010000 		.4byte	0x110
 1699 0b6f 00       		.byte	0
 1700 0b70 24       		.uleb128 0x24
 1701 0b71 0F020000 		.4byte	.LASF133
 1702 0b75 12       		.byte	0x12
 1703 0b76 2A       		.byte	0x2a
 1704 0b77 870B0000 		.4byte	0xb87
 1705 0b7b 10       		.uleb128 0x10
 1706 0b7c 99080000 		.4byte	0x899
 1707 0b80 10       		.uleb128 0x10
 1708 0b81 5C040000 		.4byte	0x45c
 1709 0b85 26       		.uleb128 0x26
 1710 0b86 00       		.byte	0
 1711 0b87 24       		.uleb128 0x24
 1712 0b88 88010000 		.4byte	.LASF134
 1713 0b8c 13       		.byte	0x13
 1714 0b8d 55       		.byte	0x55
 1715 0b8e 980B0000 		.4byte	0xb98
 1716 0b92 10       		.uleb128 0x10
 1717 0b93 AD000000 		.4byte	0xad
 1718 0b97 00       		.byte	0
 1719 0b98 27       		.uleb128 0x27
 1720 0b99 7B020000 		.4byte	.LASF135
 1721 0b9d 14       		.byte	0x14
 1722 0b9e C9       		.byte	0xc9
 1723 0b9f 27       		.uleb128 0x27
 1724 0ba0 51020000 		.4byte	.LASF136
 1725 0ba4 15       		.byte	0x15
 1726 0ba5 EF       		.byte	0xef
 1727 0ba6 25       		.uleb128 0x25
 1728 0ba7 97010000 		.4byte	.LASF137
 1729 0bab 0F       		.byte	0xf
 1730 0bac 3201     		.2byte	0x132
 1731 0bae BD0B0000 		.4byte	0xbbd
 1732 0bb2 10       		.uleb128 0x10
 1733 0bb3 BD0B0000 		.4byte	0xbbd
 1734 0bb7 10       		.uleb128 0x10
 1735 0bb8 C30B0000 		.4byte	0xbc3
 1736 0bbc 00       		.byte	0
 1737 0bbd 09       		.uleb128 0x9
 1738 0bbe 04       		.byte	0x4
 1739 0bbf 51070000 		.4byte	0x751
 1740 0bc3 09       		.uleb128 0x9
 1741 0bc4 04       		.byte	0x4
 1742 0bc5 C90B0000 		.4byte	0xbc9
 1743 0bc9 0E       		.uleb128 0xe
 1744 0bca D0070000 		.4byte	0x7d0
 1745 0bce 27       		.uleb128 0x27
 1746 0bcf 50030000 		.4byte	.LASF138
 1747 0bd3 11       		.byte	0x11
 1748 0bd4 4C       		.byte	0x4c
 1749 0bd5 28       		.uleb128 0x28
 1750 0bd6 1F010000 		.4byte	.LASF140
 1751 0bda 11       		.byte	0x11
 1752 0bdb 4D       		.byte	0x4d
 1753 0bdc 38020000 		.4byte	0x238
 1754 0be0 F40B0000 		.4byte	0xbf4
ARM GAS  /tmp/cc8RsDTv.s 			page 32


 1755 0be4 10       		.uleb128 0x10
 1756 0be5 F40B0000 		.4byte	0xbf4
 1757 0be9 10       		.uleb128 0x10
 1758 0bea 2C000000 		.4byte	0x2c
 1759 0bee 10       		.uleb128 0x10
 1760 0bef E4000000 		.4byte	0xe4
 1761 0bf3 00       		.byte	0
 1762 0bf4 09       		.uleb128 0x9
 1763 0bf5 04       		.byte	0x4
 1764 0bf6 110B0000 		.4byte	0xb11
 1765 0bfa 24       		.uleb128 0x24
 1766 0bfb 71000000 		.4byte	.LASF139
 1767 0bff 0E       		.byte	0xe
 1768 0c00 B6       		.byte	0xb6
 1769 0c01 150C0000 		.4byte	0xc15
 1770 0c05 10       		.uleb128 0x10
 1771 0c06 1A070000 		.4byte	0x71a
 1772 0c0a 10       		.uleb128 0x10
 1773 0c0b 04070000 		.4byte	0x704
 1774 0c0f 10       		.uleb128 0x10
 1775 0c10 0F070000 		.4byte	0x70f
 1776 0c14 00       		.byte	0
 1777 0c15 29       		.uleb128 0x29
 1778 0c16 1F030000 		.4byte	.LASF141
 1779 0c1a 07       		.byte	0x7
 1780 0c1b 6401     		.2byte	0x164
 1781 0c1d 38020000 		.4byte	0x238
 1782 0c21 3F0C0000 		.4byte	0xc3f
 1783 0c25 10       		.uleb128 0x10
 1784 0c26 7F020000 		.4byte	0x27f
 1785 0c2a 10       		.uleb128 0x10
 1786 0c2b 2C000000 		.4byte	0x2c
 1787 0c2f 10       		.uleb128 0x10
 1788 0c30 E4000000 		.4byte	0xe4
 1789 0c34 10       		.uleb128 0x10
 1790 0c35 74040000 		.4byte	0x474
 1791 0c39 10       		.uleb128 0x10
 1792 0c3a 7F020000 		.4byte	0x27f
 1793 0c3e 00       		.byte	0
 1794 0c3f 2A       		.uleb128 0x2a
 1795 0c40 15050000 		.4byte	.LASF142
 1796 0c44 07       		.byte	0x7
 1797 0c45 6F01     		.2byte	0x16f
 1798 0c47 EF000000 		.4byte	0xef
 1799 0c4b 10       		.uleb128 0x10
 1800 0c4c 38020000 		.4byte	0x238
 1801 0c50 00       		.byte	0
 1802 0c51 00       		.byte	0
 1803              		.section	.debug_abbrev,"",%progbits
 1804              	.Ldebug_abbrev0:
 1805 0000 01       		.uleb128 0x1
 1806 0001 11       		.uleb128 0x11
 1807 0002 01       		.byte	0x1
 1808 0003 25       		.uleb128 0x25
 1809 0004 0E       		.uleb128 0xe
 1810 0005 13       		.uleb128 0x13
 1811 0006 0B       		.uleb128 0xb
ARM GAS  /tmp/cc8RsDTv.s 			page 33


 1812 0007 03       		.uleb128 0x3
 1813 0008 0E       		.uleb128 0xe
 1814 0009 1B       		.uleb128 0x1b
 1815 000a 0E       		.uleb128 0xe
 1816 000b 55       		.uleb128 0x55
 1817 000c 17       		.uleb128 0x17
 1818 000d 11       		.uleb128 0x11
 1819 000e 01       		.uleb128 0x1
 1820 000f 10       		.uleb128 0x10
 1821 0010 17       		.uleb128 0x17
 1822 0011 00       		.byte	0
 1823 0012 00       		.byte	0
 1824 0013 02       		.uleb128 0x2
 1825 0014 24       		.uleb128 0x24
 1826 0015 00       		.byte	0
 1827 0016 0B       		.uleb128 0xb
 1828 0017 0B       		.uleb128 0xb
 1829 0018 3E       		.uleb128 0x3e
 1830 0019 0B       		.uleb128 0xb
 1831 001a 03       		.uleb128 0x3
 1832 001b 08       		.uleb128 0x8
 1833 001c 00       		.byte	0
 1834 001d 00       		.byte	0
 1835 001e 03       		.uleb128 0x3
 1836 001f 16       		.uleb128 0x16
 1837 0020 00       		.byte	0
 1838 0021 03       		.uleb128 0x3
 1839 0022 0E       		.uleb128 0xe
 1840 0023 3A       		.uleb128 0x3a
 1841 0024 0B       		.uleb128 0xb
 1842 0025 3B       		.uleb128 0x3b
 1843 0026 0B       		.uleb128 0xb
 1844 0027 49       		.uleb128 0x49
 1845 0028 13       		.uleb128 0x13
 1846 0029 00       		.byte	0
 1847 002a 00       		.byte	0
 1848 002b 04       		.uleb128 0x4
 1849 002c 24       		.uleb128 0x24
 1850 002d 00       		.byte	0
 1851 002e 0B       		.uleb128 0xb
 1852 002f 0B       		.uleb128 0xb
 1853 0030 3E       		.uleb128 0x3e
 1854 0031 0B       		.uleb128 0xb
 1855 0032 03       		.uleb128 0x3
 1856 0033 0E       		.uleb128 0xe
 1857 0034 00       		.byte	0
 1858 0035 00       		.byte	0
 1859 0036 05       		.uleb128 0x5
 1860 0037 13       		.uleb128 0x13
 1861 0038 01       		.byte	0x1
 1862 0039 03       		.uleb128 0x3
 1863 003a 0E       		.uleb128 0xe
 1864 003b 0B       		.uleb128 0xb
 1865 003c 0B       		.uleb128 0xb
 1866 003d 3A       		.uleb128 0x3a
 1867 003e 0B       		.uleb128 0xb
 1868 003f 3B       		.uleb128 0x3b
ARM GAS  /tmp/cc8RsDTv.s 			page 34


 1869 0040 0B       		.uleb128 0xb
 1870 0041 01       		.uleb128 0x1
 1871 0042 13       		.uleb128 0x13
 1872 0043 00       		.byte	0
 1873 0044 00       		.byte	0
 1874 0045 06       		.uleb128 0x6
 1875 0046 0D       		.uleb128 0xd
 1876 0047 00       		.byte	0
 1877 0048 03       		.uleb128 0x3
 1878 0049 0E       		.uleb128 0xe
 1879 004a 3A       		.uleb128 0x3a
 1880 004b 0B       		.uleb128 0xb
 1881 004c 3B       		.uleb128 0x3b
 1882 004d 0B       		.uleb128 0xb
 1883 004e 49       		.uleb128 0x49
 1884 004f 13       		.uleb128 0x13
 1885 0050 38       		.uleb128 0x38
 1886 0051 0B       		.uleb128 0xb
 1887 0052 00       		.byte	0
 1888 0053 00       		.byte	0
 1889 0054 07       		.uleb128 0x7
 1890 0055 0D       		.uleb128 0xd
 1891 0056 00       		.byte	0
 1892 0057 03       		.uleb128 0x3
 1893 0058 08       		.uleb128 0x8
 1894 0059 3A       		.uleb128 0x3a
 1895 005a 0B       		.uleb128 0xb
 1896 005b 3B       		.uleb128 0x3b
 1897 005c 0B       		.uleb128 0xb
 1898 005d 49       		.uleb128 0x49
 1899 005e 13       		.uleb128 0x13
 1900 005f 38       		.uleb128 0x38
 1901 0060 0B       		.uleb128 0xb
 1902 0061 00       		.byte	0
 1903 0062 00       		.byte	0
 1904 0063 08       		.uleb128 0x8
 1905 0064 13       		.uleb128 0x13
 1906 0065 01       		.byte	0x1
 1907 0066 0B       		.uleb128 0xb
 1908 0067 0B       		.uleb128 0xb
 1909 0068 3A       		.uleb128 0x3a
 1910 0069 0B       		.uleb128 0xb
 1911 006a 3B       		.uleb128 0x3b
 1912 006b 0B       		.uleb128 0xb
 1913 006c 01       		.uleb128 0x1
 1914 006d 13       		.uleb128 0x13
 1915 006e 00       		.byte	0
 1916 006f 00       		.byte	0
 1917 0070 09       		.uleb128 0x9
 1918 0071 0F       		.uleb128 0xf
 1919 0072 00       		.byte	0
 1920 0073 0B       		.uleb128 0xb
 1921 0074 0B       		.uleb128 0xb
 1922 0075 49       		.uleb128 0x49
 1923 0076 13       		.uleb128 0x13
 1924 0077 00       		.byte	0
 1925 0078 00       		.byte	0
ARM GAS  /tmp/cc8RsDTv.s 			page 35


 1926 0079 0A       		.uleb128 0xa
 1927 007a 0F       		.uleb128 0xf
 1928 007b 00       		.byte	0
 1929 007c 0B       		.uleb128 0xb
 1930 007d 0B       		.uleb128 0xb
 1931 007e 00       		.byte	0
 1932 007f 00       		.byte	0
 1933 0080 0B       		.uleb128 0xb
 1934 0081 35       		.uleb128 0x35
 1935 0082 00       		.byte	0
 1936 0083 49       		.uleb128 0x49
 1937 0084 13       		.uleb128 0x13
 1938 0085 00       		.byte	0
 1939 0086 00       		.byte	0
 1940 0087 0C       		.uleb128 0xc
 1941 0088 17       		.uleb128 0x17
 1942 0089 01       		.byte	0x1
 1943 008a 0B       		.uleb128 0xb
 1944 008b 0B       		.uleb128 0xb
 1945 008c 3A       		.uleb128 0x3a
 1946 008d 0B       		.uleb128 0xb
 1947 008e 3B       		.uleb128 0x3b
 1948 008f 0B       		.uleb128 0xb
 1949 0090 01       		.uleb128 0x1
 1950 0091 13       		.uleb128 0x13
 1951 0092 00       		.byte	0
 1952 0093 00       		.byte	0
 1953 0094 0D       		.uleb128 0xd
 1954 0095 0D       		.uleb128 0xd
 1955 0096 00       		.byte	0
 1956 0097 03       		.uleb128 0x3
 1957 0098 0E       		.uleb128 0xe
 1958 0099 3A       		.uleb128 0x3a
 1959 009a 0B       		.uleb128 0xb
 1960 009b 3B       		.uleb128 0x3b
 1961 009c 0B       		.uleb128 0xb
 1962 009d 49       		.uleb128 0x49
 1963 009e 13       		.uleb128 0x13
 1964 009f 00       		.byte	0
 1965 00a0 00       		.byte	0
 1966 00a1 0E       		.uleb128 0xe
 1967 00a2 26       		.uleb128 0x26
 1968 00a3 00       		.byte	0
 1969 00a4 49       		.uleb128 0x49
 1970 00a5 13       		.uleb128 0x13
 1971 00a6 00       		.byte	0
 1972 00a7 00       		.byte	0
 1973 00a8 0F       		.uleb128 0xf
 1974 00a9 15       		.uleb128 0x15
 1975 00aa 01       		.byte	0x1
 1976 00ab 27       		.uleb128 0x27
 1977 00ac 19       		.uleb128 0x19
 1978 00ad 49       		.uleb128 0x49
 1979 00ae 13       		.uleb128 0x13
 1980 00af 01       		.uleb128 0x1
 1981 00b0 13       		.uleb128 0x13
 1982 00b1 00       		.byte	0
ARM GAS  /tmp/cc8RsDTv.s 			page 36


 1983 00b2 00       		.byte	0
 1984 00b3 10       		.uleb128 0x10
 1985 00b4 05       		.uleb128 0x5
 1986 00b5 00       		.byte	0
 1987 00b6 49       		.uleb128 0x49
 1988 00b7 13       		.uleb128 0x13
 1989 00b8 00       		.byte	0
 1990 00b9 00       		.byte	0
 1991 00ba 11       		.uleb128 0x11
 1992 00bb 15       		.uleb128 0x15
 1993 00bc 01       		.byte	0x1
 1994 00bd 27       		.uleb128 0x27
 1995 00be 19       		.uleb128 0x19
 1996 00bf 01       		.uleb128 0x1
 1997 00c0 13       		.uleb128 0x13
 1998 00c1 00       		.byte	0
 1999 00c2 00       		.byte	0
 2000 00c3 12       		.uleb128 0x12
 2001 00c4 04       		.uleb128 0x4
 2002 00c5 01       		.byte	0x1
 2003 00c6 0B       		.uleb128 0xb
 2004 00c7 0B       		.uleb128 0xb
 2005 00c8 3A       		.uleb128 0x3a
 2006 00c9 0B       		.uleb128 0xb
 2007 00ca 3B       		.uleb128 0x3b
 2008 00cb 0B       		.uleb128 0xb
 2009 00cc 01       		.uleb128 0x1
 2010 00cd 13       		.uleb128 0x13
 2011 00ce 00       		.byte	0
 2012 00cf 00       		.byte	0
 2013 00d0 13       		.uleb128 0x13
 2014 00d1 28       		.uleb128 0x28
 2015 00d2 00       		.byte	0
 2016 00d3 03       		.uleb128 0x3
 2017 00d4 0E       		.uleb128 0xe
 2018 00d5 1C       		.uleb128 0x1c
 2019 00d6 0D       		.uleb128 0xd
 2020 00d7 00       		.byte	0
 2021 00d8 00       		.byte	0
 2022 00d9 14       		.uleb128 0x14
 2023 00da 01       		.uleb128 0x1
 2024 00db 01       		.byte	0x1
 2025 00dc 49       		.uleb128 0x49
 2026 00dd 13       		.uleb128 0x13
 2027 00de 01       		.uleb128 0x1
 2028 00df 13       		.uleb128 0x13
 2029 00e0 00       		.byte	0
 2030 00e1 00       		.byte	0
 2031 00e2 15       		.uleb128 0x15
 2032 00e3 21       		.uleb128 0x21
 2033 00e4 00       		.byte	0
 2034 00e5 49       		.uleb128 0x49
 2035 00e6 13       		.uleb128 0x13
 2036 00e7 2F       		.uleb128 0x2f
 2037 00e8 0B       		.uleb128 0xb
 2038 00e9 00       		.byte	0
 2039 00ea 00       		.byte	0
ARM GAS  /tmp/cc8RsDTv.s 			page 37


 2040 00eb 16       		.uleb128 0x16
 2041 00ec 2E       		.uleb128 0x2e
 2042 00ed 01       		.byte	0x1
 2043 00ee 03       		.uleb128 0x3
 2044 00ef 0E       		.uleb128 0xe
 2045 00f0 3A       		.uleb128 0x3a
 2046 00f1 0B       		.uleb128 0xb
 2047 00f2 3B       		.uleb128 0x3b
 2048 00f3 0B       		.uleb128 0xb
 2049 00f4 27       		.uleb128 0x27
 2050 00f5 19       		.uleb128 0x19
 2051 00f6 49       		.uleb128 0x49
 2052 00f7 13       		.uleb128 0x13
 2053 00f8 11       		.uleb128 0x11
 2054 00f9 01       		.uleb128 0x1
 2055 00fa 12       		.uleb128 0x12
 2056 00fb 06       		.uleb128 0x6
 2057 00fc 40       		.uleb128 0x40
 2058 00fd 18       		.uleb128 0x18
 2059 00fe 9742     		.uleb128 0x2117
 2060 0100 19       		.uleb128 0x19
 2061 0101 01       		.uleb128 0x1
 2062 0102 13       		.uleb128 0x13
 2063 0103 00       		.byte	0
 2064 0104 00       		.byte	0
 2065 0105 17       		.uleb128 0x17
 2066 0106 05       		.uleb128 0x5
 2067 0107 00       		.byte	0
 2068 0108 03       		.uleb128 0x3
 2069 0109 08       		.uleb128 0x8
 2070 010a 3A       		.uleb128 0x3a
 2071 010b 0B       		.uleb128 0xb
 2072 010c 3B       		.uleb128 0x3b
 2073 010d 0B       		.uleb128 0xb
 2074 010e 49       		.uleb128 0x49
 2075 010f 13       		.uleb128 0x13
 2076 0110 02       		.uleb128 0x2
 2077 0111 17       		.uleb128 0x17
 2078 0112 00       		.byte	0
 2079 0113 00       		.byte	0
 2080 0114 18       		.uleb128 0x18
 2081 0115 898201   		.uleb128 0x4109
 2082 0118 01       		.byte	0x1
 2083 0119 11       		.uleb128 0x11
 2084 011a 01       		.uleb128 0x1
 2085 011b 31       		.uleb128 0x31
 2086 011c 13       		.uleb128 0x13
 2087 011d 01       		.uleb128 0x1
 2088 011e 13       		.uleb128 0x13
 2089 011f 00       		.byte	0
 2090 0120 00       		.byte	0
 2091 0121 19       		.uleb128 0x19
 2092 0122 8A8201   		.uleb128 0x410a
 2093 0125 00       		.byte	0
 2094 0126 02       		.uleb128 0x2
 2095 0127 18       		.uleb128 0x18
 2096 0128 9142     		.uleb128 0x2111
ARM GAS  /tmp/cc8RsDTv.s 			page 38


 2097 012a 18       		.uleb128 0x18
 2098 012b 00       		.byte	0
 2099 012c 00       		.byte	0
 2100 012d 1A       		.uleb128 0x1a
 2101 012e 898201   		.uleb128 0x4109
 2102 0131 01       		.byte	0x1
 2103 0132 11       		.uleb128 0x11
 2104 0133 01       		.uleb128 0x1
 2105 0134 31       		.uleb128 0x31
 2106 0135 13       		.uleb128 0x13
 2107 0136 00       		.byte	0
 2108 0137 00       		.byte	0
 2109 0138 1B       		.uleb128 0x1b
 2110 0139 2E       		.uleb128 0x2e
 2111 013a 01       		.byte	0x1
 2112 013b 03       		.uleb128 0x3
 2113 013c 0E       		.uleb128 0xe
 2114 013d 3A       		.uleb128 0x3a
 2115 013e 0B       		.uleb128 0xb
 2116 013f 3B       		.uleb128 0x3b
 2117 0140 0B       		.uleb128 0xb
 2118 0141 27       		.uleb128 0x27
 2119 0142 19       		.uleb128 0x19
 2120 0143 11       		.uleb128 0x11
 2121 0144 01       		.uleb128 0x1
 2122 0145 12       		.uleb128 0x12
 2123 0146 06       		.uleb128 0x6
 2124 0147 40       		.uleb128 0x40
 2125 0148 18       		.uleb128 0x18
 2126 0149 9742     		.uleb128 0x2117
 2127 014b 19       		.uleb128 0x19
 2128 014c 01       		.uleb128 0x1
 2129 014d 13       		.uleb128 0x13
 2130 014e 00       		.byte	0
 2131 014f 00       		.byte	0
 2132 0150 1C       		.uleb128 0x1c
 2133 0151 05       		.uleb128 0x5
 2134 0152 00       		.byte	0
 2135 0153 03       		.uleb128 0x3
 2136 0154 0E       		.uleb128 0xe
 2137 0155 3A       		.uleb128 0x3a
 2138 0156 0B       		.uleb128 0xb
 2139 0157 3B       		.uleb128 0x3b
 2140 0158 0B       		.uleb128 0xb
 2141 0159 49       		.uleb128 0x49
 2142 015a 13       		.uleb128 0x13
 2143 015b 02       		.uleb128 0x2
 2144 015c 17       		.uleb128 0x17
 2145 015d 00       		.byte	0
 2146 015e 00       		.byte	0
 2147 015f 1D       		.uleb128 0x1d
 2148 0160 898201   		.uleb128 0x4109
 2149 0163 01       		.byte	0x1
 2150 0164 11       		.uleb128 0x11
 2151 0165 01       		.uleb128 0x1
 2152 0166 9542     		.uleb128 0x2115
 2153 0168 19       		.uleb128 0x19
ARM GAS  /tmp/cc8RsDTv.s 			page 39


 2154 0169 31       		.uleb128 0x31
 2155 016a 13       		.uleb128 0x13
 2156 016b 01       		.uleb128 0x1
 2157 016c 13       		.uleb128 0x13
 2158 016d 00       		.byte	0
 2159 016e 00       		.byte	0
 2160 016f 1E       		.uleb128 0x1e
 2161 0170 898201   		.uleb128 0x4109
 2162 0173 01       		.byte	0x1
 2163 0174 11       		.uleb128 0x11
 2164 0175 01       		.uleb128 0x1
 2165 0176 9542     		.uleb128 0x2115
 2166 0178 19       		.uleb128 0x19
 2167 0179 31       		.uleb128 0x31
 2168 017a 13       		.uleb128 0x13
 2169 017b 00       		.byte	0
 2170 017c 00       		.byte	0
 2171 017d 1F       		.uleb128 0x1f
 2172 017e 2E       		.uleb128 0x2e
 2173 017f 01       		.byte	0x1
 2174 0180 3F       		.uleb128 0x3f
 2175 0181 19       		.uleb128 0x19
 2176 0182 03       		.uleb128 0x3
 2177 0183 0E       		.uleb128 0xe
 2178 0184 3A       		.uleb128 0x3a
 2179 0185 0B       		.uleb128 0xb
 2180 0186 3B       		.uleb128 0x3b
 2181 0187 0B       		.uleb128 0xb
 2182 0188 27       		.uleb128 0x27
 2183 0189 19       		.uleb128 0x19
 2184 018a 49       		.uleb128 0x49
 2185 018b 13       		.uleb128 0x13
 2186 018c 11       		.uleb128 0x11
 2187 018d 01       		.uleb128 0x1
 2188 018e 12       		.uleb128 0x12
 2189 018f 06       		.uleb128 0x6
 2190 0190 40       		.uleb128 0x40
 2191 0191 18       		.uleb128 0x18
 2192 0192 9742     		.uleb128 0x2117
 2193 0194 19       		.uleb128 0x19
 2194 0195 01       		.uleb128 0x1
 2195 0196 13       		.uleb128 0x13
 2196 0197 00       		.byte	0
 2197 0198 00       		.byte	0
 2198 0199 20       		.uleb128 0x20
 2199 019a 898201   		.uleb128 0x4109
 2200 019d 00       		.byte	0
 2201 019e 11       		.uleb128 0x11
 2202 019f 01       		.uleb128 0x1
 2203 01a0 31       		.uleb128 0x31
 2204 01a1 13       		.uleb128 0x13
 2205 01a2 00       		.byte	0
 2206 01a3 00       		.byte	0
 2207 01a4 21       		.uleb128 0x21
 2208 01a5 34       		.uleb128 0x34
 2209 01a6 00       		.byte	0
 2210 01a7 03       		.uleb128 0x3
ARM GAS  /tmp/cc8RsDTv.s 			page 40


 2211 01a8 0E       		.uleb128 0xe
 2212 01a9 3A       		.uleb128 0x3a
 2213 01aa 0B       		.uleb128 0xb
 2214 01ab 3B       		.uleb128 0x3b
 2215 01ac 0B       		.uleb128 0xb
 2216 01ad 49       		.uleb128 0x49
 2217 01ae 13       		.uleb128 0x13
 2218 01af 02       		.uleb128 0x2
 2219 01b0 18       		.uleb128 0x18
 2220 01b1 00       		.byte	0
 2221 01b2 00       		.byte	0
 2222 01b3 22       		.uleb128 0x22
 2223 01b4 34       		.uleb128 0x34
 2224 01b5 00       		.byte	0
 2225 01b6 03       		.uleb128 0x3
 2226 01b7 0E       		.uleb128 0xe
 2227 01b8 3A       		.uleb128 0x3a
 2228 01b9 0B       		.uleb128 0xb
 2229 01ba 3B       		.uleb128 0x3b
 2230 01bb 0B       		.uleb128 0xb
 2231 01bc 49       		.uleb128 0x49
 2232 01bd 13       		.uleb128 0x13
 2233 01be 3F       		.uleb128 0x3f
 2234 01bf 19       		.uleb128 0x19
 2235 01c0 3C       		.uleb128 0x3c
 2236 01c1 19       		.uleb128 0x19
 2237 01c2 00       		.byte	0
 2238 01c3 00       		.byte	0
 2239 01c4 23       		.uleb128 0x23
 2240 01c5 34       		.uleb128 0x34
 2241 01c6 00       		.byte	0
 2242 01c7 03       		.uleb128 0x3
 2243 01c8 08       		.uleb128 0x8
 2244 01c9 3A       		.uleb128 0x3a
 2245 01ca 0B       		.uleb128 0xb
 2246 01cb 3B       		.uleb128 0x3b
 2247 01cc 0B       		.uleb128 0xb
 2248 01cd 49       		.uleb128 0x49
 2249 01ce 13       		.uleb128 0x13
 2250 01cf 3F       		.uleb128 0x3f
 2251 01d0 19       		.uleb128 0x19
 2252 01d1 3C       		.uleb128 0x3c
 2253 01d2 19       		.uleb128 0x19
 2254 01d3 00       		.byte	0
 2255 01d4 00       		.byte	0
 2256 01d5 24       		.uleb128 0x24
 2257 01d6 2E       		.uleb128 0x2e
 2258 01d7 01       		.byte	0x1
 2259 01d8 3F       		.uleb128 0x3f
 2260 01d9 19       		.uleb128 0x19
 2261 01da 03       		.uleb128 0x3
 2262 01db 0E       		.uleb128 0xe
 2263 01dc 3A       		.uleb128 0x3a
 2264 01dd 0B       		.uleb128 0xb
 2265 01de 3B       		.uleb128 0x3b
 2266 01df 0B       		.uleb128 0xb
 2267 01e0 27       		.uleb128 0x27
ARM GAS  /tmp/cc8RsDTv.s 			page 41


 2268 01e1 19       		.uleb128 0x19
 2269 01e2 3C       		.uleb128 0x3c
 2270 01e3 19       		.uleb128 0x19
 2271 01e4 01       		.uleb128 0x1
 2272 01e5 13       		.uleb128 0x13
 2273 01e6 00       		.byte	0
 2274 01e7 00       		.byte	0
 2275 01e8 25       		.uleb128 0x25
 2276 01e9 2E       		.uleb128 0x2e
 2277 01ea 01       		.byte	0x1
 2278 01eb 3F       		.uleb128 0x3f
 2279 01ec 19       		.uleb128 0x19
 2280 01ed 03       		.uleb128 0x3
 2281 01ee 0E       		.uleb128 0xe
 2282 01ef 3A       		.uleb128 0x3a
 2283 01f0 0B       		.uleb128 0xb
 2284 01f1 3B       		.uleb128 0x3b
 2285 01f2 05       		.uleb128 0x5
 2286 01f3 27       		.uleb128 0x27
 2287 01f4 19       		.uleb128 0x19
 2288 01f5 3C       		.uleb128 0x3c
 2289 01f6 19       		.uleb128 0x19
 2290 01f7 01       		.uleb128 0x1
 2291 01f8 13       		.uleb128 0x13
 2292 01f9 00       		.byte	0
 2293 01fa 00       		.byte	0
 2294 01fb 26       		.uleb128 0x26
 2295 01fc 18       		.uleb128 0x18
 2296 01fd 00       		.byte	0
 2297 01fe 00       		.byte	0
 2298 01ff 00       		.byte	0
 2299 0200 27       		.uleb128 0x27
 2300 0201 2E       		.uleb128 0x2e
 2301 0202 00       		.byte	0
 2302 0203 3F       		.uleb128 0x3f
 2303 0204 19       		.uleb128 0x19
 2304 0205 03       		.uleb128 0x3
 2305 0206 0E       		.uleb128 0xe
 2306 0207 3A       		.uleb128 0x3a
 2307 0208 0B       		.uleb128 0xb
 2308 0209 3B       		.uleb128 0x3b
 2309 020a 0B       		.uleb128 0xb
 2310 020b 27       		.uleb128 0x27
 2311 020c 19       		.uleb128 0x19
 2312 020d 3C       		.uleb128 0x3c
 2313 020e 19       		.uleb128 0x19
 2314 020f 00       		.byte	0
 2315 0210 00       		.byte	0
 2316 0211 28       		.uleb128 0x28
 2317 0212 2E       		.uleb128 0x2e
 2318 0213 01       		.byte	0x1
 2319 0214 3F       		.uleb128 0x3f
 2320 0215 19       		.uleb128 0x19
 2321 0216 03       		.uleb128 0x3
 2322 0217 0E       		.uleb128 0xe
 2323 0218 3A       		.uleb128 0x3a
 2324 0219 0B       		.uleb128 0xb
ARM GAS  /tmp/cc8RsDTv.s 			page 42


 2325 021a 3B       		.uleb128 0x3b
 2326 021b 0B       		.uleb128 0xb
 2327 021c 27       		.uleb128 0x27
 2328 021d 19       		.uleb128 0x19
 2329 021e 49       		.uleb128 0x49
 2330 021f 13       		.uleb128 0x13
 2331 0220 3C       		.uleb128 0x3c
 2332 0221 19       		.uleb128 0x19
 2333 0222 01       		.uleb128 0x1
 2334 0223 13       		.uleb128 0x13
 2335 0224 00       		.byte	0
 2336 0225 00       		.byte	0
 2337 0226 29       		.uleb128 0x29
 2338 0227 2E       		.uleb128 0x2e
 2339 0228 01       		.byte	0x1
 2340 0229 3F       		.uleb128 0x3f
 2341 022a 19       		.uleb128 0x19
 2342 022b 03       		.uleb128 0x3
 2343 022c 0E       		.uleb128 0xe
 2344 022d 3A       		.uleb128 0x3a
 2345 022e 0B       		.uleb128 0xb
 2346 022f 3B       		.uleb128 0x3b
 2347 0230 05       		.uleb128 0x5
 2348 0231 27       		.uleb128 0x27
 2349 0232 19       		.uleb128 0x19
 2350 0233 49       		.uleb128 0x49
 2351 0234 13       		.uleb128 0x13
 2352 0235 3C       		.uleb128 0x3c
 2353 0236 19       		.uleb128 0x19
 2354 0237 01       		.uleb128 0x1
 2355 0238 13       		.uleb128 0x13
 2356 0239 00       		.byte	0
 2357 023a 00       		.byte	0
 2358 023b 2A       		.uleb128 0x2a
 2359 023c 2E       		.uleb128 0x2e
 2360 023d 01       		.byte	0x1
 2361 023e 3F       		.uleb128 0x3f
 2362 023f 19       		.uleb128 0x19
 2363 0240 03       		.uleb128 0x3
 2364 0241 0E       		.uleb128 0xe
 2365 0242 3A       		.uleb128 0x3a
 2366 0243 0B       		.uleb128 0xb
 2367 0244 3B       		.uleb128 0x3b
 2368 0245 05       		.uleb128 0x5
 2369 0246 27       		.uleb128 0x27
 2370 0247 19       		.uleb128 0x19
 2371 0248 49       		.uleb128 0x49
 2372 0249 13       		.uleb128 0x13
 2373 024a 3C       		.uleb128 0x3c
 2374 024b 19       		.uleb128 0x19
 2375 024c 00       		.byte	0
 2376 024d 00       		.byte	0
 2377 024e 00       		.byte	0
 2378              		.section	.debug_loc,"",%progbits
 2379              	.Ldebug_loc0:
 2380              	.LLST0:
 2381 0000 00000000 		.4byte	.LVL0
ARM GAS  /tmp/cc8RsDTv.s 			page 43


 2382 0004 18000000 		.4byte	.LVL1
 2383 0008 0100     		.2byte	0x1
 2384 000a 50       		.byte	0x50
 2385 000b 18000000 		.4byte	.LVL1
 2386 000f 58000000 		.4byte	.LFE8
 2387 0013 0400     		.2byte	0x4
 2388 0015 F3       		.byte	0xf3
 2389 0016 01       		.uleb128 0x1
 2390 0017 50       		.byte	0x50
 2391 0018 9F       		.byte	0x9f
 2392 0019 00000000 		.4byte	0
 2393 001d 00000000 		.4byte	0
 2394              	.LLST1:
 2395 0021 00000000 		.4byte	.LVL6
 2396 0025 0F000000 		.4byte	.LVL8-1
 2397 0029 0100     		.2byte	0x1
 2398 002b 50       		.byte	0x50
 2399 002c 0F000000 		.4byte	.LVL8-1
 2400 0030 10000000 		.4byte	.LVL8
 2401 0034 0400     		.2byte	0x4
 2402 0036 F3       		.byte	0xf3
 2403 0037 01       		.uleb128 0x1
 2404 0038 50       		.byte	0x50
 2405 0039 9F       		.byte	0x9f
 2406 003a 10000000 		.4byte	.LVL8
 2407 003e 14000000 		.4byte	.LVL9
 2408 0042 0100     		.2byte	0x1
 2409 0044 50       		.byte	0x50
 2410 0045 14000000 		.4byte	.LVL9
 2411 0049 1C000000 		.4byte	.LFE7
 2412 004d 0400     		.2byte	0x4
 2413 004f F3       		.byte	0xf3
 2414 0050 01       		.uleb128 0x1
 2415 0051 50       		.byte	0x50
 2416 0052 9F       		.byte	0x9f
 2417 0053 00000000 		.4byte	0
 2418 0057 00000000 		.4byte	0
 2419              	.LLST2:
 2420 005b 00000000 		.4byte	.LVL6
 2421 005f 0C000000 		.4byte	.LVL7
 2422 0063 0100     		.2byte	0x1
 2423 0065 51       		.byte	0x51
 2424 0066 0C000000 		.4byte	.LVL7
 2425 006a 10000000 		.4byte	.LVL8
 2426 006e 0400     		.2byte	0x4
 2427 0070 F3       		.byte	0xf3
 2428 0071 01       		.uleb128 0x1
 2429 0072 51       		.byte	0x51
 2430 0073 9F       		.byte	0x9f
 2431 0074 10000000 		.4byte	.LVL8
 2432 0078 17000000 		.4byte	.LVL10-1
 2433 007c 0100     		.2byte	0x1
 2434 007e 51       		.byte	0x51
 2435 007f 17000000 		.4byte	.LVL10-1
 2436 0083 1C000000 		.4byte	.LFE7
 2437 0087 0400     		.2byte	0x4
 2438 0089 F3       		.byte	0xf3
ARM GAS  /tmp/cc8RsDTv.s 			page 44


 2439 008a 01       		.uleb128 0x1
 2440 008b 51       		.byte	0x51
 2441 008c 9F       		.byte	0x9f
 2442 008d 00000000 		.4byte	0
 2443 0091 00000000 		.4byte	0
 2444              	.LLST3:
 2445 0095 00000000 		.4byte	.LVL6
 2446 0099 0F000000 		.4byte	.LVL8-1
 2447 009d 0100     		.2byte	0x1
 2448 009f 52       		.byte	0x52
 2449 00a0 0F000000 		.4byte	.LVL8-1
 2450 00a4 10000000 		.4byte	.LVL8
 2451 00a8 0400     		.2byte	0x4
 2452 00aa F3       		.byte	0xf3
 2453 00ab 01       		.uleb128 0x1
 2454 00ac 52       		.byte	0x52
 2455 00ad 9F       		.byte	0x9f
 2456 00ae 10000000 		.4byte	.LVL8
 2457 00b2 17000000 		.4byte	.LVL10-1
 2458 00b6 0100     		.2byte	0x1
 2459 00b8 52       		.byte	0x52
 2460 00b9 17000000 		.4byte	.LVL10-1
 2461 00bd 1C000000 		.4byte	.LFE7
 2462 00c1 0400     		.2byte	0x4
 2463 00c3 F3       		.byte	0xf3
 2464 00c4 01       		.uleb128 0x1
 2465 00c5 52       		.byte	0x52
 2466 00c6 9F       		.byte	0x9f
 2467 00c7 00000000 		.4byte	0
 2468 00cb 00000000 		.4byte	0
 2469              		.section	.debug_aranges,"",%progbits
 2470 0000 2C000000 		.4byte	0x2c
 2471 0004 0200     		.2byte	0x2
 2472 0006 00000000 		.4byte	.Ldebug_info0
 2473 000a 04       		.byte	0x4
 2474 000b 00       		.byte	0
 2475 000c 0000     		.2byte	0
 2476 000e 0000     		.2byte	0
 2477 0010 00000000 		.4byte	.LFB8
 2478 0014 58000000 		.4byte	.LFE8-.LFB8
 2479 0018 00000000 		.4byte	.LFB7
 2480 001c 1C000000 		.4byte	.LFE7-.LFB7
 2481 0020 00000000 		.4byte	.LFB9
 2482 0024 A4000000 		.4byte	.LFE9-.LFB9
 2483 0028 00000000 		.4byte	0
 2484 002c 00000000 		.4byte	0
 2485              		.section	.debug_ranges,"",%progbits
 2486              	.Ldebug_ranges0:
 2487 0000 00000000 		.4byte	.LFB8
 2488 0004 58000000 		.4byte	.LFE8
 2489 0008 00000000 		.4byte	.LFB7
 2490 000c 1C000000 		.4byte	.LFE7
 2491 0010 00000000 		.4byte	.LFB9
 2492 0014 A4000000 		.4byte	.LFE9
 2493 0018 00000000 		.4byte	0
 2494 001c 00000000 		.4byte	0
 2495              		.section	.debug_line,"",%progbits
ARM GAS  /tmp/cc8RsDTv.s 			page 45


 2496              	.Ldebug_line0:
 2497 0000 5B020000 		.section	.debug_str,"MS",%progbits,1
 2497      0200F501 
 2497      00000201 
 2497      FB0E0D00 
 2497      01010101 
 2498              	.LASF45:
 2499 0000 54687265 		.ascii	"ThreadsList\000"
 2499      6164734C 
 2499      69737400 
 2500              	.LASF38:
 2501 000c 705F7761 		.ascii	"p_waiting\000"
 2501      6974696E 
 2501      6700
 2502              	.LASF105:
 2503 0016 53657269 		.ascii	"SerialDriver\000"
 2503      616C4472 
 2503      69766572 
 2503      00
 2504              	.LASF144:
 2505 0023 6D61696E 		.ascii	"main.c\000"
 2505      2E6300
 2506              	.LASF92:
 2507 002a 67707365 		.ascii	"gpset\000"
 2507      7400
 2508              	.LASF37:
 2509 0030 705F7469 		.ascii	"p_time\000"
 2509      6D6500
 2510              	.LASF47:
 2511 0037 72656761 		.ascii	"regarm_t\000"
 2511      726D5F74 
 2511      00
 2512              	.LASF28:
 2513 0040 705F7072 		.ascii	"p_prio\000"
 2513      696F00
 2514              	.LASF24:
 2515 0047 73797374 		.ascii	"systime_t\000"
 2515      696D655F 
 2515      7400
 2516              	.LASF59:
 2517 0051 6D5F6F77 		.ascii	"m_owner\000"
 2517      6E657200 
 2518              	.LASF39:
 2519 0059 705F6D73 		.ascii	"p_msgqueue\000"
 2519      67717565 
 2519      756500
 2520              	.LASF0:
 2521 0064 756E7369 		.ascii	"unsigned int\000"
 2521      676E6564 
 2521      20696E74 
 2521      00
 2522              	.LASF139:
 2523 0071 5F70616C 		.ascii	"_pal_lld_setgroupmode\000"
 2523      5F6C6C64 
 2523      5F736574 
 2523      67726F75 
 2523      706D6F64 
ARM GAS  /tmp/cc8RsDTv.s 			page 46


 2524              	.LASF81:
 2525 0087 715F7264 		.ascii	"q_rdptr\000"
 2525      70747200 
 2526              	.LASF7:
 2527 008f 5F5F696E 		.ascii	"__int32_t\000"
 2527      7433325F 
 2527      7400
 2528              	.LASF147:
 2529 0099 636D645F 		.ascii	"cmd_reboot\000"
 2529      7265626F 
 2529      6F7400
 2530              	.LASF84:
 2531 00a4 716E6F74 		.ascii	"qnotify_t\000"
 2531      6966795F 
 2531      7400
 2532              	.LASF64:
 2533 00ae 656C5F6D 		.ascii	"el_mask\000"
 2533      61736B00 
 2534              	.LASF87:
 2535 00b6 42617365 		.ascii	"BaseSequentialStreamVMT\000"
 2535      53657175 
 2535      656E7469 
 2535      616C5374 
 2535      7265616D 
 2536              	.LASF70:
 2537 00ce 77746F62 		.ascii	"wtobjp\000"
 2537      6A7000
 2538              	.LASF83:
 2539 00d5 715F6C69 		.ascii	"q_link\000"
 2539      6E6B00
 2540              	.LASF93:
 2541 00dc 6770636C 		.ascii	"gpclr\000"
 2541      7200
 2542              	.LASF71:
 2543 00e2 65776D61 		.ascii	"ewmask\000"
 2543      736B00
 2544              	.LASF131:
 2545 00e9 5F70616C 		.ascii	"_pal_lld_writeport\000"
 2545      5F6C6C64 
 2545      5F777269 
 2545      7465706F 
 2545      727400
 2546              	.LASF97:
 2547 00fc 6770696F 		.ascii	"gpio_port_t\000"
 2547      5F706F72 
 2547      745F7400 
 2548              	.LASF115:
 2549 0108 77726974 		.ascii	"writet\000"
 2549      657400
 2550              	.LASF108:
 2551 010f 69717565 		.ascii	"iqueue\000"
 2551      756500
 2552              	.LASF15:
 2553 0116 75696E74 		.ascii	"uint32_t\000"
 2553      33325F74 
 2553      00
 2554              	.LASF140:
ARM GAS  /tmp/cc8RsDTv.s 			page 47


 2555 011f 7368656C 		.ascii	"shellCreate\000"
 2555      6C437265 
 2555      61746500 
 2556              	.LASF22:
 2557 012b 6576656E 		.ascii	"eventmask_t\000"
 2557      746D6173 
 2557      6B5F7400 
 2558              	.LASF51:
 2559 0137 725F7072 		.ascii	"r_prio\000"
 2559      696F00
 2560              	.LASF111:
 2561 013e 53657269 		.ascii	"SerialConfig\000"
 2561      616C436F 
 2561      6E666967 
 2561      00
 2562              	.LASF104:
 2563 014b 73647374 		.ascii	"sdstate_t\000"
 2563      6174655F 
 2563      7400
 2564              	.LASF106:
 2565 0155 6576656E 		.ascii	"event\000"
 2565      7400
 2566              	.LASF20:
 2567 015b 74707269 		.ascii	"tprio_t\000"
 2567      6F5F7400 
 2568              	.LASF73:
 2569 0163 7466756E 		.ascii	"tfunc_t\000"
 2569      635F7400 
 2570              	.LASF12:
 2571 016b 6C6F6E67 		.ascii	"long long unsigned int\000"
 2571      206C6F6E 
 2571      6720756E 
 2571      7369676E 
 2571      65642069 
 2572              	.LASF94:
 2573 0182 67706C65 		.ascii	"gplev\000"
 2573      7600
 2574              	.LASF134:
 2575 0188 77617463 		.ascii	"watchdog_start\000"
 2575      68646F67 
 2575      5F737461 
 2575      727400
 2576              	.LASF137:
 2577 0197 73645374 		.ascii	"sdStart\000"
 2577      61727400 
 2578              	.LASF123:
 2579 019f 5368656C 		.ascii	"ShellConfig\000"
 2579      6C436F6E 
 2579      66696700 
 2580              	.LASF30:
 2581 01ab 705F6E65 		.ascii	"p_newer\000"
 2581      77657200 
 2582              	.LASF76:
 2583 01b3 715F7761 		.ascii	"q_waiting\000"
 2583      6974696E 
 2583      6700
 2584              	.LASF113:
ARM GAS  /tmp/cc8RsDTv.s 			page 48


 2585 01bd 70757474 		.ascii	"putt\000"
 2585      00
 2586              	.LASF66:
 2587 01c2 4576656E 		.ascii	"EventSource\000"
 2587      74536F75 
 2587      72636500 
 2588              	.LASF2:
 2589 01ce 73697A65 		.ascii	"size_t\000"
 2589      5F7400
 2590              	.LASF68:
 2591 01d5 7264796D 		.ascii	"rdymsg\000"
 2591      736700
 2592              	.LASF102:
 2593 01dc 53445F53 		.ascii	"SD_STOP\000"
 2593      544F5000 
 2594              	.LASF124:
 2595 01e4 61726763 		.ascii	"argc\000"
 2595      00
 2596              	.LASF57:
 2597 01e9 4D757465 		.ascii	"Mutex\000"
 2597      7800
 2598              	.LASF86:
 2599 01ef 4F757470 		.ascii	"OutputQueue\000"
 2599      75745175 
 2599      65756500 
 2600              	.LASF100:
 2601 01fb 696F706F 		.ascii	"ioportid_t\000"
 2601      72746964 
 2601      5F7400
 2602              	.LASF82:
 2603 0206 715F6E6F 		.ascii	"q_notify\000"
 2603      74696679 
 2603      00
 2604              	.LASF133:
 2605 020f 63687072 		.ascii	"chprintf\000"
 2605      696E7466 
 2605      00
 2606              	.LASF32:
 2607 0218 705F6E61 		.ascii	"p_name\000"
 2607      6D6500
 2608              	.LASF90:
 2609 021f 42617365 		.ascii	"BaseSequentialStream\000"
 2609      53657175 
 2609      656E7469 
 2609      616C5374 
 2609      7265616D 
 2610              	.LASF85:
 2611 0234 496E7075 		.ascii	"InputQueue\000"
 2611      74517565 
 2611      756500
 2612              	.LASF44:
 2613 023f 54687265 		.ascii	"ThreadsQueue\000"
 2613      61647351 
 2613      75657565 
 2613      00
 2614              	.LASF72:
 2615 024c 63686172 		.ascii	"char\000"
ARM GAS  /tmp/cc8RsDTv.s 			page 49


 2615      00
 2616              	.LASF136:
 2617 0251 63685379 		.ascii	"chSysInit\000"
 2617      73496E69 
 2617      7400
 2618              	.LASF53:
 2619 025b 725F6E65 		.ascii	"r_newer\000"
 2619      77657200 
 2620              	.LASF80:
 2621 0263 715F7772 		.ascii	"q_wrptr\000"
 2621      70747200 
 2622              	.LASF25:
 2623 026b 54687265 		.ascii	"Thread\000"
 2623      616400
 2624              	.LASF17:
 2625 0272 74737461 		.ascii	"tstate_t\000"
 2625      74655F74 
 2625      00
 2626              	.LASF135:
 2627 027b 68616C49 		.ascii	"halInit\000"
 2627      6E697400 
 2628              	.LASF117:
 2629 0283 7368656C 		.ascii	"shellcmd_t\000"
 2629      6C636D64 
 2629      5F7400
 2630              	.LASF31:
 2631 028e 705F6F6C 		.ascii	"p_older\000"
 2631      64657200 
 2632              	.LASF33:
 2633 0296 705F7374 		.ascii	"p_state\000"
 2633      61746500 
 2634              	.LASF13:
 2635 029e 75696E74 		.ascii	"uint8_t\000"
 2635      385F7400 
 2636              	.LASF23:
 2637 02a6 666C6167 		.ascii	"flagsmask_t\000"
 2637      736D6173 
 2637      6B5F7400 
 2638              	.LASF42:
 2639 02b2 705F6D74 		.ascii	"p_mtxlist\000"
 2639      786C6973 
 2639      7400
 2640              	.LASF95:
 2641 02bc 67707075 		.ascii	"gppudclk\000"
 2641      64636C6B 
 2641      00
 2642              	.LASF11:
 2643 02c5 6C6F6E67 		.ascii	"long long int\000"
 2643      206C6F6E 
 2643      6720696E 
 2643      7400
 2644              	.LASF88:
 2645 02d3 77726974 		.ascii	"write\000"
 2645      6500
 2646              	.LASF78:
 2647 02d9 715F6275 		.ascii	"q_buffer\000"
 2647      66666572 
ARM GAS  /tmp/cc8RsDTv.s 			page 50


 2647      00
 2648              	.LASF50:
 2649 02e2 725F7175 		.ascii	"r_queue\000"
 2649      65756500 
 2650              	.LASF21:
 2651 02ea 6D73675F 		.ascii	"msg_t\000"
 2651      7400
 2652              	.LASF49:
 2653 02f0 636F6E74 		.ascii	"context\000"
 2653      65787400 
 2654              	.LASF34:
 2655 02f8 705F666C 		.ascii	"p_flags\000"
 2655      61677300 
 2656              	.LASF98:
 2657 0300 696F706F 		.ascii	"ioportmask_t\000"
 2657      72746D61 
 2657      736B5F74 
 2657      00
 2658              	.LASF19:
 2659 030d 74736C69 		.ascii	"tslices_t\000"
 2659      6365735F 
 2659      7400
 2660              	.LASF54:
 2661 0317 725F6F6C 		.ascii	"r_older\000"
 2661      64657200 
 2662              	.LASF141:
 2663 031f 63685468 		.ascii	"chThdCreateStatic\000"
 2663      64437265 
 2663      61746553 
 2663      74617469 
 2663      6300
 2664              	.LASF62:
 2665 0331 656C5F6E 		.ascii	"el_next\000"
 2665      65787400 
 2666              	.LASF40:
 2667 0339 705F6D73 		.ascii	"p_msg\000"
 2667      6700
 2668              	.LASF16:
 2669 033f 746D6F64 		.ascii	"tmode_t\000"
 2669      655F7400 
 2670              	.LASF126:
 2671 0347 636F6D6D 		.ascii	"commands\000"
 2671      616E6473 
 2671      00
 2672              	.LASF138:
 2673 0350 7368656C 		.ascii	"shellInit\000"
 2673      6C496E69 
 2673      7400
 2674              	.LASF125:
 2675 035a 61726776 		.ascii	"argv\000"
 2675      00
 2676              	.LASF75:
 2677 035f 47656E65 		.ascii	"GenericQueue\000"
 2677      72696351 
 2677      75657565 
 2677      00
 2678              	.LASF109:
ARM GAS  /tmp/cc8RsDTv.s 			page 51


 2679 036c 6F717565 		.ascii	"oqueue\000"
 2679      756500
 2680              	.LASF48:
 2681 0373 696E7463 		.ascii	"intctx\000"
 2681      747800
 2682              	.LASF118:
 2683 037a 73635F6E 		.ascii	"sc_name\000"
 2683      616D6500 
 2684              	.LASF121:
 2685 0382 73635F63 		.ascii	"sc_channel\000"
 2685      68616E6E 
 2685      656C00
 2686              	.LASF103:
 2687 038d 53445F52 		.ascii	"SD_READY\000"
 2687      45414459 
 2687      00
 2688              	.LASF112:
 2689 0396 53657269 		.ascii	"SerialDriverVMT\000"
 2689      616C4472 
 2689      69766572 
 2689      564D5400 
 2690              	.LASF120:
 2691 03a6 5368656C 		.ascii	"ShellCommand\000"
 2691      6C436F6D 
 2691      6D616E64 
 2691      00
 2692              	.LASF43:
 2693 03b3 705F7265 		.ascii	"p_realprio\000"
 2693      616C7072 
 2693      696F00
 2694              	.LASF5:
 2695 03be 73686F72 		.ascii	"short int\000"
 2695      7420696E 
 2695      7400
 2696              	.LASF55:
 2697 03c8 725F6375 		.ascii	"r_current\000"
 2697      7272656E 
 2697      7400
 2698              	.LASF41:
 2699 03d2 705F6570 		.ascii	"p_epending\000"
 2699      656E6469 
 2699      6E6700
 2700              	.LASF58:
 2701 03dd 6D5F7175 		.ascii	"m_queue\000"
 2701      65756500 
 2702              	.LASF8:
 2703 03e5 6C6F6E67 		.ascii	"long int\000"
 2703      20696E74 
 2703      00
 2704              	.LASF110:
 2705 03ee 62617564 		.ascii	"baud_rate\000"
 2705      5F726174 
 2705      6500
 2706              	.LASF143:
 2707 03f8 474E5520 		.ascii	"GNU C 4.9.3 20150529 (prerelease) -mcpu=arm1176jz-s"
 2707      4320342E 
 2707      392E3320 
ARM GAS  /tmp/cc8RsDTv.s 			page 52


 2707      32303135 
 2707      30353239 
 2708 042b 202D6D6E 		.ascii	" -mno-thumb-interwork -ggdb -O2 -fomit-frame-pointe"
 2708      6F2D7468 
 2708      756D622D 
 2708      696E7465 
 2708      72776F72 
 2709 045e 72202D66 		.ascii	"r -ffunction-sections -fdata-sections\000"
 2709      66756E63 
 2709      74696F6E 
 2709      2D736563 
 2709      74696F6E 
 2710              	.LASF26:
 2711 0484 705F6E65 		.ascii	"p_next\000"
 2711      787400
 2712              	.LASF29:
 2713 048b 705F6374 		.ascii	"p_ctx\000"
 2713      7800
 2714              	.LASF129:
 2715 0491 726C6973 		.ascii	"rlist\000"
 2715      7400
 2716              	.LASF3:
 2717 0497 5F5F7569 		.ascii	"__uint8_t\000"
 2717      6E74385F 
 2717      7400
 2718              	.LASF89:
 2719 04a1 72656164 		.ascii	"read\000"
 2719      00
 2720              	.LASF63:
 2721 04a6 656C5F6C 		.ascii	"el_listener\000"
 2721      69737465 
 2721      6E657200 
 2722              	.LASF101:
 2723 04b2 53445F55 		.ascii	"SD_UNINIT\000"
 2723      4E494E49 
 2723      5400
 2724              	.LASF122:
 2725 04bc 73635F63 		.ascii	"sc_commands\000"
 2725      6F6D6D61 
 2725      6E647300 
 2726              	.LASF77:
 2727 04c8 715F636F 		.ascii	"q_counter\000"
 2727      756E7465 
 2727      7200
 2728              	.LASF114:
 2729 04d2 67657474 		.ascii	"gett\000"
 2729      00
 2730              	.LASF79:
 2731 04d7 715F746F 		.ascii	"q_top\000"
 2731      7000
 2732              	.LASF27:
 2733 04dd 705F7072 		.ascii	"p_prev\000"
 2733      657600
 2734              	.LASF74:
 2735 04e4 73697A65 		.ascii	"sizetype\000"
 2735      74797065 
 2735      00
ARM GAS  /tmp/cc8RsDTv.s 			page 53


 2736              	.LASF18:
 2737 04ed 74726566 		.ascii	"trefs_t\000"
 2737      735F7400 
 2738              	.LASF61:
 2739 04f5 4576656E 		.ascii	"EventListener\000"
 2739      744C6973 
 2739      74656E65 
 2739      7200
 2740              	.LASF10:
 2741 0503 6C6F6E67 		.ascii	"long unsigned int\000"
 2741      20756E73 
 2741      69676E65 
 2741      6420696E 
 2741      7400
 2742              	.LASF142:
 2743 0515 63685468 		.ascii	"chThdWait\000"
 2743      64576169 
 2743      7400
 2744              	.LASF14:
 2745 051f 696E7433 		.ascii	"int32_t\000"
 2745      325F7400 
 2746              	.LASF96:
 2747 0527 70696E5F 		.ascii	"pin_base\000"
 2747      62617365 
 2747      00
 2748              	.LASF127:
 2749 0530 7368656C 		.ascii	"shell_config\000"
 2749      6C5F636F 
 2749      6E666967 
 2749      00
 2750              	.LASF128:
 2751 053d 77615468 		.ascii	"waThread1\000"
 2751      72656164 
 2751      3100
 2752              	.LASF4:
 2753 0547 756E7369 		.ascii	"unsigned char\000"
 2753      676E6564 
 2753      20636861 
 2753      7200
 2754              	.LASF130:
 2755 0555 494F504F 		.ascii	"IOPORT0\000"
 2755      52543000 
 2756              	.LASF9:
 2757 055d 5F5F7569 		.ascii	"__uint32_t\000"
 2757      6E743332 
 2757      5F7400
 2758              	.LASF35:
 2759 0568 705F7265 		.ascii	"p_refs\000"
 2759      667300
 2760              	.LASF56:
 2761 056f 52656164 		.ascii	"ReadyList\000"
 2761      794C6973 
 2761      7400
 2762              	.LASF132:
 2763 0579 63685468 		.ascii	"chThdSleep\000"
 2763      64536C65 
 2763      657000
ARM GAS  /tmp/cc8RsDTv.s 			page 54


 2764              	.LASF145:
 2765 0584 2F686F6D 		.ascii	"/home/hunter/development/chibi/ChibiOS-RPi/demos/AR"
 2765      652F6875 
 2765      6E746572 
 2765      2F646576 
 2765      656C6F70 
 2766 05b7 4D31312D 		.ascii	"M11-BCM2835-GCC\000"
 2766      42434D32 
 2766      3833352D 
 2766      47434300 
 2767              	.LASF36:
 2768 05c7 705F7072 		.ascii	"p_preempt\000"
 2768      65656D70 
 2768      7400
 2769              	.LASF67:
 2770 05d1 65735F6E 		.ascii	"es_next\000"
 2770      65787400 
 2771              	.LASF107:
 2772 05d9 73746174 		.ascii	"state\000"
 2772      6500
 2773              	.LASF91:
 2774 05df 6C617463 		.ascii	"latch\000"
 2774      6800
 2775              	.LASF146:
 2776 05e5 54687265 		.ascii	"Thread1\000"
 2776      61643100 
 2777              	.LASF99:
 2778 05ed 696F6D6F 		.ascii	"iomode_t\000"
 2778      64655F74 
 2778      00
 2779              	.LASF60:
 2780 05f6 6D5F6E65 		.ascii	"m_next\000"
 2780      787400
 2781              	.LASF1:
 2782 05fd 7369676E 		.ascii	"signed char\000"
 2782      65642063 
 2782      68617200 
 2783              	.LASF116:
 2784 0609 72656164 		.ascii	"readt\000"
 2784      7400
 2785              	.LASF6:
 2786 060f 73686F72 		.ascii	"short unsigned int\000"
 2786      7420756E 
 2786      7369676E 
 2786      65642069 
 2786      6E7400
 2787              	.LASF52:
 2788 0622 725F6374 		.ascii	"r_ctx\000"
 2788      7800
 2789              	.LASF46:
 2790 0628 73746B61 		.ascii	"stkalign_t\000"
 2790      6C69676E 
 2790      5F7400
 2791              	.LASF148:
 2792 0633 6D61696E 		.ascii	"main\000"
 2792      00
 2793              	.LASF65:
ARM GAS  /tmp/cc8RsDTv.s 			page 55


 2794 0638 656C5F66 		.ascii	"el_flags\000"
 2794      6C616773 
 2794      00
 2795              	.LASF69:
 2796 0641 65786974 		.ascii	"exitcode\000"
 2796      636F6465 
 2796      00
 2797              	.LASF119:
 2798 064a 73635F66 		.ascii	"sc_function\000"
 2798      756E6374 
 2798      696F6E00 
 2799              		.ident	"GCC: (15:4.9.3+svn231177-1) 4.9.3 20150529 (prerelease)"
ARM GAS  /tmp/cc8RsDTv.s 			page 56


DEFINED SYMBOLS
                            *ABS*:0000000000000000 main.c
     /tmp/cc8RsDTv.s:17     .text.Thread1:0000000000000000 $a
     /tmp/cc8RsDTv.s:19     .text.Thread1:0000000000000000 Thread1
     /tmp/cc8RsDTv.s:65     .text.Thread1:000000000000004c $d
     /tmp/cc8RsDTv.s:72     .text.cmd_reboot:0000000000000000 $a
     /tmp/cc8RsDTv.s:74     .text.cmd_reboot:0000000000000000 cmd_reboot
     /tmp/cc8RsDTv.s:99     .text.cmd_reboot:0000000000000018 $d
     /tmp/cc8RsDTv.s:104    .text.startup.main:0000000000000000 $a
     /tmp/cc8RsDTv.s:107    .text.startup.main:0000000000000000 main
     /tmp/cc8RsDTv.s:178    .text.startup.main:0000000000000084 $d
     /tmp/cc8RsDTv.s:190    .rodata.commands:0000000000000000 $d
     /tmp/cc8RsDTv.s:193    .rodata.commands:0000000000000000 commands
     /tmp/cc8RsDTv.s:199    .bss.waThread1:0000000000000000 $d
     /tmp/cc8RsDTv.s:203    .bss.waThread1:0000000000000000 waThread1
     /tmp/cc8RsDTv.s:206    .rodata.str1.4:0000000000000000 $d
     /tmp/cc8RsDTv.s:217    .rodata.shell_config:0000000000000000 $d
     /tmp/cc8RsDTv.s:221    .rodata.shell_config:0000000000000000 shell_config
                     .debug_frame:0000000000000010 $d

UNDEFINED SYMBOLS
_pal_lld_writeport
chThdSleep
rlist
IOPORT0
chprintf
watchdog_start
halInit
chSysInit
sdStart
shellInit
shellCreate
_pal_lld_setgroupmode
chThdCreateStatic
chThdWait
SD1
