ARM GAS  /tmp/ccvyoxjO.s 			page 1


   1              		.cpu arm1176jz-s
   2              		.fpu softvfp
   3              		.eabi_attribute 20, 1
   4              		.eabi_attribute 21, 1
   5              		.eabi_attribute 23, 3
   6              		.eabi_attribute 24, 1
   7              		.eabi_attribute 25, 1
   8              		.eabi_attribute 26, 1
   9              		.eabi_attribute 30, 2
  10              		.eabi_attribute 34, 1
  11              		.eabi_attribute 18, 4
  12              		.file	"pal_lld.c"
  13              		.text
  14              	.Ltext0:
  15              		.cfi_sections	.debug_frame
  16              		.section	.text.set_gpio_in.isra.0,"ax",%progbits
  17              		.align	2
  18              		.type	set_gpio_in.isra.0, %function
  19              	set_gpio_in.isra.0:
  20              	.LFB12:
  21              		.file 1 "../../os/hal/platforms/BCM2835/pal_lld.c"
  22              		.loc 1 64 0
  23              		.cfi_startproc
  24              		@ args = 0, pretend = 0, frame = 0
  25              		@ frame_needed = 0, uses_anonymous_args = 0
  26              	.LVL0:
  27 0000 70402DE9 		stmfd	sp!, {r4, r5, r6, lr}
  28              		.cfi_def_cfa_offset 16
  29              		.cfi_offset 4, -16
  30              		.cfi_offset 5, -12
  31              		.cfi_offset 6, -8
  32              		.cfi_offset 14, -4
  33              		.loc 1 64 0
  34 0004 0060A0E1 		mov	r6, r0
  35 0008 0150A0E1 		mov	r5, r1
  36              		.loc 1 66 0
  37 000c 0040A0E3 		mov	r4, #0
  38 0010 030000EA 		b	.L3
  39              	.LVL1:
  40              	.L2:
  41 0014 014084E2 		add	r4, r4, #1
  42              	.LVL2:
  43 0018 200054E3 		cmp	r4, #32
  44              	.LBB3:
  45              		.loc 1 70 0
  46 001c A550A0E1 		mov	r5, r5, lsr #1
  47              	.LVL3:
  48              	.LBE3:
  49              		.loc 1 66 0
  50 0020 0900000A 		beq	.L10
  51              	.LVL4:
  52              	.L3:
  53              	.LBB4:
  54              		.loc 1 68 0
  55 0024 010015E3 		tst	r5, #1
  56 0028 F9FFFF0A 		beq	.L2
  57              		.loc 1 69 0
ARM GAS  /tmp/ccvyoxjO.s 			page 2


  58 002c 000096E5 		ldr	r0, [r6]
  59 0030 0010A0E3 		mov	r1, #0
  60 0034 000084E0 		add	r0, r4, r0
  61              	.LBE4:
  62              		.loc 1 66 0
  63 0038 014084E2 		add	r4, r4, #1
  64              	.LVL5:
  65              	.LBB5:
  66              		.loc 1 69 0
  67 003c FEFFFFEB 		bl	bcm2835_gpio_fnsel
  68              	.LVL6:
  69              	.LBE5:
  70              		.loc 1 66 0
  71 0040 200054E3 		cmp	r4, #32
  72              	.LBB6:
  73              		.loc 1 70 0
  74 0044 A550A0E1 		mov	r5, r5, lsr #1
  75              	.LVL7:
  76              	.LBE6:
  77              		.loc 1 66 0
  78 0048 F5FFFF1A 		bne	.L3
  79              	.L10:
  80              		.loc 1 72 0
  81 004c 7080BDE8 		ldmfd	sp!, {r4, r5, r6, pc}
  82              		.cfi_endproc
  83              	.LFE12:
  84              		.size	set_gpio_in.isra.0, .-set_gpio_in.isra.0
  85              		.section	.text.set_gpio_pud.isra.1,"ax",%progbits
  86              		.align	2
  87              		.type	set_gpio_pud.isra.1, %function
  88              	set_gpio_pud.isra.1:
  89              	.LFB13:
  90              		.loc 1 54 0
  91              		.cfi_startproc
  92              		@ args = 0, pretend = 0, frame = 0
  93              		@ frame_needed = 0, uses_anonymous_args = 0
  94              	.LVL8:
  95 0000 70402DE9 		stmfd	sp!, {r4, r5, r6, lr}
  96              		.cfi_def_cfa_offset 16
  97              		.cfi_offset 4, -16
  98              		.cfi_offset 5, -12
  99              		.cfi_offset 6, -8
 100              		.cfi_offset 14, -4
 101              		.loc 1 54 0
 102 0004 0050A0E1 		mov	r5, r0
 103 0008 0160A0E1 		mov	r6, r1
 104              		.loc 1 56 0
 105 000c 2C409FE5 		ldr	r4, .L13
 106              		.loc 1 57 0
 107 0010 9600A0E3 		mov	r0, #150
 108              		.loc 1 56 0
 109 0014 942084E5 		str	r2, [r4, #148]
 110              		.loc 1 57 0
 111 0018 FEFFFFEB 		bl	bcm2835_delay
 112              	.LVL9:
 113              		.loc 1 58 0
 114 001c 003095E5 		ldr	r3, [r5]
ARM GAS  /tmp/ccvyoxjO.s 			page 3


 115              		.loc 1 59 0
 116 0020 9600A0E3 		mov	r0, #150
 117              		.loc 1 58 0
 118 0024 006083E5 		str	r6, [r3]
 119              		.loc 1 59 0
 120 0028 FEFFFFEB 		bl	bcm2835_delay
 121              	.LVL10:
 122              		.loc 1 60 0
 123 002c 0030A0E3 		mov	r3, #0
 124              		.loc 1 61 0
 125 0030 002095E5 		ldr	r2, [r5]
 126              		.loc 1 60 0
 127 0034 943084E5 		str	r3, [r4, #148]
 128              		.loc 1 61 0
 129 0038 003082E5 		str	r3, [r2]
 130 003c 7080BDE8 		ldmfd	sp!, {r4, r5, r6, pc}
 131              	.L14:
 132              		.align	2
 133              	.L13:
 134 0040 00002020 		.word	538968064
 135              		.cfi_endproc
 136              	.LFE13:
 137              		.size	set_gpio_pud.isra.1, .-set_gpio_pud.isra.1
 138              		.section	.text._pal_lld_init,"ax",%progbits
 139              		.align	2
 140              		.global	_pal_lld_init
 141              		.type	_pal_lld_init, %function
 142              	_pal_lld_init:
 143              	.LFB9:
 144              		.loc 1 82 0
 145              		.cfi_startproc
 146              		@ args = 0, pretend = 0, frame = 0
 147              		@ frame_needed = 0, uses_anonymous_args = 0
 148              	.LVL11:
 149              		.loc 1 86 0
 150 0000 60309FE5 		ldr	r3, .L17
 151              		.loc 1 82 0
 152 0004 10402DE9 		stmfd	sp!, {r4, lr}
 153              		.cfi_def_cfa_offset 8
 154              		.cfi_offset 4, -8
 155              		.cfi_offset 14, -4
 156              		.loc 1 88 0
 157 0008 5CC09FE5 		ldr	ip, .L17+4
 158              		.loc 1 87 0
 159 000c 5CE09FE5 		ldr	lr, .L17+8
 160              		.loc 1 89 0
 161 0010 5C209FE5 		ldr	r2, .L17+12
 162              		.loc 1 86 0
 163 0014 5C409FE5 		ldr	r4, .L17+16
 164              		.loc 1 90 0
 165 0018 140083E2 		add	r0, r3, #20
 166              	.LVL12:
 167 001c 0010E0E3 		mvn	r1, #0
 168              		.loc 1 87 0
 169 0020 104083E9 		stmib	r3, {r4, lr}
 170              		.loc 1 88 0
 171 0024 0CC083E5 		str	ip, [r3, #12]
ARM GAS  /tmp/ccvyoxjO.s 			page 4


 172              		.loc 1 89 0
 173 0028 102083E5 		str	r2, [r3, #16]
 174              		.loc 1 90 0
 175 002c FEFFFFEB 		bl	set_gpio_in.isra.0
 176              	.LVL13:
 177              		.loc 1 92 0
 178 0030 44309FE5 		ldr	r3, .L17+20
 179              		.loc 1 96 0
 180 0034 2010A0E3 		mov	r1, #32
 181 0038 0300A0E1 		mov	r0, r3
 182              		.loc 1 93 0
 183 003c 3CE09FE5 		ldr	lr, .L17+24
 184              		.loc 1 92 0
 185 0040 044084E2 		add	r4, r4, #4
 186              		.loc 1 94 0
 187 0044 38C09FE5 		ldr	ip, .L17+28
 188              		.loc 1 95 0
 189 0048 38209FE5 		ldr	r2, .L17+32
 190              		.loc 1 96 0
 191 004c 1410A0E5 		str	r1, [r0, #20]!
 192              		.loc 1 93 0
 193 0050 104083E9 		stmib	r3, {r4, lr}
 194              		.loc 1 98 0
 195 0054 1040BDE8 		ldmfd	sp!, {r4, lr}
 196              		.cfi_restore 14
 197              		.cfi_restore 4
 198              		.cfi_def_cfa_offset 0
 199              		.loc 1 97 0
 200 0058 0010E0E3 		mvn	r1, #0
 201              		.loc 1 94 0
 202 005c 0CC083E5 		str	ip, [r3, #12]
 203              		.loc 1 95 0
 204 0060 102083E5 		str	r2, [r3, #16]
 205              		.loc 1 97 0
 206 0064 FEFFFFEA 		b	set_gpio_in.isra.0
 207              	.LVL14:
 208              	.L18:
 209              		.align	2
 210              	.L17:
 211 0068 00000000 		.word	IOPORT0
 212 006c 34002020 		.word	538968116
 213 0070 28002020 		.word	538968104
 214 0074 98002020 		.word	538968216
 215 0078 1C002020 		.word	538968092
 216 007c 00000000 		.word	IOPORT1
 217 0080 2C002020 		.word	538968108
 218 0084 38002020 		.word	538968120
 219 0088 9C002020 		.word	538968220
 220              		.cfi_endproc
 221              	.LFE9:
 222              		.size	_pal_lld_init, .-_pal_lld_init
 223              		.section	.text._pal_lld_setgroupmode,"ax",%progbits
 224              		.align	2
 225              		.global	_pal_lld_setgroupmode
 226              		.type	_pal_lld_setgroupmode, %function
 227              	_pal_lld_setgroupmode:
 228              	.LFB10:
ARM GAS  /tmp/ccvyoxjO.s 			page 5


 229              		.loc 1 100 0
 230              		.cfi_startproc
 231              		@ args = 0, pretend = 0, frame = 0
 232              		@ frame_needed = 0, uses_anonymous_args = 0
 233              	.LVL15:
 234              		.loc 1 102 0
 235 0000 040052E3 		cmp	r2, #4
 236              		.loc 1 100 0
 237 0004 70402DE9 		stmfd	sp!, {r4, r5, r6, lr}
 238              		.cfi_def_cfa_offset 16
 239              		.cfi_offset 4, -16
 240              		.cfi_offset 5, -12
 241              		.cfi_offset 6, -8
 242              		.cfi_offset 14, -4
 243              		.loc 1 100 0
 244 0008 0060A0E1 		mov	r6, r0
 245 000c 0150A0E1 		mov	r5, r1
 246              		.loc 1 102 0
 247 0010 2A00000A 		beq	.L21
 248 0014 1100008A 		bhi	.L22
 249 0018 020052E3 		cmp	r2, #2
 250 001c 0800000A 		beq	.L23
 251 0020 030052E3 		cmp	r2, #3
 252 0024 2C00001A 		bne	.L37
 253              		.loc 1 108 0
 254 0028 140080E2 		add	r0, r0, #20
 255              	.LVL16:
 256 002c FEFFFFEB 		bl	set_gpio_in.isra.0
 257              	.LVL17:
 258              		.loc 1 109 0
 259 0030 100086E2 		add	r0, r6, #16
 260 0034 0510A0E1 		mov	r1, r5
 261              		.loc 1 126 0
 262 0038 7040BDE8 		ldmfd	sp!, {r4, r5, r6, lr}
 263              		.cfi_remember_state
 264              		.cfi_restore 14
 265              		.cfi_restore 6
 266              		.cfi_restore 5
 267              		.cfi_restore 4
 268              		.cfi_def_cfa_offset 0
 269              	.LVL18:
 270              		.loc 1 109 0
 271 003c 0220A0E3 		mov	r2, #2
 272 0040 FEFFFFEA 		b	set_gpio_pud.isra.1
 273              	.LVL19:
 274              	.L23:
 275              		.cfi_restore_state
 276              		.loc 1 104 0
 277 0044 140080E2 		add	r0, r0, #20
 278              	.LVL20:
 279 0048 FEFFFFEB 		bl	set_gpio_in.isra.0
 280              	.LVL21:
 281              		.loc 1 105 0
 282 004c 100086E2 		add	r0, r6, #16
 283 0050 0510A0E1 		mov	r1, r5
 284              		.loc 1 126 0
 285 0054 7040BDE8 		ldmfd	sp!, {r4, r5, r6, lr}
ARM GAS  /tmp/ccvyoxjO.s 			page 6


 286              		.cfi_remember_state
 287              		.cfi_restore 14
 288              		.cfi_restore 6
 289              		.cfi_restore 5
 290              		.cfi_restore 4
 291              		.cfi_def_cfa_offset 0
 292              	.LVL22:
 293              		.loc 1 105 0
 294 0058 0020A0E3 		mov	r2, #0
 295 005c FEFFFFEA 		b	set_gpio_pud.isra.1
 296              	.LVL23:
 297              	.L22:
 298              		.cfi_restore_state
 299              		.loc 1 102 0
 300 0060 060052E3 		cmp	r2, #6
 301 0064 7080BD38 		ldmccfd	sp!, {r4, r5, r6, pc}
 302 0068 070052E3 		cmp	r2, #7
 303 006c 0200009A 		bls	.L25
 304 0070 FF0052E3 		cmp	r2, #255
 305 0074 0000000A 		beq	.L25
 306 0078 7080BDE8 		ldmfd	sp!, {r4, r5, r6, pc}
 307              	.L25:
 308 007c 0040A0E3 		mov	r4, #0
 309 0080 030000EA 		b	.L27
 310              	.LVL24:
 311              	.L26:
 312              		.loc 1 118 0 discriminator 2
 313 0084 014084E2 		add	r4, r4, #1
 314              	.LVL25:
 315 0088 200054E3 		cmp	r4, #32
 316              	.LBB7:
 317              		.loc 1 122 0 discriminator 2
 318 008c A550A0E1 		mov	r5, r5, lsr #1
 319              	.LVL26:
 320              	.LBE7:
 321              		.loc 1 118 0 discriminator 2
 322 0090 0900000A 		beq	.L38
 323              	.LVL27:
 324              	.L27:
 325              	.LBB8:
 326              		.loc 1 120 0
 327 0094 010015E3 		tst	r5, #1
 328 0098 F9FFFF0A 		beq	.L26
 329              		.loc 1 121 0
 330 009c 140096E5 		ldr	r0, [r6, #20]
 331 00a0 0110A0E3 		mov	r1, #1
 332 00a4 000084E0 		add	r0, r4, r0
 333              	.LBE8:
 334              		.loc 1 118 0
 335 00a8 014084E2 		add	r4, r4, #1
 336              	.LVL28:
 337              	.LBB9:
 338              		.loc 1 121 0
 339 00ac FEFFFFEB 		bl	bcm2835_gpio_fnsel
 340              	.LVL29:
 341              	.LBE9:
 342              		.loc 1 118 0
ARM GAS  /tmp/ccvyoxjO.s 			page 7


 343 00b0 200054E3 		cmp	r4, #32
 344              	.LBB10:
 345              		.loc 1 122 0
 346 00b4 A550A0E1 		mov	r5, r5, lsr #1
 347              	.LVL30:
 348              	.LBE10:
 349              		.loc 1 118 0
 350 00b8 F5FFFF1A 		bne	.L27
 351              	.L38:
 352 00bc 7080BDE8 		ldmfd	sp!, {r4, r5, r6, pc}
 353              	.LVL31:
 354              	.L21:
 355              		.loc 1 112 0
 356 00c0 140080E2 		add	r0, r0, #20
 357              	.LVL32:
 358 00c4 FEFFFFEB 		bl	set_gpio_in.isra.0
 359              	.LVL33:
 360              		.loc 1 113 0
 361 00c8 100086E2 		add	r0, r6, #16
 362 00cc 0510A0E1 		mov	r1, r5
 363              		.loc 1 126 0
 364 00d0 7040BDE8 		ldmfd	sp!, {r4, r5, r6, lr}
 365              		.cfi_remember_state
 366              		.cfi_restore 14
 367              		.cfi_restore 6
 368              		.cfi_restore 5
 369              		.cfi_restore 4
 370              		.cfi_def_cfa_offset 0
 371              	.LVL34:
 372              		.loc 1 113 0
 373 00d4 0120A0E3 		mov	r2, #1
 374 00d8 FEFFFFEA 		b	set_gpio_pud.isra.1
 375              	.LVL35:
 376              	.L37:
 377              		.cfi_restore_state
 378 00dc 7080BDE8 		ldmfd	sp!, {r4, r5, r6, pc}
 379              		.cfi_endproc
 380              	.LFE10:
 381              		.size	_pal_lld_setgroupmode, .-_pal_lld_setgroupmode
 382              		.section	.text._pal_lld_writeport,"ax",%progbits
 383              		.align	2
 384              		.global	_pal_lld_writeport
 385              		.type	_pal_lld_writeport, %function
 386              	_pal_lld_writeport:
 387              	.LFB11:
 388              		.loc 1 128 0
 389              		.cfi_startproc
 390              		@ args = 0, pretend = 0, frame = 0
 391              		@ frame_needed = 0, uses_anonymous_args = 0
 392              		@ link register save eliminated.
 393              	.LVL36:
 394              		.loc 1 130 0
 395 0000 0120E0E1 		mvn	r2, r1
 396              		.loc 1 129 0
 397 0004 04C090E5 		ldr	ip, [r0, #4]
 398              		.loc 1 130 0
 399 0008 083090E5 		ldr	r3, [r0, #8]
ARM GAS  /tmp/ccvyoxjO.s 			page 8


 400              		.loc 1 129 0
 401 000c 001080E5 		str	r1, [r0]
 402 0010 00108CE5 		str	r1, [ip]
 403              		.loc 1 130 0
 404 0014 002083E5 		str	r2, [r3]
 405 0018 1EFF2FE1 		bx	lr
 406              		.cfi_endproc
 407              	.LFE11:
 408              		.size	_pal_lld_writeport, .-_pal_lld_writeport
 409              		.comm	IOPORT1,24,4
 410              		.comm	IOPORT0,24,4
 411              		.text
 412              	.Letext0:
 413              		.file 2 "/usr/include/newlib/machine/_default_types.h"
 414              		.file 3 "/usr/include/newlib/sys/_stdint.h"
 415              		.file 4 "../../os/hal/platforms/BCM2835/pal_lld.h"
 416              		.file 5 "../../os/hal/platforms/BCM2835/bcm2835.h"