ARM GAS  /tmp/ccAd5cZq.s 			page 1


   1              		.cpu arm1176jz-s
   2              		.fpu softvfp
   3              		.eabi_attribute 20, 1
   4              		.eabi_attribute 21, 1
   5              		.eabi_attribute 23, 3
   6              		.eabi_attribute 24, 1
   7              		.eabi_attribute 25, 1
   8              		.eabi_attribute 26, 1
   9              		.eabi_attribute 30, 2
  10              		.eabi_attribute 34, 1
  11              		.eabi_attribute 18, 4
  12              		.file	"serial.c"
  13              		.text
  14              	.Ltext0:
  15              		.cfi_sections	.debug_frame
  16              		.section	.text.readt,"ax",%progbits
  17              		.align	2
  18              		.type	readt, %function
  19              	readt:
  20              	.LFB14:
  21              		.file 1 "../../os/hal/src/serial.c"
  22              		.loc 1 92 0
  23              		.cfi_startproc
  24              		@ args = 0, pretend = 0, frame = 0
  25              		@ frame_needed = 0, uses_anonymous_args = 0
  26              		@ link register save eliminated.
  27              	.LVL0:
  28              		.loc 1 94 0
  29 0000 0C0080E2 		add	r0, r0, #12
  30              	.LVL1:
  31 0004 FEFFFFEA 		b	chIQReadTimeout
  32              	.LVL2:
  33              		.cfi_endproc
  34              	.LFE14:
  35              		.size	readt, .-readt
  36              		.section	.text.read,"ax",%progbits
  37              		.align	2
  38              		.type	read, %function
  39              	read:
  40              	.LFB8:
  41              		.loc 1 61 0
  42              		.cfi_startproc
  43              		@ args = 0, pretend = 0, frame = 0
  44              		@ frame_needed = 0, uses_anonymous_args = 0
  45              		@ link register save eliminated.
  46              	.LVL3:
  47              		.loc 1 63 0
  48 0000 0C0080E2 		add	r0, r0, #12
  49              	.LVL4:
  50 0004 0030E0E3 		mvn	r3, #0
  51 0008 FEFFFFEA 		b	chIQReadTimeout
  52              	.LVL5:
  53              		.cfi_endproc
  54              	.LFE8:
  55              		.size	read, .-read
  56              		.section	.text.writet,"ax",%progbits
  57              		.align	2
ARM GAS  /tmp/ccAd5cZq.s 			page 2


  58              		.type	writet, %function
  59              	writet:
  60              	.LFB13:
  61              		.loc 1 87 0
  62              		.cfi_startproc
  63              		@ args = 0, pretend = 0, frame = 0
  64              		@ frame_needed = 0, uses_anonymous_args = 0
  65              		@ link register save eliminated.
  66              	.LVL6:
  67              		.loc 1 89 0
  68 0000 300080E2 		add	r0, r0, #48
  69              	.LVL7:
  70 0004 FEFFFFEA 		b	chOQWriteTimeout
  71              	.LVL8:
  72              		.cfi_endproc
  73              	.LFE13:
  74              		.size	writet, .-writet
  75              		.section	.text.write,"ax",%progbits
  76              		.align	2
  77              		.type	write, %function
  78              	write:
  79              	.LFB7:
  80              		.loc 1 55 0
  81              		.cfi_startproc
  82              		@ args = 0, pretend = 0, frame = 0
  83              		@ frame_needed = 0, uses_anonymous_args = 0
  84              		@ link register save eliminated.
  85              	.LVL9:
  86              		.loc 1 57 0
  87 0000 300080E2 		add	r0, r0, #48
  88              	.LVL10:
  89 0004 0030E0E3 		mvn	r3, #0
  90 0008 FEFFFFEA 		b	chOQWriteTimeout
  91              	.LVL11:
  92              		.cfi_endproc
  93              	.LFE7:
  94              		.size	write, .-write
  95              		.section	.text.gett,"ax",%progbits
  96              		.align	2
  97              		.type	gett, %function
  98              	gett:
  99              	.LFB12:
 100              		.loc 1 82 0
 101              		.cfi_startproc
 102              		@ args = 0, pretend = 0, frame = 0
 103              		@ frame_needed = 0, uses_anonymous_args = 0
 104              		@ link register save eliminated.
 105              	.LVL12:
 106              		.loc 1 84 0
 107 0000 0C0080E2 		add	r0, r0, #12
 108              	.LVL13:
 109 0004 FEFFFFEA 		b	chIQGetTimeout
 110              	.LVL14:
 111              		.cfi_endproc
 112              	.LFE12:
 113              		.size	gett, .-gett
 114              		.section	.text.get,"ax",%progbits
ARM GAS  /tmp/ccAd5cZq.s 			page 3


 115              		.align	2
 116              		.type	get, %function
 117              	get:
 118              	.LFB10:
 119              		.loc 1 72 0
 120              		.cfi_startproc
 121              		@ args = 0, pretend = 0, frame = 0
 122              		@ frame_needed = 0, uses_anonymous_args = 0
 123              		@ link register save eliminated.
 124              	.LVL15:
 125              		.loc 1 74 0
 126 0000 0C0080E2 		add	r0, r0, #12
 127              	.LVL16:
 128 0004 0010E0E3 		mvn	r1, #0
 129 0008 FEFFFFEA 		b	chIQGetTimeout
 130              	.LVL17:
 131              		.cfi_endproc
 132              	.LFE10:
 133              		.size	get, .-get
 134              		.section	.text.putt,"ax",%progbits
 135              		.align	2
 136              		.type	putt, %function
 137              	putt:
 138              	.LFB11:
 139              		.loc 1 77 0
 140              		.cfi_startproc
 141              		@ args = 0, pretend = 0, frame = 0
 142              		@ frame_needed = 0, uses_anonymous_args = 0
 143              		@ link register save eliminated.
 144              	.LVL18:
 145              		.loc 1 79 0
 146 0000 300080E2 		add	r0, r0, #48
 147              	.LVL19:
 148 0004 FEFFFFEA 		b	chOQPutTimeout
 149              	.LVL20:
 150              		.cfi_endproc
 151              	.LFE11:
 152              		.size	putt, .-putt
 153              		.section	.text.put,"ax",%progbits
 154              		.align	2
 155              		.type	put, %function
 156              	put:
 157              	.LFB9:
 158              		.loc 1 67 0
 159              		.cfi_startproc
 160              		@ args = 0, pretend = 0, frame = 0
 161              		@ frame_needed = 0, uses_anonymous_args = 0
 162              		@ link register save eliminated.
 163              	.LVL21:
 164              		.loc 1 69 0
 165 0000 300080E2 		add	r0, r0, #48
 166              	.LVL22:
 167 0004 0020E0E3 		mvn	r2, #0
 168 0008 FEFFFFEA 		b	chOQPutTimeout
 169              	.LVL23:
 170              		.cfi_endproc
 171              	.LFE9:
ARM GAS  /tmp/ccAd5cZq.s 			page 4


 172              		.size	put, .-put
 173              		.section	.text.sdInit,"ax",%progbits
 174              		.align	2
 175              		.global	sdInit
 176              		.type	sdInit, %function
 177              	sdInit:
 178              	.LFB15:
 179              		.loc 1 113 0
 180              		.cfi_startproc
 181              		@ args = 0, pretend = 0, frame = 0
 182              		@ frame_needed = 0, uses_anonymous_args = 0
 183              		@ link register save eliminated.
 184              		.loc 1 115 0
 185 0000 FEFFFFEA 		b	sd_lld_init
 186              	.LVL24:
 187              		.cfi_endproc
 188              	.LFE15:
 189              		.size	sdInit, .-sdInit
 190              		.section	.text.sdObjectInit,"ax",%progbits
 191              		.align	2
 192              		.global	sdObjectInit
 193              		.type	sdObjectInit, %function
 194              	sdObjectInit:
 195              	.LFB16:
 196              		.loc 1 133 0
 197              		.cfi_startproc
 198              		@ args = 0, pretend = 0, frame = 0
 199              		@ frame_needed = 0, uses_anonymous_args = 0
 200              	.LVL25:
 201 0000 30402DE9 		stmfd	sp!, {r4, r5, lr}
 202              		.cfi_def_cfa_offset 12
 203              		.cfi_offset 4, -12
 204              		.cfi_offset 5, -8
 205              		.cfi_offset 14, -4
 206 0004 0040A0E1 		mov	r4, r0
 207              		.loc 1 137 0
 208 0008 01C0A0E3 		mov	ip, #1
 209              		.loc 1 133 0
 210 000c 0250A0E1 		mov	r5, r2
 211              		.loc 1 135 0
 212 0010 44209FE5 		ldr	r2, .L12
 213              	.LVL26:
 214              		.loc 1 133 0
 215 0014 0CD04DE2 		sub	sp, sp, #12
 216              		.cfi_def_cfa_offset 24
 217              		.loc 1 138 0
 218 0018 00408DE5 		str	r4, [sp]
 219              		.loc 1 135 0
 220 001c 042080E4 		str	r2, [r0], #4
 221              	.LVL27:
 222              		.loc 1 133 0
 223 0020 0130A0E1 		mov	r3, r1
 224              		.loc 1 136 0
 225 0024 040084E5 		str	r0, [r4, #4]
 226              		.loc 1 137 0
 227 0028 08C0C4E5 		strb	ip, [r4, #8]
 228              		.loc 1 138 0
ARM GAS  /tmp/ccAd5cZq.s 			page 5


 229 002c 0C0084E2 		add	r0, r4, #12
 230 0030 541084E2 		add	r1, r4, #84
 231              	.LVL28:
 232 0034 1020A0E3 		mov	r2, #16
 233 0038 FEFFFFEB 		bl	chIQInit
 234              	.LVL29:
 235              		.loc 1 139 0
 236 003c 00408DE5 		str	r4, [sp]
 237 0040 0530A0E1 		mov	r3, r5
 238 0044 300084E2 		add	r0, r4, #48
 239 0048 641084E2 		add	r1, r4, #100
 240 004c 1020A0E3 		mov	r2, #16
 241 0050 FEFFFFEB 		bl	chOQInit
 242              	.LVL30:
 243              		.loc 1 140 0
 244 0054 0CD08DE2 		add	sp, sp, #12
 245              		.cfi_def_cfa_offset 12
 246              		@ sp needed
 247 0058 3080BDE8 		ldmfd	sp!, {r4, r5, pc}
 248              	.LVL31:
 249              	.L13:
 250              		.align	2
 251              	.L12:
 252 005c 00000000 		.word	.LANCHOR0
 253              		.cfi_endproc
 254              	.LFE16:
 255              		.size	sdObjectInit, .-sdObjectInit
 256              		.section	.text.sdStart,"ax",%progbits
 257              		.align	2
 258              		.global	sdStart
 259              		.type	sdStart, %function
 260              	sdStart:
 261              	.LFB17:
 262              		.loc 1 152 0
 263              		.cfi_startproc
 264              		@ args = 0, pretend = 0, frame = 0
 265              		@ frame_needed = 0, uses_anonymous_args = 0
 266              	.LVL32:
 267 0000 10402DE9 		stmfd	sp!, {r4, lr}
 268              		.cfi_def_cfa_offset 8
 269              		.cfi_offset 4, -8
 270              		.cfi_offset 14, -4
 271              		.loc 1 152 0
 272 0004 0040A0E1 		mov	r4, r0
 273              		.loc 1 156 0
 274              	@ 156 "../../os/hal/src/serial.c" 1
 275 0008 9FF021E3 		msr     CPSR_c, #0x9F
 276              	@ 0 "" 2
 277              		.loc 1 160 0
 278 000c FEFFFFEB 		bl	sd_lld_start
 279              	.LVL33:
 280              		.loc 1 161 0
 281 0010 0230A0E3 		mov	r3, #2
 282 0014 0830C4E5 		strb	r3, [r4, #8]
 283              		.loc 1 162 0
 284              	@ 162 "../../os/hal/src/serial.c" 1
 285 0018 1FF021E3 		msr     CPSR_c, #0x1F
ARM GAS  /tmp/ccAd5cZq.s 			page 6


 286              	@ 0 "" 2
 287 001c 1080BDE8 		ldmfd	sp!, {r4, pc}
 288              		.cfi_endproc
 289              	.LFE17:
 290              		.size	sdStart, .-sdStart
 291              		.section	.text.sdStop,"ax",%progbits
 292              		.align	2
 293              		.global	sdStop
 294              		.type	sdStop, %function
 295              	sdStop:
 296              	.LFB18:
 297              		.loc 1 174 0
 298              		.cfi_startproc
 299              		@ args = 0, pretend = 0, frame = 0
 300              		@ frame_needed = 0, uses_anonymous_args = 0
 301              	.LVL34:
 302 0000 10402DE9 		stmfd	sp!, {r4, lr}
 303              		.cfi_def_cfa_offset 8
 304              		.cfi_offset 4, -8
 305              		.cfi_offset 14, -4
 306              		.loc 1 174 0
 307 0004 0040A0E1 		mov	r4, r0
 308              		.loc 1 178 0
 309              	@ 178 "../../os/hal/src/serial.c" 1
 310 0008 9FF021E3 		msr     CPSR_c, #0x9F
 311              	@ 0 "" 2
 312              		.loc 1 182 0
 313 000c FEFFFFEB 		bl	sd_lld_stop
 314              	.LVL35:
 315              		.loc 1 183 0
 316 0010 0130A0E3 		mov	r3, #1
 317              		.loc 1 184 0
 318 0014 300084E2 		add	r0, r4, #48
 319              		.loc 1 183 0
 320 0018 0830C4E5 		strb	r3, [r4, #8]
 321              		.loc 1 184 0
 322 001c FEFFFFEB 		bl	chOQResetI
 323              	.LVL36:
 324              		.loc 1 185 0
 325 0020 0C0084E2 		add	r0, r4, #12
 326 0024 FEFFFFEB 		bl	chIQResetI
 327              	.LVL37:
 328              		.loc 1 186 0
 329 0028 FEFFFFEB 		bl	chSchRescheduleS
 330              	.LVL38:
 331              		.loc 1 187 0
 332              	@ 187 "../../os/hal/src/serial.c" 1
 333 002c 1FF021E3 		msr     CPSR_c, #0x1F
 334              	@ 0 "" 2
 335 0030 1080BDE8 		ldmfd	sp!, {r4, pc}
 336              		.cfi_endproc
 337              	.LFE18:
 338              		.size	sdStop, .-sdStop
 339              		.section	.text.sdIncomingDataI,"ax",%progbits
 340              		.align	2
 341              		.global	sdIncomingDataI
 342              		.type	sdIncomingDataI, %function
ARM GAS  /tmp/ccAd5cZq.s 			page 7


 343              	sdIncomingDataI:
 344              	.LFB19:
 345              		.loc 1 206 0
 346              		.cfi_startproc
 347              		@ args = 0, pretend = 0, frame = 0
 348              		@ frame_needed = 0, uses_anonymous_args = 0
 349              	.LVL39:
 350 0000 38402DE9 		stmfd	sp!, {r3, r4, r5, lr}
 351              		.cfi_def_cfa_offset 16
 352              		.cfi_offset 3, -16
 353              		.cfi_offset 4, -12
 354              		.cfi_offset 5, -8
 355              		.cfi_offset 14, -4
 356              		.loc 1 211 0
 357 0004 143090E5 		ldr	r3, [r0, #20]
 358              		.loc 1 206 0
 359 0008 0040A0E1 		mov	r4, r0
 360              		.loc 1 211 0
 361 000c 000053E3 		cmp	r3, #0
 362              		.loc 1 206 0
 363 0010 0150A0E1 		mov	r5, r1
 364              		.loc 1 211 0
 365 0014 0800000A 		beq	.L23
 366              	.LVL40:
 367              	.L19:
 368              		.loc 1 213 0
 369 0018 0510A0E1 		mov	r1, r5
 370 001c 0C0084E2 		add	r0, r4, #12
 371 0020 FEFFFFEB 		bl	chIQPutI
 372              	.LVL41:
 373 0024 000050E3 		cmp	r0, #0
 374 0028 3880BDA8 		ldmgefd	sp!, {r3, r4, r5, pc}
 375              		.loc 1 214 0
 376 002c 040084E2 		add	r0, r4, #4
 377 0030 8010A0E3 		mov	r1, #128
 378              		.loc 1 215 0
 379 0034 3840BDE8 		ldmfd	sp!, {r3, r4, r5, lr}
 380              		.cfi_remember_state
 381              		.cfi_restore 14
 382              		.cfi_restore 5
 383              		.cfi_restore 4
 384              		.cfi_restore 3
 385              		.cfi_def_cfa_offset 0
 386              	.LVL42:
 387              		.loc 1 214 0
 388 0038 FEFFFFEA 		b	chEvtBroadcastFlagsI
 389              	.LVL43:
 390              	.L23:
 391              		.cfi_restore_state
 392              		.loc 1 212 0
 393 003c 040080E2 		add	r0, r0, #4
 394              	.LVL44:
 395 0040 0410A0E3 		mov	r1, #4
 396              	.LVL45:
 397 0044 FEFFFFEB 		bl	chEvtBroadcastFlagsI
 398              	.LVL46:
 399 0048 F2FFFFEA 		b	.L19
ARM GAS  /tmp/ccAd5cZq.s 			page 8


 400              		.cfi_endproc
 401              	.LFE19:
 402              		.size	sdIncomingDataI, .-sdIncomingDataI
 403              		.section	.text.sdRequestDataI,"ax",%progbits
 404              		.align	2
 405              		.global	sdRequestDataI
 406              		.type	sdRequestDataI, %function
 407              	sdRequestDataI:
 408              	.LFB20:
 409              		.loc 1 232 0
 410              		.cfi_startproc
 411              		@ args = 0, pretend = 0, frame = 0
 412              		@ frame_needed = 0, uses_anonymous_args = 0
 413              	.LVL47:
 414 0000 38402DE9 		stmfd	sp!, {r3, r4, r5, lr}
 415              		.cfi_def_cfa_offset 16
 416              		.cfi_offset 3, -16
 417              		.cfi_offset 4, -12
 418              		.cfi_offset 5, -8
 419              		.cfi_offset 14, -4
 420              		.loc 1 232 0
 421 0004 0040A0E1 		mov	r4, r0
 422              		.loc 1 238 0
 423 0008 300080E2 		add	r0, r0, #48
 424              	.LVL48:
 425 000c FEFFFFEB 		bl	chOQGetI
 426              	.LVL49:
 427              		.loc 1 239 0
 428 0010 005050E2 		subs	r5, r0, #0
 429 0014 010000BA 		blt	.L27
 430              		.loc 1 242 0
 431 0018 0500A0E1 		mov	r0, r5
 432 001c 3880BDE8 		ldmfd	sp!, {r3, r4, r5, pc}
 433              	.L27:
 434              		.loc 1 240 0
 435 0020 040084E2 		add	r0, r4, #4
 436 0024 0810A0E3 		mov	r1, #8
 437 0028 FEFFFFEB 		bl	chEvtBroadcastFlagsI
 438              	.LVL50:
 439              		.loc 1 242 0
 440 002c 0500A0E1 		mov	r0, r5
 441 0030 3880BDE8 		ldmfd	sp!, {r3, r4, r5, pc}
 442              		.cfi_endproc
 443              	.LFE20:
 444              		.size	sdRequestDataI, .-sdRequestDataI
 445              		.section	.rodata.vmt,"a",%progbits
 446              		.align	2
 447              		.set	.LANCHOR0,. + 0
 448              		.type	vmt, %object
 449              		.size	vmt, 32
 450              	vmt:
 451 0000 00000000 		.word	write
 452 0004 00000000 		.word	read
 453 0008 00000000 		.word	put
 454 000c 00000000 		.word	get
 455 0010 00000000 		.word	putt
 456 0014 00000000 		.word	gett
ARM GAS  /tmp/ccAd5cZq.s 			page 9


 457 0018 00000000 		.word	writet
 458 001c 00000000 		.word	readt
 459              		.text
 460              	.Letext0:
 461              		.file 2 "/usr/lib/gcc/arm-none-eabi/4.9.3/include/stddef.h"
 462              		.file 3 "/usr/include/newlib/machine/_default_types.h"
 463              		.file 4 "/usr/include/newlib/sys/_stdint.h"
 464              		.file 5 "../../os/ports/GCC/ARM/chtypes.h"
 465              		.file 6 "../../os/kernel/include/chlists.h"
 466              		.file 7 "../../os/kernel/include/chthreads.h"
 467              		.file 8 "../../os/ports/GCC/ARM/chcore.h"
 468              		.file 9 "../../os/kernel/include/chmtx.h"
 469              		.file 10 "../../os/kernel/include/chevents.h"
 470              		.file 11 "../../os/kernel/include/chqueues.h"
 471              		.file 12 "../../os/hal/include/serial.h"
 472              		.file 13 "../../os/hal/platforms/BCM2835/serial_lld.h"
 473              		.file 14 "../../os/kernel/include/chschd.h"