ARM GAS  /tmp/ccAd5cZq.s 			page 1


   1              		.cpu arm1176jz-s
   2              		.fpu softvfp
   3              		.eabi_attribute 20, 1
   4              		.eabi_attribute 21, 1
   5              		.eabi_attribute 23, 3
   6              		.eabi_attribute 24, 1
   7              		.eabi_attribute 25, 1
   8              		.eabi_attribute 26, 1
   9              		.eabi_attribute 30, 2
  10              		.eabi_attribute 34, 1
  11              		.eabi_attribute 18, 4
  12              		.file	"serial.c"
  13              		.text
  14              	.Ltext0:
  15              		.cfi_sections	.debug_frame
  16              		.section	.text.readt,"ax",%progbits
  17              		.align	2
  18              		.type	readt, %function
  19              	readt:
  20              	.LFB14:
  21              		.file 1 "../../os/hal/src/serial.c"
  22              		.loc 1 92 0
  23              		.cfi_startproc
  24              		@ args = 0, pretend = 0, frame = 0
  25              		@ frame_needed = 0, uses_anonymous_args = 0
  26              		@ link register save eliminated.
  27              	.LVL0:
  28              		.loc 1 94 0
  29 0000 0C0080E2 		add	r0, r0, #12
  30              	.LVL1:
  31 0004 FEFFFFEA 		b	chIQReadTimeout
  32              	.LVL2:
  33              		.cfi_endproc
  34              	.LFE14:
  35              		.size	readt, .-readt
  36              		.section	.text.read,"ax",%progbits
  37              		.align	2
  38              		.type	read, %function
  39              	read:
  40              	.LFB8:
  41              		.loc 1 61 0
  42              		.cfi_startproc
  43              		@ args = 0, pretend = 0, frame = 0
  44              		@ frame_needed = 0, uses_anonymous_args = 0
  45              		@ link register save eliminated.
  46              	.LVL3:
  47              		.loc 1 63 0
  48 0000 0C0080E2 		add	r0, r0, #12
  49              	.LVL4:
  50 0004 0030E0E3 		mvn	r3, #0
  51 0008 FEFFFFEA 		b	chIQReadTimeout
  52              	.LVL5:
  53              		.cfi_endproc
  54              	.LFE8:
  55              		.size	read, .-read
  56              		.section	.text.writet,"ax",%progbits
  57              		.align	2
ARM GAS  /tmp/ccAd5cZq.s 			page 2


  58              		.type	writet, %function
  59              	writet:
  60              	.LFB13:
  61              		.loc 1 87 0
  62              		.cfi_startproc
  63              		@ args = 0, pretend = 0, frame = 0
  64              		@ frame_needed = 0, uses_anonymous_args = 0
  65              		@ link register save eliminated.
  66              	.LVL6:
  67              		.loc 1 89 0
  68 0000 300080E2 		add	r0, r0, #48
  69              	.LVL7:
  70 0004 FEFFFFEA 		b	chOQWriteTimeout
  71              	.LVL8:
  72              		.cfi_endproc
  73              	.LFE13:
  74              		.size	writet, .-writet
  75              		.section	.text.write,"ax",%progbits
  76              		.align	2
  77              		.type	write, %function
  78              	write:
  79              	.LFB7:
  80              		.loc 1 55 0
  81              		.cfi_startproc
  82              		@ args = 0, pretend = 0, frame = 0
  83              		@ frame_needed = 0, uses_anonymous_args = 0
  84              		@ link register save eliminated.
  85              	.LVL9:
  86              		.loc 1 57 0
  87 0000 300080E2 		add	r0, r0, #48
  88              	.LVL10:
  89 0004 0030E0E3 		mvn	r3, #0
  90 0008 FEFFFFEA 		b	chOQWriteTimeout
  91              	.LVL11:
  92              		.cfi_endproc
  93              	.LFE7:
  94              		.size	write, .-write
  95              		.section	.text.gett,"ax",%progbits
  96              		.align	2
  97              		.type	gett, %function
  98              	gett:
  99              	.LFB12:
 100              		.loc 1 82 0
 101              		.cfi_startproc
 102              		@ args = 0, pretend = 0, frame = 0
 103              		@ frame_needed = 0, uses_anonymous_args = 0
 104              		@ link register save eliminated.
 105              	.LVL12:
 106              		.loc 1 84 0
 107 0000 0C0080E2 		add	r0, r0, #12
 108              	.LVL13:
 109 0004 FEFFFFEA 		b	chIQGetTimeout
 110              	.LVL14:
 111              		.cfi_endproc
 112              	.LFE12:
 113              		.size	gett, .-gett
 114              		.section	.text.get,"ax",%progbits
ARM GAS  /tmp/ccAd5cZq.s 			page 3


 115              		.align	2
 116              		.type	get, %function
 117              	get:
 118              	.LFB10:
 119              		.loc 1 72 0
 120              		.cfi_startproc
 121              		@ args = 0, pretend = 0, frame = 0
 122              		@ frame_needed = 0, uses_anonymous_args = 0
 123              		@ link register save eliminated.
 124              	.LVL15:
 125              		.loc 1 74 0
 126 0000 0C0080E2 		add	r0, r0, #12
 127              	.LVL16:
 128 0004 0010E0E3 		mvn	r1, #0
 129 0008 FEFFFFEA 		b	chIQGetTimeout
 130              	.LVL17:
 131              		.cfi_endproc
 132              	.LFE10:
 133              		.size	get, .-get
 134              		.section	.text.putt,"ax",%progbits
 135              		.align	2
 136              		.type	putt, %function
 137              	putt:
 138              	.LFB11:
 139              		.loc 1 77 0
 140              		.cfi_startproc
 141              		@ args = 0, pretend = 0, frame = 0
 142              		@ frame_needed = 0, uses_anonymous_args = 0
 143              		@ link register save eliminated.
 144              	.LVL18:
 145              		.loc 1 79 0
 146 0000 300080E2 		add	r0, r0, #48
 147              	.LVL19:
 148 0004 FEFFFFEA 		b	chOQPutTimeout
 149              	.LVL20:
 150              		.cfi_endproc
 151              	.LFE11:
 152              		.size	putt, .-putt
 153              		.section	.text.put,"ax",%progbits
 154              		.align	2
 155              		.type	put, %function
 156              	put:
 157              	.LFB9:
 158              		.loc 1 67 0
 159              		.cfi_startproc
 160              		@ args = 0, pretend = 0, frame = 0
 161              		@ frame_needed = 0, uses_anonymous_args = 0
 162              		@ link register save eliminated.
 163              	.LVL21:
 164              		.loc 1 69 0
 165 0000 300080E2 		add	r0, r0, #48
 166              	.LVL22:
 167 0004 0020E0E3 		mvn	r2, #0
 168 0008 FEFFFFEA 		b	chOQPutTimeout
 169              	.LVL23:
 170              		.cfi_endproc
 171              	.LFE9:
ARM GAS  /tmp/ccAd5cZq.s 			page 4


 172              		.size	put, .-put
 173              		.section	.text.sdInit,"ax",%progbits
 174              		.align	2
 175              		.global	sdInit
 176              		.type	sdInit, %function
 177              	sdInit:
 178              	.LFB15:
 179              		.loc 1 113 0
 180              		.cfi_startproc
 181              		@ args = 0, pretend = 0, frame = 0
 182              		@ frame_needed = 0, uses_anonymous_args = 0
 183              		@ link register save eliminated.
 184              		.loc 1 115 0
 185 0000 FEFFFFEA 		b	sd_lld_init
 186              	.LVL24:
 187              		.cfi_endproc
 188              	.LFE15:
 189              		.size	sdInit, .-sdInit
 190              		.section	.text.sdObjectInit,"ax",%progbits
 191              		.align	2
 192              		.global	sdObjectInit
 193              		.type	sdObjectInit, %function
 194              	sdObjectInit:
 195              	.LFB16:
 196              		.loc 1 133 0
 197              		.cfi_startproc
 198              		@ args = 0, pretend = 0, frame = 0
 199              		@ frame_needed = 0, uses_anonymous_args = 0
 200              	.LVL25:
 201 0000 30402DE9 		stmfd	sp!, {r4, r5, lr}
 202              		.cfi_def_cfa_offset 12
 203              		.cfi_offset 4, -12
 204              		.cfi_offset 5, -8
 205              		.cfi_offset 14, -4
 206 0004 0040A0E1 		mov	r4, r0
 207              		.loc 1 137 0
 208 0008 01C0A0E3 		mov	ip, #1
 209              		.loc 1 133 0
 210 000c 0250A0E1 		mov	r5, r2
 211              		.loc 1 135 0
 212 0010 44209FE5 		ldr	r2, .L12
 213              	.LVL26:
 214              		.loc 1 133 0
 215 0014 0CD04DE2 		sub	sp, sp, #12
 216              		.cfi_def_cfa_offset 24
 217              		.loc 1 138 0
 218 0018 00408DE5 		str	r4, [sp]
 219              		.loc 1 135 0
 220 001c 042080E4 		str	r2, [r0], #4
 221              	.LVL27:
 222              		.loc 1 133 0
 223 0020 0130A0E1 		mov	r3, r1
 224              		.loc 1 136 0
 225 0024 040084E5 		str	r0, [r4, #4]
 226              		.loc 1 137 0
 227 0028 08C0C4E5 		strb	ip, [r4, #8]
 228              		.loc 1 138 0
ARM GAS  /tmp/ccAd5cZq.s 			page 5


 229 002c 0C0084E2 		add	r0, r4, #12
 230 0030 541084E2 		add	r1, r4, #84
 231              	.LVL28:
 232 0034 1020A0E3 		mov	r2, #16
 233 0038 FEFFFFEB 		bl	chIQInit
 234              	.LVL29:
 235              		.loc 1 139 0
 236 003c 00408DE5 		str	r4, [sp]
 237 0040 0530A0E1 		mov	r3, r5
 238 0044 300084E2 		add	r0, r4, #48
 239 0048 641084E2 		add	r1, r4, #100
 240 004c 1020A0E3 		mov	r2, #16
 241 0050 FEFFFFEB 		bl	chOQInit
 242              	.LVL30:
 243              		.loc 1 140 0
 244 0054 0CD08DE2 		add	sp, sp, #12
 245              		.cfi_def_cfa_offset 12
 246              		@ sp needed
 247 0058 3080BDE8 		ldmfd	sp!, {r4, r5, pc}
 248              	.LVL31:
 249              	.L13:
 250              		.align	2
 251              	.L12:
 252 005c 00000000 		.word	.LANCHOR0
 253              		.cfi_endproc
 254              	.LFE16:
 255              		.size	sdObjectInit, .-sdObjectInit
 256              		.section	.text.sdStart,"ax",%progbits
 257              		.align	2
 258              		.global	sdStart
 259              		.type	sdStart, %function
 260              	sdStart:
 261              	.LFB17:
 262              		.loc 1 152 0
 263              		.cfi_startproc
 264              		@ args = 0, pretend = 0, frame = 0
 265              		@ frame_needed = 0, uses_anonymous_args = 0
 266              	.LVL32:
 267 0000 10402DE9 		stmfd	sp!, {r4, lr}
 268              		.cfi_def_cfa_offset 8
 269              		.cfi_offset 4, -8
 270              		.cfi_offset 14, -4
 271              		.loc 1 152 0
 272 0004 0040A0E1 		mov	r4, r0
 273              		.loc 1 156 0
 274              	@ 156 "../../os/hal/src/serial.c" 1
 275 0008 9FF021E3 		msr     CPSR_c, #0x9F
 276              	@ 0 "" 2
 277              		.loc 1 160 0
 278 000c FEFFFFEB 		bl	sd_lld_start
 279              	.LVL33:
 280              		.loc 1 161 0
 281 0010 0230A0E3 		mov	r3, #2
 282 0014 0830C4E5 		strb	r3, [r4, #8]
 283              		.loc 1 162 0
 284              	@ 162 "../../os/hal/src/serial.c" 1
 285 0018 1FF021E3 		msr     CPSR_c, #0x1F
ARM GAS  /tmp/ccAd5cZq.s 			page 6


 286              	@ 0 "" 2
 287 001c 1080BDE8 		ldmfd	sp!, {r4, pc}
 288              		.cfi_endproc
 289              	.LFE17:
 290              		.size	sdStart, .-sdStart
 291              		.section	.text.sdStop,"ax",%progbits
 292              		.align	2
 293              		.global	sdStop
 294              		.type	sdStop, %function
 295              	sdStop:
 296              	.LFB18:
 297              		.loc 1 174 0
 298              		.cfi_startproc
 299              		@ args = 0, pretend = 0, frame = 0
 300              		@ frame_needed = 0, uses_anonymous_args = 0
 301              	.LVL34:
 302 0000 10402DE9 		stmfd	sp!, {r4, lr}
 303              		.cfi_def_cfa_offset 8
 304              		.cfi_offset 4, -8
 305              		.cfi_offset 14, -4
 306              		.loc 1 174 0
 307 0004 0040A0E1 		mov	r4, r0
 308              		.loc 1 178 0
 309              	@ 178 "../../os/hal/src/serial.c" 1
 310 0008 9FF021E3 		msr     CPSR_c, #0x9F
 311              	@ 0 "" 2
 312              		.loc 1 182 0
 313 000c FEFFFFEB 		bl	sd_lld_stop
 314              	.LVL35:
 315              		.loc 1 183 0
 316 0010 0130A0E3 		mov	r3, #1
 317              		.loc 1 184 0
 318 0014 300084E2 		add	r0, r4, #48
 319              		.loc 1 183 0
 320 0018 0830C4E5 		strb	r3, [r4, #8]
 321              		.loc 1 184 0
 322 001c FEFFFFEB 		bl	chOQResetI
 323              	.LVL36:
 324              		.loc 1 185 0
 325 0020 0C0084E2 		add	r0, r4, #12
 326 0024 FEFFFFEB 		bl	chIQResetI
 327              	.LVL37:
 328              		.loc 1 186 0
 329 0028 FEFFFFEB 		bl	chSchRescheduleS
 330              	.LVL38:
 331              		.loc 1 187 0
 332              	@ 187 "../../os/hal/src/serial.c" 1
 333 002c 1FF021E3 		msr     CPSR_c, #0x1F
 334              	@ 0 "" 2
 335 0030 1080BDE8 		ldmfd	sp!, {r4, pc}
 336              		.cfi_endproc
 337              	.LFE18:
 338              		.size	sdStop, .-sdStop
 339              		.section	.text.sdIncomingDataI,"ax",%progbits
 340              		.align	2
 341              		.global	sdIncomingDataI
 342              		.type	sdIncomingDataI, %function
ARM GAS  /tmp/ccAd5cZq.s 			page 7


 343              	sdIncomingDataI:
 344              	.LFB19:
 345              		.loc 1 206 0
 346              		.cfi_startproc
 347              		@ args = 0, pretend = 0, frame = 0
 348              		@ frame_needed = 0, uses_anonymous_args = 0
 349              	.LVL39:
 350 0000 38402DE9 		stmfd	sp!, {r3, r4, r5, lr}
 351              		.cfi_def_cfa_offset 16
 352              		.cfi_offset 3, -16
 353              		.cfi_offset 4, -12
 354              		.cfi_offset 5, -8
 355              		.cfi_offset 14, -4
 356              		.loc 1 211 0
 357 0004 143090E5 		ldr	r3, [r0, #20]
 358              		.loc 1 206 0
 359 0008 0040A0E1 		mov	r4, r0
 360              		.loc 1 211 0
 361 000c 000053E3 		cmp	r3, #0
 362              		.loc 1 206 0
 363 0010 0150A0E1 		mov	r5, r1
 364              		.loc 1 211 0
 365 0014 0800000A 		beq	.L23
 366              	.LVL40:
 367              	.L19:
 368              		.loc 1 213 0
 369 0018 0510A0E1 		mov	r1, r5
 370 001c 0C0084E2 		add	r0, r4, #12
 371 0020 FEFFFFEB 		bl	chIQPutI
 372              	.LVL41:
 373 0024 000050E3 		cmp	r0, #0
 374 0028 3880BDA8 		ldmgefd	sp!, {r3, r4, r5, pc}
 375              		.loc 1 214 0
 376 002c 040084E2 		add	r0, r4, #4
 377 0030 8010A0E3 		mov	r1, #128
 378              		.loc 1 215 0
 379 0034 3840BDE8 		ldmfd	sp!, {r3, r4, r5, lr}
 380              		.cfi_remember_state
 381              		.cfi_restore 14
 382              		.cfi_restore 5
 383              		.cfi_restore 4
 384              		.cfi_restore 3
 385              		.cfi_def_cfa_offset 0
 386              	.LVL42:
 387              		.loc 1 214 0
 388 0038 FEFFFFEA 		b	chEvtBroadcastFlagsI
 389              	.LVL43:
 390              	.L23:
 391              		.cfi_restore_state
 392              		.loc 1 212 0
 393 003c 040080E2 		add	r0, r0, #4
 394              	.LVL44:
 395 0040 0410A0E3 		mov	r1, #4
 396              	.LVL45:
 397 0044 FEFFFFEB 		bl	chEvtBroadcastFlagsI
 398              	.LVL46:
 399 0048 F2FFFFEA 		b	.L19
ARM GAS  /tmp/ccAd5cZq.s 			page 8


 400              		.cfi_endproc
 401              	.LFE19:
 402              		.size	sdIncomingDataI, .-sdIncomingDataI
 403              		.section	.text.sdRequestDataI,"ax",%progbits
 404              		.align	2
 405              		.global	sdRequestDataI
 406              		.type	sdRequestDataI, %function
 407              	sdRequestDataI:
 408              	.LFB20:
 409              		.loc 1 232 0
 410              		.cfi_startproc
 411              		@ args = 0, pretend = 0, frame = 0
 412              		@ frame_needed = 0, uses_anonymous_args = 0
 413              	.LVL47:
 414 0000 38402DE9 		stmfd	sp!, {r3, r4, r5, lr}
 415              		.cfi_def_cfa_offset 16
 416              		.cfi_offset 3, -16
 417              		.cfi_offset 4, -12
 418              		.cfi_offset 5, -8
 419              		.cfi_offset 14, -4
 420              		.loc 1 232 0
 421 0004 0040A0E1 		mov	r4, r0
 422              		.loc 1 238 0
 423 0008 300080E2 		add	r0, r0, #48
 424              	.LVL48:
 425 000c FEFFFFEB 		bl	chOQGetI
 426              	.LVL49:
 427              		.loc 1 239 0
 428 0010 005050E2 		subs	r5, r0, #0
 429 0014 010000BA 		blt	.L27
 430              		.loc 1 242 0
 431 0018 0500A0E1 		mov	r0, r5
 432 001c 3880BDE8 		ldmfd	sp!, {r3, r4, r5, pc}
 433              	.L27:
 434              		.loc 1 240 0
 435 0020 040084E2 		add	r0, r4, #4
 436 0024 0810A0E3 		mov	r1, #8
 437 0028 FEFFFFEB 		bl	chEvtBroadcastFlagsI
 438              	.LVL50:
 439              		.loc 1 242 0
 440 002c 0500A0E1 		mov	r0, r5
 441 0030 3880BDE8 		ldmfd	sp!, {r3, r4, r5, pc}
 442              		.cfi_endproc
 443              	.LFE20:
 444              		.size	sdRequestDataI, .-sdRequestDataI
 445              		.section	.rodata.vmt,"a",%progbits
 446              		.align	2
 447              		.set	.LANCHOR0,. + 0
 448              		.type	vmt, %object
 449              		.size	vmt, 32
 450              	vmt:
 451 0000 00000000 		.word	write
 452 0004 00000000 		.word	read
 453 0008 00000000 		.word	put
 454 000c 00000000 		.word	get
 455 0010 00000000 		.word	putt
 456 0014 00000000 		.word	gett
ARM GAS  /tmp/ccAd5cZq.s 			page 9


 457 0018 00000000 		.word	writet
 458 001c 00000000 		.word	readt
 459              		.text
 460              	.Letext0:
 461              		.file 2 "/usr/lib/gcc/arm-none-eabi/4.9.3/include/stddef.h"
 462              		.file 3 "/usr/include/newlib/machine/_default_types.h"
 463              		.file 4 "/usr/include/newlib/sys/_stdint.h"
 464              		.file 5 "../../os/ports/GCC/ARM/chtypes.h"
 465              		.file 6 "../../os/kernel/include/chlists.h"
 466              		.file 7 "../../os/kernel/include/chthreads.h"
 467              		.file 8 "../../os/ports/GCC/ARM/chcore.h"
 468              		.file 9 "../../os/kernel/include/chmtx.h"
 469              		.file 10 "../../os/kernel/include/chevents.h"
 470              		.file 11 "../../os/kernel/include/chqueues.h"
 471              		.file 12 "../../os/hal/include/serial.h"
 472              		.file 13 "../../os/hal/platforms/BCM2835/serial_lld.h"
 473              		.file 14 "../../os/kernel/include/chschd.h"
 474              		.section	.debug_info,"",%progbits
 475              	.Ldebug_info0:
 476 0000 EC0D0000 		.4byte	0xdec
 477 0004 0400     		.2byte	0x4
 478 0006 00000000 		.4byte	.Ldebug_abbrev0
 479 000a 04       		.byte	0x4
 480 000b 01       		.uleb128 0x1
 481 000c BE040000 		.4byte	.LASF122
 482 0010 01       		.byte	0x1
 483 0011 80040000 		.4byte	.LASF123
 484 0015 04040000 		.4byte	.LASF124
 485 0019 00000000 		.4byte	.Ldebug_ranges0+0
 486 001d 00000000 		.4byte	0
 487 0021 00000000 		.4byte	.Ldebug_line0
 488 0025 02       		.uleb128 0x2
 489 0026 04       		.byte	0x4
 490 0027 05       		.byte	0x5
 491 0028 696E7400 		.ascii	"int\000"
 492 002c 03       		.uleb128 0x3
 493 002d 15000000 		.4byte	.LASF2
 494 0031 02       		.byte	0x2
 495 0032 D4       		.byte	0xd4
 496 0033 37000000 		.4byte	0x37
 497 0037 04       		.uleb128 0x4
 498 0038 04       		.byte	0x4
 499 0039 07       		.byte	0x7
 500 003a 6C010000 		.4byte	.LASF0
 501 003e 04       		.uleb128 0x4
 502 003f 01       		.byte	0x1
 503 0040 06       		.byte	0x6
 504 0041 A1000000 		.4byte	.LASF1
 505 0045 03       		.uleb128 0x3
 506 0046 38000000 		.4byte	.LASF3
 507 004a 03       		.byte	0x3
 508 004b 1D       		.byte	0x1d
 509 004c 50000000 		.4byte	0x50
 510 0050 04       		.uleb128 0x4
 511 0051 01       		.byte	0x1
 512 0052 08       		.byte	0x8
 513 0053 D3020000 		.4byte	.LASF4
ARM GAS  /tmp/ccAd5cZq.s 			page 10


 514 0057 04       		.uleb128 0x4
 515 0058 02       		.byte	0x2
 516 0059 05       		.byte	0x5
 517 005a 0D030000 		.4byte	.LASF5
 518 005e 04       		.uleb128 0x4
 519 005f 02       		.byte	0x2
 520 0060 07       		.byte	0x7
 521 0061 D0010000 		.4byte	.LASF6
 522 0065 03       		.uleb128 0x3
 523 0066 CD030000 		.4byte	.LASF7
 524 006a 03       		.byte	0x3
 525 006b 3F       		.byte	0x3f
 526 006c 70000000 		.4byte	0x70
 527 0070 04       		.uleb128 0x4
 528 0071 04       		.byte	0x4
 529 0072 05       		.byte	0x5
 530 0073 DD000000 		.4byte	.LASF8
 531 0077 03       		.uleb128 0x3
 532 0078 43010000 		.4byte	.LASF9
 533 007c 03       		.byte	0x3
 534 007d 41       		.byte	0x41
 535 007e 82000000 		.4byte	0x82
 536 0082 04       		.uleb128 0x4
 537 0083 04       		.byte	0x4
 538 0084 07       		.byte	0x7
 539 0085 A3010000 		.4byte	.LASF10
 540 0089 04       		.uleb128 0x4
 541 008a 08       		.byte	0x8
 542 008b 05       		.byte	0x5
 543 008c 93000000 		.4byte	.LASF11
 544 0090 04       		.uleb128 0x4
 545 0091 08       		.byte	0x8
 546 0092 07       		.byte	0x7
 547 0093 52000000 		.4byte	.LASF12
 548 0097 03       		.uleb128 0x3
 549 0098 78040000 		.4byte	.LASF13
 550 009c 04       		.byte	0x4
 551 009d 14       		.byte	0x14
 552 009e 45000000 		.4byte	0x45
 553 00a2 03       		.uleb128 0x3
 554 00a3 CB020000 		.4byte	.LASF14
 555 00a7 04       		.byte	0x4
 556 00a8 1F       		.byte	0x1f
 557 00a9 65000000 		.4byte	0x65
 558 00ad 03       		.uleb128 0x3
 559 00ae 68030000 		.4byte	.LASF15
 560 00b2 04       		.byte	0x4
 561 00b3 20       		.byte	0x20
 562 00b4 77000000 		.4byte	0x77
 563 00b8 03       		.uleb128 0x3
 564 00b9 B5000000 		.4byte	.LASF16
 565 00bd 05       		.byte	0x5
 566 00be 29       		.byte	0x29
 567 00bf A2000000 		.4byte	0xa2
 568 00c3 03       		.uleb128 0x3
 569 00c4 FF010000 		.4byte	.LASF17
 570 00c8 05       		.byte	0x5
ARM GAS  /tmp/ccAd5cZq.s 			page 11


 571 00c9 2A       		.byte	0x2a
 572 00ca 97000000 		.4byte	0x97
 573 00ce 03       		.uleb128 0x3
 574 00cf E6000000 		.4byte	.LASF18
 575 00d3 05       		.byte	0x5
 576 00d4 2B       		.byte	0x2b
 577 00d5 97000000 		.4byte	0x97
 578 00d9 03       		.uleb128 0x3
 579 00da A2020000 		.4byte	.LASF19
 580 00de 05       		.byte	0x5
 581 00df 2C       		.byte	0x2c
 582 00e0 97000000 		.4byte	0x97
 583 00e4 03       		.uleb128 0x3
 584 00e5 C4000000 		.4byte	.LASF20
 585 00e9 05       		.byte	0x5
 586 00ea 2D       		.byte	0x2d
 587 00eb 97000000 		.4byte	0x97
 588 00ef 03       		.uleb128 0x3
 589 00f0 BB020000 		.4byte	.LASF21
 590 00f4 05       		.byte	0x5
 591 00f5 2E       		.byte	0x2e
 592 00f6 AD000000 		.4byte	0xad
 593 00fa 03       		.uleb128 0x3
 594 00fb E3010000 		.4byte	.LASF22
 595 00ff 05       		.byte	0x5
 596 0100 2F       		.byte	0x2f
 597 0101 A2000000 		.4byte	0xa2
 598 0105 03       		.uleb128 0x3
 599 0106 13020000 		.4byte	.LASF23
 600 010a 05       		.byte	0x5
 601 010b 31       		.byte	0x31
 602 010c AD000000 		.4byte	0xad
 603 0110 03       		.uleb128 0x3
 604 0111 47040000 		.4byte	.LASF24
 605 0115 05       		.byte	0x5
 606 0116 32       		.byte	0x32
 607 0117 AD000000 		.4byte	0xad
 608 011b 03       		.uleb128 0x3
 609 011c B8030000 		.4byte	.LASF25
 610 0120 05       		.byte	0x5
 611 0121 33       		.byte	0x33
 612 0122 AD000000 		.4byte	0xad
 613 0126 03       		.uleb128 0x3
 614 0127 4C030000 		.4byte	.LASF26
 615 012b 06       		.byte	0x6
 616 012c 23       		.byte	0x23
 617 012d 31010000 		.4byte	0x131
 618 0131 05       		.uleb128 0x5
 619 0132 4C030000 		.4byte	.LASF26
 620 0136 44       		.byte	0x44
 621 0137 07       		.byte	0x7
 622 0138 57       		.byte	0x57
 623 0139 22020000 		.4byte	0x222
 624 013d 06       		.uleb128 0x6
 625 013e 3D030000 		.4byte	.LASF27
 626 0142 07       		.byte	0x7
 627 0143 58       		.byte	0x58
ARM GAS  /tmp/ccAd5cZq.s 			page 12


 628 0144 43020000 		.4byte	0x243
 629 0148 00       		.byte	0
 630 0149 06       		.uleb128 0x6
 631 014a B4020000 		.4byte	.LASF28
 632 014e 07       		.byte	0x7
 633 014f 5A       		.byte	0x5a
 634 0150 43020000 		.4byte	0x243
 635 0154 04       		.byte	0x4
 636 0155 06       		.uleb128 0x6
 637 0156 7C000000 		.4byte	.LASF29
 638 015a 07       		.byte	0x7
 639 015b 5C       		.byte	0x5c
 640 015c EF000000 		.4byte	0xef
 641 0160 08       		.byte	0x8
 642 0161 06       		.uleb128 0x6
 643 0162 74050000 		.4byte	.LASF30
 644 0166 07       		.byte	0x7
 645 0167 5D       		.byte	0x5d
 646 0168 F3020000 		.4byte	0x2f3
 647 016c 0C       		.byte	0xc
 648 016d 06       		.uleb128 0x6
 649 016e 2A010000 		.4byte	.LASF31
 650 0172 07       		.byte	0x7
 651 0173 5F       		.byte	0x5f
 652 0174 43020000 		.4byte	0x243
 653 0178 10       		.byte	0x10
 654 0179 06       		.uleb128 0x6
 655 017a 6C020000 		.4byte	.LASF32
 656 017e 07       		.byte	0x7
 657 017f 60       		.byte	0x60
 658 0180 43020000 		.4byte	0x243
 659 0184 14       		.byte	0x14
 660 0185 06       		.uleb128 0x6
 661 0186 B7040000 		.4byte	.LASF33
 662 018a 07       		.byte	0x7
 663 018b 67       		.byte	0x67
 664 018c 00040000 		.4byte	0x400
 665 0190 18       		.byte	0x18
 666 0191 06       		.uleb128 0x6
 667 0192 17030000 		.4byte	.LASF34
 668 0196 07       		.byte	0x7
 669 0197 72       		.byte	0x72
 670 0198 CE000000 		.4byte	0xce
 671 019c 1C       		.byte	0x1c
 672 019d 06       		.uleb128 0x6
 673 019e 44030000 		.4byte	.LASF35
 674 01a2 07       		.byte	0x7
 675 01a3 76       		.byte	0x76
 676 01a4 C3000000 		.4byte	0xc3
 677 01a8 1D       		.byte	0x1d
 678 01a9 06       		.uleb128 0x6
 679 01aa 59040000 		.4byte	.LASF36
 680 01ae 07       		.byte	0x7
 681 01af 7B       		.byte	0x7b
 682 01b0 D9000000 		.4byte	0xd9
 683 01b4 1E       		.byte	0x1e
 684 01b5 06       		.uleb128 0x6
ARM GAS  /tmp/ccAd5cZq.s 			page 13


 685 01b6 1F030000 		.4byte	.LASF37
 686 01ba 07       		.byte	0x7
 687 01bb 81       		.byte	0x81
 688 01bc E4000000 		.4byte	0xe4
 689 01c0 1F       		.byte	0x1f
 690 01c1 06       		.uleb128 0x6
 691 01c2 E2030000 		.4byte	.LASF38
 692 01c6 07       		.byte	0x7
 693 01c7 88       		.byte	0x88
 694 01c8 12030000 		.4byte	0x312
 695 01cc 20       		.byte	0x20
 696 01cd 07       		.uleb128 0x7
 697 01ce 705F7500 		.ascii	"p_u\000"
 698 01d2 07       		.byte	0x7
 699 01d3 AD       		.byte	0xad
 700 01d4 CB030000 		.4byte	0x3cb
 701 01d8 24       		.byte	0x24
 702 01d9 06       		.uleb128 0x6
 703 01da 7A050000 		.4byte	.LASF39
 704 01de 07       		.byte	0x7
 705 01df B2       		.byte	0xb2
 706 01e0 69020000 		.4byte	0x269
 707 01e4 28       		.byte	0x28
 708 01e5 06       		.uleb128 0x6
 709 01e6 F0030000 		.4byte	.LASF40
 710 01ea 07       		.byte	0x7
 711 01eb B8       		.byte	0xb8
 712 01ec 49020000 		.4byte	0x249
 713 01f0 2C       		.byte	0x2c
 714 01f1 06       		.uleb128 0x6
 715 01f2 0F000000 		.4byte	.LASF41
 716 01f6 07       		.byte	0x7
 717 01f7 BC       		.byte	0xbc
 718 01f8 FA000000 		.4byte	0xfa
 719 01fc 34       		.byte	0x34
 720 01fd 06       		.uleb128 0x6
 721 01fe 53030000 		.4byte	.LASF42
 722 0202 07       		.byte	0x7
 723 0203 C2       		.byte	0xc2
 724 0204 05010000 		.4byte	0x105
 725 0208 38       		.byte	0x38
 726 0209 06       		.uleb128 0x6
 727 020a 03030000 		.4byte	.LASF43
 728 020e 07       		.byte	0x7
 729 020f C9       		.byte	0xc9
 730 0210 12040000 		.4byte	0x412
 731 0214 3C       		.byte	0x3c
 732 0215 06       		.uleb128 0x6
 733 0216 C2030000 		.4byte	.LASF44
 734 021a 07       		.byte	0x7
 735 021b CD       		.byte	0xcd
 736 021c EF000000 		.4byte	0xef
 737 0220 40       		.byte	0x40
 738 0221 00       		.byte	0
 739 0222 08       		.uleb128 0x8
 740 0223 08       		.byte	0x8
 741 0224 06       		.byte	0x6
ARM GAS  /tmp/ccAd5cZq.s 			page 14


 742 0225 5A       		.byte	0x5a
 743 0226 43020000 		.4byte	0x243
 744 022a 06       		.uleb128 0x6
 745 022b 3D030000 		.4byte	.LASF27
 746 022f 06       		.byte	0x6
 747 0230 5B       		.byte	0x5b
 748 0231 43020000 		.4byte	0x243
 749 0235 00       		.byte	0
 750 0236 06       		.uleb128 0x6
 751 0237 B4020000 		.4byte	.LASF28
 752 023b 06       		.byte	0x6
 753 023c 5D       		.byte	0x5d
 754 023d 43020000 		.4byte	0x243
 755 0241 04       		.byte	0x4
 756 0242 00       		.byte	0
 757 0243 09       		.uleb128 0x9
 758 0244 04       		.byte	0x4
 759 0245 26010000 		.4byte	0x126
 760 0249 03       		.uleb128 0x3
 761 024a 74020000 		.4byte	.LASF45
 762 024e 06       		.byte	0x6
 763 024f 5F       		.byte	0x5f
 764 0250 22020000 		.4byte	0x222
 765 0254 08       		.uleb128 0x8
 766 0255 04       		.byte	0x4
 767 0256 06       		.byte	0x6
 768 0257 64       		.byte	0x64
 769 0258 69020000 		.4byte	0x269
 770 025c 06       		.uleb128 0x6
 771 025d 3D030000 		.4byte	.LASF27
 772 0261 06       		.byte	0x6
 773 0262 66       		.byte	0x66
 774 0263 43020000 		.4byte	0x243
 775 0267 00       		.byte	0
 776 0268 00       		.byte	0
 777 0269 03       		.uleb128 0x3
 778 026a 07020000 		.4byte	.LASF46
 779 026e 06       		.byte	0x6
 780 026f 69       		.byte	0x69
 781 0270 54020000 		.4byte	0x254
 782 0274 03       		.uleb128 0x3
 783 0275 4E010000 		.4byte	.LASF47
 784 0279 08       		.byte	0x8
 785 027a A2       		.byte	0xa2
 786 027b 7F020000 		.4byte	0x27f
 787 027f 0A       		.uleb128 0xa
 788 0280 04       		.byte	0x4
 789 0281 05       		.uleb128 0x5
 790 0282 E9030000 		.4byte	.LASF48
 791 0286 24       		.byte	0x24
 792 0287 08       		.byte	0x8
 793 0288 B9       		.byte	0xb9
 794 0289 F3020000 		.4byte	0x2f3
 795 028d 07       		.uleb128 0x7
 796 028e 723400   		.ascii	"r4\000"
 797 0291 08       		.byte	0x8
 798 0292 BA       		.byte	0xba
ARM GAS  /tmp/ccAd5cZq.s 			page 15


 799 0293 74020000 		.4byte	0x274
 800 0297 00       		.byte	0
 801 0298 07       		.uleb128 0x7
 802 0299 723500   		.ascii	"r5\000"
 803 029c 08       		.byte	0x8
 804 029d BB       		.byte	0xbb
 805 029e 74020000 		.4byte	0x274
 806 02a2 04       		.byte	0x4
 807 02a3 07       		.uleb128 0x7
 808 02a4 723600   		.ascii	"r6\000"
 809 02a7 08       		.byte	0x8
 810 02a8 BC       		.byte	0xbc
 811 02a9 74020000 		.4byte	0x274
 812 02ad 08       		.byte	0x8
 813 02ae 07       		.uleb128 0x7
 814 02af 723700   		.ascii	"r7\000"
 815 02b2 08       		.byte	0x8
 816 02b3 BD       		.byte	0xbd
 817 02b4 74020000 		.4byte	0x274
 818 02b8 0C       		.byte	0xc
 819 02b9 07       		.uleb128 0x7
 820 02ba 723800   		.ascii	"r8\000"
 821 02bd 08       		.byte	0x8
 822 02be BE       		.byte	0xbe
 823 02bf 74020000 		.4byte	0x274
 824 02c3 10       		.byte	0x10
 825 02c4 07       		.uleb128 0x7
 826 02c5 723900   		.ascii	"r9\000"
 827 02c8 08       		.byte	0x8
 828 02c9 BF       		.byte	0xbf
 829 02ca 74020000 		.4byte	0x274
 830 02ce 14       		.byte	0x14
 831 02cf 07       		.uleb128 0x7
 832 02d0 72313000 		.ascii	"r10\000"
 833 02d4 08       		.byte	0x8
 834 02d5 C0       		.byte	0xc0
 835 02d6 74020000 		.4byte	0x274
 836 02da 18       		.byte	0x18
 837 02db 07       		.uleb128 0x7
 838 02dc 72313100 		.ascii	"r11\000"
 839 02e0 08       		.byte	0x8
 840 02e1 C1       		.byte	0xc1
 841 02e2 74020000 		.4byte	0x274
 842 02e6 1C       		.byte	0x1c
 843 02e7 07       		.uleb128 0x7
 844 02e8 6C7200   		.ascii	"lr\000"
 845 02eb 08       		.byte	0x8
 846 02ec C2       		.byte	0xc2
 847 02ed 74020000 		.4byte	0x274
 848 02f1 20       		.byte	0x20
 849 02f2 00       		.byte	0
 850 02f3 05       		.uleb128 0x5
 851 02f4 C8010000 		.4byte	.LASF49
 852 02f8 04       		.byte	0x4
 853 02f9 08       		.byte	0x8
 854 02fa CA       		.byte	0xca
 855 02fb 0C030000 		.4byte	0x30c
ARM GAS  /tmp/ccAd5cZq.s 			page 16


 856 02ff 07       		.uleb128 0x7
 857 0300 72313300 		.ascii	"r13\000"
 858 0304 08       		.byte	0x8
 859 0305 CB       		.byte	0xcb
 860 0306 0C030000 		.4byte	0x30c
 861 030a 00       		.byte	0
 862 030b 00       		.byte	0
 863 030c 09       		.uleb128 0x9
 864 030d 04       		.byte	0x4
 865 030e 81020000 		.4byte	0x281
 866 0312 0B       		.uleb128 0xb
 867 0313 1B010000 		.4byte	0x11b
 868 0317 05       		.uleb128 0x5
 869 0318 2A020000 		.4byte	.LASF50
 870 031c 10       		.byte	0x10
 871 031d 09       		.byte	0x9
 872 031e 25       		.byte	0x25
 873 031f 48030000 		.4byte	0x348
 874 0323 06       		.uleb128 0x6
 875 0324 BC000000 		.4byte	.LASF51
 876 0328 09       		.byte	0x9
 877 0329 26       		.byte	0x26
 878 032a 49020000 		.4byte	0x249
 879 032e 00       		.byte	0
 880 032f 06       		.uleb128 0x6
 881 0330 6C050000 		.4byte	.LASF52
 882 0334 09       		.byte	0x9
 883 0335 28       		.byte	0x28
 884 0336 43020000 		.4byte	0x243
 885 033a 08       		.byte	0x8
 886 033b 06       		.uleb128 0x6
 887 033c B1030000 		.4byte	.LASF53
 888 0340 09       		.byte	0x9
 889 0341 2A       		.byte	0x2a
 890 0342 48030000 		.4byte	0x348
 891 0346 0C       		.byte	0xc
 892 0347 00       		.byte	0
 893 0348 09       		.uleb128 0x9
 894 0349 04       		.byte	0x4
 895 034a 17030000 		.4byte	0x317
 896 034e 03       		.uleb128 0x3
 897 034f 2A020000 		.4byte	.LASF50
 898 0353 09       		.byte	0x9
 899 0354 2C       		.byte	0x2c
 900 0355 17030000 		.4byte	0x317
 901 0359 03       		.uleb128 0x3
 902 035a A2040000 		.4byte	.LASF54
 903 035e 0A       		.byte	0xa
 904 035f 25       		.byte	0x25
 905 0360 64030000 		.4byte	0x364
 906 0364 05       		.uleb128 0x5
 907 0365 A2040000 		.4byte	.LASF54
 908 0369 10       		.byte	0x10
 909 036a 0A       		.byte	0xa
 910 036b 2A       		.byte	0x2a
 911 036c A1030000 		.4byte	0x3a1
 912 0370 06       		.uleb128 0x6
ARM GAS  /tmp/ccAd5cZq.s 			page 17


 913 0371 F0010000 		.4byte	.LASF55
 914 0375 0A       		.byte	0xa
 915 0376 2B       		.byte	0x2b
 916 0377 A1030000 		.4byte	0x3a1
 917 037b 00       		.byte	0
 918 037c 06       		.uleb128 0x6
 919 037d EE020000 		.4byte	.LASF56
 920 0381 0A       		.byte	0xa
 921 0382 2E       		.byte	0x2e
 922 0383 43020000 		.4byte	0x243
 923 0387 04       		.byte	0x4
 924 0388 06       		.uleb128 0x6
 925 0389 8D020000 		.4byte	.LASF57
 926 038d 0A       		.byte	0xa
 927 038e 30       		.byte	0x30
 928 038f 05010000 		.4byte	0x105
 929 0393 08       		.byte	0x8
 930 0394 06       		.uleb128 0x6
 931 0395 FA020000 		.4byte	.LASF58
 932 0399 0A       		.byte	0xa
 933 039a 33       		.byte	0x33
 934 039b 10010000 		.4byte	0x110
 935 039f 0C       		.byte	0xc
 936 03a0 00       		.byte	0
 937 03a1 09       		.uleb128 0x9
 938 03a2 04       		.byte	0x4
 939 03a3 59030000 		.4byte	0x359
 940 03a7 05       		.uleb128 0x5
 941 03a8 60010000 		.4byte	.LASF59
 942 03ac 04       		.byte	0x4
 943 03ad 0A       		.byte	0xa
 944 03ae 3A       		.byte	0x3a
 945 03af C0030000 		.4byte	0x3c0
 946 03b3 06       		.uleb128 0x6
 947 03b4 4A050000 		.4byte	.LASF60
 948 03b8 0A       		.byte	0xa
 949 03b9 3B       		.byte	0x3b
 950 03ba A1030000 		.4byte	0x3a1
 951 03be 00       		.byte	0
 952 03bf 00       		.byte	0
 953 03c0 03       		.uleb128 0x3
 954 03c1 60010000 		.4byte	.LASF59
 955 03c5 0A       		.byte	0xa
 956 03c6 3E       		.byte	0x3e
 957 03c7 A7030000 		.4byte	0x3a7
 958 03cb 0C       		.uleb128 0xc
 959 03cc 04       		.byte	0x4
 960 03cd 07       		.byte	0x7
 961 03ce 8F       		.byte	0x8f
 962 03cf 00040000 		.4byte	0x400
 963 03d3 0D       		.uleb128 0xd
 964 03d4 1C000000 		.4byte	.LASF61
 965 03d8 07       		.byte	0x7
 966 03d9 96       		.byte	0x96
 967 03da FA000000 		.4byte	0xfa
 968 03de 0D       		.uleb128 0xd
 969 03df 73000000 		.4byte	.LASF62
ARM GAS  /tmp/ccAd5cZq.s 			page 18


 970 03e3 07       		.byte	0x7
 971 03e4 9D       		.byte	0x9d
 972 03e5 FA000000 		.4byte	0xfa
 973 03e9 0D       		.uleb128 0xd
 974 03ea B0040000 		.4byte	.LASF63
 975 03ee 07       		.byte	0x7
 976 03ef A4       		.byte	0xa4
 977 03f0 7F020000 		.4byte	0x27f
 978 03f4 0D       		.uleb128 0xd
 979 03f5 36030000 		.4byte	.LASF64
 980 03f9 07       		.byte	0x7
 981 03fa AB       		.byte	0xab
 982 03fb 05010000 		.4byte	0x105
 983 03ff 00       		.byte	0
 984 0400 09       		.uleb128 0x9
 985 0401 04       		.byte	0x4
 986 0402 06040000 		.4byte	0x406
 987 0406 0E       		.uleb128 0xe
 988 0407 0B040000 		.4byte	0x40b
 989 040b 04       		.uleb128 0x4
 990 040c 01       		.byte	0x1
 991 040d 08       		.byte	0x8
 992 040e 8D030000 		.4byte	.LASF65
 993 0412 09       		.uleb128 0x9
 994 0413 04       		.byte	0x4
 995 0414 4E030000 		.4byte	0x34e
 996 0418 09       		.uleb128 0x9
 997 0419 04       		.byte	0x4
 998 041a 1E040000 		.4byte	0x41e
 999 041e 0F       		.uleb128 0xf
 1000 041f FA000000 		.4byte	0xfa
 1001 0423 2D040000 		.4byte	0x42d
 1002 0427 10       		.uleb128 0x10
 1003 0428 7F020000 		.4byte	0x27f
 1004 042c 00       		.byte	0
 1005 042d 04       		.uleb128 0x4
 1006 042e 04       		.byte	0x4
 1007 042f 07       		.byte	0x7
 1008 0430 59020000 		.4byte	.LASF66
 1009 0434 03       		.uleb128 0x3
 1010 0435 30020000 		.4byte	.LASF67
 1011 0439 0B       		.byte	0xb
 1012 043a 30       		.byte	0x30
 1013 043b 3F040000 		.4byte	0x43f
 1014 043f 05       		.uleb128 0x5
 1015 0440 30020000 		.4byte	.LASF67
 1016 0444 24       		.byte	0x24
 1017 0445 0B       		.byte	0xb
 1018 0446 3E       		.byte	0x3e
 1019 0447 AC040000 		.4byte	0x4ac
 1020 044b 06       		.uleb128 0x6
 1021 044c 89000000 		.4byte	.LASF68
 1022 0450 0B       		.byte	0xb
 1023 0451 3F       		.byte	0x3f
 1024 0452 49020000 		.4byte	0x249
 1025 0456 00       		.byte	0
 1026 0457 06       		.uleb128 0x6
ARM GAS  /tmp/ccAd5cZq.s 			page 19


 1027 0458 62020000 		.4byte	.LASF69
 1028 045c 0B       		.byte	0xb
 1029 045d 40       		.byte	0x40
 1030 045e 2C000000 		.4byte	0x2c
 1031 0462 08       		.byte	0x8
 1032 0463 06       		.uleb128 0x6
 1033 0464 04010000 		.4byte	.LASF70
 1034 0468 0B       		.byte	0xb
 1035 0469 41       		.byte	0x41
 1036 046a CE040000 		.4byte	0x4ce
 1037 046e 0C       		.byte	0xc
 1038 046f 06       		.uleb128 0x6
 1039 0470 53040000 		.4byte	.LASF71
 1040 0474 0B       		.byte	0xb
 1041 0475 42       		.byte	0x42
 1042 0476 CE040000 		.4byte	0x4ce
 1043 047a 10       		.byte	0x10
 1044 047b 06       		.uleb128 0x6
 1045 047c 0D010000 		.4byte	.LASF72
 1046 0480 0B       		.byte	0xb
 1047 0481 44       		.byte	0x44
 1048 0482 CE040000 		.4byte	0x4ce
 1049 0486 14       		.byte	0x14
 1050 0487 06       		.uleb128 0x6
 1051 0488 C3020000 		.4byte	.LASF73
 1052 048c 0B       		.byte	0xb
 1053 048d 45       		.byte	0x45
 1054 048e CE040000 		.4byte	0x4ce
 1055 0492 18       		.byte	0x18
 1056 0493 06       		.uleb128 0x6
 1057 0494 60040000 		.4byte	.LASF74
 1058 0498 0B       		.byte	0xb
 1059 0499 46       		.byte	0x46
 1060 049a AC040000 		.4byte	0x4ac
 1061 049e 1C       		.byte	0x1c
 1062 049f 06       		.uleb128 0x6
 1063 04a0 65050000 		.4byte	.LASF75
 1064 04a4 0B       		.byte	0xb
 1065 04a5 47       		.byte	0x47
 1066 04a6 7F020000 		.4byte	0x27f
 1067 04aa 20       		.byte	0x20
 1068 04ab 00       		.byte	0
 1069 04ac 03       		.uleb128 0x3
 1070 04ad AA020000 		.4byte	.LASF76
 1071 04b1 0B       		.byte	0xb
 1072 04b2 33       		.byte	0x33
 1073 04b3 B7040000 		.4byte	0x4b7
 1074 04b7 09       		.uleb128 0x9
 1075 04b8 04       		.byte	0x4
 1076 04b9 BD040000 		.4byte	0x4bd
 1077 04bd 11       		.uleb128 0x11
 1078 04be C8040000 		.4byte	0x4c8
 1079 04c2 10       		.uleb128 0x10
 1080 04c3 C8040000 		.4byte	0x4c8
 1081 04c7 00       		.byte	0
 1082 04c8 09       		.uleb128 0x9
 1083 04c9 04       		.byte	0x4
ARM GAS  /tmp/ccAd5cZq.s 			page 20


 1084 04ca 34040000 		.4byte	0x434
 1085 04ce 09       		.uleb128 0x9
 1086 04cf 04       		.byte	0x4
 1087 04d0 97000000 		.4byte	0x97
 1088 04d4 03       		.uleb128 0x3
 1089 04d5 1F020000 		.4byte	.LASF77
 1090 04d9 0B       		.byte	0xb
 1091 04da 7B       		.byte	0x7b
 1092 04db 34040000 		.4byte	0x434
 1093 04df 03       		.uleb128 0x3
 1094 04e0 2C000000 		.4byte	.LASF78
 1095 04e4 0B       		.byte	0xb
 1096 04e5 EE       		.byte	0xee
 1097 04e6 34040000 		.4byte	0x434
 1098 04ea 0F       		.uleb128 0xf
 1099 04eb 2C000000 		.4byte	0x2c
 1100 04ef 03050000 		.4byte	0x503
 1101 04f3 10       		.uleb128 0x10
 1102 04f4 7F020000 		.4byte	0x27f
 1103 04f8 10       		.uleb128 0x10
 1104 04f9 03050000 		.4byte	0x503
 1105 04fd 10       		.uleb128 0x10
 1106 04fe 2C000000 		.4byte	0x2c
 1107 0502 00       		.byte	0
 1108 0503 09       		.uleb128 0x9
 1109 0504 04       		.byte	0x4
 1110 0505 09050000 		.4byte	0x509
 1111 0509 0E       		.uleb128 0xe
 1112 050a 97000000 		.4byte	0x97
 1113 050e 09       		.uleb128 0x9
 1114 050f 04       		.byte	0x4
 1115 0510 EA040000 		.4byte	0x4ea
 1116 0514 0F       		.uleb128 0xf
 1117 0515 2C000000 		.4byte	0x2c
 1118 0519 2D050000 		.4byte	0x52d
 1119 051d 10       		.uleb128 0x10
 1120 051e 7F020000 		.4byte	0x27f
 1121 0522 10       		.uleb128 0x10
 1122 0523 CE040000 		.4byte	0x4ce
 1123 0527 10       		.uleb128 0x10
 1124 0528 2C000000 		.4byte	0x2c
 1125 052c 00       		.byte	0
 1126 052d 09       		.uleb128 0x9
 1127 052e 04       		.byte	0x4
 1128 052f 14050000 		.4byte	0x514
 1129 0533 0F       		.uleb128 0xf
 1130 0534 FA000000 		.4byte	0xfa
 1131 0538 47050000 		.4byte	0x547
 1132 053c 10       		.uleb128 0x10
 1133 053d 7F020000 		.4byte	0x27f
 1134 0541 10       		.uleb128 0x10
 1135 0542 97000000 		.4byte	0x97
 1136 0546 00       		.byte	0
 1137 0547 09       		.uleb128 0x9
 1138 0548 04       		.byte	0x4
 1139 0549 33050000 		.4byte	0x533
 1140 054d 0F       		.uleb128 0xf
ARM GAS  /tmp/ccAd5cZq.s 			page 21


 1141 054e FA000000 		.4byte	0xfa
 1142 0552 66050000 		.4byte	0x566
 1143 0556 10       		.uleb128 0x10
 1144 0557 7F020000 		.4byte	0x27f
 1145 055b 10       		.uleb128 0x10
 1146 055c 97000000 		.4byte	0x97
 1147 0560 10       		.uleb128 0x10
 1148 0561 1B010000 		.4byte	0x11b
 1149 0565 00       		.byte	0
 1150 0566 09       		.uleb128 0x9
 1151 0567 04       		.byte	0x4
 1152 0568 4D050000 		.4byte	0x54d
 1153 056c 0F       		.uleb128 0xf
 1154 056d FA000000 		.4byte	0xfa
 1155 0571 80050000 		.4byte	0x580
 1156 0575 10       		.uleb128 0x10
 1157 0576 7F020000 		.4byte	0x27f
 1158 057a 10       		.uleb128 0x10
 1159 057b 1B010000 		.4byte	0x11b
 1160 057f 00       		.byte	0
 1161 0580 09       		.uleb128 0x9
 1162 0581 04       		.byte	0x4
 1163 0582 6C050000 		.4byte	0x56c
 1164 0586 0F       		.uleb128 0xf
 1165 0587 2C000000 		.4byte	0x2c
 1166 058b A4050000 		.4byte	0x5a4
 1167 058f 10       		.uleb128 0x10
 1168 0590 7F020000 		.4byte	0x27f
 1169 0594 10       		.uleb128 0x10
 1170 0595 03050000 		.4byte	0x503
 1171 0599 10       		.uleb128 0x10
 1172 059a 2C000000 		.4byte	0x2c
 1173 059e 10       		.uleb128 0x10
 1174 059f 1B010000 		.4byte	0x11b
 1175 05a3 00       		.byte	0
 1176 05a4 09       		.uleb128 0x9
 1177 05a5 04       		.byte	0x4
 1178 05a6 86050000 		.4byte	0x586
 1179 05aa 0F       		.uleb128 0xf
 1180 05ab 2C000000 		.4byte	0x2c
 1181 05af C8050000 		.4byte	0x5c8
 1182 05b3 10       		.uleb128 0x10
 1183 05b4 7F020000 		.4byte	0x27f
 1184 05b8 10       		.uleb128 0x10
 1185 05b9 CE040000 		.4byte	0x4ce
 1186 05bd 10       		.uleb128 0x10
 1187 05be 2C000000 		.4byte	0x2c
 1188 05c2 10       		.uleb128 0x10
 1189 05c3 1B010000 		.4byte	0x11b
 1190 05c7 00       		.byte	0
 1191 05c8 09       		.uleb128 0x9
 1192 05c9 04       		.byte	0x4
 1193 05ca AA050000 		.4byte	0x5aa
 1194 05ce 12       		.uleb128 0x12
 1195 05cf 01       		.byte	0x1
 1196 05d0 0C       		.byte	0xc
 1197 05d1 5D       		.byte	0x5d
ARM GAS  /tmp/ccAd5cZq.s 			page 22


 1198 05d2 E9050000 		.4byte	0x5e9
 1199 05d6 13       		.uleb128 0x13
 1200 05d7 5E030000 		.4byte	.LASF79
 1201 05db 00       		.sleb128 0
 1202 05dc 13       		.uleb128 0x13
 1203 05dd AD000000 		.4byte	.LASF80
 1204 05e1 01       		.sleb128 1
 1205 05e2 13       		.uleb128 0x13
 1206 05e3 FB030000 		.4byte	.LASF81
 1207 05e7 02       		.sleb128 2
 1208 05e8 00       		.byte	0
 1209 05e9 03       		.uleb128 0x3
 1210 05ea 71030000 		.4byte	.LASF82
 1211 05ee 0C       		.byte	0xc
 1212 05ef 61       		.byte	0x61
 1213 05f0 CE050000 		.4byte	0x5ce
 1214 05f4 03       		.uleb128 0x3
 1215 05f5 7B030000 		.4byte	.LASF83
 1216 05f9 0C       		.byte	0xc
 1217 05fa 66       		.byte	0x66
 1218 05fb FF050000 		.4byte	0x5ff
 1219 05ff 05       		.uleb128 0x5
 1220 0600 7B030000 		.4byte	.LASF83
 1221 0604 74       		.byte	0x74
 1222 0605 0C       		.byte	0xc
 1223 0606 80       		.byte	0x80
 1224 0607 5E060000 		.4byte	0x65e
 1225 060b 07       		.uleb128 0x7
 1226 060c 766D7400 		.ascii	"vmt\000"
 1227 0610 0C       		.byte	0xc
 1228 0611 82       		.byte	0x82
 1229 0612 EB060000 		.4byte	0x6eb
 1230 0616 00       		.byte	0
 1231 0617 06       		.uleb128 0x6
 1232 0618 C2010000 		.4byte	.LASF84
 1233 061c 0C       		.byte	0xc
 1234 061d 83       		.byte	0x83
 1235 061e C0030000 		.4byte	0x3c0
 1236 0622 04       		.byte	0x4
 1237 0623 06       		.uleb128 0x6
 1238 0624 CE000000 		.4byte	.LASF85
 1239 0628 0C       		.byte	0xc
 1240 0629 83       		.byte	0x83
 1241 062a E9050000 		.4byte	0x5e9
 1242 062e 08       		.byte	0x8
 1243 062f 06       		.uleb128 0x6
 1244 0630 9C010000 		.4byte	.LASF86
 1245 0634 0C       		.byte	0xc
 1246 0635 83       		.byte	0x83
 1247 0636 D4040000 		.4byte	0x4d4
 1248 063a 0C       		.byte	0xc
 1249 063b 06       		.uleb128 0x6
 1250 063c E9010000 		.4byte	.LASF87
 1251 0640 0C       		.byte	0xc
 1252 0641 83       		.byte	0x83
 1253 0642 DF040000 		.4byte	0x4df
 1254 0646 30       		.byte	0x30
ARM GAS  /tmp/ccAd5cZq.s 			page 23


 1255 0647 07       		.uleb128 0x7
 1256 0648 696200   		.ascii	"ib\000"
 1257 064b 0C       		.byte	0xc
 1258 064c 83       		.byte	0x83
 1259 064d F6060000 		.4byte	0x6f6
 1260 0651 54       		.byte	0x54
 1261 0652 07       		.uleb128 0x7
 1262 0653 6F6200   		.ascii	"ob\000"
 1263 0656 0C       		.byte	0xc
 1264 0657 83       		.byte	0x83
 1265 0658 F6060000 		.4byte	0x6f6
 1266 065c 64       		.byte	0x64
 1267 065d 00       		.byte	0
 1268 065e 08       		.uleb128 0x8
 1269 065f 04       		.byte	0x4
 1270 0660 0D       		.byte	0xd
 1271 0661 42       		.byte	0x42
 1272 0662 73060000 		.4byte	0x673
 1273 0666 06       		.uleb128 0x6
 1274 0667 69000000 		.4byte	.LASF88
 1275 066b 0D       		.byte	0xd
 1276 066c 44       		.byte	0x44
 1277 066d AD000000 		.4byte	0xad
 1278 0671 00       		.byte	0
 1279 0672 00       		.byte	0
 1280 0673 03       		.uleb128 0x3
 1281 0674 95020000 		.4byte	.LASF89
 1282 0678 0D       		.byte	0xd
 1283 0679 45       		.byte	0x45
 1284 067a 5E060000 		.4byte	0x65e
 1285 067e 05       		.uleb128 0x5
 1286 067f 79010000 		.4byte	.LASF90
 1287 0683 20       		.byte	0x20
 1288 0684 0C       		.byte	0xc
 1289 0685 75       		.byte	0x75
 1290 0686 EB060000 		.4byte	0x6eb
 1291 068a 06       		.uleb128 0x6
 1292 068b 4E020000 		.4byte	.LASF91
 1293 068f 0C       		.byte	0xc
 1294 0690 76       		.byte	0x76
 1295 0691 0E050000 		.4byte	0x50e
 1296 0695 00       		.byte	0
 1297 0696 06       		.uleb128 0x6
 1298 0697 88030000 		.4byte	.LASF92
 1299 069b 0C       		.byte	0xc
 1300 069c 76       		.byte	0x76
 1301 069d 2D050000 		.4byte	0x52d
 1302 06a1 04       		.byte	0x4
 1303 06a2 07       		.uleb128 0x7
 1304 06a3 70757400 		.ascii	"put\000"
 1305 06a7 0C       		.byte	0xc
 1306 06a8 76       		.byte	0x76
 1307 06a9 47050000 		.4byte	0x547
 1308 06ad 08       		.byte	0x8
 1309 06ae 07       		.uleb128 0x7
 1310 06af 67657400 		.ascii	"get\000"
 1311 06b3 0C       		.byte	0xc
ARM GAS  /tmp/ccAd5cZq.s 			page 24


 1312 06b4 76       		.byte	0x76
 1313 06b5 18040000 		.4byte	0x418
 1314 06b9 0C       		.byte	0xc
 1315 06ba 06       		.uleb128 0x6
 1316 06bb 54020000 		.4byte	.LASF93
 1317 06bf 0C       		.byte	0xc
 1318 06c0 76       		.byte	0x76
 1319 06c1 66050000 		.4byte	0x566
 1320 06c5 10       		.byte	0x10
 1321 06c6 06       		.uleb128 0x6
 1322 06c7 BD010000 		.4byte	.LASF94
 1323 06cb 0C       		.byte	0xc
 1324 06cc 76       		.byte	0x76
 1325 06cd 80050000 		.4byte	0x580
 1326 06d1 14       		.byte	0x14
 1327 06d2 06       		.uleb128 0x6
 1328 06d3 F8010000 		.4byte	.LASF95
 1329 06d7 0C       		.byte	0xc
 1330 06d8 76       		.byte	0x76
 1331 06d9 A4050000 		.4byte	0x5a4
 1332 06dd 18       		.byte	0x18
 1333 06de 06       		.uleb128 0x6
 1334 06df 83000000 		.4byte	.LASF96
 1335 06e3 0C       		.byte	0xc
 1336 06e4 76       		.byte	0x76
 1337 06e5 C8050000 		.4byte	0x5c8
 1338 06e9 1C       		.byte	0x1c
 1339 06ea 00       		.byte	0
 1340 06eb 09       		.uleb128 0x9
 1341 06ec 04       		.byte	0x4
 1342 06ed F1060000 		.4byte	0x6f1
 1343 06f1 0E       		.uleb128 0xe
 1344 06f2 7E060000 		.4byte	0x67e
 1345 06f6 14       		.uleb128 0x14
 1346 06f7 97000000 		.4byte	0x97
 1347 06fb 06070000 		.4byte	0x706
 1348 06ff 15       		.uleb128 0x15
 1349 0700 2D040000 		.4byte	0x42d
 1350 0704 0F       		.byte	0xf
 1351 0705 00       		.byte	0
 1352 0706 16       		.uleb128 0x16
 1353 0707 83000000 		.4byte	.LASF96
 1354 070b 01       		.byte	0x1
 1355 070c 5C       		.byte	0x5c
 1356 070d 2C000000 		.4byte	0x2c
 1357 0711 00000000 		.4byte	.LFB14
 1358 0715 08000000 		.4byte	.LFE14-.LFB14
 1359 0719 01       		.uleb128 0x1
 1360 071a 9C       		.byte	0x9c
 1361 071b 80070000 		.4byte	0x780
 1362 071f 17       		.uleb128 0x17
 1363 0720 697000   		.ascii	"ip\000"
 1364 0723 01       		.byte	0x1
 1365 0724 5C       		.byte	0x5c
 1366 0725 7F020000 		.4byte	0x27f
 1367 0729 00000000 		.4byte	.LLST0
 1368 072d 17       		.uleb128 0x17
ARM GAS  /tmp/ccAd5cZq.s 			page 25


 1369 072e 627000   		.ascii	"bp\000"
 1370 0731 01       		.byte	0x1
 1371 0732 5C       		.byte	0x5c
 1372 0733 CE040000 		.4byte	0x4ce
 1373 0737 2E000000 		.4byte	.LLST1
 1374 073b 17       		.uleb128 0x17
 1375 073c 6E00     		.ascii	"n\000"
 1376 073e 01       		.byte	0x1
 1377 073f 5C       		.byte	0x5c
 1378 0740 2C000000 		.4byte	0x2c
 1379 0744 4F000000 		.4byte	.LLST2
 1380 0748 18       		.uleb128 0x18
 1381 0749 88020000 		.4byte	.LASF97
 1382 074d 01       		.byte	0x1
 1383 074e 5C       		.byte	0x5c
 1384 074f 1B010000 		.4byte	0x11b
 1385 0753 70000000 		.4byte	.LLST3
 1386 0757 19       		.uleb128 0x19
 1387 0758 08000000 		.4byte	.LVL2
 1388 075c 700C0000 		.4byte	0xc70
 1389 0760 1A       		.uleb128 0x1a
 1390 0761 01       		.uleb128 0x1
 1391 0762 53       		.byte	0x53
 1392 0763 03       		.uleb128 0x3
 1393 0764 F3       		.byte	0xf3
 1394 0765 01       		.uleb128 0x1
 1395 0766 53       		.byte	0x53
 1396 0767 1A       		.uleb128 0x1a
 1397 0768 01       		.uleb128 0x1
 1398 0769 52       		.byte	0x52
 1399 076a 03       		.uleb128 0x3
 1400 076b F3       		.byte	0xf3
 1401 076c 01       		.uleb128 0x1
 1402 076d 52       		.byte	0x52
 1403 076e 1A       		.uleb128 0x1a
 1404 076f 01       		.uleb128 0x1
 1405 0770 51       		.byte	0x51
 1406 0771 03       		.uleb128 0x3
 1407 0772 F3       		.byte	0xf3
 1408 0773 01       		.uleb128 0x1
 1409 0774 51       		.byte	0x51
 1410 0775 1A       		.uleb128 0x1a
 1411 0776 01       		.uleb128 0x1
 1412 0777 50       		.byte	0x50
 1413 0778 05       		.uleb128 0x5
 1414 0779 F3       		.byte	0xf3
 1415 077a 01       		.uleb128 0x1
 1416 077b 50       		.byte	0x50
 1417 077c 23       		.byte	0x23
 1418 077d 0C       		.uleb128 0xc
 1419 077e 00       		.byte	0
 1420 077f 00       		.byte	0
 1421 0780 16       		.uleb128 0x16
 1422 0781 88030000 		.4byte	.LASF92
 1423 0785 01       		.byte	0x1
 1424 0786 3D       		.byte	0x3d
 1425 0787 2C000000 		.4byte	0x2c
ARM GAS  /tmp/ccAd5cZq.s 			page 26


 1426 078b 00000000 		.4byte	.LFB8
 1427 078f 0C000000 		.4byte	.LFE8-.LFB8
 1428 0793 01       		.uleb128 0x1
 1429 0794 9C       		.byte	0x9c
 1430 0795 EA070000 		.4byte	0x7ea
 1431 0799 17       		.uleb128 0x17
 1432 079a 697000   		.ascii	"ip\000"
 1433 079d 01       		.byte	0x1
 1434 079e 3D       		.byte	0x3d
 1435 079f 7F020000 		.4byte	0x27f
 1436 07a3 91000000 		.4byte	.LLST4
 1437 07a7 17       		.uleb128 0x17
 1438 07a8 627000   		.ascii	"bp\000"
 1439 07ab 01       		.byte	0x1
 1440 07ac 3D       		.byte	0x3d
 1441 07ad CE040000 		.4byte	0x4ce
 1442 07b1 BF000000 		.4byte	.LLST5
 1443 07b5 17       		.uleb128 0x17
 1444 07b6 6E00     		.ascii	"n\000"
 1445 07b8 01       		.byte	0x1
 1446 07b9 3D       		.byte	0x3d
 1447 07ba 2C000000 		.4byte	0x2c
 1448 07be E0000000 		.4byte	.LLST6
 1449 07c2 19       		.uleb128 0x19
 1450 07c3 0C000000 		.4byte	.LVL5
 1451 07c7 700C0000 		.4byte	0xc70
 1452 07cb 1A       		.uleb128 0x1a
 1453 07cc 01       		.uleb128 0x1
 1454 07cd 53       		.byte	0x53
 1455 07ce 02       		.uleb128 0x2
 1456 07cf 09       		.byte	0x9
 1457 07d0 FF       		.byte	0xff
 1458 07d1 1A       		.uleb128 0x1a
 1459 07d2 01       		.uleb128 0x1
 1460 07d3 52       		.byte	0x52
 1461 07d4 03       		.uleb128 0x3
 1462 07d5 F3       		.byte	0xf3
 1463 07d6 01       		.uleb128 0x1
 1464 07d7 52       		.byte	0x52
 1465 07d8 1A       		.uleb128 0x1a
 1466 07d9 01       		.uleb128 0x1
 1467 07da 51       		.byte	0x51
 1468 07db 03       		.uleb128 0x3
 1469 07dc F3       		.byte	0xf3
 1470 07dd 01       		.uleb128 0x1
 1471 07de 51       		.byte	0x51
 1472 07df 1A       		.uleb128 0x1a
 1473 07e0 01       		.uleb128 0x1
 1474 07e1 50       		.byte	0x50
 1475 07e2 05       		.uleb128 0x5
 1476 07e3 F3       		.byte	0xf3
 1477 07e4 01       		.uleb128 0x1
 1478 07e5 50       		.byte	0x50
 1479 07e6 23       		.byte	0x23
 1480 07e7 0C       		.uleb128 0xc
 1481 07e8 00       		.byte	0
 1482 07e9 00       		.byte	0
ARM GAS  /tmp/ccAd5cZq.s 			page 27


 1483 07ea 16       		.uleb128 0x16
 1484 07eb F8010000 		.4byte	.LASF95
 1485 07ef 01       		.byte	0x1
 1486 07f0 57       		.byte	0x57
 1487 07f1 2C000000 		.4byte	0x2c
 1488 07f5 00000000 		.4byte	.LFB13
 1489 07f9 08000000 		.4byte	.LFE13-.LFB13
 1490 07fd 01       		.uleb128 0x1
 1491 07fe 9C       		.byte	0x9c
 1492 07ff 64080000 		.4byte	0x864
 1493 0803 17       		.uleb128 0x17
 1494 0804 697000   		.ascii	"ip\000"
 1495 0807 01       		.byte	0x1
 1496 0808 57       		.byte	0x57
 1497 0809 7F020000 		.4byte	0x27f
 1498 080d 01010000 		.4byte	.LLST7
 1499 0811 17       		.uleb128 0x17
 1500 0812 627000   		.ascii	"bp\000"
 1501 0815 01       		.byte	0x1
 1502 0816 57       		.byte	0x57
 1503 0817 03050000 		.4byte	0x503
 1504 081b 2F010000 		.4byte	.LLST8
 1505 081f 17       		.uleb128 0x17
 1506 0820 6E00     		.ascii	"n\000"
 1507 0822 01       		.byte	0x1
 1508 0823 57       		.byte	0x57
 1509 0824 2C000000 		.4byte	0x2c
 1510 0828 50010000 		.4byte	.LLST9
 1511 082c 18       		.uleb128 0x18
 1512 082d 88020000 		.4byte	.LASF97
 1513 0831 01       		.byte	0x1
 1514 0832 57       		.byte	0x57
 1515 0833 1B010000 		.4byte	0x11b
 1516 0837 71010000 		.4byte	.LLST10
 1517 083b 19       		.uleb128 0x19
 1518 083c 08000000 		.4byte	.LVL8
 1519 0840 9B0C0000 		.4byte	0xc9b
 1520 0844 1A       		.uleb128 0x1a
 1521 0845 01       		.uleb128 0x1
 1522 0846 53       		.byte	0x53
 1523 0847 03       		.uleb128 0x3
 1524 0848 F3       		.byte	0xf3
 1525 0849 01       		.uleb128 0x1
 1526 084a 53       		.byte	0x53
 1527 084b 1A       		.uleb128 0x1a
 1528 084c 01       		.uleb128 0x1
 1529 084d 52       		.byte	0x52
 1530 084e 03       		.uleb128 0x3
 1531 084f F3       		.byte	0xf3
 1532 0850 01       		.uleb128 0x1
 1533 0851 52       		.byte	0x52
 1534 0852 1A       		.uleb128 0x1a
 1535 0853 01       		.uleb128 0x1
 1536 0854 51       		.byte	0x51
 1537 0855 03       		.uleb128 0x3
 1538 0856 F3       		.byte	0xf3
 1539 0857 01       		.uleb128 0x1
ARM GAS  /tmp/ccAd5cZq.s 			page 28


 1540 0858 51       		.byte	0x51
 1541 0859 1A       		.uleb128 0x1a
 1542 085a 01       		.uleb128 0x1
 1543 085b 50       		.byte	0x50
 1544 085c 05       		.uleb128 0x5
 1545 085d F3       		.byte	0xf3
 1546 085e 01       		.uleb128 0x1
 1547 085f 50       		.byte	0x50
 1548 0860 23       		.byte	0x23
 1549 0861 30       		.uleb128 0x30
 1550 0862 00       		.byte	0
 1551 0863 00       		.byte	0
 1552 0864 16       		.uleb128 0x16
 1553 0865 4E020000 		.4byte	.LASF91
 1554 0869 01       		.byte	0x1
 1555 086a 37       		.byte	0x37
 1556 086b 2C000000 		.4byte	0x2c
 1557 086f 00000000 		.4byte	.LFB7
 1558 0873 0C000000 		.4byte	.LFE7-.LFB7
 1559 0877 01       		.uleb128 0x1
 1560 0878 9C       		.byte	0x9c
 1561 0879 CE080000 		.4byte	0x8ce
 1562 087d 17       		.uleb128 0x17
 1563 087e 697000   		.ascii	"ip\000"
 1564 0881 01       		.byte	0x1
 1565 0882 37       		.byte	0x37
 1566 0883 7F020000 		.4byte	0x27f
 1567 0887 92010000 		.4byte	.LLST11
 1568 088b 17       		.uleb128 0x17
 1569 088c 627000   		.ascii	"bp\000"
 1570 088f 01       		.byte	0x1
 1571 0890 37       		.byte	0x37
 1572 0891 03050000 		.4byte	0x503
 1573 0895 C0010000 		.4byte	.LLST12
 1574 0899 17       		.uleb128 0x17
 1575 089a 6E00     		.ascii	"n\000"
 1576 089c 01       		.byte	0x1
 1577 089d 37       		.byte	0x37
 1578 089e 2C000000 		.4byte	0x2c
 1579 08a2 E1010000 		.4byte	.LLST13
 1580 08a6 19       		.uleb128 0x19
 1581 08a7 0C000000 		.4byte	.LVL11
 1582 08ab 9B0C0000 		.4byte	0xc9b
 1583 08af 1A       		.uleb128 0x1a
 1584 08b0 01       		.uleb128 0x1
 1585 08b1 53       		.byte	0x53
 1586 08b2 02       		.uleb128 0x2
 1587 08b3 09       		.byte	0x9
 1588 08b4 FF       		.byte	0xff
 1589 08b5 1A       		.uleb128 0x1a
 1590 08b6 01       		.uleb128 0x1
 1591 08b7 52       		.byte	0x52
 1592 08b8 03       		.uleb128 0x3
 1593 08b9 F3       		.byte	0xf3
 1594 08ba 01       		.uleb128 0x1
 1595 08bb 52       		.byte	0x52
 1596 08bc 1A       		.uleb128 0x1a
ARM GAS  /tmp/ccAd5cZq.s 			page 29


 1597 08bd 01       		.uleb128 0x1
 1598 08be 51       		.byte	0x51
 1599 08bf 03       		.uleb128 0x3
 1600 08c0 F3       		.byte	0xf3
 1601 08c1 01       		.uleb128 0x1
 1602 08c2 51       		.byte	0x51
 1603 08c3 1A       		.uleb128 0x1a
 1604 08c4 01       		.uleb128 0x1
 1605 08c5 50       		.byte	0x50
 1606 08c6 05       		.uleb128 0x5
 1607 08c7 F3       		.byte	0xf3
 1608 08c8 01       		.uleb128 0x1
 1609 08c9 50       		.byte	0x50
 1610 08ca 23       		.byte	0x23
 1611 08cb 30       		.uleb128 0x30
 1612 08cc 00       		.byte	0
 1613 08cd 00       		.byte	0
 1614 08ce 16       		.uleb128 0x16
 1615 08cf BD010000 		.4byte	.LASF94
 1616 08d3 01       		.byte	0x1
 1617 08d4 52       		.byte	0x52
 1618 08d5 FA000000 		.4byte	0xfa
 1619 08d9 00000000 		.4byte	.LFB12
 1620 08dd 08000000 		.4byte	.LFE12-.LFB12
 1621 08e1 01       		.uleb128 0x1
 1622 08e2 9C       		.byte	0x9c
 1623 08e3 1F090000 		.4byte	0x91f
 1624 08e7 17       		.uleb128 0x17
 1625 08e8 697000   		.ascii	"ip\000"
 1626 08eb 01       		.byte	0x1
 1627 08ec 52       		.byte	0x52
 1628 08ed 7F020000 		.4byte	0x27f
 1629 08f1 02020000 		.4byte	.LLST14
 1630 08f5 18       		.uleb128 0x18
 1631 08f6 B5010000 		.4byte	.LASF98
 1632 08fa 01       		.byte	0x1
 1633 08fb 52       		.byte	0x52
 1634 08fc 1B010000 		.4byte	0x11b
 1635 0900 30020000 		.4byte	.LLST15
 1636 0904 19       		.uleb128 0x19
 1637 0905 08000000 		.4byte	.LVL14
 1638 0909 C60C0000 		.4byte	0xcc6
 1639 090d 1A       		.uleb128 0x1a
 1640 090e 01       		.uleb128 0x1
 1641 090f 51       		.byte	0x51
 1642 0910 03       		.uleb128 0x3
 1643 0911 F3       		.byte	0xf3
 1644 0912 01       		.uleb128 0x1
 1645 0913 51       		.byte	0x51
 1646 0914 1A       		.uleb128 0x1a
 1647 0915 01       		.uleb128 0x1
 1648 0916 50       		.byte	0x50
 1649 0917 05       		.uleb128 0x5
 1650 0918 F3       		.byte	0xf3
 1651 0919 01       		.uleb128 0x1
 1652 091a 50       		.byte	0x50
 1653 091b 23       		.byte	0x23
ARM GAS  /tmp/ccAd5cZq.s 			page 30


 1654 091c 0C       		.uleb128 0xc
 1655 091d 00       		.byte	0
 1656 091e 00       		.byte	0
 1657 091f 1B       		.uleb128 0x1b
 1658 0920 67657400 		.ascii	"get\000"
 1659 0924 01       		.byte	0x1
 1660 0925 48       		.byte	0x48
 1661 0926 FA000000 		.4byte	0xfa
 1662 092a 00000000 		.4byte	.LFB10
 1663 092e 0C000000 		.4byte	.LFE10-.LFB10
 1664 0932 01       		.uleb128 0x1
 1665 0933 9C       		.byte	0x9c
 1666 0934 60090000 		.4byte	0x960
 1667 0938 17       		.uleb128 0x17
 1668 0939 697000   		.ascii	"ip\000"
 1669 093c 01       		.byte	0x1
 1670 093d 48       		.byte	0x48
 1671 093e 7F020000 		.4byte	0x27f
 1672 0942 51020000 		.4byte	.LLST16
 1673 0946 19       		.uleb128 0x19
 1674 0947 0C000000 		.4byte	.LVL17
 1675 094b C60C0000 		.4byte	0xcc6
 1676 094f 1A       		.uleb128 0x1a
 1677 0950 01       		.uleb128 0x1
 1678 0951 51       		.byte	0x51
 1679 0952 02       		.uleb128 0x2
 1680 0953 09       		.byte	0x9
 1681 0954 FF       		.byte	0xff
 1682 0955 1A       		.uleb128 0x1a
 1683 0956 01       		.uleb128 0x1
 1684 0957 50       		.byte	0x50
 1685 0958 05       		.uleb128 0x5
 1686 0959 F3       		.byte	0xf3
 1687 095a 01       		.uleb128 0x1
 1688 095b 50       		.byte	0x50
 1689 095c 23       		.byte	0x23
 1690 095d 0C       		.uleb128 0xc
 1691 095e 00       		.byte	0
 1692 095f 00       		.byte	0
 1693 0960 16       		.uleb128 0x16
 1694 0961 54020000 		.4byte	.LASF93
 1695 0965 01       		.byte	0x1
 1696 0966 4D       		.byte	0x4d
 1697 0967 FA000000 		.4byte	0xfa
 1698 096b 00000000 		.4byte	.LFB11
 1699 096f 08000000 		.4byte	.LFE11-.LFB11
 1700 0973 01       		.uleb128 0x1
 1701 0974 9C       		.byte	0x9c
 1702 0975 BE090000 		.4byte	0x9be
 1703 0979 17       		.uleb128 0x17
 1704 097a 697000   		.ascii	"ip\000"
 1705 097d 01       		.byte	0x1
 1706 097e 4D       		.byte	0x4d
 1707 097f 7F020000 		.4byte	0x27f
 1708 0983 7F020000 		.4byte	.LLST17
 1709 0987 17       		.uleb128 0x17
 1710 0988 6200     		.ascii	"b\000"
ARM GAS  /tmp/ccAd5cZq.s 			page 31


 1711 098a 01       		.byte	0x1
 1712 098b 4D       		.byte	0x4d
 1713 098c 97000000 		.4byte	0x97
 1714 0990 AD020000 		.4byte	.LLST18
 1715 0994 18       		.uleb128 0x18
 1716 0995 B5010000 		.4byte	.LASF98
 1717 0999 01       		.byte	0x1
 1718 099a 4D       		.byte	0x4d
 1719 099b 1B010000 		.4byte	0x11b
 1720 099f CE020000 		.4byte	.LLST19
 1721 09a3 19       		.uleb128 0x19
 1722 09a4 08000000 		.4byte	.LVL20
 1723 09a8 E10C0000 		.4byte	0xce1
 1724 09ac 1A       		.uleb128 0x1a
 1725 09ad 01       		.uleb128 0x1
 1726 09ae 52       		.byte	0x52
 1727 09af 03       		.uleb128 0x3
 1728 09b0 F3       		.byte	0xf3
 1729 09b1 01       		.uleb128 0x1
 1730 09b2 52       		.byte	0x52
 1731 09b3 1A       		.uleb128 0x1a
 1732 09b4 01       		.uleb128 0x1
 1733 09b5 50       		.byte	0x50
 1734 09b6 05       		.uleb128 0x5
 1735 09b7 F3       		.byte	0xf3
 1736 09b8 01       		.uleb128 0x1
 1737 09b9 50       		.byte	0x50
 1738 09ba 23       		.byte	0x23
 1739 09bb 30       		.uleb128 0x30
 1740 09bc 00       		.byte	0
 1741 09bd 00       		.byte	0
 1742 09be 1B       		.uleb128 0x1b
 1743 09bf 70757400 		.ascii	"put\000"
 1744 09c3 01       		.byte	0x1
 1745 09c4 43       		.byte	0x43
 1746 09c5 FA000000 		.4byte	0xfa
 1747 09c9 00000000 		.4byte	.LFB9
 1748 09cd 0C000000 		.4byte	.LFE9-.LFB9
 1749 09d1 01       		.uleb128 0x1
 1750 09d2 9C       		.byte	0x9c
 1751 09d3 0C0A0000 		.4byte	0xa0c
 1752 09d7 17       		.uleb128 0x17
 1753 09d8 697000   		.ascii	"ip\000"
 1754 09db 01       		.byte	0x1
 1755 09dc 43       		.byte	0x43
 1756 09dd 7F020000 		.4byte	0x27f
 1757 09e1 EF020000 		.4byte	.LLST20
 1758 09e5 17       		.uleb128 0x17
 1759 09e6 6200     		.ascii	"b\000"
 1760 09e8 01       		.byte	0x1
 1761 09e9 43       		.byte	0x43
 1762 09ea 97000000 		.4byte	0x97
 1763 09ee 1D030000 		.4byte	.LLST21
 1764 09f2 19       		.uleb128 0x19
 1765 09f3 0C000000 		.4byte	.LVL23
 1766 09f7 E10C0000 		.4byte	0xce1
 1767 09fb 1A       		.uleb128 0x1a
ARM GAS  /tmp/ccAd5cZq.s 			page 32


 1768 09fc 01       		.uleb128 0x1
 1769 09fd 52       		.byte	0x52
 1770 09fe 02       		.uleb128 0x2
 1771 09ff 09       		.byte	0x9
 1772 0a00 FF       		.byte	0xff
 1773 0a01 1A       		.uleb128 0x1a
 1774 0a02 01       		.uleb128 0x1
 1775 0a03 50       		.byte	0x50
 1776 0a04 05       		.uleb128 0x5
 1777 0a05 F3       		.byte	0xf3
 1778 0a06 01       		.uleb128 0x1
 1779 0a07 50       		.byte	0x50
 1780 0a08 23       		.byte	0x23
 1781 0a09 30       		.uleb128 0x30
 1782 0a0a 00       		.byte	0
 1783 0a0b 00       		.byte	0
 1784 0a0c 1C       		.uleb128 0x1c
 1785 0a0d 5E050000 		.4byte	.LASF99
 1786 0a11 01       		.byte	0x1
 1787 0a12 71       		.byte	0x71
 1788 0a13 00000000 		.4byte	.LFB15
 1789 0a17 04000000 		.4byte	.LFE15-.LFB15
 1790 0a1b 01       		.uleb128 0x1
 1791 0a1c 9C       		.byte	0x9c
 1792 0a1d 2B0A0000 		.4byte	0xa2b
 1793 0a21 1D       		.uleb128 0x1d
 1794 0a22 04000000 		.4byte	.LVL24
 1795 0a26 010D0000 		.4byte	0xd01
 1796 0a2a 00       		.byte	0
 1797 0a2b 1C       		.uleb128 0x1c
 1798 0a2c 29030000 		.4byte	.LASF100
 1799 0a30 01       		.byte	0x1
 1800 0a31 85       		.byte	0x85
 1801 0a32 00000000 		.4byte	.LFB16
 1802 0a36 60000000 		.4byte	.LFE16-.LFB16
 1803 0a3a 01       		.uleb128 0x1
 1804 0a3b 9C       		.byte	0x9c
 1805 0a3c BE0A0000 		.4byte	0xabe
 1806 0a40 17       		.uleb128 0x17
 1807 0a41 73647000 		.ascii	"sdp\000"
 1808 0a45 01       		.byte	0x1
 1809 0a46 85       		.byte	0x85
 1810 0a47 BE0A0000 		.4byte	0xabe
 1811 0a4b 3E030000 		.4byte	.LLST22
 1812 0a4f 18       		.uleb128 0x18
 1813 0a50 94010000 		.4byte	.LASF101
 1814 0a54 01       		.byte	0x1
 1815 0a55 85       		.byte	0x85
 1816 0a56 AC040000 		.4byte	0x4ac
 1817 0a5a 6A030000 		.4byte	.LLST23
 1818 0a5e 18       		.uleb128 0x18
 1819 0a5f 9A040000 		.4byte	.LASF102
 1820 0a63 01       		.byte	0x1
 1821 0a64 85       		.byte	0x85
 1822 0a65 AC040000 		.4byte	0x4ac
 1823 0a69 96030000 		.4byte	.LLST24
 1824 0a6d 1E       		.uleb128 0x1e
ARM GAS  /tmp/ccAd5cZq.s 			page 33


 1825 0a6e 3C000000 		.4byte	.LVL29
 1826 0a72 080D0000 		.4byte	0xd08
 1827 0a76 940A0000 		.4byte	0xa94
 1828 0a7a 1A       		.uleb128 0x1a
 1829 0a7b 01       		.uleb128 0x1
 1830 0a7c 53       		.byte	0x53
 1831 0a7d 03       		.uleb128 0x3
 1832 0a7e F3       		.byte	0xf3
 1833 0a7f 01       		.uleb128 0x1
 1834 0a80 51       		.byte	0x51
 1835 0a81 1A       		.uleb128 0x1a
 1836 0a82 01       		.uleb128 0x1
 1837 0a83 52       		.byte	0x52
 1838 0a84 01       		.uleb128 0x1
 1839 0a85 40       		.byte	0x40
 1840 0a86 1A       		.uleb128 0x1a
 1841 0a87 01       		.uleb128 0x1
 1842 0a88 51       		.byte	0x51
 1843 0a89 03       		.uleb128 0x3
 1844 0a8a 74       		.byte	0x74
 1845 0a8b D400     		.sleb128 84
 1846 0a8d 1A       		.uleb128 0x1a
 1847 0a8e 01       		.uleb128 0x1
 1848 0a8f 50       		.byte	0x50
 1849 0a90 02       		.uleb128 0x2
 1850 0a91 74       		.byte	0x74
 1851 0a92 0C       		.sleb128 12
 1852 0a93 00       		.byte	0
 1853 0a94 1F       		.uleb128 0x1f
 1854 0a95 54000000 		.4byte	.LVL30
 1855 0a99 2E0D0000 		.4byte	0xd2e
 1856 0a9d 1A       		.uleb128 0x1a
 1857 0a9e 01       		.uleb128 0x1
 1858 0a9f 53       		.byte	0x53
 1859 0aa0 02       		.uleb128 0x2
 1860 0aa1 75       		.byte	0x75
 1861 0aa2 00       		.sleb128 0
 1862 0aa3 1A       		.uleb128 0x1a
 1863 0aa4 01       		.uleb128 0x1
 1864 0aa5 52       		.byte	0x52
 1865 0aa6 01       		.uleb128 0x1
 1866 0aa7 40       		.byte	0x40
 1867 0aa8 1A       		.uleb128 0x1a
 1868 0aa9 01       		.uleb128 0x1
 1869 0aaa 51       		.byte	0x51
 1870 0aab 03       		.uleb128 0x3
 1871 0aac 74       		.byte	0x74
 1872 0aad E400     		.sleb128 100
 1873 0aaf 1A       		.uleb128 0x1a
 1874 0ab0 01       		.uleb128 0x1
 1875 0ab1 50       		.byte	0x50
 1876 0ab2 02       		.uleb128 0x2
 1877 0ab3 74       		.byte	0x74
 1878 0ab4 30       		.sleb128 48
 1879 0ab5 1A       		.uleb128 0x1a
 1880 0ab6 02       		.uleb128 0x2
 1881 0ab7 7D       		.byte	0x7d
ARM GAS  /tmp/ccAd5cZq.s 			page 34


 1882 0ab8 00       		.sleb128 0
 1883 0ab9 02       		.uleb128 0x2
 1884 0aba 74       		.byte	0x74
 1885 0abb 00       		.sleb128 0
 1886 0abc 00       		.byte	0
 1887 0abd 00       		.byte	0
 1888 0abe 09       		.uleb128 0x9
 1889 0abf 04       		.byte	0x4
 1890 0ac0 F4050000 		.4byte	0x5f4
 1891 0ac4 1C       		.uleb128 0x1c
 1892 0ac5 A9030000 		.4byte	.LASF103
 1893 0ac9 01       		.byte	0x1
 1894 0aca 98       		.byte	0x98
 1895 0acb 00000000 		.4byte	.LFB17
 1896 0acf 20000000 		.4byte	.LFE17-.LFB17
 1897 0ad3 01       		.uleb128 0x1
 1898 0ad4 9C       		.byte	0x9c
 1899 0ad5 0F0B0000 		.4byte	0xb0f
 1900 0ad9 17       		.uleb128 0x17
 1901 0ada 73647000 		.ascii	"sdp\000"
 1902 0ade 01       		.byte	0x1
 1903 0adf 98       		.byte	0x98
 1904 0ae0 BE0A0000 		.4byte	0xabe
 1905 0ae4 C2030000 		.4byte	.LLST25
 1906 0ae8 18       		.uleb128 0x18
 1907 0ae9 A2030000 		.4byte	.LASF104
 1908 0aed 01       		.byte	0x1
 1909 0aee 98       		.byte	0x98
 1910 0aef 0F0B0000 		.4byte	0xb0f
 1911 0af3 E0030000 		.4byte	.LLST26
 1912 0af7 1F       		.uleb128 0x1f
 1913 0af8 10000000 		.4byte	.LVL33
 1914 0afc 540D0000 		.4byte	0xd54
 1915 0b00 1A       		.uleb128 0x1a
 1916 0b01 01       		.uleb128 0x1
 1917 0b02 51       		.byte	0x51
 1918 0b03 03       		.uleb128 0x3
 1919 0b04 F3       		.byte	0xf3
 1920 0b05 01       		.uleb128 0x1
 1921 0b06 51       		.byte	0x51
 1922 0b07 1A       		.uleb128 0x1a
 1923 0b08 01       		.uleb128 0x1
 1924 0b09 50       		.byte	0x50
 1925 0b0a 02       		.uleb128 0x2
 1926 0b0b 74       		.byte	0x74
 1927 0b0c 00       		.sleb128 0
 1928 0b0d 00       		.byte	0
 1929 0b0e 00       		.byte	0
 1930 0b0f 09       		.uleb128 0x9
 1931 0b10 04       		.byte	0x4
 1932 0b11 150B0000 		.4byte	0xb15
 1933 0b15 0E       		.uleb128 0xe
 1934 0b16 73060000 		.4byte	0x673
 1935 0b1a 1C       		.uleb128 0x1c
 1936 0b1b 81020000 		.4byte	.LASF105
 1937 0b1f 01       		.byte	0x1
 1938 0b20 AE       		.byte	0xae
ARM GAS  /tmp/ccAd5cZq.s 			page 35


 1939 0b21 00000000 		.4byte	.LFB18
 1940 0b25 34000000 		.4byte	.LFE18-.LFB18
 1941 0b29 01       		.uleb128 0x1
 1942 0b2a 9C       		.byte	0x9c
 1943 0b2b 840B0000 		.4byte	0xb84
 1944 0b2f 17       		.uleb128 0x17
 1945 0b30 73647000 		.ascii	"sdp\000"
 1946 0b34 01       		.byte	0x1
 1947 0b35 AE       		.byte	0xae
 1948 0b36 BE0A0000 		.4byte	0xabe
 1949 0b3a 01040000 		.4byte	.LLST27
 1950 0b3e 1E       		.uleb128 0x1e
 1951 0b3f 10000000 		.4byte	.LVL35
 1952 0b43 6A0D0000 		.4byte	0xd6a
 1953 0b47 520B0000 		.4byte	0xb52
 1954 0b4b 1A       		.uleb128 0x1a
 1955 0b4c 01       		.uleb128 0x1
 1956 0b4d 50       		.byte	0x50
 1957 0b4e 02       		.uleb128 0x2
 1958 0b4f 74       		.byte	0x74
 1959 0b50 00       		.sleb128 0
 1960 0b51 00       		.byte	0
 1961 0b52 1E       		.uleb128 0x1e
 1962 0b53 20000000 		.4byte	.LVL36
 1963 0b57 7B0D0000 		.4byte	0xd7b
 1964 0b5b 660B0000 		.4byte	0xb66
 1965 0b5f 1A       		.uleb128 0x1a
 1966 0b60 01       		.uleb128 0x1
 1967 0b61 50       		.byte	0x50
 1968 0b62 02       		.uleb128 0x2
 1969 0b63 74       		.byte	0x74
 1970 0b64 30       		.sleb128 48
 1971 0b65 00       		.byte	0
 1972 0b66 1E       		.uleb128 0x1e
 1973 0b67 28000000 		.4byte	.LVL37
 1974 0b6b 8D0D0000 		.4byte	0xd8d
 1975 0b6f 7A0B0000 		.4byte	0xb7a
 1976 0b73 1A       		.uleb128 0x1a
 1977 0b74 01       		.uleb128 0x1
 1978 0b75 50       		.byte	0x50
 1979 0b76 02       		.uleb128 0x2
 1980 0b77 74       		.byte	0x74
 1981 0b78 0C       		.sleb128 12
 1982 0b79 00       		.byte	0
 1983 0b7a 20       		.uleb128 0x20
 1984 0b7b 2C000000 		.4byte	.LVL38
 1985 0b7f 9F0D0000 		.4byte	0xd9f
 1986 0b83 00       		.byte	0
 1987 0b84 1C       		.uleb128 0x1c
 1988 0b85 92030000 		.4byte	.LASF106
 1989 0b89 01       		.byte	0x1
 1990 0b8a CE       		.byte	0xce
 1991 0b8b 00000000 		.4byte	.LFB19
 1992 0b8f 4C000000 		.4byte	.LFE19-.LFB19
 1993 0b93 01       		.uleb128 0x1
 1994 0b94 9C       		.byte	0x9c
 1995 0b95 020C0000 		.4byte	0xc02
ARM GAS  /tmp/ccAd5cZq.s 			page 36


 1996 0b99 17       		.uleb128 0x17
 1997 0b9a 73647000 		.ascii	"sdp\000"
 1998 0b9e 01       		.byte	0x1
 1999 0b9f CE       		.byte	0xce
 2000 0ba0 BE0A0000 		.4byte	0xabe
 2001 0ba4 1F040000 		.4byte	.LLST28
 2002 0ba8 17       		.uleb128 0x17
 2003 0ba9 6200     		.ascii	"b\000"
 2004 0bab 01       		.byte	0x1
 2005 0bac CE       		.byte	0xce
 2006 0bad 97000000 		.4byte	0x97
 2007 0bb1 6E040000 		.4byte	.LLST29
 2008 0bb5 1E       		.uleb128 0x1e
 2009 0bb6 24000000 		.4byte	.LVL41
 2010 0bba A60D0000 		.4byte	0xda6
 2011 0bbe CF0B0000 		.4byte	0xbcf
 2012 0bc2 1A       		.uleb128 0x1a
 2013 0bc3 01       		.uleb128 0x1
 2014 0bc4 51       		.byte	0x51
 2015 0bc5 02       		.uleb128 0x2
 2016 0bc6 75       		.byte	0x75
 2017 0bc7 00       		.sleb128 0
 2018 0bc8 1A       		.uleb128 0x1a
 2019 0bc9 01       		.uleb128 0x1
 2020 0bca 50       		.byte	0x50
 2021 0bcb 02       		.uleb128 0x2
 2022 0bcc 74       		.byte	0x74
 2023 0bcd 0C       		.sleb128 12
 2024 0bce 00       		.byte	0
 2025 0bcf 21       		.uleb128 0x21
 2026 0bd0 3C000000 		.4byte	.LVL43
 2027 0bd4 C10D0000 		.4byte	0xdc1
 2028 0bd8 EC0B0000 		.4byte	0xbec
 2029 0bdc 1A       		.uleb128 0x1a
 2030 0bdd 01       		.uleb128 0x1
 2031 0bde 51       		.byte	0x51
 2032 0bdf 02       		.uleb128 0x2
 2033 0be0 08       		.byte	0x8
 2034 0be1 80       		.byte	0x80
 2035 0be2 1A       		.uleb128 0x1a
 2036 0be3 01       		.uleb128 0x1
 2037 0be4 50       		.byte	0x50
 2038 0be5 05       		.uleb128 0x5
 2039 0be6 F3       		.byte	0xf3
 2040 0be7 01       		.uleb128 0x1
 2041 0be8 50       		.byte	0x50
 2042 0be9 23       		.byte	0x23
 2043 0bea 04       		.uleb128 0x4
 2044 0beb 00       		.byte	0
 2045 0bec 1F       		.uleb128 0x1f
 2046 0bed 48000000 		.4byte	.LVL46
 2047 0bf1 C10D0000 		.4byte	0xdc1
 2048 0bf5 1A       		.uleb128 0x1a
 2049 0bf6 01       		.uleb128 0x1
 2050 0bf7 51       		.byte	0x51
 2051 0bf8 01       		.uleb128 0x1
 2052 0bf9 34       		.byte	0x34
ARM GAS  /tmp/ccAd5cZq.s 			page 37


 2053 0bfa 1A       		.uleb128 0x1a
 2054 0bfb 01       		.uleb128 0x1
 2055 0bfc 50       		.byte	0x50
 2056 0bfd 02       		.uleb128 0x2
 2057 0bfe 74       		.byte	0x74
 2058 0bff 04       		.sleb128 4
 2059 0c00 00       		.byte	0
 2060 0c01 00       		.byte	0
 2061 0c02 22       		.uleb128 0x22
 2062 0c03 69040000 		.4byte	.LASF125
 2063 0c07 01       		.byte	0x1
 2064 0c08 E8       		.byte	0xe8
 2065 0c09 FA000000 		.4byte	0xfa
 2066 0c0d 00000000 		.4byte	.LFB20
 2067 0c11 34000000 		.4byte	.LFE20-.LFB20
 2068 0c15 01       		.uleb128 0x1
 2069 0c16 9C       		.byte	0x9c
 2070 0c17 5F0C0000 		.4byte	0xc5f
 2071 0c1b 17       		.uleb128 0x17
 2072 0c1c 73647000 		.ascii	"sdp\000"
 2073 0c20 01       		.byte	0x1
 2074 0c21 E8       		.byte	0xe8
 2075 0c22 BE0A0000 		.4byte	0xabe
 2076 0c26 A8040000 		.4byte	.LLST30
 2077 0c2a 23       		.uleb128 0x23
 2078 0c2b 6200     		.ascii	"b\000"
 2079 0c2d 01       		.byte	0x1
 2080 0c2e E9       		.byte	0xe9
 2081 0c2f FA000000 		.4byte	0xfa
 2082 0c33 01       		.uleb128 0x1
 2083 0c34 50       		.byte	0x50
 2084 0c35 1E       		.uleb128 0x1e
 2085 0c36 10000000 		.4byte	.LVL49
 2086 0c3a DD0D0000 		.4byte	0xddd
 2087 0c3e 490C0000 		.4byte	0xc49
 2088 0c42 1A       		.uleb128 0x1a
 2089 0c43 01       		.uleb128 0x1
 2090 0c44 50       		.byte	0x50
 2091 0c45 02       		.uleb128 0x2
 2092 0c46 74       		.byte	0x74
 2093 0c47 30       		.sleb128 48
 2094 0c48 00       		.byte	0
 2095 0c49 1F       		.uleb128 0x1f
 2096 0c4a 2C000000 		.4byte	.LVL50
 2097 0c4e C10D0000 		.4byte	0xdc1
 2098 0c52 1A       		.uleb128 0x1a
 2099 0c53 01       		.uleb128 0x1
 2100 0c54 51       		.byte	0x51
 2101 0c55 01       		.uleb128 0x1
 2102 0c56 38       		.byte	0x38
 2103 0c57 1A       		.uleb128 0x1a
 2104 0c58 01       		.uleb128 0x1
 2105 0c59 50       		.byte	0x50
 2106 0c5a 02       		.uleb128 0x2
 2107 0c5b 74       		.byte	0x74
 2108 0c5c 04       		.sleb128 4
 2109 0c5d 00       		.byte	0
ARM GAS  /tmp/ccAd5cZq.s 			page 38


 2110 0c5e 00       		.byte	0
 2111 0c5f 23       		.uleb128 0x23
 2112 0c60 766D7400 		.ascii	"vmt\000"
 2113 0c64 01       		.byte	0x1
 2114 0c65 61       		.byte	0x61
 2115 0c66 F1060000 		.4byte	0x6f1
 2116 0c6a 05       		.uleb128 0x5
 2117 0c6b 03       		.byte	0x3
 2118 0c6c 00000000 		.4byte	vmt
 2119 0c70 24       		.uleb128 0x24
 2120 0c71 42000000 		.4byte	.LASF107
 2121 0c75 0B       		.byte	0xb
 2122 0c76 6001     		.2byte	0x160
 2123 0c78 2C000000 		.4byte	0x2c
 2124 0c7c 950C0000 		.4byte	0xc95
 2125 0c80 10       		.uleb128 0x10
 2126 0c81 950C0000 		.4byte	0xc95
 2127 0c85 10       		.uleb128 0x10
 2128 0c86 CE040000 		.4byte	0x4ce
 2129 0c8a 10       		.uleb128 0x10
 2130 0c8b 2C000000 		.4byte	0x2c
 2131 0c8f 10       		.uleb128 0x10
 2132 0c90 1B010000 		.4byte	0x11b
 2133 0c94 00       		.byte	0
 2134 0c95 09       		.uleb128 0x9
 2135 0c96 04       		.byte	0x4
 2136 0c97 D4040000 		.4byte	0x4d4
 2137 0c9b 24       		.uleb128 0x24
 2138 0c9c 3D020000 		.4byte	.LASF108
 2139 0ca0 0B       		.byte	0xb
 2140 0ca1 6801     		.2byte	0x168
 2141 0ca3 2C000000 		.4byte	0x2c
 2142 0ca7 C00C0000 		.4byte	0xcc0
 2143 0cab 10       		.uleb128 0x10
 2144 0cac C00C0000 		.4byte	0xcc0
 2145 0cb0 10       		.uleb128 0x10
 2146 0cb1 03050000 		.4byte	0x503
 2147 0cb5 10       		.uleb128 0x10
 2148 0cb6 2C000000 		.4byte	0x2c
 2149 0cba 10       		.uleb128 0x10
 2150 0cbb 1B010000 		.4byte	0x11b
 2151 0cbf 00       		.byte	0
 2152 0cc0 09       		.uleb128 0x9
 2153 0cc1 04       		.byte	0x4
 2154 0cc2 DF040000 		.4byte	0x4df
 2155 0cc6 24       		.uleb128 0x24
 2156 0cc7 84050000 		.4byte	.LASF109
 2157 0ccb 0B       		.byte	0xb
 2158 0ccc 5F01     		.2byte	0x15f
 2159 0cce FA000000 		.4byte	0xfa
 2160 0cd2 E10C0000 		.4byte	0xce1
 2161 0cd6 10       		.uleb128 0x10
 2162 0cd7 950C0000 		.4byte	0xc95
 2163 0cdb 10       		.uleb128 0x10
 2164 0cdc 1B010000 		.4byte	0x11b
 2165 0ce0 00       		.byte	0
 2166 0ce1 24       		.uleb128 0x24
ARM GAS  /tmp/ccAd5cZq.s 			page 39


 2167 0ce2 00000000 		.4byte	.LASF110
 2168 0ce6 0B       		.byte	0xb
 2169 0ce7 6601     		.2byte	0x166
 2170 0ce9 FA000000 		.4byte	0xfa
 2171 0ced 010D0000 		.4byte	0xd01
 2172 0cf1 10       		.uleb128 0x10
 2173 0cf2 C00C0000 		.4byte	0xcc0
 2174 0cf6 10       		.uleb128 0x10
 2175 0cf7 97000000 		.4byte	0x97
 2176 0cfb 10       		.uleb128 0x10
 2177 0cfc 1B010000 		.4byte	0x11b
 2178 0d00 00       		.byte	0
 2179 0d01 25       		.uleb128 0x25
 2180 0d02 F8000000 		.4byte	.LASF117
 2181 0d06 0D       		.byte	0xd
 2182 0d07 67       		.byte	0x67
 2183 0d08 26       		.uleb128 0x26
 2184 0d09 23000000 		.4byte	.LASF111
 2185 0d0d 0B       		.byte	0xb
 2186 0d0e 5B01     		.2byte	0x15b
 2187 0d10 2E0D0000 		.4byte	0xd2e
 2188 0d14 10       		.uleb128 0x10
 2189 0d15 950C0000 		.4byte	0xc95
 2190 0d19 10       		.uleb128 0x10
 2191 0d1a CE040000 		.4byte	0x4ce
 2192 0d1e 10       		.uleb128 0x10
 2193 0d1f 2C000000 		.4byte	0x2c
 2194 0d23 10       		.uleb128 0x10
 2195 0d24 AC040000 		.4byte	0x4ac
 2196 0d28 10       		.uleb128 0x10
 2197 0d29 7F020000 		.4byte	0x27f
 2198 0d2d 00       		.byte	0
 2199 0d2e 26       		.uleb128 0x26
 2200 0d2f D4000000 		.4byte	.LASF112
 2201 0d33 0B       		.byte	0xb
 2202 0d34 6301     		.2byte	0x163
 2203 0d36 540D0000 		.4byte	0xd54
 2204 0d3a 10       		.uleb128 0x10
 2205 0d3b C00C0000 		.4byte	0xcc0
 2206 0d3f 10       		.uleb128 0x10
 2207 0d40 CE040000 		.4byte	0x4ce
 2208 0d44 10       		.uleb128 0x10
 2209 0d45 2C000000 		.4byte	0x2c
 2210 0d49 10       		.uleb128 0x10
 2211 0d4a AC040000 		.4byte	0x4ac
 2212 0d4e 10       		.uleb128 0x10
 2213 0d4f 7F020000 		.4byte	0x27f
 2214 0d53 00       		.byte	0
 2215 0d54 27       		.uleb128 0x27
 2216 0d55 E1020000 		.4byte	.LASF113
 2217 0d59 0D       		.byte	0xd
 2218 0d5a 68       		.byte	0x68
 2219 0d5b 6A0D0000 		.4byte	0xd6a
 2220 0d5f 10       		.uleb128 0x10
 2221 0d60 BE0A0000 		.4byte	0xabe
 2222 0d64 10       		.uleb128 0x10
 2223 0d65 0F0B0000 		.4byte	0xb0f
ARM GAS  /tmp/ccAd5cZq.s 			page 40


 2224 0d69 00       		.byte	0
 2225 0d6a 27       		.uleb128 0x27
 2226 0d6b 52050000 		.4byte	.LASF114
 2227 0d6f 0D       		.byte	0xd
 2228 0d70 69       		.byte	0x69
 2229 0d71 7B0D0000 		.4byte	0xd7b
 2230 0d75 10       		.uleb128 0x10
 2231 0d76 BE0A0000 		.4byte	0xabe
 2232 0d7a 00       		.byte	0
 2233 0d7b 26       		.uleb128 0x26
 2234 0d7c D7030000 		.4byte	.LASF115
 2235 0d80 0B       		.byte	0xb
 2236 0d81 6501     		.2byte	0x165
 2237 0d83 8D0D0000 		.4byte	0xd8d
 2238 0d87 10       		.uleb128 0x10
 2239 0d88 C00C0000 		.4byte	0xcc0
 2240 0d8c 00       		.byte	0
 2241 0d8d 26       		.uleb128 0x26
 2242 0d8e 89010000 		.4byte	.LASF116
 2243 0d92 0B       		.byte	0xb
 2244 0d93 5D01     		.2byte	0x15d
 2245 0d95 9F0D0000 		.4byte	0xd9f
 2246 0d99 10       		.uleb128 0x10
 2247 0d9a 950C0000 		.4byte	0xc95
 2248 0d9e 00       		.byte	0
 2249 0d9f 25       		.uleb128 0x25
 2250 0da0 32010000 		.4byte	.LASF118
 2251 0da4 0E       		.byte	0xe
 2252 0da5 95       		.byte	0x95
 2253 0da6 24       		.uleb128 0x24
 2254 0da7 57010000 		.4byte	.LASF119
 2255 0dab 0B       		.byte	0xb
 2256 0dac 5E01     		.2byte	0x15e
 2257 0dae FA000000 		.4byte	0xfa
 2258 0db2 C10D0000 		.4byte	0xdc1
 2259 0db6 10       		.uleb128 0x10
 2260 0db7 950C0000 		.4byte	0xc95
 2261 0dbb 10       		.uleb128 0x10
 2262 0dbc 97000000 		.4byte	0x97
 2263 0dc0 00       		.byte	0
 2264 0dc1 27       		.uleb128 0x27
 2265 0dc2 15010000 		.4byte	.LASF120
 2266 0dc6 0A       		.byte	0xa
 2267 0dc7 B3       		.byte	0xb3
 2268 0dc8 D70D0000 		.4byte	0xdd7
 2269 0dcc 10       		.uleb128 0x10
 2270 0dcd D70D0000 		.4byte	0xdd7
 2271 0dd1 10       		.uleb128 0x10
 2272 0dd2 10010000 		.4byte	0x110
 2273 0dd6 00       		.byte	0
 2274 0dd7 09       		.uleb128 0x9
 2275 0dd8 04       		.byte	0x4
 2276 0dd9 C0030000 		.4byte	0x3c0
 2277 0ddd 28       		.uleb128 0x28
 2278 0dde EF000000 		.4byte	.LASF121
 2279 0de2 0B       		.byte	0xb
 2280 0de3 6701     		.2byte	0x167
ARM GAS  /tmp/ccAd5cZq.s 			page 41


 2281 0de5 FA000000 		.4byte	0xfa
 2282 0de9 10       		.uleb128 0x10
 2283 0dea C00C0000 		.4byte	0xcc0
 2284 0dee 00       		.byte	0
 2285 0def 00       		.byte	0
 2286              		.section	.debug_abbrev,"",%progbits
 2287              	.Ldebug_abbrev0:
 2288 0000 01       		.uleb128 0x1
 2289 0001 11       		.uleb128 0x11
 2290 0002 01       		.byte	0x1
 2291 0003 25       		.uleb128 0x25
 2292 0004 0E       		.uleb128 0xe
 2293 0005 13       		.uleb128 0x13
 2294 0006 0B       		.uleb128 0xb
 2295 0007 03       		.uleb128 0x3
 2296 0008 0E       		.uleb128 0xe
 2297 0009 1B       		.uleb128 0x1b
 2298 000a 0E       		.uleb128 0xe
 2299 000b 55       		.uleb128 0x55
 2300 000c 17       		.uleb128 0x17
 2301 000d 11       		.uleb128 0x11
 2302 000e 01       		.uleb128 0x1
 2303 000f 10       		.uleb128 0x10
 2304 0010 17       		.uleb128 0x17
 2305 0011 00       		.byte	0
 2306 0012 00       		.byte	0
 2307 0013 02       		.uleb128 0x2
 2308 0014 24       		.uleb128 0x24
 2309 0015 00       		.byte	0
 2310 0016 0B       		.uleb128 0xb
 2311 0017 0B       		.uleb128 0xb
 2312 0018 3E       		.uleb128 0x3e
 2313 0019 0B       		.uleb128 0xb
 2314 001a 03       		.uleb128 0x3
 2315 001b 08       		.uleb128 0x8
 2316 001c 00       		.byte	0
 2317 001d 00       		.byte	0
 2318 001e 03       		.uleb128 0x3
 2319 001f 16       		.uleb128 0x16
 2320 0020 00       		.byte	0
 2321 0021 03       		.uleb128 0x3
 2322 0022 0E       		.uleb128 0xe
 2323 0023 3A       		.uleb128 0x3a
 2324 0024 0B       		.uleb128 0xb
 2325 0025 3B       		.uleb128 0x3b
 2326 0026 0B       		.uleb128 0xb
 2327 0027 49       		.uleb128 0x49
 2328 0028 13       		.uleb128 0x13
 2329 0029 00       		.byte	0
 2330 002a 00       		.byte	0
 2331 002b 04       		.uleb128 0x4
 2332 002c 24       		.uleb128 0x24
 2333 002d 00       		.byte	0
 2334 002e 0B       		.uleb128 0xb
 2335 002f 0B       		.uleb128 0xb
 2336 0030 3E       		.uleb128 0x3e
 2337 0031 0B       		.uleb128 0xb
ARM GAS  /tmp/ccAd5cZq.s 			page 42


 2338 0032 03       		.uleb128 0x3
 2339 0033 0E       		.uleb128 0xe
 2340 0034 00       		.byte	0
 2341 0035 00       		.byte	0
 2342 0036 05       		.uleb128 0x5
 2343 0037 13       		.uleb128 0x13
 2344 0038 01       		.byte	0x1
 2345 0039 03       		.uleb128 0x3
 2346 003a 0E       		.uleb128 0xe
 2347 003b 0B       		.uleb128 0xb
 2348 003c 0B       		.uleb128 0xb
 2349 003d 3A       		.uleb128 0x3a
 2350 003e 0B       		.uleb128 0xb
 2351 003f 3B       		.uleb128 0x3b
 2352 0040 0B       		.uleb128 0xb
 2353 0041 01       		.uleb128 0x1
 2354 0042 13       		.uleb128 0x13
 2355 0043 00       		.byte	0
 2356 0044 00       		.byte	0
 2357 0045 06       		.uleb128 0x6
 2358 0046 0D       		.uleb128 0xd
 2359 0047 00       		.byte	0
 2360 0048 03       		.uleb128 0x3
 2361 0049 0E       		.uleb128 0xe
 2362 004a 3A       		.uleb128 0x3a
 2363 004b 0B       		.uleb128 0xb
 2364 004c 3B       		.uleb128 0x3b
 2365 004d 0B       		.uleb128 0xb
 2366 004e 49       		.uleb128 0x49
 2367 004f 13       		.uleb128 0x13
 2368 0050 38       		.uleb128 0x38
 2369 0051 0B       		.uleb128 0xb
 2370 0052 00       		.byte	0
 2371 0053 00       		.byte	0
 2372 0054 07       		.uleb128 0x7
 2373 0055 0D       		.uleb128 0xd
 2374 0056 00       		.byte	0
 2375 0057 03       		.uleb128 0x3
 2376 0058 08       		.uleb128 0x8
 2377 0059 3A       		.uleb128 0x3a
 2378 005a 0B       		.uleb128 0xb
 2379 005b 3B       		.uleb128 0x3b
 2380 005c 0B       		.uleb128 0xb
 2381 005d 49       		.uleb128 0x49
 2382 005e 13       		.uleb128 0x13
 2383 005f 38       		.uleb128 0x38
 2384 0060 0B       		.uleb128 0xb
 2385 0061 00       		.byte	0
 2386 0062 00       		.byte	0
 2387 0063 08       		.uleb128 0x8
 2388 0064 13       		.uleb128 0x13
 2389 0065 01       		.byte	0x1
 2390 0066 0B       		.uleb128 0xb
 2391 0067 0B       		.uleb128 0xb
 2392 0068 3A       		.uleb128 0x3a
 2393 0069 0B       		.uleb128 0xb
 2394 006a 3B       		.uleb128 0x3b
ARM GAS  /tmp/ccAd5cZq.s 			page 43


 2395 006b 0B       		.uleb128 0xb
 2396 006c 01       		.uleb128 0x1
 2397 006d 13       		.uleb128 0x13
 2398 006e 00       		.byte	0
 2399 006f 00       		.byte	0
 2400 0070 09       		.uleb128 0x9
 2401 0071 0F       		.uleb128 0xf
 2402 0072 00       		.byte	0
 2403 0073 0B       		.uleb128 0xb
 2404 0074 0B       		.uleb128 0xb
 2405 0075 49       		.uleb128 0x49
 2406 0076 13       		.uleb128 0x13
 2407 0077 00       		.byte	0
 2408 0078 00       		.byte	0
 2409 0079 0A       		.uleb128 0xa
 2410 007a 0F       		.uleb128 0xf
 2411 007b 00       		.byte	0
 2412 007c 0B       		.uleb128 0xb
 2413 007d 0B       		.uleb128 0xb
 2414 007e 00       		.byte	0
 2415 007f 00       		.byte	0
 2416 0080 0B       		.uleb128 0xb
 2417 0081 35       		.uleb128 0x35
 2418 0082 00       		.byte	0
 2419 0083 49       		.uleb128 0x49
 2420 0084 13       		.uleb128 0x13
 2421 0085 00       		.byte	0
 2422 0086 00       		.byte	0
 2423 0087 0C       		.uleb128 0xc
 2424 0088 17       		.uleb128 0x17
 2425 0089 01       		.byte	0x1
 2426 008a 0B       		.uleb128 0xb
 2427 008b 0B       		.uleb128 0xb
 2428 008c 3A       		.uleb128 0x3a
 2429 008d 0B       		.uleb128 0xb
 2430 008e 3B       		.uleb128 0x3b
 2431 008f 0B       		.uleb128 0xb
 2432 0090 01       		.uleb128 0x1
 2433 0091 13       		.uleb128 0x13
 2434 0092 00       		.byte	0
 2435 0093 00       		.byte	0
 2436 0094 0D       		.uleb128 0xd
 2437 0095 0D       		.uleb128 0xd
 2438 0096 00       		.byte	0
 2439 0097 03       		.uleb128 0x3
 2440 0098 0E       		.uleb128 0xe
 2441 0099 3A       		.uleb128 0x3a
 2442 009a 0B       		.uleb128 0xb
 2443 009b 3B       		.uleb128 0x3b
 2444 009c 0B       		.uleb128 0xb
 2445 009d 49       		.uleb128 0x49
 2446 009e 13       		.uleb128 0x13
 2447 009f 00       		.byte	0
 2448 00a0 00       		.byte	0
 2449 00a1 0E       		.uleb128 0xe
 2450 00a2 26       		.uleb128 0x26
 2451 00a3 00       		.byte	0
ARM GAS  /tmp/ccAd5cZq.s 			page 44


 2452 00a4 49       		.uleb128 0x49
 2453 00a5 13       		.uleb128 0x13
 2454 00a6 00       		.byte	0
 2455 00a7 00       		.byte	0
 2456 00a8 0F       		.uleb128 0xf
 2457 00a9 15       		.uleb128 0x15
 2458 00aa 01       		.byte	0x1
 2459 00ab 27       		.uleb128 0x27
 2460 00ac 19       		.uleb128 0x19
 2461 00ad 49       		.uleb128 0x49
 2462 00ae 13       		.uleb128 0x13
 2463 00af 01       		.uleb128 0x1
 2464 00b0 13       		.uleb128 0x13
 2465 00b1 00       		.byte	0
 2466 00b2 00       		.byte	0
 2467 00b3 10       		.uleb128 0x10
 2468 00b4 05       		.uleb128 0x5
 2469 00b5 00       		.byte	0
 2470 00b6 49       		.uleb128 0x49
 2471 00b7 13       		.uleb128 0x13
 2472 00b8 00       		.byte	0
 2473 00b9 00       		.byte	0
 2474 00ba 11       		.uleb128 0x11
 2475 00bb 15       		.uleb128 0x15
 2476 00bc 01       		.byte	0x1
 2477 00bd 27       		.uleb128 0x27
 2478 00be 19       		.uleb128 0x19
 2479 00bf 01       		.uleb128 0x1
 2480 00c0 13       		.uleb128 0x13
 2481 00c1 00       		.byte	0
 2482 00c2 00       		.byte	0
 2483 00c3 12       		.uleb128 0x12
 2484 00c4 04       		.uleb128 0x4
 2485 00c5 01       		.byte	0x1
 2486 00c6 0B       		.uleb128 0xb
 2487 00c7 0B       		.uleb128 0xb
 2488 00c8 3A       		.uleb128 0x3a
 2489 00c9 0B       		.uleb128 0xb
 2490 00ca 3B       		.uleb128 0x3b
 2491 00cb 0B       		.uleb128 0xb
 2492 00cc 01       		.uleb128 0x1
 2493 00cd 13       		.uleb128 0x13
 2494 00ce 00       		.byte	0
 2495 00cf 00       		.byte	0
 2496 00d0 13       		.uleb128 0x13
 2497 00d1 28       		.uleb128 0x28
 2498 00d2 00       		.byte	0
 2499 00d3 03       		.uleb128 0x3
 2500 00d4 0E       		.uleb128 0xe
 2501 00d5 1C       		.uleb128 0x1c
 2502 00d6 0D       		.uleb128 0xd
 2503 00d7 00       		.byte	0
 2504 00d8 00       		.byte	0
 2505 00d9 14       		.uleb128 0x14
 2506 00da 01       		.uleb128 0x1
 2507 00db 01       		.byte	0x1
 2508 00dc 49       		.uleb128 0x49
ARM GAS  /tmp/ccAd5cZq.s 			page 45


 2509 00dd 13       		.uleb128 0x13
 2510 00de 01       		.uleb128 0x1
 2511 00df 13       		.uleb128 0x13
 2512 00e0 00       		.byte	0
 2513 00e1 00       		.byte	0
 2514 00e2 15       		.uleb128 0x15
 2515 00e3 21       		.uleb128 0x21
 2516 00e4 00       		.byte	0
 2517 00e5 49       		.uleb128 0x49
 2518 00e6 13       		.uleb128 0x13
 2519 00e7 2F       		.uleb128 0x2f
 2520 00e8 0B       		.uleb128 0xb
 2521 00e9 00       		.byte	0
 2522 00ea 00       		.byte	0
 2523 00eb 16       		.uleb128 0x16
 2524 00ec 2E       		.uleb128 0x2e
 2525 00ed 01       		.byte	0x1
 2526 00ee 03       		.uleb128 0x3
 2527 00ef 0E       		.uleb128 0xe
 2528 00f0 3A       		.uleb128 0x3a
 2529 00f1 0B       		.uleb128 0xb
 2530 00f2 3B       		.uleb128 0x3b
 2531 00f3 0B       		.uleb128 0xb
 2532 00f4 27       		.uleb128 0x27
 2533 00f5 19       		.uleb128 0x19
 2534 00f6 49       		.uleb128 0x49
 2535 00f7 13       		.uleb128 0x13
 2536 00f8 11       		.uleb128 0x11
 2537 00f9 01       		.uleb128 0x1
 2538 00fa 12       		.uleb128 0x12
 2539 00fb 06       		.uleb128 0x6
 2540 00fc 40       		.uleb128 0x40
 2541 00fd 18       		.uleb128 0x18
 2542 00fe 9742     		.uleb128 0x2117
 2543 0100 19       		.uleb128 0x19
 2544 0101 01       		.uleb128 0x1
 2545 0102 13       		.uleb128 0x13
 2546 0103 00       		.byte	0
 2547 0104 00       		.byte	0
 2548 0105 17       		.uleb128 0x17
 2549 0106 05       		.uleb128 0x5
 2550 0107 00       		.byte	0
 2551 0108 03       		.uleb128 0x3
 2552 0109 08       		.uleb128 0x8
 2553 010a 3A       		.uleb128 0x3a
 2554 010b 0B       		.uleb128 0xb
 2555 010c 3B       		.uleb128 0x3b
 2556 010d 0B       		.uleb128 0xb
 2557 010e 49       		.uleb128 0x49
 2558 010f 13       		.uleb128 0x13
 2559 0110 02       		.uleb128 0x2
 2560 0111 17       		.uleb128 0x17
 2561 0112 00       		.byte	0
 2562 0113 00       		.byte	0
 2563 0114 18       		.uleb128 0x18
 2564 0115 05       		.uleb128 0x5
 2565 0116 00       		.byte	0
ARM GAS  /tmp/ccAd5cZq.s 			page 46


 2566 0117 03       		.uleb128 0x3
 2567 0118 0E       		.uleb128 0xe
 2568 0119 3A       		.uleb128 0x3a
 2569 011a 0B       		.uleb128 0xb
 2570 011b 3B       		.uleb128 0x3b
 2571 011c 0B       		.uleb128 0xb
 2572 011d 49       		.uleb128 0x49
 2573 011e 13       		.uleb128 0x13
 2574 011f 02       		.uleb128 0x2
 2575 0120 17       		.uleb128 0x17
 2576 0121 00       		.byte	0
 2577 0122 00       		.byte	0
 2578 0123 19       		.uleb128 0x19
 2579 0124 898201   		.uleb128 0x4109
 2580 0127 01       		.byte	0x1
 2581 0128 11       		.uleb128 0x11
 2582 0129 01       		.uleb128 0x1
 2583 012a 9542     		.uleb128 0x2115
 2584 012c 19       		.uleb128 0x19
 2585 012d 31       		.uleb128 0x31
 2586 012e 13       		.uleb128 0x13
 2587 012f 00       		.byte	0
 2588 0130 00       		.byte	0
 2589 0131 1A       		.uleb128 0x1a
 2590 0132 8A8201   		.uleb128 0x410a
 2591 0135 00       		.byte	0
 2592 0136 02       		.uleb128 0x2
 2593 0137 18       		.uleb128 0x18
 2594 0138 9142     		.uleb128 0x2111
 2595 013a 18       		.uleb128 0x18
 2596 013b 00       		.byte	0
 2597 013c 00       		.byte	0
 2598 013d 1B       		.uleb128 0x1b
 2599 013e 2E       		.uleb128 0x2e
 2600 013f 01       		.byte	0x1
 2601 0140 03       		.uleb128 0x3
 2602 0141 08       		.uleb128 0x8
 2603 0142 3A       		.uleb128 0x3a
 2604 0143 0B       		.uleb128 0xb
 2605 0144 3B       		.uleb128 0x3b
 2606 0145 0B       		.uleb128 0xb
 2607 0146 27       		.uleb128 0x27
 2608 0147 19       		.uleb128 0x19
 2609 0148 49       		.uleb128 0x49
 2610 0149 13       		.uleb128 0x13
 2611 014a 11       		.uleb128 0x11
 2612 014b 01       		.uleb128 0x1
 2613 014c 12       		.uleb128 0x12
 2614 014d 06       		.uleb128 0x6
 2615 014e 40       		.uleb128 0x40
 2616 014f 18       		.uleb128 0x18
 2617 0150 9742     		.uleb128 0x2117
 2618 0152 19       		.uleb128 0x19
 2619 0153 01       		.uleb128 0x1
 2620 0154 13       		.uleb128 0x13
 2621 0155 00       		.byte	0
 2622 0156 00       		.byte	0
ARM GAS  /tmp/ccAd5cZq.s 			page 47


 2623 0157 1C       		.uleb128 0x1c
 2624 0158 2E       		.uleb128 0x2e
 2625 0159 01       		.byte	0x1
 2626 015a 3F       		.uleb128 0x3f
 2627 015b 19       		.uleb128 0x19
 2628 015c 03       		.uleb128 0x3
 2629 015d 0E       		.uleb128 0xe
 2630 015e 3A       		.uleb128 0x3a
 2631 015f 0B       		.uleb128 0xb
 2632 0160 3B       		.uleb128 0x3b
 2633 0161 0B       		.uleb128 0xb
 2634 0162 27       		.uleb128 0x27
 2635 0163 19       		.uleb128 0x19
 2636 0164 11       		.uleb128 0x11
 2637 0165 01       		.uleb128 0x1
 2638 0166 12       		.uleb128 0x12
 2639 0167 06       		.uleb128 0x6
 2640 0168 40       		.uleb128 0x40
 2641 0169 18       		.uleb128 0x18
 2642 016a 9742     		.uleb128 0x2117
 2643 016c 19       		.uleb128 0x19
 2644 016d 01       		.uleb128 0x1
 2645 016e 13       		.uleb128 0x13
 2646 016f 00       		.byte	0
 2647 0170 00       		.byte	0
 2648 0171 1D       		.uleb128 0x1d
 2649 0172 898201   		.uleb128 0x4109
 2650 0175 00       		.byte	0
 2651 0176 11       		.uleb128 0x11
 2652 0177 01       		.uleb128 0x1
 2653 0178 9542     		.uleb128 0x2115
 2654 017a 19       		.uleb128 0x19
 2655 017b 31       		.uleb128 0x31
 2656 017c 13       		.uleb128 0x13
 2657 017d 00       		.byte	0
 2658 017e 00       		.byte	0
 2659 017f 1E       		.uleb128 0x1e
 2660 0180 898201   		.uleb128 0x4109
 2661 0183 01       		.byte	0x1
 2662 0184 11       		.uleb128 0x11
 2663 0185 01       		.uleb128 0x1
 2664 0186 31       		.uleb128 0x31
 2665 0187 13       		.uleb128 0x13
 2666 0188 01       		.uleb128 0x1
 2667 0189 13       		.uleb128 0x13
 2668 018a 00       		.byte	0
 2669 018b 00       		.byte	0
 2670 018c 1F       		.uleb128 0x1f
 2671 018d 898201   		.uleb128 0x4109
 2672 0190 01       		.byte	0x1
 2673 0191 11       		.uleb128 0x11
 2674 0192 01       		.uleb128 0x1
 2675 0193 31       		.uleb128 0x31
 2676 0194 13       		.uleb128 0x13
 2677 0195 00       		.byte	0
 2678 0196 00       		.byte	0
 2679 0197 20       		.uleb128 0x20
ARM GAS  /tmp/ccAd5cZq.s 			page 48


 2680 0198 898201   		.uleb128 0x4109
 2681 019b 00       		.byte	0
 2682 019c 11       		.uleb128 0x11
 2683 019d 01       		.uleb128 0x1
 2684 019e 31       		.uleb128 0x31
 2685 019f 13       		.uleb128 0x13
 2686 01a0 00       		.byte	0
 2687 01a1 00       		.byte	0
 2688 01a2 21       		.uleb128 0x21
 2689 01a3 898201   		.uleb128 0x4109
 2690 01a6 01       		.byte	0x1
 2691 01a7 11       		.uleb128 0x11
 2692 01a8 01       		.uleb128 0x1
 2693 01a9 9542     		.uleb128 0x2115
 2694 01ab 19       		.uleb128 0x19
 2695 01ac 31       		.uleb128 0x31
 2696 01ad 13       		.uleb128 0x13
 2697 01ae 01       		.uleb128 0x1
 2698 01af 13       		.uleb128 0x13
 2699 01b0 00       		.byte	0
 2700 01b1 00       		.byte	0
 2701 01b2 22       		.uleb128 0x22
 2702 01b3 2E       		.uleb128 0x2e
 2703 01b4 01       		.byte	0x1
 2704 01b5 3F       		.uleb128 0x3f
 2705 01b6 19       		.uleb128 0x19
 2706 01b7 03       		.uleb128 0x3
 2707 01b8 0E       		.uleb128 0xe
 2708 01b9 3A       		.uleb128 0x3a
 2709 01ba 0B       		.uleb128 0xb
 2710 01bb 3B       		.uleb128 0x3b
 2711 01bc 0B       		.uleb128 0xb
 2712 01bd 27       		.uleb128 0x27
 2713 01be 19       		.uleb128 0x19
 2714 01bf 49       		.uleb128 0x49
 2715 01c0 13       		.uleb128 0x13
 2716 01c1 11       		.uleb128 0x11
 2717 01c2 01       		.uleb128 0x1
 2718 01c3 12       		.uleb128 0x12
 2719 01c4 06       		.uleb128 0x6
 2720 01c5 40       		.uleb128 0x40
 2721 01c6 18       		.uleb128 0x18
 2722 01c7 9742     		.uleb128 0x2117
 2723 01c9 19       		.uleb128 0x19
 2724 01ca 01       		.uleb128 0x1
 2725 01cb 13       		.uleb128 0x13
 2726 01cc 00       		.byte	0
 2727 01cd 00       		.byte	0
 2728 01ce 23       		.uleb128 0x23
 2729 01cf 34       		.uleb128 0x34
 2730 01d0 00       		.byte	0
 2731 01d1 03       		.uleb128 0x3
 2732 01d2 08       		.uleb128 0x8
 2733 01d3 3A       		.uleb128 0x3a
 2734 01d4 0B       		.uleb128 0xb
 2735 01d5 3B       		.uleb128 0x3b
 2736 01d6 0B       		.uleb128 0xb
ARM GAS  /tmp/ccAd5cZq.s 			page 49


 2737 01d7 49       		.uleb128 0x49
 2738 01d8 13       		.uleb128 0x13
 2739 01d9 02       		.uleb128 0x2
 2740 01da 18       		.uleb128 0x18
 2741 01db 00       		.byte	0
 2742 01dc 00       		.byte	0
 2743 01dd 24       		.uleb128 0x24
 2744 01de 2E       		.uleb128 0x2e
 2745 01df 01       		.byte	0x1
 2746 01e0 3F       		.uleb128 0x3f
 2747 01e1 19       		.uleb128 0x19
 2748 01e2 03       		.uleb128 0x3
 2749 01e3 0E       		.uleb128 0xe
 2750 01e4 3A       		.uleb128 0x3a
 2751 01e5 0B       		.uleb128 0xb
 2752 01e6 3B       		.uleb128 0x3b
 2753 01e7 05       		.uleb128 0x5
 2754 01e8 27       		.uleb128 0x27
 2755 01e9 19       		.uleb128 0x19
 2756 01ea 49       		.uleb128 0x49
 2757 01eb 13       		.uleb128 0x13
 2758 01ec 3C       		.uleb128 0x3c
 2759 01ed 19       		.uleb128 0x19
 2760 01ee 01       		.uleb128 0x1
 2761 01ef 13       		.uleb128 0x13
 2762 01f0 00       		.byte	0
 2763 01f1 00       		.byte	0
 2764 01f2 25       		.uleb128 0x25
 2765 01f3 2E       		.uleb128 0x2e
 2766 01f4 00       		.byte	0
 2767 01f5 3F       		.uleb128 0x3f
 2768 01f6 19       		.uleb128 0x19
 2769 01f7 03       		.uleb128 0x3
 2770 01f8 0E       		.uleb128 0xe
 2771 01f9 3A       		.uleb128 0x3a
 2772 01fa 0B       		.uleb128 0xb
 2773 01fb 3B       		.uleb128 0x3b
 2774 01fc 0B       		.uleb128 0xb
 2775 01fd 27       		.uleb128 0x27
 2776 01fe 19       		.uleb128 0x19
 2777 01ff 3C       		.uleb128 0x3c
 2778 0200 19       		.uleb128 0x19
 2779 0201 00       		.byte	0
 2780 0202 00       		.byte	0
 2781 0203 26       		.uleb128 0x26
 2782 0204 2E       		.uleb128 0x2e
 2783 0205 01       		.byte	0x1
 2784 0206 3F       		.uleb128 0x3f
 2785 0207 19       		.uleb128 0x19
 2786 0208 03       		.uleb128 0x3
 2787 0209 0E       		.uleb128 0xe
 2788 020a 3A       		.uleb128 0x3a
 2789 020b 0B       		.uleb128 0xb
 2790 020c 3B       		.uleb128 0x3b
 2791 020d 05       		.uleb128 0x5
 2792 020e 27       		.uleb128 0x27
 2793 020f 19       		.uleb128 0x19
ARM GAS  /tmp/ccAd5cZq.s 			page 50


 2794 0210 3C       		.uleb128 0x3c
 2795 0211 19       		.uleb128 0x19
 2796 0212 01       		.uleb128 0x1
 2797 0213 13       		.uleb128 0x13
 2798 0214 00       		.byte	0
 2799 0215 00       		.byte	0
 2800 0216 27       		.uleb128 0x27
 2801 0217 2E       		.uleb128 0x2e
 2802 0218 01       		.byte	0x1
 2803 0219 3F       		.uleb128 0x3f
 2804 021a 19       		.uleb128 0x19
 2805 021b 03       		.uleb128 0x3
 2806 021c 0E       		.uleb128 0xe
 2807 021d 3A       		.uleb128 0x3a
 2808 021e 0B       		.uleb128 0xb
 2809 021f 3B       		.uleb128 0x3b
 2810 0220 0B       		.uleb128 0xb
 2811 0221 27       		.uleb128 0x27
 2812 0222 19       		.uleb128 0x19
 2813 0223 3C       		.uleb128 0x3c
 2814 0224 19       		.uleb128 0x19
 2815 0225 01       		.uleb128 0x1
 2816 0226 13       		.uleb128 0x13
 2817 0227 00       		.byte	0
 2818 0228 00       		.byte	0
 2819 0229 28       		.uleb128 0x28
 2820 022a 2E       		.uleb128 0x2e
 2821 022b 01       		.byte	0x1
 2822 022c 3F       		.uleb128 0x3f
 2823 022d 19       		.uleb128 0x19
 2824 022e 03       		.uleb128 0x3
 2825 022f 0E       		.uleb128 0xe
 2826 0230 3A       		.uleb128 0x3a
 2827 0231 0B       		.uleb128 0xb
 2828 0232 3B       		.uleb128 0x3b
 2829 0233 05       		.uleb128 0x5
 2830 0234 27       		.uleb128 0x27
 2831 0235 19       		.uleb128 0x19
 2832 0236 49       		.uleb128 0x49
 2833 0237 13       		.uleb128 0x13
 2834 0238 3C       		.uleb128 0x3c
 2835 0239 19       		.uleb128 0x19
 2836 023a 00       		.byte	0
 2837 023b 00       		.byte	0
 2838 023c 00       		.byte	0
 2839              		.section	.debug_loc,"",%progbits
 2840              	.Ldebug_loc0:
 2841              	.LLST0:
 2842 0000 00000000 		.4byte	.LVL0
 2843 0004 04000000 		.4byte	.LVL1
 2844 0008 0100     		.2byte	0x1
 2845 000a 50       		.byte	0x50
 2846 000b 04000000 		.4byte	.LVL1
 2847 000f 07000000 		.4byte	.LVL2-1
 2848 0013 0300     		.2byte	0x3
 2849 0015 70       		.byte	0x70
 2850 0016 74       		.sleb128 -12
ARM GAS  /tmp/ccAd5cZq.s 			page 51


 2851 0017 9F       		.byte	0x9f
 2852 0018 07000000 		.4byte	.LVL2-1
 2853 001c 08000000 		.4byte	.LFE14
 2854 0020 0400     		.2byte	0x4
 2855 0022 F3       		.byte	0xf3
 2856 0023 01       		.uleb128 0x1
 2857 0024 50       		.byte	0x50
 2858 0025 9F       		.byte	0x9f
 2859 0026 00000000 		.4byte	0
 2860 002a 00000000 		.4byte	0
 2861              	.LLST1:
 2862 002e 00000000 		.4byte	.LVL0
 2863 0032 07000000 		.4byte	.LVL2-1
 2864 0036 0100     		.2byte	0x1
 2865 0038 51       		.byte	0x51
 2866 0039 07000000 		.4byte	.LVL2-1
 2867 003d 08000000 		.4byte	.LFE14
 2868 0041 0400     		.2byte	0x4
 2869 0043 F3       		.byte	0xf3
 2870 0044 01       		.uleb128 0x1
 2871 0045 51       		.byte	0x51
 2872 0046 9F       		.byte	0x9f
 2873 0047 00000000 		.4byte	0
 2874 004b 00000000 		.4byte	0
 2875              	.LLST2:
 2876 004f 00000000 		.4byte	.LVL0
 2877 0053 07000000 		.4byte	.LVL2-1
 2878 0057 0100     		.2byte	0x1
 2879 0059 52       		.byte	0x52
 2880 005a 07000000 		.4byte	.LVL2-1
 2881 005e 08000000 		.4byte	.LFE14
 2882 0062 0400     		.2byte	0x4
 2883 0064 F3       		.byte	0xf3
 2884 0065 01       		.uleb128 0x1
 2885 0066 52       		.byte	0x52
 2886 0067 9F       		.byte	0x9f
 2887 0068 00000000 		.4byte	0
 2888 006c 00000000 		.4byte	0
 2889              	.LLST3:
 2890 0070 00000000 		.4byte	.LVL0
 2891 0074 07000000 		.4byte	.LVL2-1
 2892 0078 0100     		.2byte	0x1
 2893 007a 53       		.byte	0x53
 2894 007b 07000000 		.4byte	.LVL2-1
 2895 007f 08000000 		.4byte	.LFE14
 2896 0083 0400     		.2byte	0x4
 2897 0085 F3       		.byte	0xf3
 2898 0086 01       		.uleb128 0x1
 2899 0087 53       		.byte	0x53
 2900 0088 9F       		.byte	0x9f
 2901 0089 00000000 		.4byte	0
 2902 008d 00000000 		.4byte	0
 2903              	.LLST4:
 2904 0091 00000000 		.4byte	.LVL3
 2905 0095 04000000 		.4byte	.LVL4
 2906 0099 0100     		.2byte	0x1
 2907 009b 50       		.byte	0x50
ARM GAS  /tmp/ccAd5cZq.s 			page 52


 2908 009c 04000000 		.4byte	.LVL4
 2909 00a0 0B000000 		.4byte	.LVL5-1
 2910 00a4 0300     		.2byte	0x3
 2911 00a6 70       		.byte	0x70
 2912 00a7 74       		.sleb128 -12
 2913 00a8 9F       		.byte	0x9f
 2914 00a9 0B000000 		.4byte	.LVL5-1
 2915 00ad 0C000000 		.4byte	.LFE8
 2916 00b1 0400     		.2byte	0x4
 2917 00b3 F3       		.byte	0xf3
 2918 00b4 01       		.uleb128 0x1
 2919 00b5 50       		.byte	0x50
 2920 00b6 9F       		.byte	0x9f
 2921 00b7 00000000 		.4byte	0
 2922 00bb 00000000 		.4byte	0
 2923              	.LLST5:
 2924 00bf 00000000 		.4byte	.LVL3
 2925 00c3 0B000000 		.4byte	.LVL5-1
 2926 00c7 0100     		.2byte	0x1
 2927 00c9 51       		.byte	0x51
 2928 00ca 0B000000 		.4byte	.LVL5-1
 2929 00ce 0C000000 		.4byte	.LFE8
 2930 00d2 0400     		.2byte	0x4
 2931 00d4 F3       		.byte	0xf3
 2932 00d5 01       		.uleb128 0x1
 2933 00d6 51       		.byte	0x51
 2934 00d7 9F       		.byte	0x9f
 2935 00d8 00000000 		.4byte	0
 2936 00dc 00000000 		.4byte	0
 2937              	.LLST6:
 2938 00e0 00000000 		.4byte	.LVL3
 2939 00e4 0B000000 		.4byte	.LVL5-1
 2940 00e8 0100     		.2byte	0x1
 2941 00ea 52       		.byte	0x52
 2942 00eb 0B000000 		.4byte	.LVL5-1
 2943 00ef 0C000000 		.4byte	.LFE8
 2944 00f3 0400     		.2byte	0x4
 2945 00f5 F3       		.byte	0xf3
 2946 00f6 01       		.uleb128 0x1
 2947 00f7 52       		.byte	0x52
 2948 00f8 9F       		.byte	0x9f
 2949 00f9 00000000 		.4byte	0
 2950 00fd 00000000 		.4byte	0
 2951              	.LLST7:
 2952 0101 00000000 		.4byte	.LVL6
 2953 0105 04000000 		.4byte	.LVL7
 2954 0109 0100     		.2byte	0x1
 2955 010b 50       		.byte	0x50
 2956 010c 04000000 		.4byte	.LVL7
 2957 0110 07000000 		.4byte	.LVL8-1
 2958 0114 0300     		.2byte	0x3
 2959 0116 70       		.byte	0x70
 2960 0117 50       		.sleb128 -48
 2961 0118 9F       		.byte	0x9f
 2962 0119 07000000 		.4byte	.LVL8-1
 2963 011d 08000000 		.4byte	.LFE13
 2964 0121 0400     		.2byte	0x4
ARM GAS  /tmp/ccAd5cZq.s 			page 53


 2965 0123 F3       		.byte	0xf3
 2966 0124 01       		.uleb128 0x1
 2967 0125 50       		.byte	0x50
 2968 0126 9F       		.byte	0x9f
 2969 0127 00000000 		.4byte	0
 2970 012b 00000000 		.4byte	0
 2971              	.LLST8:
 2972 012f 00000000 		.4byte	.LVL6
 2973 0133 07000000 		.4byte	.LVL8-1
 2974 0137 0100     		.2byte	0x1
 2975 0139 51       		.byte	0x51
 2976 013a 07000000 		.4byte	.LVL8-1
 2977 013e 08000000 		.4byte	.LFE13
 2978 0142 0400     		.2byte	0x4
 2979 0144 F3       		.byte	0xf3
 2980 0145 01       		.uleb128 0x1
 2981 0146 51       		.byte	0x51
 2982 0147 9F       		.byte	0x9f
 2983 0148 00000000 		.4byte	0
 2984 014c 00000000 		.4byte	0
 2985              	.LLST9:
 2986 0150 00000000 		.4byte	.LVL6
 2987 0154 07000000 		.4byte	.LVL8-1
 2988 0158 0100     		.2byte	0x1
 2989 015a 52       		.byte	0x52
 2990 015b 07000000 		.4byte	.LVL8-1
 2991 015f 08000000 		.4byte	.LFE13
 2992 0163 0400     		.2byte	0x4
 2993 0165 F3       		.byte	0xf3
 2994 0166 01       		.uleb128 0x1
 2995 0167 52       		.byte	0x52
 2996 0168 9F       		.byte	0x9f
 2997 0169 00000000 		.4byte	0
 2998 016d 00000000 		.4byte	0
 2999              	.LLST10:
 3000 0171 00000000 		.4byte	.LVL6
 3001 0175 07000000 		.4byte	.LVL8-1
 3002 0179 0100     		.2byte	0x1
 3003 017b 53       		.byte	0x53
 3004 017c 07000000 		.4byte	.LVL8-1
 3005 0180 08000000 		.4byte	.LFE13
 3006 0184 0400     		.2byte	0x4
 3007 0186 F3       		.byte	0xf3
 3008 0187 01       		.uleb128 0x1
 3009 0188 53       		.byte	0x53
 3010 0189 9F       		.byte	0x9f
 3011 018a 00000000 		.4byte	0
 3012 018e 00000000 		.4byte	0
 3013              	.LLST11:
 3014 0192 00000000 		.4byte	.LVL9
 3015 0196 04000000 		.4byte	.LVL10
 3016 019a 0100     		.2byte	0x1
 3017 019c 50       		.byte	0x50
 3018 019d 04000000 		.4byte	.LVL10
 3019 01a1 0B000000 		.4byte	.LVL11-1
 3020 01a5 0300     		.2byte	0x3
 3021 01a7 70       		.byte	0x70
ARM GAS  /tmp/ccAd5cZq.s 			page 54


 3022 01a8 50       		.sleb128 -48
 3023 01a9 9F       		.byte	0x9f
 3024 01aa 0B000000 		.4byte	.LVL11-1
 3025 01ae 0C000000 		.4byte	.LFE7
 3026 01b2 0400     		.2byte	0x4
 3027 01b4 F3       		.byte	0xf3
 3028 01b5 01       		.uleb128 0x1
 3029 01b6 50       		.byte	0x50
 3030 01b7 9F       		.byte	0x9f
 3031 01b8 00000000 		.4byte	0
 3032 01bc 00000000 		.4byte	0
 3033              	.LLST12:
 3034 01c0 00000000 		.4byte	.LVL9
 3035 01c4 0B000000 		.4byte	.LVL11-1
 3036 01c8 0100     		.2byte	0x1
 3037 01ca 51       		.byte	0x51
 3038 01cb 0B000000 		.4byte	.LVL11-1
 3039 01cf 0C000000 		.4byte	.LFE7
 3040 01d3 0400     		.2byte	0x4
 3041 01d5 F3       		.byte	0xf3
 3042 01d6 01       		.uleb128 0x1
 3043 01d7 51       		.byte	0x51
 3044 01d8 9F       		.byte	0x9f
 3045 01d9 00000000 		.4byte	0
 3046 01dd 00000000 		.4byte	0
 3047              	.LLST13:
 3048 01e1 00000000 		.4byte	.LVL9
 3049 01e5 0B000000 		.4byte	.LVL11-1
 3050 01e9 0100     		.2byte	0x1
 3051 01eb 52       		.byte	0x52
 3052 01ec 0B000000 		.4byte	.LVL11-1
 3053 01f0 0C000000 		.4byte	.LFE7
 3054 01f4 0400     		.2byte	0x4
 3055 01f6 F3       		.byte	0xf3
 3056 01f7 01       		.uleb128 0x1
 3057 01f8 52       		.byte	0x52
 3058 01f9 9F       		.byte	0x9f
 3059 01fa 00000000 		.4byte	0
 3060 01fe 00000000 		.4byte	0
 3061              	.LLST14:
 3062 0202 00000000 		.4byte	.LVL12
 3063 0206 04000000 		.4byte	.LVL13
 3064 020a 0100     		.2byte	0x1
 3065 020c 50       		.byte	0x50
 3066 020d 04000000 		.4byte	.LVL13
 3067 0211 07000000 		.4byte	.LVL14-1
 3068 0215 0300     		.2byte	0x3
 3069 0217 70       		.byte	0x70
 3070 0218 74       		.sleb128 -12
 3071 0219 9F       		.byte	0x9f
 3072 021a 07000000 		.4byte	.LVL14-1
 3073 021e 08000000 		.4byte	.LFE12
 3074 0222 0400     		.2byte	0x4
 3075 0224 F3       		.byte	0xf3
 3076 0225 01       		.uleb128 0x1
 3077 0226 50       		.byte	0x50
 3078 0227 9F       		.byte	0x9f
ARM GAS  /tmp/ccAd5cZq.s 			page 55


 3079 0228 00000000 		.4byte	0
 3080 022c 00000000 		.4byte	0
 3081              	.LLST15:
 3082 0230 00000000 		.4byte	.LVL12
 3083 0234 07000000 		.4byte	.LVL14-1
 3084 0238 0100     		.2byte	0x1
 3085 023a 51       		.byte	0x51
 3086 023b 07000000 		.4byte	.LVL14-1
 3087 023f 08000000 		.4byte	.LFE12
 3088 0243 0400     		.2byte	0x4
 3089 0245 F3       		.byte	0xf3
 3090 0246 01       		.uleb128 0x1
 3091 0247 51       		.byte	0x51
 3092 0248 9F       		.byte	0x9f
 3093 0249 00000000 		.4byte	0
 3094 024d 00000000 		.4byte	0
 3095              	.LLST16:
 3096 0251 00000000 		.4byte	.LVL15
 3097 0255 04000000 		.4byte	.LVL16
 3098 0259 0100     		.2byte	0x1
 3099 025b 50       		.byte	0x50
 3100 025c 04000000 		.4byte	.LVL16
 3101 0260 0B000000 		.4byte	.LVL17-1
 3102 0264 0300     		.2byte	0x3
 3103 0266 70       		.byte	0x70
 3104 0267 74       		.sleb128 -12
 3105 0268 9F       		.byte	0x9f
 3106 0269 0B000000 		.4byte	.LVL17-1
 3107 026d 0C000000 		.4byte	.LFE10
 3108 0271 0400     		.2byte	0x4
 3109 0273 F3       		.byte	0xf3
 3110 0274 01       		.uleb128 0x1
 3111 0275 50       		.byte	0x50
 3112 0276 9F       		.byte	0x9f
 3113 0277 00000000 		.4byte	0
 3114 027b 00000000 		.4byte	0
 3115              	.LLST17:
 3116 027f 00000000 		.4byte	.LVL18
 3117 0283 04000000 		.4byte	.LVL19
 3118 0287 0100     		.2byte	0x1
 3119 0289 50       		.byte	0x50
 3120 028a 04000000 		.4byte	.LVL19
 3121 028e 07000000 		.4byte	.LVL20-1
 3122 0292 0300     		.2byte	0x3
 3123 0294 70       		.byte	0x70
 3124 0295 50       		.sleb128 -48
 3125 0296 9F       		.byte	0x9f
 3126 0297 07000000 		.4byte	.LVL20-1
 3127 029b 08000000 		.4byte	.LFE11
 3128 029f 0400     		.2byte	0x4
 3129 02a1 F3       		.byte	0xf3
 3130 02a2 01       		.uleb128 0x1
 3131 02a3 50       		.byte	0x50
 3132 02a4 9F       		.byte	0x9f
 3133 02a5 00000000 		.4byte	0
 3134 02a9 00000000 		.4byte	0
 3135              	.LLST18:
ARM GAS  /tmp/ccAd5cZq.s 			page 56


 3136 02ad 00000000 		.4byte	.LVL18
 3137 02b1 07000000 		.4byte	.LVL20-1
 3138 02b5 0100     		.2byte	0x1
 3139 02b7 51       		.byte	0x51
 3140 02b8 07000000 		.4byte	.LVL20-1
 3141 02bc 08000000 		.4byte	.LFE11
 3142 02c0 0400     		.2byte	0x4
 3143 02c2 F3       		.byte	0xf3
 3144 02c3 01       		.uleb128 0x1
 3145 02c4 51       		.byte	0x51
 3146 02c5 9F       		.byte	0x9f
 3147 02c6 00000000 		.4byte	0
 3148 02ca 00000000 		.4byte	0
 3149              	.LLST19:
 3150 02ce 00000000 		.4byte	.LVL18
 3151 02d2 07000000 		.4byte	.LVL20-1
 3152 02d6 0100     		.2byte	0x1
 3153 02d8 52       		.byte	0x52
 3154 02d9 07000000 		.4byte	.LVL20-1
 3155 02dd 08000000 		.4byte	.LFE11
 3156 02e1 0400     		.2byte	0x4
 3157 02e3 F3       		.byte	0xf3
 3158 02e4 01       		.uleb128 0x1
 3159 02e5 52       		.byte	0x52
 3160 02e6 9F       		.byte	0x9f
 3161 02e7 00000000 		.4byte	0
 3162 02eb 00000000 		.4byte	0
 3163              	.LLST20:
 3164 02ef 00000000 		.4byte	.LVL21
 3165 02f3 04000000 		.4byte	.LVL22
 3166 02f7 0100     		.2byte	0x1
 3167 02f9 50       		.byte	0x50
 3168 02fa 04000000 		.4byte	.LVL22
 3169 02fe 0B000000 		.4byte	.LVL23-1
 3170 0302 0300     		.2byte	0x3
 3171 0304 70       		.byte	0x70
 3172 0305 50       		.sleb128 -48
 3173 0306 9F       		.byte	0x9f
 3174 0307 0B000000 		.4byte	.LVL23-1
 3175 030b 0C000000 		.4byte	.LFE9
 3176 030f 0400     		.2byte	0x4
 3177 0311 F3       		.byte	0xf3
 3178 0312 01       		.uleb128 0x1
 3179 0313 50       		.byte	0x50
 3180 0314 9F       		.byte	0x9f
 3181 0315 00000000 		.4byte	0
 3182 0319 00000000 		.4byte	0
 3183              	.LLST21:
 3184 031d 00000000 		.4byte	.LVL21
 3185 0321 0B000000 		.4byte	.LVL23-1
 3186 0325 0100     		.2byte	0x1
 3187 0327 51       		.byte	0x51
 3188 0328 0B000000 		.4byte	.LVL23-1
 3189 032c 0C000000 		.4byte	.LFE9
 3190 0330 0400     		.2byte	0x4
 3191 0332 F3       		.byte	0xf3
 3192 0333 01       		.uleb128 0x1
ARM GAS  /tmp/ccAd5cZq.s 			page 57


 3193 0334 51       		.byte	0x51
 3194 0335 9F       		.byte	0x9f
 3195 0336 00000000 		.4byte	0
 3196 033a 00000000 		.4byte	0
 3197              	.LLST22:
 3198 033e 00000000 		.4byte	.LVL25
 3199 0342 20000000 		.4byte	.LVL27
 3200 0346 0100     		.2byte	0x1
 3201 0348 50       		.byte	0x50
 3202 0349 20000000 		.4byte	.LVL27
 3203 034d 5C000000 		.4byte	.LVL31
 3204 0351 0100     		.2byte	0x1
 3205 0353 54       		.byte	0x54
 3206 0354 5C000000 		.4byte	.LVL31
 3207 0358 60000000 		.4byte	.LFE16
 3208 035c 0400     		.2byte	0x4
 3209 035e F3       		.byte	0xf3
 3210 035f 01       		.uleb128 0x1
 3211 0360 50       		.byte	0x50
 3212 0361 9F       		.byte	0x9f
 3213 0362 00000000 		.4byte	0
 3214 0366 00000000 		.4byte	0
 3215              	.LLST23:
 3216 036a 00000000 		.4byte	.LVL25
 3217 036e 34000000 		.4byte	.LVL28
 3218 0372 0100     		.2byte	0x1
 3219 0374 51       		.byte	0x51
 3220 0375 34000000 		.4byte	.LVL28
 3221 0379 3B000000 		.4byte	.LVL29-1
 3222 037d 0100     		.2byte	0x1
 3223 037f 53       		.byte	0x53
 3224 0380 3B000000 		.4byte	.LVL29-1
 3225 0384 60000000 		.4byte	.LFE16
 3226 0388 0400     		.2byte	0x4
 3227 038a F3       		.byte	0xf3
 3228 038b 01       		.uleb128 0x1
 3229 038c 51       		.byte	0x51
 3230 038d 9F       		.byte	0x9f
 3231 038e 00000000 		.4byte	0
 3232 0392 00000000 		.4byte	0
 3233              	.LLST24:
 3234 0396 00000000 		.4byte	.LVL25
 3235 039a 14000000 		.4byte	.LVL26
 3236 039e 0100     		.2byte	0x1
 3237 03a0 52       		.byte	0x52
 3238 03a1 14000000 		.4byte	.LVL26
 3239 03a5 5C000000 		.4byte	.LVL31
 3240 03a9 0100     		.2byte	0x1
 3241 03ab 55       		.byte	0x55
 3242 03ac 5C000000 		.4byte	.LVL31
 3243 03b0 60000000 		.4byte	.LFE16
 3244 03b4 0400     		.2byte	0x4
 3245 03b6 F3       		.byte	0xf3
 3246 03b7 01       		.uleb128 0x1
 3247 03b8 52       		.byte	0x52
 3248 03b9 9F       		.byte	0x9f
 3249 03ba 00000000 		.4byte	0
ARM GAS  /tmp/ccAd5cZq.s 			page 58


 3250 03be 00000000 		.4byte	0
 3251              	.LLST25:
 3252 03c2 00000000 		.4byte	.LVL32
 3253 03c6 0F000000 		.4byte	.LVL33-1
 3254 03ca 0100     		.2byte	0x1
 3255 03cc 50       		.byte	0x50
 3256 03cd 0F000000 		.4byte	.LVL33-1
 3257 03d1 20000000 		.4byte	.LFE17
 3258 03d5 0100     		.2byte	0x1
 3259 03d7 54       		.byte	0x54
 3260 03d8 00000000 		.4byte	0
 3261 03dc 00000000 		.4byte	0
 3262              	.LLST26:
 3263 03e0 00000000 		.4byte	.LVL32
 3264 03e4 0F000000 		.4byte	.LVL33-1
 3265 03e8 0100     		.2byte	0x1
 3266 03ea 51       		.byte	0x51
 3267 03eb 0F000000 		.4byte	.LVL33-1
 3268 03ef 20000000 		.4byte	.LFE17
 3269 03f3 0400     		.2byte	0x4
 3270 03f5 F3       		.byte	0xf3
 3271 03f6 01       		.uleb128 0x1
 3272 03f7 51       		.byte	0x51
 3273 03f8 9F       		.byte	0x9f
 3274 03f9 00000000 		.4byte	0
 3275 03fd 00000000 		.4byte	0
 3276              	.LLST27:
 3277 0401 00000000 		.4byte	.LVL34
 3278 0405 0F000000 		.4byte	.LVL35-1
 3279 0409 0100     		.2byte	0x1
 3280 040b 50       		.byte	0x50
 3281 040c 0F000000 		.4byte	.LVL35-1
 3282 0410 34000000 		.4byte	.LFE18
 3283 0414 0100     		.2byte	0x1
 3284 0416 54       		.byte	0x54
 3285 0417 00000000 		.4byte	0
 3286 041b 00000000 		.4byte	0
 3287              	.LLST28:
 3288 041f 00000000 		.4byte	.LVL39
 3289 0423 18000000 		.4byte	.LVL40
 3290 0427 0100     		.2byte	0x1
 3291 0429 50       		.byte	0x50
 3292 042a 18000000 		.4byte	.LVL40
 3293 042e 38000000 		.4byte	.LVL42
 3294 0432 0100     		.2byte	0x1
 3295 0434 54       		.byte	0x54
 3296 0435 38000000 		.4byte	.LVL42
 3297 0439 3B000000 		.4byte	.LVL43-1
 3298 043d 0300     		.2byte	0x3
 3299 043f 70       		.byte	0x70
 3300 0440 7C       		.sleb128 -4
 3301 0441 9F       		.byte	0x9f
 3302 0442 3B000000 		.4byte	.LVL43-1
 3303 0446 3C000000 		.4byte	.LVL43
 3304 044a 0400     		.2byte	0x4
 3305 044c F3       		.byte	0xf3
 3306 044d 01       		.uleb128 0x1
ARM GAS  /tmp/ccAd5cZq.s 			page 59


 3307 044e 50       		.byte	0x50
 3308 044f 9F       		.byte	0x9f
 3309 0450 3C000000 		.4byte	.LVL43
 3310 0454 40000000 		.4byte	.LVL44
 3311 0458 0100     		.2byte	0x1
 3312 045a 50       		.byte	0x50
 3313 045b 40000000 		.4byte	.LVL44
 3314 045f 4C000000 		.4byte	.LFE19
 3315 0463 0100     		.2byte	0x1
 3316 0465 54       		.byte	0x54
 3317 0466 00000000 		.4byte	0
 3318 046a 00000000 		.4byte	0
 3319              	.LLST29:
 3320 046e 00000000 		.4byte	.LVL39
 3321 0472 18000000 		.4byte	.LVL40
 3322 0476 0100     		.2byte	0x1
 3323 0478 51       		.byte	0x51
 3324 0479 18000000 		.4byte	.LVL40
 3325 047d 3C000000 		.4byte	.LVL43
 3326 0481 0400     		.2byte	0x4
 3327 0483 F3       		.byte	0xf3
 3328 0484 01       		.uleb128 0x1
 3329 0485 51       		.byte	0x51
 3330 0486 9F       		.byte	0x9f
 3331 0487 3C000000 		.4byte	.LVL43
 3332 048b 44000000 		.4byte	.LVL45
 3333 048f 0100     		.2byte	0x1
 3334 0491 51       		.byte	0x51
 3335 0492 44000000 		.4byte	.LVL45
 3336 0496 4C000000 		.4byte	.LFE19
 3337 049a 0400     		.2byte	0x4
 3338 049c F3       		.byte	0xf3
 3339 049d 01       		.uleb128 0x1
 3340 049e 51       		.byte	0x51
 3341 049f 9F       		.byte	0x9f
 3342 04a0 00000000 		.4byte	0
 3343 04a4 00000000 		.4byte	0
 3344              	.LLST30:
 3345 04a8 00000000 		.4byte	.LVL47
 3346 04ac 0C000000 		.4byte	.LVL48
 3347 04b0 0100     		.2byte	0x1
 3348 04b2 50       		.byte	0x50
 3349 04b3 0C000000 		.4byte	.LVL48
 3350 04b7 34000000 		.4byte	.LFE20
 3351 04bb 0100     		.2byte	0x1
 3352 04bd 54       		.byte	0x54
 3353 04be 00000000 		.4byte	0
 3354 04c2 00000000 		.4byte	0
 3355              		.section	.debug_aranges,"",%progbits
 3356 0000 84000000 		.4byte	0x84
 3357 0004 0200     		.2byte	0x2
 3358 0006 00000000 		.4byte	.Ldebug_info0
 3359 000a 04       		.byte	0x4
 3360 000b 00       		.byte	0
 3361 000c 0000     		.2byte	0
 3362 000e 0000     		.2byte	0
 3363 0010 00000000 		.4byte	.LFB14
ARM GAS  /tmp/ccAd5cZq.s 			page 60


 3364 0014 08000000 		.4byte	.LFE14-.LFB14
 3365 0018 00000000 		.4byte	.LFB8
 3366 001c 0C000000 		.4byte	.LFE8-.LFB8
 3367 0020 00000000 		.4byte	.LFB13
 3368 0024 08000000 		.4byte	.LFE13-.LFB13
 3369 0028 00000000 		.4byte	.LFB7
 3370 002c 0C000000 		.4byte	.LFE7-.LFB7
 3371 0030 00000000 		.4byte	.LFB12
 3372 0034 08000000 		.4byte	.LFE12-.LFB12
 3373 0038 00000000 		.4byte	.LFB10
 3374 003c 0C000000 		.4byte	.LFE10-.LFB10
 3375 0040 00000000 		.4byte	.LFB11
 3376 0044 08000000 		.4byte	.LFE11-.LFB11
 3377 0048 00000000 		.4byte	.LFB9
 3378 004c 0C000000 		.4byte	.LFE9-.LFB9
 3379 0050 00000000 		.4byte	.LFB15
 3380 0054 04000000 		.4byte	.LFE15-.LFB15
 3381 0058 00000000 		.4byte	.LFB16
 3382 005c 60000000 		.4byte	.LFE16-.LFB16
 3383 0060 00000000 		.4byte	.LFB17
 3384 0064 20000000 		.4byte	.LFE17-.LFB17
 3385 0068 00000000 		.4byte	.LFB18
 3386 006c 34000000 		.4byte	.LFE18-.LFB18
 3387 0070 00000000 		.4byte	.LFB19
 3388 0074 4C000000 		.4byte	.LFE19-.LFB19
 3389 0078 00000000 		.4byte	.LFB20
 3390 007c 34000000 		.4byte	.LFE20-.LFB20
 3391 0080 00000000 		.4byte	0
 3392 0084 00000000 		.4byte	0
 3393              		.section	.debug_ranges,"",%progbits
 3394              	.Ldebug_ranges0:
 3395 0000 00000000 		.4byte	.LFB14
 3396 0004 08000000 		.4byte	.LFE14
 3397 0008 00000000 		.4byte	.LFB8
 3398 000c 0C000000 		.4byte	.LFE8
 3399 0010 00000000 		.4byte	.LFB13
 3400 0014 08000000 		.4byte	.LFE13
 3401 0018 00000000 		.4byte	.LFB7
 3402 001c 0C000000 		.4byte	.LFE7
 3403 0020 00000000 		.4byte	.LFB12
 3404 0024 08000000 		.4byte	.LFE12
 3405 0028 00000000 		.4byte	.LFB10
 3406 002c 0C000000 		.4byte	.LFE10
 3407 0030 00000000 		.4byte	.LFB11
 3408 0034 08000000 		.4byte	.LFE11
 3409 0038 00000000 		.4byte	.LFB9
 3410 003c 0C000000 		.4byte	.LFE9
 3411 0040 00000000 		.4byte	.LFB15
 3412 0044 04000000 		.4byte	.LFE15
 3413 0048 00000000 		.4byte	.LFB16
 3414 004c 60000000 		.4byte	.LFE16
 3415 0050 00000000 		.4byte	.LFB17
 3416 0054 20000000 		.4byte	.LFE17
 3417 0058 00000000 		.4byte	.LFB18
 3418 005c 34000000 		.4byte	.LFE18
 3419 0060 00000000 		.4byte	.LFB19
 3420 0064 4C000000 		.4byte	.LFE19
ARM GAS  /tmp/ccAd5cZq.s 			page 61


 3421 0068 00000000 		.4byte	.LFB20
 3422 006c 34000000 		.4byte	.LFE20
 3423 0070 00000000 		.4byte	0
 3424 0074 00000000 		.4byte	0
 3425              		.section	.debug_line,"",%progbits
 3426              	.Ldebug_line0:
 3427 0000 B9020000 		.section	.debug_str,"MS",%progbits,1
 3427      0200A101 
 3427      00000201 
 3427      FB0E0D00 
 3427      01010101 
 3428              	.LASF110:
 3429 0000 63684F51 		.ascii	"chOQPutTimeout\000"
 3429      50757454 
 3429      696D656F 
 3429      757400
 3430              	.LASF41:
 3431 000f 705F6D73 		.ascii	"p_msg\000"
 3431      6700
 3432              	.LASF2:
 3433 0015 73697A65 		.ascii	"size_t\000"
 3433      5F7400
 3434              	.LASF61:
 3435 001c 7264796D 		.ascii	"rdymsg\000"
 3435      736700
 3436              	.LASF111:
 3437 0023 63684951 		.ascii	"chIQInit\000"
 3437      496E6974 
 3437      00
 3438              	.LASF78:
 3439 002c 4F757470 		.ascii	"OutputQueue\000"
 3439      75745175 
 3439      65756500 
 3440              	.LASF3:
 3441 0038 5F5F7569 		.ascii	"__uint8_t\000"
 3441      6E74385F 
 3441      7400
 3442              	.LASF107:
 3443 0042 63684951 		.ascii	"chIQReadTimeout\000"
 3443      52656164 
 3443      54696D65 
 3443      6F757400 
 3444              	.LASF12:
 3445 0052 6C6F6E67 		.ascii	"long long unsigned int\000"
 3445      206C6F6E 
 3445      6720756E 
 3445      7369676E 
 3445      65642069 
 3446              	.LASF88:
 3447 0069 62617564 		.ascii	"baud_rate\000"
 3447      5F726174 
 3447      6500
 3448              	.LASF62:
 3449 0073 65786974 		.ascii	"exitcode\000"
 3449      636F6465 
 3449      00
 3450              	.LASF29:
ARM GAS  /tmp/ccAd5cZq.s 			page 62


 3451 007c 705F7072 		.ascii	"p_prio\000"
 3451      696F00
 3452              	.LASF96:
 3453 0083 72656164 		.ascii	"readt\000"
 3453      7400
 3454              	.LASF68:
 3455 0089 715F7761 		.ascii	"q_waiting\000"
 3455      6974696E 
 3455      6700
 3456              	.LASF11:
 3457 0093 6C6F6E67 		.ascii	"long long int\000"
 3457      206C6F6E 
 3457      6720696E 
 3457      7400
 3458              	.LASF1:
 3459 00a1 7369676E 		.ascii	"signed char\000"
 3459      65642063 
 3459      68617200 
 3460              	.LASF80:
 3461 00ad 53445F53 		.ascii	"SD_STOP\000"
 3461      544F5000 
 3462              	.LASF16:
 3463 00b5 626F6F6C 		.ascii	"bool_t\000"
 3463      5F7400
 3464              	.LASF51:
 3465 00bc 6D5F7175 		.ascii	"m_queue\000"
 3465      65756500 
 3466              	.LASF20:
 3467 00c4 74736C69 		.ascii	"tslices_t\000"
 3467      6365735F 
 3467      7400
 3468              	.LASF85:
 3469 00ce 73746174 		.ascii	"state\000"
 3469      6500
 3470              	.LASF112:
 3471 00d4 63684F51 		.ascii	"chOQInit\000"
 3471      496E6974 
 3471      00
 3472              	.LASF8:
 3473 00dd 6C6F6E67 		.ascii	"long int\000"
 3473      20696E74 
 3473      00
 3474              	.LASF18:
 3475 00e6 74737461 		.ascii	"tstate_t\000"
 3475      74655F74 
 3475      00
 3476              	.LASF121:
 3477 00ef 63684F51 		.ascii	"chOQGetI\000"
 3477      47657449 
 3477      00
 3478              	.LASF117:
 3479 00f8 73645F6C 		.ascii	"sd_lld_init\000"
 3479      6C645F69 
 3479      6E697400 
 3480              	.LASF70:
 3481 0104 715F6275 		.ascii	"q_buffer\000"
 3481      66666572 
ARM GAS  /tmp/ccAd5cZq.s 			page 63


 3481      00
 3482              	.LASF72:
 3483 010d 715F7772 		.ascii	"q_wrptr\000"
 3483      70747200 
 3484              	.LASF120:
 3485 0115 63684576 		.ascii	"chEvtBroadcastFlagsI\000"
 3485      7442726F 
 3485      61646361 
 3485      7374466C 
 3485      61677349 
 3486              	.LASF31:
 3487 012a 705F6E65 		.ascii	"p_newer\000"
 3487      77657200 
 3488              	.LASF118:
 3489 0132 63685363 		.ascii	"chSchRescheduleS\000"
 3489      68526573 
 3489      63686564 
 3489      756C6553 
 3489      00
 3490              	.LASF9:
 3491 0143 5F5F7569 		.ascii	"__uint32_t\000"
 3491      6E743332 
 3491      5F7400
 3492              	.LASF47:
 3493 014e 72656761 		.ascii	"regarm_t\000"
 3493      726D5F74 
 3493      00
 3494              	.LASF119:
 3495 0157 63684951 		.ascii	"chIQPutI\000"
 3495      50757449 
 3495      00
 3496              	.LASF59:
 3497 0160 4576656E 		.ascii	"EventSource\000"
 3497      74536F75 
 3497      72636500 
 3498              	.LASF0:
 3499 016c 756E7369 		.ascii	"unsigned int\000"
 3499      676E6564 
 3499      20696E74 
 3499      00
 3500              	.LASF90:
 3501 0179 53657269 		.ascii	"SerialDriverVMT\000"
 3501      616C4472 
 3501      69766572 
 3501      564D5400 
 3502              	.LASF116:
 3503 0189 63684951 		.ascii	"chIQResetI\000"
 3503      52657365 
 3503      744900
 3504              	.LASF101:
 3505 0194 696E6F74 		.ascii	"inotify\000"
 3505      69667900 
 3506              	.LASF86:
 3507 019c 69717565 		.ascii	"iqueue\000"
 3507      756500
 3508              	.LASF10:
 3509 01a3 6C6F6E67 		.ascii	"long unsigned int\000"
ARM GAS  /tmp/ccAd5cZq.s 			page 64


 3509      20756E73 
 3509      69676E65 
 3509      6420696E 
 3509      7400
 3510              	.LASF98:
 3511 01b5 74696D65 		.ascii	"timeout\000"
 3511      6F757400 
 3512              	.LASF94:
 3513 01bd 67657474 		.ascii	"gett\000"
 3513      00
 3514              	.LASF84:
 3515 01c2 6576656E 		.ascii	"event\000"
 3515      7400
 3516              	.LASF49:
 3517 01c8 636F6E74 		.ascii	"context\000"
 3517      65787400 
 3518              	.LASF6:
 3519 01d0 73686F72 		.ascii	"short unsigned int\000"
 3519      7420756E 
 3519      7369676E 
 3519      65642069 
 3519      6E7400
 3520              	.LASF22:
 3521 01e3 6D73675F 		.ascii	"msg_t\000"
 3521      7400
 3522              	.LASF87:
 3523 01e9 6F717565 		.ascii	"oqueue\000"
 3523      756500
 3524              	.LASF55:
 3525 01f0 656C5F6E 		.ascii	"el_next\000"
 3525      65787400 
 3526              	.LASF95:
 3527 01f8 77726974 		.ascii	"writet\000"
 3527      657400
 3528              	.LASF17:
 3529 01ff 746D6F64 		.ascii	"tmode_t\000"
 3529      655F7400 
 3530              	.LASF46:
 3531 0207 54687265 		.ascii	"ThreadsList\000"
 3531      6164734C 
 3531      69737400 
 3532              	.LASF23:
 3533 0213 6576656E 		.ascii	"eventmask_t\000"
 3533      746D6173 
 3533      6B5F7400 
 3534              	.LASF77:
 3535 021f 496E7075 		.ascii	"InputQueue\000"
 3535      74517565 
 3535      756500
 3536              	.LASF50:
 3537 022a 4D757465 		.ascii	"Mutex\000"
 3537      7800
 3538              	.LASF67:
 3539 0230 47656E65 		.ascii	"GenericQueue\000"
 3539      72696351 
 3539      75657565 
 3539      00
ARM GAS  /tmp/ccAd5cZq.s 			page 65


 3540              	.LASF108:
 3541 023d 63684F51 		.ascii	"chOQWriteTimeout\000"
 3541      57726974 
 3541      6554696D 
 3541      656F7574 
 3541      00
 3542              	.LASF91:
 3543 024e 77726974 		.ascii	"write\000"
 3543      6500
 3544              	.LASF93:
 3545 0254 70757474 		.ascii	"putt\000"
 3545      00
 3546              	.LASF66:
 3547 0259 73697A65 		.ascii	"sizetype\000"
 3547      74797065 
 3547      00
 3548              	.LASF69:
 3549 0262 715F636F 		.ascii	"q_counter\000"
 3549      756E7465 
 3549      7200
 3550              	.LASF32:
 3551 026c 705F6F6C 		.ascii	"p_older\000"
 3551      64657200 
 3552              	.LASF45:
 3553 0274 54687265 		.ascii	"ThreadsQueue\000"
 3553      61647351 
 3553      75657565 
 3553      00
 3554              	.LASF105:
 3555 0281 73645374 		.ascii	"sdStop\000"
 3555      6F7000
 3556              	.LASF97:
 3557 0288 74696D65 		.ascii	"time\000"
 3557      00
 3558              	.LASF57:
 3559 028d 656C5F6D 		.ascii	"el_mask\000"
 3559      61736B00 
 3560              	.LASF89:
 3561 0295 53657269 		.ascii	"SerialConfig\000"
 3561      616C436F 
 3561      6E666967 
 3561      00
 3562              	.LASF19:
 3563 02a2 74726566 		.ascii	"trefs_t\000"
 3563      735F7400 
 3564              	.LASF76:
 3565 02aa 716E6F74 		.ascii	"qnotify_t\000"
 3565      6966795F 
 3565      7400
 3566              	.LASF28:
 3567 02b4 705F7072 		.ascii	"p_prev\000"
 3567      657600
 3568              	.LASF21:
 3569 02bb 74707269 		.ascii	"tprio_t\000"
 3569      6F5F7400 
 3570              	.LASF73:
 3571 02c3 715F7264 		.ascii	"q_rdptr\000"
ARM GAS  /tmp/ccAd5cZq.s 			page 66


 3571      70747200 
 3572              	.LASF14:
 3573 02cb 696E7433 		.ascii	"int32_t\000"
 3573      325F7400 
 3574              	.LASF4:
 3575 02d3 756E7369 		.ascii	"unsigned char\000"
 3575      676E6564 
 3575      20636861 
 3575      7200
 3576              	.LASF113:
 3577 02e1 73645F6C 		.ascii	"sd_lld_start\000"
 3577      6C645F73 
 3577      74617274 
 3577      00
 3578              	.LASF56:
 3579 02ee 656C5F6C 		.ascii	"el_listener\000"
 3579      69737465 
 3579      6E657200 
 3580              	.LASF58:
 3581 02fa 656C5F66 		.ascii	"el_flags\000"
 3581      6C616773 
 3581      00
 3582              	.LASF43:
 3583 0303 705F6D74 		.ascii	"p_mtxlist\000"
 3583      786C6973 
 3583      7400
 3584              	.LASF5:
 3585 030d 73686F72 		.ascii	"short int\000"
 3585      7420696E 
 3585      7400
 3586              	.LASF34:
 3587 0317 705F7374 		.ascii	"p_state\000"
 3587      61746500 
 3588              	.LASF37:
 3589 031f 705F7072 		.ascii	"p_preempt\000"
 3589      65656D70 
 3589      7400
 3590              	.LASF100:
 3591 0329 73644F62 		.ascii	"sdObjectInit\000"
 3591      6A656374 
 3591      496E6974 
 3591      00
 3592              	.LASF64:
 3593 0336 65776D61 		.ascii	"ewmask\000"
 3593      736B00
 3594              	.LASF27:
 3595 033d 705F6E65 		.ascii	"p_next\000"
 3595      787400
 3596              	.LASF35:
 3597 0344 705F666C 		.ascii	"p_flags\000"
 3597      61677300 
 3598              	.LASF26:
 3599 034c 54687265 		.ascii	"Thread\000"
 3599      616400
 3600              	.LASF42:
 3601 0353 705F6570 		.ascii	"p_epending\000"
 3601      656E6469 
ARM GAS  /tmp/ccAd5cZq.s 			page 67


 3601      6E6700
 3602              	.LASF79:
 3603 035e 53445F55 		.ascii	"SD_UNINIT\000"
 3603      4E494E49 
 3603      5400
 3604              	.LASF15:
 3605 0368 75696E74 		.ascii	"uint32_t\000"
 3605      33325F74 
 3605      00
 3606              	.LASF82:
 3607 0371 73647374 		.ascii	"sdstate_t\000"
 3607      6174655F 
 3607      7400
 3608              	.LASF83:
 3609 037b 53657269 		.ascii	"SerialDriver\000"
 3609      616C4472 
 3609      69766572 
 3609      00
 3610              	.LASF92:
 3611 0388 72656164 		.ascii	"read\000"
 3611      00
 3612              	.LASF65:
 3613 038d 63686172 		.ascii	"char\000"
 3613      00
 3614              	.LASF106:
 3615 0392 7364496E 		.ascii	"sdIncomingDataI\000"
 3615      636F6D69 
 3615      6E674461 
 3615      74614900 
 3616              	.LASF104:
 3617 03a2 636F6E66 		.ascii	"config\000"
 3617      696700
 3618              	.LASF103:
 3619 03a9 73645374 		.ascii	"sdStart\000"
 3619      61727400 
 3620              	.LASF53:
 3621 03b1 6D5F6E65 		.ascii	"m_next\000"
 3621      787400
 3622              	.LASF25:
 3623 03b8 73797374 		.ascii	"systime_t\000"
 3623      696D655F 
 3623      7400
 3624              	.LASF44:
 3625 03c2 705F7265 		.ascii	"p_realprio\000"
 3625      616C7072 
 3625      696F00
 3626              	.LASF7:
 3627 03cd 5F5F696E 		.ascii	"__int32_t\000"
 3627      7433325F 
 3627      7400
 3628              	.LASF115:
 3629 03d7 63684F51 		.ascii	"chOQResetI\000"
 3629      52657365 
 3629      744900
 3630              	.LASF38:
 3631 03e2 705F7469 		.ascii	"p_time\000"
 3631      6D6500
ARM GAS  /tmp/ccAd5cZq.s 			page 68


 3632              	.LASF48:
 3633 03e9 696E7463 		.ascii	"intctx\000"
 3633      747800
 3634              	.LASF40:
 3635 03f0 705F6D73 		.ascii	"p_msgqueue\000"
 3635      67717565 
 3635      756500
 3636              	.LASF81:
 3637 03fb 53445F52 		.ascii	"SD_READY\000"
 3637      45414459 
 3637      00
 3638              	.LASF124:
 3639 0404 2F686F6D 		.ascii	"/home/hunter/development/chibi/ChibiOS-RPi/demos/AR"
 3639      652F6875 
 3639      6E746572 
 3639      2F646576 
 3639      656C6F70 
 3640 0437 4D31312D 		.ascii	"M11-BCM2835-GCC\000"
 3640      42434D32 
 3640      3833352D 
 3640      47434300 
 3641              	.LASF24:
 3642 0447 666C6167 		.ascii	"flagsmask_t\000"
 3642      736D6173 
 3642      6B5F7400 
 3643              	.LASF71:
 3644 0453 715F746F 		.ascii	"q_top\000"
 3644      7000
 3645              	.LASF36:
 3646 0459 705F7265 		.ascii	"p_refs\000"
 3646      667300
 3647              	.LASF74:
 3648 0460 715F6E6F 		.ascii	"q_notify\000"
 3648      74696679 
 3648      00
 3649              	.LASF125:
 3650 0469 73645265 		.ascii	"sdRequestDataI\000"
 3650      71756573 
 3650      74446174 
 3650      614900
 3651              	.LASF13:
 3652 0478 75696E74 		.ascii	"uint8_t\000"
 3652      385F7400 
 3653              	.LASF123:
 3654 0480 2E2E2F2E 		.ascii	"../../os/hal/src/serial.c\000"
 3654      2E2F6F73 
 3654      2F68616C 
 3654      2F737263 
 3654      2F736572 
 3655              	.LASF102:
 3656 049a 6F6E6F74 		.ascii	"onotify\000"
 3656      69667900 
 3657              	.LASF54:
 3658 04a2 4576656E 		.ascii	"EventListener\000"
 3658      744C6973 
 3658      74656E65 
 3658      7200
ARM GAS  /tmp/ccAd5cZq.s 			page 69


 3659              	.LASF63:
 3660 04b0 77746F62 		.ascii	"wtobjp\000"
 3660      6A7000
 3661              	.LASF33:
 3662 04b7 705F6E61 		.ascii	"p_name\000"
 3662      6D6500
 3663              	.LASF122:
 3664 04be 474E5520 		.ascii	"GNU C 4.9.3 20150529 (prerelease) -mcpu=arm1176jz-s"
 3664      4320342E 
 3664      392E3320 
 3664      32303135 
 3664      30353239 
 3665 04f1 202D6D6E 		.ascii	" -mno-thumb-interwork -ggdb -O2 -fomit-frame-pointe"
 3665      6F2D7468 
 3665      756D622D 
 3665      696E7465 
 3665      72776F72 
 3666 0524 72202D66 		.ascii	"r -ffunction-sections -fdata-sections\000"
 3666      66756E63 
 3666      74696F6E 
 3666      2D736563 
 3666      74696F6E 
 3667              	.LASF60:
 3668 054a 65735F6E 		.ascii	"es_next\000"
 3668      65787400 
 3669              	.LASF114:
 3670 0552 73645F6C 		.ascii	"sd_lld_stop\000"
 3670      6C645F73 
 3670      746F7000 
 3671              	.LASF99:
 3672 055e 7364496E 		.ascii	"sdInit\000"
 3672      697400
 3673              	.LASF75:
 3674 0565 715F6C69 		.ascii	"q_link\000"
 3674      6E6B00
 3675              	.LASF52:
 3676 056c 6D5F6F77 		.ascii	"m_owner\000"
 3676      6E657200 
 3677              	.LASF30:
 3678 0574 705F6374 		.ascii	"p_ctx\000"
 3678      7800
 3679              	.LASF39:
 3680 057a 705F7761 		.ascii	"p_waiting\000"
 3680      6974696E 
 3680      6700
 3681              	.LASF109:
 3682 0584 63684951 		.ascii	"chIQGetTimeout\000"
 3682      47657454 
 3682      696D656F 
 3682      757400
 3683              		.ident	"GCC: (15:4.9.3+svn231177-1) 4.9.3 20150529 (prerelease)"
ARM GAS  /tmp/ccAd5cZq.s 			page 70


DEFINED SYMBOLS
                            *ABS*:0000000000000000 serial.c
     /tmp/ccAd5cZq.s:17     .text.readt:0000000000000000 $a
     /tmp/ccAd5cZq.s:19     .text.readt:0000000000000000 readt
     /tmp/ccAd5cZq.s:37     .text.read:0000000000000000 $a
     /tmp/ccAd5cZq.s:39     .text.read:0000000000000000 read
     /tmp/ccAd5cZq.s:57     .text.writet:0000000000000000 $a
     /tmp/ccAd5cZq.s:59     .text.writet:0000000000000000 writet
     /tmp/ccAd5cZq.s:76     .text.write:0000000000000000 $a
     /tmp/ccAd5cZq.s:78     .text.write:0000000000000000 write
     /tmp/ccAd5cZq.s:96     .text.gett:0000000000000000 $a
     /tmp/ccAd5cZq.s:98     .text.gett:0000000000000000 gett
     /tmp/ccAd5cZq.s:115    .text.get:0000000000000000 $a
     /tmp/ccAd5cZq.s:117    .text.get:0000000000000000 get
     /tmp/ccAd5cZq.s:135    .text.putt:0000000000000000 $a
     /tmp/ccAd5cZq.s:137    .text.putt:0000000000000000 putt
     /tmp/ccAd5cZq.s:154    .text.put:0000000000000000 $a
     /tmp/ccAd5cZq.s:156    .text.put:0000000000000000 put
     /tmp/ccAd5cZq.s:174    .text.sdInit:0000000000000000 $a
     /tmp/ccAd5cZq.s:177    .text.sdInit:0000000000000000 sdInit
     /tmp/ccAd5cZq.s:191    .text.sdObjectInit:0000000000000000 $a
     /tmp/ccAd5cZq.s:194    .text.sdObjectInit:0000000000000000 sdObjectInit
     /tmp/ccAd5cZq.s:252    .text.sdObjectInit:000000000000005c $d
     /tmp/ccAd5cZq.s:257    .text.sdStart:0000000000000000 $a
     /tmp/ccAd5cZq.s:260    .text.sdStart:0000000000000000 sdStart
     /tmp/ccAd5cZq.s:292    .text.sdStop:0000000000000000 $a
     /tmp/ccAd5cZq.s:295    .text.sdStop:0000000000000000 sdStop
     /tmp/ccAd5cZq.s:340    .text.sdIncomingDataI:0000000000000000 $a
     /tmp/ccAd5cZq.s:343    .text.sdIncomingDataI:0000000000000000 sdIncomingDataI
     /tmp/ccAd5cZq.s:404    .text.sdRequestDataI:0000000000000000 $a
     /tmp/ccAd5cZq.s:407    .text.sdRequestDataI:0000000000000000 sdRequestDataI
     /tmp/ccAd5cZq.s:446    .rodata.vmt:0000000000000000 $d
     /tmp/ccAd5cZq.s:450    .rodata.vmt:0000000000000000 vmt
                     .debug_frame:0000000000000010 $d

UNDEFINED SYMBOLS
chIQReadTimeout
chOQWriteTimeout
chIQGetTimeout
chOQPutTimeout
sd_lld_init
chIQInit
chOQInit
sd_lld_start
sd_lld_stop
chOQResetI
chIQResetI
chSchRescheduleS
chIQPutI
chEvtBroadcastFlagsI
chOQGetI
