ARM GAS  /tmp/ccYForOS.s 			page 1


   1              		.cpu arm1176jz-s
   2              		.fpu softvfp
   3              		.eabi_attribute 20, 1
   4              		.eabi_attribute 21, 1
   5              		.eabi_attribute 23, 3
   6              		.eabi_attribute 24, 1
   7              		.eabi_attribute 25, 1
   8              		.eabi_attribute 26, 1
   9              		.eabi_attribute 30, 2
  10              		.eabi_attribute 34, 1
  11              		.eabi_attribute 18, 4
  12              		.file	"serial_lld.c"
  13              		.text
  14              	.Ltext0:
  15              		.cfi_sections	.debug_frame
  16              		.section	.text.output_notify,"ax",%progbits
  17              		.align	2
  18              		.type	output_notify, %function
  19              	output_notify:
  20              	.LFB7:
  21              		.file 1 "../../os/hal/platforms/BCM2835/serial_lld.c"
  22              		.loc 1 59 0
  23              		.cfi_startproc
  24              		@ args = 0, pretend = 0, frame = 0
  25              		@ frame_needed = 0, uses_anonymous_args = 0
  26              		@ link register save eliminated.
  27              	.LVL0:
  28              		.loc 1 62 0
  29 0000 0C209FE5 		ldr	r2, .L2
  30 0004 443092E5 		ldr	r3, [r2, #68]
  31 0008 023083E3 		orr	r3, r3, #2
  32 000c 443082E5 		str	r3, [r2, #68]
  33 0010 1EFF2FE1 		bx	lr
  34              	.L3:
  35              		.align	2
  36              	.L2:
  37 0014 00502120 		.word	539054080
  38              		.cfi_endproc
  39              	.LFE7:
  40              		.size	output_notify, .-output_notify
  41              		.section	.text.sd_lld_serve_interrupt,"ax",%progbits
  42              		.align	2
  43              		.global	sd_lld_serve_interrupt
  44              		.type	sd_lld_serve_interrupt, %function
  45              	sd_lld_serve_interrupt:
  46              	.LFB8:
  47              		.loc 1 69 0
  48              		.cfi_startproc
  49              		@ args = 0, pretend = 0, frame = 0
  50              		@ frame_needed = 0, uses_anonymous_args = 0
  51              	.LVL1:
  52              		.loc 1 70 0
  53 0000 A0209FE5 		ldr	r2, .L25
  54              		.loc 1 69 0
  55 0004 38402DE9 		stmfd	sp!, {r3, r4, r5, lr}
  56              		.cfi_def_cfa_offset 16
  57              		.cfi_offset 3, -16
ARM GAS  /tmp/ccYForOS.s 			page 2


  58              		.cfi_offset 4, -12
  59              		.cfi_offset 5, -8
  60              		.cfi_offset 14, -4
  61              		.loc 1 70 0
  62 0008 483092E5 		ldr	r3, [r2, #72]
  63              		.loc 1 69 0
  64 000c 0050A0E1 		mov	r5, r0
  65              		.loc 1 70 0
  66 0010 073003E2 		and	r3, r3, #7
  67 0014 040053E3 		cmp	r3, #4
  68 0018 1200000A 		beq	.L5
  69              	.LVL2:
  70              	.L9:
  71              		.loc 1 79 0
  72 001c 84209FE5 		ldr	r2, .L25
  73 0020 483092E5 		ldr	r3, [r2, #72]
  74 0024 073003E2 		and	r3, r3, #7
  75 0028 020053E3 		cmp	r3, #2
  76 002c 3880BD18 		ldmnefd	sp!, {r3, r4, r5, pc}
  77              	.L6:
  78              	.LBB15:
  79              		.loc 1 81 0 discriminator 1
  80 0030 543092E5 		ldr	r3, [r2, #84]
  81 0034 6C409FE5 		ldr	r4, .L25
  82 0038 200013E3 		tst	r3, #32
  83 003c FBFFFF0A 		beq	.L6
  84              		.loc 1 82 0
  85 0040 0500A0E1 		mov	r0, r5
  86 0044 FEFFFFEB 		bl	sdRequestDataI
  87              	.LVL3:
  88              		.loc 1 83 0
  89 0048 000050E3 		cmp	r0, #0
  90 004c 110000BA 		blt	.L24
  91              	.L11:
  92              	.LBB16:
  93              	.LBB17:
  94              		.loc 1 174 0
  95 0050 543094E5 		ldr	r3, [r4, #84]
  96 0054 4C209FE5 		ldr	r2, .L25
  97 0058 200013E3 		tst	r3, #32
  98 005c FBFFFF0A 		beq	.L11
  99              		.loc 1 175 0
 100 0060 400082E5 		str	r0, [r2, #64]
 101 0064 3880BDE8 		ldmfd	sp!, {r3, r4, r5, pc}
 102              	.LVL4:
 103              	.L5:
 104              	.LBE17:
 105              	.LBE16:
 106              	.LBE15:
 107              		.loc 1 72 0 discriminator 1
 108 0068 543092E5 		ldr	r3, [r2, #84]
 109 006c 010013E3 		tst	r3, #1
 110 0070 FCFFFF0A 		beq	.L5
 111              		.loc 1 74 0 discriminator 1
 112 0074 2C409FE5 		ldr	r4, .L25
 113              	.LVL5:
 114              	.L17:
ARM GAS  /tmp/ccYForOS.s 			page 3


 115 0078 401094E5 		ldr	r1, [r4, #64]
 116 007c 0500A0E1 		mov	r0, r5
 117 0080 7110EFE6 		uxtb	r1, r1
 118 0084 FEFFFFEB 		bl	sdIncomingDataI
 119              	.LVL6:
 120              		.loc 1 75 0 discriminator 1
 121 0088 543094E5 		ldr	r3, [r4, #84]
 122 008c 010013E3 		tst	r3, #1
 123 0090 F8FFFF1A 		bne	.L17
 124 0094 E0FFFFEA 		b	.L9
 125              	.LVL7:
 126              	.L24:
 127              	.LBB18:
 128              		.loc 1 85 0
 129 0098 443094E5 		ldr	r3, [r4, #68]
 130 009c 0230C3E3 		bic	r3, r3, #2
 131 00a0 443084E5 		str	r3, [r4, #68]
 132 00a4 3880BDE8 		ldmfd	sp!, {r3, r4, r5, pc}
 133              	.L26:
 134              		.align	2
 135              	.L25:
 136 00a8 00502120 		.word	539054080
 137              	.LBE18:
 138              		.cfi_endproc
 139              	.LFE8:
 140              		.size	sd_lld_serve_interrupt, .-sd_lld_serve_interrupt
 141              		.section	.text.sd_lld_init,"ax",%progbits
 142              		.align	2
 143              		.global	sd_lld_init
 144              		.type	sd_lld_init, %function
 145              	sd_lld_init:
 146              	.LFB9:
 147              		.loc 1 103 0
 148              		.cfi_startproc
 149              		@ args = 0, pretend = 0, frame = 0
 150              		@ frame_needed = 0, uses_anonymous_args = 0
 151              		@ link register save eliminated.
 152              		.loc 1 104 0
 153 0000 08009FE5 		ldr	r0, .L28
 154 0004 0010A0E3 		mov	r1, #0
 155 0008 04209FE5 		ldr	r2, .L28+4
 156 000c FEFFFFEA 		b	sdObjectInit
 157              	.LVL8:
 158              	.L29:
 159              		.align	2
 160              	.L28:
 161 0010 00000000 		.word	SD1
 162 0014 00000000 		.word	output_notify
 163              		.cfi_endproc
 164              	.LFE9:
 165              		.size	sd_lld_init, .-sd_lld_init
 166              		.global	__aeabi_uidiv
 167              		.section	.text.sd_lld_start,"ax",%progbits
 168              		.align	2
 169              		.global	sd_lld_start
 170              		.type	sd_lld_start, %function
 171              	sd_lld_start:
ARM GAS  /tmp/ccYForOS.s 			page 4


 172              	.LFB10:
 173              		.loc 1 117 0
 174              		.cfi_startproc
 175              		@ args = 0, pretend = 0, frame = 0
 176              		@ frame_needed = 0, uses_anonymous_args = 0
 177              	.LVL9:
 178 0000 F8432DE9 		stmfd	sp!, {r3, r4, r5, r6, r7, r8, r9, lr}
 179              		.cfi_def_cfa_offset 32
 180              		.cfi_offset 3, -32
 181              		.cfi_offset 4, -28
 182              		.cfi_offset 5, -24
 183              		.cfi_offset 6, -20
 184              		.cfi_offset 7, -16
 185              		.cfi_offset 8, -12
 186              		.cfi_offset 9, -8
 187              		.cfi_offset 14, -4
 188              		.loc 1 127 0
 189 0004 0050A0E3 		mov	r5, #0
 190              		.loc 1 121 0
 191 0008 A0309FE5 		ldr	r3, .L33
 192 000c 050051E1 		cmp	r1, r5
 193              		.loc 1 125 0
 194 0010 01C0A0E3 		mov	ip, #1
 195              		.loc 1 132 0
 196 0014 C620A0E3 		mov	r2, #198
 197              		.loc 1 129 0
 198 0018 0390A0E3 		mov	r9, #3
 199              		.loc 1 123 0
 200 001c 0282A0E3 		mov	r8, #536870912
 201              		.loc 1 131 0
 202 0020 0500A0E3 		mov	r0, #5
 203              	.LVL10:
 204              		.loc 1 121 0
 205 0024 0310A001 		moveq	r1, r3
 206              	.LVL11:
 207              		.loc 1 125 0
 208 0028 84409FE5 		ldr	r4, .L33+4
 209              		.loc 1 123 0
 210 002c 84709FE5 		ldr	r7, .L33+8
 211              		.loc 1 138 0
 212 0030 84609FE5 		ldr	r6, .L33+12
 213              		.loc 1 123 0
 214 0034 1C8287E5 		str	r8, [r7, #540]
 215              		.loc 1 125 0
 216 0038 04C084E5 		str	ip, [r4, #4]
 217              		.loc 1 127 0
 218 003c 445084E5 		str	r5, [r4, #68]
 219              		.loc 1 128 0
 220 0040 605084E5 		str	r5, [r4, #96]
 221              		.loc 1 129 0
 222 0044 4C9084E5 		str	r9, [r4, #76]
 223              		.loc 1 130 0
 224 0048 505084E5 		str	r5, [r4, #80]
 225              		.loc 1 131 0
 226 004c 440084E5 		str	r0, [r4, #68]
 227              		.loc 1 132 0
 228 0050 482084E5 		str	r2, [r4, #72]
ARM GAS  /tmp/ccYForOS.s 			page 5


 229              		.loc 1 133 0
 230 0054 001091E5 		ldr	r1, [r1]
 231              	.LVL12:
 232 0058 60009FE5 		ldr	r0, .L33+16
 233 005c 1119A0E1 		mov	r1, r1, asl r9
 234 0060 FEFFFFEB 		bl	__aeabi_uidiv
 235              	.LVL13:
 236 0064 010040E2 		sub	r0, r0, #1
 237 0068 680084E5 		str	r0, [r4, #104]
 238              		.loc 1 135 0
 239 006c 0210A0E3 		mov	r1, #2
 240 0070 0E00A0E3 		mov	r0, #14
 241 0074 FEFFFFEB 		bl	bcm2835_gpio_fnsel
 242              	.LVL14:
 243              		.loc 1 136 0
 244 0078 0210A0E3 		mov	r1, #2
 245 007c 0F00A0E3 		mov	r0, #15
 246 0080 FEFFFFEB 		bl	bcm2835_gpio_fnsel
 247              	.LVL15:
 248              		.loc 1 139 0
 249 0084 9600A0E3 		mov	r0, #150
 250              		.loc 1 138 0
 251 0088 945086E5 		str	r5, [r6, #148]
 252              		.loc 1 139 0
 253 008c FEFFFFEB 		bl	bcm2835_delay
 254              	.LVL16:
 255              		.loc 1 140 0
 256 0090 0339A0E3 		mov	r3, #49152
 257              		.loc 1 141 0
 258 0094 9600A0E3 		mov	r0, #150
 259              		.loc 1 140 0
 260 0098 983086E5 		str	r3, [r6, #152]
 261              		.loc 1 141 0
 262 009c FEFFFFEB 		bl	bcm2835_delay
 263              	.LVL17:
 264              		.loc 1 142 0
 265 00a0 985086E5 		str	r5, [r6, #152]
 266              		.loc 1 144 0
 267 00a4 609084E5 		str	r9, [r4, #96]
 268              		.loc 1 146 0
 269 00a8 108287E5 		str	r8, [r7, #528]
 270 00ac F883BDE8 		ldmfd	sp!, {r3, r4, r5, r6, r7, r8, r9, pc}
 271              	.L34:
 272              		.align	2
 273              	.L33:
 274 00b0 00000000 		.word	.LANCHOR0
 275 00b4 00502120 		.word	539054080
 276 00b8 00B00020 		.word	536915968
 277 00bc 00002020 		.word	538968064
 278 00c0 80B2E60E 		.word	250000000
 279              		.cfi_endproc
 280              	.LFE10:
 281              		.size	sd_lld_start, .-sd_lld_start
 282              		.section	.text.sd_lld_stop,"ax",%progbits
 283              		.align	2
 284              		.global	sd_lld_stop
 285              		.type	sd_lld_stop, %function
ARM GAS  /tmp/ccYForOS.s 			page 6


 286              	sd_lld_stop:
 287              	.LFB11:
 288              		.loc 1 158 0
 289              		.cfi_startproc
 290              		@ args = 0, pretend = 0, frame = 0
 291              		@ frame_needed = 0, uses_anonymous_args = 0
 292              	.LVL18:
 293              		.loc 1 161 0
 294 0000 28209FE5 		ldr	r2, .L37
 295              		.loc 1 158 0
 296 0004 08402DE9 		stmfd	sp!, {r3, lr}
 297              		.cfi_def_cfa_offset 8
 298              		.cfi_offset 3, -8
 299              		.cfi_offset 14, -4
 300              		.loc 1 161 0
 301 0008 1C3292E5 		ldr	r3, [r2, #540]
 302              		.loc 1 162 0
 303 000c 0E00A0E3 		mov	r0, #14
 304              	.LVL19:
 305              		.loc 1 161 0
 306 0010 023283E3 		orr	r3, r3, #536870912
 307              		.loc 1 162 0
 308 0014 0010A0E3 		mov	r1, #0
 309              		.loc 1 161 0
 310 0018 1C3282E5 		str	r3, [r2, #540]
 311              		.loc 1 162 0
 312 001c FEFFFFEB 		bl	bcm2835_gpio_fnsel
 313              	.LVL20:
 314              		.loc 1 164 0
 315 0020 0840BDE8 		ldmfd	sp!, {r3, lr}
 316              		.cfi_restore 14
 317              		.cfi_restore 3
 318              		.cfi_def_cfa_offset 0
 319              		.loc 1 163 0
 320 0024 0F00A0E3 		mov	r0, #15
 321 0028 0010A0E3 		mov	r1, #0
 322 002c FEFFFFEA 		b	bcm2835_gpio_fnsel
 323              	.LVL21:
 324              	.L38:
 325              		.align	2
 326              	.L37:
 327 0030 00B00020 		.word	536915968
 328              		.cfi_endproc
 329              	.LFE11:
 330              		.size	sd_lld_stop, .-sd_lld_stop
 331              		.section	.text.mini_uart_recv,"ax",%progbits
 332              		.align	2
 333              		.global	mini_uart_recv
 334              		.type	mini_uart_recv, %function
 335              	mini_uart_recv:
 336              	.LFB12:
 337              		.loc 1 167 0
 338              		.cfi_startproc
 339              		@ args = 0, pretend = 0, frame = 0
 340              		@ frame_needed = 0, uses_anonymous_args = 0
 341              		@ link register save eliminated.
 342              		.loc 1 168 0
ARM GAS  /tmp/ccYForOS.s 			page 7


 343 0000 18109FE5 		ldr	r1, .L43
 344              	.L40:
 345              		.loc 1 168 0 is_stmt 0 discriminator 1
 346 0004 543091E5 		ldr	r3, [r1, #84]
 347 0008 10209FE5 		ldr	r2, .L43
 348 000c 010013E3 		tst	r3, #1
 349 0010 FBFFFF0A 		beq	.L40
 350              		.loc 1 169 0 is_stmt 1
 351 0014 400092E5 		ldr	r0, [r2, #64]
 352              		.loc 1 170 0
 353 0018 7000EFE6 		uxtb	r0, r0
 354 001c 1EFF2FE1 		bx	lr
 355              	.L44:
 356              		.align	2
 357              	.L43:
 358 0020 00502120 		.word	539054080
 359              		.cfi_endproc
 360              	.LFE12:
 361              		.size	mini_uart_recv, .-mini_uart_recv
 362              		.section	.text.mini_uart_send,"ax",%progbits
 363              		.align	2
 364              		.global	mini_uart_send
 365              		.type	mini_uart_send, %function
 366              	mini_uart_send:
 367              	.LFB13:
 368              		.loc 1 173 0
 369              		.cfi_startproc
 370              		@ args = 0, pretend = 0, frame = 0
 371              		@ frame_needed = 0, uses_anonymous_args = 0
 372              		@ link register save eliminated.
 373              	.LVL22:
 374              		.loc 1 174 0
 375 0000 14109FE5 		ldr	r1, .L49
 376              	.L46:
 377              		.loc 1 174 0 is_stmt 0 discriminator 1
 378 0004 543091E5 		ldr	r3, [r1, #84]
 379 0008 0C209FE5 		ldr	r2, .L49
 380 000c 200013E3 		tst	r3, #32
 381 0010 FBFFFF0A 		beq	.L46
 382              		.loc 1 175 0 is_stmt 1
 383 0014 400082E5 		str	r0, [r2, #64]
 384 0018 1EFF2FE1 		bx	lr
 385              	.L50:
 386              		.align	2
 387              	.L49:
 388 001c 00502120 		.word	539054080
 389              		.cfi_endproc
 390              	.LFE13:
 391              		.size	mini_uart_send, .-mini_uart_send
 392              		.section	.text.mini_uart_sendstr,"ax",%progbits
 393              		.align	2
 394              		.global	mini_uart_sendstr
 395              		.type	mini_uart_sendstr, %function
 396              	mini_uart_sendstr:
 397              	.LFB14:
 398              		.loc 1 179 0
 399              		.cfi_startproc
ARM GAS  /tmp/ccYForOS.s 			page 8


 400              		@ args = 0, pretend = 0, frame = 0
 401              		@ frame_needed = 0, uses_anonymous_args = 0
 402              		@ link register save eliminated.
 403              	.LVL23:
 404              		.loc 1 181 0
 405 0000 00C0D0E5 		ldrb	ip, [r0]	@ zero_extendqisi2
 406 0004 010080E2 		add	r0, r0, #1
 407              	.LVL24:
 408 0008 00005CE3 		cmp	ip, #0
 409 000c 1EFF2F01 		bxeq	lr
 410              	.LBB19:
 411              	.LBB20:
 412              		.loc 1 174 0 discriminator 2
 413 0010 20109FE5 		ldr	r1, .L59
 414              	.LVL25:
 415              	.L53:
 416              		.loc 1 174 0 is_stmt 0
 417 0014 543091E5 		ldr	r3, [r1, #84]
 418 0018 18209FE5 		ldr	r2, .L59
 419 001c 200013E3 		tst	r3, #32
 420 0020 FBFFFF0A 		beq	.L53
 421              		.loc 1 175 0 is_stmt 1
 422 0024 40C082E5 		str	ip, [r2, #64]
 423              	.LVL26:
 424              	.LBE20:
 425              	.LBE19:
 426              		.loc 1 181 0
 427 0028 01C0D0E4 		ldrb	ip, [r0], #1	@ zero_extendqisi2
 428              	.LVL27:
 429 002c 00005CE3 		cmp	ip, #0
 430 0030 F7FFFF1A 		bne	.L53
 431 0034 1EFF2FE1 		bx	lr
 432              	.L60:
 433              		.align	2
 434              	.L59:
 435 0038 00502120 		.word	539054080
 436              		.cfi_endproc
 437              	.LFE14:
 438              		.size	mini_uart_sendstr, .-mini_uart_sendstr
 439              		.section	.text.mini_uart_sendhex,"ax",%progbits
 440              		.align	2
 441              		.global	mini_uart_sendhex
 442              		.type	mini_uart_sendhex, %function
 443              	mini_uart_sendhex:
 444              	.LFB15:
 445              		.loc 1 185 0
 446              		.cfi_startproc
 447              		@ args = 0, pretend = 0, frame = 0
 448              		@ frame_needed = 0, uses_anonymous_args = 0
 449              	.LVL28:
 450 0000 10402DE9 		stmfd	sp!, {r4, lr}
 451              		.cfi_def_cfa_offset 8
 452              		.cfi_offset 4, -8
 453              		.cfi_offset 14, -4
 454              		.loc 1 189 0
 455 0004 2040A0E3 		mov	r4, #32
 456              	.LBB21:
ARM GAS  /tmp/ccYForOS.s 			page 9


 457              	.LBB22:
 458              		.loc 1 174 0
 459 0008 88C09FE5 		ldr	ip, .L84
 460              	.LVL29:
 461              	.L65:
 462              	.LBE22:
 463              	.LBE21:
 464              		.loc 1 192 0
 465 000c 044044E2 		sub	r4, r4, #4
 466              	.LVL30:
 467              		.loc 1 193 0
 468 0010 3034A0E1 		mov	r3, r0, lsr r4
 469 0014 0F3003E2 		and	r3, r3, #15
 470              	.LVL31:
 471              		.loc 1 194 0
 472 0018 090053E3 		cmp	r3, #9
 473              		.loc 1 195 0
 474 001c 37E08382 		addhi	lr, r3, #55
 475              	.LVL32:
 476              		.loc 1 197 0
 477 0020 30E08392 		addls	lr, r3, #48
 478              	.LVL33:
 479              	.L64:
 480              	.LBB25:
 481              	.LBB23:
 482              		.loc 1 174 0
 483 0024 54309CE5 		ldr	r3, [ip, #84]
 484 0028 68209FE5 		ldr	r2, .L84
 485 002c 200013E3 		tst	r3, #32
 486 0030 FBFFFF0A 		beq	.L64
 487              	.LBE23:
 488              	.LBE25:
 489              		.loc 1 199 0
 490 0034 000054E3 		cmp	r4, #0
 491              	.LBB26:
 492              	.LBB24:
 493              		.loc 1 175 0
 494 0038 40E082E5 		str	lr, [r2, #64]
 495              	.LBE24:
 496              	.LBE26:
 497              		.loc 1 199 0
 498 003c F2FFFF1A 		bne	.L65
 499              	.LVL34:
 500              	.L66:
 501              	.LBB27:
 502              	.LBB28:
 503              		.loc 1 174 0
 504 0040 543092E5 		ldr	r3, [r2, #84]
 505 0044 4C009FE5 		ldr	r0, .L84
 506 0048 200013E3 		tst	r3, #32
 507 004c FBFFFF0A 		beq	.L66
 508              		.loc 1 175 0
 509 0050 2030A0E3 		mov	r3, #32
 510              	.LBE28:
 511              	.LBE27:
 512              		.loc 1 204 0
 513 0054 000051E3 		cmp	r1, #0
ARM GAS  /tmp/ccYForOS.s 			page 10


 514              	.LBB30:
 515              	.LBB29:
 516              		.loc 1 175 0
 517 0058 403080E5 		str	r3, [r0, #64]
 518              	.LBE29:
 519              	.LBE30:
 520              		.loc 1 204 0
 521 005c 1080BD08 		ldmeqfd	sp!, {r4, pc}
 522              	.L77:
 523              	.LBB31:
 524              	.LBB32:
 525              		.loc 1 174 0
 526 0060 543090E5 		ldr	r3, [r0, #84]
 527 0064 2C209FE5 		ldr	r2, .L84
 528 0068 200013E3 		tst	r3, #32
 529 006c FBFFFF0A 		beq	.L77
 530              		.loc 1 175 0
 531 0070 0D30A0E3 		mov	r3, #13
 532              	.LBE32:
 533              	.LBE31:
 534              	.LBB34:
 535              	.LBB35:
 536              		.loc 1 174 0
 537 0074 0210A0E1 		mov	r1, r2
 538              	.LVL35:
 539              	.LBE35:
 540              	.LBE34:
 541              	.LBB37:
 542              	.LBB33:
 543              		.loc 1 175 0
 544 0078 403082E5 		str	r3, [r2, #64]
 545              	.LVL36:
 546              	.L69:
 547              	.LBE33:
 548              	.LBE37:
 549              	.LBB38:
 550              	.LBB36:
 551              		.loc 1 174 0
 552 007c 543091E5 		ldr	r3, [r1, #84]
 553 0080 10209FE5 		ldr	r2, .L84
 554 0084 200013E3 		tst	r3, #32
 555 0088 FBFFFF0A 		beq	.L69
 556              		.loc 1 175 0
 557 008c 0A30A0E3 		mov	r3, #10
 558 0090 403082E5 		str	r3, [r2, #64]
 559 0094 1080BDE8 		ldmfd	sp!, {r4, pc}
 560              	.L85:
 561              		.align	2
 562              	.L84:
 563 0098 00502120 		.word	539054080
 564              	.LBE36:
 565              	.LBE38:
 566              		.cfi_endproc
 567              	.LFE15:
 568              		.size	mini_uart_sendhex, .-mini_uart_sendhex
 569              		.comm	SD1,116,4
 570              		.section	.rodata.default_config,"a",%progbits
ARM GAS  /tmp/ccYForOS.s 			page 11


 571              		.align	2
 572              		.set	.LANCHOR0,. + 0
 573              		.type	default_config, %object
 574              		.size	default_config, 4
 575              	default_config:
 576 0000 00C20100 		.word	115200
 577              		.text
 578              	.Letext0:
 579              		.file 2 "/usr/lib/gcc/arm-none-eabi/4.9.3/include/stddef.h"
 580              		.file 3 "/usr/include/newlib/machine/_default_types.h"
 581              		.file 4 "/usr/include/newlib/sys/_stdint.h"
 582              		.file 5 "../../os/ports/GCC/ARM/chtypes.h"
 583              		.file 6 "../../os/kernel/include/chlists.h"
 584              		.file 7 "../../os/kernel/include/chthreads.h"
 585              		.file 8 "../../os/ports/GCC/ARM/chcore.h"
 586              		.file 9 "../../os/kernel/include/chmtx.h"
 587              		.file 10 "../../os/kernel/include/chevents.h"
 588              		.file 11 "../../os/kernel/include/chqueues.h"
 589              		.file 12 "../../os/hal/include/serial.h"
 590              		.file 13 "../../os/hal/platforms/BCM2835/serial_lld.h"
 591              		.file 14 "../../os/hal/platforms/BCM2835/bcm2835.h"
 592              		.section	.debug_info,"",%progbits
 593              	.Ldebug_info0:
 594 0000 890A0000 		.4byte	0xa89
 595 0004 0400     		.2byte	0x4
 596 0006 00000000 		.4byte	.Ldebug_abbrev0
 597 000a 04       		.byte	0x4
 598 000b 01       		.uleb128 0x1
 599 000c 8F040000 		.4byte	.LASF111
 600 0010 01       		.byte	0x1
 601 0011 8A010000 		.4byte	.LASF112
 602 0015 C8030000 		.4byte	.LASF113
 603 0019 80000000 		.4byte	.Ldebug_ranges0+0x80
 604 001d 00000000 		.4byte	0
 605 0021 00000000 		.4byte	.Ldebug_line0
 606 0025 02       		.uleb128 0x2
 607 0026 04       		.byte	0x4
 608 0027 05       		.byte	0x5
 609 0028 696E7400 		.ascii	"int\000"
 610 002c 03       		.uleb128 0x3
 611 002d 06000000 		.4byte	.LASF2
 612 0031 02       		.byte	0x2
 613 0032 D4       		.byte	0xd4
 614 0033 37000000 		.4byte	0x37
 615 0037 04       		.uleb128 0x4
 616 0038 04       		.byte	0x4
 617 0039 07       		.byte	0x7
 618 003a 22010000 		.4byte	.LASF0
 619 003e 04       		.uleb128 0x4
 620 003f 01       		.byte	0x1
 621 0040 06       		.byte	0x6
 622 0041 86000000 		.4byte	.LASF1
 623 0045 03       		.uleb128 0x3
 624 0046 20000000 		.4byte	.LASF3
 625 004a 03       		.byte	0x3
 626 004b 1D       		.byte	0x1d
 627 004c 50000000 		.4byte	0x50
ARM GAS  /tmp/ccYForOS.s 			page 12


 628 0050 04       		.uleb128 0x4
 629 0051 01       		.byte	0x1
 630 0052 08       		.byte	0x8
 631 0053 AA020000 		.4byte	.LASF4
 632 0057 04       		.uleb128 0x4
 633 0058 02       		.byte	0x2
 634 0059 05       		.byte	0x5
 635 005a E4020000 		.4byte	.LASF5
 636 005e 04       		.uleb128 0x4
 637 005f 02       		.byte	0x2
 638 0060 07       		.byte	0x7
 639 0061 77010000 		.4byte	.LASF6
 640 0065 03       		.uleb128 0x3
 641 0066 9C030000 		.4byte	.LASF7
 642 006a 03       		.byte	0x3
 643 006b 3F       		.byte	0x3f
 644 006c 70000000 		.4byte	0x70
 645 0070 04       		.uleb128 0x4
 646 0071 04       		.byte	0x4
 647 0072 05       		.byte	0x5
 648 0073 C8000000 		.4byte	.LASF8
 649 0077 03       		.uleb128 0x3
 650 0078 02010000 		.4byte	.LASF9
 651 007c 03       		.byte	0x3
 652 007d 41       		.byte	0x41
 653 007e 82000000 		.4byte	0x82
 654 0082 04       		.uleb128 0x4
 655 0083 04       		.byte	0x4
 656 0084 07       		.byte	0x7
 657 0085 46010000 		.4byte	.LASF10
 658 0089 04       		.uleb128 0x4
 659 008a 08       		.byte	0x8
 660 008b 05       		.byte	0x5
 661 008c 78000000 		.4byte	.LASF11
 662 0090 04       		.uleb128 0x4
 663 0091 08       		.byte	0x8
 664 0092 07       		.byte	0x7
 665 0093 2A000000 		.4byte	.LASF12
 666 0097 03       		.uleb128 0x3
 667 0098 59040000 		.4byte	.LASF13
 668 009c 04       		.byte	0x4
 669 009d 14       		.byte	0x14
 670 009e 45000000 		.4byte	0x45
 671 00a2 03       		.uleb128 0x3
 672 00a3 A2020000 		.4byte	.LASF14
 673 00a7 04       		.byte	0x4
 674 00a8 1F       		.byte	0x1f
 675 00a9 65000000 		.4byte	0x65
 676 00ad 03       		.uleb128 0x3
 677 00ae 3F030000 		.4byte	.LASF15
 678 00b2 04       		.byte	0x4
 679 00b3 20       		.byte	0x20
 680 00b4 77000000 		.4byte	0x77
 681 00b8 03       		.uleb128 0x3
 682 00b9 9A000000 		.4byte	.LASF16
 683 00bd 05       		.byte	0x5
 684 00be 29       		.byte	0x29
ARM GAS  /tmp/ccYForOS.s 			page 13


 685 00bf A2000000 		.4byte	0xa2
 686 00c3 03       		.uleb128 0x3
 687 00c4 E0010000 		.4byte	.LASF17
 688 00c8 05       		.byte	0x5
 689 00c9 2A       		.byte	0x2a
 690 00ca 97000000 		.4byte	0x97
 691 00ce 03       		.uleb128 0x3
 692 00cf E0000000 		.4byte	.LASF18
 693 00d3 05       		.byte	0x5
 694 00d4 2B       		.byte	0x2b
 695 00d5 97000000 		.4byte	0x97
 696 00d9 03       		.uleb128 0x3
 697 00da 79020000 		.4byte	.LASF19
 698 00de 05       		.byte	0x5
 699 00df 2C       		.byte	0x2c
 700 00e0 97000000 		.4byte	0x97
 701 00e4 03       		.uleb128 0x3
 702 00e5 A9000000 		.4byte	.LASF20
 703 00e9 05       		.byte	0x5
 704 00ea 2D       		.byte	0x2d
 705 00eb 97000000 		.4byte	0x97
 706 00ef 03       		.uleb128 0x3
 707 00f0 92020000 		.4byte	.LASF21
 708 00f4 05       		.byte	0x5
 709 00f5 2E       		.byte	0x2e
 710 00f6 AD000000 		.4byte	0xad
 711 00fa 03       		.uleb128 0x3
 712 00fb B6010000 		.4byte	.LASF22
 713 00ff 05       		.byte	0x5
 714 0100 2F       		.byte	0x2f
 715 0101 A2000000 		.4byte	0xa2
 716 0105 03       		.uleb128 0x3
 717 0106 F4010000 		.4byte	.LASF23
 718 010a 05       		.byte	0x5
 719 010b 31       		.byte	0x31
 720 010c AD000000 		.4byte	0xad
 721 0110 03       		.uleb128 0x3
 722 0111 0B040000 		.4byte	.LASF24
 723 0115 05       		.byte	0x5
 724 0116 32       		.byte	0x32
 725 0117 AD000000 		.4byte	0xad
 726 011b 03       		.uleb128 0x3
 727 011c 87030000 		.4byte	.LASF25
 728 0120 05       		.byte	0x5
 729 0121 33       		.byte	0x33
 730 0122 AD000000 		.4byte	0xad
 731 0126 03       		.uleb128 0x3
 732 0127 23030000 		.4byte	.LASF26
 733 012b 06       		.byte	0x6
 734 012c 23       		.byte	0x23
 735 012d 31010000 		.4byte	0x131
 736 0131 05       		.uleb128 0x5
 737 0132 23030000 		.4byte	.LASF26
 738 0136 44       		.byte	0x44
 739 0137 07       		.byte	0x7
 740 0138 57       		.byte	0x57
 741 0139 22020000 		.4byte	0x222
ARM GAS  /tmp/ccYForOS.s 			page 14


 742 013d 06       		.uleb128 0x6
 743 013e 14030000 		.4byte	.LASF27
 744 0142 07       		.byte	0x7
 745 0143 58       		.byte	0x58
 746 0144 43020000 		.4byte	0x243
 747 0148 00       		.byte	0
 748 0149 06       		.uleb128 0x6
 749 014a 8B020000 		.4byte	.LASF28
 750 014e 07       		.byte	0x7
 751 014f 5A       		.byte	0x5a
 752 0150 43020000 		.4byte	0x243
 753 0154 04       		.byte	0x4
 754 0155 06       		.uleb128 0x6
 755 0156 59000000 		.4byte	.LASF29
 756 015a 07       		.byte	0x7
 757 015b 5C       		.byte	0x5c
 758 015c EF000000 		.4byte	0xef
 759 0160 08       		.byte	0x8
 760 0161 06       		.uleb128 0x6
 761 0162 67050000 		.4byte	.LASF30
 762 0166 07       		.byte	0x7
 763 0167 5D       		.byte	0x5d
 764 0168 F3020000 		.4byte	0x2f3
 765 016c 0C       		.byte	0xc
 766 016d 06       		.uleb128 0x6
 767 016e FA000000 		.4byte	.LASF31
 768 0172 07       		.byte	0x7
 769 0173 5F       		.byte	0x5f
 770 0174 43020000 		.4byte	0x243
 771 0178 10       		.byte	0x10
 772 0179 06       		.uleb128 0x6
 773 017a 3C020000 		.4byte	.LASF32
 774 017e 07       		.byte	0x7
 775 017f 60       		.byte	0x60
 776 0180 43020000 		.4byte	0x243
 777 0184 14       		.byte	0x14
 778 0185 06       		.uleb128 0x6
 779 0186 88040000 		.4byte	.LASF33
 780 018a 07       		.byte	0x7
 781 018b 67       		.byte	0x67
 782 018c 00040000 		.4byte	0x400
 783 0190 18       		.byte	0x18
 784 0191 06       		.uleb128 0x6
 785 0192 EE020000 		.4byte	.LASF34
 786 0196 07       		.byte	0x7
 787 0197 72       		.byte	0x72
 788 0198 CE000000 		.4byte	0xce
 789 019c 1C       		.byte	0x1c
 790 019d 06       		.uleb128 0x6
 791 019e 1B030000 		.4byte	.LASF35
 792 01a2 07       		.byte	0x7
 793 01a3 76       		.byte	0x76
 794 01a4 C3000000 		.4byte	0xc3
 795 01a8 1D       		.byte	0x1d
 796 01a9 06       		.uleb128 0x6
 797 01aa 2C040000 		.4byte	.LASF36
 798 01ae 07       		.byte	0x7
ARM GAS  /tmp/ccYForOS.s 			page 15


 799 01af 7B       		.byte	0x7b
 800 01b0 D9000000 		.4byte	0xd9
 801 01b4 1E       		.byte	0x1e
 802 01b5 06       		.uleb128 0x6
 803 01b6 F6020000 		.4byte	.LASF37
 804 01ba 07       		.byte	0x7
 805 01bb 81       		.byte	0x81
 806 01bc E4000000 		.4byte	0xe4
 807 01c0 1F       		.byte	0x1f
 808 01c1 06       		.uleb128 0x6
 809 01c2 A6030000 		.4byte	.LASF38
 810 01c6 07       		.byte	0x7
 811 01c7 88       		.byte	0x88
 812 01c8 12030000 		.4byte	0x312
 813 01cc 20       		.byte	0x20
 814 01cd 07       		.uleb128 0x7
 815 01ce 705F7500 		.ascii	"p_u\000"
 816 01d2 07       		.byte	0x7
 817 01d3 AD       		.byte	0xad
 818 01d4 CB030000 		.4byte	0x3cb
 819 01d8 24       		.byte	0x24
 820 01d9 06       		.uleb128 0x6
 821 01da 6D050000 		.4byte	.LASF39
 822 01de 07       		.byte	0x7
 823 01df B2       		.byte	0xb2
 824 01e0 69020000 		.4byte	0x269
 825 01e4 28       		.byte	0x28
 826 01e5 06       		.uleb128 0x6
 827 01e6 B4030000 		.4byte	.LASF40
 828 01ea 07       		.byte	0x7
 829 01eb B8       		.byte	0xb8
 830 01ec 49020000 		.4byte	0x249
 831 01f0 2C       		.byte	0x2c
 832 01f1 06       		.uleb128 0x6
 833 01f2 00000000 		.4byte	.LASF41
 834 01f6 07       		.byte	0x7
 835 01f7 BC       		.byte	0xbc
 836 01f8 FA000000 		.4byte	0xfa
 837 01fc 34       		.byte	0x34
 838 01fd 06       		.uleb128 0x6
 839 01fe 2A030000 		.4byte	.LASF42
 840 0202 07       		.byte	0x7
 841 0203 C2       		.byte	0xc2
 842 0204 05010000 		.4byte	0x105
 843 0208 38       		.byte	0x38
 844 0209 06       		.uleb128 0x6
 845 020a DA020000 		.4byte	.LASF43
 846 020e 07       		.byte	0x7
 847 020f C9       		.byte	0xc9
 848 0210 12040000 		.4byte	0x412
 849 0214 3C       		.byte	0x3c
 850 0215 06       		.uleb128 0x6
 851 0216 91030000 		.4byte	.LASF44
 852 021a 07       		.byte	0x7
 853 021b CD       		.byte	0xcd
 854 021c EF000000 		.4byte	0xef
 855 0220 40       		.byte	0x40
ARM GAS  /tmp/ccYForOS.s 			page 16


 856 0221 00       		.byte	0
 857 0222 08       		.uleb128 0x8
 858 0223 08       		.byte	0x8
 859 0224 06       		.byte	0x6
 860 0225 5A       		.byte	0x5a
 861 0226 43020000 		.4byte	0x243
 862 022a 06       		.uleb128 0x6
 863 022b 14030000 		.4byte	.LASF27
 864 022f 06       		.byte	0x6
 865 0230 5B       		.byte	0x5b
 866 0231 43020000 		.4byte	0x243
 867 0235 00       		.byte	0
 868 0236 06       		.uleb128 0x6
 869 0237 8B020000 		.4byte	.LASF28
 870 023b 06       		.byte	0x6
 871 023c 5D       		.byte	0x5d
 872 023d 43020000 		.4byte	0x243
 873 0241 04       		.byte	0x4
 874 0242 00       		.byte	0
 875 0243 09       		.uleb128 0x9
 876 0244 04       		.byte	0x4
 877 0245 26010000 		.4byte	0x126
 878 0249 03       		.uleb128 0x3
 879 024a 44020000 		.4byte	.LASF45
 880 024e 06       		.byte	0x6
 881 024f 5F       		.byte	0x5f
 882 0250 22020000 		.4byte	0x222
 883 0254 08       		.uleb128 0x8
 884 0255 04       		.byte	0x4
 885 0256 06       		.byte	0x6
 886 0257 64       		.byte	0x64
 887 0258 69020000 		.4byte	0x269
 888 025c 06       		.uleb128 0x6
 889 025d 14030000 		.4byte	.LASF27
 890 0261 06       		.byte	0x6
 891 0262 66       		.byte	0x66
 892 0263 43020000 		.4byte	0x243
 893 0267 00       		.byte	0
 894 0268 00       		.byte	0
 895 0269 03       		.uleb128 0x3
 896 026a E8010000 		.4byte	.LASF46
 897 026e 06       		.byte	0x6
 898 026f 69       		.byte	0x69
 899 0270 54020000 		.4byte	0x254
 900 0274 03       		.uleb128 0x3
 901 0275 0D010000 		.4byte	.LASF47
 902 0279 08       		.byte	0x8
 903 027a A2       		.byte	0xa2
 904 027b 7F020000 		.4byte	0x27f
 905 027f 0A       		.uleb128 0xa
 906 0280 04       		.byte	0x4
 907 0281 05       		.uleb128 0x5
 908 0282 AD030000 		.4byte	.LASF48
 909 0286 24       		.byte	0x24
 910 0287 08       		.byte	0x8
 911 0288 B9       		.byte	0xb9
 912 0289 F3020000 		.4byte	0x2f3
ARM GAS  /tmp/ccYForOS.s 			page 17


 913 028d 07       		.uleb128 0x7
 914 028e 723400   		.ascii	"r4\000"
 915 0291 08       		.byte	0x8
 916 0292 BA       		.byte	0xba
 917 0293 74020000 		.4byte	0x274
 918 0297 00       		.byte	0
 919 0298 07       		.uleb128 0x7
 920 0299 723500   		.ascii	"r5\000"
 921 029c 08       		.byte	0x8
 922 029d BB       		.byte	0xbb
 923 029e 74020000 		.4byte	0x274
 924 02a2 04       		.byte	0x4
 925 02a3 07       		.uleb128 0x7
 926 02a4 723600   		.ascii	"r6\000"
 927 02a7 08       		.byte	0x8
 928 02a8 BC       		.byte	0xbc
 929 02a9 74020000 		.4byte	0x274
 930 02ad 08       		.byte	0x8
 931 02ae 07       		.uleb128 0x7
 932 02af 723700   		.ascii	"r7\000"
 933 02b2 08       		.byte	0x8
 934 02b3 BD       		.byte	0xbd
 935 02b4 74020000 		.4byte	0x274
 936 02b8 0C       		.byte	0xc
 937 02b9 07       		.uleb128 0x7
 938 02ba 723800   		.ascii	"r8\000"
 939 02bd 08       		.byte	0x8
 940 02be BE       		.byte	0xbe
 941 02bf 74020000 		.4byte	0x274
 942 02c3 10       		.byte	0x10
 943 02c4 07       		.uleb128 0x7
 944 02c5 723900   		.ascii	"r9\000"
 945 02c8 08       		.byte	0x8
 946 02c9 BF       		.byte	0xbf
 947 02ca 74020000 		.4byte	0x274
 948 02ce 14       		.byte	0x14
 949 02cf 07       		.uleb128 0x7
 950 02d0 72313000 		.ascii	"r10\000"
 951 02d4 08       		.byte	0x8
 952 02d5 C0       		.byte	0xc0
 953 02d6 74020000 		.4byte	0x274
 954 02da 18       		.byte	0x18
 955 02db 07       		.uleb128 0x7
 956 02dc 72313100 		.ascii	"r11\000"
 957 02e0 08       		.byte	0x8
 958 02e1 C1       		.byte	0xc1
 959 02e2 74020000 		.4byte	0x274
 960 02e6 1C       		.byte	0x1c
 961 02e7 07       		.uleb128 0x7
 962 02e8 6C7200   		.ascii	"lr\000"
 963 02eb 08       		.byte	0x8
 964 02ec C2       		.byte	0xc2
 965 02ed 74020000 		.4byte	0x274
 966 02f1 20       		.byte	0x20
 967 02f2 00       		.byte	0
 968 02f3 05       		.uleb128 0x5
 969 02f4 6F010000 		.4byte	.LASF49
ARM GAS  /tmp/ccYForOS.s 			page 18


 970 02f8 04       		.byte	0x4
 971 02f9 08       		.byte	0x8
 972 02fa CA       		.byte	0xca
 973 02fb 0C030000 		.4byte	0x30c
 974 02ff 07       		.uleb128 0x7
 975 0300 72313300 		.ascii	"r13\000"
 976 0304 08       		.byte	0x8
 977 0305 CB       		.byte	0xcb
 978 0306 0C030000 		.4byte	0x30c
 979 030a 00       		.byte	0
 980 030b 00       		.byte	0
 981 030c 09       		.uleb128 0x9
 982 030d 04       		.byte	0x4
 983 030e 81020000 		.4byte	0x281
 984 0312 0B       		.uleb128 0xb
 985 0313 1B010000 		.4byte	0x11b
 986 0317 05       		.uleb128 0x5
 987 0318 0B020000 		.4byte	.LASF50
 988 031c 10       		.byte	0x10
 989 031d 09       		.byte	0x9
 990 031e 25       		.byte	0x25
 991 031f 48030000 		.4byte	0x348
 992 0323 06       		.uleb128 0x6
 993 0324 A1000000 		.4byte	.LASF51
 994 0328 09       		.byte	0x9
 995 0329 26       		.byte	0x26
 996 032a 49020000 		.4byte	0x249
 997 032e 00       		.byte	0
 998 032f 06       		.uleb128 0x6
 999 0330 5F050000 		.4byte	.LASF52
 1000 0334 09       		.byte	0x9
 1001 0335 28       		.byte	0x28
 1002 0336 43020000 		.4byte	0x243
 1003 033a 08       		.byte	0x8
 1004 033b 06       		.uleb128 0x6
 1005 033c 80030000 		.4byte	.LASF53
 1006 0340 09       		.byte	0x9
 1007 0341 2A       		.byte	0x2a
 1008 0342 48030000 		.4byte	0x348
 1009 0346 0C       		.byte	0xc
 1010 0347 00       		.byte	0
 1011 0348 09       		.uleb128 0x9
 1012 0349 04       		.byte	0x4
 1013 034a 17030000 		.4byte	0x317
 1014 034e 03       		.uleb128 0x3
 1015 034f 0B020000 		.4byte	.LASF50
 1016 0353 09       		.byte	0x9
 1017 0354 2C       		.byte	0x2c
 1018 0355 17030000 		.4byte	0x317
 1019 0359 03       		.uleb128 0x3
 1020 035a 73040000 		.4byte	.LASF54
 1021 035e 0A       		.byte	0xa
 1022 035f 25       		.byte	0x25
 1023 0360 64030000 		.4byte	0x364
 1024 0364 05       		.uleb128 0x5
 1025 0365 73040000 		.4byte	.LASF54
 1026 0369 10       		.byte	0x10
ARM GAS  /tmp/ccYForOS.s 			page 19


 1027 036a 0A       		.byte	0xa
 1028 036b 2A       		.byte	0x2a
 1029 036c A1030000 		.4byte	0x3a1
 1030 0370 06       		.uleb128 0x6
 1031 0371 C3010000 		.4byte	.LASF55
 1032 0375 0A       		.byte	0xa
 1033 0376 2B       		.byte	0x2b
 1034 0377 A1030000 		.4byte	0x3a1
 1035 037b 00       		.byte	0
 1036 037c 06       		.uleb128 0x6
 1037 037d C5020000 		.4byte	.LASF56
 1038 0381 0A       		.byte	0xa
 1039 0382 2E       		.byte	0x2e
 1040 0383 43020000 		.4byte	0x243
 1041 0387 04       		.byte	0x4
 1042 0388 06       		.uleb128 0x6
 1043 0389 51020000 		.4byte	.LASF57
 1044 038d 0A       		.byte	0xa
 1045 038e 30       		.byte	0x30
 1046 038f 05010000 		.4byte	0x105
 1047 0393 08       		.byte	0x8
 1048 0394 06       		.uleb128 0x6
 1049 0395 D1020000 		.4byte	.LASF58
 1050 0399 0A       		.byte	0xa
 1051 039a 33       		.byte	0x33
 1052 039b 10010000 		.4byte	0x110
 1053 039f 0C       		.byte	0xc
 1054 03a0 00       		.byte	0
 1055 03a1 09       		.uleb128 0x9
 1056 03a2 04       		.byte	0x4
 1057 03a3 59030000 		.4byte	0x359
 1058 03a7 05       		.uleb128 0x5
 1059 03a8 16010000 		.4byte	.LASF59
 1060 03ac 04       		.byte	0x4
 1061 03ad 0A       		.byte	0xa
 1062 03ae 3A       		.byte	0x3a
 1063 03af C0030000 		.4byte	0x3c0
 1064 03b3 06       		.uleb128 0x6
 1065 03b4 2D050000 		.4byte	.LASF60
 1066 03b8 0A       		.byte	0xa
 1067 03b9 3B       		.byte	0x3b
 1068 03ba A1030000 		.4byte	0x3a1
 1069 03be 00       		.byte	0
 1070 03bf 00       		.byte	0
 1071 03c0 03       		.uleb128 0x3
 1072 03c1 16010000 		.4byte	.LASF59
 1073 03c5 0A       		.byte	0xa
 1074 03c6 3E       		.byte	0x3e
 1075 03c7 A7030000 		.4byte	0x3a7
 1076 03cb 0C       		.uleb128 0xc
 1077 03cc 04       		.byte	0x4
 1078 03cd 07       		.byte	0x7
 1079 03ce 8F       		.byte	0x8f
 1080 03cf 00040000 		.4byte	0x400
 1081 03d3 0D       		.uleb128 0xd
 1082 03d4 0D000000 		.4byte	.LASF61
 1083 03d8 07       		.byte	0x7
ARM GAS  /tmp/ccYForOS.s 			page 20


 1084 03d9 96       		.byte	0x96
 1085 03da FA000000 		.4byte	0xfa
 1086 03de 0D       		.uleb128 0xd
 1087 03df 50000000 		.4byte	.LASF62
 1088 03e3 07       		.byte	0x7
 1089 03e4 9D       		.byte	0x9d
 1090 03e5 FA000000 		.4byte	0xfa
 1091 03e9 0D       		.uleb128 0xd
 1092 03ea 81040000 		.4byte	.LASF63
 1093 03ee 07       		.byte	0x7
 1094 03ef A4       		.byte	0xa4
 1095 03f0 7F020000 		.4byte	0x27f
 1096 03f4 0D       		.uleb128 0xd
 1097 03f5 0D030000 		.4byte	.LASF64
 1098 03f9 07       		.byte	0x7
 1099 03fa AB       		.byte	0xab
 1100 03fb 05010000 		.4byte	0x105
 1101 03ff 00       		.byte	0
 1102 0400 09       		.uleb128 0x9
 1103 0401 04       		.byte	0x4
 1104 0402 06040000 		.4byte	0x406
 1105 0406 0E       		.uleb128 0xe
 1106 0407 0B040000 		.4byte	0x40b
 1107 040b 04       		.uleb128 0x4
 1108 040c 01       		.byte	0x1
 1109 040d 08       		.byte	0x8
 1110 040e 64030000 		.4byte	.LASF65
 1111 0412 09       		.uleb128 0x9
 1112 0413 04       		.byte	0x4
 1113 0414 4E030000 		.4byte	0x34e
 1114 0418 09       		.uleb128 0x9
 1115 0419 04       		.byte	0x4
 1116 041a 1E040000 		.4byte	0x41e
 1117 041e 0F       		.uleb128 0xf
 1118 041f FA000000 		.4byte	0xfa
 1119 0423 2D040000 		.4byte	0x42d
 1120 0427 10       		.uleb128 0x10
 1121 0428 7F020000 		.4byte	0x27f
 1122 042c 00       		.byte	0
 1123 042d 04       		.uleb128 0x4
 1124 042e 04       		.byte	0x4
 1125 042f 07       		.byte	0x7
 1126 0430 29020000 		.4byte	.LASF66
 1127 0434 03       		.uleb128 0x3
 1128 0435 11020000 		.4byte	.LASF67
 1129 0439 0B       		.byte	0xb
 1130 043a 30       		.byte	0x30
 1131 043b 3F040000 		.4byte	0x43f
 1132 043f 05       		.uleb128 0x5
 1133 0440 11020000 		.4byte	.LASF67
 1134 0444 24       		.byte	0x24
 1135 0445 0B       		.byte	0xb
 1136 0446 3E       		.byte	0x3e
 1137 0447 AC040000 		.4byte	0x4ac
 1138 044b 06       		.uleb128 0x6
 1139 044c 6E000000 		.4byte	.LASF68
 1140 0450 0B       		.byte	0xb
ARM GAS  /tmp/ccYForOS.s 			page 21


 1141 0451 3F       		.byte	0x3f
 1142 0452 49020000 		.4byte	0x249
 1143 0456 00       		.byte	0
 1144 0457 06       		.uleb128 0x6
 1145 0458 32020000 		.4byte	.LASF69
 1146 045c 0B       		.byte	0xb
 1147 045d 40       		.byte	0x40
 1148 045e 2C000000 		.4byte	0x2c
 1149 0462 08       		.byte	0x8
 1150 0463 06       		.uleb128 0x6
 1151 0464 E9000000 		.4byte	.LASF70
 1152 0468 0B       		.byte	0xb
 1153 0469 41       		.byte	0x41
 1154 046a CE040000 		.4byte	0x4ce
 1155 046e 0C       		.byte	0xc
 1156 046f 06       		.uleb128 0x6
 1157 0470 17040000 		.4byte	.LASF71
 1158 0474 0B       		.byte	0xb
 1159 0475 42       		.byte	0x42
 1160 0476 CE040000 		.4byte	0x4ce
 1161 047a 10       		.byte	0x10
 1162 047b 06       		.uleb128 0x6
 1163 047c F2000000 		.4byte	.LASF72
 1164 0480 0B       		.byte	0xb
 1165 0481 44       		.byte	0x44
 1166 0482 CE040000 		.4byte	0x4ce
 1167 0486 14       		.byte	0x14
 1168 0487 06       		.uleb128 0x6
 1169 0488 9A020000 		.4byte	.LASF73
 1170 048c 0B       		.byte	0xb
 1171 048d 45       		.byte	0x45
 1172 048e CE040000 		.4byte	0x4ce
 1173 0492 18       		.byte	0x18
 1174 0493 06       		.uleb128 0x6
 1175 0494 41040000 		.4byte	.LASF74
 1176 0498 0B       		.byte	0xb
 1177 0499 46       		.byte	0x46
 1178 049a AC040000 		.4byte	0x4ac
 1179 049e 1C       		.byte	0x1c
 1180 049f 06       		.uleb128 0x6
 1181 04a0 58050000 		.4byte	.LASF75
 1182 04a4 0B       		.byte	0xb
 1183 04a5 47       		.byte	0x47
 1184 04a6 7F020000 		.4byte	0x27f
 1185 04aa 20       		.byte	0x20
 1186 04ab 00       		.byte	0
 1187 04ac 03       		.uleb128 0x3
 1188 04ad 81020000 		.4byte	.LASF76
 1189 04b1 0B       		.byte	0xb
 1190 04b2 33       		.byte	0x33
 1191 04b3 B7040000 		.4byte	0x4b7
 1192 04b7 09       		.uleb128 0x9
 1193 04b8 04       		.byte	0x4
 1194 04b9 BD040000 		.4byte	0x4bd
 1195 04bd 11       		.uleb128 0x11
 1196 04be C8040000 		.4byte	0x4c8
 1197 04c2 10       		.uleb128 0x10
ARM GAS  /tmp/ccYForOS.s 			page 22


 1198 04c3 C8040000 		.4byte	0x4c8
 1199 04c7 00       		.byte	0
 1200 04c8 09       		.uleb128 0x9
 1201 04c9 04       		.byte	0x4
 1202 04ca 34040000 		.4byte	0x434
 1203 04ce 09       		.uleb128 0x9
 1204 04cf 04       		.byte	0x4
 1205 04d0 97000000 		.4byte	0x97
 1206 04d4 03       		.uleb128 0x3
 1207 04d5 00020000 		.4byte	.LASF77
 1208 04d9 0B       		.byte	0xb
 1209 04da 7B       		.byte	0x7b
 1210 04db 34040000 		.4byte	0x434
 1211 04df 03       		.uleb128 0x3
 1212 04e0 14000000 		.4byte	.LASF78
 1213 04e4 0B       		.byte	0xb
 1214 04e5 EE       		.byte	0xee
 1215 04e6 34040000 		.4byte	0x434
 1216 04ea 0F       		.uleb128 0xf
 1217 04eb 2C000000 		.4byte	0x2c
 1218 04ef 03050000 		.4byte	0x503
 1219 04f3 10       		.uleb128 0x10
 1220 04f4 7F020000 		.4byte	0x27f
 1221 04f8 10       		.uleb128 0x10
 1222 04f9 03050000 		.4byte	0x503
 1223 04fd 10       		.uleb128 0x10
 1224 04fe 2C000000 		.4byte	0x2c
 1225 0502 00       		.byte	0
 1226 0503 09       		.uleb128 0x9
 1227 0504 04       		.byte	0x4
 1228 0505 09050000 		.4byte	0x509
 1229 0509 0E       		.uleb128 0xe
 1230 050a 97000000 		.4byte	0x97
 1231 050e 09       		.uleb128 0x9
 1232 050f 04       		.byte	0x4
 1233 0510 EA040000 		.4byte	0x4ea
 1234 0514 0F       		.uleb128 0xf
 1235 0515 2C000000 		.4byte	0x2c
 1236 0519 2D050000 		.4byte	0x52d
 1237 051d 10       		.uleb128 0x10
 1238 051e 7F020000 		.4byte	0x27f
 1239 0522 10       		.uleb128 0x10
 1240 0523 CE040000 		.4byte	0x4ce
 1241 0527 10       		.uleb128 0x10
 1242 0528 2C000000 		.4byte	0x2c
 1243 052c 00       		.byte	0
 1244 052d 09       		.uleb128 0x9
 1245 052e 04       		.byte	0x4
 1246 052f 14050000 		.4byte	0x514
 1247 0533 0F       		.uleb128 0xf
 1248 0534 FA000000 		.4byte	0xfa
 1249 0538 47050000 		.4byte	0x547
 1250 053c 10       		.uleb128 0x10
 1251 053d 7F020000 		.4byte	0x27f
 1252 0541 10       		.uleb128 0x10
 1253 0542 97000000 		.4byte	0x97
 1254 0546 00       		.byte	0
ARM GAS  /tmp/ccYForOS.s 			page 23


 1255 0547 09       		.uleb128 0x9
 1256 0548 04       		.byte	0x4
 1257 0549 33050000 		.4byte	0x533
 1258 054d 0F       		.uleb128 0xf
 1259 054e FA000000 		.4byte	0xfa
 1260 0552 66050000 		.4byte	0x566
 1261 0556 10       		.uleb128 0x10
 1262 0557 7F020000 		.4byte	0x27f
 1263 055b 10       		.uleb128 0x10
 1264 055c 97000000 		.4byte	0x97
 1265 0560 10       		.uleb128 0x10
 1266 0561 1B010000 		.4byte	0x11b
 1267 0565 00       		.byte	0
 1268 0566 09       		.uleb128 0x9
 1269 0567 04       		.byte	0x4
 1270 0568 4D050000 		.4byte	0x54d
 1271 056c 0F       		.uleb128 0xf
 1272 056d FA000000 		.4byte	0xfa
 1273 0571 80050000 		.4byte	0x580
 1274 0575 10       		.uleb128 0x10
 1275 0576 7F020000 		.4byte	0x27f
 1276 057a 10       		.uleb128 0x10
 1277 057b 1B010000 		.4byte	0x11b
 1278 057f 00       		.byte	0
 1279 0580 09       		.uleb128 0x9
 1280 0581 04       		.byte	0x4
 1281 0582 6C050000 		.4byte	0x56c
 1282 0586 0F       		.uleb128 0xf
 1283 0587 2C000000 		.4byte	0x2c
 1284 058b A4050000 		.4byte	0x5a4
 1285 058f 10       		.uleb128 0x10
 1286 0590 7F020000 		.4byte	0x27f
 1287 0594 10       		.uleb128 0x10
 1288 0595 03050000 		.4byte	0x503
 1289 0599 10       		.uleb128 0x10
 1290 059a 2C000000 		.4byte	0x2c
 1291 059e 10       		.uleb128 0x10
 1292 059f 1B010000 		.4byte	0x11b
 1293 05a3 00       		.byte	0
 1294 05a4 09       		.uleb128 0x9
 1295 05a5 04       		.byte	0x4
 1296 05a6 86050000 		.4byte	0x586
 1297 05aa 0F       		.uleb128 0xf
 1298 05ab 2C000000 		.4byte	0x2c
 1299 05af C8050000 		.4byte	0x5c8
 1300 05b3 10       		.uleb128 0x10
 1301 05b4 7F020000 		.4byte	0x27f
 1302 05b8 10       		.uleb128 0x10
 1303 05b9 CE040000 		.4byte	0x4ce
 1304 05bd 10       		.uleb128 0x10
 1305 05be 2C000000 		.4byte	0x2c
 1306 05c2 10       		.uleb128 0x10
 1307 05c3 1B010000 		.4byte	0x11b
 1308 05c7 00       		.byte	0
 1309 05c8 09       		.uleb128 0x9
 1310 05c9 04       		.byte	0x4
 1311 05ca AA050000 		.4byte	0x5aa
ARM GAS  /tmp/ccYForOS.s 			page 24


 1312 05ce 12       		.uleb128 0x12
 1313 05cf 01       		.byte	0x1
 1314 05d0 0C       		.byte	0xc
 1315 05d1 5D       		.byte	0x5d
 1316 05d2 E9050000 		.4byte	0x5e9
 1317 05d6 13       		.uleb128 0x13
 1318 05d7 35030000 		.4byte	.LASF79
 1319 05db 00       		.sleb128 0
 1320 05dc 13       		.uleb128 0x13
 1321 05dd 92000000 		.4byte	.LASF80
 1322 05e1 01       		.sleb128 1
 1323 05e2 13       		.uleb128 0x13
 1324 05e3 BF030000 		.4byte	.LASF81
 1325 05e7 02       		.sleb128 2
 1326 05e8 00       		.byte	0
 1327 05e9 03       		.uleb128 0x3
 1328 05ea 48030000 		.4byte	.LASF82
 1329 05ee 0C       		.byte	0xc
 1330 05ef 61       		.byte	0x61
 1331 05f0 CE050000 		.4byte	0x5ce
 1332 05f4 03       		.uleb128 0x3
 1333 05f5 52030000 		.4byte	.LASF83
 1334 05f9 0C       		.byte	0xc
 1335 05fa 66       		.byte	0x66
 1336 05fb FF050000 		.4byte	0x5ff
 1337 05ff 05       		.uleb128 0x5
 1338 0600 52030000 		.4byte	.LASF83
 1339 0604 74       		.byte	0x74
 1340 0605 0C       		.byte	0xc
 1341 0606 80       		.byte	0x80
 1342 0607 5E060000 		.4byte	0x65e
 1343 060b 07       		.uleb128 0x7
 1344 060c 766D7400 		.ascii	"vmt\000"
 1345 0610 0C       		.byte	0xc
 1346 0611 82       		.byte	0x82
 1347 0612 EB060000 		.4byte	0x6eb
 1348 0616 00       		.byte	0
 1349 0617 06       		.uleb128 0x6
 1350 0618 69010000 		.4byte	.LASF84
 1351 061c 0C       		.byte	0xc
 1352 061d 83       		.byte	0x83
 1353 061e C0030000 		.4byte	0x3c0
 1354 0622 04       		.byte	0x4
 1355 0623 06       		.uleb128 0x6
 1356 0624 C2000000 		.4byte	.LASF85
 1357 0628 0C       		.byte	0xc
 1358 0629 83       		.byte	0x83
 1359 062a E9050000 		.4byte	0x5e9
 1360 062e 08       		.byte	0x8
 1361 062f 06       		.uleb128 0x6
 1362 0630 3F010000 		.4byte	.LASF86
 1363 0634 0C       		.byte	0xc
 1364 0635 83       		.byte	0x83
 1365 0636 D4040000 		.4byte	0x4d4
 1366 063a 0C       		.byte	0xc
 1367 063b 06       		.uleb128 0x6
 1368 063c BC010000 		.4byte	.LASF87
ARM GAS  /tmp/ccYForOS.s 			page 25


 1369 0640 0C       		.byte	0xc
 1370 0641 83       		.byte	0x83
 1371 0642 DF040000 		.4byte	0x4df
 1372 0646 30       		.byte	0x30
 1373 0647 07       		.uleb128 0x7
 1374 0648 696200   		.ascii	"ib\000"
 1375 064b 0C       		.byte	0xc
 1376 064c 83       		.byte	0x83
 1377 064d F6060000 		.4byte	0x6f6
 1378 0651 54       		.byte	0x54
 1379 0652 07       		.uleb128 0x7
 1380 0653 6F6200   		.ascii	"ob\000"
 1381 0656 0C       		.byte	0xc
 1382 0657 83       		.byte	0x83
 1383 0658 F6060000 		.4byte	0x6f6
 1384 065c 64       		.byte	0x64
 1385 065d 00       		.byte	0
 1386 065e 08       		.uleb128 0x8
 1387 065f 04       		.byte	0x4
 1388 0660 0D       		.byte	0xd
 1389 0661 42       		.byte	0x42
 1390 0662 73060000 		.4byte	0x673
 1391 0666 06       		.uleb128 0x6
 1392 0667 41000000 		.4byte	.LASF88
 1393 066b 0D       		.byte	0xd
 1394 066c 44       		.byte	0x44
 1395 066d AD000000 		.4byte	0xad
 1396 0671 00       		.byte	0
 1397 0672 00       		.byte	0
 1398 0673 03       		.uleb128 0x3
 1399 0674 59020000 		.4byte	.LASF89
 1400 0678 0D       		.byte	0xd
 1401 0679 45       		.byte	0x45
 1402 067a 5E060000 		.4byte	0x65e
 1403 067e 05       		.uleb128 0x5
 1404 067f 2F010000 		.4byte	.LASF90
 1405 0683 20       		.byte	0x20
 1406 0684 0C       		.byte	0xc
 1407 0685 75       		.byte	0x75
 1408 0686 EB060000 		.4byte	0x6eb
 1409 068a 06       		.uleb128 0x6
 1410 068b 1E020000 		.4byte	.LASF91
 1411 068f 0C       		.byte	0xc
 1412 0690 76       		.byte	0x76
 1413 0691 0E050000 		.4byte	0x50e
 1414 0695 00       		.byte	0
 1415 0696 06       		.uleb128 0x6
 1416 0697 5F030000 		.4byte	.LASF92
 1417 069b 0C       		.byte	0xc
 1418 069c 76       		.byte	0x76
 1419 069d 2D050000 		.4byte	0x52d
 1420 06a1 04       		.byte	0x4
 1421 06a2 07       		.uleb128 0x7
 1422 06a3 70757400 		.ascii	"put\000"
 1423 06a7 0C       		.byte	0xc
 1424 06a8 76       		.byte	0x76
 1425 06a9 47050000 		.4byte	0x547
ARM GAS  /tmp/ccYForOS.s 			page 26


 1426 06ad 08       		.byte	0x8
 1427 06ae 07       		.uleb128 0x7
 1428 06af 67657400 		.ascii	"get\000"
 1429 06b3 0C       		.byte	0xc
 1430 06b4 76       		.byte	0x76
 1431 06b5 18040000 		.4byte	0x418
 1432 06b9 0C       		.byte	0xc
 1433 06ba 06       		.uleb128 0x6
 1434 06bb 24020000 		.4byte	.LASF93
 1435 06bf 0C       		.byte	0xc
 1436 06c0 76       		.byte	0x76
 1437 06c1 66050000 		.4byte	0x566
 1438 06c5 10       		.byte	0x10
 1439 06c6 06       		.uleb128 0x6
 1440 06c7 64010000 		.4byte	.LASF94
 1441 06cb 0C       		.byte	0xc
 1442 06cc 76       		.byte	0x76
 1443 06cd 80050000 		.4byte	0x580
 1444 06d1 14       		.byte	0x14
 1445 06d2 06       		.uleb128 0x6
 1446 06d3 D9010000 		.4byte	.LASF95
 1447 06d7 0C       		.byte	0xc
 1448 06d8 76       		.byte	0x76
 1449 06d9 A4050000 		.4byte	0x5a4
 1450 06dd 18       		.byte	0x18
 1451 06de 06       		.uleb128 0x6
 1452 06df 68000000 		.4byte	.LASF96
 1453 06e3 0C       		.byte	0xc
 1454 06e4 76       		.byte	0x76
 1455 06e5 C8050000 		.4byte	0x5c8
 1456 06e9 1C       		.byte	0x1c
 1457 06ea 00       		.byte	0
 1458 06eb 09       		.uleb128 0x9
 1459 06ec 04       		.byte	0x4
 1460 06ed F1060000 		.4byte	0x6f1
 1461 06f1 0E       		.uleb128 0xe
 1462 06f2 7E060000 		.4byte	0x67e
 1463 06f6 14       		.uleb128 0x14
 1464 06f7 97000000 		.4byte	0x97
 1465 06fb 06070000 		.4byte	0x706
 1466 06ff 15       		.uleb128 0x15
 1467 0700 2D040000 		.4byte	0x42d
 1468 0704 0F       		.byte	0xf
 1469 0705 00       		.byte	0
 1470 0706 16       		.uleb128 0x16
 1471 0707 D1000000 		.4byte	.LASF107
 1472 070b 01       		.byte	0x1
 1473 070c AC       		.byte	0xac
 1474 070d 01       		.byte	0x1
 1475 070e 1C070000 		.4byte	0x71c
 1476 0712 17       		.uleb128 0x17
 1477 0713 6300     		.ascii	"c\000"
 1478 0715 01       		.byte	0x1
 1479 0716 AC       		.byte	0xac
 1480 0717 AD000000 		.4byte	0xad
 1481 071b 00       		.byte	0
 1482 071c 18       		.uleb128 0x18
ARM GAS  /tmp/ccYForOS.s 			page 27


 1483 071d 33040000 		.4byte	.LASF114
 1484 0721 01       		.byte	0x1
 1485 0722 3B       		.byte	0x3b
 1486 0723 00000000 		.4byte	.LFB7
 1487 0727 18000000 		.4byte	.LFE7-.LFB7
 1488 072b 01       		.uleb128 0x1
 1489 072c 9C       		.byte	0x9c
 1490 072d 3E070000 		.4byte	0x73e
 1491 0731 19       		.uleb128 0x19
 1492 0732 717000   		.ascii	"qp\000"
 1493 0735 01       		.byte	0x1
 1494 0736 3B       		.byte	0x3b
 1495 0737 C8040000 		.4byte	0x4c8
 1496 073b 01       		.uleb128 0x1
 1497 073c 50       		.byte	0x50
 1498 073d 00       		.byte	0
 1499 073e 1A       		.uleb128 0x1a
 1500 073f 35050000 		.4byte	.LASF97
 1501 0743 01       		.byte	0x1
 1502 0744 45       		.byte	0x45
 1503 0745 00000000 		.4byte	.LFB8
 1504 0749 AC000000 		.4byte	.LFE8-.LFB8
 1505 074d 01       		.uleb128 0x1
 1506 074e 9C       		.byte	0x9c
 1507 074f B5070000 		.4byte	0x7b5
 1508 0753 1B       		.uleb128 0x1b
 1509 0754 73647000 		.ascii	"sdp\000"
 1510 0758 01       		.byte	0x1
 1511 0759 45       		.byte	0x45
 1512 075a B5070000 		.4byte	0x7b5
 1513 075e 00000000 		.4byte	.LLST0
 1514 0762 1C       		.uleb128 0x1c
 1515 0763 00000000 		.4byte	.Ldebug_ranges0+0
 1516 0767 A4070000 		.4byte	0x7a4
 1517 076b 1D       		.uleb128 0x1d
 1518 076c 4B000000 		.4byte	.LASF103
 1519 0770 01       		.byte	0x1
 1520 0771 52       		.byte	0x52
 1521 0772 FA000000 		.4byte	0xfa
 1522 0776 34000000 		.4byte	.LLST1
 1523 077a 1E       		.uleb128 0x1e
 1524 077b 06070000 		.4byte	0x706
 1525 077f 50000000 		.4byte	.LBB16
 1526 0783 18000000 		.4byte	.LBE16-.LBB16
 1527 0787 01       		.byte	0x1
 1528 0788 58       		.byte	0x58
 1529 0789 93070000 		.4byte	0x793
 1530 078d 1F       		.uleb128 0x1f
 1531 078e 12070000 		.4byte	0x712
 1532 0792 00       		.byte	0
 1533 0793 20       		.uleb128 0x20
 1534 0794 48000000 		.4byte	.LVL3
 1535 0798 1E0A0000 		.4byte	0xa1e
 1536 079c 21       		.uleb128 0x21
 1537 079d 01       		.uleb128 0x1
 1538 079e 50       		.byte	0x50
 1539 079f 02       		.uleb128 0x2
ARM GAS  /tmp/ccYForOS.s 			page 28


 1540 07a0 75       		.byte	0x75
 1541 07a1 00       		.sleb128 0
 1542 07a2 00       		.byte	0
 1543 07a3 00       		.byte	0
 1544 07a4 20       		.uleb128 0x20
 1545 07a5 88000000 		.4byte	.LVL6
 1546 07a9 340A0000 		.4byte	0xa34
 1547 07ad 21       		.uleb128 0x21
 1548 07ae 01       		.uleb128 0x1
 1549 07af 50       		.byte	0x50
 1550 07b0 02       		.uleb128 0x2
 1551 07b1 75       		.byte	0x75
 1552 07b2 00       		.sleb128 0
 1553 07b3 00       		.byte	0
 1554 07b4 00       		.byte	0
 1555 07b5 09       		.uleb128 0x9
 1556 07b6 04       		.byte	0x4
 1557 07b7 F4050000 		.4byte	0x5f4
 1558 07bb 1A       		.uleb128 0x1a
 1559 07bc 58010000 		.4byte	.LASF98
 1560 07c0 01       		.byte	0x1
 1561 07c1 67       		.byte	0x67
 1562 07c2 00000000 		.4byte	.LFB9
 1563 07c6 18000000 		.4byte	.LFE9-.LFB9
 1564 07ca 01       		.uleb128 0x1
 1565 07cb 9C       		.byte	0x9c
 1566 07cc F2070000 		.4byte	0x7f2
 1567 07d0 22       		.uleb128 0x22
 1568 07d1 10000000 		.4byte	.LVL8
 1569 07d5 4B0A0000 		.4byte	0xa4b
 1570 07d9 21       		.uleb128 0x21
 1571 07da 01       		.uleb128 0x1
 1572 07db 52       		.byte	0x52
 1573 07dc 05       		.uleb128 0x5
 1574 07dd 03       		.byte	0x3
 1575 07de 00000000 		.4byte	output_notify
 1576 07e2 21       		.uleb128 0x21
 1577 07e3 01       		.uleb128 0x1
 1578 07e4 51       		.byte	0x51
 1579 07e5 01       		.uleb128 0x1
 1580 07e6 30       		.byte	0x30
 1581 07e7 21       		.uleb128 0x21
 1582 07e8 01       		.uleb128 0x1
 1583 07e9 50       		.byte	0x50
 1584 07ea 05       		.uleb128 0x5
 1585 07eb 03       		.byte	0x3
 1586 07ec 00000000 		.4byte	SD1
 1587 07f0 00       		.byte	0
 1588 07f1 00       		.byte	0
 1589 07f2 23       		.uleb128 0x23
 1590 07f3 B8020000 		.4byte	.LASF99
 1591 07f7 01       		.byte	0x1
 1592 07f8 75       		.byte	0x75
 1593 07f9 00000000 		.4byte	.LFB10
 1594 07fd C4000000 		.4byte	.LFE10-.LFB10
 1595 0801 01       		.uleb128 0x1
 1596 0802 9C       		.byte	0x9c
ARM GAS  /tmp/ccYForOS.s 			page 29


 1597 0803 7A080000 		.4byte	0x87a
 1598 0807 1B       		.uleb128 0x1b
 1599 0808 73647000 		.ascii	"sdp\000"
 1600 080c 01       		.byte	0x1
 1601 080d 75       		.byte	0x75
 1602 080e B5070000 		.4byte	0x7b5
 1603 0812 52000000 		.4byte	.LLST2
 1604 0816 24       		.uleb128 0x24
 1605 0817 79030000 		.4byte	.LASF100
 1606 081b 01       		.byte	0x1
 1607 081c 75       		.byte	0x75
 1608 081d 7A080000 		.4byte	0x87a
 1609 0821 73000000 		.4byte	.LLST3
 1610 0825 25       		.uleb128 0x25
 1611 0826 78000000 		.4byte	.LVL14
 1612 082a 670A0000 		.4byte	0xa67
 1613 082e 3D080000 		.4byte	0x83d
 1614 0832 21       		.uleb128 0x21
 1615 0833 01       		.uleb128 0x1
 1616 0834 51       		.byte	0x51
 1617 0835 01       		.uleb128 0x1
 1618 0836 32       		.byte	0x32
 1619 0837 21       		.uleb128 0x21
 1620 0838 01       		.uleb128 0x1
 1621 0839 50       		.byte	0x50
 1622 083a 01       		.uleb128 0x1
 1623 083b 3E       		.byte	0x3e
 1624 083c 00       		.byte	0
 1625 083d 25       		.uleb128 0x25
 1626 083e 84000000 		.4byte	.LVL15
 1627 0842 670A0000 		.4byte	0xa67
 1628 0846 55080000 		.4byte	0x855
 1629 084a 21       		.uleb128 0x21
 1630 084b 01       		.uleb128 0x1
 1631 084c 51       		.byte	0x51
 1632 084d 01       		.uleb128 0x1
 1633 084e 32       		.byte	0x32
 1634 084f 21       		.uleb128 0x21
 1635 0850 01       		.uleb128 0x1
 1636 0851 50       		.byte	0x50
 1637 0852 01       		.uleb128 0x1
 1638 0853 3F       		.byte	0x3f
 1639 0854 00       		.byte	0
 1640 0855 25       		.uleb128 0x25
 1641 0856 90000000 		.4byte	.LVL16
 1642 085a 7E0A0000 		.4byte	0xa7e
 1643 085e 69080000 		.4byte	0x869
 1644 0862 21       		.uleb128 0x21
 1645 0863 01       		.uleb128 0x1
 1646 0864 50       		.byte	0x50
 1647 0865 02       		.uleb128 0x2
 1648 0866 08       		.byte	0x8
 1649 0867 96       		.byte	0x96
 1650 0868 00       		.byte	0
 1651 0869 20       		.uleb128 0x20
 1652 086a A0000000 		.4byte	.LVL17
 1653 086e 7E0A0000 		.4byte	0xa7e
ARM GAS  /tmp/ccYForOS.s 			page 30


 1654 0872 21       		.uleb128 0x21
 1655 0873 01       		.uleb128 0x1
 1656 0874 50       		.byte	0x50
 1657 0875 02       		.uleb128 0x2
 1658 0876 08       		.byte	0x8
 1659 0877 96       		.byte	0x96
 1660 0878 00       		.byte	0
 1661 0879 00       		.byte	0
 1662 087a 09       		.uleb128 0x9
 1663 087b 04       		.byte	0x4
 1664 087c 80080000 		.4byte	0x880
 1665 0880 0E       		.uleb128 0xe
 1666 0881 73060000 		.4byte	0x673
 1667 0885 1A       		.uleb128 0x1a
 1668 0886 4C050000 		.4byte	.LASF101
 1669 088a 01       		.byte	0x1
 1670 088b 9E       		.byte	0x9e
 1671 088c 00000000 		.4byte	.LFB11
 1672 0890 34000000 		.4byte	.LFE11-.LFB11
 1673 0894 01       		.uleb128 0x1
 1674 0895 9C       		.byte	0x9c
 1675 0896 D6080000 		.4byte	0x8d6
 1676 089a 1B       		.uleb128 0x1b
 1677 089b 73647000 		.ascii	"sdp\000"
 1678 089f 01       		.byte	0x1
 1679 08a0 9E       		.byte	0x9e
 1680 08a1 B5070000 		.4byte	0x7b5
 1681 08a5 AF000000 		.4byte	.LLST4
 1682 08a9 25       		.uleb128 0x25
 1683 08aa 20000000 		.4byte	.LVL20
 1684 08ae 670A0000 		.4byte	0xa67
 1685 08b2 C1080000 		.4byte	0x8c1
 1686 08b6 21       		.uleb128 0x21
 1687 08b7 01       		.uleb128 0x1
 1688 08b8 51       		.byte	0x51
 1689 08b9 01       		.uleb128 0x1
 1690 08ba 30       		.byte	0x30
 1691 08bb 21       		.uleb128 0x21
 1692 08bc 01       		.uleb128 0x1
 1693 08bd 50       		.byte	0x50
 1694 08be 01       		.uleb128 0x1
 1695 08bf 3E       		.byte	0x3e
 1696 08c0 00       		.byte	0
 1697 08c1 22       		.uleb128 0x22
 1698 08c2 30000000 		.4byte	.LVL21
 1699 08c6 670A0000 		.4byte	0xa67
 1700 08ca 21       		.uleb128 0x21
 1701 08cb 01       		.uleb128 0x1
 1702 08cc 51       		.byte	0x51
 1703 08cd 01       		.uleb128 0x1
 1704 08ce 30       		.byte	0x30
 1705 08cf 21       		.uleb128 0x21
 1706 08d0 01       		.uleb128 0x1
 1707 08d1 50       		.byte	0x50
 1708 08d2 01       		.uleb128 0x1
 1709 08d3 3F       		.byte	0x3f
 1710 08d4 00       		.byte	0
ARM GAS  /tmp/ccYForOS.s 			page 31


 1711 08d5 00       		.byte	0
 1712 08d6 26       		.uleb128 0x26
 1713 08d7 1D040000 		.4byte	.LASF115
 1714 08db 01       		.byte	0x1
 1715 08dc A6       		.byte	0xa6
 1716 08dd AD000000 		.4byte	0xad
 1717 08e1 00000000 		.4byte	.LFB12
 1718 08e5 24000000 		.4byte	.LFE12-.LFB12
 1719 08e9 01       		.uleb128 0x1
 1720 08ea 9C       		.byte	0x9c
 1721 08eb 27       		.uleb128 0x27
 1722 08ec 06070000 		.4byte	0x706
 1723 08f0 00000000 		.4byte	.LFB13
 1724 08f4 20000000 		.4byte	.LFE13-.LFB13
 1725 08f8 01       		.uleb128 0x1
 1726 08f9 9C       		.byte	0x9c
 1727 08fa 06090000 		.4byte	0x906
 1728 08fe 28       		.uleb128 0x28
 1729 08ff 12070000 		.4byte	0x712
 1730 0903 01       		.uleb128 0x1
 1731 0904 50       		.byte	0x50
 1732 0905 00       		.byte	0
 1733 0906 1A       		.uleb128 0x1a
 1734 0907 61040000 		.4byte	.LASF102
 1735 090b 01       		.byte	0x1
 1736 090c B2       		.byte	0xb2
 1737 090d 00000000 		.4byte	.LFB14
 1738 0911 3C000000 		.4byte	.LFE14-.LFB14
 1739 0915 01       		.uleb128 0x1
 1740 0916 9C       		.byte	0x9c
 1741 0917 4B090000 		.4byte	0x94b
 1742 091b 1B       		.uleb128 0x1b
 1743 091c 7300     		.ascii	"s\000"
 1744 091e 01       		.byte	0x1
 1745 091f B2       		.byte	0xb2
 1746 0920 00040000 		.4byte	0x400
 1747 0924 D0000000 		.4byte	.LLST5
 1748 0928 29       		.uleb128 0x29
 1749 0929 6300     		.ascii	"c\000"
 1750 092b 01       		.byte	0x1
 1751 092c B4       		.byte	0xb4
 1752 092d 0B040000 		.4byte	0x40b
 1753 0931 06010000 		.4byte	.LLST6
 1754 0935 2A       		.uleb128 0x2a
 1755 0936 06070000 		.4byte	0x706
 1756 093a 10000000 		.4byte	.LBB19
 1757 093e 18000000 		.4byte	.LBE19-.LBB19
 1758 0942 01       		.byte	0x1
 1759 0943 B5       		.byte	0xb5
 1760 0944 1F       		.uleb128 0x1f
 1761 0945 12070000 		.4byte	0x712
 1762 0949 00       		.byte	0
 1763 094a 00       		.byte	0
 1764 094b 1A       		.uleb128 0x1a
 1765 094c 1B050000 		.4byte	.LASF104
 1766 0950 01       		.byte	0x1
 1767 0951 B8       		.byte	0xb8
ARM GAS  /tmp/ccYForOS.s 			page 32


 1768 0952 00000000 		.4byte	.LFB15
 1769 0956 9C000000 		.4byte	.LFE15-.LFB15
 1770 095a 01       		.uleb128 0x1
 1771 095b 9C       		.byte	0x9c
 1772 095c FC090000 		.4byte	0x9fc
 1773 0960 1B       		.uleb128 0x1b
 1774 0961 6400     		.ascii	"d\000"
 1775 0963 01       		.byte	0x1
 1776 0964 B8       		.byte	0xb8
 1777 0965 AD000000 		.4byte	0xad
 1778 0969 26010000 		.4byte	.LLST7
 1779 096d 24       		.uleb128 0x24
 1780 096e 60000000 		.4byte	.LASF105
 1781 0972 01       		.byte	0x1
 1782 0973 B8       		.byte	0xb8
 1783 0974 B8000000 		.4byte	0xb8
 1784 0978 47010000 		.4byte	.LLST8
 1785 097c 29       		.uleb128 0x29
 1786 097d 726200   		.ascii	"rb\000"
 1787 0980 01       		.byte	0x1
 1788 0981 BA       		.byte	0xba
 1789 0982 AD000000 		.4byte	0xad
 1790 0986 68010000 		.4byte	.LLST9
 1791 098a 29       		.uleb128 0x29
 1792 098b 726300   		.ascii	"rc\000"
 1793 098e 01       		.byte	0x1
 1794 098f BB       		.byte	0xbb
 1795 0990 AD000000 		.4byte	0xad
 1796 0994 88010000 		.4byte	.LLST10
 1797 0998 2B       		.uleb128 0x2b
 1798 0999 06070000 		.4byte	0x706
 1799 099d 08000000 		.4byte	.LBB21
 1800 09a1 18000000 		.4byte	.Ldebug_ranges0+0x18
 1801 09a5 01       		.byte	0x1
 1802 09a6 C6       		.byte	0xc6
 1803 09a7 B3090000 		.4byte	0x9b3
 1804 09ab 28       		.uleb128 0x28
 1805 09ac 12070000 		.4byte	0x712
 1806 09b0 01       		.uleb128 0x1
 1807 09b1 5E       		.byte	0x5e
 1808 09b2 00       		.byte	0
 1809 09b3 2B       		.uleb128 0x2b
 1810 09b4 06070000 		.4byte	0x706
 1811 09b8 40000000 		.4byte	.LBB27
 1812 09bc 38000000 		.4byte	.Ldebug_ranges0+0x38
 1813 09c0 01       		.byte	0x1
 1814 09c1 CA       		.byte	0xca
 1815 09c2 CC090000 		.4byte	0x9cc
 1816 09c6 1F       		.uleb128 0x1f
 1817 09c7 12070000 		.4byte	0x712
 1818 09cb 00       		.byte	0
 1819 09cc 2B       		.uleb128 0x2b
 1820 09cd 06070000 		.4byte	0x706
 1821 09d1 60000000 		.4byte	.LBB31
 1822 09d5 50000000 		.4byte	.Ldebug_ranges0+0x50
 1823 09d9 01       		.byte	0x1
 1824 09da CD       		.byte	0xcd
ARM GAS  /tmp/ccYForOS.s 			page 33


 1825 09db E5090000 		.4byte	0x9e5
 1826 09df 1F       		.uleb128 0x1f
 1827 09e0 12070000 		.4byte	0x712
 1828 09e4 00       		.byte	0
 1829 09e5 2C       		.uleb128 0x2c
 1830 09e6 06070000 		.4byte	0x706
 1831 09ea 74000000 		.4byte	.LBB34
 1832 09ee 68000000 		.4byte	.Ldebug_ranges0+0x68
 1833 09f2 01       		.byte	0x1
 1834 09f3 CE       		.byte	0xce
 1835 09f4 2D       		.uleb128 0x2d
 1836 09f5 12070000 		.4byte	0x712
 1837 09f9 0A       		.byte	0xa
 1838 09fa 00       		.byte	0
 1839 09fb 00       		.byte	0
 1840 09fc 2E       		.uleb128 0x2e
 1841 09fd B3000000 		.4byte	.LASF106
 1842 0a01 01       		.byte	0x1
 1843 0a02 33       		.byte	0x33
 1844 0a03 80080000 		.4byte	0x880
 1845 0a07 05       		.uleb128 0x5
 1846 0a08 03       		.byte	0x3
 1847 0a09 00000000 		.4byte	default_config
 1848 0a0d 2F       		.uleb128 0x2f
 1849 0a0e 53443100 		.ascii	"SD1\000"
 1850 0a12 01       		.byte	0x1
 1851 0a13 2A       		.byte	0x2a
 1852 0a14 F4050000 		.4byte	0x5f4
 1853 0a18 05       		.uleb128 0x5
 1854 0a19 03       		.byte	0x3
 1855 0a1a 00000000 		.4byte	SD1
 1856 0a1e 30       		.uleb128 0x30
 1857 0a1f 4A040000 		.4byte	.LASF116
 1858 0a23 0C       		.byte	0xc
 1859 0a24 3501     		.2byte	0x135
 1860 0a26 FA000000 		.4byte	0xfa
 1861 0a2a 340A0000 		.4byte	0xa34
 1862 0a2e 10       		.uleb128 0x10
 1863 0a2f B5070000 		.4byte	0x7b5
 1864 0a33 00       		.byte	0
 1865 0a34 31       		.uleb128 0x31
 1866 0a35 69030000 		.4byte	.LASF108
 1867 0a39 0C       		.byte	0xc
 1868 0a3a 3401     		.2byte	0x134
 1869 0a3c 4B0A0000 		.4byte	0xa4b
 1870 0a40 10       		.uleb128 0x10
 1871 0a41 B5070000 		.4byte	0x7b5
 1872 0a45 10       		.uleb128 0x10
 1873 0a46 97000000 		.4byte	0x97
 1874 0a4a 00       		.byte	0
 1875 0a4b 31       		.uleb128 0x31
 1876 0a4c 00030000 		.4byte	.LASF109
 1877 0a50 0C       		.byte	0xc
 1878 0a51 3101     		.2byte	0x131
 1879 0a53 670A0000 		.4byte	0xa67
 1880 0a57 10       		.uleb128 0x10
 1881 0a58 B5070000 		.4byte	0x7b5
ARM GAS  /tmp/ccYForOS.s 			page 34


 1882 0a5c 10       		.uleb128 0x10
 1883 0a5d AC040000 		.4byte	0x4ac
 1884 0a61 10       		.uleb128 0x10
 1885 0a62 AC040000 		.4byte	0x4ac
 1886 0a66 00       		.byte	0
 1887 0a67 31       		.uleb128 0x31
 1888 0a68 66020000 		.4byte	.LASF110
 1889 0a6c 0E       		.byte	0xe
 1890 0a6d 8C01     		.2byte	0x18c
 1891 0a6f 7E0A0000 		.4byte	0xa7e
 1892 0a73 10       		.uleb128 0x10
 1893 0a74 AD000000 		.4byte	0xad
 1894 0a78 10       		.uleb128 0x10
 1895 0a79 AD000000 		.4byte	0xad
 1896 0a7d 00       		.byte	0
 1897 0a7e 32       		.uleb128 0x32
 1898 0a7f CB010000 		.4byte	.LASF117
 1899 0a83 0E       		.byte	0xe
 1900 0a84 8D01     		.2byte	0x18d
 1901 0a86 10       		.uleb128 0x10
 1902 0a87 AD000000 		.4byte	0xad
 1903 0a8b 00       		.byte	0
 1904 0a8c 00       		.byte	0
 1905              		.section	.debug_abbrev,"",%progbits
 1906              	.Ldebug_abbrev0:
 1907 0000 01       		.uleb128 0x1
 1908 0001 11       		.uleb128 0x11
 1909 0002 01       		.byte	0x1
 1910 0003 25       		.uleb128 0x25
 1911 0004 0E       		.uleb128 0xe
 1912 0005 13       		.uleb128 0x13
 1913 0006 0B       		.uleb128 0xb
 1914 0007 03       		.uleb128 0x3
 1915 0008 0E       		.uleb128 0xe
 1916 0009 1B       		.uleb128 0x1b
 1917 000a 0E       		.uleb128 0xe
 1918 000b 55       		.uleb128 0x55
 1919 000c 17       		.uleb128 0x17
 1920 000d 11       		.uleb128 0x11
 1921 000e 01       		.uleb128 0x1
 1922 000f 10       		.uleb128 0x10
 1923 0010 17       		.uleb128 0x17
 1924 0011 00       		.byte	0
 1925 0012 00       		.byte	0
 1926 0013 02       		.uleb128 0x2
 1927 0014 24       		.uleb128 0x24
 1928 0015 00       		.byte	0
 1929 0016 0B       		.uleb128 0xb
 1930 0017 0B       		.uleb128 0xb
 1931 0018 3E       		.uleb128 0x3e
 1932 0019 0B       		.uleb128 0xb
 1933 001a 03       		.uleb128 0x3
 1934 001b 08       		.uleb128 0x8
 1935 001c 00       		.byte	0
 1936 001d 00       		.byte	0
 1937 001e 03       		.uleb128 0x3
 1938 001f 16       		.uleb128 0x16
ARM GAS  /tmp/ccYForOS.s 			page 35


 1939 0020 00       		.byte	0
 1940 0021 03       		.uleb128 0x3
 1941 0022 0E       		.uleb128 0xe
 1942 0023 3A       		.uleb128 0x3a
 1943 0024 0B       		.uleb128 0xb
 1944 0025 3B       		.uleb128 0x3b
 1945 0026 0B       		.uleb128 0xb
 1946 0027 49       		.uleb128 0x49
 1947 0028 13       		.uleb128 0x13
 1948 0029 00       		.byte	0
 1949 002a 00       		.byte	0
 1950 002b 04       		.uleb128 0x4
 1951 002c 24       		.uleb128 0x24
 1952 002d 00       		.byte	0
 1953 002e 0B       		.uleb128 0xb
 1954 002f 0B       		.uleb128 0xb
 1955 0030 3E       		.uleb128 0x3e
 1956 0031 0B       		.uleb128 0xb
 1957 0032 03       		.uleb128 0x3
 1958 0033 0E       		.uleb128 0xe
 1959 0034 00       		.byte	0
 1960 0035 00       		.byte	0
 1961 0036 05       		.uleb128 0x5
 1962 0037 13       		.uleb128 0x13
 1963 0038 01       		.byte	0x1
 1964 0039 03       		.uleb128 0x3
 1965 003a 0E       		.uleb128 0xe
 1966 003b 0B       		.uleb128 0xb
 1967 003c 0B       		.uleb128 0xb
 1968 003d 3A       		.uleb128 0x3a
 1969 003e 0B       		.uleb128 0xb
 1970 003f 3B       		.uleb128 0x3b
 1971 0040 0B       		.uleb128 0xb
 1972 0041 01       		.uleb128 0x1
 1973 0042 13       		.uleb128 0x13
 1974 0043 00       		.byte	0
 1975 0044 00       		.byte	0
 1976 0045 06       		.uleb128 0x6
 1977 0046 0D       		.uleb128 0xd
 1978 0047 00       		.byte	0
 1979 0048 03       		.uleb128 0x3
 1980 0049 0E       		.uleb128 0xe
 1981 004a 3A       		.uleb128 0x3a
 1982 004b 0B       		.uleb128 0xb
 1983 004c 3B       		.uleb128 0x3b
 1984 004d 0B       		.uleb128 0xb
 1985 004e 49       		.uleb128 0x49
 1986 004f 13       		.uleb128 0x13
 1987 0050 38       		.uleb128 0x38
 1988 0051 0B       		.uleb128 0xb
 1989 0052 00       		.byte	0
 1990 0053 00       		.byte	0
 1991 0054 07       		.uleb128 0x7
 1992 0055 0D       		.uleb128 0xd
 1993 0056 00       		.byte	0
 1994 0057 03       		.uleb128 0x3
 1995 0058 08       		.uleb128 0x8
ARM GAS  /tmp/ccYForOS.s 			page 36


 1996 0059 3A       		.uleb128 0x3a
 1997 005a 0B       		.uleb128 0xb
 1998 005b 3B       		.uleb128 0x3b
 1999 005c 0B       		.uleb128 0xb
 2000 005d 49       		.uleb128 0x49
 2001 005e 13       		.uleb128 0x13
 2002 005f 38       		.uleb128 0x38
 2003 0060 0B       		.uleb128 0xb
 2004 0061 00       		.byte	0
 2005 0062 00       		.byte	0
 2006 0063 08       		.uleb128 0x8
 2007 0064 13       		.uleb128 0x13
 2008 0065 01       		.byte	0x1
 2009 0066 0B       		.uleb128 0xb
 2010 0067 0B       		.uleb128 0xb
 2011 0068 3A       		.uleb128 0x3a
 2012 0069 0B       		.uleb128 0xb
 2013 006a 3B       		.uleb128 0x3b
 2014 006b 0B       		.uleb128 0xb
 2015 006c 01       		.uleb128 0x1
 2016 006d 13       		.uleb128 0x13
 2017 006e 00       		.byte	0
 2018 006f 00       		.byte	0
 2019 0070 09       		.uleb128 0x9
 2020 0071 0F       		.uleb128 0xf
 2021 0072 00       		.byte	0
 2022 0073 0B       		.uleb128 0xb
 2023 0074 0B       		.uleb128 0xb
 2024 0075 49       		.uleb128 0x49
 2025 0076 13       		.uleb128 0x13
 2026 0077 00       		.byte	0
 2027 0078 00       		.byte	0
 2028 0079 0A       		.uleb128 0xa
 2029 007a 0F       		.uleb128 0xf
 2030 007b 00       		.byte	0
 2031 007c 0B       		.uleb128 0xb
 2032 007d 0B       		.uleb128 0xb
 2033 007e 00       		.byte	0
 2034 007f 00       		.byte	0
 2035 0080 0B       		.uleb128 0xb
 2036 0081 35       		.uleb128 0x35
 2037 0082 00       		.byte	0
 2038 0083 49       		.uleb128 0x49
 2039 0084 13       		.uleb128 0x13
 2040 0085 00       		.byte	0
 2041 0086 00       		.byte	0
 2042 0087 0C       		.uleb128 0xc
 2043 0088 17       		.uleb128 0x17
 2044 0089 01       		.byte	0x1
 2045 008a 0B       		.uleb128 0xb
 2046 008b 0B       		.uleb128 0xb
 2047 008c 3A       		.uleb128 0x3a
 2048 008d 0B       		.uleb128 0xb
 2049 008e 3B       		.uleb128 0x3b
 2050 008f 0B       		.uleb128 0xb
 2051 0090 01       		.uleb128 0x1
 2052 0091 13       		.uleb128 0x13
ARM GAS  /tmp/ccYForOS.s 			page 37


 2053 0092 00       		.byte	0
 2054 0093 00       		.byte	0
 2055 0094 0D       		.uleb128 0xd
 2056 0095 0D       		.uleb128 0xd
 2057 0096 00       		.byte	0
 2058 0097 03       		.uleb128 0x3
 2059 0098 0E       		.uleb128 0xe
 2060 0099 3A       		.uleb128 0x3a
 2061 009a 0B       		.uleb128 0xb
 2062 009b 3B       		.uleb128 0x3b
 2063 009c 0B       		.uleb128 0xb
 2064 009d 49       		.uleb128 0x49
 2065 009e 13       		.uleb128 0x13
 2066 009f 00       		.byte	0
 2067 00a0 00       		.byte	0
 2068 00a1 0E       		.uleb128 0xe
 2069 00a2 26       		.uleb128 0x26
 2070 00a3 00       		.byte	0
 2071 00a4 49       		.uleb128 0x49
 2072 00a5 13       		.uleb128 0x13
 2073 00a6 00       		.byte	0
 2074 00a7 00       		.byte	0
 2075 00a8 0F       		.uleb128 0xf
 2076 00a9 15       		.uleb128 0x15
 2077 00aa 01       		.byte	0x1
 2078 00ab 27       		.uleb128 0x27
 2079 00ac 19       		.uleb128 0x19
 2080 00ad 49       		.uleb128 0x49
 2081 00ae 13       		.uleb128 0x13
 2082 00af 01       		.uleb128 0x1
 2083 00b0 13       		.uleb128 0x13
 2084 00b1 00       		.byte	0
 2085 00b2 00       		.byte	0
 2086 00b3 10       		.uleb128 0x10
 2087 00b4 05       		.uleb128 0x5
 2088 00b5 00       		.byte	0
 2089 00b6 49       		.uleb128 0x49
 2090 00b7 13       		.uleb128 0x13
 2091 00b8 00       		.byte	0
 2092 00b9 00       		.byte	0
 2093 00ba 11       		.uleb128 0x11
 2094 00bb 15       		.uleb128 0x15
 2095 00bc 01       		.byte	0x1
 2096 00bd 27       		.uleb128 0x27
 2097 00be 19       		.uleb128 0x19
 2098 00bf 01       		.uleb128 0x1
 2099 00c0 13       		.uleb128 0x13
 2100 00c1 00       		.byte	0
 2101 00c2 00       		.byte	0
 2102 00c3 12       		.uleb128 0x12
 2103 00c4 04       		.uleb128 0x4
 2104 00c5 01       		.byte	0x1
 2105 00c6 0B       		.uleb128 0xb
 2106 00c7 0B       		.uleb128 0xb
 2107 00c8 3A       		.uleb128 0x3a
 2108 00c9 0B       		.uleb128 0xb
 2109 00ca 3B       		.uleb128 0x3b
ARM GAS  /tmp/ccYForOS.s 			page 38


 2110 00cb 0B       		.uleb128 0xb
 2111 00cc 01       		.uleb128 0x1
 2112 00cd 13       		.uleb128 0x13
 2113 00ce 00       		.byte	0
 2114 00cf 00       		.byte	0
 2115 00d0 13       		.uleb128 0x13
 2116 00d1 28       		.uleb128 0x28
 2117 00d2 00       		.byte	0
 2118 00d3 03       		.uleb128 0x3
 2119 00d4 0E       		.uleb128 0xe
 2120 00d5 1C       		.uleb128 0x1c
 2121 00d6 0D       		.uleb128 0xd
 2122 00d7 00       		.byte	0
 2123 00d8 00       		.byte	0
 2124 00d9 14       		.uleb128 0x14
 2125 00da 01       		.uleb128 0x1
 2126 00db 01       		.byte	0x1
 2127 00dc 49       		.uleb128 0x49
 2128 00dd 13       		.uleb128 0x13
 2129 00de 01       		.uleb128 0x1
 2130 00df 13       		.uleb128 0x13
 2131 00e0 00       		.byte	0
 2132 00e1 00       		.byte	0
 2133 00e2 15       		.uleb128 0x15
 2134 00e3 21       		.uleb128 0x21
 2135 00e4 00       		.byte	0
 2136 00e5 49       		.uleb128 0x49
 2137 00e6 13       		.uleb128 0x13
 2138 00e7 2F       		.uleb128 0x2f
 2139 00e8 0B       		.uleb128 0xb
 2140 00e9 00       		.byte	0
 2141 00ea 00       		.byte	0
 2142 00eb 16       		.uleb128 0x16
 2143 00ec 2E       		.uleb128 0x2e
 2144 00ed 01       		.byte	0x1
 2145 00ee 3F       		.uleb128 0x3f
 2146 00ef 19       		.uleb128 0x19
 2147 00f0 03       		.uleb128 0x3
 2148 00f1 0E       		.uleb128 0xe
 2149 00f2 3A       		.uleb128 0x3a
 2150 00f3 0B       		.uleb128 0xb
 2151 00f4 3B       		.uleb128 0x3b
 2152 00f5 0B       		.uleb128 0xb
 2153 00f6 27       		.uleb128 0x27
 2154 00f7 19       		.uleb128 0x19
 2155 00f8 20       		.uleb128 0x20
 2156 00f9 0B       		.uleb128 0xb
 2157 00fa 01       		.uleb128 0x1
 2158 00fb 13       		.uleb128 0x13
 2159 00fc 00       		.byte	0
 2160 00fd 00       		.byte	0
 2161 00fe 17       		.uleb128 0x17
 2162 00ff 05       		.uleb128 0x5
 2163 0100 00       		.byte	0
 2164 0101 03       		.uleb128 0x3
 2165 0102 08       		.uleb128 0x8
 2166 0103 3A       		.uleb128 0x3a
ARM GAS  /tmp/ccYForOS.s 			page 39


 2167 0104 0B       		.uleb128 0xb
 2168 0105 3B       		.uleb128 0x3b
 2169 0106 0B       		.uleb128 0xb
 2170 0107 49       		.uleb128 0x49
 2171 0108 13       		.uleb128 0x13
 2172 0109 00       		.byte	0
 2173 010a 00       		.byte	0
 2174 010b 18       		.uleb128 0x18
 2175 010c 2E       		.uleb128 0x2e
 2176 010d 01       		.byte	0x1
 2177 010e 03       		.uleb128 0x3
 2178 010f 0E       		.uleb128 0xe
 2179 0110 3A       		.uleb128 0x3a
 2180 0111 0B       		.uleb128 0xb
 2181 0112 3B       		.uleb128 0x3b
 2182 0113 0B       		.uleb128 0xb
 2183 0114 27       		.uleb128 0x27
 2184 0115 19       		.uleb128 0x19
 2185 0116 11       		.uleb128 0x11
 2186 0117 01       		.uleb128 0x1
 2187 0118 12       		.uleb128 0x12
 2188 0119 06       		.uleb128 0x6
 2189 011a 40       		.uleb128 0x40
 2190 011b 18       		.uleb128 0x18
 2191 011c 9742     		.uleb128 0x2117
 2192 011e 19       		.uleb128 0x19
 2193 011f 01       		.uleb128 0x1
 2194 0120 13       		.uleb128 0x13
 2195 0121 00       		.byte	0
 2196 0122 00       		.byte	0
 2197 0123 19       		.uleb128 0x19
 2198 0124 05       		.uleb128 0x5
 2199 0125 00       		.byte	0
 2200 0126 03       		.uleb128 0x3
 2201 0127 08       		.uleb128 0x8
 2202 0128 3A       		.uleb128 0x3a
 2203 0129 0B       		.uleb128 0xb
 2204 012a 3B       		.uleb128 0x3b
 2205 012b 0B       		.uleb128 0xb
 2206 012c 49       		.uleb128 0x49
 2207 012d 13       		.uleb128 0x13
 2208 012e 02       		.uleb128 0x2
 2209 012f 18       		.uleb128 0x18
 2210 0130 00       		.byte	0
 2211 0131 00       		.byte	0
 2212 0132 1A       		.uleb128 0x1a
 2213 0133 2E       		.uleb128 0x2e
 2214 0134 01       		.byte	0x1
 2215 0135 3F       		.uleb128 0x3f
 2216 0136 19       		.uleb128 0x19
 2217 0137 03       		.uleb128 0x3
 2218 0138 0E       		.uleb128 0xe
 2219 0139 3A       		.uleb128 0x3a
 2220 013a 0B       		.uleb128 0xb
 2221 013b 3B       		.uleb128 0x3b
 2222 013c 0B       		.uleb128 0xb
 2223 013d 27       		.uleb128 0x27
ARM GAS  /tmp/ccYForOS.s 			page 40


 2224 013e 19       		.uleb128 0x19
 2225 013f 11       		.uleb128 0x11
 2226 0140 01       		.uleb128 0x1
 2227 0141 12       		.uleb128 0x12
 2228 0142 06       		.uleb128 0x6
 2229 0143 40       		.uleb128 0x40
 2230 0144 18       		.uleb128 0x18
 2231 0145 9742     		.uleb128 0x2117
 2232 0147 19       		.uleb128 0x19
 2233 0148 01       		.uleb128 0x1
 2234 0149 13       		.uleb128 0x13
 2235 014a 00       		.byte	0
 2236 014b 00       		.byte	0
 2237 014c 1B       		.uleb128 0x1b
 2238 014d 05       		.uleb128 0x5
 2239 014e 00       		.byte	0
 2240 014f 03       		.uleb128 0x3
 2241 0150 08       		.uleb128 0x8
 2242 0151 3A       		.uleb128 0x3a
 2243 0152 0B       		.uleb128 0xb
 2244 0153 3B       		.uleb128 0x3b
 2245 0154 0B       		.uleb128 0xb
 2246 0155 49       		.uleb128 0x49
 2247 0156 13       		.uleb128 0x13
 2248 0157 02       		.uleb128 0x2
 2249 0158 17       		.uleb128 0x17
 2250 0159 00       		.byte	0
 2251 015a 00       		.byte	0
 2252 015b 1C       		.uleb128 0x1c
 2253 015c 0B       		.uleb128 0xb
 2254 015d 01       		.byte	0x1
 2255 015e 55       		.uleb128 0x55
 2256 015f 17       		.uleb128 0x17
 2257 0160 01       		.uleb128 0x1
 2258 0161 13       		.uleb128 0x13
 2259 0162 00       		.byte	0
 2260 0163 00       		.byte	0
 2261 0164 1D       		.uleb128 0x1d
 2262 0165 34       		.uleb128 0x34
 2263 0166 00       		.byte	0
 2264 0167 03       		.uleb128 0x3
 2265 0168 0E       		.uleb128 0xe
 2266 0169 3A       		.uleb128 0x3a
 2267 016a 0B       		.uleb128 0xb
 2268 016b 3B       		.uleb128 0x3b
 2269 016c 0B       		.uleb128 0xb
 2270 016d 49       		.uleb128 0x49
 2271 016e 13       		.uleb128 0x13
 2272 016f 02       		.uleb128 0x2
 2273 0170 17       		.uleb128 0x17
 2274 0171 00       		.byte	0
 2275 0172 00       		.byte	0
 2276 0173 1E       		.uleb128 0x1e
 2277 0174 1D       		.uleb128 0x1d
 2278 0175 01       		.byte	0x1
 2279 0176 31       		.uleb128 0x31
 2280 0177 13       		.uleb128 0x13
ARM GAS  /tmp/ccYForOS.s 			page 41


 2281 0178 11       		.uleb128 0x11
 2282 0179 01       		.uleb128 0x1
 2283 017a 12       		.uleb128 0x12
 2284 017b 06       		.uleb128 0x6
 2285 017c 58       		.uleb128 0x58
 2286 017d 0B       		.uleb128 0xb
 2287 017e 59       		.uleb128 0x59
 2288 017f 0B       		.uleb128 0xb
 2289 0180 01       		.uleb128 0x1
 2290 0181 13       		.uleb128 0x13
 2291 0182 00       		.byte	0
 2292 0183 00       		.byte	0
 2293 0184 1F       		.uleb128 0x1f
 2294 0185 05       		.uleb128 0x5
 2295 0186 00       		.byte	0
 2296 0187 31       		.uleb128 0x31
 2297 0188 13       		.uleb128 0x13
 2298 0189 00       		.byte	0
 2299 018a 00       		.byte	0
 2300 018b 20       		.uleb128 0x20
 2301 018c 898201   		.uleb128 0x4109
 2302 018f 01       		.byte	0x1
 2303 0190 11       		.uleb128 0x11
 2304 0191 01       		.uleb128 0x1
 2305 0192 31       		.uleb128 0x31
 2306 0193 13       		.uleb128 0x13
 2307 0194 00       		.byte	0
 2308 0195 00       		.byte	0
 2309 0196 21       		.uleb128 0x21
 2310 0197 8A8201   		.uleb128 0x410a
 2311 019a 00       		.byte	0
 2312 019b 02       		.uleb128 0x2
 2313 019c 18       		.uleb128 0x18
 2314 019d 9142     		.uleb128 0x2111
 2315 019f 18       		.uleb128 0x18
 2316 01a0 00       		.byte	0
 2317 01a1 00       		.byte	0
 2318 01a2 22       		.uleb128 0x22
 2319 01a3 898201   		.uleb128 0x4109
 2320 01a6 01       		.byte	0x1
 2321 01a7 11       		.uleb128 0x11
 2322 01a8 01       		.uleb128 0x1
 2323 01a9 9542     		.uleb128 0x2115
 2324 01ab 19       		.uleb128 0x19
 2325 01ac 31       		.uleb128 0x31
 2326 01ad 13       		.uleb128 0x13
 2327 01ae 00       		.byte	0
 2328 01af 00       		.byte	0
 2329 01b0 23       		.uleb128 0x23
 2330 01b1 2E       		.uleb128 0x2e
 2331 01b2 01       		.byte	0x1
 2332 01b3 3F       		.uleb128 0x3f
 2333 01b4 19       		.uleb128 0x19
 2334 01b5 03       		.uleb128 0x3
 2335 01b6 0E       		.uleb128 0xe
 2336 01b7 3A       		.uleb128 0x3a
 2337 01b8 0B       		.uleb128 0xb
ARM GAS  /tmp/ccYForOS.s 			page 42


 2338 01b9 3B       		.uleb128 0x3b
 2339 01ba 0B       		.uleb128 0xb
 2340 01bb 27       		.uleb128 0x27
 2341 01bc 19       		.uleb128 0x19
 2342 01bd 11       		.uleb128 0x11
 2343 01be 01       		.uleb128 0x1
 2344 01bf 12       		.uleb128 0x12
 2345 01c0 06       		.uleb128 0x6
 2346 01c1 40       		.uleb128 0x40
 2347 01c2 18       		.uleb128 0x18
 2348 01c3 9642     		.uleb128 0x2116
 2349 01c5 19       		.uleb128 0x19
 2350 01c6 01       		.uleb128 0x1
 2351 01c7 13       		.uleb128 0x13
 2352 01c8 00       		.byte	0
 2353 01c9 00       		.byte	0
 2354 01ca 24       		.uleb128 0x24
 2355 01cb 05       		.uleb128 0x5
 2356 01cc 00       		.byte	0
 2357 01cd 03       		.uleb128 0x3
 2358 01ce 0E       		.uleb128 0xe
 2359 01cf 3A       		.uleb128 0x3a
 2360 01d0 0B       		.uleb128 0xb
 2361 01d1 3B       		.uleb128 0x3b
 2362 01d2 0B       		.uleb128 0xb
 2363 01d3 49       		.uleb128 0x49
 2364 01d4 13       		.uleb128 0x13
 2365 01d5 02       		.uleb128 0x2
 2366 01d6 17       		.uleb128 0x17
 2367 01d7 00       		.byte	0
 2368 01d8 00       		.byte	0
 2369 01d9 25       		.uleb128 0x25
 2370 01da 898201   		.uleb128 0x4109
 2371 01dd 01       		.byte	0x1
 2372 01de 11       		.uleb128 0x11
 2373 01df 01       		.uleb128 0x1
 2374 01e0 31       		.uleb128 0x31
 2375 01e1 13       		.uleb128 0x13
 2376 01e2 01       		.uleb128 0x1
 2377 01e3 13       		.uleb128 0x13
 2378 01e4 00       		.byte	0
 2379 01e5 00       		.byte	0
 2380 01e6 26       		.uleb128 0x26
 2381 01e7 2E       		.uleb128 0x2e
 2382 01e8 00       		.byte	0
 2383 01e9 3F       		.uleb128 0x3f
 2384 01ea 19       		.uleb128 0x19
 2385 01eb 03       		.uleb128 0x3
 2386 01ec 0E       		.uleb128 0xe
 2387 01ed 3A       		.uleb128 0x3a
 2388 01ee 0B       		.uleb128 0xb
 2389 01ef 3B       		.uleb128 0x3b
 2390 01f0 0B       		.uleb128 0xb
 2391 01f1 27       		.uleb128 0x27
 2392 01f2 19       		.uleb128 0x19
 2393 01f3 49       		.uleb128 0x49
 2394 01f4 13       		.uleb128 0x13
ARM GAS  /tmp/ccYForOS.s 			page 43


 2395 01f5 11       		.uleb128 0x11
 2396 01f6 01       		.uleb128 0x1
 2397 01f7 12       		.uleb128 0x12
 2398 01f8 06       		.uleb128 0x6
 2399 01f9 40       		.uleb128 0x40
 2400 01fa 18       		.uleb128 0x18
 2401 01fb 9742     		.uleb128 0x2117
 2402 01fd 19       		.uleb128 0x19
 2403 01fe 00       		.byte	0
 2404 01ff 00       		.byte	0
 2405 0200 27       		.uleb128 0x27
 2406 0201 2E       		.uleb128 0x2e
 2407 0202 01       		.byte	0x1
 2408 0203 31       		.uleb128 0x31
 2409 0204 13       		.uleb128 0x13
 2410 0205 11       		.uleb128 0x11
 2411 0206 01       		.uleb128 0x1
 2412 0207 12       		.uleb128 0x12
 2413 0208 06       		.uleb128 0x6
 2414 0209 40       		.uleb128 0x40
 2415 020a 18       		.uleb128 0x18
 2416 020b 9742     		.uleb128 0x2117
 2417 020d 19       		.uleb128 0x19
 2418 020e 01       		.uleb128 0x1
 2419 020f 13       		.uleb128 0x13
 2420 0210 00       		.byte	0
 2421 0211 00       		.byte	0
 2422 0212 28       		.uleb128 0x28
 2423 0213 05       		.uleb128 0x5
 2424 0214 00       		.byte	0
 2425 0215 31       		.uleb128 0x31
 2426 0216 13       		.uleb128 0x13
 2427 0217 02       		.uleb128 0x2
 2428 0218 18       		.uleb128 0x18
 2429 0219 00       		.byte	0
 2430 021a 00       		.byte	0
 2431 021b 29       		.uleb128 0x29
 2432 021c 34       		.uleb128 0x34
 2433 021d 00       		.byte	0
 2434 021e 03       		.uleb128 0x3
 2435 021f 08       		.uleb128 0x8
 2436 0220 3A       		.uleb128 0x3a
 2437 0221 0B       		.uleb128 0xb
 2438 0222 3B       		.uleb128 0x3b
 2439 0223 0B       		.uleb128 0xb
 2440 0224 49       		.uleb128 0x49
 2441 0225 13       		.uleb128 0x13
 2442 0226 02       		.uleb128 0x2
 2443 0227 17       		.uleb128 0x17
 2444 0228 00       		.byte	0
 2445 0229 00       		.byte	0
 2446 022a 2A       		.uleb128 0x2a
 2447 022b 1D       		.uleb128 0x1d
 2448 022c 01       		.byte	0x1
 2449 022d 31       		.uleb128 0x31
 2450 022e 13       		.uleb128 0x13
 2451 022f 11       		.uleb128 0x11
ARM GAS  /tmp/ccYForOS.s 			page 44


 2452 0230 01       		.uleb128 0x1
 2453 0231 12       		.uleb128 0x12
 2454 0232 06       		.uleb128 0x6
 2455 0233 58       		.uleb128 0x58
 2456 0234 0B       		.uleb128 0xb
 2457 0235 59       		.uleb128 0x59
 2458 0236 0B       		.uleb128 0xb
 2459 0237 00       		.byte	0
 2460 0238 00       		.byte	0
 2461 0239 2B       		.uleb128 0x2b
 2462 023a 1D       		.uleb128 0x1d
 2463 023b 01       		.byte	0x1
 2464 023c 31       		.uleb128 0x31
 2465 023d 13       		.uleb128 0x13
 2466 023e 52       		.uleb128 0x52
 2467 023f 01       		.uleb128 0x1
 2468 0240 55       		.uleb128 0x55
 2469 0241 17       		.uleb128 0x17
 2470 0242 58       		.uleb128 0x58
 2471 0243 0B       		.uleb128 0xb
 2472 0244 59       		.uleb128 0x59
 2473 0245 0B       		.uleb128 0xb
 2474 0246 01       		.uleb128 0x1
 2475 0247 13       		.uleb128 0x13
 2476 0248 00       		.byte	0
 2477 0249 00       		.byte	0
 2478 024a 2C       		.uleb128 0x2c
 2479 024b 1D       		.uleb128 0x1d
 2480 024c 01       		.byte	0x1
 2481 024d 31       		.uleb128 0x31
 2482 024e 13       		.uleb128 0x13
 2483 024f 52       		.uleb128 0x52
 2484 0250 01       		.uleb128 0x1
 2485 0251 55       		.uleb128 0x55
 2486 0252 17       		.uleb128 0x17
 2487 0253 58       		.uleb128 0x58
 2488 0254 0B       		.uleb128 0xb
 2489 0255 59       		.uleb128 0x59
 2490 0256 0B       		.uleb128 0xb
 2491 0257 00       		.byte	0
 2492 0258 00       		.byte	0
 2493 0259 2D       		.uleb128 0x2d
 2494 025a 05       		.uleb128 0x5
 2495 025b 00       		.byte	0
 2496 025c 31       		.uleb128 0x31
 2497 025d 13       		.uleb128 0x13
 2498 025e 1C       		.uleb128 0x1c
 2499 025f 0B       		.uleb128 0xb
 2500 0260 00       		.byte	0
 2501 0261 00       		.byte	0
 2502 0262 2E       		.uleb128 0x2e
 2503 0263 34       		.uleb128 0x34
 2504 0264 00       		.byte	0
 2505 0265 03       		.uleb128 0x3
 2506 0266 0E       		.uleb128 0xe
 2507 0267 3A       		.uleb128 0x3a
 2508 0268 0B       		.uleb128 0xb
ARM GAS  /tmp/ccYForOS.s 			page 45


 2509 0269 3B       		.uleb128 0x3b
 2510 026a 0B       		.uleb128 0xb
 2511 026b 49       		.uleb128 0x49
 2512 026c 13       		.uleb128 0x13
 2513 026d 02       		.uleb128 0x2
 2514 026e 18       		.uleb128 0x18
 2515 026f 00       		.byte	0
 2516 0270 00       		.byte	0
 2517 0271 2F       		.uleb128 0x2f
 2518 0272 34       		.uleb128 0x34
 2519 0273 00       		.byte	0
 2520 0274 03       		.uleb128 0x3
 2521 0275 08       		.uleb128 0x8
 2522 0276 3A       		.uleb128 0x3a
 2523 0277 0B       		.uleb128 0xb
 2524 0278 3B       		.uleb128 0x3b
 2525 0279 0B       		.uleb128 0xb
 2526 027a 49       		.uleb128 0x49
 2527 027b 13       		.uleb128 0x13
 2528 027c 3F       		.uleb128 0x3f
 2529 027d 19       		.uleb128 0x19
 2530 027e 02       		.uleb128 0x2
 2531 027f 18       		.uleb128 0x18
 2532 0280 00       		.byte	0
 2533 0281 00       		.byte	0
 2534 0282 30       		.uleb128 0x30
 2535 0283 2E       		.uleb128 0x2e
 2536 0284 01       		.byte	0x1
 2537 0285 3F       		.uleb128 0x3f
 2538 0286 19       		.uleb128 0x19
 2539 0287 03       		.uleb128 0x3
 2540 0288 0E       		.uleb128 0xe
 2541 0289 3A       		.uleb128 0x3a
 2542 028a 0B       		.uleb128 0xb
 2543 028b 3B       		.uleb128 0x3b
 2544 028c 05       		.uleb128 0x5
 2545 028d 27       		.uleb128 0x27
 2546 028e 19       		.uleb128 0x19
 2547 028f 49       		.uleb128 0x49
 2548 0290 13       		.uleb128 0x13
 2549 0291 3C       		.uleb128 0x3c
 2550 0292 19       		.uleb128 0x19
 2551 0293 01       		.uleb128 0x1
 2552 0294 13       		.uleb128 0x13
 2553 0295 00       		.byte	0
 2554 0296 00       		.byte	0
 2555 0297 31       		.uleb128 0x31
 2556 0298 2E       		.uleb128 0x2e
 2557 0299 01       		.byte	0x1
 2558 029a 3F       		.uleb128 0x3f
 2559 029b 19       		.uleb128 0x19
 2560 029c 03       		.uleb128 0x3
 2561 029d 0E       		.uleb128 0xe
 2562 029e 3A       		.uleb128 0x3a
 2563 029f 0B       		.uleb128 0xb
 2564 02a0 3B       		.uleb128 0x3b
 2565 02a1 05       		.uleb128 0x5
ARM GAS  /tmp/ccYForOS.s 			page 46


 2566 02a2 27       		.uleb128 0x27
 2567 02a3 19       		.uleb128 0x19
 2568 02a4 3C       		.uleb128 0x3c
 2569 02a5 19       		.uleb128 0x19
 2570 02a6 01       		.uleb128 0x1
 2571 02a7 13       		.uleb128 0x13
 2572 02a8 00       		.byte	0
 2573 02a9 00       		.byte	0
 2574 02aa 32       		.uleb128 0x32
 2575 02ab 2E       		.uleb128 0x2e
 2576 02ac 01       		.byte	0x1
 2577 02ad 3F       		.uleb128 0x3f
 2578 02ae 19       		.uleb128 0x19
 2579 02af 03       		.uleb128 0x3
 2580 02b0 0E       		.uleb128 0xe
 2581 02b1 3A       		.uleb128 0x3a
 2582 02b2 0B       		.uleb128 0xb
 2583 02b3 3B       		.uleb128 0x3b
 2584 02b4 05       		.uleb128 0x5
 2585 02b5 27       		.uleb128 0x27
 2586 02b6 19       		.uleb128 0x19
 2587 02b7 3C       		.uleb128 0x3c
 2588 02b8 19       		.uleb128 0x19
 2589 02b9 00       		.byte	0
 2590 02ba 00       		.byte	0
 2591 02bb 00       		.byte	0
 2592              		.section	.debug_loc,"",%progbits
 2593              	.Ldebug_loc0:
 2594              	.LLST0:
 2595 0000 00000000 		.4byte	.LVL1
 2596 0004 1C000000 		.4byte	.LVL2
 2597 0008 0100     		.2byte	0x1
 2598 000a 50       		.byte	0x50
 2599 000b 1C000000 		.4byte	.LVL2
 2600 000f 68000000 		.4byte	.LVL4
 2601 0013 0100     		.2byte	0x1
 2602 0015 55       		.byte	0x55
 2603 0016 68000000 		.4byte	.LVL4
 2604 001a 78000000 		.4byte	.LVL5
 2605 001e 0100     		.2byte	0x1
 2606 0020 50       		.byte	0x50
 2607 0021 78000000 		.4byte	.LVL5
 2608 0025 AC000000 		.4byte	.LFE8
 2609 0029 0100     		.2byte	0x1
 2610 002b 55       		.byte	0x55
 2611 002c 00000000 		.4byte	0
 2612 0030 00000000 		.4byte	0
 2613              	.LLST1:
 2614 0034 48000000 		.4byte	.LVL3
 2615 0038 68000000 		.4byte	.LVL4
 2616 003c 0100     		.2byte	0x1
 2617 003e 50       		.byte	0x50
 2618 003f 98000000 		.4byte	.LVL7
 2619 0043 AC000000 		.4byte	.LFE8
 2620 0047 0100     		.2byte	0x1
 2621 0049 50       		.byte	0x50
 2622 004a 00000000 		.4byte	0
ARM GAS  /tmp/ccYForOS.s 			page 47


 2623 004e 00000000 		.4byte	0
 2624              	.LLST2:
 2625 0052 00000000 		.4byte	.LVL9
 2626 0056 24000000 		.4byte	.LVL10
 2627 005a 0100     		.2byte	0x1
 2628 005c 50       		.byte	0x50
 2629 005d 24000000 		.4byte	.LVL10
 2630 0061 C4000000 		.4byte	.LFE10
 2631 0065 0400     		.2byte	0x4
 2632 0067 F3       		.byte	0xf3
 2633 0068 01       		.uleb128 0x1
 2634 0069 50       		.byte	0x50
 2635 006a 9F       		.byte	0x9f
 2636 006b 00000000 		.4byte	0
 2637 006f 00000000 		.4byte	0
 2638              	.LLST3:
 2639 0073 00000000 		.4byte	.LVL9
 2640 0077 28000000 		.4byte	.LVL11
 2641 007b 0100     		.2byte	0x1
 2642 007d 51       		.byte	0x51
 2643 007e 28000000 		.4byte	.LVL11
 2644 0082 58000000 		.4byte	.LVL12
 2645 0086 0100     		.2byte	0x1
 2646 0088 51       		.byte	0x51
 2647 0089 63000000 		.4byte	.LVL13-1
 2648 008d C4000000 		.4byte	.LFE10
 2649 0091 1400     		.2byte	0x14
 2650 0093 03       		.byte	0x3
 2651 0094 00000000 		.4byte	.LANCHOR0
 2652 0098 F3       		.byte	0xf3
 2653 0099 01       		.uleb128 0x1
 2654 009a 51       		.byte	0x51
 2655 009b F3       		.byte	0xf3
 2656 009c 01       		.uleb128 0x1
 2657 009d 51       		.byte	0x51
 2658 009e 75       		.byte	0x75
 2659 009f 00       		.sleb128 0
 2660 00a0 29       		.byte	0x29
 2661 00a1 28       		.byte	0x28
 2662 00a2 0100     		.2byte	0x1
 2663 00a4 16       		.byte	0x16
 2664 00a5 13       		.byte	0x13
 2665 00a6 9F       		.byte	0x9f
 2666 00a7 00000000 		.4byte	0
 2667 00ab 00000000 		.4byte	0
 2668              	.LLST4:
 2669 00af 00000000 		.4byte	.LVL18
 2670 00b3 10000000 		.4byte	.LVL19
 2671 00b7 0100     		.2byte	0x1
 2672 00b9 50       		.byte	0x50
 2673 00ba 10000000 		.4byte	.LVL19
 2674 00be 34000000 		.4byte	.LFE11
 2675 00c2 0400     		.2byte	0x4
 2676 00c4 F3       		.byte	0xf3
 2677 00c5 01       		.uleb128 0x1
 2678 00c6 50       		.byte	0x50
 2679 00c7 9F       		.byte	0x9f
ARM GAS  /tmp/ccYForOS.s 			page 48


 2680 00c8 00000000 		.4byte	0
 2681 00cc 00000000 		.4byte	0
 2682              	.LLST5:
 2683 00d0 00000000 		.4byte	.LVL23
 2684 00d4 08000000 		.4byte	.LVL24
 2685 00d8 0100     		.2byte	0x1
 2686 00da 50       		.byte	0x50
 2687 00db 08000000 		.4byte	.LVL24
 2688 00df 14000000 		.4byte	.LVL25
 2689 00e3 0100     		.2byte	0x1
 2690 00e5 50       		.byte	0x50
 2691 00e6 28000000 		.4byte	.LVL26
 2692 00ea 2C000000 		.4byte	.LVL27
 2693 00ee 0100     		.2byte	0x1
 2694 00f0 50       		.byte	0x50
 2695 00f1 2C000000 		.4byte	.LVL27
 2696 00f5 3C000000 		.4byte	.LFE14
 2697 00f9 0300     		.2byte	0x3
 2698 00fb 70       		.byte	0x70
 2699 00fc 7F       		.sleb128 -1
 2700 00fd 9F       		.byte	0x9f
 2701 00fe 00000000 		.4byte	0
 2702 0102 00000000 		.4byte	0
 2703              	.LLST6:
 2704 0106 08000000 		.4byte	.LVL24
 2705 010a 14000000 		.4byte	.LVL25
 2706 010e 0200     		.2byte	0x2
 2707 0110 70       		.byte	0x70
 2708 0111 7F       		.sleb128 -1
 2709 0112 2C000000 		.4byte	.LVL27
 2710 0116 3C000000 		.4byte	.LFE14
 2711 011a 0200     		.2byte	0x2
 2712 011c 70       		.byte	0x70
 2713 011d 7E       		.sleb128 -2
 2714 011e 00000000 		.4byte	0
 2715 0122 00000000 		.4byte	0
 2716              	.LLST7:
 2717 0126 00000000 		.4byte	.LVL28
 2718 012a 40000000 		.4byte	.LVL34
 2719 012e 0100     		.2byte	0x1
 2720 0130 50       		.byte	0x50
 2721 0131 40000000 		.4byte	.LVL34
 2722 0135 9C000000 		.4byte	.LFE15
 2723 0139 0400     		.2byte	0x4
 2724 013b F3       		.byte	0xf3
 2725 013c 01       		.uleb128 0x1
 2726 013d 50       		.byte	0x50
 2727 013e 9F       		.byte	0x9f
 2728 013f 00000000 		.4byte	0
 2729 0143 00000000 		.4byte	0
 2730              	.LLST8:
 2731 0147 00000000 		.4byte	.LVL28
 2732 014b 78000000 		.4byte	.LVL35
 2733 014f 0100     		.2byte	0x1
 2734 0151 51       		.byte	0x51
 2735 0152 78000000 		.4byte	.LVL35
 2736 0156 9C000000 		.4byte	.LFE15
ARM GAS  /tmp/ccYForOS.s 			page 49


 2737 015a 0400     		.2byte	0x4
 2738 015c F3       		.byte	0xf3
 2739 015d 01       		.uleb128 0x1
 2740 015e 51       		.byte	0x51
 2741 015f 9F       		.byte	0x9f
 2742 0160 00000000 		.4byte	0
 2743 0164 00000000 		.4byte	0
 2744              	.LLST9:
 2745 0168 00000000 		.4byte	.LVL28
 2746 016c 0C000000 		.4byte	.LVL29
 2747 0170 0300     		.2byte	0x3
 2748 0172 08       		.byte	0x8
 2749 0173 20       		.byte	0x20
 2750 0174 9F       		.byte	0x9f
 2751 0175 0C000000 		.4byte	.LVL29
 2752 0179 9C000000 		.4byte	.LFE15
 2753 017d 0100     		.2byte	0x1
 2754 017f 54       		.byte	0x54
 2755 0180 00000000 		.4byte	0
 2756 0184 00000000 		.4byte	0
 2757              	.LLST10:
 2758 0188 18000000 		.4byte	.LVL31
 2759 018c 20000000 		.4byte	.LVL32
 2760 0190 0100     		.2byte	0x1
 2761 0192 53       		.byte	0x53
 2762 0193 20000000 		.4byte	.LVL32
 2763 0197 9C000000 		.4byte	.LFE15
 2764 019b 0100     		.2byte	0x1
 2765 019d 5E       		.byte	0x5e
 2766 019e 00000000 		.4byte	0
 2767 01a2 00000000 		.4byte	0
 2768              		.section	.debug_aranges,"",%progbits
 2769 0000 5C000000 		.4byte	0x5c
 2770 0004 0200     		.2byte	0x2
 2771 0006 00000000 		.4byte	.Ldebug_info0
 2772 000a 04       		.byte	0x4
 2773 000b 00       		.byte	0
 2774 000c 0000     		.2byte	0
 2775 000e 0000     		.2byte	0
 2776 0010 00000000 		.4byte	.LFB7
 2777 0014 18000000 		.4byte	.LFE7-.LFB7
 2778 0018 00000000 		.4byte	.LFB8
 2779 001c AC000000 		.4byte	.LFE8-.LFB8
 2780 0020 00000000 		.4byte	.LFB9
 2781 0024 18000000 		.4byte	.LFE9-.LFB9
 2782 0028 00000000 		.4byte	.LFB10
 2783 002c C4000000 		.4byte	.LFE10-.LFB10
 2784 0030 00000000 		.4byte	.LFB11
 2785 0034 34000000 		.4byte	.LFE11-.LFB11
 2786 0038 00000000 		.4byte	.LFB12
 2787 003c 24000000 		.4byte	.LFE12-.LFB12
 2788 0040 00000000 		.4byte	.LFB13
 2789 0044 20000000 		.4byte	.LFE13-.LFB13
 2790 0048 00000000 		.4byte	.LFB14
 2791 004c 3C000000 		.4byte	.LFE14-.LFB14
 2792 0050 00000000 		.4byte	.LFB15
 2793 0054 9C000000 		.4byte	.LFE15-.LFB15
ARM GAS  /tmp/ccYForOS.s 			page 50


 2794 0058 00000000 		.4byte	0
 2795 005c 00000000 		.4byte	0
 2796              		.section	.debug_ranges,"",%progbits
 2797              	.Ldebug_ranges0:
 2798 0000 30000000 		.4byte	.LBB15
 2799 0004 68000000 		.4byte	.LBE15
 2800 0008 98000000 		.4byte	.LBB18
 2801 000c AC000000 		.4byte	.LBE18
 2802 0010 00000000 		.4byte	0
 2803 0014 00000000 		.4byte	0
 2804 0018 08000000 		.4byte	.LBB21
 2805 001c 0C000000 		.4byte	.LBE21
 2806 0020 24000000 		.4byte	.LBB25
 2807 0024 34000000 		.4byte	.LBE25
 2808 0028 38000000 		.4byte	.LBB26
 2809 002c 3C000000 		.4byte	.LBE26
 2810 0030 00000000 		.4byte	0
 2811 0034 00000000 		.4byte	0
 2812 0038 40000000 		.4byte	.LBB27
 2813 003c 54000000 		.4byte	.LBE27
 2814 0040 58000000 		.4byte	.LBB30
 2815 0044 5C000000 		.4byte	.LBE30
 2816 0048 00000000 		.4byte	0
 2817 004c 00000000 		.4byte	0
 2818 0050 60000000 		.4byte	.LBB31
 2819 0054 74000000 		.4byte	.LBE31
 2820 0058 78000000 		.4byte	.LBB37
 2821 005c 7C000000 		.4byte	.LBE37
 2822 0060 00000000 		.4byte	0
 2823 0064 00000000 		.4byte	0
 2824 0068 74000000 		.4byte	.LBB34
 2825 006c 78000000 		.4byte	.LBE34
 2826 0070 7C000000 		.4byte	.LBB38
 2827 0074 9C000000 		.4byte	.LBE38
 2828 0078 00000000 		.4byte	0
 2829 007c 00000000 		.4byte	0
 2830 0080 00000000 		.4byte	.LFB7
 2831 0084 18000000 		.4byte	.LFE7
 2832 0088 00000000 		.4byte	.LFB8
 2833 008c AC000000 		.4byte	.LFE8
 2834 0090 00000000 		.4byte	.LFB9
 2835 0094 18000000 		.4byte	.LFE9
 2836 0098 00000000 		.4byte	.LFB10
 2837 009c C4000000 		.4byte	.LFE10
 2838 00a0 00000000 		.4byte	.LFB11
 2839 00a4 34000000 		.4byte	.LFE11
 2840 00a8 00000000 		.4byte	.LFB12
 2841 00ac 24000000 		.4byte	.LFE12
 2842 00b0 00000000 		.4byte	.LFB13
 2843 00b4 20000000 		.4byte	.LFE13
 2844 00b8 00000000 		.4byte	.LFB14
 2845 00bc 3C000000 		.4byte	.LFE14
 2846 00c0 00000000 		.4byte	.LFB15
 2847 00c4 9C000000 		.4byte	.LFE15
 2848 00c8 00000000 		.4byte	0
 2849 00cc 00000000 		.4byte	0
 2850              		.section	.debug_line,"",%progbits
ARM GAS  /tmp/ccYForOS.s 			page 51


 2851              	.Ldebug_line0:
 2852 0000 D7020000 		.section	.debug_str,"MS",%progbits,1
 2852      02009501 
 2852      00000201 
 2852      FB0E0D00 
 2852      01010101 
 2853              	.LASF41:
 2854 0000 705F6D73 		.ascii	"p_msg\000"
 2854      6700
 2855              	.LASF2:
 2856 0006 73697A65 		.ascii	"size_t\000"
 2856      5F7400
 2857              	.LASF61:
 2858 000d 7264796D 		.ascii	"rdymsg\000"
 2858      736700
 2859              	.LASF78:
 2860 0014 4F757470 		.ascii	"OutputQueue\000"
 2860      75745175 
 2860      65756500 
 2861              	.LASF3:
 2862 0020 5F5F7569 		.ascii	"__uint8_t\000"
 2862      6E74385F 
 2862      7400
 2863              	.LASF12:
 2864 002a 6C6F6E67 		.ascii	"long long unsigned int\000"
 2864      206C6F6E 
 2864      6720756E 
 2864      7369676E 
 2864      65642069 
 2865              	.LASF88:
 2866 0041 62617564 		.ascii	"baud_rate\000"
 2866      5F726174 
 2866      6500
 2867              	.LASF103:
 2868 004b 64617461 		.ascii	"data\000"
 2868      00
 2869              	.LASF62:
 2870 0050 65786974 		.ascii	"exitcode\000"
 2870      636F6465 
 2870      00
 2871              	.LASF29:
 2872 0059 705F7072 		.ascii	"p_prio\000"
 2872      696F00
 2873              	.LASF105:
 2874 0060 6E65776C 		.ascii	"newline\000"
 2874      696E6500 
 2875              	.LASF96:
 2876 0068 72656164 		.ascii	"readt\000"
 2876      7400
 2877              	.LASF68:
 2878 006e 715F7761 		.ascii	"q_waiting\000"
 2878      6974696E 
 2878      6700
 2879              	.LASF11:
 2880 0078 6C6F6E67 		.ascii	"long long int\000"
 2880      206C6F6E 
 2880      6720696E 
ARM GAS  /tmp/ccYForOS.s 			page 52


 2880      7400
 2881              	.LASF1:
 2882 0086 7369676E 		.ascii	"signed char\000"
 2882      65642063 
 2882      68617200 
 2883              	.LASF80:
 2884 0092 53445F53 		.ascii	"SD_STOP\000"
 2884      544F5000 
 2885              	.LASF16:
 2886 009a 626F6F6C 		.ascii	"bool_t\000"
 2886      5F7400
 2887              	.LASF51:
 2888 00a1 6D5F7175 		.ascii	"m_queue\000"
 2888      65756500 
 2889              	.LASF20:
 2890 00a9 74736C69 		.ascii	"tslices_t\000"
 2890      6365735F 
 2890      7400
 2891              	.LASF106:
 2892 00b3 64656661 		.ascii	"default_config\000"
 2892      756C745F 
 2892      636F6E66 
 2892      696700
 2893              	.LASF85:
 2894 00c2 73746174 		.ascii	"state\000"
 2894      6500
 2895              	.LASF8:
 2896 00c8 6C6F6E67 		.ascii	"long int\000"
 2896      20696E74 
 2896      00
 2897              	.LASF107:
 2898 00d1 6D696E69 		.ascii	"mini_uart_send\000"
 2898      5F756172 
 2898      745F7365 
 2898      6E6400
 2899              	.LASF18:
 2900 00e0 74737461 		.ascii	"tstate_t\000"
 2900      74655F74 
 2900      00
 2901              	.LASF70:
 2902 00e9 715F6275 		.ascii	"q_buffer\000"
 2902      66666572 
 2902      00
 2903              	.LASF72:
 2904 00f2 715F7772 		.ascii	"q_wrptr\000"
 2904      70747200 
 2905              	.LASF31:
 2906 00fa 705F6E65 		.ascii	"p_newer\000"
 2906      77657200 
 2907              	.LASF9:
 2908 0102 5F5F7569 		.ascii	"__uint32_t\000"
 2908      6E743332 
 2908      5F7400
 2909              	.LASF47:
 2910 010d 72656761 		.ascii	"regarm_t\000"
 2910      726D5F74 
 2910      00
ARM GAS  /tmp/ccYForOS.s 			page 53


 2911              	.LASF59:
 2912 0116 4576656E 		.ascii	"EventSource\000"
 2912      74536F75 
 2912      72636500 
 2913              	.LASF0:
 2914 0122 756E7369 		.ascii	"unsigned int\000"
 2914      676E6564 
 2914      20696E74 
 2914      00
 2915              	.LASF90:
 2916 012f 53657269 		.ascii	"SerialDriverVMT\000"
 2916      616C4472 
 2916      69766572 
 2916      564D5400 
 2917              	.LASF86:
 2918 013f 69717565 		.ascii	"iqueue\000"
 2918      756500
 2919              	.LASF10:
 2920 0146 6C6F6E67 		.ascii	"long unsigned int\000"
 2920      20756E73 
 2920      69676E65 
 2920      6420696E 
 2920      7400
 2921              	.LASF98:
 2922 0158 73645F6C 		.ascii	"sd_lld_init\000"
 2922      6C645F69 
 2922      6E697400 
 2923              	.LASF94:
 2924 0164 67657474 		.ascii	"gett\000"
 2924      00
 2925              	.LASF84:
 2926 0169 6576656E 		.ascii	"event\000"
 2926      7400
 2927              	.LASF49:
 2928 016f 636F6E74 		.ascii	"context\000"
 2928      65787400 
 2929              	.LASF6:
 2930 0177 73686F72 		.ascii	"short unsigned int\000"
 2930      7420756E 
 2930      7369676E 
 2930      65642069 
 2930      6E7400
 2931              	.LASF112:
 2932 018a 2E2E2F2E 		.ascii	"../../os/hal/platforms/BCM2835/serial_lld.c\000"
 2932      2E2F6F73 
 2932      2F68616C 
 2932      2F706C61 
 2932      74666F72 
 2933              	.LASF22:
 2934 01b6 6D73675F 		.ascii	"msg_t\000"
 2934      7400
 2935              	.LASF87:
 2936 01bc 6F717565 		.ascii	"oqueue\000"
 2936      756500
 2937              	.LASF55:
 2938 01c3 656C5F6E 		.ascii	"el_next\000"
 2938      65787400 
ARM GAS  /tmp/ccYForOS.s 			page 54


 2939              	.LASF117:
 2940 01cb 62636D32 		.ascii	"bcm2835_delay\000"
 2940      3833355F 
 2940      64656C61 
 2940      7900
 2941              	.LASF95:
 2942 01d9 77726974 		.ascii	"writet\000"
 2942      657400
 2943              	.LASF17:
 2944 01e0 746D6F64 		.ascii	"tmode_t\000"
 2944      655F7400 
 2945              	.LASF46:
 2946 01e8 54687265 		.ascii	"ThreadsList\000"
 2946      6164734C 
 2946      69737400 
 2947              	.LASF23:
 2948 01f4 6576656E 		.ascii	"eventmask_t\000"
 2948      746D6173 
 2948      6B5F7400 
 2949              	.LASF77:
 2950 0200 496E7075 		.ascii	"InputQueue\000"
 2950      74517565 
 2950      756500
 2951              	.LASF50:
 2952 020b 4D757465 		.ascii	"Mutex\000"
 2952      7800
 2953              	.LASF67:
 2954 0211 47656E65 		.ascii	"GenericQueue\000"
 2954      72696351 
 2954      75657565 
 2954      00
 2955              	.LASF91:
 2956 021e 77726974 		.ascii	"write\000"
 2956      6500
 2957              	.LASF93:
 2958 0224 70757474 		.ascii	"putt\000"
 2958      00
 2959              	.LASF66:
 2960 0229 73697A65 		.ascii	"sizetype\000"
 2960      74797065 
 2960      00
 2961              	.LASF69:
 2962 0232 715F636F 		.ascii	"q_counter\000"
 2962      756E7465 
 2962      7200
 2963              	.LASF32:
 2964 023c 705F6F6C 		.ascii	"p_older\000"
 2964      64657200 
 2965              	.LASF45:
 2966 0244 54687265 		.ascii	"ThreadsQueue\000"
 2966      61647351 
 2966      75657565 
 2966      00
 2967              	.LASF57:
 2968 0251 656C5F6D 		.ascii	"el_mask\000"
 2968      61736B00 
 2969              	.LASF89:
ARM GAS  /tmp/ccYForOS.s 			page 55


 2970 0259 53657269 		.ascii	"SerialConfig\000"
 2970      616C436F 
 2970      6E666967 
 2970      00
 2971              	.LASF110:
 2972 0266 62636D32 		.ascii	"bcm2835_gpio_fnsel\000"
 2972      3833355F 
 2972      6770696F 
 2972      5F666E73 
 2972      656C00
 2973              	.LASF19:
 2974 0279 74726566 		.ascii	"trefs_t\000"
 2974      735F7400 
 2975              	.LASF76:
 2976 0281 716E6F74 		.ascii	"qnotify_t\000"
 2976      6966795F 
 2976      7400
 2977              	.LASF28:
 2978 028b 705F7072 		.ascii	"p_prev\000"
 2978      657600
 2979              	.LASF21:
 2980 0292 74707269 		.ascii	"tprio_t\000"
 2980      6F5F7400 
 2981              	.LASF73:
 2982 029a 715F7264 		.ascii	"q_rdptr\000"
 2982      70747200 
 2983              	.LASF14:
 2984 02a2 696E7433 		.ascii	"int32_t\000"
 2984      325F7400 
 2985              	.LASF4:
 2986 02aa 756E7369 		.ascii	"unsigned char\000"
 2986      676E6564 
 2986      20636861 
 2986      7200
 2987              	.LASF99:
 2988 02b8 73645F6C 		.ascii	"sd_lld_start\000"
 2988      6C645F73 
 2988      74617274 
 2988      00
 2989              	.LASF56:
 2990 02c5 656C5F6C 		.ascii	"el_listener\000"
 2990      69737465 
 2990      6E657200 
 2991              	.LASF58:
 2992 02d1 656C5F66 		.ascii	"el_flags\000"
 2992      6C616773 
 2992      00
 2993              	.LASF43:
 2994 02da 705F6D74 		.ascii	"p_mtxlist\000"
 2994      786C6973 
 2994      7400
 2995              	.LASF5:
 2996 02e4 73686F72 		.ascii	"short int\000"
 2996      7420696E 
 2996      7400
 2997              	.LASF34:
 2998 02ee 705F7374 		.ascii	"p_state\000"
ARM GAS  /tmp/ccYForOS.s 			page 56


 2998      61746500 
 2999              	.LASF37:
 3000 02f6 705F7072 		.ascii	"p_preempt\000"
 3000      65656D70 
 3000      7400
 3001              	.LASF109:
 3002 0300 73644F62 		.ascii	"sdObjectInit\000"
 3002      6A656374 
 3002      496E6974 
 3002      00
 3003              	.LASF64:
 3004 030d 65776D61 		.ascii	"ewmask\000"
 3004      736B00
 3005              	.LASF27:
 3006 0314 705F6E65 		.ascii	"p_next\000"
 3006      787400
 3007              	.LASF35:
 3008 031b 705F666C 		.ascii	"p_flags\000"
 3008      61677300 
 3009              	.LASF26:
 3010 0323 54687265 		.ascii	"Thread\000"
 3010      616400
 3011              	.LASF42:
 3012 032a 705F6570 		.ascii	"p_epending\000"
 3012      656E6469 
 3012      6E6700
 3013              	.LASF79:
 3014 0335 53445F55 		.ascii	"SD_UNINIT\000"
 3014      4E494E49 
 3014      5400
 3015              	.LASF15:
 3016 033f 75696E74 		.ascii	"uint32_t\000"
 3016      33325F74 
 3016      00
 3017              	.LASF82:
 3018 0348 73647374 		.ascii	"sdstate_t\000"
 3018      6174655F 
 3018      7400
 3019              	.LASF83:
 3020 0352 53657269 		.ascii	"SerialDriver\000"
 3020      616C4472 
 3020      69766572 
 3020      00
 3021              	.LASF92:
 3022 035f 72656164 		.ascii	"read\000"
 3022      00
 3023              	.LASF65:
 3024 0364 63686172 		.ascii	"char\000"
 3024      00
 3025              	.LASF108:
 3026 0369 7364496E 		.ascii	"sdIncomingDataI\000"
 3026      636F6D69 
 3026      6E674461 
 3026      74614900 
 3027              	.LASF100:
 3028 0379 636F6E66 		.ascii	"config\000"
 3028      696700
ARM GAS  /tmp/ccYForOS.s 			page 57


 3029              	.LASF53:
 3030 0380 6D5F6E65 		.ascii	"m_next\000"
 3030      787400
 3031              	.LASF25:
 3032 0387 73797374 		.ascii	"systime_t\000"
 3032      696D655F 
 3032      7400
 3033              	.LASF44:
 3034 0391 705F7265 		.ascii	"p_realprio\000"
 3034      616C7072 
 3034      696F00
 3035              	.LASF7:
 3036 039c 5F5F696E 		.ascii	"__int32_t\000"
 3036      7433325F 
 3036      7400
 3037              	.LASF38:
 3038 03a6 705F7469 		.ascii	"p_time\000"
 3038      6D6500
 3039              	.LASF48:
 3040 03ad 696E7463 		.ascii	"intctx\000"
 3040      747800
 3041              	.LASF40:
 3042 03b4 705F6D73 		.ascii	"p_msgqueue\000"
 3042      67717565 
 3042      756500
 3043              	.LASF81:
 3044 03bf 53445F52 		.ascii	"SD_READY\000"
 3044      45414459 
 3044      00
 3045              	.LASF113:
 3046 03c8 2F686F6D 		.ascii	"/home/hunter/development/chibi/ChibiOS-RPi/demos/AR"
 3046      652F6875 
 3046      6E746572 
 3046      2F646576 
 3046      656C6F70 
 3047 03fb 4D31312D 		.ascii	"M11-BCM2835-GCC\000"
 3047      42434D32 
 3047      3833352D 
 3047      47434300 
 3048              	.LASF24:
 3049 040b 666C6167 		.ascii	"flagsmask_t\000"
 3049      736D6173 
 3049      6B5F7400 
 3050              	.LASF71:
 3051 0417 715F746F 		.ascii	"q_top\000"
 3051      7000
 3052              	.LASF115:
 3053 041d 6D696E69 		.ascii	"mini_uart_recv\000"
 3053      5F756172 
 3053      745F7265 
 3053      637600
 3054              	.LASF36:
 3055 042c 705F7265 		.ascii	"p_refs\000"
 3055      667300
 3056              	.LASF114:
 3057 0433 6F757470 		.ascii	"output_notify\000"
 3057      75745F6E 
ARM GAS  /tmp/ccYForOS.s 			page 58


 3057      6F746966 
 3057      7900
 3058              	.LASF74:
 3059 0441 715F6E6F 		.ascii	"q_notify\000"
 3059      74696679 
 3059      00
 3060              	.LASF116:
 3061 044a 73645265 		.ascii	"sdRequestDataI\000"
 3061      71756573 
 3061      74446174 
 3061      614900
 3062              	.LASF13:
 3063 0459 75696E74 		.ascii	"uint8_t\000"
 3063      385F7400 
 3064              	.LASF102:
 3065 0461 6D696E69 		.ascii	"mini_uart_sendstr\000"
 3065      5F756172 
 3065      745F7365 
 3065      6E647374 
 3065      7200
 3066              	.LASF54:
 3067 0473 4576656E 		.ascii	"EventListener\000"
 3067      744C6973 
 3067      74656E65 
 3067      7200
 3068              	.LASF63:
 3069 0481 77746F62 		.ascii	"wtobjp\000"
 3069      6A7000
 3070              	.LASF33:
 3071 0488 705F6E61 		.ascii	"p_name\000"
 3071      6D6500
 3072              	.LASF111:
 3073 048f 474E5520 		.ascii	"GNU C 4.9.3 20150529 (prerelease) -mcpu=arm1176jz-s"
 3073      4320342E 
 3073      392E3320 
 3073      32303135 
 3073      30353239 
 3074 04c2 202D6D6E 		.ascii	" -mno-thumb-interwork -ggdb -O2 -fomit-frame-pointe"
 3074      6F2D7468 
 3074      756D622D 
 3074      696E7465 
 3074      72776F72 
 3075 04f5 72202D66 		.ascii	"r -ffunction-sections -fdata-sections\000"
 3075      66756E63 
 3075      74696F6E 
 3075      2D736563 
 3075      74696F6E 
 3076              	.LASF104:
 3077 051b 6D696E69 		.ascii	"mini_uart_sendhex\000"
 3077      5F756172 
 3077      745F7365 
 3077      6E646865 
 3077      7800
 3078              	.LASF60:
 3079 052d 65735F6E 		.ascii	"es_next\000"
 3079      65787400 
 3080              	.LASF97:
ARM GAS  /tmp/ccYForOS.s 			page 59


 3081 0535 73645F6C 		.ascii	"sd_lld_serve_interrupt\000"
 3081      6C645F73 
 3081      65727665 
 3081      5F696E74 
 3081      65727275 
 3082              	.LASF101:
 3083 054c 73645F6C 		.ascii	"sd_lld_stop\000"
 3083      6C645F73 
 3083      746F7000 
 3084              	.LASF75:
 3085 0558 715F6C69 		.ascii	"q_link\000"
 3085      6E6B00
 3086              	.LASF52:
 3087 055f 6D5F6F77 		.ascii	"m_owner\000"
 3087      6E657200 
 3088              	.LASF30:
 3089 0567 705F6374 		.ascii	"p_ctx\000"
 3089      7800
 3090              	.LASF39:
 3091 056d 705F7761 		.ascii	"p_waiting\000"
 3091      6974696E 
 3091      6700
 3092              		.ident	"GCC: (15:4.9.3+svn231177-1) 4.9.3 20150529 (prerelease)"
ARM GAS  /tmp/ccYForOS.s 			page 60


DEFINED SYMBOLS
                            *ABS*:0000000000000000 serial_lld.c
     /tmp/ccYForOS.s:17     .text.output_notify:0000000000000000 $a
     /tmp/ccYForOS.s:19     .text.output_notify:0000000000000000 output_notify
     /tmp/ccYForOS.s:37     .text.output_notify:0000000000000014 $d
     /tmp/ccYForOS.s:42     .text.sd_lld_serve_interrupt:0000000000000000 $a
     /tmp/ccYForOS.s:45     .text.sd_lld_serve_interrupt:0000000000000000 sd_lld_serve_interrupt
     /tmp/ccYForOS.s:136    .text.sd_lld_serve_interrupt:00000000000000a8 $d
     /tmp/ccYForOS.s:142    .text.sd_lld_init:0000000000000000 $a
     /tmp/ccYForOS.s:145    .text.sd_lld_init:0000000000000000 sd_lld_init
     /tmp/ccYForOS.s:161    .text.sd_lld_init:0000000000000010 $d
                            *COM*:0000000000000074 SD1
     /tmp/ccYForOS.s:168    .text.sd_lld_start:0000000000000000 $a
     /tmp/ccYForOS.s:171    .text.sd_lld_start:0000000000000000 sd_lld_start
     /tmp/ccYForOS.s:274    .text.sd_lld_start:00000000000000b0 $d
     /tmp/ccYForOS.s:283    .text.sd_lld_stop:0000000000000000 $a
     /tmp/ccYForOS.s:286    .text.sd_lld_stop:0000000000000000 sd_lld_stop
     /tmp/ccYForOS.s:327    .text.sd_lld_stop:0000000000000030 $d
     /tmp/ccYForOS.s:332    .text.mini_uart_recv:0000000000000000 $a
     /tmp/ccYForOS.s:335    .text.mini_uart_recv:0000000000000000 mini_uart_recv
     /tmp/ccYForOS.s:358    .text.mini_uart_recv:0000000000000020 $d
     /tmp/ccYForOS.s:363    .text.mini_uart_send:0000000000000000 $a
     /tmp/ccYForOS.s:366    .text.mini_uart_send:0000000000000000 mini_uart_send
     /tmp/ccYForOS.s:388    .text.mini_uart_send:000000000000001c $d
     /tmp/ccYForOS.s:393    .text.mini_uart_sendstr:0000000000000000 $a
     /tmp/ccYForOS.s:396    .text.mini_uart_sendstr:0000000000000000 mini_uart_sendstr
     /tmp/ccYForOS.s:435    .text.mini_uart_sendstr:0000000000000038 $d
     /tmp/ccYForOS.s:440    .text.mini_uart_sendhex:0000000000000000 $a
     /tmp/ccYForOS.s:443    .text.mini_uart_sendhex:0000000000000000 mini_uart_sendhex
     /tmp/ccYForOS.s:563    .text.mini_uart_sendhex:0000000000000098 $d
     /tmp/ccYForOS.s:571    .rodata.default_config:0000000000000000 $d
     /tmp/ccYForOS.s:575    .rodata.default_config:0000000000000000 default_config
                     .debug_frame:0000000000000010 $d

UNDEFINED SYMBOLS
sdRequestDataI
sdIncomingDataI
sdObjectInit
__aeabi_uidiv
bcm2835_gpio_fnsel
bcm2835_delay
