ARM GAS  /tmp/ccYForOS.s 			page 1


   1              		.cpu arm1176jz-s
   2              		.fpu softvfp
   3              		.eabi_attribute 20, 1
   4              		.eabi_attribute 21, 1
   5              		.eabi_attribute 23, 3
   6              		.eabi_attribute 24, 1
   7              		.eabi_attribute 25, 1
   8              		.eabi_attribute 26, 1
   9              		.eabi_attribute 30, 2
  10              		.eabi_attribute 34, 1
  11              		.eabi_attribute 18, 4
  12              		.file	"serial_lld.c"
  13              		.text
  14              	.Ltext0:
  15              		.cfi_sections	.debug_frame
  16              		.section	.text.output_notify,"ax",%progbits
  17              		.align	2
  18              		.type	output_notify, %function
  19              	output_notify:
  20              	.LFB7:
  21              		.file 1 "../../os/hal/platforms/BCM2835/serial_lld.c"
  22              		.loc 1 59 0
  23              		.cfi_startproc
  24              		@ args = 0, pretend = 0, frame = 0
  25              		@ frame_needed = 0, uses_anonymous_args = 0
  26              		@ link register save eliminated.
  27              	.LVL0:
  28              		.loc 1 62 0
  29 0000 0C209FE5 		ldr	r2, .L2
  30 0004 443092E5 		ldr	r3, [r2, #68]
  31 0008 023083E3 		orr	r3, r3, #2
  32 000c 443082E5 		str	r3, [r2, #68]
  33 0010 1EFF2FE1 		bx	lr
  34              	.L3:
  35              		.align	2
  36              	.L2:
  37 0014 00502120 		.word	539054080
  38              		.cfi_endproc
  39              	.LFE7:
  40              		.size	output_notify, .-output_notify
  41              		.section	.text.sd_lld_serve_interrupt,"ax",%progbits
  42              		.align	2
  43              		.global	sd_lld_serve_interrupt
  44              		.type	sd_lld_serve_interrupt, %function
  45              	sd_lld_serve_interrupt:
  46              	.LFB8:
  47              		.loc 1 69 0
  48              		.cfi_startproc
  49              		@ args = 0, pretend = 0, frame = 0
  50              		@ frame_needed = 0, uses_anonymous_args = 0
  51              	.LVL1:
  52              		.loc 1 70 0
  53 0000 A0209FE5 		ldr	r2, .L25
  54              		.loc 1 69 0
  55 0004 38402DE9 		stmfd	sp!, {r3, r4, r5, lr}
  56              		.cfi_def_cfa_offset 16
  57              		.cfi_offset 3, -16
ARM GAS  /tmp/ccYForOS.s 			page 2


  58              		.cfi_offset 4, -12
  59              		.cfi_offset 5, -8
  60              		.cfi_offset 14, -4
  61              		.loc 1 70 0
  62 0008 483092E5 		ldr	r3, [r2, #72]
  63              		.loc 1 69 0
  64 000c 0050A0E1 		mov	r5, r0
  65              		.loc 1 70 0
  66 0010 073003E2 		and	r3, r3, #7
  67 0014 040053E3 		cmp	r3, #4
  68 0018 1200000A 		beq	.L5
  69              	.LVL2:
  70              	.L9:
  71              		.loc 1 79 0
  72 001c 84209FE5 		ldr	r2, .L25
  73 0020 483092E5 		ldr	r3, [r2, #72]
  74 0024 073003E2 		and	r3, r3, #7
  75 0028 020053E3 		cmp	r3, #2
  76 002c 3880BD18 		ldmnefd	sp!, {r3, r4, r5, pc}
  77              	.L6:
  78              	.LBB15:
  79              		.loc 1 81 0 discriminator 1
  80 0030 543092E5 		ldr	r3, [r2, #84]
  81 0034 6C409FE5 		ldr	r4, .L25
  82 0038 200013E3 		tst	r3, #32
  83 003c FBFFFF0A 		beq	.L6
  84              		.loc 1 82 0
  85 0040 0500A0E1 		mov	r0, r5
  86 0044 FEFFFFEB 		bl	sdRequestDataI
  87              	.LVL3:
  88              		.loc 1 83 0
  89 0048 000050E3 		cmp	r0, #0
  90 004c 110000BA 		blt	.L24
  91              	.L11:
  92              	.LBB16:
  93              	.LBB17:
  94              		.loc 1 174 0
  95 0050 543094E5 		ldr	r3, [r4, #84]
  96 0054 4C209FE5 		ldr	r2, .L25
  97 0058 200013E3 		tst	r3, #32
  98 005c FBFFFF0A 		beq	.L11
  99              		.loc 1 175 0
 100 0060 400082E5 		str	r0, [r2, #64]
 101 0064 3880BDE8 		ldmfd	sp!, {r3, r4, r5, pc}
 102              	.LVL4:
 103              	.L5:
 104              	.LBE17:
 105              	.LBE16:
 106              	.LBE15:
 107              		.loc 1 72 0 discriminator 1
 108 0068 543092E5 		ldr	r3, [r2, #84]
 109 006c 010013E3 		tst	r3, #1
 110 0070 FCFFFF0A 		beq	.L5
 111              		.loc 1 74 0 discriminator 1
 112 0074 2C409FE5 		ldr	r4, .L25
 113              	.LVL5:
 114              	.L17:
ARM GAS  /tmp/ccYForOS.s 			page 3


 115 0078 401094E5 		ldr	r1, [r4, #64]
 116 007c 0500A0E1 		mov	r0, r5
 117 0080 7110EFE6 		uxtb	r1, r1
 118 0084 FEFFFFEB 		bl	sdIncomingDataI
 119              	.LVL6:
 120              		.loc 1 75 0 discriminator 1
 121 0088 543094E5 		ldr	r3, [r4, #84]
 122 008c 010013E3 		tst	r3, #1
 123 0090 F8FFFF1A 		bne	.L17
 124 0094 E0FFFFEA 		b	.L9
 125              	.LVL7:
 126              	.L24:
 127              	.LBB18:
 128              		.loc 1 85 0
 129 0098 443094E5 		ldr	r3, [r4, #68]
 130 009c 0230C3E3 		bic	r3, r3, #2
 131 00a0 443084E5 		str	r3, [r4, #68]
 132 00a4 3880BDE8 		ldmfd	sp!, {r3, r4, r5, pc}
 133              	.L26:
 134              		.align	2
 135              	.L25:
 136 00a8 00502120 		.word	539054080
 137              	.LBE18:
 138              		.cfi_endproc
 139              	.LFE8:
 140              		.size	sd_lld_serve_interrupt, .-sd_lld_serve_interrupt
 141              		.section	.text.sd_lld_init,"ax",%progbits
 142              		.align	2
 143              		.global	sd_lld_init
 144              		.type	sd_lld_init, %function
 145              	sd_lld_init:
 146              	.LFB9:
 147              		.loc 1 103 0
 148              		.cfi_startproc
 149              		@ args = 0, pretend = 0, frame = 0
 150              		@ frame_needed = 0, uses_anonymous_args = 0
 151              		@ link register save eliminated.
 152              		.loc 1 104 0
 153 0000 08009FE5 		ldr	r0, .L28
 154 0004 0010A0E3 		mov	r1, #0
 155 0008 04209FE5 		ldr	r2, .L28+4
 156 000c FEFFFFEA 		b	sdObjectInit
 157              	.LVL8:
 158              	.L29:
 159              		.align	2
 160              	.L28:
 161 0010 00000000 		.word	SD1
 162 0014 00000000 		.word	output_notify
 163              		.cfi_endproc
 164              	.LFE9:
 165              		.size	sd_lld_init, .-sd_lld_init
 166              		.global	__aeabi_uidiv
 167              		.section	.text.sd_lld_start,"ax",%progbits
 168              		.align	2
 169              		.global	sd_lld_start
 170              		.type	sd_lld_start, %function
 171              	sd_lld_start:
ARM GAS  /tmp/ccYForOS.s 			page 4


 172              	.LFB10:
 173              		.loc 1 117 0
 174              		.cfi_startproc
 175              		@ args = 0, pretend = 0, frame = 0
 176              		@ frame_needed = 0, uses_anonymous_args = 0
 177              	.LVL9:
 178 0000 F8432DE9 		stmfd	sp!, {r3, r4, r5, r6, r7, r8, r9, lr}
 179              		.cfi_def_cfa_offset 32
 180              		.cfi_offset 3, -32
 181              		.cfi_offset 4, -28
 182              		.cfi_offset 5, -24
 183              		.cfi_offset 6, -20
 184              		.cfi_offset 7, -16
 185              		.cfi_offset 8, -12
 186              		.cfi_offset 9, -8
 187              		.cfi_offset 14, -4
 188              		.loc 1 127 0
 189 0004 0050A0E3 		mov	r5, #0
 190              		.loc 1 121 0
 191 0008 A0309FE5 		ldr	r3, .L33
 192 000c 050051E1 		cmp	r1, r5
 193              		.loc 1 125 0
 194 0010 01C0A0E3 		mov	ip, #1
 195              		.loc 1 132 0
 196 0014 C620A0E3 		mov	r2, #198
 197              		.loc 1 129 0
 198 0018 0390A0E3 		mov	r9, #3
 199              		.loc 1 123 0
 200 001c 0282A0E3 		mov	r8, #536870912
 201              		.loc 1 131 0
 202 0020 0500A0E3 		mov	r0, #5
 203              	.LVL10:
 204              		.loc 1 121 0
 205 0024 0310A001 		moveq	r1, r3
 206              	.LVL11:
 207              		.loc 1 125 0
 208 0028 84409FE5 		ldr	r4, .L33+4
 209              		.loc 1 123 0
 210 002c 84709FE5 		ldr	r7, .L33+8
 211              		.loc 1 138 0
 212 0030 84609FE5 		ldr	r6, .L33+12
 213              		.loc 1 123 0
 214 0034 1C8287E5 		str	r8, [r7, #540]
 215              		.loc 1 125 0
 216 0038 04C084E5 		str	ip, [r4, #4]
 217              		.loc 1 127 0
 218 003c 445084E5 		str	r5, [r4, #68]
 219              		.loc 1 128 0
 220 0040 605084E5 		str	r5, [r4, #96]
 221              		.loc 1 129 0
 222 0044 4C9084E5 		str	r9, [r4, #76]
 223              		.loc 1 130 0
 224 0048 505084E5 		str	r5, [r4, #80]
 225              		.loc 1 131 0
 226 004c 440084E5 		str	r0, [r4, #68]
 227              		.loc 1 132 0
 228 0050 482084E5 		str	r2, [r4, #72]
ARM GAS  /tmp/ccYForOS.s 			page 5


 229              		.loc 1 133 0
 230 0054 001091E5 		ldr	r1, [r1]
 231              	.LVL12:
 232 0058 60009FE5 		ldr	r0, .L33+16
 233 005c 1119A0E1 		mov	r1, r1, asl r9
 234 0060 FEFFFFEB 		bl	__aeabi_uidiv
 235              	.LVL13:
 236 0064 010040E2 		sub	r0, r0, #1
 237 0068 680084E5 		str	r0, [r4, #104]
 238              		.loc 1 135 0
 239 006c 0210A0E3 		mov	r1, #2
 240 0070 0E00A0E3 		mov	r0, #14
 241 0074 FEFFFFEB 		bl	bcm2835_gpio_fnsel
 242              	.LVL14:
 243              		.loc 1 136 0
 244 0078 0210A0E3 		mov	r1, #2
 245 007c 0F00A0E3 		mov	r0, #15
 246 0080 FEFFFFEB 		bl	bcm2835_gpio_fnsel
 247              	.LVL15:
 248              		.loc 1 139 0
 249 0084 9600A0E3 		mov	r0, #150
 250              		.loc 1 138 0
 251 0088 945086E5 		str	r5, [r6, #148]
 252              		.loc 1 139 0
 253 008c FEFFFFEB 		bl	bcm2835_delay
 254              	.LVL16:
 255              		.loc 1 140 0
 256 0090 0339A0E3 		mov	r3, #49152
 257              		.loc 1 141 0
 258 0094 9600A0E3 		mov	r0, #150
 259              		.loc 1 140 0
 260 0098 983086E5 		str	r3, [r6, #152]
 261              		.loc 1 141 0
 262 009c FEFFFFEB 		bl	bcm2835_delay
 263              	.LVL17:
 264              		.loc 1 142 0
 265 00a0 985086E5 		str	r5, [r6, #152]
 266              		.loc 1 144 0
 267 00a4 609084E5 		str	r9, [r4, #96]
 268              		.loc 1 146 0
 269 00a8 108287E5 		str	r8, [r7, #528]
 270 00ac F883BDE8 		ldmfd	sp!, {r3, r4, r5, r6, r7, r8, r9, pc}
 271              	.L34:
 272              		.align	2
 273              	.L33:
 274 00b0 00000000 		.word	.LANCHOR0
 275 00b4 00502120 		.word	539054080
 276 00b8 00B00020 		.word	536915968
 277 00bc 00002020 		.word	538968064
 278 00c0 80B2E60E 		.word	250000000
 279              		.cfi_endproc
 280              	.LFE10:
 281              		.size	sd_lld_start, .-sd_lld_start
 282              		.section	.text.sd_lld_stop,"ax",%progbits
 283              		.align	2
 284              		.global	sd_lld_stop
 285              		.type	sd_lld_stop, %function
ARM GAS  /tmp/ccYForOS.s 			page 6


 286              	sd_lld_stop:
 287              	.LFB11:
 288              		.loc 1 158 0
 289              		.cfi_startproc
 290              		@ args = 0, pretend = 0, frame = 0
 291              		@ frame_needed = 0, uses_anonymous_args = 0
 292              	.LVL18:
 293              		.loc 1 161 0
 294 0000 28209FE5 		ldr	r2, .L37
 295              		.loc 1 158 0
 296 0004 08402DE9 		stmfd	sp!, {r3, lr}
 297              		.cfi_def_cfa_offset 8
 298              		.cfi_offset 3, -8
 299              		.cfi_offset 14, -4
 300              		.loc 1 161 0
 301 0008 1C3292E5 		ldr	r3, [r2, #540]
 302              		.loc 1 162 0
 303 000c 0E00A0E3 		mov	r0, #14
 304              	.LVL19:
 305              		.loc 1 161 0
 306 0010 023283E3 		orr	r3, r3, #536870912
 307              		.loc 1 162 0
 308 0014 0010A0E3 		mov	r1, #0
 309              		.loc 1 161 0
 310 0018 1C3282E5 		str	r3, [r2, #540]
 311              		.loc 1 162 0
 312 001c FEFFFFEB 		bl	bcm2835_gpio_fnsel
 313              	.LVL20:
 314              		.loc 1 164 0
 315 0020 0840BDE8 		ldmfd	sp!, {r3, lr}
 316              		.cfi_restore 14
 317              		.cfi_restore 3
 318              		.cfi_def_cfa_offset 0
 319              		.loc 1 163 0
 320 0024 0F00A0E3 		mov	r0, #15
 321 0028 0010A0E3 		mov	r1, #0
 322 002c FEFFFFEA 		b	bcm2835_gpio_fnsel
 323              	.LVL21:
 324              	.L38:
 325              		.align	2
 326              	.L37:
 327 0030 00B00020 		.word	536915968
 328              		.cfi_endproc
 329              	.LFE11:
 330              		.size	sd_lld_stop, .-sd_lld_stop
 331              		.section	.text.mini_uart_recv,"ax",%progbits
 332              		.align	2
 333              		.global	mini_uart_recv
 334              		.type	mini_uart_recv, %function
 335              	mini_uart_recv:
 336              	.LFB12:
 337              		.loc 1 167 0
 338              		.cfi_startproc
 339              		@ args = 0, pretend = 0, frame = 0
 340              		@ frame_needed = 0, uses_anonymous_args = 0
 341              		@ link register save eliminated.
 342              		.loc 1 168 0
ARM GAS  /tmp/ccYForOS.s 			page 7


 343 0000 18109FE5 		ldr	r1, .L43
 344              	.L40:
 345              		.loc 1 168 0 is_stmt 0 discriminator 1
 346 0004 543091E5 		ldr	r3, [r1, #84]
 347 0008 10209FE5 		ldr	r2, .L43
 348 000c 010013E3 		tst	r3, #1
 349 0010 FBFFFF0A 		beq	.L40
 350              		.loc 1 169 0 is_stmt 1
 351 0014 400092E5 		ldr	r0, [r2, #64]
 352              		.loc 1 170 0
 353 0018 7000EFE6 		uxtb	r0, r0
 354 001c 1EFF2FE1 		bx	lr
 355              	.L44:
 356              		.align	2
 357              	.L43:
 358 0020 00502120 		.word	539054080
 359              		.cfi_endproc
 360              	.LFE12:
 361              		.size	mini_uart_recv, .-mini_uart_recv
 362              		.section	.text.mini_uart_send,"ax",%progbits
 363              		.align	2
 364              		.global	mini_uart_send
 365              		.type	mini_uart_send, %function
 366              	mini_uart_send:
 367              	.LFB13:
 368              		.loc 1 173 0
 369              		.cfi_startproc
 370              		@ args = 0, pretend = 0, frame = 0
 371              		@ frame_needed = 0, uses_anonymous_args = 0
 372              		@ link register save eliminated.
 373              	.LVL22:
 374              		.loc 1 174 0
 375 0000 14109FE5 		ldr	r1, .L49
 376              	.L46:
 377              		.loc 1 174 0 is_stmt 0 discriminator 1
 378 0004 543091E5 		ldr	r3, [r1, #84]
 379 0008 0C209FE5 		ldr	r2, .L49
 380 000c 200013E3 		tst	r3, #32
 381 0010 FBFFFF0A 		beq	.L46
 382              		.loc 1 175 0 is_stmt 1
 383 0014 400082E5 		str	r0, [r2, #64]
 384 0018 1EFF2FE1 		bx	lr
 385              	.L50:
 386              		.align	2
 387              	.L49:
 388 001c 00502120 		.word	539054080
 389              		.cfi_endproc
 390              	.LFE13:
 391              		.size	mini_uart_send, .-mini_uart_send
 392              		.section	.text.mini_uart_sendstr,"ax",%progbits
 393              		.align	2
 394              		.global	mini_uart_sendstr
 395              		.type	mini_uart_sendstr, %function
 396              	mini_uart_sendstr:
 397              	.LFB14:
 398              		.loc 1 179 0
 399              		.cfi_startproc
ARM GAS  /tmp/ccYForOS.s 			page 8


 400              		@ args = 0, pretend = 0, frame = 0
 401              		@ frame_needed = 0, uses_anonymous_args = 0
 402              		@ link register save eliminated.
 403              	.LVL23:
 404              		.loc 1 181 0
 405 0000 00C0D0E5 		ldrb	ip, [r0]	@ zero_extendqisi2
 406 0004 010080E2 		add	r0, r0, #1
 407              	.LVL24:
 408 0008 00005CE3 		cmp	ip, #0
 409 000c 1EFF2F01 		bxeq	lr
 410              	.LBB19:
 411              	.LBB20:
 412              		.loc 1 174 0 discriminator 2
 413 0010 20109FE5 		ldr	r1, .L59
 414              	.LVL25:
 415              	.L53:
 416              		.loc 1 174 0 is_stmt 0
 417 0014 543091E5 		ldr	r3, [r1, #84]
 418 0018 18209FE5 		ldr	r2, .L59
 419 001c 200013E3 		tst	r3, #32
 420 0020 FBFFFF0A 		beq	.L53
 421              		.loc 1 175 0 is_stmt 1
 422 0024 40C082E5 		str	ip, [r2, #64]
 423              	.LVL26:
 424              	.LBE20:
 425              	.LBE19:
 426              		.loc 1 181 0
 427 0028 01C0D0E4 		ldrb	ip, [r0], #1	@ zero_extendqisi2
 428              	.LVL27:
 429 002c 00005CE3 		cmp	ip, #0
 430 0030 F7FFFF1A 		bne	.L53
 431 0034 1EFF2FE1 		bx	lr
 432              	.L60:
 433              		.align	2
 434              	.L59:
 435 0038 00502120 		.word	539054080
 436              		.cfi_endproc
 437              	.LFE14:
 438              		.size	mini_uart_sendstr, .-mini_uart_sendstr
 439              		.section	.text.mini_uart_sendhex,"ax",%progbits
 440              		.align	2
 441              		.global	mini_uart_sendhex
 442              		.type	mini_uart_sendhex, %function
 443              	mini_uart_sendhex:
 444              	.LFB15:
 445              		.loc 1 185 0
 446              		.cfi_startproc
 447              		@ args = 0, pretend = 0, frame = 0
 448              		@ frame_needed = 0, uses_anonymous_args = 0
 449              	.LVL28:
 450 0000 10402DE9 		stmfd	sp!, {r4, lr}
 451              		.cfi_def_cfa_offset 8
 452              		.cfi_offset 4, -8
 453              		.cfi_offset 14, -4
 454              		.loc 1 189 0
 455 0004 2040A0E3 		mov	r4, #32
 456              	.LBB21:
ARM GAS  /tmp/ccYForOS.s 			page 9


 457              	.LBB22:
 458              		.loc 1 174 0
 459 0008 88C09FE5 		ldr	ip, .L84
 460              	.LVL29:
 461              	.L65:
 462              	.LBE22:
 463              	.LBE21:
 464              		.loc 1 192 0
 465 000c 044044E2 		sub	r4, r4, #4
 466              	.LVL30:
 467              		.loc 1 193 0
 468 0010 3034A0E1 		mov	r3, r0, lsr r4
 469 0014 0F3003E2 		and	r3, r3, #15
 470              	.LVL31:
 471              		.loc 1 194 0
 472 0018 090053E3 		cmp	r3, #9
 473              		.loc 1 195 0
 474 001c 37E08382 		addhi	lr, r3, #55
 475              	.LVL32:
 476              		.loc 1 197 0
 477 0020 30E08392 		addls	lr, r3, #48
 478              	.LVL33:
 479              	.L64:
 480              	.LBB25:
 481              	.LBB23:
 482              		.loc 1 174 0
 483 0024 54309CE5 		ldr	r3, [ip, #84]
 484 0028 68209FE5 		ldr	r2, .L84
 485 002c 200013E3 		tst	r3, #32
 486 0030 FBFFFF0A 		beq	.L64
 487              	.LBE23:
 488              	.LBE25:
 489              		.loc 1 199 0
 490 0034 000054E3 		cmp	r4, #0
 491              	.LBB26:
 492              	.LBB24:
 493              		.loc 1 175 0
 494 0038 40E082E5 		str	lr, [r2, #64]
 495              	.LBE24:
 496              	.LBE26:
 497              		.loc 1 199 0
 498 003c F2FFFF1A 		bne	.L65
 499              	.LVL34:
 500              	.L66:
 501              	.LBB27:
 502              	.LBB28:
 503              		.loc 1 174 0
 504 0040 543092E5 		ldr	r3, [r2, #84]
 505 0044 4C009FE5 		ldr	r0, .L84
 506 0048 200013E3 		tst	r3, #32
 507 004c FBFFFF0A 		beq	.L66
 508              		.loc 1 175 0
 509 0050 2030A0E3 		mov	r3, #32
 510              	.LBE28:
 511              	.LBE27:
 512              		.loc 1 204 0
 513 0054 000051E3 		cmp	r1, #0
ARM GAS  /tmp/ccYForOS.s 			page 10


 514              	.LBB30:
 515              	.LBB29:
 516              		.loc 1 175 0
 517 0058 403080E5 		str	r3, [r0, #64]
 518              	.LBE29:
 519              	.LBE30:
 520              		.loc 1 204 0
 521 005c 1080BD08 		ldmeqfd	sp!, {r4, pc}
 522              	.L77:
 523              	.LBB31:
 524              	.LBB32:
 525              		.loc 1 174 0
 526 0060 543090E5 		ldr	r3, [r0, #84]
 527 0064 2C209FE5 		ldr	r2, .L84
 528 0068 200013E3 		tst	r3, #32
 529 006c FBFFFF0A 		beq	.L77
 530              		.loc 1 175 0
 531 0070 0D30A0E3 		mov	r3, #13
 532              	.LBE32:
 533              	.LBE31:
 534              	.LBB34:
 535              	.LBB35:
 536              		.loc 1 174 0
 537 0074 0210A0E1 		mov	r1, r2
 538              	.LVL35:
 539              	.LBE35:
 540              	.LBE34:
 541              	.LBB37:
 542              	.LBB33:
 543              		.loc 1 175 0
 544 0078 403082E5 		str	r3, [r2, #64]
 545              	.LVL36:
 546              	.L69:
 547              	.LBE33:
 548              	.LBE37:
 549              	.LBB38:
 550              	.LBB36:
 551              		.loc 1 174 0
 552 007c 543091E5 		ldr	r3, [r1, #84]
 553 0080 10209FE5 		ldr	r2, .L84
 554 0084 200013E3 		tst	r3, #32
 555 0088 FBFFFF0A 		beq	.L69
 556              		.loc 1 175 0
 557 008c 0A30A0E3 		mov	r3, #10
 558 0090 403082E5 		str	r3, [r2, #64]
 559 0094 1080BDE8 		ldmfd	sp!, {r4, pc}
 560              	.L85:
 561              		.align	2
 562              	.L84:
 563 0098 00502120 		.word	539054080
 564              	.LBE36:
 565              	.LBE38:
 566              		.cfi_endproc
 567              	.LFE15:
 568              		.size	mini_uart_sendhex, .-mini_uart_sendhex
 569              		.comm	SD1,116,4
 570              		.section	.rodata.default_config,"a",%progbits
ARM GAS  /tmp/ccYForOS.s 			page 11


 571              		.align	2
 572              		.set	.LANCHOR0,. + 0
 573              		.type	default_config, %object
 574              		.size	default_config, 4
 575              	default_config:
 576 0000 00C20100 		.word	115200
 577              		.text
 578              	.Letext0:
 579              		.file 2 "/usr/lib/gcc/arm-none-eabi/4.9.3/include/stddef.h"
 580              		.file 3 "/usr/include/newlib/machine/_default_types.h"
 581              		.file 4 "/usr/include/newlib/sys/_stdint.h"
 582              		.file 5 "../../os/ports/GCC/ARM/chtypes.h"
 583              		.file 6 "../../os/kernel/include/chlists.h"
 584              		.file 7 "../../os/kernel/include/chthreads.h"
 585              		.file 8 "../../os/ports/GCC/ARM/chcore.h"
 586              		.file 9 "../../os/kernel/include/chmtx.h"
 587              		.file 10 "../../os/kernel/include/chevents.h"
 588              		.file 11 "../../os/kernel/include/chqueues.h"
 589              		.file 12 "../../os/hal/include/serial.h"
 590              		.file 13 "../../os/hal/platforms/BCM2835/serial_lld.h"
 591              		.file 14 "../../os/hal/platforms/BCM2835/bcm2835.h"