ARM GAS  /tmp/ccXMVEoh.s 			page 1


   1              		.cpu arm1176jz-s
   2              		.fpu softvfp
   3              		.eabi_attribute 20, 1
   4              		.eabi_attribute 21, 1
   5              		.eabi_attribute 23, 3
   6              		.eabi_attribute 24, 1
   7              		.eabi_attribute 25, 1
   8              		.eabi_attribute 26, 1
   9              		.eabi_attribute 30, 2
  10              		.eabi_attribute 34, 1
  11              		.eabi_attribute 18, 4
  12              		.file	"shell.c"
  13              		.text
  14              	.Ltext0:
  15              		.cfi_sections	.debug_frame
  16              		.section	.text.cmd_systime,"ax",%progbits
  17              		.align	2
  18              		.type	cmd_systime, %function
  19              	cmd_systime:
  20              	.LFB11:
  21              		.file 1 "../../os/various/shell.c"
  22              		.loc 1 103 0
  23              		.cfi_startproc
  24              		@ args = 0, pretend = 0, frame = 0
  25              		@ frame_needed = 0, uses_anonymous_args = 0
  26              		@ link register save eliminated.
  27              	.LVL0:
  28              		.loc 1 106 0
  29 0000 000051E3 		cmp	r1, #0
  30 0004 020000DA 		ble	.L2
  31              	.LVL1:
  32              	.LBB24:
  33              	.LBB25:
  34              		.loc 1 60 0
  35 0008 14109FE5 		ldr	r1, .L4
  36              	.LVL2:
  37 000c 14209FE5 		ldr	r2, .L4+4
  38              	.LVL3:
  39 0010 FEFFFFEA 		b	chprintf
  40              	.LVL4:
  41              	.L2:
  42              	.LBE25:
  43              	.LBE24:
  44              	.LBB26:
  45              	.LBB27:
  46              		.loc 1 110 0
  47 0014 10309FE5 		ldr	r3, .L4+8
  48 0018 10109FE5 		ldr	r1, .L4+12
  49              	.LVL5:
  50 001c 0C2093E5 		ldr	r2, [r3, #12]
  51              	.LVL6:
  52 0020 FEFFFFEA 		b	chprintf
  53              	.LVL7:
  54              	.L5:
  55              		.align	2
  56              	.L4:
  57 0024 00000000 		.word	.LC0
ARM GAS  /tmp/ccXMVEoh.s 			page 2


  58 0028 0C000000 		.word	.LC1
  59 002c 00000000 		.word	vtlist
  60 0030 14000000 		.word	.LC2
  61              	.LBE27:
  62              	.LBE26:
  63              		.cfi_endproc
  64              	.LFE11:
  65              		.size	cmd_systime, .-cmd_systime
  66              		.section	.text.cmd_info,"ax",%progbits
  67              		.align	2
  68              		.type	cmd_info, %function
  69              	cmd_info:
  70              	.LFB10:
  71              		.loc 1 71 0
  72              		.cfi_startproc
  73              		@ args = 0, pretend = 0, frame = 0
  74              		@ frame_needed = 0, uses_anonymous_args = 0
  75              	.LVL8:
  76              		.loc 1 74 0
  77 0000 000051E3 		cmp	r1, #0
  78 0004 020000DA 		ble	.L7
  79              	.LVL9:
  80              	.LBB34:
  81              	.LBB35:
  82              		.loc 1 60 0
  83 0008 90109FE5 		ldr	r1, .L9
  84              	.LVL10:
  85 000c 90209FE5 		ldr	r2, .L9+4
  86              	.LVL11:
  87 0010 FEFFFFEA 		b	chprintf
  88              	.LVL12:
  89              	.L7:
  90              	.LBE35:
  91              	.LBE34:
  92              		.loc 1 71 0
  93 0014 10402DE9 		stmfd	sp!, {r4, lr}
  94              		.cfi_def_cfa_offset 8
  95              		.cfi_offset 4, -8
  96              		.cfi_offset 14, -4
  97 0018 0040A0E1 		mov	r4, r0
  98              	.LVL13:
  99 001c 08D04DE2 		sub	sp, sp, #8
 100              		.cfi_def_cfa_offset 16
 101              	.LBB36:
 102              	.LBB37:
 103              		.loc 1 79 0
 104 0020 80109FE5 		ldr	r1, .L9+8
 105              	.LVL14:
 106 0024 80209FE5 		ldr	r2, .L9+12
 107              	.LVL15:
 108 0028 FEFFFFEB 		bl	chprintf
 109              	.LVL16:
 110              		.loc 1 81 0
 111 002c 0400A0E1 		mov	r0, r4
 112 0030 78109FE5 		ldr	r1, .L9+16
 113 0034 78209FE5 		ldr	r2, .L9+20
 114 0038 FEFFFFEB 		bl	chprintf
ARM GAS  /tmp/ccXMVEoh.s 			page 3


 115              	.LVL17:
 116              		.loc 1 83 0
 117 003c 0400A0E1 		mov	r0, r4
 118 0040 70109FE5 		ldr	r1, .L9+24
 119 0044 70209FE5 		ldr	r2, .L9+28
 120 0048 FEFFFFEB 		bl	chprintf
 121              	.LVL18:
 122              		.loc 1 85 0
 123 004c 0400A0E1 		mov	r0, r4
 124 0050 68109FE5 		ldr	r1, .L9+32
 125 0054 68209FE5 		ldr	r2, .L9+36
 126 0058 FEFFFFEB 		bl	chprintf
 127              	.LVL19:
 128              		.loc 1 88 0
 129 005c 0400A0E1 		mov	r0, r4
 130 0060 60109FE5 		ldr	r1, .L9+40
 131 0064 60209FE5 		ldr	r2, .L9+44
 132 0068 FEFFFFEB 		bl	chprintf
 133              	.LVL20:
 134              		.loc 1 91 0
 135 006c 0400A0E1 		mov	r0, r4
 136 0070 58109FE5 		ldr	r1, .L9+48
 137 0074 58209FE5 		ldr	r2, .L9+52
 138 0078 FEFFFFEB 		bl	chprintf
 139              	.LVL21:
 140              		.loc 1 98 0
 141 007c 54309FE5 		ldr	r3, .L9+56
 142 0080 0400A0E1 		mov	r0, r4
 143 0084 00308DE5 		str	r3, [sp]
 144 0088 4C109FE5 		ldr	r1, .L9+60
 145 008c 4C209FE5 		ldr	r2, .L9+64
 146 0090 4C309FE5 		ldr	r3, .L9+68
 147 0094 FEFFFFEB 		bl	chprintf
 148              	.LVL22:
 149              	.LBE37:
 150              	.LBE36:
 151              		.loc 1 101 0
 152 0098 08D08DE2 		add	sp, sp, #8
 153              		.cfi_def_cfa_offset 8
 154              		@ sp needed
 155 009c 1080BDE8 		ldmfd	sp!, {r4, pc}
 156              	.LVL23:
 157              	.L10:
 158              		.align	2
 159              	.L9:
 160 00a0 00000000 		.word	.LC0
 161 00a4 1C000000 		.word	.LC3
 162 00a8 24000000 		.word	.LC4
 163 00ac 38000000 		.word	.LC5
 164 00b0 48000000 		.word	.LC6
 165 00b4 5C000000 		.word	.LC7
 166 00b8 7C000000 		.word	.LC8
 167 00bc 90000000 		.word	.LC9
 168 00c0 98000000 		.word	.LC10
 169 00c4 AC000000 		.word	.LC11
 170 00c8 BC000000 		.word	.LC12
 171 00cc D0000000 		.word	.LC13
ARM GAS  /tmp/ccXMVEoh.s 			page 4


 172 00d0 E0000000 		.word	.LC14
 173 00d4 F4000000 		.word	.LC15
 174 00d8 24010000 		.word	.LC19
 175 00dc FC000000 		.word	.LC16
 176 00e0 14010000 		.word	.LC17
 177 00e4 20010000 		.word	.LC18
 178              		.cfi_endproc
 179              	.LFE10:
 180              		.size	cmd_info, .-cmd_info
 181              		.section	.text._strtok.constprop.2,"ax",%progbits
 182              		.align	2
 183              		.type	_strtok.constprop.2, %function
 184              	_strtok.constprop.2:
 185              	.LFB20:
 186              		.loc 1 41 0
 187              		.cfi_startproc
 188              		@ args = 0, pretend = 0, frame = 0
 189              		@ frame_needed = 0, uses_anonymous_args = 0
 190              	.LVL24:
 191 0000 38402DE9 		stmfd	sp!, {r3, r4, r5, lr}
 192              		.cfi_def_cfa_offset 16
 193              		.cfi_offset 3, -16
 194              		.cfi_offset 4, -12
 195              		.cfi_offset 5, -8
 196              		.cfi_offset 14, -4
 197              		.loc 1 43 0
 198 0004 004050E2 		subs	r4, r0, #0
 199              		.loc 1 41 0
 200 0008 0150A0E1 		mov	r5, r1
 201              		.loc 1 44 0
 202 000c 00408115 		strne	r4, [r1]
 203              		.loc 1 43 0
 204 0010 1100000A 		beq	.L22
 205              	.L13:
 206              	.LVL25:
 207              		.loc 1 50 0
 208 0014 0400A0E1 		mov	r0, r4
 209              	.LVL26:
 210 0018 50109FE5 		ldr	r1, .L23
 211              	.LVL27:
 212 001c FEFFFFEB 		bl	strspn
 213              	.LVL28:
 214 0020 004084E0 		add	r4, r4, r0
 215              	.LVL29:
 216              		.loc 1 51 0
 217 0024 0400A0E1 		mov	r0, r4
 218 0028 2010A0E3 		mov	r1, #32
 219 002c FEFFFFEB 		bl	strchr
 220              	.LVL30:
 221              		.loc 1 52 0
 222 0030 000050E3 		cmp	r0, #0
 223              		.loc 1 53 0
 224 0034 0030A013 		movne	r3, #0
 225 0038 01208012 		addne	r2, r0, #1
 226 003c 00208515 		strne	r2, [r5]
 227              		.loc 1 51 0
 228 0040 00008505 		streq	r0, [r5]
ARM GAS  /tmp/ccXMVEoh.s 			page 5


 229              		.loc 1 53 0
 230 0044 0030C015 		strneb	r3, [r0]
 231              		.loc 1 55 0
 232 0048 0030D4E5 		ldrb	r3, [r4]	@ zero_extendqisi2
 233 004c 000053E3 		cmp	r3, #0
 234 0050 0400000A 		beq	.L17
 235 0054 0400A0E1 		mov	r0, r4
 236              		.loc 1 56 0
 237 0058 3880BDE8 		ldmfd	sp!, {r3, r4, r5, pc}
 238              	.LVL31:
 239              	.L22:
 240              		.loc 1 45 0
 241 005c 004091E5 		ldr	r4, [r1]
 242              	.LVL32:
 243              		.loc 1 47 0
 244 0060 000054E3 		cmp	r4, #0
 245 0064 EAFFFF1A 		bne	.L13
 246              	.LVL33:
 247              	.L17:
 248              		.loc 1 48 0
 249 0068 0000A0E3 		mov	r0, #0
 250 006c 3880BDE8 		ldmfd	sp!, {r3, r4, r5, pc}
 251              	.L24:
 252              		.align	2
 253              	.L23:
 254 0070 00000000 		.word	.LANCHOR0
 255              		.cfi_endproc
 256              	.LFE20:
 257              		.size	_strtok.constprop.2, .-_strtok.constprop.2
 258              		.section	.text.shellInit,"ax",%progbits
 259              		.align	2
 260              		.global	shellInit
 261              		.type	shellInit, %function
 262              	shellInit:
 263              	.LFB14:
 264              		.loc 1 208 0
 265              		.cfi_startproc
 266              		@ args = 0, pretend = 0, frame = 0
 267              		@ frame_needed = 0, uses_anonymous_args = 0
 268              		@ link register save eliminated.
 269              		.loc 1 210 0
 270 0000 04309FE5 		ldr	r3, .L26
 271 0004 003083E5 		str	r3, [r3]
 272 0008 1EFF2FE1 		bx	lr
 273              	.L27:
 274              		.align	2
 275              	.L26:
 276 000c 00000000 		.word	shell_terminated
 277              		.cfi_endproc
 278              	.LFE14:
 279              		.size	shellInit, .-shellInit
 280              		.section	.text.shellCreate,"ax",%progbits
 281              		.align	2
 282              		.global	shellCreate
 283              		.type	shellCreate, %function
 284              	shellCreate:
 285              	.LFB15:
ARM GAS  /tmp/ccXMVEoh.s 			page 6


 286              		.loc 1 224 0
 287              		.cfi_startproc
 288              		@ args = 0, pretend = 0, frame = 0
 289              		@ frame_needed = 0, uses_anonymous_args = 0
 290              	.LVL34:
 291 0000 04E02DE5 		str	lr, [sp, #-4]!
 292              		.cfi_def_cfa_offset 4
 293              		.cfi_offset 14, -4
 294 0004 0CD04DE2 		sub	sp, sp, #12
 295              		.cfi_def_cfa_offset 16
 296              		.loc 1 226 0
 297 0008 00008DE5 		str	r0, [sp]
 298 000c 0C309FE5 		ldr	r3, .L30
 299 0010 0000A0E3 		mov	r0, #0
 300              	.LVL35:
 301 0014 FEFFFFEB 		bl	chThdCreateFromHeap
 302              	.LVL36:
 303              		.loc 1 227 0
 304 0018 0CD08DE2 		add	sp, sp, #12
 305              		.cfi_def_cfa_offset 4
 306              		@ sp needed
 307 001c 04F09DE4 		ldr	pc, [sp], #4
 308              	.L31:
 309              		.align	2
 310              	.L30:
 311 0020 00000000 		.word	shell_thread
 312              		.cfi_endproc
 313              	.LFE15:
 314              		.size	shellCreate, .-shellCreate
 315              		.section	.text.shellCreateStatic,"ax",%progbits
 316              		.align	2
 317              		.global	shellCreateStatic
 318              		.type	shellCreateStatic, %function
 319              	shellCreateStatic:
 320              	.LFB16:
 321              		.loc 1 240 0
 322              		.cfi_startproc
 323              		@ args = 0, pretend = 0, frame = 0
 324              		@ frame_needed = 0, uses_anonymous_args = 0
 325              	.LVL37:
 326 0000 04E02DE5 		str	lr, [sp, #-4]!
 327              		.cfi_def_cfa_offset 4
 328              		.cfi_offset 14, -4
 329 0004 0CD04DE2 		sub	sp, sp, #12
 330              		.cfi_def_cfa_offset 16
 331              		.loc 1 242 0
 332 0008 00008DE5 		str	r0, [sp]
 333 000c 0100A0E1 		mov	r0, r1
 334              	.LVL38:
 335 0010 0210A0E1 		mov	r1, r2
 336              	.LVL39:
 337 0014 0320A0E1 		mov	r2, r3
 338              	.LVL40:
 339 0018 08309FE5 		ldr	r3, .L34
 340              	.LVL41:
 341 001c FEFFFFEB 		bl	chThdCreateStatic
 342              	.LVL42:
ARM GAS  /tmp/ccXMVEoh.s 			page 7


 343              		.loc 1 243 0
 344 0020 0CD08DE2 		add	sp, sp, #12
 345              		.cfi_def_cfa_offset 4
 346              		@ sp needed
 347 0024 04F09DE4 		ldr	pc, [sp], #4
 348              	.L35:
 349              		.align	2
 350              	.L34:
 351 0028 00000000 		.word	shell_thread
 352              		.cfi_endproc
 353              	.LFE16:
 354              		.size	shellCreateStatic, .-shellCreateStatic
 355              		.section	.text.shellGetLine,"ax",%progbits
 356              		.align	2
 357              		.global	shellGetLine
 358              		.type	shellGetLine, %function
 359              	shellGetLine:
 360              	.LFB17:
 361              		.loc 1 255 0
 362              		.cfi_startproc
 363              		@ args = 0, pretend = 0, frame = 8
 364              		@ frame_needed = 0, uses_anonymous_args = 0
 365              	.LVL43:
 366 0000 F0402DE9 		stmfd	sp!, {r4, r5, r6, r7, lr}
 367              		.cfi_def_cfa_offset 20
 368              		.cfi_offset 4, -20
 369              		.cfi_offset 5, -16
 370              		.cfi_offset 6, -12
 371              		.cfi_offset 7, -8
 372              		.cfi_offset 14, -4
 373 0004 0170A0E1 		mov	r7, r1
 374              	.LVL44:
 375 0008 0040A0E1 		mov	r4, r0
 376 000c 0150A0E1 		mov	r5, r1
 377              	.LBB38:
 378              		.loc 1 283 0
 379 0010 012042E2 		sub	r2, r2, #1
 380              	.LVL45:
 381              	.LBE38:
 382              		.loc 1 255 0
 383 0014 0CD04DE2 		sub	sp, sp, #12
 384              		.cfi_def_cfa_offset 32
 385              	.LBB39:
 386              		.loc 1 283 0
 387 0018 026081E0 		add	r6, r1, r2
 388              	.LVL46:
 389              	.L37:
 390              		.loc 1 261 0
 391 001c 003094E5 		ldr	r3, [r4]
 392 0020 0400A0E1 		mov	r0, r4
 393 0024 043093E5 		ldr	r3, [r3, #4]
 394 0028 07108DE2 		add	r1, sp, #7
 395 002c 0120A0E3 		mov	r2, #1
 396 0030 33FF2FE1 		blx	r3
 397              	.LVL47:
 398 0034 000050E3 		cmp	r0, #0
 399 0038 2400000A 		beq	.L45
ARM GAS  /tmp/ccXMVEoh.s 			page 8


 400              		.loc 1 263 0
 401 003c 0710DDE5 		ldrb	r1, [sp, #7]	@ zero_extendqisi2
 402 0040 040051E3 		cmp	r1, #4
 403 0044 2400000A 		beq	.L49
 404              		.loc 1 267 0
 405 0048 080051E3 		cmp	r1, #8
 406 004c 0D00000A 		beq	.L50
 407              		.loc 1 276 0
 408 0050 0D0051E3 		cmp	r1, #13
 409 0054 2600000A 		beq	.L51
 410              		.loc 1 281 0
 411 0058 1F0051E3 		cmp	r1, #31
 412 005c EEFFFF9A 		bls	.L37
 413              		.loc 1 283 0
 414 0060 060055E1 		cmp	r5, r6
 415 0064 ECFFFF2A 		bcs	.L37
 416              		.loc 1 284 0
 417 0068 003094E5 		ldr	r3, [r4]
 418 006c 0400A0E1 		mov	r0, r4
 419 0070 083093E5 		ldr	r3, [r3, #8]
 420 0074 33FF2FE1 		blx	r3
 421              	.LVL48:
 422              		.loc 1 285 0
 423 0078 0730DDE5 		ldrb	r3, [sp, #7]	@ zero_extendqisi2
 424 007c 015085E2 		add	r5, r5, #1
 425              	.LVL49:
 426 0080 013045E5 		strb	r3, [r5, #-1]
 427 0084 E4FFFFEA 		b	.L37
 428              	.L50:
 429              		.loc 1 268 0
 430 0088 070055E1 		cmp	r5, r7
 431 008c E2FFFF0A 		beq	.L37
 432              		.loc 1 269 0
 433 0090 003094E5 		ldr	r3, [r4]
 434 0094 0400A0E1 		mov	r0, r4
 435 0098 083093E5 		ldr	r3, [r3, #8]
 436 009c 33FF2FE1 		blx	r3
 437              	.LVL50:
 438              		.loc 1 270 0
 439 00a0 003094E5 		ldr	r3, [r4]
 440 00a4 0400A0E1 		mov	r0, r4
 441 00a8 083093E5 		ldr	r3, [r3, #8]
 442 00ac 2010A0E3 		mov	r1, #32
 443 00b0 33FF2FE1 		blx	r3
 444              	.LVL51:
 445              		.loc 1 271 0
 446 00b4 003094E5 		ldr	r3, [r4]
 447 00b8 0400A0E1 		mov	r0, r4
 448 00bc 083093E5 		ldr	r3, [r3, #8]
 449 00c0 0710DDE5 		ldrb	r1, [sp, #7]	@ zero_extendqisi2
 450              		.loc 1 272 0
 451 00c4 015045E2 		sub	r5, r5, #1
 452              	.LVL52:
 453              		.loc 1 271 0
 454 00c8 33FF2FE1 		blx	r3
 455              	.LVL53:
 456 00cc D2FFFFEA 		b	.L37
ARM GAS  /tmp/ccXMVEoh.s 			page 9


 457              	.L45:
 458              		.loc 1 262 0
 459 00d0 0100A0E3 		mov	r0, #1
 460              	.LBE39:
 461              		.loc 1 288 0
 462 00d4 0CD08DE2 		add	sp, sp, #12
 463              		.cfi_remember_state
 464              		.cfi_def_cfa_offset 20
 465              		@ sp needed
 466 00d8 F080BDE8 		ldmfd	sp!, {r4, r5, r6, r7, pc}
 467              	.LVL54:
 468              	.L49:
 469              		.cfi_restore_state
 470              	.LBB40:
 471              		.loc 1 264 0
 472 00dc 0400A0E1 		mov	r0, r4
 473 00e0 28109FE5 		ldr	r1, .L52
 474 00e4 FEFFFFEB 		bl	chprintf
 475              	.LVL55:
 476              		.loc 1 265 0
 477 00e8 0100A0E3 		mov	r0, #1
 478              	.LBE40:
 479              		.loc 1 288 0
 480 00ec 0CD08DE2 		add	sp, sp, #12
 481              		.cfi_remember_state
 482              		.cfi_def_cfa_offset 20
 483              		@ sp needed
 484 00f0 F080BDE8 		ldmfd	sp!, {r4, r5, r6, r7, pc}
 485              	.LVL56:
 486              	.L51:
 487              		.cfi_restore_state
 488              	.LBB41:
 489              		.loc 1 277 0
 490 00f4 0400A0E1 		mov	r0, r4
 491 00f8 14109FE5 		ldr	r1, .L52+4
 492 00fc FEFFFFEB 		bl	chprintf
 493              	.LVL57:
 494              		.loc 1 278 0
 495 0100 0000A0E3 		mov	r0, #0
 496 0104 0000C5E5 		strb	r0, [r5]
 497              	.LBE41:
 498              		.loc 1 288 0
 499 0108 0CD08DE2 		add	sp, sp, #12
 500              		.cfi_def_cfa_offset 20
 501              		@ sp needed
 502 010c F080BDE8 		ldmfd	sp!, {r4, r5, r6, r7, pc}
 503              	.LVL58:
 504              	.L53:
 505              		.align	2
 506              	.L52:
 507 0110 30010000 		.word	.LC21
 508 0114 34010000 		.word	.LC22
 509              		.cfi_endproc
 510              	.LFE17:
 511              		.size	shellGetLine, .-shellGetLine
 512              		.section	.text.shell_thread,"ax",%progbits
 513              		.align	2
ARM GAS  /tmp/ccXMVEoh.s 			page 10


 514              		.type	shell_thread, %function
 515              	shell_thread:
 516              	.LFB13:
 517              		.loc 1 143 0
 518              		.cfi_startproc
 519              		@ args = 0, pretend = 0, frame = 88
 520              		@ frame_needed = 0, uses_anonymous_args = 0
 521              	.LVL59:
 522 0000 F0472DE9 		stmfd	sp!, {r4, r5, r6, r7, r8, r9, r10, lr}
 523              		.cfi_def_cfa_offset 32
 524              		.cfi_offset 4, -32
 525              		.cfi_offset 5, -28
 526              		.cfi_offset 6, -24
 527              		.cfi_offset 7, -20
 528              		.cfi_offset 8, -16
 529              		.cfi_offset 9, -12
 530              		.cfi_offset 10, -8
 531              		.cfi_offset 14, -4
 532              		.loc 1 151 0
 533 0004 50329FE5 		ldr	r3, .L107
 534              		.loc 1 146 0
 535 0008 006090E5 		ldr	r6, [r0]
 536              	.LVL60:
 537              		.loc 1 151 0
 538 000c 183093E5 		ldr	r3, [r3, #24]
 539 0010 48229FE5 		ldr	r2, .L107+4
 540              		.loc 1 147 0
 541 0014 048090E5 		ldr	r8, [r0, #4]
 542              	.LVL61:
 543              		.loc 1 143 0
 544 0018 58D04DE2 		sub	sp, sp, #88
 545              		.cfi_def_cfa_offset 120
 546              		.loc 1 152 0
 547 001c 0600A0E1 		mov	r0, r6
 548              	.LVL62:
 549              		.loc 1 151 0
 550 0020 182083E5 		str	r2, [r3, #24]
 551              		.loc 1 152 0
 552 0024 38129FE5 		ldr	r1, .L107+8
 553 0028 FEFFFFEB 		bl	chprintf
 554              	.LVL63:
 555              	.LBB54:
 556              	.LBB55:
 557              		.loc 1 65 0
 558 002c 34929FE5 		ldr	r9, .L107+12
 559              	.L55:
 560              	.LBE55:
 561              	.LBE54:
 562              		.loc 1 161 0
 563 0030 0070A0E3 		mov	r7, #0
 564              	.L56:
 565              		.loc 1 154 0
 566 0034 0600A0E1 		mov	r0, r6
 567 0038 2C129FE5 		ldr	r1, .L107+16
 568 003c FEFFFFEB 		bl	chprintf
 569              	.LVL64:
 570              		.loc 1 155 0
ARM GAS  /tmp/ccXMVEoh.s 			page 11


 571 0040 0600A0E1 		mov	r0, r6
 572 0044 18108DE2 		add	r1, sp, #24
 573 0048 4020A0E3 		mov	r2, #64
 574 004c FEFFFFEB 		bl	shellGetLine
 575              	.LVL65:
 576 0050 004050E2 		subs	r4, r0, #0
 577 0054 2F00001A 		bne	.L102
 578              		.loc 1 159 0
 579 0058 18008DE2 		add	r0, sp, #24
 580 005c 0D10A0E1 		mov	r1, sp
 581 0060 FEFFFFEB 		bl	_strtok.constprop.2
 582              	.LVL66:
 583 0064 00A0A0E1 		mov	r10, r0
 584              	.LVL67:
 585 0068 04508DE2 		add	r5, sp, #4
 586              	.LVL68:
 587              	.L59:
 588              		.loc 1 162 0
 589 006c 0000A0E3 		mov	r0, #0
 590              	.LVL69:
 591 0070 0D10A0E1 		mov	r1, sp
 592 0074 FEFFFFEB 		bl	_strtok.constprop.2
 593              	.LVL70:
 594 0078 000050E3 		cmp	r0, #0
 595 007c 0800000A 		beq	.L103
 596              		.loc 1 163 0
 597 0080 040054E3 		cmp	r4, #4
 598              		.loc 1 168 0
 599 0084 01408412 		addne	r4, r4, #1
 600              	.LVL71:
 601 0088 04008514 		strne	r0, [r5], #4
 602 008c F6FFFF1A 		bne	.L59
 603              	.L104:
 604              		.loc 1 164 0
 605 0090 0600A0E1 		mov	r0, r6
 606              	.LVL72:
 607 0094 D4119FE5 		ldr	r1, .L107+20
 608 0098 FEFFFFEB 		bl	chprintf
 609              	.LVL73:
 610              		.loc 1 170 0
 611 009c 14708DE5 		str	r7, [sp, #20]
 612 00a0 E3FFFFEA 		b	.L56
 613              	.LVL74:
 614              	.L103:
 615 00a4 58308DE2 		add	r3, sp, #88
 616 00a8 043183E0 		add	r3, r3, r4, asl #2
 617              		.loc 1 171 0
 618 00ac 00005AE3 		cmp	r10, #0
 619              		.loc 1 170 0
 620 00b0 540003E5 		str	r0, [r3, #-84]
 621              		.loc 1 171 0
 622 00b4 DEFFFF0A 		beq	.L56
 623              		.loc 1 172 0
 624 00b8 0A00A0E1 		mov	r0, r10
 625              	.LVL75:
 626 00bc B0119FE5 		ldr	r1, .L107+24
 627 00c0 FEFFFFEB 		bl	strcasecmp
ARM GAS  /tmp/ccXMVEoh.s 			page 12


 628              	.LVL76:
 629 00c4 000050E3 		cmp	r0, #0
 630 00c8 0600001A 		bne	.L63
 631              		.loc 1 173 0
 632 00cc 000054E3 		cmp	r4, #0
 633 00d0 1300000A 		beq	.L58
 634              	.LVL77:
 635              	.LBB57:
 636              	.LBB58:
 637              		.loc 1 60 0
 638 00d4 0600A0E1 		mov	r0, r6
 639 00d8 98119FE5 		ldr	r1, .L107+28
 640 00dc 90219FE5 		ldr	r2, .L107+24
 641 00e0 FEFFFFEB 		bl	chprintf
 642              	.LVL78:
 643              	.LBE58:
 644              	.LBE57:
 645              		.loc 1 175 0
 646 00e4 D1FFFFEA 		b	.L55
 647              	.LVL79:
 648              	.L63:
 649              		.loc 1 179 0
 650 00e8 0A00A0E1 		mov	r0, r10
 651 00ec 88119FE5 		ldr	r1, .L107+32
 652 00f0 FEFFFFEB 		bl	strcasecmp
 653              	.LVL80:
 654 00f4 000050E3 		cmp	r0, #0
 655 00f8 1200001A 		bne	.L105
 656              		.loc 1 180 0
 657 00fc 000054E3 		cmp	r4, #0
 658              	.LBB59:
 659              	.LBB60:
 660              		.loc 1 60 0
 661 0100 0600A0E1 		mov	r0, r6
 662              	.LBE60:
 663              	.LBE59:
 664              		.loc 1 180 0
 665 0104 2100000A 		beq	.L68
 666              	.LVL81:
 667              	.LBB62:
 668              	.LBB61:
 669              		.loc 1 60 0
 670 0108 68119FE5 		ldr	r1, .L107+28
 671 010c 68219FE5 		ldr	r2, .L107+32
 672 0110 FEFFFFEB 		bl	chprintf
 673              	.LVL82:
 674              	.LBE61:
 675              	.LBE62:
 676              		.loc 1 182 0
 677 0114 C5FFFFEA 		b	.L55
 678              	.LVL83:
 679              	.L102:
 680              		.loc 1 156 0
 681 0118 0600A0E1 		mov	r0, r6
 682 011c 5C119FE5 		ldr	r1, .L107+36
 683 0120 FEFFFFEB 		bl	chprintf
 684              	.LVL84:
ARM GAS  /tmp/ccXMVEoh.s 			page 13


 685              	.L58:
 686              		.loc 1 199 0
 687              	@ 199 "../../os/various/shell.c" 1
 688 0124 9FF021E3 		msr     CPSR_c, #0x9F
 689              	@ 0 "" 2
 690              		.loc 1 200 0
 691 0128 0010A0E3 		mov	r1, #0
 692 012c 50019FE5 		ldr	r0, .L107+40
 693 0130 FEFFFFEB 		bl	chEvtBroadcastFlagsI
 694              	.LVL85:
 695              		.loc 1 201 0
 696 0134 0000A0E3 		mov	r0, #0
 697 0138 FEFFFFEB 		bl	chThdExitS
 698              	.LVL86:
 699              		.loc 1 203 0
 700 013c 0000A0E3 		mov	r0, #0
 701 0140 58D08DE2 		add	sp, sp, #88
 702              		.cfi_remember_state
 703              		.cfi_def_cfa_offset 32
 704              		@ sp needed
 705 0144 F087BDE8 		ldmfd	sp!, {r4, r5, r6, r7, r8, r9, r10, pc}
 706              	.LVL87:
 707              	.L105:
 708              		.cfi_restore_state
 709              	.LBB63:
 710              	.LBB64:
 711              		.loc 1 125 0
 712 0148 000099E5 		ldr	r0, [r9]
 713 014c 000050E3 		cmp	r0, #0
 714 0150 10519F15 		ldrne	r5, .L107+12
 715 0154 0300001A 		bne	.L76
 716 0158 280000EA 		b	.L67
 717              	.LVL88:
 718              	.L106:
 719 015c 0800B5E5 		ldr	r0, [r5, #8]!
 720              	.LVL89:
 721 0160 000050E3 		cmp	r0, #0
 722 0164 2500000A 		beq	.L67
 723              	.LVL90:
 724              	.L76:
 725              		.loc 1 126 0
 726 0168 0A10A0E1 		mov	r1, r10
 727 016c FEFFFFEB 		bl	strcasecmp
 728              	.LVL91:
 729 0170 000050E3 		cmp	r0, #0
 730 0174 F8FFFF1A 		bne	.L106
 731              	.LVL92:
 732              	.L101:
 733              	.LBE64:
 734              	.LBE63:
 735              	.LBB65:
 736              	.LBB66:
 737              		.loc 1 127 0
 738 0178 043095E5 		ldr	r3, [r5, #4]
 739 017c 0410A0E1 		mov	r1, r4
 740 0180 04208DE2 		add	r2, sp, #4
 741 0184 0600A0E1 		mov	r0, r6
ARM GAS  /tmp/ccXMVEoh.s 			page 14


 742 0188 33FF2FE1 		blx	r3
 743              	.LVL93:
 744 018c A7FFFFEA 		b	.L55
 745              	.LVL94:
 746              	.L68:
 747              	.LBE66:
 748              	.LBE65:
 749              		.loc 1 184 0
 750 0190 F0109FE5 		ldr	r1, .L107+44
 751 0194 FEFFFFEB 		bl	chprintf
 752              	.LVL95:
 753              	.LBB68:
 754              	.LBB56:
 755              		.loc 1 65 0
 756 0198 002099E5 		ldr	r2, [r9]
 757 019c 000052E3 		cmp	r2, #0
 758 01a0 C0409F15 		ldrne	r4, .L107+12
 759              	.LVL96:
 760 01a4 0500000A 		beq	.L73
 761              	.LVL97:
 762              	.L72:
 763              		.loc 1 66 0
 764 01a8 0600A0E1 		mov	r0, r6
 765 01ac D8109FE5 		ldr	r1, .L107+48
 766 01b0 FEFFFFEB 		bl	chprintf
 767              	.LVL98:
 768              		.loc 1 65 0
 769 01b4 0820B4E5 		ldr	r2, [r4, #8]!
 770              	.LVL99:
 771 01b8 000052E3 		cmp	r2, #0
 772 01bc F9FFFF1A 		bne	.L72
 773              	.LVL100:
 774              	.L73:
 775              	.LBE56:
 776              	.LBE68:
 777              		.loc 1 186 0
 778 01c0 000058E3 		cmp	r8, #0
 779 01c4 0900000A 		beq	.L71
 780              	.LVL101:
 781              	.LBB69:
 782              	.LBB70:
 783              		.loc 1 65 0
 784 01c8 002098E5 		ldr	r2, [r8]
 785 01cc 000052E3 		cmp	r2, #0
 786 01d0 0600000A 		beq	.L71
 787 01d4 0840A0E1 		mov	r4, r8
 788              	.LVL102:
 789              	.L74:
 790              		.loc 1 66 0
 791 01d8 0600A0E1 		mov	r0, r6
 792 01dc A8109FE5 		ldr	r1, .L107+48
 793 01e0 FEFFFFEB 		bl	chprintf
 794              	.LVL103:
 795              		.loc 1 65 0
 796 01e4 0820B4E5 		ldr	r2, [r4, #8]!
 797              	.LVL104:
 798 01e8 000052E3 		cmp	r2, #0
ARM GAS  /tmp/ccXMVEoh.s 			page 15


 799 01ec F9FFFF1A 		bne	.L74
 800              	.LVL105:
 801              	.L71:
 802              	.LBE70:
 803              	.LBE69:
 804              		.loc 1 188 0
 805 01f0 0600A0E1 		mov	r0, r6
 806 01f4 94109FE5 		ldr	r1, .L107+52
 807 01f8 FEFFFFEB 		bl	chprintf
 808              	.LVL106:
 809 01fc 8BFFFFEA 		b	.L55
 810              	.LVL107:
 811              	.L67:
 812              		.loc 1 190 0
 813 0200 000058E3 		cmp	r8, #0
 814 0204 0C00000A 		beq	.L79
 815              	.LVL108:
 816              	.LBB71:
 817              	.LBB67:
 818              		.loc 1 125 0
 819 0208 000098E5 		ldr	r0, [r8]
 820 020c 000050E3 		cmp	r0, #0
 821 0210 0900000A 		beq	.L79
 822 0214 0850A0E1 		mov	r5, r8
 823 0218 020000EA 		b	.L78
 824              	.LVL109:
 825              	.L77:
 826 021c 0800B5E5 		ldr	r0, [r5, #8]!
 827              	.LVL110:
 828 0220 000050E3 		cmp	r0, #0
 829 0224 0400000A 		beq	.L79
 830              	.LVL111:
 831              	.L78:
 832              		.loc 1 126 0
 833 0228 0A10A0E1 		mov	r1, r10
 834 022c FEFFFFEB 		bl	strcasecmp
 835              	.LVL112:
 836 0230 000050E3 		cmp	r0, #0
 837 0234 F8FFFF1A 		bne	.L77
 838 0238 CEFFFFEA 		b	.L101
 839              	.LVL113:
 840              	.L79:
 841              	.LBE67:
 842              	.LBE71:
 843              		.loc 1 192 0
 844 023c 0600A0E1 		mov	r0, r6
 845 0240 0A20A0E1 		mov	r2, r10
 846 0244 48109FE5 		ldr	r1, .L107+56
 847 0248 FEFFFFEB 		bl	chprintf
 848              	.LVL114:
 849              		.loc 1 193 0
 850 024c 0600A0E1 		mov	r0, r6
 851 0250 40109FE5 		ldr	r1, .L107+60
 852 0254 FEFFFFEB 		bl	chprintf
 853              	.LVL115:
 854 0258 74FFFFEA 		b	.L55
 855              	.L108:
ARM GAS  /tmp/ccXMVEoh.s 			page 16


 856              		.align	2
 857              	.L107:
 858 025c 00000000 		.word	rlist
 859 0260 38010000 		.word	.LC23
 860 0264 40010000 		.word	.LC24
 861 0268 00000000 		.word	.LANCHOR1
 862 026c 58010000 		.word	.LC25
 863 0270 6C010000 		.word	.LC27
 864 0274 84010000 		.word	.LC28
 865 0278 00000000 		.word	.LC0
 866 027c 8C010000 		.word	.LC29
 867 0280 60010000 		.word	.LC26
 868 0284 00000000 		.word	shell_terminated
 869 0288 94010000 		.word	.LC30
 870 028c AC010000 		.word	.LC31
 871 0290 34010000 		.word	.LC22
 872 0294 B0010000 		.word	.LC32
 873 0298 B4010000 		.word	.LC33
 874              		.cfi_endproc
 875              	.LFE13:
 876              		.size	shell_thread, .-shell_thread
 877              		.comm	shell_terminated,4,4
 878              		.section	.rodata
 879              		.align	2
 880              		.set	.LANCHOR0,. + 0
 881              	.LC20:
 882 0000 20003900 		.ascii	" \0009\000"
 883              		.section	.data.local_commands,"aw",%progbits
 884              		.align	2
 885              		.set	.LANCHOR1,. + 0
 886              		.type	local_commands, %object
 887              		.size	local_commands, 24
 888              	local_commands:
 889 0000 1C000000 		.word	.LC3
 890 0004 00000000 		.word	cmd_info
 891 0008 0C000000 		.word	.LC1
 892 000c 00000000 		.word	cmd_systime
 893 0010 00000000 		.word	0
 894 0014 00000000 		.word	0
 895              		.section	.rodata.str1.4,"aMS",%progbits,1
 896              		.align	2
 897              	.LC0:
 898 0000 55736167 		.ascii	"Usage: %s\015\012\000"
 898      653A2025 
 898      730D0A00 
 899              	.LC1:
 900 000c 73797374 		.ascii	"systime\000"
 900      696D6500 
 901              	.LC2:
 902 0014 256C750D 		.ascii	"%lu\015\012\000"
 902      0A00
 903 001a 0000     		.space	2
 904              	.LC3:
 905 001c 696E666F 		.ascii	"info\000"
 905      00
 906 0021 000000   		.space	3
 907              	.LC4:
ARM GAS  /tmp/ccXMVEoh.s 			page 17


 908 0024 4B65726E 		.ascii	"Kernel:       %s\015\012\000"
 908      656C3A20 
 908      20202020 
 908      20202573 
 908      0D0A00
 909 0037 00       		.space	1
 910              	.LC5:
 911 0038 322E352E 		.ascii	"2.5.1unstable\000"
 911      31756E73 
 911      7461626C 
 911      6500
 912 0046 0000     		.space	2
 913              	.LC6:
 914 0048 436F6D70 		.ascii	"Compiler:     %s\015\012\000"
 914      696C6572 
 914      3A202020 
 914      20202573 
 914      0D0A00
 915 005b 00       		.space	1
 916              	.LC7:
 917 005c 47434320 		.ascii	"GCC 4.9.3 20150529 (prerelease)\000"
 917      342E392E 
 917      33203230 
 917      31353035 
 917      32392028 
 918              	.LC8:
 919 007c 41726368 		.ascii	"Architecture: %s\015\012\000"
 919      69746563 
 919      74757265 
 919      3A202573 
 919      0D0A00
 920 008f 00       		.space	1
 921              	.LC9:
 922 0090 41524D31 		.ascii	"ARM11\000"
 922      3100
 923 0096 0000     		.space	2
 924              	.LC10:
 925 0098 436F7265 		.ascii	"Core Variant: %s\015\012\000"
 925      20566172 
 925      69616E74 
 925      3A202573 
 925      0D0A00
 926 00ab 00       		.space	1
 927              	.LC11:
 928 00ac 41524D31 		.ascii	"ARM1176JZF-S\000"
 928      3137364A 
 928      5A462D53 
 928      00
 929 00b9 000000   		.space	3
 930              	.LC12:
 931 00bc 506F7274 		.ascii	"Port Info:    %s\015\012\000"
 931      20496E66 
 931      6F3A2020 
 931      20202573 
 931      0D0A00
 932 00cf 00       		.space	1
 933              	.LC13:
ARM GAS  /tmp/ccXMVEoh.s 			page 18


 934 00d0 50757265 		.ascii	"Pure ARM mode\000"
 934      2041524D 
 934      206D6F64 
 934      6500
 935 00de 0000     		.space	2
 936              	.LC14:
 937 00e0 506C6174 		.ascii	"Platform:     %s\015\012\000"
 937      666F726D 
 937      3A202020 
 937      20202573 
 937      0D0A00
 938 00f3 00       		.space	1
 939              	.LC15:
 940 00f4 42434D32 		.ascii	"BCM2835\000"
 940      38333500 
 941              	.LC16:
 942 00fc 4275696C 		.ascii	"Build time:   %s%s%s\015\012\000"
 942      64207469 
 942      6D653A20 
 942      20202573 
 942      25732573 
 943 0113 00       		.space	1
 944              	.LC17:
 945 0114 41756720 		.ascii	"Aug 10 2017\000"
 945      31302032 
 945      30313700 
 946              	.LC18:
 947 0120 202D2000 		.ascii	" - \000"
 948              	.LC19:
 949 0124 31383A32 		.ascii	"18:25:40\000"
 949      353A3430 
 949      00
 950 012d 000000   		.space	3
 951              	.LC21:
 952 0130 5E4400   		.ascii	"^D\000"
 953 0133 00       		.space	1
 954              	.LC22:
 955 0134 0D0A00   		.ascii	"\015\012\000"
 956 0137 00       		.space	1
 957              	.LC23:
 958 0138 7368656C 		.ascii	"shell\000"
 958      6C00
 959 013e 0000     		.space	2
 960              	.LC24:
 961 0140 0D0A4368 		.ascii	"\015\012ChibiOS/RT Shell\015\012\000"
 961      6962694F 
 961      532F5254 
 961      20536865 
 961      6C6C0D0A 
 962 0155 000000   		.space	3
 963              	.LC25:
 964 0158 63683E20 		.ascii	"ch> \000"
 964      00
 965 015d 000000   		.space	3
 966              	.LC26:
 967 0160 0D0A6C6F 		.ascii	"\015\012logout\000"
 967      676F7574 
ARM GAS  /tmp/ccXMVEoh.s 			page 19


 967      00
 968 0169 000000   		.space	3
 969              	.LC27:
 970 016c 746F6F20 		.ascii	"too many arguments\015\012\000"
 970      6D616E79 
 970      20617267 
 970      756D656E 
 970      74730D0A 
 971 0181 000000   		.space	3
 972              	.LC28:
 973 0184 65786974 		.ascii	"exit\000"
 973      00
 974 0189 000000   		.space	3
 975              	.LC29:
 976 018c 68656C70 		.ascii	"help\000"
 976      00
 977 0191 000000   		.space	3
 978              	.LC30:
 979 0194 436F6D6D 		.ascii	"Commands: help exit \000"
 979      616E6473 
 979      3A206865 
 979      6C702065 
 979      78697420 
 980 01a9 000000   		.space	3
 981              	.LC31:
 982 01ac 25732000 		.ascii	"%s \000"
 983              	.LC32:
 984 01b0 257300   		.ascii	"%s\000"
 985 01b3 00       		.space	1
 986              	.LC33:
 987 01b4 203F0D0A 		.ascii	" ?\015\012\000"
 987      00
 988              		.text
 989              	.Letext0:
 990              		.file 2 "/usr/lib/gcc/arm-none-eabi/4.9.3/include/stddef.h"
 991              		.file 3 "/usr/include/newlib/machine/_default_types.h"
 992              		.file 4 "/usr/include/newlib/sys/_stdint.h"
 993              		.file 5 "../../os/ports/GCC/ARM/chtypes.h"
 994              		.file 6 "../../os/kernel/include/chlists.h"
 995              		.file 7 "../../os/kernel/include/chthreads.h"
 996              		.file 8 "../../os/ports/GCC/ARM/chcore.h"
 997              		.file 9 "../../os/kernel/include/chvt.h"
 998              		.file 10 "../../os/kernel/include/chschd.h"
 999              		.file 11 "../../os/kernel/include/chmtx.h"
 1000              		.file 12 "../../os/kernel/include/chevents.h"
 1001              		.file 13 "../../os/kernel/include/chmemcore.h"
 1002              		.file 14 "../../os/kernel/include/chheap.h"
 1003              		.file 15 "../../os/kernel/include/chstreams.h"
 1004              		.file 16 "../../os/various/shell.h"
 1005              		.file 17 "/usr/include/newlib/string.h"
 1006              		.file 18 "../../os/kernel/include/chdynamic.h"
 1007              		.file 19 "../../os/various/chprintf.h"
 1008              		.file 20 "<built-in>"