ARM GAS  /tmp/ccXMVEoh.s 			page 1


   1              		.cpu arm1176jz-s
   2              		.fpu softvfp
   3              		.eabi_attribute 20, 1
   4              		.eabi_attribute 21, 1
   5              		.eabi_attribute 23, 3
   6              		.eabi_attribute 24, 1
   7              		.eabi_attribute 25, 1
   8              		.eabi_attribute 26, 1
   9              		.eabi_attribute 30, 2
  10              		.eabi_attribute 34, 1
  11              		.eabi_attribute 18, 4
  12              		.file	"shell.c"
  13              		.text
  14              	.Ltext0:
  15              		.cfi_sections	.debug_frame
  16              		.section	.text.cmd_systime,"ax",%progbits
  17              		.align	2
  18              		.type	cmd_systime, %function
  19              	cmd_systime:
  20              	.LFB11:
  21              		.file 1 "../../os/various/shell.c"
  22              		.loc 1 103 0
  23              		.cfi_startproc
  24              		@ args = 0, pretend = 0, frame = 0
  25              		@ frame_needed = 0, uses_anonymous_args = 0
  26              		@ link register save eliminated.
  27              	.LVL0:
  28              		.loc 1 106 0
  29 0000 000051E3 		cmp	r1, #0
  30 0004 020000DA 		ble	.L2
  31              	.LVL1:
  32              	.LBB24:
  33              	.LBB25:
  34              		.loc 1 60 0
  35 0008 14109FE5 		ldr	r1, .L4
  36              	.LVL2:
  37 000c 14209FE5 		ldr	r2, .L4+4
  38              	.LVL3:
  39 0010 FEFFFFEA 		b	chprintf
  40              	.LVL4:
  41              	.L2:
  42              	.LBE25:
  43              	.LBE24:
  44              	.LBB26:
  45              	.LBB27:
  46              		.loc 1 110 0
  47 0014 10309FE5 		ldr	r3, .L4+8
  48 0018 10109FE5 		ldr	r1, .L4+12
  49              	.LVL5:
  50 001c 0C2093E5 		ldr	r2, [r3, #12]
  51              	.LVL6:
  52 0020 FEFFFFEA 		b	chprintf
  53              	.LVL7:
  54              	.L5:
  55              		.align	2
  56              	.L4:
  57 0024 00000000 		.word	.LC0
ARM GAS  /tmp/ccXMVEoh.s 			page 2


  58 0028 0C000000 		.word	.LC1
  59 002c 00000000 		.word	vtlist
  60 0030 14000000 		.word	.LC2
  61              	.LBE27:
  62              	.LBE26:
  63              		.cfi_endproc
  64              	.LFE11:
  65              		.size	cmd_systime, .-cmd_systime
  66              		.section	.text.cmd_info,"ax",%progbits
  67              		.align	2
  68              		.type	cmd_info, %function
  69              	cmd_info:
  70              	.LFB10:
  71              		.loc 1 71 0
  72              		.cfi_startproc
  73              		@ args = 0, pretend = 0, frame = 0
  74              		@ frame_needed = 0, uses_anonymous_args = 0
  75              	.LVL8:
  76              		.loc 1 74 0
  77 0000 000051E3 		cmp	r1, #0
  78 0004 020000DA 		ble	.L7
  79              	.LVL9:
  80              	.LBB34:
  81              	.LBB35:
  82              		.loc 1 60 0
  83 0008 90109FE5 		ldr	r1, .L9
  84              	.LVL10:
  85 000c 90209FE5 		ldr	r2, .L9+4
  86              	.LVL11:
  87 0010 FEFFFFEA 		b	chprintf
  88              	.LVL12:
  89              	.L7:
  90              	.LBE35:
  91              	.LBE34:
  92              		.loc 1 71 0
  93 0014 10402DE9 		stmfd	sp!, {r4, lr}
  94              		.cfi_def_cfa_offset 8
  95              		.cfi_offset 4, -8
  96              		.cfi_offset 14, -4
  97 0018 0040A0E1 		mov	r4, r0
  98              	.LVL13:
  99 001c 08D04DE2 		sub	sp, sp, #8
 100              		.cfi_def_cfa_offset 16
 101              	.LBB36:
 102              	.LBB37:
 103              		.loc 1 79 0
 104 0020 80109FE5 		ldr	r1, .L9+8
 105              	.LVL14:
 106 0024 80209FE5 		ldr	r2, .L9+12
 107              	.LVL15:
 108 0028 FEFFFFEB 		bl	chprintf
 109              	.LVL16:
 110              		.loc 1 81 0
 111 002c 0400A0E1 		mov	r0, r4
 112 0030 78109FE5 		ldr	r1, .L9+16
 113 0034 78209FE5 		ldr	r2, .L9+20
 114 0038 FEFFFFEB 		bl	chprintf
ARM GAS  /tmp/ccXMVEoh.s 			page 3


 115              	.LVL17:
 116              		.loc 1 83 0
 117 003c 0400A0E1 		mov	r0, r4
 118 0040 70109FE5 		ldr	r1, .L9+24
 119 0044 70209FE5 		ldr	r2, .L9+28
 120 0048 FEFFFFEB 		bl	chprintf
 121              	.LVL18:
 122              		.loc 1 85 0
 123 004c 0400A0E1 		mov	r0, r4
 124 0050 68109FE5 		ldr	r1, .L9+32
 125 0054 68209FE5 		ldr	r2, .L9+36
 126 0058 FEFFFFEB 		bl	chprintf
 127              	.LVL19:
 128              		.loc 1 88 0
 129 005c 0400A0E1 		mov	r0, r4
 130 0060 60109FE5 		ldr	r1, .L9+40
 131 0064 60209FE5 		ldr	r2, .L9+44
 132 0068 FEFFFFEB 		bl	chprintf
 133              	.LVL20:
 134              		.loc 1 91 0
 135 006c 0400A0E1 		mov	r0, r4
 136 0070 58109FE5 		ldr	r1, .L9+48
 137 0074 58209FE5 		ldr	r2, .L9+52
 138 0078 FEFFFFEB 		bl	chprintf
 139              	.LVL21:
 140              		.loc 1 98 0
 141 007c 54309FE5 		ldr	r3, .L9+56
 142 0080 0400A0E1 		mov	r0, r4
 143 0084 00308DE5 		str	r3, [sp]
 144 0088 4C109FE5 		ldr	r1, .L9+60
 145 008c 4C209FE5 		ldr	r2, .L9+64
 146 0090 4C309FE5 		ldr	r3, .L9+68
 147 0094 FEFFFFEB 		bl	chprintf
 148              	.LVL22:
 149              	.LBE37:
 150              	.LBE36:
 151              		.loc 1 101 0
 152 0098 08D08DE2 		add	sp, sp, #8
 153              		.cfi_def_cfa_offset 8
 154              		@ sp needed
 155 009c 1080BDE8 		ldmfd	sp!, {r4, pc}
 156              	.LVL23:
 157              	.L10:
 158              		.align	2
 159              	.L9:
 160 00a0 00000000 		.word	.LC0
 161 00a4 1C000000 		.word	.LC3
 162 00a8 24000000 		.word	.LC4
 163 00ac 38000000 		.word	.LC5
 164 00b0 48000000 		.word	.LC6
 165 00b4 5C000000 		.word	.LC7
 166 00b8 7C000000 		.word	.LC8
 167 00bc 90000000 		.word	.LC9
 168 00c0 98000000 		.word	.LC10
 169 00c4 AC000000 		.word	.LC11
 170 00c8 BC000000 		.word	.LC12
 171 00cc D0000000 		.word	.LC13
ARM GAS  /tmp/ccXMVEoh.s 			page 4


 172 00d0 E0000000 		.word	.LC14
 173 00d4 F4000000 		.word	.LC15
 174 00d8 24010000 		.word	.LC19
 175 00dc FC000000 		.word	.LC16
 176 00e0 14010000 		.word	.LC17
 177 00e4 20010000 		.word	.LC18
 178              		.cfi_endproc
 179              	.LFE10:
 180              		.size	cmd_info, .-cmd_info
 181              		.section	.text._strtok.constprop.2,"ax",%progbits
 182              		.align	2
 183              		.type	_strtok.constprop.2, %function
 184              	_strtok.constprop.2:
 185              	.LFB20:
 186              		.loc 1 41 0
 187              		.cfi_startproc
 188              		@ args = 0, pretend = 0, frame = 0
 189              		@ frame_needed = 0, uses_anonymous_args = 0
 190              	.LVL24:
 191 0000 38402DE9 		stmfd	sp!, {r3, r4, r5, lr}
 192              		.cfi_def_cfa_offset 16
 193              		.cfi_offset 3, -16
 194              		.cfi_offset 4, -12
 195              		.cfi_offset 5, -8
 196              		.cfi_offset 14, -4
 197              		.loc 1 43 0
 198 0004 004050E2 		subs	r4, r0, #0
 199              		.loc 1 41 0
 200 0008 0150A0E1 		mov	r5, r1
 201              		.loc 1 44 0
 202 000c 00408115 		strne	r4, [r1]
 203              		.loc 1 43 0
 204 0010 1100000A 		beq	.L22
 205              	.L13:
 206              	.LVL25:
 207              		.loc 1 50 0
 208 0014 0400A0E1 		mov	r0, r4
 209              	.LVL26:
 210 0018 50109FE5 		ldr	r1, .L23
 211              	.LVL27:
 212 001c FEFFFFEB 		bl	strspn
 213              	.LVL28:
 214 0020 004084E0 		add	r4, r4, r0
 215              	.LVL29:
 216              		.loc 1 51 0
 217 0024 0400A0E1 		mov	r0, r4
 218 0028 2010A0E3 		mov	r1, #32
 219 002c FEFFFFEB 		bl	strchr
 220              	.LVL30:
 221              		.loc 1 52 0
 222 0030 000050E3 		cmp	r0, #0
 223              		.loc 1 53 0
 224 0034 0030A013 		movne	r3, #0
 225 0038 01208012 		addne	r2, r0, #1
 226 003c 00208515 		strne	r2, [r5]
 227              		.loc 1 51 0
 228 0040 00008505 		streq	r0, [r5]
ARM GAS  /tmp/ccXMVEoh.s 			page 5


 229              		.loc 1 53 0
 230 0044 0030C015 		strneb	r3, [r0]
 231              		.loc 1 55 0
 232 0048 0030D4E5 		ldrb	r3, [r4]	@ zero_extendqisi2
 233 004c 000053E3 		cmp	r3, #0
 234 0050 0400000A 		beq	.L17
 235 0054 0400A0E1 		mov	r0, r4
 236              		.loc 1 56 0
 237 0058 3880BDE8 		ldmfd	sp!, {r3, r4, r5, pc}
 238              	.LVL31:
 239              	.L22:
 240              		.loc 1 45 0
 241 005c 004091E5 		ldr	r4, [r1]
 242              	.LVL32:
 243              		.loc 1 47 0
 244 0060 000054E3 		cmp	r4, #0
 245 0064 EAFFFF1A 		bne	.L13
 246              	.LVL33:
 247              	.L17:
 248              		.loc 1 48 0
 249 0068 0000A0E3 		mov	r0, #0
 250 006c 3880BDE8 		ldmfd	sp!, {r3, r4, r5, pc}
 251              	.L24:
 252              		.align	2
 253              	.L23:
 254 0070 00000000 		.word	.LANCHOR0
 255              		.cfi_endproc
 256              	.LFE20:
 257              		.size	_strtok.constprop.2, .-_strtok.constprop.2
 258              		.section	.text.shellInit,"ax",%progbits
 259              		.align	2
 260              		.global	shellInit
 261              		.type	shellInit, %function
 262              	shellInit:
 263              	.LFB14:
 264              		.loc 1 208 0
 265              		.cfi_startproc
 266              		@ args = 0, pretend = 0, frame = 0
 267              		@ frame_needed = 0, uses_anonymous_args = 0
 268              		@ link register save eliminated.
 269              		.loc 1 210 0
 270 0000 04309FE5 		ldr	r3, .L26
 271 0004 003083E5 		str	r3, [r3]
 272 0008 1EFF2FE1 		bx	lr
 273              	.L27:
 274              		.align	2
 275              	.L26:
 276 000c 00000000 		.word	shell_terminated
 277              		.cfi_endproc
 278              	.LFE14:
 279              		.size	shellInit, .-shellInit
 280              		.section	.text.shellCreate,"ax",%progbits
 281              		.align	2
 282              		.global	shellCreate
 283              		.type	shellCreate, %function
 284              	shellCreate:
 285              	.LFB15:
ARM GAS  /tmp/ccXMVEoh.s 			page 6


 286              		.loc 1 224 0
 287              		.cfi_startproc
 288              		@ args = 0, pretend = 0, frame = 0
 289              		@ frame_needed = 0, uses_anonymous_args = 0
 290              	.LVL34:
 291 0000 04E02DE5 		str	lr, [sp, #-4]!
 292              		.cfi_def_cfa_offset 4
 293              		.cfi_offset 14, -4
 294 0004 0CD04DE2 		sub	sp, sp, #12
 295              		.cfi_def_cfa_offset 16
 296              		.loc 1 226 0
 297 0008 00008DE5 		str	r0, [sp]
 298 000c 0C309FE5 		ldr	r3, .L30
 299 0010 0000A0E3 		mov	r0, #0
 300              	.LVL35:
 301 0014 FEFFFFEB 		bl	chThdCreateFromHeap
 302              	.LVL36:
 303              		.loc 1 227 0
 304 0018 0CD08DE2 		add	sp, sp, #12
 305              		.cfi_def_cfa_offset 4
 306              		@ sp needed
 307 001c 04F09DE4 		ldr	pc, [sp], #4
 308              	.L31:
 309              		.align	2
 310              	.L30:
 311 0020 00000000 		.word	shell_thread
 312              		.cfi_endproc
 313              	.LFE15:
 314              		.size	shellCreate, .-shellCreate
 315              		.section	.text.shellCreateStatic,"ax",%progbits
 316              		.align	2
 317              		.global	shellCreateStatic
 318              		.type	shellCreateStatic, %function
 319              	shellCreateStatic:
 320              	.LFB16:
 321              		.loc 1 240 0
 322              		.cfi_startproc
 323              		@ args = 0, pretend = 0, frame = 0
 324              		@ frame_needed = 0, uses_anonymous_args = 0
 325              	.LVL37:
 326 0000 04E02DE5 		str	lr, [sp, #-4]!
 327              		.cfi_def_cfa_offset 4
 328              		.cfi_offset 14, -4
 329 0004 0CD04DE2 		sub	sp, sp, #12
 330              		.cfi_def_cfa_offset 16
 331              		.loc 1 242 0
 332 0008 00008DE5 		str	r0, [sp]
 333 000c 0100A0E1 		mov	r0, r1
 334              	.LVL38:
 335 0010 0210A0E1 		mov	r1, r2
 336              	.LVL39:
 337 0014 0320A0E1 		mov	r2, r3
 338              	.LVL40:
 339 0018 08309FE5 		ldr	r3, .L34
 340              	.LVL41:
 341 001c FEFFFFEB 		bl	chThdCreateStatic
 342              	.LVL42:
ARM GAS  /tmp/ccXMVEoh.s 			page 7


 343              		.loc 1 243 0
 344 0020 0CD08DE2 		add	sp, sp, #12
 345              		.cfi_def_cfa_offset 4
 346              		@ sp needed
 347 0024 04F09DE4 		ldr	pc, [sp], #4
 348              	.L35:
 349              		.align	2
 350              	.L34:
 351 0028 00000000 		.word	shell_thread
 352              		.cfi_endproc
 353              	.LFE16:
 354              		.size	shellCreateStatic, .-shellCreateStatic
 355              		.section	.text.shellGetLine,"ax",%progbits
 356              		.align	2
 357              		.global	shellGetLine
 358              		.type	shellGetLine, %function
 359              	shellGetLine:
 360              	.LFB17:
 361              		.loc 1 255 0
 362              		.cfi_startproc
 363              		@ args = 0, pretend = 0, frame = 8
 364              		@ frame_needed = 0, uses_anonymous_args = 0
 365              	.LVL43:
 366 0000 F0402DE9 		stmfd	sp!, {r4, r5, r6, r7, lr}
 367              		.cfi_def_cfa_offset 20
 368              		.cfi_offset 4, -20
 369              		.cfi_offset 5, -16
 370              		.cfi_offset 6, -12
 371              		.cfi_offset 7, -8
 372              		.cfi_offset 14, -4
 373 0004 0170A0E1 		mov	r7, r1
 374              	.LVL44:
 375 0008 0040A0E1 		mov	r4, r0
 376 000c 0150A0E1 		mov	r5, r1
 377              	.LBB38:
 378              		.loc 1 283 0
 379 0010 012042E2 		sub	r2, r2, #1
 380              	.LVL45:
 381              	.LBE38:
 382              		.loc 1 255 0
 383 0014 0CD04DE2 		sub	sp, sp, #12
 384              		.cfi_def_cfa_offset 32
 385              	.LBB39:
 386              		.loc 1 283 0
 387 0018 026081E0 		add	r6, r1, r2
 388              	.LVL46:
 389              	.L37:
 390              		.loc 1 261 0
 391 001c 003094E5 		ldr	r3, [r4]
 392 0020 0400A0E1 		mov	r0, r4
 393 0024 043093E5 		ldr	r3, [r3, #4]
 394 0028 07108DE2 		add	r1, sp, #7
 395 002c 0120A0E3 		mov	r2, #1
 396 0030 33FF2FE1 		blx	r3
 397              	.LVL47:
 398 0034 000050E3 		cmp	r0, #0
 399 0038 2400000A 		beq	.L45
ARM GAS  /tmp/ccXMVEoh.s 			page 8


 400              		.loc 1 263 0
 401 003c 0710DDE5 		ldrb	r1, [sp, #7]	@ zero_extendqisi2
 402 0040 040051E3 		cmp	r1, #4
 403 0044 2400000A 		beq	.L49
 404              		.loc 1 267 0
 405 0048 080051E3 		cmp	r1, #8
 406 004c 0D00000A 		beq	.L50
 407              		.loc 1 276 0
 408 0050 0D0051E3 		cmp	r1, #13
 409 0054 2600000A 		beq	.L51
 410              		.loc 1 281 0
 411 0058 1F0051E3 		cmp	r1, #31
 412 005c EEFFFF9A 		bls	.L37
 413              		.loc 1 283 0
 414 0060 060055E1 		cmp	r5, r6
 415 0064 ECFFFF2A 		bcs	.L37
 416              		.loc 1 284 0
 417 0068 003094E5 		ldr	r3, [r4]
 418 006c 0400A0E1 		mov	r0, r4
 419 0070 083093E5 		ldr	r3, [r3, #8]
 420 0074 33FF2FE1 		blx	r3
 421              	.LVL48:
 422              		.loc 1 285 0
 423 0078 0730DDE5 		ldrb	r3, [sp, #7]	@ zero_extendqisi2
 424 007c 015085E2 		add	r5, r5, #1
 425              	.LVL49:
 426 0080 013045E5 		strb	r3, [r5, #-1]
 427 0084 E4FFFFEA 		b	.L37
 428              	.L50:
 429              		.loc 1 268 0
 430 0088 070055E1 		cmp	r5, r7
 431 008c E2FFFF0A 		beq	.L37
 432              		.loc 1 269 0
 433 0090 003094E5 		ldr	r3, [r4]
 434 0094 0400A0E1 		mov	r0, r4
 435 0098 083093E5 		ldr	r3, [r3, #8]
 436 009c 33FF2FE1 		blx	r3
 437              	.LVL50:
 438              		.loc 1 270 0
 439 00a0 003094E5 		ldr	r3, [r4]
 440 00a4 0400A0E1 		mov	r0, r4
 441 00a8 083093E5 		ldr	r3, [r3, #8]
 442 00ac 2010A0E3 		mov	r1, #32
 443 00b0 33FF2FE1 		blx	r3
 444              	.LVL51:
 445              		.loc 1 271 0
 446 00b4 003094E5 		ldr	r3, [r4]
 447 00b8 0400A0E1 		mov	r0, r4
 448 00bc 083093E5 		ldr	r3, [r3, #8]
 449 00c0 0710DDE5 		ldrb	r1, [sp, #7]	@ zero_extendqisi2
 450              		.loc 1 272 0
 451 00c4 015045E2 		sub	r5, r5, #1
 452              	.LVL52:
 453              		.loc 1 271 0
 454 00c8 33FF2FE1 		blx	r3
 455              	.LVL53:
 456 00cc D2FFFFEA 		b	.L37
ARM GAS  /tmp/ccXMVEoh.s 			page 9


 457              	.L45:
 458              		.loc 1 262 0
 459 00d0 0100A0E3 		mov	r0, #1
 460              	.LBE39:
 461              		.loc 1 288 0
 462 00d4 0CD08DE2 		add	sp, sp, #12
 463              		.cfi_remember_state
 464              		.cfi_def_cfa_offset 20
 465              		@ sp needed
 466 00d8 F080BDE8 		ldmfd	sp!, {r4, r5, r6, r7, pc}
 467              	.LVL54:
 468              	.L49:
 469              		.cfi_restore_state
 470              	.LBB40:
 471              		.loc 1 264 0
 472 00dc 0400A0E1 		mov	r0, r4
 473 00e0 28109FE5 		ldr	r1, .L52
 474 00e4 FEFFFFEB 		bl	chprintf
 475              	.LVL55:
 476              		.loc 1 265 0
 477 00e8 0100A0E3 		mov	r0, #1
 478              	.LBE40:
 479              		.loc 1 288 0
 480 00ec 0CD08DE2 		add	sp, sp, #12
 481              		.cfi_remember_state
 482              		.cfi_def_cfa_offset 20
 483              		@ sp needed
 484 00f0 F080BDE8 		ldmfd	sp!, {r4, r5, r6, r7, pc}
 485              	.LVL56:
 486              	.L51:
 487              		.cfi_restore_state
 488              	.LBB41:
 489              		.loc 1 277 0
 490 00f4 0400A0E1 		mov	r0, r4
 491 00f8 14109FE5 		ldr	r1, .L52+4
 492 00fc FEFFFFEB 		bl	chprintf
 493              	.LVL57:
 494              		.loc 1 278 0
 495 0100 0000A0E3 		mov	r0, #0
 496 0104 0000C5E5 		strb	r0, [r5]
 497              	.LBE41:
 498              		.loc 1 288 0
 499 0108 0CD08DE2 		add	sp, sp, #12
 500              		.cfi_def_cfa_offset 20
 501              		@ sp needed
 502 010c F080BDE8 		ldmfd	sp!, {r4, r5, r6, r7, pc}
 503              	.LVL58:
 504              	.L53:
 505              		.align	2
 506              	.L52:
 507 0110 30010000 		.word	.LC21
 508 0114 34010000 		.word	.LC22
 509              		.cfi_endproc
 510              	.LFE17:
 511              		.size	shellGetLine, .-shellGetLine
 512              		.section	.text.shell_thread,"ax",%progbits
 513              		.align	2
ARM GAS  /tmp/ccXMVEoh.s 			page 10


 514              		.type	shell_thread, %function
 515              	shell_thread:
 516              	.LFB13:
 517              		.loc 1 143 0
 518              		.cfi_startproc
 519              		@ args = 0, pretend = 0, frame = 88
 520              		@ frame_needed = 0, uses_anonymous_args = 0
 521              	.LVL59:
 522 0000 F0472DE9 		stmfd	sp!, {r4, r5, r6, r7, r8, r9, r10, lr}
 523              		.cfi_def_cfa_offset 32
 524              		.cfi_offset 4, -32
 525              		.cfi_offset 5, -28
 526              		.cfi_offset 6, -24
 527              		.cfi_offset 7, -20
 528              		.cfi_offset 8, -16
 529              		.cfi_offset 9, -12
 530              		.cfi_offset 10, -8
 531              		.cfi_offset 14, -4
 532              		.loc 1 151 0
 533 0004 50329FE5 		ldr	r3, .L107
 534              		.loc 1 146 0
 535 0008 006090E5 		ldr	r6, [r0]
 536              	.LVL60:
 537              		.loc 1 151 0
 538 000c 183093E5 		ldr	r3, [r3, #24]
 539 0010 48229FE5 		ldr	r2, .L107+4
 540              		.loc 1 147 0
 541 0014 048090E5 		ldr	r8, [r0, #4]
 542              	.LVL61:
 543              		.loc 1 143 0
 544 0018 58D04DE2 		sub	sp, sp, #88
 545              		.cfi_def_cfa_offset 120
 546              		.loc 1 152 0
 547 001c 0600A0E1 		mov	r0, r6
 548              	.LVL62:
 549              		.loc 1 151 0
 550 0020 182083E5 		str	r2, [r3, #24]
 551              		.loc 1 152 0
 552 0024 38129FE5 		ldr	r1, .L107+8
 553 0028 FEFFFFEB 		bl	chprintf
 554              	.LVL63:
 555              	.LBB54:
 556              	.LBB55:
 557              		.loc 1 65 0
 558 002c 34929FE5 		ldr	r9, .L107+12
 559              	.L55:
 560              	.LBE55:
 561              	.LBE54:
 562              		.loc 1 161 0
 563 0030 0070A0E3 		mov	r7, #0
 564              	.L56:
 565              		.loc 1 154 0
 566 0034 0600A0E1 		mov	r0, r6
 567 0038 2C129FE5 		ldr	r1, .L107+16
 568 003c FEFFFFEB 		bl	chprintf
 569              	.LVL64:
 570              		.loc 1 155 0
ARM GAS  /tmp/ccXMVEoh.s 			page 11


 571 0040 0600A0E1 		mov	r0, r6
 572 0044 18108DE2 		add	r1, sp, #24
 573 0048 4020A0E3 		mov	r2, #64
 574 004c FEFFFFEB 		bl	shellGetLine
 575              	.LVL65:
 576 0050 004050E2 		subs	r4, r0, #0
 577 0054 2F00001A 		bne	.L102
 578              		.loc 1 159 0
 579 0058 18008DE2 		add	r0, sp, #24
 580 005c 0D10A0E1 		mov	r1, sp
 581 0060 FEFFFFEB 		bl	_strtok.constprop.2
 582              	.LVL66:
 583 0064 00A0A0E1 		mov	r10, r0
 584              	.LVL67:
 585 0068 04508DE2 		add	r5, sp, #4
 586              	.LVL68:
 587              	.L59:
 588              		.loc 1 162 0
 589 006c 0000A0E3 		mov	r0, #0
 590              	.LVL69:
 591 0070 0D10A0E1 		mov	r1, sp
 592 0074 FEFFFFEB 		bl	_strtok.constprop.2
 593              	.LVL70:
 594 0078 000050E3 		cmp	r0, #0
 595 007c 0800000A 		beq	.L103
 596              		.loc 1 163 0
 597 0080 040054E3 		cmp	r4, #4
 598              		.loc 1 168 0
 599 0084 01408412 		addne	r4, r4, #1
 600              	.LVL71:
 601 0088 04008514 		strne	r0, [r5], #4
 602 008c F6FFFF1A 		bne	.L59
 603              	.L104:
 604              		.loc 1 164 0
 605 0090 0600A0E1 		mov	r0, r6
 606              	.LVL72:
 607 0094 D4119FE5 		ldr	r1, .L107+20
 608 0098 FEFFFFEB 		bl	chprintf
 609              	.LVL73:
 610              		.loc 1 170 0
 611 009c 14708DE5 		str	r7, [sp, #20]
 612 00a0 E3FFFFEA 		b	.L56
 613              	.LVL74:
 614              	.L103:
 615 00a4 58308DE2 		add	r3, sp, #88
 616 00a8 043183E0 		add	r3, r3, r4, asl #2
 617              		.loc 1 171 0
 618 00ac 00005AE3 		cmp	r10, #0
 619              		.loc 1 170 0
 620 00b0 540003E5 		str	r0, [r3, #-84]
 621              		.loc 1 171 0
 622 00b4 DEFFFF0A 		beq	.L56
 623              		.loc 1 172 0
 624 00b8 0A00A0E1 		mov	r0, r10
 625              	.LVL75:
 626 00bc B0119FE5 		ldr	r1, .L107+24
 627 00c0 FEFFFFEB 		bl	strcasecmp
ARM GAS  /tmp/ccXMVEoh.s 			page 12


 628              	.LVL76:
 629 00c4 000050E3 		cmp	r0, #0
 630 00c8 0600001A 		bne	.L63
 631              		.loc 1 173 0
 632 00cc 000054E3 		cmp	r4, #0
 633 00d0 1300000A 		beq	.L58
 634              	.LVL77:
 635              	.LBB57:
 636              	.LBB58:
 637              		.loc 1 60 0
 638 00d4 0600A0E1 		mov	r0, r6
 639 00d8 98119FE5 		ldr	r1, .L107+28
 640 00dc 90219FE5 		ldr	r2, .L107+24
 641 00e0 FEFFFFEB 		bl	chprintf
 642              	.LVL78:
 643              	.LBE58:
 644              	.LBE57:
 645              		.loc 1 175 0
 646 00e4 D1FFFFEA 		b	.L55
 647              	.LVL79:
 648              	.L63:
 649              		.loc 1 179 0
 650 00e8 0A00A0E1 		mov	r0, r10
 651 00ec 88119FE5 		ldr	r1, .L107+32
 652 00f0 FEFFFFEB 		bl	strcasecmp
 653              	.LVL80:
 654 00f4 000050E3 		cmp	r0, #0
 655 00f8 1200001A 		bne	.L105
 656              		.loc 1 180 0
 657 00fc 000054E3 		cmp	r4, #0
 658              	.LBB59:
 659              	.LBB60:
 660              		.loc 1 60 0
 661 0100 0600A0E1 		mov	r0, r6
 662              	.LBE60:
 663              	.LBE59:
 664              		.loc 1 180 0
 665 0104 2100000A 		beq	.L68
 666              	.LVL81:
 667              	.LBB62:
 668              	.LBB61:
 669              		.loc 1 60 0
 670 0108 68119FE5 		ldr	r1, .L107+28
 671 010c 68219FE5 		ldr	r2, .L107+32
 672 0110 FEFFFFEB 		bl	chprintf
 673              	.LVL82:
 674              	.LBE61:
 675              	.LBE62:
 676              		.loc 1 182 0
 677 0114 C5FFFFEA 		b	.L55
 678              	.LVL83:
 679              	.L102:
 680              		.loc 1 156 0
 681 0118 0600A0E1 		mov	r0, r6
 682 011c 5C119FE5 		ldr	r1, .L107+36
 683 0120 FEFFFFEB 		bl	chprintf
 684              	.LVL84:
ARM GAS  /tmp/ccXMVEoh.s 			page 13


 685              	.L58:
 686              		.loc 1 199 0
 687              	@ 199 "../../os/various/shell.c" 1
 688 0124 9FF021E3 		msr     CPSR_c, #0x9F
 689              	@ 0 "" 2
 690              		.loc 1 200 0
 691 0128 0010A0E3 		mov	r1, #0
 692 012c 50019FE5 		ldr	r0, .L107+40
 693 0130 FEFFFFEB 		bl	chEvtBroadcastFlagsI
 694              	.LVL85:
 695              		.loc 1 201 0
 696 0134 0000A0E3 		mov	r0, #0
 697 0138 FEFFFFEB 		bl	chThdExitS
 698              	.LVL86:
 699              		.loc 1 203 0
 700 013c 0000A0E3 		mov	r0, #0
 701 0140 58D08DE2 		add	sp, sp, #88
 702              		.cfi_remember_state
 703              		.cfi_def_cfa_offset 32
 704              		@ sp needed
 705 0144 F087BDE8 		ldmfd	sp!, {r4, r5, r6, r7, r8, r9, r10, pc}
 706              	.LVL87:
 707              	.L105:
 708              		.cfi_restore_state
 709              	.LBB63:
 710              	.LBB64:
 711              		.loc 1 125 0
 712 0148 000099E5 		ldr	r0, [r9]
 713 014c 000050E3 		cmp	r0, #0
 714 0150 10519F15 		ldrne	r5, .L107+12
 715 0154 0300001A 		bne	.L76
 716 0158 280000EA 		b	.L67
 717              	.LVL88:
 718              	.L106:
 719 015c 0800B5E5 		ldr	r0, [r5, #8]!
 720              	.LVL89:
 721 0160 000050E3 		cmp	r0, #0
 722 0164 2500000A 		beq	.L67
 723              	.LVL90:
 724              	.L76:
 725              		.loc 1 126 0
 726 0168 0A10A0E1 		mov	r1, r10
 727 016c FEFFFFEB 		bl	strcasecmp
 728              	.LVL91:
 729 0170 000050E3 		cmp	r0, #0
 730 0174 F8FFFF1A 		bne	.L106
 731              	.LVL92:
 732              	.L101:
 733              	.LBE64:
 734              	.LBE63:
 735              	.LBB65:
 736              	.LBB66:
 737              		.loc 1 127 0
 738 0178 043095E5 		ldr	r3, [r5, #4]
 739 017c 0410A0E1 		mov	r1, r4
 740 0180 04208DE2 		add	r2, sp, #4
 741 0184 0600A0E1 		mov	r0, r6
ARM GAS  /tmp/ccXMVEoh.s 			page 14


 742 0188 33FF2FE1 		blx	r3
 743              	.LVL93:
 744 018c A7FFFFEA 		b	.L55
 745              	.LVL94:
 746              	.L68:
 747              	.LBE66:
 748              	.LBE65:
 749              		.loc 1 184 0
 750 0190 F0109FE5 		ldr	r1, .L107+44
 751 0194 FEFFFFEB 		bl	chprintf
 752              	.LVL95:
 753              	.LBB68:
 754              	.LBB56:
 755              		.loc 1 65 0
 756 0198 002099E5 		ldr	r2, [r9]
 757 019c 000052E3 		cmp	r2, #0
 758 01a0 C0409F15 		ldrne	r4, .L107+12
 759              	.LVL96:
 760 01a4 0500000A 		beq	.L73
 761              	.LVL97:
 762              	.L72:
 763              		.loc 1 66 0
 764 01a8 0600A0E1 		mov	r0, r6
 765 01ac D8109FE5 		ldr	r1, .L107+48
 766 01b0 FEFFFFEB 		bl	chprintf
 767              	.LVL98:
 768              		.loc 1 65 0
 769 01b4 0820B4E5 		ldr	r2, [r4, #8]!
 770              	.LVL99:
 771 01b8 000052E3 		cmp	r2, #0
 772 01bc F9FFFF1A 		bne	.L72
 773              	.LVL100:
 774              	.L73:
 775              	.LBE56:
 776              	.LBE68:
 777              		.loc 1 186 0
 778 01c0 000058E3 		cmp	r8, #0
 779 01c4 0900000A 		beq	.L71
 780              	.LVL101:
 781              	.LBB69:
 782              	.LBB70:
 783              		.loc 1 65 0
 784 01c8 002098E5 		ldr	r2, [r8]
 785 01cc 000052E3 		cmp	r2, #0
 786 01d0 0600000A 		beq	.L71
 787 01d4 0840A0E1 		mov	r4, r8
 788              	.LVL102:
 789              	.L74:
 790              		.loc 1 66 0
 791 01d8 0600A0E1 		mov	r0, r6
 792 01dc A8109FE5 		ldr	r1, .L107+48
 793 01e0 FEFFFFEB 		bl	chprintf
 794              	.LVL103:
 795              		.loc 1 65 0
 796 01e4 0820B4E5 		ldr	r2, [r4, #8]!
 797              	.LVL104:
 798 01e8 000052E3 		cmp	r2, #0
ARM GAS  /tmp/ccXMVEoh.s 			page 15


 799 01ec F9FFFF1A 		bne	.L74
 800              	.LVL105:
 801              	.L71:
 802              	.LBE70:
 803              	.LBE69:
 804              		.loc 1 188 0
 805 01f0 0600A0E1 		mov	r0, r6
 806 01f4 94109FE5 		ldr	r1, .L107+52
 807 01f8 FEFFFFEB 		bl	chprintf
 808              	.LVL106:
 809 01fc 8BFFFFEA 		b	.L55
 810              	.LVL107:
 811              	.L67:
 812              		.loc 1 190 0
 813 0200 000058E3 		cmp	r8, #0
 814 0204 0C00000A 		beq	.L79
 815              	.LVL108:
 816              	.LBB71:
 817              	.LBB67:
 818              		.loc 1 125 0
 819 0208 000098E5 		ldr	r0, [r8]
 820 020c 000050E3 		cmp	r0, #0
 821 0210 0900000A 		beq	.L79
 822 0214 0850A0E1 		mov	r5, r8
 823 0218 020000EA 		b	.L78
 824              	.LVL109:
 825              	.L77:
 826 021c 0800B5E5 		ldr	r0, [r5, #8]!
 827              	.LVL110:
 828 0220 000050E3 		cmp	r0, #0
 829 0224 0400000A 		beq	.L79
 830              	.LVL111:
 831              	.L78:
 832              		.loc 1 126 0
 833 0228 0A10A0E1 		mov	r1, r10
 834 022c FEFFFFEB 		bl	strcasecmp
 835              	.LVL112:
 836 0230 000050E3 		cmp	r0, #0
 837 0234 F8FFFF1A 		bne	.L77
 838 0238 CEFFFFEA 		b	.L101
 839              	.LVL113:
 840              	.L79:
 841              	.LBE67:
 842              	.LBE71:
 843              		.loc 1 192 0
 844 023c 0600A0E1 		mov	r0, r6
 845 0240 0A20A0E1 		mov	r2, r10
 846 0244 48109FE5 		ldr	r1, .L107+56
 847 0248 FEFFFFEB 		bl	chprintf
 848              	.LVL114:
 849              		.loc 1 193 0
 850 024c 0600A0E1 		mov	r0, r6
 851 0250 40109FE5 		ldr	r1, .L107+60
 852 0254 FEFFFFEB 		bl	chprintf
 853              	.LVL115:
 854 0258 74FFFFEA 		b	.L55
 855              	.L108:
ARM GAS  /tmp/ccXMVEoh.s 			page 16


 856              		.align	2
 857              	.L107:
 858 025c 00000000 		.word	rlist
 859 0260 38010000 		.word	.LC23
 860 0264 40010000 		.word	.LC24
 861 0268 00000000 		.word	.LANCHOR1
 862 026c 58010000 		.word	.LC25
 863 0270 6C010000 		.word	.LC27
 864 0274 84010000 		.word	.LC28
 865 0278 00000000 		.word	.LC0
 866 027c 8C010000 		.word	.LC29
 867 0280 60010000 		.word	.LC26
 868 0284 00000000 		.word	shell_terminated
 869 0288 94010000 		.word	.LC30
 870 028c AC010000 		.word	.LC31
 871 0290 34010000 		.word	.LC22
 872 0294 B0010000 		.word	.LC32
 873 0298 B4010000 		.word	.LC33
 874              		.cfi_endproc
 875              	.LFE13:
 876              		.size	shell_thread, .-shell_thread
 877              		.comm	shell_terminated,4,4
 878              		.section	.rodata
 879              		.align	2
 880              		.set	.LANCHOR0,. + 0
 881              	.LC20:
 882 0000 20003900 		.ascii	" \0009\000"
 883              		.section	.data.local_commands,"aw",%progbits
 884              		.align	2
 885              		.set	.LANCHOR1,. + 0
 886              		.type	local_commands, %object
 887              		.size	local_commands, 24
 888              	local_commands:
 889 0000 1C000000 		.word	.LC3
 890 0004 00000000 		.word	cmd_info
 891 0008 0C000000 		.word	.LC1
 892 000c 00000000 		.word	cmd_systime
 893 0010 00000000 		.word	0
 894 0014 00000000 		.word	0
 895              		.section	.rodata.str1.4,"aMS",%progbits,1
 896              		.align	2
 897              	.LC0:
 898 0000 55736167 		.ascii	"Usage: %s\015\012\000"
 898      653A2025 
 898      730D0A00 
 899              	.LC1:
 900 000c 73797374 		.ascii	"systime\000"
 900      696D6500 
 901              	.LC2:
 902 0014 256C750D 		.ascii	"%lu\015\012\000"
 902      0A00
 903 001a 0000     		.space	2
 904              	.LC3:
 905 001c 696E666F 		.ascii	"info\000"
 905      00
 906 0021 000000   		.space	3
 907              	.LC4:
ARM GAS  /tmp/ccXMVEoh.s 			page 17


 908 0024 4B65726E 		.ascii	"Kernel:       %s\015\012\000"
 908      656C3A20 
 908      20202020 
 908      20202573 
 908      0D0A00
 909 0037 00       		.space	1
 910              	.LC5:
 911 0038 322E352E 		.ascii	"2.5.1unstable\000"
 911      31756E73 
 911      7461626C 
 911      6500
 912 0046 0000     		.space	2
 913              	.LC6:
 914 0048 436F6D70 		.ascii	"Compiler:     %s\015\012\000"
 914      696C6572 
 914      3A202020 
 914      20202573 
 914      0D0A00
 915 005b 00       		.space	1
 916              	.LC7:
 917 005c 47434320 		.ascii	"GCC 4.9.3 20150529 (prerelease)\000"
 917      342E392E 
 917      33203230 
 917      31353035 
 917      32392028 
 918              	.LC8:
 919 007c 41726368 		.ascii	"Architecture: %s\015\012\000"
 919      69746563 
 919      74757265 
 919      3A202573 
 919      0D0A00
 920 008f 00       		.space	1
 921              	.LC9:
 922 0090 41524D31 		.ascii	"ARM11\000"
 922      3100
 923 0096 0000     		.space	2
 924              	.LC10:
 925 0098 436F7265 		.ascii	"Core Variant: %s\015\012\000"
 925      20566172 
 925      69616E74 
 925      3A202573 
 925      0D0A00
 926 00ab 00       		.space	1
 927              	.LC11:
 928 00ac 41524D31 		.ascii	"ARM1176JZF-S\000"
 928      3137364A 
 928      5A462D53 
 928      00
 929 00b9 000000   		.space	3
 930              	.LC12:
 931 00bc 506F7274 		.ascii	"Port Info:    %s\015\012\000"
 931      20496E66 
 931      6F3A2020 
 931      20202573 
 931      0D0A00
 932 00cf 00       		.space	1
 933              	.LC13:
ARM GAS  /tmp/ccXMVEoh.s 			page 18


 934 00d0 50757265 		.ascii	"Pure ARM mode\000"
 934      2041524D 
 934      206D6F64 
 934      6500
 935 00de 0000     		.space	2
 936              	.LC14:
 937 00e0 506C6174 		.ascii	"Platform:     %s\015\012\000"
 937      666F726D 
 937      3A202020 
 937      20202573 
 937      0D0A00
 938 00f3 00       		.space	1
 939              	.LC15:
 940 00f4 42434D32 		.ascii	"BCM2835\000"
 940      38333500 
 941              	.LC16:
 942 00fc 4275696C 		.ascii	"Build time:   %s%s%s\015\012\000"
 942      64207469 
 942      6D653A20 
 942      20202573 
 942      25732573 
 943 0113 00       		.space	1
 944              	.LC17:
 945 0114 41756720 		.ascii	"Aug 10 2017\000"
 945      31302032 
 945      30313700 
 946              	.LC18:
 947 0120 202D2000 		.ascii	" - \000"
 948              	.LC19:
 949 0124 31383A32 		.ascii	"18:25:40\000"
 949      353A3430 
 949      00
 950 012d 000000   		.space	3
 951              	.LC21:
 952 0130 5E4400   		.ascii	"^D\000"
 953 0133 00       		.space	1
 954              	.LC22:
 955 0134 0D0A00   		.ascii	"\015\012\000"
 956 0137 00       		.space	1
 957              	.LC23:
 958 0138 7368656C 		.ascii	"shell\000"
 958      6C00
 959 013e 0000     		.space	2
 960              	.LC24:
 961 0140 0D0A4368 		.ascii	"\015\012ChibiOS/RT Shell\015\012\000"
 961      6962694F 
 961      532F5254 
 961      20536865 
 961      6C6C0D0A 
 962 0155 000000   		.space	3
 963              	.LC25:
 964 0158 63683E20 		.ascii	"ch> \000"
 964      00
 965 015d 000000   		.space	3
 966              	.LC26:
 967 0160 0D0A6C6F 		.ascii	"\015\012logout\000"
 967      676F7574 
ARM GAS  /tmp/ccXMVEoh.s 			page 19


 967      00
 968 0169 000000   		.space	3
 969              	.LC27:
 970 016c 746F6F20 		.ascii	"too many arguments\015\012\000"
 970      6D616E79 
 970      20617267 
 970      756D656E 
 970      74730D0A 
 971 0181 000000   		.space	3
 972              	.LC28:
 973 0184 65786974 		.ascii	"exit\000"
 973      00
 974 0189 000000   		.space	3
 975              	.LC29:
 976 018c 68656C70 		.ascii	"help\000"
 976      00
 977 0191 000000   		.space	3
 978              	.LC30:
 979 0194 436F6D6D 		.ascii	"Commands: help exit \000"
 979      616E6473 
 979      3A206865 
 979      6C702065 
 979      78697420 
 980 01a9 000000   		.space	3
 981              	.LC31:
 982 01ac 25732000 		.ascii	"%s \000"
 983              	.LC32:
 984 01b0 257300   		.ascii	"%s\000"
 985 01b3 00       		.space	1
 986              	.LC33:
 987 01b4 203F0D0A 		.ascii	" ?\015\012\000"
 987      00
 988              		.text
 989              	.Letext0:
 990              		.file 2 "/usr/lib/gcc/arm-none-eabi/4.9.3/include/stddef.h"
 991              		.file 3 "/usr/include/newlib/machine/_default_types.h"
 992              		.file 4 "/usr/include/newlib/sys/_stdint.h"
 993              		.file 5 "../../os/ports/GCC/ARM/chtypes.h"
 994              		.file 6 "../../os/kernel/include/chlists.h"
 995              		.file 7 "../../os/kernel/include/chthreads.h"
 996              		.file 8 "../../os/ports/GCC/ARM/chcore.h"
 997              		.file 9 "../../os/kernel/include/chvt.h"
 998              		.file 10 "../../os/kernel/include/chschd.h"
 999              		.file 11 "../../os/kernel/include/chmtx.h"
 1000              		.file 12 "../../os/kernel/include/chevents.h"
 1001              		.file 13 "../../os/kernel/include/chmemcore.h"
 1002              		.file 14 "../../os/kernel/include/chheap.h"
 1003              		.file 15 "../../os/kernel/include/chstreams.h"
 1004              		.file 16 "../../os/various/shell.h"
 1005              		.file 17 "/usr/include/newlib/string.h"
 1006              		.file 18 "../../os/kernel/include/chdynamic.h"
 1007              		.file 19 "../../os/various/chprintf.h"
 1008              		.file 20 "<built-in>"
 1009              		.section	.debug_info,"",%progbits
 1010              	.Ldebug_info0:
 1011 0000 D5120000 		.4byte	0x12d5
 1012 0004 0400     		.2byte	0x4
ARM GAS  /tmp/ccXMVEoh.s 			page 20


 1013 0006 00000000 		.4byte	.Ldebug_abbrev0
 1014 000a 04       		.byte	0x4
 1015 000b 01       		.uleb128 0x1
 1016 000c AF030000 		.4byte	.LASF134
 1017 0010 01       		.byte	0x1
 1018 0011 7F010000 		.4byte	.LASF135
 1019 0015 44050000 		.4byte	.LASF136
 1020 0019 70000000 		.4byte	.Ldebug_ranges0+0x70
 1021 001d 00000000 		.4byte	0
 1022 0021 00000000 		.4byte	.Ldebug_line0
 1023 0025 02       		.uleb128 0x2
 1024 0026 04       		.byte	0x4
 1025 0027 05       		.byte	0x5
 1026 0028 696E7400 		.ascii	"int\000"
 1027 002c 03       		.uleb128 0x3
 1028 002d 6A010000 		.4byte	.LASF2
 1029 0031 02       		.byte	0x2
 1030 0032 D4       		.byte	0xd4
 1031 0033 37000000 		.4byte	0x37
 1032 0037 04       		.uleb128 0x4
 1033 0038 04       		.byte	0x4
 1034 0039 07       		.byte	0x7
 1035 003a 63000000 		.4byte	.LASF0
 1036 003e 04       		.uleb128 0x4
 1037 003f 01       		.byte	0x1
 1038 0040 06       		.byte	0x6
 1039 0041 CA050000 		.4byte	.LASF1
 1040 0045 03       		.uleb128 0x3
 1041 0046 61040000 		.4byte	.LASF3
 1042 004a 03       		.byte	0x3
 1043 004b 1D       		.byte	0x1d
 1044 004c 50000000 		.4byte	0x50
 1045 0050 04       		.uleb128 0x4
 1046 0051 01       		.byte	0x1
 1047 0052 08       		.byte	0x8
 1048 0053 15050000 		.4byte	.LASF4
 1049 0057 04       		.uleb128 0x4
 1050 0058 02       		.byte	0x2
 1051 0059 05       		.byte	0x5
 1052 005a 6A030000 		.4byte	.LASF5
 1053 005e 04       		.uleb128 0x4
 1054 005f 02       		.byte	0x2
 1055 0060 07       		.byte	0x7
 1056 0061 D6050000 		.4byte	.LASF6
 1057 0065 03       		.uleb128 0x3
 1058 0066 8D000000 		.4byte	.LASF7
 1059 006a 03       		.byte	0x3
 1060 006b 3F       		.byte	0x3f
 1061 006c 70000000 		.4byte	0x70
 1062 0070 04       		.uleb128 0x4
 1063 0071 04       		.byte	0x4
 1064 0072 05       		.byte	0x5
 1065 0073 A6030000 		.4byte	.LASF8
 1066 0077 03       		.uleb128 0x3
 1067 0078 23050000 		.4byte	.LASF9
 1068 007c 03       		.byte	0x3
 1069 007d 41       		.byte	0x41
ARM GAS  /tmp/ccXMVEoh.s 			page 21


 1070 007e 82000000 		.4byte	0x82
 1071 0082 04       		.uleb128 0x4
 1072 0083 04       		.byte	0x4
 1073 0084 07       		.byte	0x7
 1074 0085 C6040000 		.4byte	.LASF10
 1075 0089 04       		.uleb128 0x4
 1076 008a 08       		.byte	0x8
 1077 008b 05       		.byte	0x5
 1078 008c 73020000 		.4byte	.LASF11
 1079 0090 04       		.uleb128 0x4
 1080 0091 08       		.byte	0x8
 1081 0092 07       		.byte	0x7
 1082 0093 27010000 		.4byte	.LASF12
 1083 0097 04       		.uleb128 0x4
 1084 0098 04       		.byte	0x4
 1085 0099 07       		.byte	0x7
 1086 009a A7040000 		.4byte	.LASF13
 1087 009e 05       		.uleb128 0x5
 1088 009f 04       		.byte	0x4
 1089 00a0 06       		.uleb128 0x6
 1090 00a1 04       		.byte	0x4
 1091 00a2 A6000000 		.4byte	0xa6
 1092 00a6 04       		.uleb128 0x4
 1093 00a7 01       		.byte	0x1
 1094 00a8 08       		.byte	0x8
 1095 00a9 E5010000 		.4byte	.LASF14
 1096 00ad 06       		.uleb128 0x6
 1097 00ae 04       		.byte	0x4
 1098 00af B3000000 		.4byte	0xb3
 1099 00b3 07       		.uleb128 0x7
 1100 00b4 A6000000 		.4byte	0xa6
 1101 00b8 03       		.uleb128 0x3
 1102 00b9 41020000 		.4byte	.LASF15
 1103 00bd 04       		.byte	0x4
 1104 00be 14       		.byte	0x14
 1105 00bf 45000000 		.4byte	0x45
 1106 00c3 03       		.uleb128 0x3
 1107 00c4 D8040000 		.4byte	.LASF16
 1108 00c8 04       		.byte	0x4
 1109 00c9 1F       		.byte	0x1f
 1110 00ca 65000000 		.4byte	0x65
 1111 00ce 03       		.uleb128 0x3
 1112 00cf D7000000 		.4byte	.LASF17
 1113 00d3 04       		.byte	0x4
 1114 00d4 20       		.byte	0x20
 1115 00d5 77000000 		.4byte	0x77
 1116 00d9 03       		.uleb128 0x3
 1117 00da 78010000 		.4byte	.LASF18
 1118 00de 05       		.byte	0x5
 1119 00df 29       		.byte	0x29
 1120 00e0 C3000000 		.4byte	0xc3
 1121 00e4 03       		.uleb128 0x3
 1122 00e5 FD020000 		.4byte	.LASF19
 1123 00e9 05       		.byte	0x5
 1124 00ea 2A       		.byte	0x2a
 1125 00eb B8000000 		.4byte	0xb8
 1126 00ef 03       		.uleb128 0x3
ARM GAS  /tmp/ccXMVEoh.s 			page 22


 1127 00f0 F9010000 		.4byte	.LASF20
 1128 00f4 05       		.byte	0x5
 1129 00f5 2B       		.byte	0x2b
 1130 00f6 B8000000 		.4byte	0xb8
 1131 00fa 03       		.uleb128 0x3
 1132 00fb B0040000 		.4byte	.LASF21
 1133 00ff 05       		.byte	0x5
 1134 0100 2C       		.byte	0x2c
 1135 0101 B8000000 		.4byte	0xb8
 1136 0105 03       		.uleb128 0x3
 1137 0106 B6020000 		.4byte	.LASF22
 1138 010a 05       		.byte	0x5
 1139 010b 2D       		.byte	0x2d
 1140 010c B8000000 		.4byte	0xb8
 1141 0110 03       		.uleb128 0x3
 1142 0111 17010000 		.4byte	.LASF23
 1143 0115 05       		.byte	0x5
 1144 0116 2E       		.byte	0x2e
 1145 0117 CE000000 		.4byte	0xce
 1146 011b 03       		.uleb128 0x3
 1147 011c 8F020000 		.4byte	.LASF24
 1148 0120 05       		.byte	0x5
 1149 0121 2F       		.byte	0x2f
 1150 0122 C3000000 		.4byte	0xc3
 1151 0126 03       		.uleb128 0x3
 1152 0127 FD000000 		.4byte	.LASF25
 1153 012b 05       		.byte	0x5
 1154 012c 31       		.byte	0x31
 1155 012d CE000000 		.4byte	0xce
 1156 0131 03       		.uleb128 0x3
 1157 0132 49020000 		.4byte	.LASF26
 1158 0136 05       		.byte	0x5
 1159 0137 32       		.byte	0x32
 1160 0138 CE000000 		.4byte	0xce
 1161 013c 03       		.uleb128 0x3
 1162 013d 3B000000 		.4byte	.LASF27
 1163 0141 05       		.byte	0x5
 1164 0142 33       		.byte	0x33
 1165 0143 CE000000 		.4byte	0xce
 1166 0147 03       		.uleb128 0x3
 1167 0148 F2010000 		.4byte	.LASF28
 1168 014c 06       		.byte	0x6
 1169 014d 23       		.byte	0x23
 1170 014e 52010000 		.4byte	0x152
 1171 0152 08       		.uleb128 0x8
 1172 0153 F2010000 		.4byte	.LASF28
 1173 0157 44       		.byte	0x44
 1174 0158 07       		.byte	0x7
 1175 0159 57       		.byte	0x57
 1176 015a 43020000 		.4byte	0x243
 1177 015e 09       		.uleb128 0x9
 1178 015f 3B040000 		.4byte	.LASF29
 1179 0163 07       		.byte	0x7
 1180 0164 58       		.byte	0x58
 1181 0165 64020000 		.4byte	0x264
 1182 0169 00       		.byte	0
 1183 016a 09       		.uleb128 0x9
ARM GAS  /tmp/ccXMVEoh.s 			page 23


 1184 016b A0040000 		.4byte	.LASF30
 1185 016f 07       		.byte	0x7
 1186 0170 5A       		.byte	0x5a
 1187 0171 64020000 		.4byte	0x264
 1188 0175 04       		.byte	0x4
 1189 0176 09       		.uleb128 0x9
 1190 0177 34000000 		.4byte	.LASF31
 1191 017b 07       		.byte	0x7
 1192 017c 5C       		.byte	0x5c
 1193 017d 10010000 		.4byte	0x110
 1194 0181 08       		.byte	0x8
 1195 0182 09       		.uleb128 0x9
 1196 0183 42040000 		.4byte	.LASF32
 1197 0187 07       		.byte	0x7
 1198 0188 5D       		.byte	0x5d
 1199 0189 1D030000 		.4byte	0x31d
 1200 018d 0C       		.byte	0xc
 1201 018e 09       		.uleb128 0x9
 1202 018f 4A010000 		.4byte	.LASF33
 1203 0193 07       		.byte	0x7
 1204 0194 5F       		.byte	0x5f
 1205 0195 64020000 		.4byte	0x264
 1206 0199 10       		.byte	0x10
 1207 019a 09       		.uleb128 0x9
 1208 019b 29020000 		.4byte	.LASF34
 1209 019f 07       		.byte	0x7
 1210 01a0 60       		.byte	0x60
 1211 01a1 64020000 		.4byte	0x264
 1212 01a5 14       		.byte	0x14
 1213 01a6 09       		.uleb128 0x9
 1214 01a7 AC010000 		.4byte	.LASF35
 1215 01ab 07       		.byte	0x7
 1216 01ac 67       		.byte	0x67
 1217 01ad AD000000 		.4byte	0xad
 1218 01b1 18       		.byte	0x18
 1219 01b2 09       		.uleb128 0x9
 1220 01b3 31020000 		.4byte	.LASF36
 1221 01b7 07       		.byte	0x7
 1222 01b8 72       		.byte	0x72
 1223 01b9 EF000000 		.4byte	0xef
 1224 01bd 1C       		.byte	0x1c
 1225 01be 09       		.uleb128 0x9
 1226 01bf 9D020000 		.4byte	.LASF37
 1227 01c3 07       		.byte	0x7
 1228 01c4 76       		.byte	0x76
 1229 01c5 E4000000 		.4byte	0xe4
 1230 01c9 1D       		.byte	0x1d
 1231 01ca 09       		.uleb128 0x9
 1232 01cb 33050000 		.4byte	.LASF38
 1233 01cf 07       		.byte	0x7
 1234 01d0 7B       		.byte	0x7b
 1235 01d1 FA000000 		.4byte	0xfa
 1236 01d5 1E       		.byte	0x1e
 1237 01d6 09       		.uleb128 0x9
 1238 01d7 87050000 		.4byte	.LASF39
 1239 01db 07       		.byte	0x7
 1240 01dc 81       		.byte	0x81
ARM GAS  /tmp/ccXMVEoh.s 			page 24


 1241 01dd 05010000 		.4byte	0x105
 1242 01e1 1F       		.byte	0x1f
 1243 01e2 09       		.uleb128 0x9
 1244 01e3 24000000 		.4byte	.LASF40
 1245 01e7 07       		.byte	0x7
 1246 01e8 88       		.byte	0x88
 1247 01e9 EB030000 		.4byte	0x3eb
 1248 01ed 20       		.byte	0x20
 1249 01ee 0A       		.uleb128 0xa
 1250 01ef 705F7500 		.ascii	"p_u\000"
 1251 01f3 07       		.byte	0x7
 1252 01f4 AD       		.byte	0xad
 1253 01f5 D2050000 		.4byte	0x5d2
 1254 01f9 24       		.byte	0x24
 1255 01fa 09       		.uleb128 0x9
 1256 01fb 15000000 		.4byte	.LASF41
 1257 01ff 07       		.byte	0x7
 1258 0200 B2       		.byte	0xb2
 1259 0201 8A020000 		.4byte	0x28a
 1260 0205 28       		.byte	0x28
 1261 0206 09       		.uleb128 0x9
 1262 0207 58000000 		.4byte	.LASF42
 1263 020b 07       		.byte	0x7
 1264 020c B8       		.byte	0xb8
 1265 020d 6A020000 		.4byte	0x26a
 1266 0211 2C       		.byte	0x2c
 1267 0212 09       		.uleb128 0x9
 1268 0213 F7020000 		.4byte	.LASF43
 1269 0217 07       		.byte	0x7
 1270 0218 BC       		.byte	0xbc
 1271 0219 1B010000 		.4byte	0x11b
 1272 021d 34       		.byte	0x34
 1273 021e 09       		.uleb128 0x9
 1274 021f 93030000 		.4byte	.LASF44
 1275 0223 07       		.byte	0x7
 1276 0224 C2       		.byte	0xc2
 1277 0225 26010000 		.4byte	0x126
 1278 0229 38       		.byte	0x38
 1279 022a 09       		.uleb128 0x9
 1280 022b 63020000 		.4byte	.LASF45
 1281 022f 07       		.byte	0x7
 1282 0230 C9       		.byte	0xc9
 1283 0231 07060000 		.4byte	0x607
 1284 0235 3C       		.byte	0x3c
 1285 0236 09       		.uleb128 0x9
 1286 0237 5F030000 		.4byte	.LASF46
 1287 023b 07       		.byte	0x7
 1288 023c CD       		.byte	0xcd
 1289 023d 10010000 		.4byte	0x110
 1290 0241 40       		.byte	0x40
 1291 0242 00       		.byte	0
 1292 0243 0B       		.uleb128 0xb
 1293 0244 08       		.byte	0x8
 1294 0245 06       		.byte	0x6
 1295 0246 5A       		.byte	0x5a
 1296 0247 64020000 		.4byte	0x264
 1297 024b 09       		.uleb128 0x9
ARM GAS  /tmp/ccXMVEoh.s 			page 25


 1298 024c 3B040000 		.4byte	.LASF29
 1299 0250 06       		.byte	0x6
 1300 0251 5B       		.byte	0x5b
 1301 0252 64020000 		.4byte	0x264
 1302 0256 00       		.byte	0
 1303 0257 09       		.uleb128 0x9
 1304 0258 A0040000 		.4byte	.LASF30
 1305 025c 06       		.byte	0x6
 1306 025d 5D       		.byte	0x5d
 1307 025e 64020000 		.4byte	0x264
 1308 0262 04       		.byte	0x4
 1309 0263 00       		.byte	0
 1310 0264 06       		.uleb128 0x6
 1311 0265 04       		.byte	0x4
 1312 0266 47010000 		.4byte	0x147
 1313 026a 03       		.uleb128 0x3
 1314 026b D8010000 		.4byte	.LASF47
 1315 026f 06       		.byte	0x6
 1316 0270 5F       		.byte	0x5f
 1317 0271 43020000 		.4byte	0x243
 1318 0275 0B       		.uleb128 0xb
 1319 0276 04       		.byte	0x4
 1320 0277 06       		.byte	0x6
 1321 0278 64       		.byte	0x64
 1322 0279 8A020000 		.4byte	0x28a
 1323 027d 09       		.uleb128 0x9
 1324 027e 3B040000 		.4byte	.LASF29
 1325 0282 06       		.byte	0x6
 1326 0283 66       		.byte	0x66
 1327 0284 64020000 		.4byte	0x264
 1328 0288 00       		.byte	0
 1329 0289 00       		.byte	0
 1330 028a 03       		.uleb128 0x3
 1331 028b 09000000 		.4byte	.LASF48
 1332 028f 06       		.byte	0x6
 1333 0290 69       		.byte	0x69
 1334 0291 75020000 		.4byte	0x275
 1335 0295 03       		.uleb128 0x3
 1336 0296 EF050000 		.4byte	.LASF49
 1337 029a 08       		.byte	0x8
 1338 029b 9D       		.byte	0x9d
 1339 029c CE000000 		.4byte	0xce
 1340 02a0 03       		.uleb128 0x3
 1341 02a1 2B000000 		.4byte	.LASF50
 1342 02a5 08       		.byte	0x8
 1343 02a6 A2       		.byte	0xa2
 1344 02a7 9E000000 		.4byte	0x9e
 1345 02ab 08       		.uleb128 0x8
 1346 02ac 31030000 		.4byte	.LASF51
 1347 02b0 24       		.byte	0x24
 1348 02b1 08       		.byte	0x8
 1349 02b2 B9       		.byte	0xb9
 1350 02b3 1D030000 		.4byte	0x31d
 1351 02b7 0A       		.uleb128 0xa
 1352 02b8 723400   		.ascii	"r4\000"
 1353 02bb 08       		.byte	0x8
 1354 02bc BA       		.byte	0xba
ARM GAS  /tmp/ccXMVEoh.s 			page 26


 1355 02bd A0020000 		.4byte	0x2a0
 1356 02c1 00       		.byte	0
 1357 02c2 0A       		.uleb128 0xa
 1358 02c3 723500   		.ascii	"r5\000"
 1359 02c6 08       		.byte	0x8
 1360 02c7 BB       		.byte	0xbb
 1361 02c8 A0020000 		.4byte	0x2a0
 1362 02cc 04       		.byte	0x4
 1363 02cd 0A       		.uleb128 0xa
 1364 02ce 723600   		.ascii	"r6\000"
 1365 02d1 08       		.byte	0x8
 1366 02d2 BC       		.byte	0xbc
 1367 02d3 A0020000 		.4byte	0x2a0
 1368 02d7 08       		.byte	0x8
 1369 02d8 0A       		.uleb128 0xa
 1370 02d9 723700   		.ascii	"r7\000"
 1371 02dc 08       		.byte	0x8
 1372 02dd BD       		.byte	0xbd
 1373 02de A0020000 		.4byte	0x2a0
 1374 02e2 0C       		.byte	0xc
 1375 02e3 0A       		.uleb128 0xa
 1376 02e4 723800   		.ascii	"r8\000"
 1377 02e7 08       		.byte	0x8
 1378 02e8 BE       		.byte	0xbe
 1379 02e9 A0020000 		.4byte	0x2a0
 1380 02ed 10       		.byte	0x10
 1381 02ee 0A       		.uleb128 0xa
 1382 02ef 723900   		.ascii	"r9\000"
 1383 02f2 08       		.byte	0x8
 1384 02f3 BF       		.byte	0xbf
 1385 02f4 A0020000 		.4byte	0x2a0
 1386 02f8 14       		.byte	0x14
 1387 02f9 0A       		.uleb128 0xa
 1388 02fa 72313000 		.ascii	"r10\000"
 1389 02fe 08       		.byte	0x8
 1390 02ff C0       		.byte	0xc0
 1391 0300 A0020000 		.4byte	0x2a0
 1392 0304 18       		.byte	0x18
 1393 0305 0A       		.uleb128 0xa
 1394 0306 72313100 		.ascii	"r11\000"
 1395 030a 08       		.byte	0x8
 1396 030b C1       		.byte	0xc1
 1397 030c A0020000 		.4byte	0x2a0
 1398 0310 1C       		.byte	0x1c
 1399 0311 0A       		.uleb128 0xa
 1400 0312 6C7200   		.ascii	"lr\000"
 1401 0315 08       		.byte	0x8
 1402 0316 C2       		.byte	0xc2
 1403 0317 A0020000 		.4byte	0x2a0
 1404 031b 20       		.byte	0x20
 1405 031c 00       		.byte	0
 1406 031d 08       		.uleb128 0x8
 1407 031e 95020000 		.4byte	.LASF52
 1408 0322 04       		.byte	0x4
 1409 0323 08       		.byte	0x8
 1410 0324 CA       		.byte	0xca
 1411 0325 36030000 		.4byte	0x336
ARM GAS  /tmp/ccXMVEoh.s 			page 27


 1412 0329 0A       		.uleb128 0xa
 1413 032a 72313300 		.ascii	"r13\000"
 1414 032e 08       		.byte	0x8
 1415 032f CB       		.byte	0xcb
 1416 0330 36030000 		.4byte	0x336
 1417 0334 00       		.byte	0
 1418 0335 00       		.byte	0
 1419 0336 06       		.uleb128 0x6
 1420 0337 04       		.byte	0x4
 1421 0338 AB020000 		.4byte	0x2ab
 1422 033c 03       		.uleb128 0x3
 1423 033d 00000000 		.4byte	.LASF53
 1424 0341 09       		.byte	0x9
 1425 0342 4E       		.byte	0x4e
 1426 0343 47030000 		.4byte	0x347
 1427 0347 06       		.uleb128 0x6
 1428 0348 04       		.byte	0x4
 1429 0349 4D030000 		.4byte	0x34d
 1430 034d 0C       		.uleb128 0xc
 1431 034e 58030000 		.4byte	0x358
 1432 0352 0D       		.uleb128 0xd
 1433 0353 9E000000 		.4byte	0x9e
 1434 0357 00       		.byte	0
 1435 0358 03       		.uleb128 0x3
 1436 0359 4E040000 		.4byte	.LASF54
 1437 035d 09       		.byte	0x9
 1438 035e 53       		.byte	0x53
 1439 035f 63030000 		.4byte	0x363
 1440 0363 08       		.uleb128 0x8
 1441 0364 4E040000 		.4byte	.LASF54
 1442 0368 14       		.byte	0x14
 1443 0369 09       		.byte	0x9
 1444 036a 5A       		.byte	0x5a
 1445 036b AC030000 		.4byte	0x3ac
 1446 036f 09       		.uleb128 0x9
 1447 0370 99050000 		.4byte	.LASF55
 1448 0374 09       		.byte	0x9
 1449 0375 5B       		.byte	0x5b
 1450 0376 AC030000 		.4byte	0x3ac
 1451 037a 00       		.byte	0
 1452 037b 09       		.uleb128 0x9
 1453 037c 0D060000 		.4byte	.LASF56
 1454 0380 09       		.byte	0x9
 1455 0381 5D       		.byte	0x5d
 1456 0382 AC030000 		.4byte	0x3ac
 1457 0386 04       		.byte	0x4
 1458 0387 09       		.uleb128 0x9
 1459 0388 C0000000 		.4byte	.LASF57
 1460 038c 09       		.byte	0x9
 1461 038d 5F       		.byte	0x5f
 1462 038e 3C010000 		.4byte	0x13c
 1463 0392 08       		.byte	0x8
 1464 0393 09       		.uleb128 0x9
 1465 0394 05060000 		.4byte	.LASF58
 1466 0398 09       		.byte	0x9
 1467 0399 60       		.byte	0x60
 1468 039a 3C030000 		.4byte	0x33c
ARM GAS  /tmp/ccXMVEoh.s 			page 28


 1469 039e 0C       		.byte	0xc
 1470 039f 09       		.uleb128 0x9
 1471 03a0 10010000 		.4byte	.LASF59
 1472 03a4 09       		.byte	0x9
 1473 03a5 62       		.byte	0x62
 1474 03a6 9E000000 		.4byte	0x9e
 1475 03aa 10       		.byte	0x10
 1476 03ab 00       		.byte	0
 1477 03ac 06       		.uleb128 0x6
 1478 03ad 04       		.byte	0x4
 1479 03ae 58030000 		.4byte	0x358
 1480 03b2 0B       		.uleb128 0xb
 1481 03b3 10       		.byte	0x10
 1482 03b4 09       		.byte	0x9
 1483 03b5 6C       		.byte	0x6c
 1484 03b6 EB030000 		.4byte	0x3eb
 1485 03ba 09       		.uleb128 0x9
 1486 03bb 99050000 		.4byte	.LASF55
 1487 03bf 09       		.byte	0x9
 1488 03c0 6D       		.byte	0x6d
 1489 03c1 AC030000 		.4byte	0x3ac
 1490 03c5 00       		.byte	0
 1491 03c6 09       		.uleb128 0x9
 1492 03c7 0D060000 		.4byte	.LASF56
 1493 03cb 09       		.byte	0x9
 1494 03cc 6F       		.byte	0x6f
 1495 03cd AC030000 		.4byte	0x3ac
 1496 03d1 04       		.byte	0x4
 1497 03d2 09       		.uleb128 0x9
 1498 03d3 C0000000 		.4byte	.LASF57
 1499 03d7 09       		.byte	0x9
 1500 03d8 71       		.byte	0x71
 1501 03d9 3C010000 		.4byte	0x13c
 1502 03dd 08       		.byte	0x8
 1503 03de 09       		.uleb128 0x9
 1504 03df 4D000000 		.4byte	.LASF60
 1505 03e3 09       		.byte	0x9
 1506 03e4 72       		.byte	0x72
 1507 03e5 EB030000 		.4byte	0x3eb
 1508 03e9 0C       		.byte	0xc
 1509 03ea 00       		.byte	0
 1510 03eb 0E       		.uleb128 0xe
 1511 03ec 3C010000 		.4byte	0x13c
 1512 03f0 03       		.uleb128 0x3
 1513 03f1 02020000 		.4byte	.LASF61
 1514 03f5 09       		.byte	0x9
 1515 03f6 73       		.byte	0x73
 1516 03f7 B2030000 		.4byte	0x3b2
 1517 03fb 0B       		.uleb128 0xb
 1518 03fc 1C       		.byte	0x1c
 1519 03fd 0A       		.byte	0xa
 1520 03fe 57       		.byte	0x57
 1521 03ff 4C040000 		.4byte	0x44c
 1522 0403 09       		.uleb128 0x9
 1523 0404 87020000 		.4byte	.LASF62
 1524 0408 0A       		.byte	0xa
 1525 0409 58       		.byte	0x58
ARM GAS  /tmp/ccXMVEoh.s 			page 29


 1526 040a 6A020000 		.4byte	0x26a
 1527 040e 00       		.byte	0
 1528 040f 09       		.uleb128 0x9
 1529 0410 09010000 		.4byte	.LASF63
 1530 0414 0A       		.byte	0xa
 1531 0415 59       		.byte	0x59
 1532 0416 10010000 		.4byte	0x110
 1533 041a 08       		.byte	0x8
 1534 041b 09       		.uleb128 0x9
 1535 041c E9050000 		.4byte	.LASF64
 1536 0420 0A       		.byte	0xa
 1537 0421 5B       		.byte	0x5b
 1538 0422 1D030000 		.4byte	0x31d
 1539 0426 0C       		.byte	0xc
 1540 0427 09       		.uleb128 0x9
 1541 0428 EA010000 		.4byte	.LASF65
 1542 042c 0A       		.byte	0xa
 1543 042d 5E       		.byte	0x5e
 1544 042e 64020000 		.4byte	0x264
 1545 0432 10       		.byte	0x10
 1546 0433 09       		.uleb128 0x9
 1547 0434 C0020000 		.4byte	.LASF66
 1548 0438 0A       		.byte	0xa
 1549 0439 5F       		.byte	0x5f
 1550 043a 64020000 		.4byte	0x264
 1551 043e 14       		.byte	0x14
 1552 043f 09       		.uleb128 0x9
 1553 0440 80030000 		.4byte	.LASF67
 1554 0444 0A       		.byte	0xa
 1555 0445 62       		.byte	0x62
 1556 0446 64020000 		.4byte	0x264
 1557 044a 18       		.byte	0x18
 1558 044b 00       		.byte	0
 1559 044c 03       		.uleb128 0x3
 1560 044d 3A050000 		.4byte	.LASF68
 1561 0451 0A       		.byte	0xa
 1562 0452 64       		.byte	0x64
 1563 0453 FB030000 		.4byte	0x3fb
 1564 0457 08       		.uleb128 0x8
 1565 0458 9D010000 		.4byte	.LASF69
 1566 045c 10       		.byte	0x10
 1567 045d 0B       		.byte	0xb
 1568 045e 25       		.byte	0x25
 1569 045f 88040000 		.4byte	0x488
 1570 0463 09       		.uleb128 0x9
 1571 0464 9E030000 		.4byte	.LASF70
 1572 0468 0B       		.byte	0xb
 1573 0469 26       		.byte	0x26
 1574 046a 6A020000 		.4byte	0x26a
 1575 046e 00       		.byte	0
 1576 046f 09       		.uleb128 0x9
 1577 0470 45000000 		.4byte	.LASF71
 1578 0474 0B       		.byte	0xb
 1579 0475 28       		.byte	0x28
 1580 0476 64020000 		.4byte	0x264
 1581 047a 08       		.byte	0x8
 1582 047b 09       		.uleb128 0x9
ARM GAS  /tmp/ccXMVEoh.s 			page 30


 1583 047c C3050000 		.4byte	.LASF72
 1584 0480 0B       		.byte	0xb
 1585 0481 2A       		.byte	0x2a
 1586 0482 88040000 		.4byte	0x488
 1587 0486 0C       		.byte	0xc
 1588 0487 00       		.byte	0
 1589 0488 06       		.uleb128 0x6
 1590 0489 04       		.byte	0x4
 1591 048a 57040000 		.4byte	0x457
 1592 048e 03       		.uleb128 0x3
 1593 048f 9D010000 		.4byte	.LASF69
 1594 0493 0B       		.byte	0xb
 1595 0494 2C       		.byte	0x2c
 1596 0495 57040000 		.4byte	0x457
 1597 0499 03       		.uleb128 0x3
 1598 049a B8040000 		.4byte	.LASF73
 1599 049e 0C       		.byte	0xc
 1600 049f 25       		.byte	0x25
 1601 04a0 A4040000 		.4byte	0x4a4
 1602 04a4 08       		.uleb128 0x8
 1603 04a5 B8040000 		.4byte	.LASF73
 1604 04a9 10       		.byte	0x10
 1605 04aa 0C       		.byte	0xc
 1606 04ab 2A       		.byte	0x2a
 1607 04ac E1040000 		.4byte	0x4e1
 1608 04b0 09       		.uleb128 0x9
 1609 04b1 EF020000 		.4byte	.LASF74
 1610 04b5 0C       		.byte	0xc
 1611 04b6 2B       		.byte	0x2b
 1612 04b7 E1040000 		.4byte	0x4e1
 1613 04bb 00       		.byte	0
 1614 04bc 09       		.uleb128 0x9
 1615 04bd 7D040000 		.4byte	.LASF75
 1616 04c1 0C       		.byte	0xc
 1617 04c2 2E       		.byte	0x2e
 1618 04c3 64020000 		.4byte	0x264
 1619 04c7 04       		.byte	0x4
 1620 04c8 09       		.uleb128 0x9
 1621 04c9 9E000000 		.4byte	.LASF76
 1622 04cd 0C       		.byte	0xc
 1623 04ce 30       		.byte	0x30
 1624 04cf 26010000 		.4byte	0x126
 1625 04d3 08       		.byte	0x8
 1626 04d4 09       		.uleb128 0x9
 1627 04d5 1B060000 		.4byte	.LASF77
 1628 04d9 0C       		.byte	0xc
 1629 04da 33       		.byte	0x33
 1630 04db 31010000 		.4byte	0x131
 1631 04df 0C       		.byte	0xc
 1632 04e0 00       		.byte	0
 1633 04e1 06       		.uleb128 0x6
 1634 04e2 04       		.byte	0x4
 1635 04e3 99040000 		.4byte	0x499
 1636 04e7 08       		.uleb128 0x8
 1637 04e8 52010000 		.4byte	.LASF78
 1638 04ec 04       		.byte	0x4
 1639 04ed 0C       		.byte	0xc
ARM GAS  /tmp/ccXMVEoh.s 			page 31


 1640 04ee 3A       		.byte	0x3a
 1641 04ef 00050000 		.4byte	0x500
 1642 04f3 09       		.uleb128 0x9
 1643 04f4 91050000 		.4byte	.LASF79
 1644 04f8 0C       		.byte	0xc
 1645 04f9 3B       		.byte	0x3b
 1646 04fa E1040000 		.4byte	0x4e1
 1647 04fe 00       		.byte	0
 1648 04ff 00       		.byte	0
 1649 0500 03       		.uleb128 0x3
 1650 0501 52010000 		.4byte	.LASF78
 1651 0505 0C       		.byte	0xc
 1652 0506 3E       		.byte	0x3e
 1653 0507 E7040000 		.4byte	0x4e7
 1654 050b 03       		.uleb128 0x3
 1655 050c 6B040000 		.4byte	.LASF80
 1656 0510 0D       		.byte	0xd
 1657 0511 25       		.byte	0x25
 1658 0512 16050000 		.4byte	0x516
 1659 0516 06       		.uleb128 0x6
 1660 0517 04       		.byte	0x4
 1661 0518 1C050000 		.4byte	0x51c
 1662 051c 0F       		.uleb128 0xf
 1663 051d 9E000000 		.4byte	0x9e
 1664 0521 2B050000 		.4byte	0x52b
 1665 0525 0D       		.uleb128 0xd
 1666 0526 2C000000 		.4byte	0x2c
 1667 052a 00       		.byte	0
 1668 052b 03       		.uleb128 0x3
 1669 052c FA050000 		.4byte	.LASF81
 1670 0530 0E       		.byte	0xe
 1671 0531 2D       		.byte	0x2d
 1672 0532 36050000 		.4byte	0x536
 1673 0536 08       		.uleb128 0x8
 1674 0537 74030000 		.4byte	.LASF82
 1675 053b 1C       		.byte	0x1c
 1676 053c 0E       		.byte	0xe
 1677 053d 40       		.byte	0x40
 1678 053e 67050000 		.4byte	0x567
 1679 0542 09       		.uleb128 0x9
 1680 0543 CD010000 		.4byte	.LASF83
 1681 0547 0E       		.byte	0xe
 1682 0548 41       		.byte	0x41
 1683 0549 0B050000 		.4byte	0x50b
 1684 054d 00       		.byte	0
 1685 054e 09       		.uleb128 0x9
 1686 054f 97000000 		.4byte	.LASF84
 1687 0553 0E       		.byte	0xe
 1688 0554 43       		.byte	0x43
 1689 0555 86050000 		.4byte	0x586
 1690 0559 04       		.byte	0x4
 1691 055a 09       		.uleb128 0x9
 1692 055b 6D020000 		.4byte	.LASF85
 1693 055f 0E       		.byte	0xe
 1694 0560 45       		.byte	0x45
 1695 0561 8E040000 		.4byte	0x48e
 1696 0565 0C       		.byte	0xc
ARM GAS  /tmp/ccXMVEoh.s 			page 32


 1697 0566 00       		.byte	0
 1698 0567 10       		.uleb128 0x10
 1699 0568 04       		.byte	0x4
 1700 0569 0E       		.byte	0xe
 1701 056a 35       		.byte	0x35
 1702 056b 86050000 		.4byte	0x586
 1703 056f 11       		.uleb128 0x11
 1704 0570 70000000 		.4byte	.LASF86
 1705 0574 0E       		.byte	0xe
 1706 0575 36       		.byte	0x36
 1707 0576 A7050000 		.4byte	0x5a7
 1708 057a 11       		.uleb128 0x11
 1709 057b A6000000 		.4byte	.LASF87
 1710 057f 0E       		.byte	0xe
 1711 0580 37       		.byte	0x37
 1712 0581 AD050000 		.4byte	0x5ad
 1713 0585 00       		.byte	0
 1714 0586 12       		.uleb128 0x12
 1715 0587 5E010000 		.4byte	.LASF137
 1716 058b 08       		.byte	0x8
 1717 058c 0E       		.byte	0xe
 1718 058d 32       		.byte	0x32
 1719 058e A7050000 		.4byte	0x5a7
 1720 0592 11       		.uleb128 0x11
 1721 0593 15060000 		.4byte	.LASF88
 1722 0597 0E       		.byte	0xe
 1723 0598 33       		.byte	0x33
 1724 0599 95020000 		.4byte	0x295
 1725 059d 13       		.uleb128 0x13
 1726 059e 6800     		.ascii	"h\000"
 1727 05a0 0E       		.byte	0xe
 1728 05a1 3A       		.byte	0x3a
 1729 05a2 B3050000 		.4byte	0x5b3
 1730 05a6 00       		.byte	0
 1731 05a7 06       		.uleb128 0x6
 1732 05a8 04       		.byte	0x4
 1733 05a9 86050000 		.4byte	0x586
 1734 05ad 06       		.uleb128 0x6
 1735 05ae 04       		.byte	0x4
 1736 05af 2B050000 		.4byte	0x52b
 1737 05b3 0B       		.uleb128 0xb
 1738 05b4 08       		.byte	0x8
 1739 05b5 0E       		.byte	0xe
 1740 05b6 34       		.byte	0x34
 1741 05b7 D2050000 		.4byte	0x5d2
 1742 05bb 0A       		.uleb128 0xa
 1743 05bc 7500     		.ascii	"u\000"
 1744 05be 0E       		.byte	0xe
 1745 05bf 38       		.byte	0x38
 1746 05c0 67050000 		.4byte	0x567
 1747 05c4 00       		.byte	0
 1748 05c5 09       		.uleb128 0x9
 1749 05c6 B1020000 		.4byte	.LASF89
 1750 05ca 0E       		.byte	0xe
 1751 05cb 39       		.byte	0x39
 1752 05cc 2C000000 		.4byte	0x2c
 1753 05d0 04       		.byte	0x4
ARM GAS  /tmp/ccXMVEoh.s 			page 33


 1754 05d1 00       		.byte	0
 1755 05d2 10       		.uleb128 0x10
 1756 05d3 04       		.byte	0x4
 1757 05d4 07       		.byte	0x7
 1758 05d5 8F       		.byte	0x8f
 1759 05d6 07060000 		.4byte	0x607
 1760 05da 11       		.uleb128 0x11
 1761 05db 71010000 		.4byte	.LASF90
 1762 05df 07       		.byte	0x7
 1763 05e0 96       		.byte	0x96
 1764 05e1 1B010000 		.4byte	0x11b
 1765 05e5 11       		.uleb128 0x11
 1766 05e6 24060000 		.4byte	.LASF91
 1767 05ea 07       		.byte	0x7
 1768 05eb 9D       		.byte	0x9d
 1769 05ec 1B010000 		.4byte	0x11b
 1770 05f0 11       		.uleb128 0x11
 1771 05f1 AB000000 		.4byte	.LASF92
 1772 05f5 07       		.byte	0x7
 1773 05f6 A4       		.byte	0xa4
 1774 05f7 9E000000 		.4byte	0x9e
 1775 05fb 11       		.uleb128 0x11
 1776 05fc B9000000 		.4byte	.LASF93
 1777 0600 07       		.byte	0x7
 1778 0601 AB       		.byte	0xab
 1779 0602 26010000 		.4byte	0x126
 1780 0606 00       		.byte	0
 1781 0607 06       		.uleb128 0x6
 1782 0608 04       		.byte	0x4
 1783 0609 8E040000 		.4byte	0x48e
 1784 060d 03       		.uleb128 0x3
 1785 060e 1F010000 		.4byte	.LASF94
 1786 0612 07       		.byte	0x7
 1787 0613 DE       		.byte	0xde
 1788 0614 18060000 		.4byte	0x618
 1789 0618 06       		.uleb128 0x6
 1790 0619 04       		.byte	0x4
 1791 061a 1E060000 		.4byte	0x61e
 1792 061e 0F       		.uleb128 0xf
 1793 061f 1B010000 		.4byte	0x11b
 1794 0623 2D060000 		.4byte	0x62d
 1795 0627 0D       		.uleb128 0xd
 1796 0628 9E000000 		.4byte	0x9e
 1797 062c 00       		.byte	0
 1798 062d 06       		.uleb128 0x6
 1799 062e 04       		.byte	0x4
 1800 062f B8000000 		.4byte	0xb8
 1801 0633 08       		.uleb128 0x8
 1802 0634 75000000 		.4byte	.LASF95
 1803 0638 10       		.byte	0x10
 1804 0639 0F       		.byte	0xf
 1805 063a 41       		.byte	0x41
 1806 063b 70060000 		.4byte	0x670
 1807 063f 09       		.uleb128 0x9
 1808 0640 81020000 		.4byte	.LASF96
 1809 0644 0F       		.byte	0xf
 1810 0645 42       		.byte	0x42
ARM GAS  /tmp/ccXMVEoh.s 			page 34


 1811 0646 94060000 		.4byte	0x694
 1812 064a 00       		.byte	0
 1813 064b 09       		.uleb128 0x9
 1814 064c 78040000 		.4byte	.LASF97
 1815 0650 0F       		.byte	0xf
 1816 0651 42       		.byte	0x42
 1817 0652 B3060000 		.4byte	0x6b3
 1818 0656 04       		.byte	0x4
 1819 0657 0A       		.uleb128 0xa
 1820 0658 70757400 		.ascii	"put\000"
 1821 065c 0F       		.byte	0xf
 1822 065d 42       		.byte	0x42
 1823 065e CD060000 		.4byte	0x6cd
 1824 0662 08       		.byte	0x8
 1825 0663 0A       		.uleb128 0xa
 1826 0664 67657400 		.ascii	"get\000"
 1827 0668 0F       		.byte	0xf
 1828 0669 42       		.byte	0x42
 1829 066a 18060000 		.4byte	0x618
 1830 066e 0C       		.byte	0xc
 1831 066f 00       		.byte	0
 1832 0670 0F       		.uleb128 0xf
 1833 0671 2C000000 		.4byte	0x2c
 1834 0675 89060000 		.4byte	0x689
 1835 0679 0D       		.uleb128 0xd
 1836 067a 9E000000 		.4byte	0x9e
 1837 067e 0D       		.uleb128 0xd
 1838 067f 89060000 		.4byte	0x689
 1839 0683 0D       		.uleb128 0xd
 1840 0684 2C000000 		.4byte	0x2c
 1841 0688 00       		.byte	0
 1842 0689 06       		.uleb128 0x6
 1843 068a 04       		.byte	0x4
 1844 068b 8F060000 		.4byte	0x68f
 1845 068f 07       		.uleb128 0x7
 1846 0690 B8000000 		.4byte	0xb8
 1847 0694 06       		.uleb128 0x6
 1848 0695 04       		.byte	0x4
 1849 0696 70060000 		.4byte	0x670
 1850 069a 0F       		.uleb128 0xf
 1851 069b 2C000000 		.4byte	0x2c
 1852 069f B3060000 		.4byte	0x6b3
 1853 06a3 0D       		.uleb128 0xd
 1854 06a4 9E000000 		.4byte	0x9e
 1855 06a8 0D       		.uleb128 0xd
 1856 06a9 2D060000 		.4byte	0x62d
 1857 06ad 0D       		.uleb128 0xd
 1858 06ae 2C000000 		.4byte	0x2c
 1859 06b2 00       		.byte	0
 1860 06b3 06       		.uleb128 0x6
 1861 06b4 04       		.byte	0x4
 1862 06b5 9A060000 		.4byte	0x69a
 1863 06b9 0F       		.uleb128 0xf
 1864 06ba 1B010000 		.4byte	0x11b
 1865 06be CD060000 		.4byte	0x6cd
 1866 06c2 0D       		.uleb128 0xd
 1867 06c3 9E000000 		.4byte	0x9e
ARM GAS  /tmp/ccXMVEoh.s 			page 35


 1868 06c7 0D       		.uleb128 0xd
 1869 06c8 B8000000 		.4byte	0xb8
 1870 06cc 00       		.byte	0
 1871 06cd 06       		.uleb128 0x6
 1872 06ce 04       		.byte	0x4
 1873 06cf B9060000 		.4byte	0x6b9
 1874 06d3 0B       		.uleb128 0xb
 1875 06d4 04       		.byte	0x4
 1876 06d5 0F       		.byte	0xf
 1877 06d6 4A       		.byte	0x4a
 1878 06d7 E8060000 		.4byte	0x6e8
 1879 06db 0A       		.uleb128 0xa
 1880 06dc 766D7400 		.ascii	"vmt\000"
 1881 06e0 0F       		.byte	0xf
 1882 06e1 4C       		.byte	0x4c
 1883 06e2 E8060000 		.4byte	0x6e8
 1884 06e6 00       		.byte	0
 1885 06e7 00       		.byte	0
 1886 06e8 06       		.uleb128 0x6
 1887 06e9 04       		.byte	0x4
 1888 06ea EE060000 		.4byte	0x6ee
 1889 06ee 07       		.uleb128 0x7
 1890 06ef 33060000 		.4byte	0x633
 1891 06f3 03       		.uleb128 0x3
 1892 06f4 B3010000 		.4byte	.LASF98
 1893 06f8 0F       		.byte	0xf
 1894 06f9 4E       		.byte	0x4e
 1895 06fa D3060000 		.4byte	0x6d3
 1896 06fe 03       		.uleb128 0x3
 1897 06ff 09020000 		.4byte	.LASF99
 1898 0703 10       		.byte	0x10
 1899 0704 31       		.byte	0x31
 1900 0705 09070000 		.4byte	0x709
 1901 0709 06       		.uleb128 0x6
 1902 070a 04       		.byte	0x4
 1903 070b 0F070000 		.4byte	0x70f
 1904 070f 0C       		.uleb128 0xc
 1905 0710 24070000 		.4byte	0x724
 1906 0714 0D       		.uleb128 0xd
 1907 0715 24070000 		.4byte	0x724
 1908 0719 0D       		.uleb128 0xd
 1909 071a 25000000 		.4byte	0x25
 1910 071e 0D       		.uleb128 0xd
 1911 071f 2A070000 		.4byte	0x72a
 1912 0723 00       		.byte	0
 1913 0724 06       		.uleb128 0x6
 1914 0725 04       		.byte	0x4
 1915 0726 F3060000 		.4byte	0x6f3
 1916 072a 06       		.uleb128 0x6
 1917 072b 04       		.byte	0x4
 1918 072c A0000000 		.4byte	0xa0
 1919 0730 0B       		.uleb128 0xb
 1920 0731 08       		.byte	0x8
 1921 0732 10       		.byte	0x10
 1922 0733 36       		.byte	0x36
 1923 0734 51070000 		.4byte	0x751
 1924 0738 09       		.uleb128 0x9
ARM GAS  /tmp/ccXMVEoh.s 			page 36


 1925 0739 38030000 		.4byte	.LASF100
 1926 073d 10       		.byte	0x10
 1927 073e 37       		.byte	0x37
 1928 073f AD000000 		.4byte	0xad
 1929 0743 00       		.byte	0
 1930 0744 09       		.uleb128 0x9
 1931 0745 2D060000 		.4byte	.LASF101
 1932 0749 10       		.byte	0x10
 1933 074a 38       		.byte	0x38
 1934 074b FE060000 		.4byte	0x6fe
 1935 074f 04       		.byte	0x4
 1936 0750 00       		.byte	0
 1937 0751 03       		.uleb128 0x3
 1938 0752 4B030000 		.4byte	.LASF102
 1939 0756 10       		.byte	0x10
 1940 0757 39       		.byte	0x39
 1941 0758 30070000 		.4byte	0x730
 1942 075c 0B       		.uleb128 0xb
 1943 075d 08       		.byte	0x8
 1944 075e 10       		.byte	0x10
 1945 075f 3E       		.byte	0x3e
 1946 0760 7D070000 		.4byte	0x77d
 1947 0764 09       		.uleb128 0x9
 1948 0765 40030000 		.4byte	.LASF103
 1949 0769 10       		.byte	0x10
 1950 076a 3F       		.byte	0x3f
 1951 076b 24070000 		.4byte	0x724
 1952 076f 00       		.byte	0
 1953 0770 09       		.uleb128 0x9
 1954 0771 89040000 		.4byte	.LASF104
 1955 0775 10       		.byte	0x10
 1956 0776 41       		.byte	0x41
 1957 0777 7D070000 		.4byte	0x77d
 1958 077b 04       		.byte	0x4
 1959 077c 00       		.byte	0
 1960 077d 06       		.uleb128 0x6
 1961 077e 04       		.byte	0x4
 1962 077f 83070000 		.4byte	0x783
 1963 0783 07       		.uleb128 0x7
 1964 0784 51070000 		.4byte	0x751
 1965 0788 03       		.uleb128 0x3
 1966 0789 3E010000 		.4byte	.LASF105
 1967 078d 10       		.byte	0x10
 1968 078e 43       		.byte	0x43
 1969 078f 5C070000 		.4byte	0x75c
 1970 0793 14       		.uleb128 0x14
 1971 0794 5B040000 		.4byte	.LASF106
 1972 0798 01       		.byte	0x1
 1973 0799 3A       		.byte	0x3a
 1974 079a 01       		.byte	0x1
 1975 079b B4070000 		.4byte	0x7b4
 1976 079f 15       		.uleb128 0x15
 1977 07a0 63687000 		.ascii	"chp\000"
 1978 07a4 01       		.byte	0x1
 1979 07a5 3A       		.byte	0x3a
 1980 07a6 24070000 		.4byte	0x724
 1981 07aa 15       		.uleb128 0x15
ARM GAS  /tmp/ccXMVEoh.s 			page 37


 1982 07ab 7000     		.ascii	"p\000"
 1983 07ad 01       		.byte	0x1
 1984 07ae 3A       		.byte	0x3a
 1985 07af A0000000 		.4byte	0xa0
 1986 07b3 00       		.byte	0
 1987 07b4 14       		.uleb128 0x14
 1988 07b5 09050000 		.4byte	.LASF107
 1989 07b9 01       		.byte	0x1
 1990 07ba 67       		.byte	0x67
 1991 07bb 01       		.byte	0x1
 1992 07bc E2070000 		.4byte	0x7e2
 1993 07c0 15       		.uleb128 0x15
 1994 07c1 63687000 		.ascii	"chp\000"
 1995 07c5 01       		.byte	0x1
 1996 07c6 67       		.byte	0x67
 1997 07c7 24070000 		.4byte	0x724
 1998 07cb 16       		.uleb128 0x16
 1999 07cc 98010000 		.4byte	.LASF108
 2000 07d0 01       		.byte	0x1
 2001 07d1 67       		.byte	0x67
 2002 07d2 25000000 		.4byte	0x25
 2003 07d6 16       		.uleb128 0x16
 2004 07d7 14030000 		.4byte	.LASF109
 2005 07db 01       		.byte	0x1
 2006 07dc 67       		.byte	0x67
 2007 07dd 2A070000 		.4byte	0x72a
 2008 07e1 00       		.byte	0
 2009 07e2 14       		.uleb128 0x14
 2010 07e3 8A030000 		.4byte	.LASF110
 2011 07e7 01       		.byte	0x1
 2012 07e8 47       		.byte	0x47
 2013 07e9 01       		.byte	0x1
 2014 07ea 10080000 		.4byte	0x810
 2015 07ee 15       		.uleb128 0x15
 2016 07ef 63687000 		.ascii	"chp\000"
 2017 07f3 01       		.byte	0x1
 2018 07f4 47       		.byte	0x47
 2019 07f5 24070000 		.4byte	0x724
 2020 07f9 16       		.uleb128 0x16
 2021 07fa 98010000 		.4byte	.LASF108
 2022 07fe 01       		.byte	0x1
 2023 07ff 47       		.byte	0x47
 2024 0800 25000000 		.4byte	0x25
 2025 0804 16       		.uleb128 0x16
 2026 0805 14030000 		.4byte	.LASF109
 2027 0809 01       		.byte	0x1
 2028 080a 47       		.byte	0x47
 2029 080b 2A070000 		.4byte	0x72a
 2030 080f 00       		.byte	0
 2031 0810 14       		.uleb128 0x14
 2032 0811 55020000 		.4byte	.LASF111
 2033 0815 01       		.byte	0x1
 2034 0816 3F       		.byte	0x3f
 2035 0817 01       		.byte	0x1
 2036 0818 33080000 		.4byte	0x833
 2037 081c 15       		.uleb128 0x15
 2038 081d 63687000 		.ascii	"chp\000"
ARM GAS  /tmp/ccXMVEoh.s 			page 38


 2039 0821 01       		.byte	0x1
 2040 0822 3F       		.byte	0x3f
 2041 0823 24070000 		.4byte	0x724
 2042 0827 15       		.uleb128 0x15
 2043 0828 73637000 		.ascii	"scp\000"
 2044 082c 01       		.byte	0x1
 2045 082d 3F       		.byte	0x3f
 2046 082e 7D070000 		.4byte	0x77d
 2047 0832 00       		.byte	0
 2048 0833 17       		.uleb128 0x17
 2049 0834 E0040000 		.4byte	.LASF119
 2050 0838 01       		.byte	0x1
 2051 0839 29       		.byte	0x29
 2052 083a A0000000 		.4byte	0xa0
 2053 083e 01       		.byte	0x1
 2054 083f 70080000 		.4byte	0x870
 2055 0843 15       		.uleb128 0x15
 2056 0844 73747200 		.ascii	"str\000"
 2057 0848 01       		.byte	0x1
 2058 0849 29       		.byte	0x29
 2059 084a A0000000 		.4byte	0xa0
 2060 084e 16       		.uleb128 0x16
 2061 084f EB000000 		.4byte	.LASF112
 2062 0853 01       		.byte	0x1
 2063 0854 29       		.byte	0x29
 2064 0855 AD000000 		.4byte	0xad
 2065 0859 16       		.uleb128 0x16
 2066 085a C8020000 		.4byte	.LASF113
 2067 085e 01       		.byte	0x1
 2068 085f 29       		.byte	0x29
 2069 0860 2A070000 		.4byte	0x72a
 2070 0864 18       		.uleb128 0x18
 2071 0865 2B030000 		.4byte	.LASF138
 2072 0869 01       		.byte	0x1
 2073 086a 2A       		.byte	0x2a
 2074 086b A0000000 		.4byte	0xa0
 2075 086f 00       		.byte	0
 2076 0870 19       		.uleb128 0x19
 2077 0871 B4070000 		.4byte	0x7b4
 2078 0875 00000000 		.4byte	.LFB11
 2079 0879 34000000 		.4byte	.LFE11-.LFB11
 2080 087d 01       		.uleb128 0x1
 2081 087e 9C       		.byte	0x9c
 2082 087f 18090000 		.4byte	0x918
 2083 0883 1A       		.uleb128 0x1a
 2084 0884 C0070000 		.4byte	0x7c0
 2085 0888 00000000 		.4byte	.LLST0
 2086 088c 1A       		.uleb128 0x1a
 2087 088d CB070000 		.4byte	0x7cb
 2088 0891 3A000000 		.4byte	.LLST1
 2089 0895 1A       		.uleb128 0x1a
 2090 0896 D6070000 		.4byte	0x7d6
 2091 089a 74000000 		.4byte	.LLST2
 2092 089e 1B       		.uleb128 0x1b
 2093 089f 93070000 		.4byte	0x793
 2094 08a3 08000000 		.4byte	.LBB24
 2095 08a7 0C000000 		.4byte	.LBE24-.LBB24
ARM GAS  /tmp/ccXMVEoh.s 			page 39


 2096 08ab 01       		.byte	0x1
 2097 08ac 6B       		.byte	0x6b
 2098 08ad E3080000 		.4byte	0x8e3
 2099 08b1 1A       		.uleb128 0x1a
 2100 08b2 AA070000 		.4byte	0x7aa
 2101 08b6 AE000000 		.4byte	.LLST3
 2102 08ba 1C       		.uleb128 0x1c
 2103 08bb 9F070000 		.4byte	0x79f
 2104 08bf 1D       		.uleb128 0x1d
 2105 08c0 14000000 		.4byte	.LVL4
 2106 08c4 F2110000 		.4byte	0x11f2
 2107 08c8 1E       		.uleb128 0x1e
 2108 08c9 01       		.uleb128 0x1
 2109 08ca 52       		.byte	0x52
 2110 08cb 05       		.uleb128 0x5
 2111 08cc 03       		.byte	0x3
 2112 08cd 0C000000 		.4byte	.LC1
 2113 08d1 1E       		.uleb128 0x1e
 2114 08d2 01       		.uleb128 0x1
 2115 08d3 51       		.byte	0x51
 2116 08d4 05       		.uleb128 0x5
 2117 08d5 03       		.byte	0x3
 2118 08d6 00000000 		.4byte	.LC0
 2119 08da 1E       		.uleb128 0x1e
 2120 08db 01       		.uleb128 0x1
 2121 08dc 50       		.byte	0x50
 2122 08dd 03       		.uleb128 0x3
 2123 08de F3       		.byte	0xf3
 2124 08df 01       		.uleb128 0x1
 2125 08e0 50       		.byte	0x50
 2126 08e1 00       		.byte	0
 2127 08e2 00       		.byte	0
 2128 08e3 1F       		.uleb128 0x1f
 2129 08e4 14000000 		.4byte	.LBB26
 2130 08e8 20000000 		.4byte	.LBE26-.LBB26
 2131 08ec 1A       		.uleb128 0x1a
 2132 08ed CB070000 		.4byte	0x7cb
 2133 08f1 C6000000 		.4byte	.LLST4
 2134 08f5 1A       		.uleb128 0x1a
 2135 08f6 D6070000 		.4byte	0x7d6
 2136 08fa E7000000 		.4byte	.LLST5
 2137 08fe 1C       		.uleb128 0x1c
 2138 08ff C0070000 		.4byte	0x7c0
 2139 0903 1D       		.uleb128 0x1d
 2140 0904 24000000 		.4byte	.LVL7
 2141 0908 F2110000 		.4byte	0x11f2
 2142 090c 1E       		.uleb128 0x1e
 2143 090d 01       		.uleb128 0x1
 2144 090e 51       		.byte	0x51
 2145 090f 05       		.uleb128 0x5
 2146 0910 03       		.byte	0x3
 2147 0911 14000000 		.4byte	.LC2
 2148 0915 00       		.byte	0
 2149 0916 00       		.byte	0
 2150 0917 00       		.byte	0
 2151 0918 19       		.uleb128 0x19
 2152 0919 E2070000 		.4byte	0x7e2
ARM GAS  /tmp/ccXMVEoh.s 			page 40


 2153 091d 00000000 		.4byte	.LFB10
 2154 0921 E8000000 		.4byte	.LFE10-.LFB10
 2155 0925 01       		.uleb128 0x1
 2156 0926 9C       		.byte	0x9c
 2157 0927 CA0A0000 		.4byte	0xaca
 2158 092b 1A       		.uleb128 0x1a
 2159 092c EE070000 		.4byte	0x7ee
 2160 0930 08010000 		.4byte	.LLST6
 2161 0934 1A       		.uleb128 0x1a
 2162 0935 F9070000 		.4byte	0x7f9
 2163 0939 4D010000 		.4byte	.LLST7
 2164 093d 1A       		.uleb128 0x1a
 2165 093e 04080000 		.4byte	0x804
 2166 0942 87010000 		.4byte	.LLST8
 2167 0946 1B       		.uleb128 0x1b
 2168 0947 93070000 		.4byte	0x793
 2169 094b 08000000 		.4byte	.LBB34
 2170 094f 0C000000 		.4byte	.LBE34-.LBB34
 2171 0953 01       		.byte	0x1
 2172 0954 4B       		.byte	0x4b
 2173 0955 8B090000 		.4byte	0x98b
 2174 0959 1A       		.uleb128 0x1a
 2175 095a AA070000 		.4byte	0x7aa
 2176 095e C1010000 		.4byte	.LLST9
 2177 0962 1C       		.uleb128 0x1c
 2178 0963 9F070000 		.4byte	0x79f
 2179 0967 1D       		.uleb128 0x1d
 2180 0968 14000000 		.4byte	.LVL12
 2181 096c F2110000 		.4byte	0x11f2
 2182 0970 1E       		.uleb128 0x1e
 2183 0971 01       		.uleb128 0x1
 2184 0972 52       		.byte	0x52
 2185 0973 05       		.uleb128 0x5
 2186 0974 03       		.byte	0x3
 2187 0975 1C000000 		.4byte	.LC3
 2188 0979 1E       		.uleb128 0x1e
 2189 097a 01       		.uleb128 0x1
 2190 097b 51       		.byte	0x51
 2191 097c 05       		.uleb128 0x5
 2192 097d 03       		.byte	0x3
 2193 097e 00000000 		.4byte	.LC0
 2194 0982 1E       		.uleb128 0x1e
 2195 0983 01       		.uleb128 0x1
 2196 0984 50       		.byte	0x50
 2197 0985 03       		.uleb128 0x3
 2198 0986 F3       		.byte	0xf3
 2199 0987 01       		.uleb128 0x1
 2200 0988 50       		.byte	0x50
 2201 0989 00       		.byte	0
 2202 098a 00       		.byte	0
 2203 098b 1F       		.uleb128 0x1f
 2204 098c 20000000 		.4byte	.LBB36
 2205 0990 78000000 		.4byte	.LBE36-.LBB36
 2206 0994 1A       		.uleb128 0x1a
 2207 0995 F9070000 		.4byte	0x7f9
 2208 0999 D9010000 		.4byte	.LLST10
 2209 099d 1A       		.uleb128 0x1a
ARM GAS  /tmp/ccXMVEoh.s 			page 41


 2210 099e 04080000 		.4byte	0x804
 2211 09a2 FA010000 		.4byte	.LLST11
 2212 09a6 1A       		.uleb128 0x1a
 2213 09a7 EE070000 		.4byte	0x7ee
 2214 09ab 1B020000 		.4byte	.LLST12
 2215 09af 20       		.uleb128 0x20
 2216 09b0 2C000000 		.4byte	.LVL16
 2217 09b4 F2110000 		.4byte	0x11f2
 2218 09b8 D5090000 		.4byte	0x9d5
 2219 09bc 1E       		.uleb128 0x1e
 2220 09bd 01       		.uleb128 0x1
 2221 09be 52       		.byte	0x52
 2222 09bf 05       		.uleb128 0x5
 2223 09c0 03       		.byte	0x3
 2224 09c1 38000000 		.4byte	.LC5
 2225 09c5 1E       		.uleb128 0x1e
 2226 09c6 01       		.uleb128 0x1
 2227 09c7 51       		.byte	0x51
 2228 09c8 05       		.uleb128 0x5
 2229 09c9 03       		.byte	0x3
 2230 09ca 24000000 		.4byte	.LC4
 2231 09ce 1E       		.uleb128 0x1e
 2232 09cf 01       		.uleb128 0x1
 2233 09d0 50       		.byte	0x50
 2234 09d1 02       		.uleb128 0x2
 2235 09d2 74       		.byte	0x74
 2236 09d3 00       		.sleb128 0
 2237 09d4 00       		.byte	0
 2238 09d5 20       		.uleb128 0x20
 2239 09d6 3C000000 		.4byte	.LVL17
 2240 09da F2110000 		.4byte	0x11f2
 2241 09de FB090000 		.4byte	0x9fb
 2242 09e2 1E       		.uleb128 0x1e
 2243 09e3 01       		.uleb128 0x1
 2244 09e4 52       		.byte	0x52
 2245 09e5 05       		.uleb128 0x5
 2246 09e6 03       		.byte	0x3
 2247 09e7 5C000000 		.4byte	.LC7
 2248 09eb 1E       		.uleb128 0x1e
 2249 09ec 01       		.uleb128 0x1
 2250 09ed 51       		.byte	0x51
 2251 09ee 05       		.uleb128 0x5
 2252 09ef 03       		.byte	0x3
 2253 09f0 48000000 		.4byte	.LC6
 2254 09f4 1E       		.uleb128 0x1e
 2255 09f5 01       		.uleb128 0x1
 2256 09f6 50       		.byte	0x50
 2257 09f7 02       		.uleb128 0x2
 2258 09f8 74       		.byte	0x74
 2259 09f9 00       		.sleb128 0
 2260 09fa 00       		.byte	0
 2261 09fb 20       		.uleb128 0x20
 2262 09fc 4C000000 		.4byte	.LVL18
 2263 0a00 F2110000 		.4byte	0x11f2
 2264 0a04 210A0000 		.4byte	0xa21
 2265 0a08 1E       		.uleb128 0x1e
 2266 0a09 01       		.uleb128 0x1
ARM GAS  /tmp/ccXMVEoh.s 			page 42


 2267 0a0a 52       		.byte	0x52
 2268 0a0b 05       		.uleb128 0x5
 2269 0a0c 03       		.byte	0x3
 2270 0a0d 90000000 		.4byte	.LC9
 2271 0a11 1E       		.uleb128 0x1e
 2272 0a12 01       		.uleb128 0x1
 2273 0a13 51       		.byte	0x51
 2274 0a14 05       		.uleb128 0x5
 2275 0a15 03       		.byte	0x3
 2276 0a16 7C000000 		.4byte	.LC8
 2277 0a1a 1E       		.uleb128 0x1e
 2278 0a1b 01       		.uleb128 0x1
 2279 0a1c 50       		.byte	0x50
 2280 0a1d 02       		.uleb128 0x2
 2281 0a1e 74       		.byte	0x74
 2282 0a1f 00       		.sleb128 0
 2283 0a20 00       		.byte	0
 2284 0a21 20       		.uleb128 0x20
 2285 0a22 5C000000 		.4byte	.LVL19
 2286 0a26 F2110000 		.4byte	0x11f2
 2287 0a2a 470A0000 		.4byte	0xa47
 2288 0a2e 1E       		.uleb128 0x1e
 2289 0a2f 01       		.uleb128 0x1
 2290 0a30 52       		.byte	0x52
 2291 0a31 05       		.uleb128 0x5
 2292 0a32 03       		.byte	0x3
 2293 0a33 AC000000 		.4byte	.LC11
 2294 0a37 1E       		.uleb128 0x1e
 2295 0a38 01       		.uleb128 0x1
 2296 0a39 51       		.byte	0x51
 2297 0a3a 05       		.uleb128 0x5
 2298 0a3b 03       		.byte	0x3
 2299 0a3c 98000000 		.4byte	.LC10
 2300 0a40 1E       		.uleb128 0x1e
 2301 0a41 01       		.uleb128 0x1
 2302 0a42 50       		.byte	0x50
 2303 0a43 02       		.uleb128 0x2
 2304 0a44 74       		.byte	0x74
 2305 0a45 00       		.sleb128 0
 2306 0a46 00       		.byte	0
 2307 0a47 20       		.uleb128 0x20
 2308 0a48 6C000000 		.4byte	.LVL20
 2309 0a4c F2110000 		.4byte	0x11f2
 2310 0a50 6D0A0000 		.4byte	0xa6d
 2311 0a54 1E       		.uleb128 0x1e
 2312 0a55 01       		.uleb128 0x1
 2313 0a56 52       		.byte	0x52
 2314 0a57 05       		.uleb128 0x5
 2315 0a58 03       		.byte	0x3
 2316 0a59 D0000000 		.4byte	.LC13
 2317 0a5d 1E       		.uleb128 0x1e
 2318 0a5e 01       		.uleb128 0x1
 2319 0a5f 51       		.byte	0x51
 2320 0a60 05       		.uleb128 0x5
 2321 0a61 03       		.byte	0x3
 2322 0a62 BC000000 		.4byte	.LC12
 2323 0a66 1E       		.uleb128 0x1e
ARM GAS  /tmp/ccXMVEoh.s 			page 43


 2324 0a67 01       		.uleb128 0x1
 2325 0a68 50       		.byte	0x50
 2326 0a69 02       		.uleb128 0x2
 2327 0a6a 74       		.byte	0x74
 2328 0a6b 00       		.sleb128 0
 2329 0a6c 00       		.byte	0
 2330 0a6d 20       		.uleb128 0x20
 2331 0a6e 7C000000 		.4byte	.LVL21
 2332 0a72 F2110000 		.4byte	0x11f2
 2333 0a76 930A0000 		.4byte	0xa93
 2334 0a7a 1E       		.uleb128 0x1e
 2335 0a7b 01       		.uleb128 0x1
 2336 0a7c 52       		.byte	0x52
 2337 0a7d 05       		.uleb128 0x5
 2338 0a7e 03       		.byte	0x3
 2339 0a7f F4000000 		.4byte	.LC15
 2340 0a83 1E       		.uleb128 0x1e
 2341 0a84 01       		.uleb128 0x1
 2342 0a85 51       		.byte	0x51
 2343 0a86 05       		.uleb128 0x5
 2344 0a87 03       		.byte	0x3
 2345 0a88 E0000000 		.4byte	.LC14
 2346 0a8c 1E       		.uleb128 0x1e
 2347 0a8d 01       		.uleb128 0x1
 2348 0a8e 50       		.byte	0x50
 2349 0a8f 02       		.uleb128 0x2
 2350 0a90 74       		.byte	0x74
 2351 0a91 00       		.sleb128 0
 2352 0a92 00       		.byte	0
 2353 0a93 21       		.uleb128 0x21
 2354 0a94 98000000 		.4byte	.LVL22
 2355 0a98 F2110000 		.4byte	0x11f2
 2356 0a9c 1E       		.uleb128 0x1e
 2357 0a9d 01       		.uleb128 0x1
 2358 0a9e 53       		.byte	0x53
 2359 0a9f 05       		.uleb128 0x5
 2360 0aa0 03       		.byte	0x3
 2361 0aa1 20010000 		.4byte	.LC18
 2362 0aa5 1E       		.uleb128 0x1e
 2363 0aa6 01       		.uleb128 0x1
 2364 0aa7 52       		.byte	0x52
 2365 0aa8 05       		.uleb128 0x5
 2366 0aa9 03       		.byte	0x3
 2367 0aaa 14010000 		.4byte	.LC17
 2368 0aae 1E       		.uleb128 0x1e
 2369 0aaf 01       		.uleb128 0x1
 2370 0ab0 51       		.byte	0x51
 2371 0ab1 05       		.uleb128 0x5
 2372 0ab2 03       		.byte	0x3
 2373 0ab3 FC000000 		.4byte	.LC16
 2374 0ab7 1E       		.uleb128 0x1e
 2375 0ab8 01       		.uleb128 0x1
 2376 0ab9 50       		.byte	0x50
 2377 0aba 02       		.uleb128 0x2
 2378 0abb 74       		.byte	0x74
 2379 0abc 00       		.sleb128 0
 2380 0abd 1E       		.uleb128 0x1e
ARM GAS  /tmp/ccXMVEoh.s 			page 44


 2381 0abe 02       		.uleb128 0x2
 2382 0abf 7D       		.byte	0x7d
 2383 0ac0 00       		.sleb128 0
 2384 0ac1 05       		.uleb128 0x5
 2385 0ac2 03       		.byte	0x3
 2386 0ac3 24010000 		.4byte	.LC19
 2387 0ac7 00       		.byte	0
 2388 0ac8 00       		.byte	0
 2389 0ac9 00       		.byte	0
 2390 0aca 19       		.uleb128 0x19
 2391 0acb 33080000 		.4byte	0x833
 2392 0acf 00000000 		.4byte	.LFB20
 2393 0ad3 74000000 		.4byte	.LFE20-.LFB20
 2394 0ad7 01       		.uleb128 0x1
 2395 0ad8 9C       		.byte	0x9c
 2396 0ad9 380B0000 		.4byte	0xb38
 2397 0add 1A       		.uleb128 0x1a
 2398 0ade 43080000 		.4byte	0x843
 2399 0ae2 3C020000 		.4byte	.LLST13
 2400 0ae6 1A       		.uleb128 0x1a
 2401 0ae7 59080000 		.4byte	0x859
 2402 0aeb 76020000 		.4byte	.LLST14
 2403 0aef 22       		.uleb128 0x22
 2404 0af0 64080000 		.4byte	0x864
 2405 0af4 AA020000 		.4byte	.LLST15
 2406 0af8 23       		.uleb128 0x23
 2407 0af9 4E080000 		.4byte	0x84e
 2408 0afd 06       		.uleb128 0x6
 2409 0afe 03       		.byte	0x3
 2410 0aff 00000000 		.4byte	.LC20
 2411 0b03 9F       		.byte	0x9f
 2412 0b04 20       		.uleb128 0x20
 2413 0b05 20000000 		.4byte	.LVL28
 2414 0b09 09120000 		.4byte	0x1209
 2415 0b0d 210B0000 		.4byte	0xb21
 2416 0b11 1E       		.uleb128 0x1e
 2417 0b12 01       		.uleb128 0x1
 2418 0b13 51       		.byte	0x51
 2419 0b14 05       		.uleb128 0x5
 2420 0b15 03       		.byte	0x3
 2421 0b16 00000000 		.4byte	.LANCHOR0
 2422 0b1a 1E       		.uleb128 0x1e
 2423 0b1b 01       		.uleb128 0x1
 2424 0b1c 50       		.byte	0x50
 2425 0b1d 02       		.uleb128 0x2
 2426 0b1e 74       		.byte	0x74
 2427 0b1f 00       		.sleb128 0
 2428 0b20 00       		.byte	0
 2429 0b21 21       		.uleb128 0x21
 2430 0b22 30000000 		.4byte	.LVL30
 2431 0b26 23120000 		.4byte	0x1223
 2432 0b2a 1E       		.uleb128 0x1e
 2433 0b2b 01       		.uleb128 0x1
 2434 0b2c 51       		.byte	0x51
 2435 0b2d 02       		.uleb128 0x2
 2436 0b2e 08       		.byte	0x8
 2437 0b2f 20       		.byte	0x20
ARM GAS  /tmp/ccXMVEoh.s 			page 45


 2438 0b30 1E       		.uleb128 0x1e
 2439 0b31 01       		.uleb128 0x1
 2440 0b32 50       		.byte	0x50
 2441 0b33 02       		.uleb128 0x2
 2442 0b34 74       		.byte	0x74
 2443 0b35 00       		.sleb128 0
 2444 0b36 00       		.byte	0
 2445 0b37 00       		.byte	0
 2446 0b38 24       		.uleb128 0x24
 2447 0b39 05030000 		.4byte	.LASF139
 2448 0b3d 01       		.byte	0x1
 2449 0b3e D0       		.byte	0xd0
 2450 0b3f 00000000 		.4byte	.LFB14
 2451 0b43 10000000 		.4byte	.LFE14-.LFB14
 2452 0b47 01       		.uleb128 0x1
 2453 0b48 9C       		.byte	0x9c
 2454 0b49 25       		.uleb128 0x25
 2455 0b4a F1000000 		.4byte	.LASF115
 2456 0b4e 01       		.byte	0x1
 2457 0b4f E0       		.byte	0xe0
 2458 0b50 64020000 		.4byte	0x264
 2459 0b54 00000000 		.4byte	.LFB15
 2460 0b58 24000000 		.4byte	.LFE15-.LFB15
 2461 0b5c 01       		.uleb128 0x1
 2462 0b5d 9C       		.byte	0x9c
 2463 0b5e BE0B0000 		.4byte	0xbbe
 2464 0b62 26       		.uleb128 0x26
 2465 0b63 73637000 		.ascii	"scp\000"
 2466 0b67 01       		.byte	0x1
 2467 0b68 E0       		.byte	0xe0
 2468 0b69 BE0B0000 		.4byte	0xbbe
 2469 0b6d C8020000 		.4byte	.LLST16
 2470 0b71 27       		.uleb128 0x27
 2471 0b72 B1020000 		.4byte	.LASF89
 2472 0b76 01       		.byte	0x1
 2473 0b77 E0       		.byte	0xe0
 2474 0b78 2C000000 		.4byte	0x2c
 2475 0b7c F5020000 		.4byte	.LLST17
 2476 0b80 27       		.uleb128 0x27
 2477 0b81 C8010000 		.4byte	.LASF114
 2478 0b85 01       		.byte	0x1
 2479 0b86 E0       		.byte	0xe0
 2480 0b87 10010000 		.4byte	0x110
 2481 0b8b 16030000 		.4byte	.LLST18
 2482 0b8f 21       		.uleb128 0x21
 2483 0b90 18000000 		.4byte	.LVL36
 2484 0b94 41120000 		.4byte	0x1241
 2485 0b98 1E       		.uleb128 0x1e
 2486 0b99 01       		.uleb128 0x1
 2487 0b9a 53       		.byte	0x53
 2488 0b9b 05       		.uleb128 0x5
 2489 0b9c 03       		.byte	0x3
 2490 0b9d 00000000 		.4byte	shell_thread
 2491 0ba1 1E       		.uleb128 0x1e
 2492 0ba2 01       		.uleb128 0x1
 2493 0ba3 52       		.byte	0x52
 2494 0ba4 03       		.uleb128 0x3
ARM GAS  /tmp/ccXMVEoh.s 			page 46


 2495 0ba5 F3       		.byte	0xf3
 2496 0ba6 01       		.uleb128 0x1
 2497 0ba7 52       		.byte	0x52
 2498 0ba8 1E       		.uleb128 0x1e
 2499 0ba9 01       		.uleb128 0x1
 2500 0baa 51       		.byte	0x51
 2501 0bab 03       		.uleb128 0x3
 2502 0bac F3       		.byte	0xf3
 2503 0bad 01       		.uleb128 0x1
 2504 0bae 51       		.byte	0x51
 2505 0baf 1E       		.uleb128 0x1e
 2506 0bb0 01       		.uleb128 0x1
 2507 0bb1 50       		.byte	0x50
 2508 0bb2 01       		.uleb128 0x1
 2509 0bb3 30       		.byte	0x30
 2510 0bb4 1E       		.uleb128 0x1e
 2511 0bb5 02       		.uleb128 0x2
 2512 0bb6 7D       		.byte	0x7d
 2513 0bb7 00       		.sleb128 0
 2514 0bb8 03       		.uleb128 0x3
 2515 0bb9 F3       		.byte	0xf3
 2516 0bba 01       		.uleb128 0x1
 2517 0bbb 50       		.byte	0x50
 2518 0bbc 00       		.byte	0
 2519 0bbd 00       		.byte	0
 2520 0bbe 06       		.uleb128 0x6
 2521 0bbf 04       		.byte	0x4
 2522 0bc0 C40B0000 		.4byte	0xbc4
 2523 0bc4 07       		.uleb128 0x7
 2524 0bc5 88070000 		.4byte	0x788
 2525 0bc9 25       		.uleb128 0x25
 2526 0bca 19030000 		.4byte	.LASF116
 2527 0bce 01       		.byte	0x1
 2528 0bcf EF       		.byte	0xef
 2529 0bd0 64020000 		.4byte	0x264
 2530 0bd4 00000000 		.4byte	.LFB16
 2531 0bd8 2C000000 		.4byte	.LFE16-.LFB16
 2532 0bdc 01       		.uleb128 0x1
 2533 0bdd 9C       		.byte	0x9c
 2534 0bde 4F0C0000 		.4byte	0xc4f
 2535 0be2 26       		.uleb128 0x26
 2536 0be3 73637000 		.ascii	"scp\000"
 2537 0be7 01       		.byte	0x1
 2538 0be8 EF       		.byte	0xef
 2539 0be9 BE0B0000 		.4byte	0xbbe
 2540 0bed 37030000 		.4byte	.LLST19
 2541 0bf1 26       		.uleb128 0x26
 2542 0bf2 77737000 		.ascii	"wsp\000"
 2543 0bf6 01       		.byte	0x1
 2544 0bf7 EF       		.byte	0xef
 2545 0bf8 9E000000 		.4byte	0x9e
 2546 0bfc 64030000 		.4byte	.LLST20
 2547 0c00 27       		.uleb128 0x27
 2548 0c01 B1020000 		.4byte	.LASF89
 2549 0c05 01       		.byte	0x1
 2550 0c06 F0       		.byte	0xf0
 2551 0c07 2C000000 		.4byte	0x2c
ARM GAS  /tmp/ccXMVEoh.s 			page 47


 2552 0c0b 90030000 		.4byte	.LLST21
 2553 0c0f 27       		.uleb128 0x27
 2554 0c10 C8010000 		.4byte	.LASF114
 2555 0c14 01       		.byte	0x1
 2556 0c15 F0       		.byte	0xf0
 2557 0c16 10010000 		.4byte	0x110
 2558 0c1a BC030000 		.4byte	.LLST22
 2559 0c1e 21       		.uleb128 0x21
 2560 0c1f 20000000 		.4byte	.LVL42
 2561 0c23 6A120000 		.4byte	0x126a
 2562 0c27 1E       		.uleb128 0x1e
 2563 0c28 01       		.uleb128 0x1
 2564 0c29 53       		.byte	0x53
 2565 0c2a 05       		.uleb128 0x5
 2566 0c2b 03       		.byte	0x3
 2567 0c2c 00000000 		.4byte	shell_thread
 2568 0c30 1E       		.uleb128 0x1e
 2569 0c31 01       		.uleb128 0x1
 2570 0c32 52       		.byte	0x52
 2571 0c33 03       		.uleb128 0x3
 2572 0c34 F3       		.byte	0xf3
 2573 0c35 01       		.uleb128 0x1
 2574 0c36 53       		.byte	0x53
 2575 0c37 1E       		.uleb128 0x1e
 2576 0c38 01       		.uleb128 0x1
 2577 0c39 51       		.byte	0x51
 2578 0c3a 03       		.uleb128 0x3
 2579 0c3b F3       		.byte	0xf3
 2580 0c3c 01       		.uleb128 0x1
 2581 0c3d 52       		.byte	0x52
 2582 0c3e 1E       		.uleb128 0x1e
 2583 0c3f 01       		.uleb128 0x1
 2584 0c40 50       		.byte	0x50
 2585 0c41 03       		.uleb128 0x3
 2586 0c42 F3       		.byte	0xf3
 2587 0c43 01       		.uleb128 0x1
 2588 0c44 51       		.byte	0x51
 2589 0c45 1E       		.uleb128 0x1e
 2590 0c46 02       		.uleb128 0x2
 2591 0c47 7D       		.byte	0x7d
 2592 0c48 00       		.sleb128 0
 2593 0c49 03       		.uleb128 0x3
 2594 0c4a F3       		.byte	0xf3
 2595 0c4b 01       		.uleb128 0x1
 2596 0c4c 50       		.byte	0x50
 2597 0c4d 00       		.byte	0
 2598 0c4e 00       		.byte	0
 2599 0c4f 25       		.uleb128 0x25
 2600 0c50 FC040000 		.4byte	.LASF117
 2601 0c54 01       		.byte	0x1
 2602 0c55 FF       		.byte	0xff
 2603 0c56 D9000000 		.4byte	0xd9
 2604 0c5a 00000000 		.4byte	.LFB17
 2605 0c5e 18010000 		.4byte	.LFE17-.LFB17
 2606 0c62 01       		.uleb128 0x1
 2607 0c63 9C       		.byte	0x9c
 2608 0c64 4E0D0000 		.4byte	0xd4e
ARM GAS  /tmp/ccXMVEoh.s 			page 48


 2609 0c68 26       		.uleb128 0x26
 2610 0c69 63687000 		.ascii	"chp\000"
 2611 0c6d 01       		.byte	0x1
 2612 0c6e FF       		.byte	0xff
 2613 0c6f 24070000 		.4byte	0x724
 2614 0c73 E8030000 		.4byte	.LLST23
 2615 0c77 27       		.uleb128 0x27
 2616 0c78 2E050000 		.4byte	.LASF118
 2617 0c7c 01       		.byte	0x1
 2618 0c7d FF       		.byte	0xff
 2619 0c7e A0000000 		.4byte	0xa0
 2620 0c82 14040000 		.4byte	.LLST24
 2621 0c86 27       		.uleb128 0x27
 2622 0c87 B1020000 		.4byte	.LASF89
 2623 0c8b 01       		.byte	0x1
 2624 0c8c FF       		.byte	0xff
 2625 0c8d 37000000 		.4byte	0x37
 2626 0c91 40040000 		.4byte	.LLST25
 2627 0c95 28       		.uleb128 0x28
 2628 0c96 7000     		.ascii	"p\000"
 2629 0c98 01       		.byte	0x1
 2630 0c99 0001     		.2byte	0x100
 2631 0c9b A0000000 		.4byte	0xa0
 2632 0c9f 6E040000 		.4byte	.LLST26
 2633 0ca3 29       		.uleb128 0x29
 2634 0ca4 00000000 		.4byte	.Ldebug_ranges0+0
 2635 0ca8 2A       		.uleb128 0x2a
 2636 0ca9 6300     		.ascii	"c\000"
 2637 0cab 01       		.byte	0x1
 2638 0cac 0301     		.2byte	0x103
 2639 0cae A6000000 		.4byte	0xa6
 2640 0cb2 02       		.uleb128 0x2
 2641 0cb3 91       		.byte	0x91
 2642 0cb4 67       		.sleb128 -25
 2643 0cb5 2B       		.uleb128 0x2b
 2644 0cb6 34000000 		.4byte	.LVL47
 2645 0cba D00C0000 		.4byte	0xcd0
 2646 0cbe 1E       		.uleb128 0x1e
 2647 0cbf 01       		.uleb128 0x1
 2648 0cc0 52       		.byte	0x52
 2649 0cc1 01       		.uleb128 0x1
 2650 0cc2 31       		.byte	0x31
 2651 0cc3 1E       		.uleb128 0x1e
 2652 0cc4 01       		.uleb128 0x1
 2653 0cc5 51       		.byte	0x51
 2654 0cc6 02       		.uleb128 0x2
 2655 0cc7 91       		.byte	0x91
 2656 0cc8 5F       		.sleb128 -33
 2657 0cc9 1E       		.uleb128 0x1e
 2658 0cca 01       		.uleb128 0x1
 2659 0ccb 50       		.byte	0x50
 2660 0ccc 02       		.uleb128 0x2
 2661 0ccd 74       		.byte	0x74
 2662 0cce 00       		.sleb128 0
 2663 0ccf 00       		.byte	0
 2664 0cd0 2B       		.uleb128 0x2b
 2665 0cd1 78000000 		.4byte	.LVL48
ARM GAS  /tmp/ccXMVEoh.s 			page 49


 2666 0cd5 E00C0000 		.4byte	0xce0
 2667 0cd9 1E       		.uleb128 0x1e
 2668 0cda 01       		.uleb128 0x1
 2669 0cdb 50       		.byte	0x50
 2670 0cdc 02       		.uleb128 0x2
 2671 0cdd 74       		.byte	0x74
 2672 0cde 00       		.sleb128 0
 2673 0cdf 00       		.byte	0
 2674 0ce0 2B       		.uleb128 0x2b
 2675 0ce1 A0000000 		.4byte	.LVL50
 2676 0ce5 F00C0000 		.4byte	0xcf0
 2677 0ce9 1E       		.uleb128 0x1e
 2678 0cea 01       		.uleb128 0x1
 2679 0ceb 50       		.byte	0x50
 2680 0cec 02       		.uleb128 0x2
 2681 0ced 74       		.byte	0x74
 2682 0cee 00       		.sleb128 0
 2683 0cef 00       		.byte	0
 2684 0cf0 2B       		.uleb128 0x2b
 2685 0cf1 B4000000 		.4byte	.LVL51
 2686 0cf5 060D0000 		.4byte	0xd06
 2687 0cf9 1E       		.uleb128 0x1e
 2688 0cfa 01       		.uleb128 0x1
 2689 0cfb 51       		.byte	0x51
 2690 0cfc 02       		.uleb128 0x2
 2691 0cfd 08       		.byte	0x8
 2692 0cfe 20       		.byte	0x20
 2693 0cff 1E       		.uleb128 0x1e
 2694 0d00 01       		.uleb128 0x1
 2695 0d01 50       		.byte	0x50
 2696 0d02 02       		.uleb128 0x2
 2697 0d03 74       		.byte	0x74
 2698 0d04 00       		.sleb128 0
 2699 0d05 00       		.byte	0
 2700 0d06 2B       		.uleb128 0x2b
 2701 0d07 CC000000 		.4byte	.LVL53
 2702 0d0b 160D0000 		.4byte	0xd16
 2703 0d0f 1E       		.uleb128 0x1e
 2704 0d10 01       		.uleb128 0x1
 2705 0d11 50       		.byte	0x50
 2706 0d12 02       		.uleb128 0x2
 2707 0d13 74       		.byte	0x74
 2708 0d14 00       		.sleb128 0
 2709 0d15 00       		.byte	0
 2710 0d16 20       		.uleb128 0x20
 2711 0d17 E8000000 		.4byte	.LVL55
 2712 0d1b F2110000 		.4byte	0x11f2
 2713 0d1f 330D0000 		.4byte	0xd33
 2714 0d23 1E       		.uleb128 0x1e
 2715 0d24 01       		.uleb128 0x1
 2716 0d25 51       		.byte	0x51
 2717 0d26 05       		.uleb128 0x5
 2718 0d27 03       		.byte	0x3
 2719 0d28 30010000 		.4byte	.LC21
 2720 0d2c 1E       		.uleb128 0x1e
 2721 0d2d 01       		.uleb128 0x1
 2722 0d2e 50       		.byte	0x50
ARM GAS  /tmp/ccXMVEoh.s 			page 50


 2723 0d2f 02       		.uleb128 0x2
 2724 0d30 74       		.byte	0x74
 2725 0d31 00       		.sleb128 0
 2726 0d32 00       		.byte	0
 2727 0d33 21       		.uleb128 0x21
 2728 0d34 00010000 		.4byte	.LVL57
 2729 0d38 F2110000 		.4byte	0x11f2
 2730 0d3c 1E       		.uleb128 0x1e
 2731 0d3d 01       		.uleb128 0x1
 2732 0d3e 51       		.byte	0x51
 2733 0d3f 05       		.uleb128 0x5
 2734 0d40 03       		.byte	0x3
 2735 0d41 34010000 		.4byte	.LC22
 2736 0d45 1E       		.uleb128 0x1e
 2737 0d46 01       		.uleb128 0x1
 2738 0d47 50       		.byte	0x50
 2739 0d48 02       		.uleb128 0x2
 2740 0d49 74       		.byte	0x74
 2741 0d4a 00       		.sleb128 0
 2742 0d4b 00       		.byte	0
 2743 0d4c 00       		.byte	0
 2744 0d4d 00       		.byte	0
 2745 0d4e 17       		.uleb128 0x17
 2746 0d4f 39020000 		.4byte	.LASF120
 2747 0d53 01       		.byte	0x1
 2748 0d54 7A       		.byte	0x7a
 2749 0d55 D9000000 		.4byte	0xd9
 2750 0d59 01       		.byte	0x1
 2751 0d5a 960D0000 		.4byte	0xd96
 2752 0d5e 15       		.uleb128 0x15
 2753 0d5f 73637000 		.ascii	"scp\000"
 2754 0d63 01       		.byte	0x1
 2755 0d64 7A       		.byte	0x7a
 2756 0d65 7D070000 		.4byte	0x77d
 2757 0d69 15       		.uleb128 0x15
 2758 0d6a 63687000 		.ascii	"chp\000"
 2759 0d6e 01       		.byte	0x1
 2760 0d6f 7A       		.byte	0x7a
 2761 0d70 24070000 		.4byte	0x724
 2762 0d74 16       		.uleb128 0x16
 2763 0d75 1F000000 		.4byte	.LASF121
 2764 0d79 01       		.byte	0x1
 2765 0d7a 7B       		.byte	0x7b
 2766 0d7b A0000000 		.4byte	0xa0
 2767 0d7f 16       		.uleb128 0x16
 2768 0d80 98010000 		.4byte	.LASF108
 2769 0d84 01       		.byte	0x1
 2770 0d85 7B       		.byte	0x7b
 2771 0d86 25000000 		.4byte	0x25
 2772 0d8a 16       		.uleb128 0x16
 2773 0d8b 14030000 		.4byte	.LASF109
 2774 0d8f 01       		.byte	0x1
 2775 0d90 7B       		.byte	0x7b
 2776 0d91 2A070000 		.4byte	0x72a
 2777 0d95 00       		.byte	0
 2778 0d96 2C       		.uleb128 0x2c
 2779 0d97 D0020000 		.4byte	.LASF140
ARM GAS  /tmp/ccXMVEoh.s 			page 51


 2780 0d9b 01       		.byte	0x1
 2781 0d9c 8F       		.byte	0x8f
 2782 0d9d 1B010000 		.4byte	0x11b
 2783 0da1 00000000 		.4byte	.LFB13
 2784 0da5 9C020000 		.4byte	.LFE13-.LFB13
 2785 0da9 01       		.uleb128 0x1
 2786 0daa 9C       		.byte	0x9c
 2787 0dab 8A110000 		.4byte	0x118a
 2788 0daf 26       		.uleb128 0x26
 2789 0db0 7000     		.ascii	"p\000"
 2790 0db2 01       		.byte	0x1
 2791 0db3 8F       		.byte	0x8f
 2792 0db4 9E000000 		.4byte	0x9e
 2793 0db8 BC040000 		.4byte	.LLST27
 2794 0dbc 2D       		.uleb128 0x2d
 2795 0dbd 6E00     		.ascii	"n\000"
 2796 0dbf 01       		.byte	0x1
 2797 0dc0 90       		.byte	0x90
 2798 0dc1 25000000 		.4byte	0x25
 2799 0dc5 DD040000 		.4byte	.LLST28
 2800 0dc9 2E       		.uleb128 0x2e
 2801 0dca 6D736700 		.ascii	"msg\000"
 2802 0dce 01       		.byte	0x1
 2803 0dcf 91       		.byte	0x91
 2804 0dd0 1B010000 		.4byte	0x11b
 2805 0dd4 00       		.byte	0
 2806 0dd5 2D       		.uleb128 0x2d
 2807 0dd6 63687000 		.ascii	"chp\000"
 2808 0dda 01       		.byte	0x1
 2809 0ddb 92       		.byte	0x92
 2810 0ddc 24070000 		.4byte	0x724
 2811 0de0 12050000 		.4byte	.LLST29
 2812 0de4 2F       		.uleb128 0x2f
 2813 0de5 73637000 		.ascii	"scp\000"
 2814 0de9 01       		.byte	0x1
 2815 0dea 93       		.byte	0x93
 2816 0deb 7D070000 		.4byte	0x77d
 2817 0def 01       		.uleb128 0x1
 2818 0df0 58       		.byte	0x58
 2819 0df1 2D       		.uleb128 0x2d
 2820 0df2 6C7000   		.ascii	"lp\000"
 2821 0df5 01       		.byte	0x1
 2822 0df6 94       		.byte	0x94
 2823 0df7 A0000000 		.4byte	0xa0
 2824 0dfb 51050000 		.4byte	.LLST30
 2825 0dff 2D       		.uleb128 0x2d
 2826 0e00 636D6400 		.ascii	"cmd\000"
 2827 0e04 01       		.byte	0x1
 2828 0e05 94       		.byte	0x94
 2829 0e06 A0000000 		.4byte	0xa0
 2830 0e0a 87050000 		.4byte	.LLST31
 2831 0e0e 30       		.uleb128 0x30
 2832 0e0f AC020000 		.4byte	.LASF122
 2833 0e13 01       		.byte	0x1
 2834 0e14 94       		.byte	0x94
 2835 0e15 A0000000 		.4byte	0xa0
 2836 0e19 03       		.uleb128 0x3
ARM GAS  /tmp/ccXMVEoh.s 			page 52


 2837 0e1a 91       		.byte	0x91
 2838 0e1b 887F     		.sleb128 -120
 2839 0e1d 30       		.uleb128 0x30
 2840 0e1e 2E050000 		.4byte	.LASF118
 2841 0e22 01       		.byte	0x1
 2842 0e23 94       		.byte	0x94
 2843 0e24 8A110000 		.4byte	0x118a
 2844 0e28 03       		.uleb128 0x3
 2845 0e29 91       		.byte	0x91
 2846 0e2a A07F     		.sleb128 -96
 2847 0e2c 30       		.uleb128 0x30
 2848 0e2d 0F030000 		.4byte	.LASF123
 2849 0e31 01       		.byte	0x1
 2850 0e32 95       		.byte	0x95
 2851 0e33 9A110000 		.4byte	0x119a
 2852 0e37 03       		.uleb128 0x3
 2853 0e38 91       		.byte	0x91
 2854 0e39 8C7F     		.sleb128 -116
 2855 0e3b 31       		.uleb128 0x31
 2856 0e3c 10080000 		.4byte	0x810
 2857 0e40 2C000000 		.4byte	.LBB54
 2858 0e44 28000000 		.4byte	.Ldebug_ranges0+0x28
 2859 0e48 01       		.byte	0x1
 2860 0e49 B9       		.byte	0xb9
 2861 0e4a 7A0E0000 		.4byte	0xe7a
 2862 0e4e 1A       		.uleb128 0x1a
 2863 0e4f 27080000 		.4byte	0x827
 2864 0e53 C7050000 		.4byte	.LLST32
 2865 0e57 1A       		.uleb128 0x1a
 2866 0e58 1C080000 		.4byte	0x81c
 2867 0e5c 02060000 		.4byte	.LLST33
 2868 0e60 21       		.uleb128 0x21
 2869 0e61 B4010000 		.4byte	.LVL98
 2870 0e65 F2110000 		.4byte	0x11f2
 2871 0e69 1E       		.uleb128 0x1e
 2872 0e6a 01       		.uleb128 0x1
 2873 0e6b 51       		.byte	0x51
 2874 0e6c 05       		.uleb128 0x5
 2875 0e6d 03       		.byte	0x3
 2876 0e6e AC010000 		.4byte	.LC31
 2877 0e72 1E       		.uleb128 0x1e
 2878 0e73 01       		.uleb128 0x1
 2879 0e74 50       		.byte	0x50
 2880 0e75 02       		.uleb128 0x2
 2881 0e76 76       		.byte	0x76
 2882 0e77 00       		.sleb128 0
 2883 0e78 00       		.byte	0
 2884 0e79 00       		.byte	0
 2885 0e7a 1B       		.uleb128 0x1b
 2886 0e7b 93070000 		.4byte	0x793
 2887 0e7f D4000000 		.4byte	.LBB57
 2888 0e83 10000000 		.4byte	.LBE57-.LBB57
 2889 0e87 01       		.byte	0x1
 2890 0e88 AE       		.byte	0xae
 2891 0e89 C20E0000 		.4byte	0xec2
 2892 0e8d 1A       		.uleb128 0x1a
 2893 0e8e AA070000 		.4byte	0x7aa
ARM GAS  /tmp/ccXMVEoh.s 			page 53


 2894 0e92 15060000 		.4byte	.LLST34
 2895 0e96 1A       		.uleb128 0x1a
 2896 0e97 9F070000 		.4byte	0x79f
 2897 0e9b 2D060000 		.4byte	.LLST35
 2898 0e9f 21       		.uleb128 0x21
 2899 0ea0 E4000000 		.4byte	.LVL78
 2900 0ea4 F2110000 		.4byte	0x11f2
 2901 0ea8 1E       		.uleb128 0x1e
 2902 0ea9 01       		.uleb128 0x1
 2903 0eaa 52       		.byte	0x52
 2904 0eab 05       		.uleb128 0x5
 2905 0eac 03       		.byte	0x3
 2906 0ead 84010000 		.4byte	.LC28
 2907 0eb1 1E       		.uleb128 0x1e
 2908 0eb2 01       		.uleb128 0x1
 2909 0eb3 51       		.byte	0x51
 2910 0eb4 05       		.uleb128 0x5
 2911 0eb5 03       		.byte	0x3
 2912 0eb6 00000000 		.4byte	.LC0
 2913 0eba 1E       		.uleb128 0x1e
 2914 0ebb 01       		.uleb128 0x1
 2915 0ebc 50       		.byte	0x50
 2916 0ebd 02       		.uleb128 0x2
 2917 0ebe 76       		.byte	0x76
 2918 0ebf 00       		.sleb128 0
 2919 0ec0 00       		.byte	0
 2920 0ec1 00       		.byte	0
 2921 0ec2 31       		.uleb128 0x31
 2922 0ec3 93070000 		.4byte	0x793
 2923 0ec7 00010000 		.4byte	.LBB59
 2924 0ecb 40000000 		.4byte	.Ldebug_ranges0+0x40
 2925 0ecf 01       		.byte	0x1
 2926 0ed0 B5       		.byte	0xb5
 2927 0ed1 0A0F0000 		.4byte	0xf0a
 2928 0ed5 1A       		.uleb128 0x1a
 2929 0ed6 AA070000 		.4byte	0x7aa
 2930 0eda 40060000 		.4byte	.LLST36
 2931 0ede 1A       		.uleb128 0x1a
 2932 0edf 9F070000 		.4byte	0x79f
 2933 0ee3 58060000 		.4byte	.LLST37
 2934 0ee7 21       		.uleb128 0x21
 2935 0ee8 14010000 		.4byte	.LVL82
 2936 0eec F2110000 		.4byte	0x11f2
 2937 0ef0 1E       		.uleb128 0x1e
 2938 0ef1 01       		.uleb128 0x1
 2939 0ef2 52       		.byte	0x52
 2940 0ef3 05       		.uleb128 0x5
 2941 0ef4 03       		.byte	0x3
 2942 0ef5 8C010000 		.4byte	.LC29
 2943 0ef9 1E       		.uleb128 0x1e
 2944 0efa 01       		.uleb128 0x1
 2945 0efb 51       		.byte	0x51
 2946 0efc 05       		.uleb128 0x5
 2947 0efd 03       		.byte	0x3
 2948 0efe 00000000 		.4byte	.LC0
 2949 0f02 1E       		.uleb128 0x1e
 2950 0f03 01       		.uleb128 0x1
ARM GAS  /tmp/ccXMVEoh.s 			page 54


 2951 0f04 50       		.byte	0x50
 2952 0f05 02       		.uleb128 0x2
 2953 0f06 76       		.byte	0x76
 2954 0f07 00       		.sleb128 0
 2955 0f08 00       		.byte	0
 2956 0f09 00       		.byte	0
 2957 0f0a 1B       		.uleb128 0x1b
 2958 0f0b 4E0D0000 		.4byte	0xd4e
 2959 0f0f 48010000 		.4byte	.LBB63
 2960 0f13 30000000 		.4byte	.LBE63-.LBB63
 2961 0f17 01       		.byte	0x1
 2962 0f18 BE       		.byte	0xbe
 2963 0f19 4B0F0000 		.4byte	0xf4b
 2964 0f1d 1C       		.uleb128 0x1c
 2965 0f1e 8A0D0000 		.4byte	0xd8a
 2966 0f22 1C       		.uleb128 0x1c
 2967 0f23 7F0D0000 		.4byte	0xd7f
 2968 0f27 1C       		.uleb128 0x1c
 2969 0f28 740D0000 		.4byte	0xd74
 2970 0f2c 1C       		.uleb128 0x1c
 2971 0f2d 690D0000 		.4byte	0xd69
 2972 0f31 1A       		.uleb128 0x1a
 2973 0f32 5E0D0000 		.4byte	0xd5e
 2974 0f36 76060000 		.4byte	.LLST38
 2975 0f3a 21       		.uleb128 0x21
 2976 0f3b 70010000 		.4byte	.LVL91
 2977 0f3f 94120000 		.4byte	0x1294
 2978 0f43 1E       		.uleb128 0x1e
 2979 0f44 01       		.uleb128 0x1
 2980 0f45 51       		.byte	0x51
 2981 0f46 02       		.uleb128 0x2
 2982 0f47 7A       		.byte	0x7a
 2983 0f48 00       		.sleb128 0
 2984 0f49 00       		.byte	0
 2985 0f4a 00       		.byte	0
 2986 0f4b 31       		.uleb128 0x31
 2987 0f4c 4E0D0000 		.4byte	0xd4e
 2988 0f50 78010000 		.4byte	.LBB65
 2989 0f54 58000000 		.4byte	.Ldebug_ranges0+0x58
 2990 0f58 01       		.byte	0x1
 2991 0f59 BF       		.byte	0xbf
 2992 0f5a A90F0000 		.4byte	0xfa9
 2993 0f5e 1C       		.uleb128 0x1c
 2994 0f5f 8A0D0000 		.4byte	0xd8a
 2995 0f63 1C       		.uleb128 0x1c
 2996 0f64 7F0D0000 		.4byte	0xd7f
 2997 0f68 1C       		.uleb128 0x1c
 2998 0f69 740D0000 		.4byte	0xd74
 2999 0f6d 1C       		.uleb128 0x1c
 3000 0f6e 690D0000 		.4byte	0xd69
 3001 0f72 1A       		.uleb128 0x1a
 3002 0f73 5E0D0000 		.4byte	0xd5e
 3003 0f77 B3060000 		.4byte	.LLST39
 3004 0f7b 2B       		.uleb128 0x2b
 3005 0f7c 8C010000 		.4byte	.LVL93
 3006 0f80 980F0000 		.4byte	0xf98
 3007 0f84 1E       		.uleb128 0x1e
ARM GAS  /tmp/ccXMVEoh.s 			page 55


 3008 0f85 01       		.uleb128 0x1
 3009 0f86 52       		.byte	0x52
 3010 0f87 03       		.uleb128 0x3
 3011 0f88 91       		.byte	0x91
 3012 0f89 847F     		.sleb128 -124
 3013 0f8b 1E       		.uleb128 0x1e
 3014 0f8c 01       		.uleb128 0x1
 3015 0f8d 51       		.byte	0x51
 3016 0f8e 02       		.uleb128 0x2
 3017 0f8f 74       		.byte	0x74
 3018 0f90 00       		.sleb128 0
 3019 0f91 1E       		.uleb128 0x1e
 3020 0f92 01       		.uleb128 0x1
 3021 0f93 50       		.byte	0x50
 3022 0f94 02       		.uleb128 0x2
 3023 0f95 76       		.byte	0x76
 3024 0f96 00       		.sleb128 0
 3025 0f97 00       		.byte	0
 3026 0f98 21       		.uleb128 0x21
 3027 0f99 30020000 		.4byte	.LVL112
 3028 0f9d 94120000 		.4byte	0x1294
 3029 0fa1 1E       		.uleb128 0x1e
 3030 0fa2 01       		.uleb128 0x1
 3031 0fa3 51       		.byte	0x51
 3032 0fa4 02       		.uleb128 0x2
 3033 0fa5 7A       		.byte	0x7a
 3034 0fa6 00       		.sleb128 0
 3035 0fa7 00       		.byte	0
 3036 0fa8 00       		.byte	0
 3037 0fa9 1B       		.uleb128 0x1b
 3038 0faa 10080000 		.4byte	0x810
 3039 0fae C8010000 		.4byte	.LBB69
 3040 0fb2 28000000 		.4byte	.LBE69-.LBB69
 3041 0fb6 01       		.byte	0x1
 3042 0fb7 BB       		.byte	0xbb
 3043 0fb8 E40F0000 		.4byte	0xfe4
 3044 0fbc 1A       		.uleb128 0x1a
 3045 0fbd 27080000 		.4byte	0x827
 3046 0fc1 EB060000 		.4byte	.LLST40
 3047 0fc5 1C       		.uleb128 0x1c
 3048 0fc6 1C080000 		.4byte	0x81c
 3049 0fca 21       		.uleb128 0x21
 3050 0fcb E4010000 		.4byte	.LVL103
 3051 0fcf F2110000 		.4byte	0x11f2
 3052 0fd3 1E       		.uleb128 0x1e
 3053 0fd4 01       		.uleb128 0x1
 3054 0fd5 51       		.byte	0x51
 3055 0fd6 05       		.uleb128 0x5
 3056 0fd7 03       		.byte	0x3
 3057 0fd8 AC010000 		.4byte	.LC31
 3058 0fdc 1E       		.uleb128 0x1e
 3059 0fdd 01       		.uleb128 0x1
 3060 0fde 50       		.byte	0x50
 3061 0fdf 02       		.uleb128 0x2
 3062 0fe0 76       		.byte	0x76
 3063 0fe1 00       		.sleb128 0
 3064 0fe2 00       		.byte	0
ARM GAS  /tmp/ccXMVEoh.s 			page 56


 3065 0fe3 00       		.byte	0
 3066 0fe4 20       		.uleb128 0x20
 3067 0fe5 2C000000 		.4byte	.LVL63
 3068 0fe9 F2110000 		.4byte	0x11f2
 3069 0fed 01100000 		.4byte	0x1001
 3070 0ff1 1E       		.uleb128 0x1e
 3071 0ff2 01       		.uleb128 0x1
 3072 0ff3 51       		.byte	0x51
 3073 0ff4 05       		.uleb128 0x5
 3074 0ff5 03       		.byte	0x3
 3075 0ff6 40010000 		.4byte	.LC24
 3076 0ffa 1E       		.uleb128 0x1e
 3077 0ffb 01       		.uleb128 0x1
 3078 0ffc 50       		.byte	0x50
 3079 0ffd 02       		.uleb128 0x2
 3080 0ffe 76       		.byte	0x76
 3081 0fff 00       		.sleb128 0
 3082 1000 00       		.byte	0
 3083 1001 20       		.uleb128 0x20
 3084 1002 40000000 		.4byte	.LVL64
 3085 1006 F2110000 		.4byte	0x11f2
 3086 100a 1E100000 		.4byte	0x101e
 3087 100e 1E       		.uleb128 0x1e
 3088 100f 01       		.uleb128 0x1
 3089 1010 51       		.byte	0x51
 3090 1011 05       		.uleb128 0x5
 3091 1012 03       		.byte	0x3
 3092 1013 58010000 		.4byte	.LC25
 3093 1017 1E       		.uleb128 0x1e
 3094 1018 01       		.uleb128 0x1
 3095 1019 50       		.byte	0x50
 3096 101a 02       		.uleb128 0x2
 3097 101b 76       		.byte	0x76
 3098 101c 00       		.sleb128 0
 3099 101d 00       		.byte	0
 3100 101e 20       		.uleb128 0x20
 3101 101f 50000000 		.4byte	.LVL65
 3102 1023 4F0C0000 		.4byte	0xc4f
 3103 1027 3F100000 		.4byte	0x103f
 3104 102b 1E       		.uleb128 0x1e
 3105 102c 01       		.uleb128 0x1
 3106 102d 52       		.byte	0x52
 3107 102e 02       		.uleb128 0x2
 3108 102f 08       		.byte	0x8
 3109 1030 40       		.byte	0x40
 3110 1031 1E       		.uleb128 0x1e
 3111 1032 01       		.uleb128 0x1
 3112 1033 51       		.byte	0x51
 3113 1034 03       		.uleb128 0x3
 3114 1035 91       		.byte	0x91
 3115 1036 987F     		.sleb128 -104
 3116 1038 1E       		.uleb128 0x1e
 3117 1039 01       		.uleb128 0x1
 3118 103a 50       		.byte	0x50
 3119 103b 02       		.uleb128 0x2
 3120 103c 76       		.byte	0x76
 3121 103d 00       		.sleb128 0
ARM GAS  /tmp/ccXMVEoh.s 			page 57


 3122 103e 00       		.byte	0
 3123 103f 20       		.uleb128 0x20
 3124 1040 64000000 		.4byte	.LVL66
 3125 1044 CA0A0000 		.4byte	0xaca
 3126 1048 5A100000 		.4byte	0x105a
 3127 104c 1E       		.uleb128 0x1e
 3128 104d 01       		.uleb128 0x1
 3129 104e 51       		.byte	0x51
 3130 104f 02       		.uleb128 0x2
 3131 1050 7D       		.byte	0x7d
 3132 1051 00       		.sleb128 0
 3133 1052 1E       		.uleb128 0x1e
 3134 1053 01       		.uleb128 0x1
 3135 1054 50       		.byte	0x50
 3136 1055 03       		.uleb128 0x3
 3137 1056 91       		.byte	0x91
 3138 1057 987F     		.sleb128 -104
 3139 1059 00       		.byte	0
 3140 105a 20       		.uleb128 0x20
 3141 105b 78000000 		.4byte	.LVL70
 3142 105f CA0A0000 		.4byte	0xaca
 3143 1063 74100000 		.4byte	0x1074
 3144 1067 1E       		.uleb128 0x1e
 3145 1068 01       		.uleb128 0x1
 3146 1069 51       		.byte	0x51
 3147 106a 02       		.uleb128 0x2
 3148 106b 7D       		.byte	0x7d
 3149 106c 00       		.sleb128 0
 3150 106d 1E       		.uleb128 0x1e
 3151 106e 01       		.uleb128 0x1
 3152 106f 50       		.byte	0x50
 3153 1070 02       		.uleb128 0x2
 3154 1071 77       		.byte	0x77
 3155 1072 00       		.sleb128 0
 3156 1073 00       		.byte	0
 3157 1074 20       		.uleb128 0x20
 3158 1075 9C000000 		.4byte	.LVL73
 3159 1079 F2110000 		.4byte	0x11f2
 3160 107d 91100000 		.4byte	0x1091
 3161 1081 1E       		.uleb128 0x1e
 3162 1082 01       		.uleb128 0x1
 3163 1083 51       		.byte	0x51
 3164 1084 05       		.uleb128 0x5
 3165 1085 03       		.byte	0x3
 3166 1086 6C010000 		.4byte	.LC27
 3167 108a 1E       		.uleb128 0x1e
 3168 108b 01       		.uleb128 0x1
 3169 108c 50       		.byte	0x50
 3170 108d 02       		.uleb128 0x2
 3171 108e 76       		.byte	0x76
 3172 108f 00       		.sleb128 0
 3173 1090 00       		.byte	0
 3174 1091 20       		.uleb128 0x20
 3175 1092 C4000000 		.4byte	.LVL76
 3176 1096 94120000 		.4byte	0x1294
 3177 109a AE100000 		.4byte	0x10ae
 3178 109e 1E       		.uleb128 0x1e
ARM GAS  /tmp/ccXMVEoh.s 			page 58


 3179 109f 01       		.uleb128 0x1
 3180 10a0 51       		.byte	0x51
 3181 10a1 05       		.uleb128 0x5
 3182 10a2 03       		.byte	0x3
 3183 10a3 84010000 		.4byte	.LC28
 3184 10a7 1E       		.uleb128 0x1e
 3185 10a8 01       		.uleb128 0x1
 3186 10a9 50       		.byte	0x50
 3187 10aa 02       		.uleb128 0x2
 3188 10ab 7A       		.byte	0x7a
 3189 10ac 00       		.sleb128 0
 3190 10ad 00       		.byte	0
 3191 10ae 20       		.uleb128 0x20
 3192 10af F4000000 		.4byte	.LVL80
 3193 10b3 94120000 		.4byte	0x1294
 3194 10b7 CB100000 		.4byte	0x10cb
 3195 10bb 1E       		.uleb128 0x1e
 3196 10bc 01       		.uleb128 0x1
 3197 10bd 51       		.byte	0x51
 3198 10be 05       		.uleb128 0x5
 3199 10bf 03       		.byte	0x3
 3200 10c0 8C010000 		.4byte	.LC29
 3201 10c4 1E       		.uleb128 0x1e
 3202 10c5 01       		.uleb128 0x1
 3203 10c6 50       		.byte	0x50
 3204 10c7 02       		.uleb128 0x2
 3205 10c8 7A       		.byte	0x7a
 3206 10c9 00       		.sleb128 0
 3207 10ca 00       		.byte	0
 3208 10cb 20       		.uleb128 0x20
 3209 10cc 24010000 		.4byte	.LVL84
 3210 10d0 F2110000 		.4byte	0x11f2
 3211 10d4 E8100000 		.4byte	0x10e8
 3212 10d8 1E       		.uleb128 0x1e
 3213 10d9 01       		.uleb128 0x1
 3214 10da 51       		.byte	0x51
 3215 10db 05       		.uleb128 0x5
 3216 10dc 03       		.byte	0x3
 3217 10dd 60010000 		.4byte	.LC26
 3218 10e1 1E       		.uleb128 0x1e
 3219 10e2 01       		.uleb128 0x1
 3220 10e3 50       		.byte	0x50
 3221 10e4 02       		.uleb128 0x2
 3222 10e5 76       		.byte	0x76
 3223 10e6 00       		.sleb128 0
 3224 10e7 00       		.byte	0
 3225 10e8 20       		.uleb128 0x20
 3226 10e9 34010000 		.4byte	.LVL85
 3227 10ed AE120000 		.4byte	0x12ae
 3228 10f1 05110000 		.4byte	0x1105
 3229 10f5 1E       		.uleb128 0x1e
 3230 10f6 01       		.uleb128 0x1
 3231 10f7 51       		.byte	0x51
 3232 10f8 02       		.uleb128 0x2
 3233 10f9 77       		.byte	0x77
 3234 10fa 00       		.sleb128 0
 3235 10fb 1E       		.uleb128 0x1e
ARM GAS  /tmp/ccXMVEoh.s 			page 59


 3236 10fc 01       		.uleb128 0x1
 3237 10fd 50       		.byte	0x50
 3238 10fe 05       		.uleb128 0x5
 3239 10ff 03       		.byte	0x3
 3240 1100 00000000 		.4byte	shell_terminated
 3241 1104 00       		.byte	0
 3242 1105 20       		.uleb128 0x20
 3243 1106 3C010000 		.4byte	.LVL86
 3244 110a CA120000 		.4byte	0x12ca
 3245 110e 19110000 		.4byte	0x1119
 3246 1112 1E       		.uleb128 0x1e
 3247 1113 01       		.uleb128 0x1
 3248 1114 50       		.byte	0x50
 3249 1115 02       		.uleb128 0x2
 3250 1116 77       		.byte	0x77
 3251 1117 00       		.sleb128 0
 3252 1118 00       		.byte	0
 3253 1119 20       		.uleb128 0x20
 3254 111a 98010000 		.4byte	.LVL95
 3255 111e F2110000 		.4byte	0x11f2
 3256 1122 30110000 		.4byte	0x1130
 3257 1126 1E       		.uleb128 0x1e
 3258 1127 01       		.uleb128 0x1
 3259 1128 51       		.byte	0x51
 3260 1129 05       		.uleb128 0x5
 3261 112a 03       		.byte	0x3
 3262 112b 94010000 		.4byte	.LC30
 3263 112f 00       		.byte	0
 3264 1130 20       		.uleb128 0x20
 3265 1131 FC010000 		.4byte	.LVL106
 3266 1135 F2110000 		.4byte	0x11f2
 3267 1139 4D110000 		.4byte	0x114d
 3268 113d 1E       		.uleb128 0x1e
 3269 113e 01       		.uleb128 0x1
 3270 113f 51       		.byte	0x51
 3271 1140 05       		.uleb128 0x5
 3272 1141 03       		.byte	0x3
 3273 1142 34010000 		.4byte	.LC22
 3274 1146 1E       		.uleb128 0x1e
 3275 1147 01       		.uleb128 0x1
 3276 1148 50       		.byte	0x50
 3277 1149 02       		.uleb128 0x2
 3278 114a 76       		.byte	0x76
 3279 114b 00       		.sleb128 0
 3280 114c 00       		.byte	0
 3281 114d 20       		.uleb128 0x20
 3282 114e 4C020000 		.4byte	.LVL114
 3283 1152 F2110000 		.4byte	0x11f2
 3284 1156 70110000 		.4byte	0x1170
 3285 115a 1E       		.uleb128 0x1e
 3286 115b 01       		.uleb128 0x1
 3287 115c 52       		.byte	0x52
 3288 115d 02       		.uleb128 0x2
 3289 115e 7A       		.byte	0x7a
 3290 115f 00       		.sleb128 0
 3291 1160 1E       		.uleb128 0x1e
 3292 1161 01       		.uleb128 0x1
ARM GAS  /tmp/ccXMVEoh.s 			page 60


 3293 1162 51       		.byte	0x51
 3294 1163 05       		.uleb128 0x5
 3295 1164 03       		.byte	0x3
 3296 1165 B0010000 		.4byte	.LC32
 3297 1169 1E       		.uleb128 0x1e
 3298 116a 01       		.uleb128 0x1
 3299 116b 50       		.byte	0x50
 3300 116c 02       		.uleb128 0x2
 3301 116d 76       		.byte	0x76
 3302 116e 00       		.sleb128 0
 3303 116f 00       		.byte	0
 3304 1170 21       		.uleb128 0x21
 3305 1171 58020000 		.4byte	.LVL115
 3306 1175 F2110000 		.4byte	0x11f2
 3307 1179 1E       		.uleb128 0x1e
 3308 117a 01       		.uleb128 0x1
 3309 117b 51       		.byte	0x51
 3310 117c 05       		.uleb128 0x5
 3311 117d 03       		.byte	0x3
 3312 117e B4010000 		.4byte	.LC33
 3313 1182 1E       		.uleb128 0x1e
 3314 1183 01       		.uleb128 0x1
 3315 1184 50       		.byte	0x50
 3316 1185 02       		.uleb128 0x2
 3317 1186 76       		.byte	0x76
 3318 1187 00       		.sleb128 0
 3319 1188 00       		.byte	0
 3320 1189 00       		.byte	0
 3321 118a 32       		.uleb128 0x32
 3322 118b A6000000 		.4byte	0xa6
 3323 118f 9A110000 		.4byte	0x119a
 3324 1193 33       		.uleb128 0x33
 3325 1194 97000000 		.4byte	0x97
 3326 1198 3F       		.byte	0x3f
 3327 1199 00       		.byte	0
 3328 119a 32       		.uleb128 0x32
 3329 119b A0000000 		.4byte	0xa0
 3330 119f AA110000 		.4byte	0x11aa
 3331 11a3 33       		.uleb128 0x33
 3332 11a4 97000000 		.4byte	0x97
 3333 11a8 04       		.byte	0x4
 3334 11a9 00       		.byte	0
 3335 11aa 32       		.uleb128 0x32
 3336 11ab 51070000 		.4byte	0x751
 3337 11af BA110000 		.4byte	0x11ba
 3338 11b3 33       		.uleb128 0x33
 3339 11b4 97000000 		.4byte	0x97
 3340 11b8 02       		.byte	0x2
 3341 11b9 00       		.byte	0
 3342 11ba 30       		.uleb128 0x30
 3343 11bb C8000000 		.4byte	.LASF124
 3344 11bf 01       		.byte	0x1
 3345 11c0 74       		.byte	0x74
 3346 11c1 AA110000 		.4byte	0x11aa
 3347 11c5 05       		.uleb128 0x5
 3348 11c6 03       		.byte	0x3
 3349 11c7 00000000 		.4byte	local_commands
ARM GAS  /tmp/ccXMVEoh.s 			page 61


 3350 11cb 34       		.uleb128 0x34
 3351 11cc B2000000 		.4byte	.LASF125
 3352 11d0 09       		.byte	0x9
 3353 11d1 D1       		.byte	0xd1
 3354 11d2 F0030000 		.4byte	0x3f0
 3355 11d6 34       		.uleb128 0x34
 3356 11d7 48040000 		.4byte	.LASF126
 3357 11db 0A       		.byte	0xa
 3358 11dc 68       		.byte	0x68
 3359 11dd 4C040000 		.4byte	0x44c
 3360 11e1 35       		.uleb128 0x35
 3361 11e2 B2050000 		.4byte	.LASF127
 3362 11e6 01       		.byte	0x1
 3363 11e7 27       		.byte	0x27
 3364 11e8 00050000 		.4byte	0x500
 3365 11ec 05       		.uleb128 0x5
 3366 11ed 03       		.byte	0x3
 3367 11ee 00000000 		.4byte	shell_terminated
 3368 11f2 36       		.uleb128 0x36
 3369 11f3 A3010000 		.4byte	.LASF132
 3370 11f7 13       		.byte	0x13
 3371 11f8 2A       		.byte	0x2a
 3372 11f9 09120000 		.4byte	0x1209
 3373 11fd 0D       		.uleb128 0xd
 3374 11fe 24070000 		.4byte	0x724
 3375 1202 0D       		.uleb128 0xd
 3376 1203 AD000000 		.4byte	0xad
 3377 1207 37       		.uleb128 0x37
 3378 1208 00       		.byte	0
 3379 1209 38       		.uleb128 0x38
 3380 120a A5020000 		.4byte	.LASF128
 3381 120e 11       		.byte	0x11
 3382 120f 27       		.byte	0x27
 3383 1210 2C000000 		.4byte	0x2c
 3384 1214 23120000 		.4byte	0x1223
 3385 1218 0D       		.uleb128 0xd
 3386 1219 AD000000 		.4byte	0xad
 3387 121d 0D       		.uleb128 0xd
 3388 121e AD000000 		.4byte	0xad
 3389 1222 00       		.byte	0
 3390 1223 39       		.uleb128 0x39
 3391 1224 A1050000 		.4byte	.LASF141
 3392 1228 14       		.byte	0x14
 3393 1229 00       		.byte	0
 3394 122a 58030000 		.4byte	.LASF142
 3395 122e A0000000 		.4byte	0xa0
 3396 1232 41120000 		.4byte	0x1241
 3397 1236 0D       		.uleb128 0xd
 3398 1237 AD000000 		.4byte	0xad
 3399 123b 0D       		.uleb128 0xd
 3400 123c 25000000 		.4byte	0x25
 3401 1240 00       		.byte	0
 3402 1241 38       		.uleb128 0x38
 3403 1242 E8040000 		.4byte	.LASF129
 3404 1246 12       		.byte	0x12
 3405 1247 35       		.byte	0x35
 3406 1248 64020000 		.4byte	0x264
ARM GAS  /tmp/ccXMVEoh.s 			page 62


 3407 124c 6A120000 		.4byte	0x126a
 3408 1250 0D       		.uleb128 0xd
 3409 1251 AD050000 		.4byte	0x5ad
 3410 1255 0D       		.uleb128 0xd
 3411 1256 2C000000 		.4byte	0x2c
 3412 125a 0D       		.uleb128 0xd
 3413 125b 10010000 		.4byte	0x110
 3414 125f 0D       		.uleb128 0xd
 3415 1260 0D060000 		.4byte	0x60d
 3416 1264 0D       		.uleb128 0xd
 3417 1265 9E000000 		.4byte	0x9e
 3418 1269 00       		.byte	0
 3419 126a 3A       		.uleb128 0x3a
 3420 126b DD020000 		.4byte	.LASF130
 3421 126f 07       		.byte	0x7
 3422 1270 6401     		.2byte	0x164
 3423 1272 64020000 		.4byte	0x264
 3424 1276 94120000 		.4byte	0x1294
 3425 127a 0D       		.uleb128 0xd
 3426 127b 9E000000 		.4byte	0x9e
 3427 127f 0D       		.uleb128 0xd
 3428 1280 2C000000 		.4byte	0x2c
 3429 1284 0D       		.uleb128 0xd
 3430 1285 10010000 		.4byte	0x110
 3431 1289 0D       		.uleb128 0xd
 3432 128a 0D060000 		.4byte	0x60d
 3433 128e 0D       		.uleb128 0xd
 3434 128f 9E000000 		.4byte	0x9e
 3435 1293 00       		.byte	0
 3436 1294 38       		.uleb128 0x38
 3437 1295 95040000 		.4byte	.LASF131
 3438 1299 11       		.byte	0x11
 3439 129a 49       		.byte	0x49
 3440 129b 25000000 		.4byte	0x25
 3441 129f AE120000 		.4byte	0x12ae
 3442 12a3 0D       		.uleb128 0xd
 3443 12a4 AD000000 		.4byte	0xad
 3444 12a8 0D       		.uleb128 0xd
 3445 12a9 AD000000 		.4byte	0xad
 3446 12ad 00       		.byte	0
 3447 12ae 36       		.uleb128 0x36
 3448 12af 14020000 		.4byte	.LASF133
 3449 12b3 0C       		.byte	0xc
 3450 12b4 B3       		.byte	0xb3
 3451 12b5 C4120000 		.4byte	0x12c4
 3452 12b9 0D       		.uleb128 0xd
 3453 12ba C4120000 		.4byte	0x12c4
 3454 12be 0D       		.uleb128 0xd
 3455 12bf 31010000 		.4byte	0x131
 3456 12c3 00       		.byte	0
 3457 12c4 06       		.uleb128 0x6
 3458 12c5 04       		.byte	0x4
 3459 12c6 00050000 		.4byte	0x500
 3460 12ca 3B       		.uleb128 0x3b
 3461 12cb E0000000 		.4byte	.LASF143
 3462 12cf 07       		.byte	0x7
 3463 12d0 6D01     		.2byte	0x16d
ARM GAS  /tmp/ccXMVEoh.s 			page 63


 3464 12d2 0D       		.uleb128 0xd
 3465 12d3 1B010000 		.4byte	0x11b
 3466 12d7 00       		.byte	0
 3467 12d8 00       		.byte	0
 3468              		.section	.debug_abbrev,"",%progbits
 3469              	.Ldebug_abbrev0:
 3470 0000 01       		.uleb128 0x1
 3471 0001 11       		.uleb128 0x11
 3472 0002 01       		.byte	0x1
 3473 0003 25       		.uleb128 0x25
 3474 0004 0E       		.uleb128 0xe
 3475 0005 13       		.uleb128 0x13
 3476 0006 0B       		.uleb128 0xb
 3477 0007 03       		.uleb128 0x3
 3478 0008 0E       		.uleb128 0xe
 3479 0009 1B       		.uleb128 0x1b
 3480 000a 0E       		.uleb128 0xe
 3481 000b 55       		.uleb128 0x55
 3482 000c 17       		.uleb128 0x17
 3483 000d 11       		.uleb128 0x11
 3484 000e 01       		.uleb128 0x1
 3485 000f 10       		.uleb128 0x10
 3486 0010 17       		.uleb128 0x17
 3487 0011 00       		.byte	0
 3488 0012 00       		.byte	0
 3489 0013 02       		.uleb128 0x2
 3490 0014 24       		.uleb128 0x24
 3491 0015 00       		.byte	0
 3492 0016 0B       		.uleb128 0xb
 3493 0017 0B       		.uleb128 0xb
 3494 0018 3E       		.uleb128 0x3e
 3495 0019 0B       		.uleb128 0xb
 3496 001a 03       		.uleb128 0x3
 3497 001b 08       		.uleb128 0x8
 3498 001c 00       		.byte	0
 3499 001d 00       		.byte	0
 3500 001e 03       		.uleb128 0x3
 3501 001f 16       		.uleb128 0x16
 3502 0020 00       		.byte	0
 3503 0021 03       		.uleb128 0x3
 3504 0022 0E       		.uleb128 0xe
 3505 0023 3A       		.uleb128 0x3a
 3506 0024 0B       		.uleb128 0xb
 3507 0025 3B       		.uleb128 0x3b
 3508 0026 0B       		.uleb128 0xb
 3509 0027 49       		.uleb128 0x49
 3510 0028 13       		.uleb128 0x13
 3511 0029 00       		.byte	0
 3512 002a 00       		.byte	0
 3513 002b 04       		.uleb128 0x4
 3514 002c 24       		.uleb128 0x24
 3515 002d 00       		.byte	0
 3516 002e 0B       		.uleb128 0xb
 3517 002f 0B       		.uleb128 0xb
 3518 0030 3E       		.uleb128 0x3e
 3519 0031 0B       		.uleb128 0xb
 3520 0032 03       		.uleb128 0x3
ARM GAS  /tmp/ccXMVEoh.s 			page 64


 3521 0033 0E       		.uleb128 0xe
 3522 0034 00       		.byte	0
 3523 0035 00       		.byte	0
 3524 0036 05       		.uleb128 0x5
 3525 0037 0F       		.uleb128 0xf
 3526 0038 00       		.byte	0
 3527 0039 0B       		.uleb128 0xb
 3528 003a 0B       		.uleb128 0xb
 3529 003b 00       		.byte	0
 3530 003c 00       		.byte	0
 3531 003d 06       		.uleb128 0x6
 3532 003e 0F       		.uleb128 0xf
 3533 003f 00       		.byte	0
 3534 0040 0B       		.uleb128 0xb
 3535 0041 0B       		.uleb128 0xb
 3536 0042 49       		.uleb128 0x49
 3537 0043 13       		.uleb128 0x13
 3538 0044 00       		.byte	0
 3539 0045 00       		.byte	0
 3540 0046 07       		.uleb128 0x7
 3541 0047 26       		.uleb128 0x26
 3542 0048 00       		.byte	0
 3543 0049 49       		.uleb128 0x49
 3544 004a 13       		.uleb128 0x13
 3545 004b 00       		.byte	0
 3546 004c 00       		.byte	0
 3547 004d 08       		.uleb128 0x8
 3548 004e 13       		.uleb128 0x13
 3549 004f 01       		.byte	0x1
 3550 0050 03       		.uleb128 0x3
 3551 0051 0E       		.uleb128 0xe
 3552 0052 0B       		.uleb128 0xb
 3553 0053 0B       		.uleb128 0xb
 3554 0054 3A       		.uleb128 0x3a
 3555 0055 0B       		.uleb128 0xb
 3556 0056 3B       		.uleb128 0x3b
 3557 0057 0B       		.uleb128 0xb
 3558 0058 01       		.uleb128 0x1
 3559 0059 13       		.uleb128 0x13
 3560 005a 00       		.byte	0
 3561 005b 00       		.byte	0
 3562 005c 09       		.uleb128 0x9
 3563 005d 0D       		.uleb128 0xd
 3564 005e 00       		.byte	0
 3565 005f 03       		.uleb128 0x3
 3566 0060 0E       		.uleb128 0xe
 3567 0061 3A       		.uleb128 0x3a
 3568 0062 0B       		.uleb128 0xb
 3569 0063 3B       		.uleb128 0x3b
 3570 0064 0B       		.uleb128 0xb
 3571 0065 49       		.uleb128 0x49
 3572 0066 13       		.uleb128 0x13
 3573 0067 38       		.uleb128 0x38
 3574 0068 0B       		.uleb128 0xb
 3575 0069 00       		.byte	0
 3576 006a 00       		.byte	0
 3577 006b 0A       		.uleb128 0xa
ARM GAS  /tmp/ccXMVEoh.s 			page 65


 3578 006c 0D       		.uleb128 0xd
 3579 006d 00       		.byte	0
 3580 006e 03       		.uleb128 0x3
 3581 006f 08       		.uleb128 0x8
 3582 0070 3A       		.uleb128 0x3a
 3583 0071 0B       		.uleb128 0xb
 3584 0072 3B       		.uleb128 0x3b
 3585 0073 0B       		.uleb128 0xb
 3586 0074 49       		.uleb128 0x49
 3587 0075 13       		.uleb128 0x13
 3588 0076 38       		.uleb128 0x38
 3589 0077 0B       		.uleb128 0xb
 3590 0078 00       		.byte	0
 3591 0079 00       		.byte	0
 3592 007a 0B       		.uleb128 0xb
 3593 007b 13       		.uleb128 0x13
 3594 007c 01       		.byte	0x1
 3595 007d 0B       		.uleb128 0xb
 3596 007e 0B       		.uleb128 0xb
 3597 007f 3A       		.uleb128 0x3a
 3598 0080 0B       		.uleb128 0xb
 3599 0081 3B       		.uleb128 0x3b
 3600 0082 0B       		.uleb128 0xb
 3601 0083 01       		.uleb128 0x1
 3602 0084 13       		.uleb128 0x13
 3603 0085 00       		.byte	0
 3604 0086 00       		.byte	0
 3605 0087 0C       		.uleb128 0xc
 3606 0088 15       		.uleb128 0x15
 3607 0089 01       		.byte	0x1
 3608 008a 27       		.uleb128 0x27
 3609 008b 19       		.uleb128 0x19
 3610 008c 01       		.uleb128 0x1
 3611 008d 13       		.uleb128 0x13
 3612 008e 00       		.byte	0
 3613 008f 00       		.byte	0
 3614 0090 0D       		.uleb128 0xd
 3615 0091 05       		.uleb128 0x5
 3616 0092 00       		.byte	0
 3617 0093 49       		.uleb128 0x49
 3618 0094 13       		.uleb128 0x13
 3619 0095 00       		.byte	0
 3620 0096 00       		.byte	0
 3621 0097 0E       		.uleb128 0xe
 3622 0098 35       		.uleb128 0x35
 3623 0099 00       		.byte	0
 3624 009a 49       		.uleb128 0x49
 3625 009b 13       		.uleb128 0x13
 3626 009c 00       		.byte	0
 3627 009d 00       		.byte	0
 3628 009e 0F       		.uleb128 0xf
 3629 009f 15       		.uleb128 0x15
 3630 00a0 01       		.byte	0x1
 3631 00a1 27       		.uleb128 0x27
 3632 00a2 19       		.uleb128 0x19
 3633 00a3 49       		.uleb128 0x49
 3634 00a4 13       		.uleb128 0x13
ARM GAS  /tmp/ccXMVEoh.s 			page 66


 3635 00a5 01       		.uleb128 0x1
 3636 00a6 13       		.uleb128 0x13
 3637 00a7 00       		.byte	0
 3638 00a8 00       		.byte	0
 3639 00a9 10       		.uleb128 0x10
 3640 00aa 17       		.uleb128 0x17
 3641 00ab 01       		.byte	0x1
 3642 00ac 0B       		.uleb128 0xb
 3643 00ad 0B       		.uleb128 0xb
 3644 00ae 3A       		.uleb128 0x3a
 3645 00af 0B       		.uleb128 0xb
 3646 00b0 3B       		.uleb128 0x3b
 3647 00b1 0B       		.uleb128 0xb
 3648 00b2 01       		.uleb128 0x1
 3649 00b3 13       		.uleb128 0x13
 3650 00b4 00       		.byte	0
 3651 00b5 00       		.byte	0
 3652 00b6 11       		.uleb128 0x11
 3653 00b7 0D       		.uleb128 0xd
 3654 00b8 00       		.byte	0
 3655 00b9 03       		.uleb128 0x3
 3656 00ba 0E       		.uleb128 0xe
 3657 00bb 3A       		.uleb128 0x3a
 3658 00bc 0B       		.uleb128 0xb
 3659 00bd 3B       		.uleb128 0x3b
 3660 00be 0B       		.uleb128 0xb
 3661 00bf 49       		.uleb128 0x49
 3662 00c0 13       		.uleb128 0x13
 3663 00c1 00       		.byte	0
 3664 00c2 00       		.byte	0
 3665 00c3 12       		.uleb128 0x12
 3666 00c4 17       		.uleb128 0x17
 3667 00c5 01       		.byte	0x1
 3668 00c6 03       		.uleb128 0x3
 3669 00c7 0E       		.uleb128 0xe
 3670 00c8 0B       		.uleb128 0xb
 3671 00c9 0B       		.uleb128 0xb
 3672 00ca 3A       		.uleb128 0x3a
 3673 00cb 0B       		.uleb128 0xb
 3674 00cc 3B       		.uleb128 0x3b
 3675 00cd 0B       		.uleb128 0xb
 3676 00ce 01       		.uleb128 0x1
 3677 00cf 13       		.uleb128 0x13
 3678 00d0 00       		.byte	0
 3679 00d1 00       		.byte	0
 3680 00d2 13       		.uleb128 0x13
 3681 00d3 0D       		.uleb128 0xd
 3682 00d4 00       		.byte	0
 3683 00d5 03       		.uleb128 0x3
 3684 00d6 08       		.uleb128 0x8
 3685 00d7 3A       		.uleb128 0x3a
 3686 00d8 0B       		.uleb128 0xb
 3687 00d9 3B       		.uleb128 0x3b
 3688 00da 0B       		.uleb128 0xb
 3689 00db 49       		.uleb128 0x49
 3690 00dc 13       		.uleb128 0x13
 3691 00dd 00       		.byte	0
ARM GAS  /tmp/ccXMVEoh.s 			page 67


 3692 00de 00       		.byte	0
 3693 00df 14       		.uleb128 0x14
 3694 00e0 2E       		.uleb128 0x2e
 3695 00e1 01       		.byte	0x1
 3696 00e2 03       		.uleb128 0x3
 3697 00e3 0E       		.uleb128 0xe
 3698 00e4 3A       		.uleb128 0x3a
 3699 00e5 0B       		.uleb128 0xb
 3700 00e6 3B       		.uleb128 0x3b
 3701 00e7 0B       		.uleb128 0xb
 3702 00e8 27       		.uleb128 0x27
 3703 00e9 19       		.uleb128 0x19
 3704 00ea 20       		.uleb128 0x20
 3705 00eb 0B       		.uleb128 0xb
 3706 00ec 01       		.uleb128 0x1
 3707 00ed 13       		.uleb128 0x13
 3708 00ee 00       		.byte	0
 3709 00ef 00       		.byte	0
 3710 00f0 15       		.uleb128 0x15
 3711 00f1 05       		.uleb128 0x5
 3712 00f2 00       		.byte	0
 3713 00f3 03       		.uleb128 0x3
 3714 00f4 08       		.uleb128 0x8
 3715 00f5 3A       		.uleb128 0x3a
 3716 00f6 0B       		.uleb128 0xb
 3717 00f7 3B       		.uleb128 0x3b
 3718 00f8 0B       		.uleb128 0xb
 3719 00f9 49       		.uleb128 0x49
 3720 00fa 13       		.uleb128 0x13
 3721 00fb 00       		.byte	0
 3722 00fc 00       		.byte	0
 3723 00fd 16       		.uleb128 0x16
 3724 00fe 05       		.uleb128 0x5
 3725 00ff 00       		.byte	0
 3726 0100 03       		.uleb128 0x3
 3727 0101 0E       		.uleb128 0xe
 3728 0102 3A       		.uleb128 0x3a
 3729 0103 0B       		.uleb128 0xb
 3730 0104 3B       		.uleb128 0x3b
 3731 0105 0B       		.uleb128 0xb
 3732 0106 49       		.uleb128 0x49
 3733 0107 13       		.uleb128 0x13
 3734 0108 00       		.byte	0
 3735 0109 00       		.byte	0
 3736 010a 17       		.uleb128 0x17
 3737 010b 2E       		.uleb128 0x2e
 3738 010c 01       		.byte	0x1
 3739 010d 03       		.uleb128 0x3
 3740 010e 0E       		.uleb128 0xe
 3741 010f 3A       		.uleb128 0x3a
 3742 0110 0B       		.uleb128 0xb
 3743 0111 3B       		.uleb128 0x3b
 3744 0112 0B       		.uleb128 0xb
 3745 0113 27       		.uleb128 0x27
 3746 0114 19       		.uleb128 0x19
 3747 0115 49       		.uleb128 0x49
 3748 0116 13       		.uleb128 0x13
ARM GAS  /tmp/ccXMVEoh.s 			page 68


 3749 0117 20       		.uleb128 0x20
 3750 0118 0B       		.uleb128 0xb
 3751 0119 01       		.uleb128 0x1
 3752 011a 13       		.uleb128 0x13
 3753 011b 00       		.byte	0
 3754 011c 00       		.byte	0
 3755 011d 18       		.uleb128 0x18
 3756 011e 34       		.uleb128 0x34
 3757 011f 00       		.byte	0
 3758 0120 03       		.uleb128 0x3
 3759 0121 0E       		.uleb128 0xe
 3760 0122 3A       		.uleb128 0x3a
 3761 0123 0B       		.uleb128 0xb
 3762 0124 3B       		.uleb128 0x3b
 3763 0125 0B       		.uleb128 0xb
 3764 0126 49       		.uleb128 0x49
 3765 0127 13       		.uleb128 0x13
 3766 0128 00       		.byte	0
 3767 0129 00       		.byte	0
 3768 012a 19       		.uleb128 0x19
 3769 012b 2E       		.uleb128 0x2e
 3770 012c 01       		.byte	0x1
 3771 012d 31       		.uleb128 0x31
 3772 012e 13       		.uleb128 0x13
 3773 012f 11       		.uleb128 0x11
 3774 0130 01       		.uleb128 0x1
 3775 0131 12       		.uleb128 0x12
 3776 0132 06       		.uleb128 0x6
 3777 0133 40       		.uleb128 0x40
 3778 0134 18       		.uleb128 0x18
 3779 0135 9742     		.uleb128 0x2117
 3780 0137 19       		.uleb128 0x19
 3781 0138 01       		.uleb128 0x1
 3782 0139 13       		.uleb128 0x13
 3783 013a 00       		.byte	0
 3784 013b 00       		.byte	0
 3785 013c 1A       		.uleb128 0x1a
 3786 013d 05       		.uleb128 0x5
 3787 013e 00       		.byte	0
 3788 013f 31       		.uleb128 0x31
 3789 0140 13       		.uleb128 0x13
 3790 0141 02       		.uleb128 0x2
 3791 0142 17       		.uleb128 0x17
 3792 0143 00       		.byte	0
 3793 0144 00       		.byte	0
 3794 0145 1B       		.uleb128 0x1b
 3795 0146 1D       		.uleb128 0x1d
 3796 0147 01       		.byte	0x1
 3797 0148 31       		.uleb128 0x31
 3798 0149 13       		.uleb128 0x13
 3799 014a 11       		.uleb128 0x11
 3800 014b 01       		.uleb128 0x1
 3801 014c 12       		.uleb128 0x12
 3802 014d 06       		.uleb128 0x6
 3803 014e 58       		.uleb128 0x58
 3804 014f 0B       		.uleb128 0xb
 3805 0150 59       		.uleb128 0x59
ARM GAS  /tmp/ccXMVEoh.s 			page 69


 3806 0151 0B       		.uleb128 0xb
 3807 0152 01       		.uleb128 0x1
 3808 0153 13       		.uleb128 0x13
 3809 0154 00       		.byte	0
 3810 0155 00       		.byte	0
 3811 0156 1C       		.uleb128 0x1c
 3812 0157 05       		.uleb128 0x5
 3813 0158 00       		.byte	0
 3814 0159 31       		.uleb128 0x31
 3815 015a 13       		.uleb128 0x13
 3816 015b 00       		.byte	0
 3817 015c 00       		.byte	0
 3818 015d 1D       		.uleb128 0x1d
 3819 015e 898201   		.uleb128 0x4109
 3820 0161 01       		.byte	0x1
 3821 0162 11       		.uleb128 0x11
 3822 0163 01       		.uleb128 0x1
 3823 0164 9542     		.uleb128 0x2115
 3824 0166 19       		.uleb128 0x19
 3825 0167 31       		.uleb128 0x31
 3826 0168 13       		.uleb128 0x13
 3827 0169 00       		.byte	0
 3828 016a 00       		.byte	0
 3829 016b 1E       		.uleb128 0x1e
 3830 016c 8A8201   		.uleb128 0x410a
 3831 016f 00       		.byte	0
 3832 0170 02       		.uleb128 0x2
 3833 0171 18       		.uleb128 0x18
 3834 0172 9142     		.uleb128 0x2111
 3835 0174 18       		.uleb128 0x18
 3836 0175 00       		.byte	0
 3837 0176 00       		.byte	0
 3838 0177 1F       		.uleb128 0x1f
 3839 0178 0B       		.uleb128 0xb
 3840 0179 01       		.byte	0x1
 3841 017a 11       		.uleb128 0x11
 3842 017b 01       		.uleb128 0x1
 3843 017c 12       		.uleb128 0x12
 3844 017d 06       		.uleb128 0x6
 3845 017e 00       		.byte	0
 3846 017f 00       		.byte	0
 3847 0180 20       		.uleb128 0x20
 3848 0181 898201   		.uleb128 0x4109
 3849 0184 01       		.byte	0x1
 3850 0185 11       		.uleb128 0x11
 3851 0186 01       		.uleb128 0x1
 3852 0187 31       		.uleb128 0x31
 3853 0188 13       		.uleb128 0x13
 3854 0189 01       		.uleb128 0x1
 3855 018a 13       		.uleb128 0x13
 3856 018b 00       		.byte	0
 3857 018c 00       		.byte	0
 3858 018d 21       		.uleb128 0x21
 3859 018e 898201   		.uleb128 0x4109
 3860 0191 01       		.byte	0x1
 3861 0192 11       		.uleb128 0x11
 3862 0193 01       		.uleb128 0x1
ARM GAS  /tmp/ccXMVEoh.s 			page 70


 3863 0194 31       		.uleb128 0x31
 3864 0195 13       		.uleb128 0x13
 3865 0196 00       		.byte	0
 3866 0197 00       		.byte	0
 3867 0198 22       		.uleb128 0x22
 3868 0199 34       		.uleb128 0x34
 3869 019a 00       		.byte	0
 3870 019b 31       		.uleb128 0x31
 3871 019c 13       		.uleb128 0x13
 3872 019d 02       		.uleb128 0x2
 3873 019e 17       		.uleb128 0x17
 3874 019f 00       		.byte	0
 3875 01a0 00       		.byte	0
 3876 01a1 23       		.uleb128 0x23
 3877 01a2 05       		.uleb128 0x5
 3878 01a3 00       		.byte	0
 3879 01a4 31       		.uleb128 0x31
 3880 01a5 13       		.uleb128 0x13
 3881 01a6 02       		.uleb128 0x2
 3882 01a7 18       		.uleb128 0x18
 3883 01a8 00       		.byte	0
 3884 01a9 00       		.byte	0
 3885 01aa 24       		.uleb128 0x24
 3886 01ab 2E       		.uleb128 0x2e
 3887 01ac 00       		.byte	0
 3888 01ad 3F       		.uleb128 0x3f
 3889 01ae 19       		.uleb128 0x19
 3890 01af 03       		.uleb128 0x3
 3891 01b0 0E       		.uleb128 0xe
 3892 01b1 3A       		.uleb128 0x3a
 3893 01b2 0B       		.uleb128 0xb
 3894 01b3 3B       		.uleb128 0x3b
 3895 01b4 0B       		.uleb128 0xb
 3896 01b5 27       		.uleb128 0x27
 3897 01b6 19       		.uleb128 0x19
 3898 01b7 11       		.uleb128 0x11
 3899 01b8 01       		.uleb128 0x1
 3900 01b9 12       		.uleb128 0x12
 3901 01ba 06       		.uleb128 0x6
 3902 01bb 40       		.uleb128 0x40
 3903 01bc 18       		.uleb128 0x18
 3904 01bd 9742     		.uleb128 0x2117
 3905 01bf 19       		.uleb128 0x19
 3906 01c0 00       		.byte	0
 3907 01c1 00       		.byte	0
 3908 01c2 25       		.uleb128 0x25
 3909 01c3 2E       		.uleb128 0x2e
 3910 01c4 01       		.byte	0x1
 3911 01c5 3F       		.uleb128 0x3f
 3912 01c6 19       		.uleb128 0x19
 3913 01c7 03       		.uleb128 0x3
 3914 01c8 0E       		.uleb128 0xe
 3915 01c9 3A       		.uleb128 0x3a
 3916 01ca 0B       		.uleb128 0xb
 3917 01cb 3B       		.uleb128 0x3b
 3918 01cc 0B       		.uleb128 0xb
 3919 01cd 27       		.uleb128 0x27
ARM GAS  /tmp/ccXMVEoh.s 			page 71


 3920 01ce 19       		.uleb128 0x19
 3921 01cf 49       		.uleb128 0x49
 3922 01d0 13       		.uleb128 0x13
 3923 01d1 11       		.uleb128 0x11
 3924 01d2 01       		.uleb128 0x1
 3925 01d3 12       		.uleb128 0x12
 3926 01d4 06       		.uleb128 0x6
 3927 01d5 40       		.uleb128 0x40
 3928 01d6 18       		.uleb128 0x18
 3929 01d7 9742     		.uleb128 0x2117
 3930 01d9 19       		.uleb128 0x19
 3931 01da 01       		.uleb128 0x1
 3932 01db 13       		.uleb128 0x13
 3933 01dc 00       		.byte	0
 3934 01dd 00       		.byte	0
 3935 01de 26       		.uleb128 0x26
 3936 01df 05       		.uleb128 0x5
 3937 01e0 00       		.byte	0
 3938 01e1 03       		.uleb128 0x3
 3939 01e2 08       		.uleb128 0x8
 3940 01e3 3A       		.uleb128 0x3a
 3941 01e4 0B       		.uleb128 0xb
 3942 01e5 3B       		.uleb128 0x3b
 3943 01e6 0B       		.uleb128 0xb
 3944 01e7 49       		.uleb128 0x49
 3945 01e8 13       		.uleb128 0x13
 3946 01e9 02       		.uleb128 0x2
 3947 01ea 17       		.uleb128 0x17
 3948 01eb 00       		.byte	0
 3949 01ec 00       		.byte	0
 3950 01ed 27       		.uleb128 0x27
 3951 01ee 05       		.uleb128 0x5
 3952 01ef 00       		.byte	0
 3953 01f0 03       		.uleb128 0x3
 3954 01f1 0E       		.uleb128 0xe
 3955 01f2 3A       		.uleb128 0x3a
 3956 01f3 0B       		.uleb128 0xb
 3957 01f4 3B       		.uleb128 0x3b
 3958 01f5 0B       		.uleb128 0xb
 3959 01f6 49       		.uleb128 0x49
 3960 01f7 13       		.uleb128 0x13
 3961 01f8 02       		.uleb128 0x2
 3962 01f9 17       		.uleb128 0x17
 3963 01fa 00       		.byte	0
 3964 01fb 00       		.byte	0
 3965 01fc 28       		.uleb128 0x28
 3966 01fd 34       		.uleb128 0x34
 3967 01fe 00       		.byte	0
 3968 01ff 03       		.uleb128 0x3
 3969 0200 08       		.uleb128 0x8
 3970 0201 3A       		.uleb128 0x3a
 3971 0202 0B       		.uleb128 0xb
 3972 0203 3B       		.uleb128 0x3b
 3973 0204 05       		.uleb128 0x5
 3974 0205 49       		.uleb128 0x49
 3975 0206 13       		.uleb128 0x13
 3976 0207 02       		.uleb128 0x2
ARM GAS  /tmp/ccXMVEoh.s 			page 72


 3977 0208 17       		.uleb128 0x17
 3978 0209 00       		.byte	0
 3979 020a 00       		.byte	0
 3980 020b 29       		.uleb128 0x29
 3981 020c 0B       		.uleb128 0xb
 3982 020d 01       		.byte	0x1
 3983 020e 55       		.uleb128 0x55
 3984 020f 17       		.uleb128 0x17
 3985 0210 00       		.byte	0
 3986 0211 00       		.byte	0
 3987 0212 2A       		.uleb128 0x2a
 3988 0213 34       		.uleb128 0x34
 3989 0214 00       		.byte	0
 3990 0215 03       		.uleb128 0x3
 3991 0216 08       		.uleb128 0x8
 3992 0217 3A       		.uleb128 0x3a
 3993 0218 0B       		.uleb128 0xb
 3994 0219 3B       		.uleb128 0x3b
 3995 021a 05       		.uleb128 0x5
 3996 021b 49       		.uleb128 0x49
 3997 021c 13       		.uleb128 0x13
 3998 021d 02       		.uleb128 0x2
 3999 021e 18       		.uleb128 0x18
 4000 021f 00       		.byte	0
 4001 0220 00       		.byte	0
 4002 0221 2B       		.uleb128 0x2b
 4003 0222 898201   		.uleb128 0x4109
 4004 0225 01       		.byte	0x1
 4005 0226 11       		.uleb128 0x11
 4006 0227 01       		.uleb128 0x1
 4007 0228 01       		.uleb128 0x1
 4008 0229 13       		.uleb128 0x13
 4009 022a 00       		.byte	0
 4010 022b 00       		.byte	0
 4011 022c 2C       		.uleb128 0x2c
 4012 022d 2E       		.uleb128 0x2e
 4013 022e 01       		.byte	0x1
 4014 022f 03       		.uleb128 0x3
 4015 0230 0E       		.uleb128 0xe
 4016 0231 3A       		.uleb128 0x3a
 4017 0232 0B       		.uleb128 0xb
 4018 0233 3B       		.uleb128 0x3b
 4019 0234 0B       		.uleb128 0xb
 4020 0235 27       		.uleb128 0x27
 4021 0236 19       		.uleb128 0x19
 4022 0237 49       		.uleb128 0x49
 4023 0238 13       		.uleb128 0x13
 4024 0239 11       		.uleb128 0x11
 4025 023a 01       		.uleb128 0x1
 4026 023b 12       		.uleb128 0x12
 4027 023c 06       		.uleb128 0x6
 4028 023d 40       		.uleb128 0x40
 4029 023e 18       		.uleb128 0x18
 4030 023f 9742     		.uleb128 0x2117
 4031 0241 19       		.uleb128 0x19
 4032 0242 01       		.uleb128 0x1
 4033 0243 13       		.uleb128 0x13
ARM GAS  /tmp/ccXMVEoh.s 			page 73


 4034 0244 00       		.byte	0
 4035 0245 00       		.byte	0
 4036 0246 2D       		.uleb128 0x2d
 4037 0247 34       		.uleb128 0x34
 4038 0248 00       		.byte	0
 4039 0249 03       		.uleb128 0x3
 4040 024a 08       		.uleb128 0x8
 4041 024b 3A       		.uleb128 0x3a
 4042 024c 0B       		.uleb128 0xb
 4043 024d 3B       		.uleb128 0x3b
 4044 024e 0B       		.uleb128 0xb
 4045 024f 49       		.uleb128 0x49
 4046 0250 13       		.uleb128 0x13
 4047 0251 02       		.uleb128 0x2
 4048 0252 17       		.uleb128 0x17
 4049 0253 00       		.byte	0
 4050 0254 00       		.byte	0
 4051 0255 2E       		.uleb128 0x2e
 4052 0256 34       		.uleb128 0x34
 4053 0257 00       		.byte	0
 4054 0258 03       		.uleb128 0x3
 4055 0259 08       		.uleb128 0x8
 4056 025a 3A       		.uleb128 0x3a
 4057 025b 0B       		.uleb128 0xb
 4058 025c 3B       		.uleb128 0x3b
 4059 025d 0B       		.uleb128 0xb
 4060 025e 49       		.uleb128 0x49
 4061 025f 13       		.uleb128 0x13
 4062 0260 1C       		.uleb128 0x1c
 4063 0261 0B       		.uleb128 0xb
 4064 0262 00       		.byte	0
 4065 0263 00       		.byte	0
 4066 0264 2F       		.uleb128 0x2f
 4067 0265 34       		.uleb128 0x34
 4068 0266 00       		.byte	0
 4069 0267 03       		.uleb128 0x3
 4070 0268 08       		.uleb128 0x8
 4071 0269 3A       		.uleb128 0x3a
 4072 026a 0B       		.uleb128 0xb
 4073 026b 3B       		.uleb128 0x3b
 4074 026c 0B       		.uleb128 0xb
 4075 026d 49       		.uleb128 0x49
 4076 026e 13       		.uleb128 0x13
 4077 026f 02       		.uleb128 0x2
 4078 0270 18       		.uleb128 0x18
 4079 0271 00       		.byte	0
 4080 0272 00       		.byte	0
 4081 0273 30       		.uleb128 0x30
 4082 0274 34       		.uleb128 0x34
 4083 0275 00       		.byte	0
 4084 0276 03       		.uleb128 0x3
 4085 0277 0E       		.uleb128 0xe
 4086 0278 3A       		.uleb128 0x3a
 4087 0279 0B       		.uleb128 0xb
 4088 027a 3B       		.uleb128 0x3b
 4089 027b 0B       		.uleb128 0xb
 4090 027c 49       		.uleb128 0x49
ARM GAS  /tmp/ccXMVEoh.s 			page 74


 4091 027d 13       		.uleb128 0x13
 4092 027e 02       		.uleb128 0x2
 4093 027f 18       		.uleb128 0x18
 4094 0280 00       		.byte	0
 4095 0281 00       		.byte	0
 4096 0282 31       		.uleb128 0x31
 4097 0283 1D       		.uleb128 0x1d
 4098 0284 01       		.byte	0x1
 4099 0285 31       		.uleb128 0x31
 4100 0286 13       		.uleb128 0x13
 4101 0287 52       		.uleb128 0x52
 4102 0288 01       		.uleb128 0x1
 4103 0289 55       		.uleb128 0x55
 4104 028a 17       		.uleb128 0x17
 4105 028b 58       		.uleb128 0x58
 4106 028c 0B       		.uleb128 0xb
 4107 028d 59       		.uleb128 0x59
 4108 028e 0B       		.uleb128 0xb
 4109 028f 01       		.uleb128 0x1
 4110 0290 13       		.uleb128 0x13
 4111 0291 00       		.byte	0
 4112 0292 00       		.byte	0
 4113 0293 32       		.uleb128 0x32
 4114 0294 01       		.uleb128 0x1
 4115 0295 01       		.byte	0x1
 4116 0296 49       		.uleb128 0x49
 4117 0297 13       		.uleb128 0x13
 4118 0298 01       		.uleb128 0x1
 4119 0299 13       		.uleb128 0x13
 4120 029a 00       		.byte	0
 4121 029b 00       		.byte	0
 4122 029c 33       		.uleb128 0x33
 4123 029d 21       		.uleb128 0x21
 4124 029e 00       		.byte	0
 4125 029f 49       		.uleb128 0x49
 4126 02a0 13       		.uleb128 0x13
 4127 02a1 2F       		.uleb128 0x2f
 4128 02a2 0B       		.uleb128 0xb
 4129 02a3 00       		.byte	0
 4130 02a4 00       		.byte	0
 4131 02a5 34       		.uleb128 0x34
 4132 02a6 34       		.uleb128 0x34
 4133 02a7 00       		.byte	0
 4134 02a8 03       		.uleb128 0x3
 4135 02a9 0E       		.uleb128 0xe
 4136 02aa 3A       		.uleb128 0x3a
 4137 02ab 0B       		.uleb128 0xb
 4138 02ac 3B       		.uleb128 0x3b
 4139 02ad 0B       		.uleb128 0xb
 4140 02ae 49       		.uleb128 0x49
 4141 02af 13       		.uleb128 0x13
 4142 02b0 3F       		.uleb128 0x3f
 4143 02b1 19       		.uleb128 0x19
 4144 02b2 3C       		.uleb128 0x3c
 4145 02b3 19       		.uleb128 0x19
 4146 02b4 00       		.byte	0
 4147 02b5 00       		.byte	0
ARM GAS  /tmp/ccXMVEoh.s 			page 75


 4148 02b6 35       		.uleb128 0x35
 4149 02b7 34       		.uleb128 0x34
 4150 02b8 00       		.byte	0
 4151 02b9 03       		.uleb128 0x3
 4152 02ba 0E       		.uleb128 0xe
 4153 02bb 3A       		.uleb128 0x3a
 4154 02bc 0B       		.uleb128 0xb
 4155 02bd 3B       		.uleb128 0x3b
 4156 02be 0B       		.uleb128 0xb
 4157 02bf 49       		.uleb128 0x49
 4158 02c0 13       		.uleb128 0x13
 4159 02c1 3F       		.uleb128 0x3f
 4160 02c2 19       		.uleb128 0x19
 4161 02c3 02       		.uleb128 0x2
 4162 02c4 18       		.uleb128 0x18
 4163 02c5 00       		.byte	0
 4164 02c6 00       		.byte	0
 4165 02c7 36       		.uleb128 0x36
 4166 02c8 2E       		.uleb128 0x2e
 4167 02c9 01       		.byte	0x1
 4168 02ca 3F       		.uleb128 0x3f
 4169 02cb 19       		.uleb128 0x19
 4170 02cc 03       		.uleb128 0x3
 4171 02cd 0E       		.uleb128 0xe
 4172 02ce 3A       		.uleb128 0x3a
 4173 02cf 0B       		.uleb128 0xb
 4174 02d0 3B       		.uleb128 0x3b
 4175 02d1 0B       		.uleb128 0xb
 4176 02d2 27       		.uleb128 0x27
 4177 02d3 19       		.uleb128 0x19
 4178 02d4 3C       		.uleb128 0x3c
 4179 02d5 19       		.uleb128 0x19
 4180 02d6 01       		.uleb128 0x1
 4181 02d7 13       		.uleb128 0x13
 4182 02d8 00       		.byte	0
 4183 02d9 00       		.byte	0
 4184 02da 37       		.uleb128 0x37
 4185 02db 18       		.uleb128 0x18
 4186 02dc 00       		.byte	0
 4187 02dd 00       		.byte	0
 4188 02de 00       		.byte	0
 4189 02df 38       		.uleb128 0x38
 4190 02e0 2E       		.uleb128 0x2e
 4191 02e1 01       		.byte	0x1
 4192 02e2 3F       		.uleb128 0x3f
 4193 02e3 19       		.uleb128 0x19
 4194 02e4 03       		.uleb128 0x3
 4195 02e5 0E       		.uleb128 0xe
 4196 02e6 3A       		.uleb128 0x3a
 4197 02e7 0B       		.uleb128 0xb
 4198 02e8 3B       		.uleb128 0x3b
 4199 02e9 0B       		.uleb128 0xb
 4200 02ea 27       		.uleb128 0x27
 4201 02eb 19       		.uleb128 0x19
 4202 02ec 49       		.uleb128 0x49
 4203 02ed 13       		.uleb128 0x13
 4204 02ee 3C       		.uleb128 0x3c
ARM GAS  /tmp/ccXMVEoh.s 			page 76


 4205 02ef 19       		.uleb128 0x19
 4206 02f0 01       		.uleb128 0x1
 4207 02f1 13       		.uleb128 0x13
 4208 02f2 00       		.byte	0
 4209 02f3 00       		.byte	0
 4210 02f4 39       		.uleb128 0x39
 4211 02f5 2E       		.uleb128 0x2e
 4212 02f6 01       		.byte	0x1
 4213 02f7 3F       		.uleb128 0x3f
 4214 02f8 19       		.uleb128 0x19
 4215 02f9 03       		.uleb128 0x3
 4216 02fa 0E       		.uleb128 0xe
 4217 02fb 3A       		.uleb128 0x3a
 4218 02fc 0B       		.uleb128 0xb
 4219 02fd 3B       		.uleb128 0x3b
 4220 02fe 0B       		.uleb128 0xb
 4221 02ff 6E       		.uleb128 0x6e
 4222 0300 0E       		.uleb128 0xe
 4223 0301 27       		.uleb128 0x27
 4224 0302 19       		.uleb128 0x19
 4225 0303 49       		.uleb128 0x49
 4226 0304 13       		.uleb128 0x13
 4227 0305 3C       		.uleb128 0x3c
 4228 0306 19       		.uleb128 0x19
 4229 0307 01       		.uleb128 0x1
 4230 0308 13       		.uleb128 0x13
 4231 0309 00       		.byte	0
 4232 030a 00       		.byte	0
 4233 030b 3A       		.uleb128 0x3a
 4234 030c 2E       		.uleb128 0x2e
 4235 030d 01       		.byte	0x1
 4236 030e 3F       		.uleb128 0x3f
 4237 030f 19       		.uleb128 0x19
 4238 0310 03       		.uleb128 0x3
 4239 0311 0E       		.uleb128 0xe
 4240 0312 3A       		.uleb128 0x3a
 4241 0313 0B       		.uleb128 0xb
 4242 0314 3B       		.uleb128 0x3b
 4243 0315 05       		.uleb128 0x5
 4244 0316 27       		.uleb128 0x27
 4245 0317 19       		.uleb128 0x19
 4246 0318 49       		.uleb128 0x49
 4247 0319 13       		.uleb128 0x13
 4248 031a 3C       		.uleb128 0x3c
 4249 031b 19       		.uleb128 0x19
 4250 031c 01       		.uleb128 0x1
 4251 031d 13       		.uleb128 0x13
 4252 031e 00       		.byte	0
 4253 031f 00       		.byte	0
 4254 0320 3B       		.uleb128 0x3b
 4255 0321 2E       		.uleb128 0x2e
 4256 0322 01       		.byte	0x1
 4257 0323 3F       		.uleb128 0x3f
 4258 0324 19       		.uleb128 0x19
 4259 0325 03       		.uleb128 0x3
 4260 0326 0E       		.uleb128 0xe
 4261 0327 3A       		.uleb128 0x3a
ARM GAS  /tmp/ccXMVEoh.s 			page 77


 4262 0328 0B       		.uleb128 0xb
 4263 0329 3B       		.uleb128 0x3b
 4264 032a 05       		.uleb128 0x5
 4265 032b 27       		.uleb128 0x27
 4266 032c 19       		.uleb128 0x19
 4267 032d 3C       		.uleb128 0x3c
 4268 032e 19       		.uleb128 0x19
 4269 032f 00       		.byte	0
 4270 0330 00       		.byte	0
 4271 0331 00       		.byte	0
 4272              		.section	.debug_loc,"",%progbits
 4273              	.Ldebug_loc0:
 4274              	.LLST0:
 4275 0000 00000000 		.4byte	.LVL0
 4276 0004 13000000 		.4byte	.LVL4-1
 4277 0008 0100     		.2byte	0x1
 4278 000a 50       		.byte	0x50
 4279 000b 13000000 		.4byte	.LVL4-1
 4280 000f 14000000 		.4byte	.LVL4
 4281 0013 0400     		.2byte	0x4
 4282 0015 F3       		.byte	0xf3
 4283 0016 01       		.uleb128 0x1
 4284 0017 50       		.byte	0x50
 4285 0018 9F       		.byte	0x9f
 4286 0019 14000000 		.4byte	.LVL4
 4287 001d 23000000 		.4byte	.LVL7-1
 4288 0021 0100     		.2byte	0x1
 4289 0023 50       		.byte	0x50
 4290 0024 23000000 		.4byte	.LVL7-1
 4291 0028 34000000 		.4byte	.LFE11
 4292 002c 0400     		.2byte	0x4
 4293 002e F3       		.byte	0xf3
 4294 002f 01       		.uleb128 0x1
 4295 0030 50       		.byte	0x50
 4296 0031 9F       		.byte	0x9f
 4297 0032 00000000 		.4byte	0
 4298 0036 00000000 		.4byte	0
 4299              	.LLST1:
 4300 003a 00000000 		.4byte	.LVL0
 4301 003e 0C000000 		.4byte	.LVL2
 4302 0042 0100     		.2byte	0x1
 4303 0044 51       		.byte	0x51
 4304 0045 0C000000 		.4byte	.LVL2
 4305 0049 14000000 		.4byte	.LVL4
 4306 004d 0400     		.2byte	0x4
 4307 004f F3       		.byte	0xf3
 4308 0050 01       		.uleb128 0x1
 4309 0051 51       		.byte	0x51
 4310 0052 9F       		.byte	0x9f
 4311 0053 14000000 		.4byte	.LVL4
 4312 0057 1C000000 		.4byte	.LVL5
 4313 005b 0100     		.2byte	0x1
 4314 005d 51       		.byte	0x51
 4315 005e 1C000000 		.4byte	.LVL5
 4316 0062 34000000 		.4byte	.LFE11
 4317 0066 0400     		.2byte	0x4
 4318 0068 F3       		.byte	0xf3
ARM GAS  /tmp/ccXMVEoh.s 			page 78


 4319 0069 01       		.uleb128 0x1
 4320 006a 51       		.byte	0x51
 4321 006b 9F       		.byte	0x9f
 4322 006c 00000000 		.4byte	0
 4323 0070 00000000 		.4byte	0
 4324              	.LLST2:
 4325 0074 00000000 		.4byte	.LVL0
 4326 0078 10000000 		.4byte	.LVL3
 4327 007c 0100     		.2byte	0x1
 4328 007e 52       		.byte	0x52
 4329 007f 10000000 		.4byte	.LVL3
 4330 0083 14000000 		.4byte	.LVL4
 4331 0087 0400     		.2byte	0x4
 4332 0089 F3       		.byte	0xf3
 4333 008a 01       		.uleb128 0x1
 4334 008b 52       		.byte	0x52
 4335 008c 9F       		.byte	0x9f
 4336 008d 14000000 		.4byte	.LVL4
 4337 0091 20000000 		.4byte	.LVL6
 4338 0095 0100     		.2byte	0x1
 4339 0097 52       		.byte	0x52
 4340 0098 20000000 		.4byte	.LVL6
 4341 009c 34000000 		.4byte	.LFE11
 4342 00a0 0400     		.2byte	0x4
 4343 00a2 F3       		.byte	0xf3
 4344 00a3 01       		.uleb128 0x1
 4345 00a4 52       		.byte	0x52
 4346 00a5 9F       		.byte	0x9f
 4347 00a6 00000000 		.4byte	0
 4348 00aa 00000000 		.4byte	0
 4349              	.LLST3:
 4350 00ae 08000000 		.4byte	.LVL1
 4351 00b2 14000000 		.4byte	.LVL4
 4352 00b6 0600     		.2byte	0x6
 4353 00b8 03       		.byte	0x3
 4354 00b9 0C000000 		.4byte	.LC1
 4355 00bd 9F       		.byte	0x9f
 4356 00be 00000000 		.4byte	0
 4357 00c2 00000000 		.4byte	0
 4358              	.LLST4:
 4359 00c6 14000000 		.4byte	.LVL4
 4360 00ca 1C000000 		.4byte	.LVL5
 4361 00ce 0100     		.2byte	0x1
 4362 00d0 51       		.byte	0x51
 4363 00d1 1C000000 		.4byte	.LVL5
 4364 00d5 34000000 		.4byte	.LFE11
 4365 00d9 0400     		.2byte	0x4
 4366 00db F3       		.byte	0xf3
 4367 00dc 01       		.uleb128 0x1
 4368 00dd 51       		.byte	0x51
 4369 00de 9F       		.byte	0x9f
 4370 00df 00000000 		.4byte	0
 4371 00e3 00000000 		.4byte	0
 4372              	.LLST5:
 4373 00e7 14000000 		.4byte	.LVL4
 4374 00eb 20000000 		.4byte	.LVL6
 4375 00ef 0100     		.2byte	0x1
ARM GAS  /tmp/ccXMVEoh.s 			page 79


 4376 00f1 52       		.byte	0x52
 4377 00f2 20000000 		.4byte	.LVL6
 4378 00f6 34000000 		.4byte	.LFE11
 4379 00fa 0400     		.2byte	0x4
 4380 00fc F3       		.byte	0xf3
 4381 00fd 01       		.uleb128 0x1
 4382 00fe 52       		.byte	0x52
 4383 00ff 9F       		.byte	0x9f
 4384 0100 00000000 		.4byte	0
 4385 0104 00000000 		.4byte	0
 4386              	.LLST6:
 4387 0108 00000000 		.4byte	.LVL8
 4388 010c 13000000 		.4byte	.LVL12-1
 4389 0110 0100     		.2byte	0x1
 4390 0112 50       		.byte	0x50
 4391 0113 13000000 		.4byte	.LVL12-1
 4392 0117 14000000 		.4byte	.LVL12
 4393 011b 0400     		.2byte	0x4
 4394 011d F3       		.byte	0xf3
 4395 011e 01       		.uleb128 0x1
 4396 011f 50       		.byte	0x50
 4397 0120 9F       		.byte	0x9f
 4398 0121 14000000 		.4byte	.LVL12
 4399 0125 2B000000 		.4byte	.LVL16-1
 4400 0129 0100     		.2byte	0x1
 4401 012b 50       		.byte	0x50
 4402 012c 2B000000 		.4byte	.LVL16-1
 4403 0130 A0000000 		.4byte	.LVL23
 4404 0134 0100     		.2byte	0x1
 4405 0136 54       		.byte	0x54
 4406 0137 A0000000 		.4byte	.LVL23
 4407 013b E8000000 		.4byte	.LFE10
 4408 013f 0400     		.2byte	0x4
 4409 0141 F3       		.byte	0xf3
 4410 0142 01       		.uleb128 0x1
 4411 0143 50       		.byte	0x50
 4412 0144 9F       		.byte	0x9f
 4413 0145 00000000 		.4byte	0
 4414 0149 00000000 		.4byte	0
 4415              	.LLST7:
 4416 014d 00000000 		.4byte	.LVL8
 4417 0151 0C000000 		.4byte	.LVL10
 4418 0155 0100     		.2byte	0x1
 4419 0157 51       		.byte	0x51
 4420 0158 0C000000 		.4byte	.LVL10
 4421 015c 14000000 		.4byte	.LVL12
 4422 0160 0400     		.2byte	0x4
 4423 0162 F3       		.byte	0xf3
 4424 0163 01       		.uleb128 0x1
 4425 0164 51       		.byte	0x51
 4426 0165 9F       		.byte	0x9f
 4427 0166 14000000 		.4byte	.LVL12
 4428 016a 24000000 		.4byte	.LVL14
 4429 016e 0100     		.2byte	0x1
 4430 0170 51       		.byte	0x51
 4431 0171 24000000 		.4byte	.LVL14
 4432 0175 E8000000 		.4byte	.LFE10
ARM GAS  /tmp/ccXMVEoh.s 			page 80


 4433 0179 0400     		.2byte	0x4
 4434 017b F3       		.byte	0xf3
 4435 017c 01       		.uleb128 0x1
 4436 017d 51       		.byte	0x51
 4437 017e 9F       		.byte	0x9f
 4438 017f 00000000 		.4byte	0
 4439 0183 00000000 		.4byte	0
 4440              	.LLST8:
 4441 0187 00000000 		.4byte	.LVL8
 4442 018b 10000000 		.4byte	.LVL11
 4443 018f 0100     		.2byte	0x1
 4444 0191 52       		.byte	0x52
 4445 0192 10000000 		.4byte	.LVL11
 4446 0196 14000000 		.4byte	.LVL12
 4447 019a 0400     		.2byte	0x4
 4448 019c F3       		.byte	0xf3
 4449 019d 01       		.uleb128 0x1
 4450 019e 52       		.byte	0x52
 4451 019f 9F       		.byte	0x9f
 4452 01a0 14000000 		.4byte	.LVL12
 4453 01a4 28000000 		.4byte	.LVL15
 4454 01a8 0100     		.2byte	0x1
 4455 01aa 52       		.byte	0x52
 4456 01ab 28000000 		.4byte	.LVL15
 4457 01af E8000000 		.4byte	.LFE10
 4458 01b3 0400     		.2byte	0x4
 4459 01b5 F3       		.byte	0xf3
 4460 01b6 01       		.uleb128 0x1
 4461 01b7 52       		.byte	0x52
 4462 01b8 9F       		.byte	0x9f
 4463 01b9 00000000 		.4byte	0
 4464 01bd 00000000 		.4byte	0
 4465              	.LLST9:
 4466 01c1 08000000 		.4byte	.LVL9
 4467 01c5 14000000 		.4byte	.LVL12
 4468 01c9 0600     		.2byte	0x6
 4469 01cb 03       		.byte	0x3
 4470 01cc 1C000000 		.4byte	.LC3
 4471 01d0 9F       		.byte	0x9f
 4472 01d1 00000000 		.4byte	0
 4473 01d5 00000000 		.4byte	0
 4474              	.LLST10:
 4475 01d9 1C000000 		.4byte	.LVL13
 4476 01dd 24000000 		.4byte	.LVL14
 4477 01e1 0100     		.2byte	0x1
 4478 01e3 51       		.byte	0x51
 4479 01e4 24000000 		.4byte	.LVL14
 4480 01e8 E8000000 		.4byte	.LFE10
 4481 01ec 0400     		.2byte	0x4
 4482 01ee F3       		.byte	0xf3
 4483 01ef 01       		.uleb128 0x1
 4484 01f0 51       		.byte	0x51
 4485 01f1 9F       		.byte	0x9f
 4486 01f2 00000000 		.4byte	0
 4487 01f6 00000000 		.4byte	0
 4488              	.LLST11:
 4489 01fa 1C000000 		.4byte	.LVL13
ARM GAS  /tmp/ccXMVEoh.s 			page 81


 4490 01fe 28000000 		.4byte	.LVL15
 4491 0202 0100     		.2byte	0x1
 4492 0204 52       		.byte	0x52
 4493 0205 28000000 		.4byte	.LVL15
 4494 0209 E8000000 		.4byte	.LFE10
 4495 020d 0400     		.2byte	0x4
 4496 020f F3       		.byte	0xf3
 4497 0210 01       		.uleb128 0x1
 4498 0211 52       		.byte	0x52
 4499 0212 9F       		.byte	0x9f
 4500 0213 00000000 		.4byte	0
 4501 0217 00000000 		.4byte	0
 4502              	.LLST12:
 4503 021b 1C000000 		.4byte	.LVL13
 4504 021f A0000000 		.4byte	.LVL23
 4505 0223 0100     		.2byte	0x1
 4506 0225 54       		.byte	0x54
 4507 0226 A0000000 		.4byte	.LVL23
 4508 022a E8000000 		.4byte	.LFE10
 4509 022e 0400     		.2byte	0x4
 4510 0230 F3       		.byte	0xf3
 4511 0231 01       		.uleb128 0x1
 4512 0232 50       		.byte	0x50
 4513 0233 9F       		.byte	0x9f
 4514 0234 00000000 		.4byte	0
 4515 0238 00000000 		.4byte	0
 4516              	.LLST13:
 4517 023c 00000000 		.4byte	.LVL24
 4518 0240 18000000 		.4byte	.LVL26
 4519 0244 0100     		.2byte	0x1
 4520 0246 50       		.byte	0x50
 4521 0247 18000000 		.4byte	.LVL26
 4522 024b 5C000000 		.4byte	.LVL31
 4523 024f 0400     		.2byte	0x4
 4524 0251 F3       		.byte	0xf3
 4525 0252 01       		.uleb128 0x1
 4526 0253 50       		.byte	0x50
 4527 0254 9F       		.byte	0x9f
 4528 0255 5C000000 		.4byte	.LVL31
 4529 0259 68000000 		.4byte	.LVL33
 4530 025d 0100     		.2byte	0x1
 4531 025f 50       		.byte	0x50
 4532 0260 68000000 		.4byte	.LVL33
 4533 0264 74000000 		.4byte	.LFE20
 4534 0268 0400     		.2byte	0x4
 4535 026a F3       		.byte	0xf3
 4536 026b 01       		.uleb128 0x1
 4537 026c 50       		.byte	0x50
 4538 026d 9F       		.byte	0x9f
 4539 026e 00000000 		.4byte	0
 4540 0272 00000000 		.4byte	0
 4541              	.LLST14:
 4542 0276 00000000 		.4byte	.LVL24
 4543 027a 1C000000 		.4byte	.LVL27
 4544 027e 0100     		.2byte	0x1
 4545 0280 51       		.byte	0x51
 4546 0281 1C000000 		.4byte	.LVL27
ARM GAS  /tmp/ccXMVEoh.s 			page 82


 4547 0285 5C000000 		.4byte	.LVL31
 4548 0289 0100     		.2byte	0x1
 4549 028b 55       		.byte	0x55
 4550 028c 5C000000 		.4byte	.LVL31
 4551 0290 68000000 		.4byte	.LVL33
 4552 0294 0100     		.2byte	0x1
 4553 0296 51       		.byte	0x51
 4554 0297 68000000 		.4byte	.LVL33
 4555 029b 74000000 		.4byte	.LFE20
 4556 029f 0100     		.2byte	0x1
 4557 02a1 55       		.byte	0x55
 4558 02a2 00000000 		.4byte	0
 4559 02a6 00000000 		.4byte	0
 4560              	.LLST15:
 4561 02aa 14000000 		.4byte	.LVL25
 4562 02ae 5C000000 		.4byte	.LVL31
 4563 02b2 0100     		.2byte	0x1
 4564 02b4 54       		.byte	0x54
 4565 02b5 60000000 		.4byte	.LVL32
 4566 02b9 74000000 		.4byte	.LFE20
 4567 02bd 0100     		.2byte	0x1
 4568 02bf 54       		.byte	0x54
 4569 02c0 00000000 		.4byte	0
 4570 02c4 00000000 		.4byte	0
 4571              	.LLST16:
 4572 02c8 00000000 		.4byte	.LVL34
 4573 02cc 14000000 		.4byte	.LVL35
 4574 02d0 0100     		.2byte	0x1
 4575 02d2 50       		.byte	0x50
 4576 02d3 14000000 		.4byte	.LVL35
 4577 02d7 17000000 		.4byte	.LVL36-1
 4578 02db 0200     		.2byte	0x2
 4579 02dd 7D       		.byte	0x7d
 4580 02de 00       		.sleb128 0
 4581 02df 17000000 		.4byte	.LVL36-1
 4582 02e3 24000000 		.4byte	.LFE15
 4583 02e7 0400     		.2byte	0x4
 4584 02e9 F3       		.byte	0xf3
 4585 02ea 01       		.uleb128 0x1
 4586 02eb 50       		.byte	0x50
 4587 02ec 9F       		.byte	0x9f
 4588 02ed 00000000 		.4byte	0
 4589 02f1 00000000 		.4byte	0
 4590              	.LLST17:
 4591 02f5 00000000 		.4byte	.LVL34
 4592 02f9 17000000 		.4byte	.LVL36-1
 4593 02fd 0100     		.2byte	0x1
 4594 02ff 51       		.byte	0x51
 4595 0300 17000000 		.4byte	.LVL36-1
 4596 0304 24000000 		.4byte	.LFE15
 4597 0308 0400     		.2byte	0x4
 4598 030a F3       		.byte	0xf3
 4599 030b 01       		.uleb128 0x1
 4600 030c 51       		.byte	0x51
 4601 030d 9F       		.byte	0x9f
 4602 030e 00000000 		.4byte	0
 4603 0312 00000000 		.4byte	0
ARM GAS  /tmp/ccXMVEoh.s 			page 83


 4604              	.LLST18:
 4605 0316 00000000 		.4byte	.LVL34
 4606 031a 17000000 		.4byte	.LVL36-1
 4607 031e 0100     		.2byte	0x1
 4608 0320 52       		.byte	0x52
 4609 0321 17000000 		.4byte	.LVL36-1
 4610 0325 24000000 		.4byte	.LFE15
 4611 0329 0400     		.2byte	0x4
 4612 032b F3       		.byte	0xf3
 4613 032c 01       		.uleb128 0x1
 4614 032d 52       		.byte	0x52
 4615 032e 9F       		.byte	0x9f
 4616 032f 00000000 		.4byte	0
 4617 0333 00000000 		.4byte	0
 4618              	.LLST19:
 4619 0337 00000000 		.4byte	.LVL37
 4620 033b 10000000 		.4byte	.LVL38
 4621 033f 0100     		.2byte	0x1
 4622 0341 50       		.byte	0x50
 4623 0342 10000000 		.4byte	.LVL38
 4624 0346 1F000000 		.4byte	.LVL42-1
 4625 034a 0200     		.2byte	0x2
 4626 034c 7D       		.byte	0x7d
 4627 034d 00       		.sleb128 0
 4628 034e 1F000000 		.4byte	.LVL42-1
 4629 0352 2C000000 		.4byte	.LFE16
 4630 0356 0400     		.2byte	0x4
 4631 0358 F3       		.byte	0xf3
 4632 0359 01       		.uleb128 0x1
 4633 035a 50       		.byte	0x50
 4634 035b 9F       		.byte	0x9f
 4635 035c 00000000 		.4byte	0
 4636 0360 00000000 		.4byte	0
 4637              	.LLST20:
 4638 0364 00000000 		.4byte	.LVL37
 4639 0368 14000000 		.4byte	.LVL39
 4640 036c 0100     		.2byte	0x1
 4641 036e 51       		.byte	0x51
 4642 036f 14000000 		.4byte	.LVL39
 4643 0373 1F000000 		.4byte	.LVL42-1
 4644 0377 0100     		.2byte	0x1
 4645 0379 50       		.byte	0x50
 4646 037a 1F000000 		.4byte	.LVL42-1
 4647 037e 2C000000 		.4byte	.LFE16
 4648 0382 0400     		.2byte	0x4
 4649 0384 F3       		.byte	0xf3
 4650 0385 01       		.uleb128 0x1
 4651 0386 51       		.byte	0x51
 4652 0387 9F       		.byte	0x9f
 4653 0388 00000000 		.4byte	0
 4654 038c 00000000 		.4byte	0
 4655              	.LLST21:
 4656 0390 00000000 		.4byte	.LVL37
 4657 0394 18000000 		.4byte	.LVL40
 4658 0398 0100     		.2byte	0x1
 4659 039a 52       		.byte	0x52
 4660 039b 18000000 		.4byte	.LVL40
ARM GAS  /tmp/ccXMVEoh.s 			page 84


 4661 039f 1F000000 		.4byte	.LVL42-1
 4662 03a3 0100     		.2byte	0x1
 4663 03a5 51       		.byte	0x51
 4664 03a6 1F000000 		.4byte	.LVL42-1
 4665 03aa 2C000000 		.4byte	.LFE16
 4666 03ae 0400     		.2byte	0x4
 4667 03b0 F3       		.byte	0xf3
 4668 03b1 01       		.uleb128 0x1
 4669 03b2 52       		.byte	0x52
 4670 03b3 9F       		.byte	0x9f
 4671 03b4 00000000 		.4byte	0
 4672 03b8 00000000 		.4byte	0
 4673              	.LLST22:
 4674 03bc 00000000 		.4byte	.LVL37
 4675 03c0 1C000000 		.4byte	.LVL41
 4676 03c4 0100     		.2byte	0x1
 4677 03c6 53       		.byte	0x53
 4678 03c7 1C000000 		.4byte	.LVL41
 4679 03cb 1F000000 		.4byte	.LVL42-1
 4680 03cf 0100     		.2byte	0x1
 4681 03d1 52       		.byte	0x52
 4682 03d2 1F000000 		.4byte	.LVL42-1
 4683 03d6 2C000000 		.4byte	.LFE16
 4684 03da 0400     		.2byte	0x4
 4685 03dc F3       		.byte	0xf3
 4686 03dd 01       		.uleb128 0x1
 4687 03de 53       		.byte	0x53
 4688 03df 9F       		.byte	0x9f
 4689 03e0 00000000 		.4byte	0
 4690 03e4 00000000 		.4byte	0
 4691              	.LLST23:
 4692 03e8 00000000 		.4byte	.LVL43
 4693 03ec 1C000000 		.4byte	.LVL46
 4694 03f0 0100     		.2byte	0x1
 4695 03f2 50       		.byte	0x50
 4696 03f3 1C000000 		.4byte	.LVL46
 4697 03f7 10010000 		.4byte	.LVL58
 4698 03fb 0100     		.2byte	0x1
 4699 03fd 54       		.byte	0x54
 4700 03fe 10010000 		.4byte	.LVL58
 4701 0402 18010000 		.4byte	.LFE17
 4702 0406 0400     		.2byte	0x4
 4703 0408 F3       		.byte	0xf3
 4704 0409 01       		.uleb128 0x1
 4705 040a 50       		.byte	0x50
 4706 040b 9F       		.byte	0x9f
 4707 040c 00000000 		.4byte	0
 4708 0410 00000000 		.4byte	0
 4709              	.LLST24:
 4710 0414 00000000 		.4byte	.LVL43
 4711 0418 1C000000 		.4byte	.LVL46
 4712 041c 0100     		.2byte	0x1
 4713 041e 51       		.byte	0x51
 4714 041f 1C000000 		.4byte	.LVL46
 4715 0423 10010000 		.4byte	.LVL58
 4716 0427 0100     		.2byte	0x1
 4717 0429 57       		.byte	0x57
ARM GAS  /tmp/ccXMVEoh.s 			page 85


 4718 042a 10010000 		.4byte	.LVL58
 4719 042e 18010000 		.4byte	.LFE17
 4720 0432 0400     		.2byte	0x4
 4721 0434 F3       		.byte	0xf3
 4722 0435 01       		.uleb128 0x1
 4723 0436 51       		.byte	0x51
 4724 0437 9F       		.byte	0x9f
 4725 0438 00000000 		.4byte	0
 4726 043c 00000000 		.4byte	0
 4727              	.LLST25:
 4728 0440 00000000 		.4byte	.LVL43
 4729 0444 14000000 		.4byte	.LVL45
 4730 0448 0100     		.2byte	0x1
 4731 044a 52       		.byte	0x52
 4732 044b 14000000 		.4byte	.LVL45
 4733 044f 1C000000 		.4byte	.LVL46
 4734 0453 0300     		.2byte	0x3
 4735 0455 72       		.byte	0x72
 4736 0456 01       		.sleb128 1
 4737 0457 9F       		.byte	0x9f
 4738 0458 1C000000 		.4byte	.LVL46
 4739 045c 18010000 		.4byte	.LFE17
 4740 0460 0400     		.2byte	0x4
 4741 0462 F3       		.byte	0xf3
 4742 0463 01       		.uleb128 0x1
 4743 0464 52       		.byte	0x52
 4744 0465 9F       		.byte	0x9f
 4745 0466 00000000 		.4byte	0
 4746 046a 00000000 		.4byte	0
 4747              	.LLST26:
 4748 046e 08000000 		.4byte	.LVL44
 4749 0472 1C000000 		.4byte	.LVL46
 4750 0476 0100     		.2byte	0x1
 4751 0478 51       		.byte	0x51
 4752 0479 1C000000 		.4byte	.LVL46
 4753 047d 78000000 		.4byte	.LVL48
 4754 0481 0100     		.2byte	0x1
 4755 0483 55       		.byte	0x55
 4756 0484 78000000 		.4byte	.LVL48
 4757 0488 80000000 		.4byte	.LVL49
 4758 048c 0300     		.2byte	0x3
 4759 048e 75       		.byte	0x75
 4760 048f 01       		.sleb128 1
 4761 0490 9F       		.byte	0x9f
 4762 0491 80000000 		.4byte	.LVL49
 4763 0495 C8000000 		.4byte	.LVL52
 4764 0499 0100     		.2byte	0x1
 4765 049b 55       		.byte	0x55
 4766 049c C8000000 		.4byte	.LVL52
 4767 04a0 CC000000 		.4byte	.LVL53
 4768 04a4 0300     		.2byte	0x3
 4769 04a6 75       		.byte	0x75
 4770 04a7 01       		.sleb128 1
 4771 04a8 9F       		.byte	0x9f
 4772 04a9 CC000000 		.4byte	.LVL53
 4773 04ad 10010000 		.4byte	.LVL58
 4774 04b1 0100     		.2byte	0x1
ARM GAS  /tmp/ccXMVEoh.s 			page 86


 4775 04b3 55       		.byte	0x55
 4776 04b4 00000000 		.4byte	0
 4777 04b8 00000000 		.4byte	0
 4778              	.LLST27:
 4779 04bc 00000000 		.4byte	.LVL59
 4780 04c0 20000000 		.4byte	.LVL62
 4781 04c4 0100     		.2byte	0x1
 4782 04c6 50       		.byte	0x50
 4783 04c7 20000000 		.4byte	.LVL62
 4784 04cb 9C020000 		.4byte	.LFE13
 4785 04cf 0400     		.2byte	0x4
 4786 04d1 F3       		.byte	0xf3
 4787 04d2 01       		.uleb128 0x1
 4788 04d3 50       		.byte	0x50
 4789 04d4 9F       		.byte	0x9f
 4790 04d5 00000000 		.4byte	0
 4791 04d9 00000000 		.4byte	0
 4792              	.LLST28:
 4793 04dd 68000000 		.4byte	.LVL67
 4794 04e1 6C000000 		.4byte	.LVL68
 4795 04e5 0200     		.2byte	0x2
 4796 04e7 30       		.byte	0x30
 4797 04e8 9F       		.byte	0x9f
 4798 04e9 6C000000 		.4byte	.LVL68
 4799 04ed 18010000 		.4byte	.LVL83
 4800 04f1 0100     		.2byte	0x1
 4801 04f3 54       		.byte	0x54
 4802 04f4 48010000 		.4byte	.LVL87
 4803 04f8 A4010000 		.4byte	.LVL96
 4804 04fc 0100     		.2byte	0x1
 4805 04fe 54       		.byte	0x54
 4806 04ff 00020000 		.4byte	.LVL107
 4807 0503 9C020000 		.4byte	.LFE13
 4808 0507 0100     		.2byte	0x1
 4809 0509 54       		.byte	0x54
 4810 050a 00000000 		.4byte	0
 4811 050e 00000000 		.4byte	0
 4812              	.LLST29:
 4813 0512 0C000000 		.4byte	.LVL60
 4814 0516 08010000 		.4byte	.LVL81
 4815 051a 0100     		.2byte	0x1
 4816 051c 56       		.byte	0x56
 4817 051d 08010000 		.4byte	.LVL81
 4818 0521 13010000 		.4byte	.LVL82-1
 4819 0525 0100     		.2byte	0x1
 4820 0527 50       		.byte	0x50
 4821 0528 13010000 		.4byte	.LVL82-1
 4822 052c 90010000 		.4byte	.LVL94
 4823 0530 0100     		.2byte	0x1
 4824 0532 56       		.byte	0x56
 4825 0533 90010000 		.4byte	.LVL94
 4826 0537 97010000 		.4byte	.LVL95-1
 4827 053b 0100     		.2byte	0x1
 4828 053d 50       		.byte	0x50
 4829 053e 97010000 		.4byte	.LVL95-1
 4830 0542 9C020000 		.4byte	.LFE13
 4831 0546 0100     		.2byte	0x1
ARM GAS  /tmp/ccXMVEoh.s 			page 87


 4832 0548 56       		.byte	0x56
 4833 0549 00000000 		.4byte	0
 4834 054d 00000000 		.4byte	0
 4835              	.LLST30:
 4836 0551 68000000 		.4byte	.LVL67
 4837 0555 70000000 		.4byte	.LVL69
 4838 0559 0100     		.2byte	0x1
 4839 055b 50       		.byte	0x50
 4840 055c 78000000 		.4byte	.LVL70
 4841 0560 94000000 		.4byte	.LVL72
 4842 0564 0100     		.2byte	0x1
 4843 0566 50       		.byte	0x50
 4844 0567 A4000000 		.4byte	.LVL74
 4845 056b BC000000 		.4byte	.LVL75
 4846 056f 0100     		.2byte	0x1
 4847 0571 50       		.byte	0x50
 4848 0572 BC000000 		.4byte	.LVL75
 4849 0576 C3000000 		.4byte	.LVL76-1
 4850 057a 0300     		.2byte	0x3
 4851 057c 73       		.byte	0x73
 4852 057d AC7F     		.sleb128 -84
 4853 057f 00000000 		.4byte	0
 4854 0583 00000000 		.4byte	0
 4855              	.LLST31:
 4856 0587 68000000 		.4byte	.LVL67
 4857 058b 6C000000 		.4byte	.LVL68
 4858 058f 0100     		.2byte	0x1
 4859 0591 50       		.byte	0x50
 4860 0592 6C000000 		.4byte	.LVL68
 4861 0596 9C000000 		.4byte	.LVL73
 4862 059a 0100     		.2byte	0x1
 4863 059c 5A       		.byte	0x5a
 4864 059d 9C000000 		.4byte	.LVL73
 4865 05a1 A4000000 		.4byte	.LVL74
 4866 05a5 0200     		.2byte	0x2
 4867 05a7 30       		.byte	0x30
 4868 05a8 9F       		.byte	0x9f
 4869 05a9 A4000000 		.4byte	.LVL74
 4870 05ad 18010000 		.4byte	.LVL83
 4871 05b1 0100     		.2byte	0x1
 4872 05b3 5A       		.byte	0x5a
 4873 05b4 48010000 		.4byte	.LVL87
 4874 05b8 9C020000 		.4byte	.LFE13
 4875 05bc 0100     		.2byte	0x1
 4876 05be 5A       		.byte	0x5a
 4877 05bf 00000000 		.4byte	0
 4878 05c3 00000000 		.4byte	0
 4879              	.LLST32:
 4880 05c7 98010000 		.4byte	.LVL95
 4881 05cb A8010000 		.4byte	.LVL97
 4882 05cf 0600     		.2byte	0x6
 4883 05d1 03       		.byte	0x3
 4884 05d2 00000000 		.4byte	local_commands
 4885 05d6 9F       		.byte	0x9f
 4886 05d7 A8010000 		.4byte	.LVL97
 4887 05db B4010000 		.4byte	.LVL98
 4888 05df 0100     		.2byte	0x1
ARM GAS  /tmp/ccXMVEoh.s 			page 88


 4889 05e1 54       		.byte	0x54
 4890 05e2 B4010000 		.4byte	.LVL98
 4891 05e6 B8010000 		.4byte	.LVL99
 4892 05ea 0300     		.2byte	0x3
 4893 05ec 74       		.byte	0x74
 4894 05ed 08       		.sleb128 8
 4895 05ee 9F       		.byte	0x9f
 4896 05ef B8010000 		.4byte	.LVL99
 4897 05f3 C0010000 		.4byte	.LVL100
 4898 05f7 0100     		.2byte	0x1
 4899 05f9 54       		.byte	0x54
 4900 05fa 00000000 		.4byte	0
 4901 05fe 00000000 		.4byte	0
 4902              	.LLST33:
 4903 0602 98010000 		.4byte	.LVL95
 4904 0606 00020000 		.4byte	.LVL107
 4905 060a 0100     		.2byte	0x1
 4906 060c 56       		.byte	0x56
 4907 060d 00000000 		.4byte	0
 4908 0611 00000000 		.4byte	0
 4909              	.LLST34:
 4910 0615 D4000000 		.4byte	.LVL77
 4911 0619 E8000000 		.4byte	.LVL79
 4912 061d 0600     		.2byte	0x6
 4913 061f 03       		.byte	0x3
 4914 0620 84010000 		.4byte	.LC28
 4915 0624 9F       		.byte	0x9f
 4916 0625 00000000 		.4byte	0
 4917 0629 00000000 		.4byte	0
 4918              	.LLST35:
 4919 062d D4000000 		.4byte	.LVL77
 4920 0631 E8000000 		.4byte	.LVL79
 4921 0635 0100     		.2byte	0x1
 4922 0637 56       		.byte	0x56
 4923 0638 00000000 		.4byte	0
 4924 063c 00000000 		.4byte	0
 4925              	.LLST36:
 4926 0640 08010000 		.4byte	.LVL81
 4927 0644 18010000 		.4byte	.LVL83
 4928 0648 0600     		.2byte	0x6
 4929 064a 03       		.byte	0x3
 4930 064b 8C010000 		.4byte	.LC29
 4931 064f 9F       		.byte	0x9f
 4932 0650 00000000 		.4byte	0
 4933 0654 00000000 		.4byte	0
 4934              	.LLST37:
 4935 0658 08010000 		.4byte	.LVL81
 4936 065c 13010000 		.4byte	.LVL82-1
 4937 0660 0100     		.2byte	0x1
 4938 0662 50       		.byte	0x50
 4939 0663 13010000 		.4byte	.LVL82-1
 4940 0667 18010000 		.4byte	.LVL83
 4941 066b 0100     		.2byte	0x1
 4942 066d 56       		.byte	0x56
 4943 066e 00000000 		.4byte	0
 4944 0672 00000000 		.4byte	0
 4945              	.LLST38:
ARM GAS  /tmp/ccXMVEoh.s 			page 89


 4946 0676 48010000 		.4byte	.LVL87
 4947 067a 5C010000 		.4byte	.LVL88
 4948 067e 0600     		.2byte	0x6
 4949 0680 03       		.byte	0x3
 4950 0681 00000000 		.4byte	local_commands
 4951 0685 9F       		.byte	0x9f
 4952 0686 5C010000 		.4byte	.LVL88
 4953 068a 60010000 		.4byte	.LVL89
 4954 068e 0300     		.2byte	0x3
 4955 0690 75       		.byte	0x75
 4956 0691 08       		.sleb128 8
 4957 0692 9F       		.byte	0x9f
 4958 0693 60010000 		.4byte	.LVL89
 4959 0697 70010000 		.4byte	.LVL91
 4960 069b 0100     		.2byte	0x1
 4961 069d 55       		.byte	0x55
 4962 069e 70010000 		.4byte	.LVL91
 4963 06a2 78010000 		.4byte	.LVL92
 4964 06a6 0300     		.2byte	0x3
 4965 06a8 75       		.byte	0x75
 4966 06a9 08       		.sleb128 8
 4967 06aa 9F       		.byte	0x9f
 4968 06ab 00000000 		.4byte	0
 4969 06af 00000000 		.4byte	0
 4970              	.LLST39:
 4971 06b3 08020000 		.4byte	.LVL108
 4972 06b7 1C020000 		.4byte	.LVL109
 4973 06bb 0100     		.2byte	0x1
 4974 06bd 58       		.byte	0x58
 4975 06be 1C020000 		.4byte	.LVL109
 4976 06c2 20020000 		.4byte	.LVL110
 4977 06c6 0300     		.2byte	0x3
 4978 06c8 75       		.byte	0x75
 4979 06c9 08       		.sleb128 8
 4980 06ca 9F       		.byte	0x9f
 4981 06cb 20020000 		.4byte	.LVL110
 4982 06cf 30020000 		.4byte	.LVL112
 4983 06d3 0100     		.2byte	0x1
 4984 06d5 55       		.byte	0x55
 4985 06d6 30020000 		.4byte	.LVL112
 4986 06da 3C020000 		.4byte	.LVL113
 4987 06de 0300     		.2byte	0x3
 4988 06e0 75       		.byte	0x75
 4989 06e1 08       		.sleb128 8
 4990 06e2 9F       		.byte	0x9f
 4991 06e3 00000000 		.4byte	0
 4992 06e7 00000000 		.4byte	0
 4993              	.LLST40:
 4994 06eb C8010000 		.4byte	.LVL101
 4995 06ef D8010000 		.4byte	.LVL102
 4996 06f3 0100     		.2byte	0x1
 4997 06f5 58       		.byte	0x58
 4998 06f6 D8010000 		.4byte	.LVL102
 4999 06fa E4010000 		.4byte	.LVL103
 5000 06fe 0100     		.2byte	0x1
 5001 0700 54       		.byte	0x54
 5002 0701 E4010000 		.4byte	.LVL103
ARM GAS  /tmp/ccXMVEoh.s 			page 90


 5003 0705 E8010000 		.4byte	.LVL104
 5004 0709 0300     		.2byte	0x3
 5005 070b 74       		.byte	0x74
 5006 070c 08       		.sleb128 8
 5007 070d 9F       		.byte	0x9f
 5008 070e E8010000 		.4byte	.LVL104
 5009 0712 F0010000 		.4byte	.LVL105
 5010 0716 0100     		.2byte	0x1
 5011 0718 54       		.byte	0x54
 5012 0719 00000000 		.4byte	0
 5013 071d 00000000 		.4byte	0
 5014              		.section	.debug_aranges,"",%progbits
 5015 0000 54000000 		.4byte	0x54
 5016 0004 0200     		.2byte	0x2
 5017 0006 00000000 		.4byte	.Ldebug_info0
 5018 000a 04       		.byte	0x4
 5019 000b 00       		.byte	0
 5020 000c 0000     		.2byte	0
 5021 000e 0000     		.2byte	0
 5022 0010 00000000 		.4byte	.LFB11
 5023 0014 34000000 		.4byte	.LFE11-.LFB11
 5024 0018 00000000 		.4byte	.LFB10
 5025 001c E8000000 		.4byte	.LFE10-.LFB10
 5026 0020 00000000 		.4byte	.LFB20
 5027 0024 74000000 		.4byte	.LFE20-.LFB20
 5028 0028 00000000 		.4byte	.LFB14
 5029 002c 10000000 		.4byte	.LFE14-.LFB14
 5030 0030 00000000 		.4byte	.LFB15
 5031 0034 24000000 		.4byte	.LFE15-.LFB15
 5032 0038 00000000 		.4byte	.LFB16
 5033 003c 2C000000 		.4byte	.LFE16-.LFB16
 5034 0040 00000000 		.4byte	.LFB17
 5035 0044 18010000 		.4byte	.LFE17-.LFB17
 5036 0048 00000000 		.4byte	.LFB13
 5037 004c 9C020000 		.4byte	.LFE13-.LFB13
 5038 0050 00000000 		.4byte	0
 5039 0054 00000000 		.4byte	0
 5040              		.section	.debug_ranges,"",%progbits
 5041              	.Ldebug_ranges0:
 5042 0000 10000000 		.4byte	.LBB38
 5043 0004 14000000 		.4byte	.LBE38
 5044 0008 18000000 		.4byte	.LBB39
 5045 000c D4000000 		.4byte	.LBE39
 5046 0010 DC000000 		.4byte	.LBB40
 5047 0014 EC000000 		.4byte	.LBE40
 5048 0018 F4000000 		.4byte	.LBB41
 5049 001c 08010000 		.4byte	.LBE41
 5050 0020 00000000 		.4byte	0
 5051 0024 00000000 		.4byte	0
 5052 0028 2C000000 		.4byte	.LBB54
 5053 002c 30000000 		.4byte	.LBE54
 5054 0030 98010000 		.4byte	.LBB68
 5055 0034 C0010000 		.4byte	.LBE68
 5056 0038 00000000 		.4byte	0
 5057 003c 00000000 		.4byte	0
 5058 0040 00010000 		.4byte	.LBB59
 5059 0044 04010000 		.4byte	.LBE59
ARM GAS  /tmp/ccXMVEoh.s 			page 91


 5060 0048 08010000 		.4byte	.LBB62
 5061 004c 14010000 		.4byte	.LBE62
 5062 0050 00000000 		.4byte	0
 5063 0054 00000000 		.4byte	0
 5064 0058 78010000 		.4byte	.LBB65
 5065 005c 90010000 		.4byte	.LBE65
 5066 0060 08020000 		.4byte	.LBB71
 5067 0064 3C020000 		.4byte	.LBE71
 5068 0068 00000000 		.4byte	0
 5069 006c 00000000 		.4byte	0
 5070 0070 00000000 		.4byte	.LFB11
 5071 0074 34000000 		.4byte	.LFE11
 5072 0078 00000000 		.4byte	.LFB10
 5073 007c E8000000 		.4byte	.LFE10
 5074 0080 00000000 		.4byte	.LFB20
 5075 0084 74000000 		.4byte	.LFE20
 5076 0088 00000000 		.4byte	.LFB14
 5077 008c 10000000 		.4byte	.LFE14
 5078 0090 00000000 		.4byte	.LFB15
 5079 0094 24000000 		.4byte	.LFE15
 5080 0098 00000000 		.4byte	.LFB16
 5081 009c 2C000000 		.4byte	.LFE16
 5082 00a0 00000000 		.4byte	.LFB17
 5083 00a4 18010000 		.4byte	.LFE17
 5084 00a8 00000000 		.4byte	.LFB13
 5085 00ac 9C020000 		.4byte	.LFE13
 5086 00b0 00000000 		.4byte	0
 5087 00b4 00000000 		.4byte	0
 5088              		.section	.debug_line,"",%progbits
 5089              	.Ldebug_line0:
 5090 0000 1A030000 		.section	.debug_str,"MS",%progbits,1
 5090      0200CC01 
 5090      00000201 
 5090      FB0E0D00 
 5090      01010101 
 5091              	.LASF53:
 5092 0000 76746675 		.ascii	"vtfunc_t\000"
 5092      6E635F74 
 5092      00
 5093              	.LASF48:
 5094 0009 54687265 		.ascii	"ThreadsList\000"
 5094      6164734C 
 5094      69737400 
 5095              	.LASF41:
 5096 0015 705F7761 		.ascii	"p_waiting\000"
 5096      6974696E 
 5096      6700
 5097              	.LASF121:
 5098 001f 6E616D65 		.ascii	"name\000"
 5098      00
 5099              	.LASF40:
 5100 0024 705F7469 		.ascii	"p_time\000"
 5100      6D6500
 5101              	.LASF50:
 5102 002b 72656761 		.ascii	"regarm_t\000"
 5102      726D5F74 
 5102      00
ARM GAS  /tmp/ccXMVEoh.s 			page 92


 5103              	.LASF31:
 5104 0034 705F7072 		.ascii	"p_prio\000"
 5104      696F00
 5105              	.LASF27:
 5106 003b 73797374 		.ascii	"systime_t\000"
 5106      696D655F 
 5106      7400
 5107              	.LASF71:
 5108 0045 6D5F6F77 		.ascii	"m_owner\000"
 5108      6E657200 
 5109              	.LASF60:
 5110 004d 76745F73 		.ascii	"vt_systime\000"
 5110      79737469 
 5110      6D6500
 5111              	.LASF42:
 5112 0058 705F6D73 		.ascii	"p_msgqueue\000"
 5112      67717565 
 5112      756500
 5113              	.LASF0:
 5114 0063 756E7369 		.ascii	"unsigned int\000"
 5114      676E6564 
 5114      20696E74 
 5114      00
 5115              	.LASF86:
 5116 0070 6E657874 		.ascii	"next\000"
 5116      00
 5117              	.LASF95:
 5118 0075 42617365 		.ascii	"BaseSequentialStreamVMT\000"
 5118      53657175 
 5118      656E7469 
 5118      616C5374 
 5118      7265616D 
 5119              	.LASF7:
 5120 008d 5F5F696E 		.ascii	"__int32_t\000"
 5120      7433325F 
 5120      7400
 5121              	.LASF84:
 5122 0097 685F6672 		.ascii	"h_free\000"
 5122      656500
 5123              	.LASF76:
 5124 009e 656C5F6D 		.ascii	"el_mask\000"
 5124      61736B00 
 5125              	.LASF87:
 5126 00a6 68656170 		.ascii	"heap\000"
 5126      00
 5127              	.LASF92:
 5128 00ab 77746F62 		.ascii	"wtobjp\000"
 5128      6A7000
 5129              	.LASF125:
 5130 00b2 76746C69 		.ascii	"vtlist\000"
 5130      737400
 5131              	.LASF93:
 5132 00b9 65776D61 		.ascii	"ewmask\000"
 5132      736B00
 5133              	.LASF57:
 5134 00c0 76745F74 		.ascii	"vt_time\000"
 5134      696D6500 
ARM GAS  /tmp/ccXMVEoh.s 			page 93


 5135              	.LASF124:
 5136 00c8 6C6F6361 		.ascii	"local_commands\000"
 5136      6C5F636F 
 5136      6D6D616E 
 5136      647300
 5137              	.LASF17:
 5138 00d7 75696E74 		.ascii	"uint32_t\000"
 5138      33325F74 
 5138      00
 5139              	.LASF143:
 5140 00e0 63685468 		.ascii	"chThdExitS\000"
 5140      64457869 
 5140      745300
 5141              	.LASF112:
 5142 00eb 64656C69 		.ascii	"delim\000"
 5142      6D00
 5143              	.LASF115:
 5144 00f1 7368656C 		.ascii	"shellCreate\000"
 5144      6C437265 
 5144      61746500 
 5145              	.LASF25:
 5146 00fd 6576656E 		.ascii	"eventmask_t\000"
 5146      746D6173 
 5146      6B5F7400 
 5147              	.LASF63:
 5148 0109 725F7072 		.ascii	"r_prio\000"
 5148      696F00
 5149              	.LASF59:
 5150 0110 76745F70 		.ascii	"vt_par\000"
 5150      617200
 5151              	.LASF23:
 5152 0117 74707269 		.ascii	"tprio_t\000"
 5152      6F5F7400 
 5153              	.LASF94:
 5154 011f 7466756E 		.ascii	"tfunc_t\000"
 5154      635F7400 
 5155              	.LASF12:
 5156 0127 6C6F6E67 		.ascii	"long long unsigned int\000"
 5156      206C6F6E 
 5156      6720756E 
 5156      7369676E 
 5156      65642069 
 5157              	.LASF105:
 5158 013e 5368656C 		.ascii	"ShellConfig\000"
 5158      6C436F6E 
 5158      66696700 
 5159              	.LASF33:
 5160 014a 705F6E65 		.ascii	"p_newer\000"
 5160      77657200 
 5161              	.LASF78:
 5162 0152 4576656E 		.ascii	"EventSource\000"
 5162      74536F75 
 5162      72636500 
 5163              	.LASF137:
 5164 015e 68656170 		.ascii	"heap_header\000"
 5164      5F686561 
 5164      64657200 
ARM GAS  /tmp/ccXMVEoh.s 			page 94


 5165              	.LASF2:
 5166 016a 73697A65 		.ascii	"size_t\000"
 5166      5F7400
 5167              	.LASF90:
 5168 0171 7264796D 		.ascii	"rdymsg\000"
 5168      736700
 5169              	.LASF18:
 5170 0178 626F6F6C 		.ascii	"bool_t\000"
 5170      5F7400
 5171              	.LASF135:
 5172 017f 2E2E2F2E 		.ascii	"../../os/various/shell.c\000"
 5172      2E2F6F73 
 5172      2F766172 
 5172      696F7573 
 5172      2F736865 
 5173              	.LASF108:
 5174 0198 61726763 		.ascii	"argc\000"
 5174      00
 5175              	.LASF69:
 5176 019d 4D757465 		.ascii	"Mutex\000"
 5176      7800
 5177              	.LASF132:
 5178 01a3 63687072 		.ascii	"chprintf\000"
 5178      696E7466 
 5178      00
 5179              	.LASF35:
 5180 01ac 705F6E61 		.ascii	"p_name\000"
 5180      6D6500
 5181              	.LASF98:
 5182 01b3 42617365 		.ascii	"BaseSequentialStream\000"
 5182      53657175 
 5182      656E7469 
 5182      616C5374 
 5182      7265616D 
 5183              	.LASF114:
 5184 01c8 7072696F 		.ascii	"prio\000"
 5184      00
 5185              	.LASF83:
 5186 01cd 685F7072 		.ascii	"h_provider\000"
 5186      6F766964 
 5186      657200
 5187              	.LASF47:
 5188 01d8 54687265 		.ascii	"ThreadsQueue\000"
 5188      61647351 
 5188      75657565 
 5188      00
 5189              	.LASF14:
 5190 01e5 63686172 		.ascii	"char\000"
 5190      00
 5191              	.LASF65:
 5192 01ea 725F6E65 		.ascii	"r_newer\000"
 5192      77657200 
 5193              	.LASF28:
 5194 01f2 54687265 		.ascii	"Thread\000"
 5194      616400
 5195              	.LASF20:
 5196 01f9 74737461 		.ascii	"tstate_t\000"
ARM GAS  /tmp/ccXMVEoh.s 			page 95


 5196      74655F74 
 5196      00
 5197              	.LASF61:
 5198 0202 56544C69 		.ascii	"VTList\000"
 5198      737400
 5199              	.LASF99:
 5200 0209 7368656C 		.ascii	"shellcmd_t\000"
 5200      6C636D64 
 5200      5F7400
 5201              	.LASF133:
 5202 0214 63684576 		.ascii	"chEvtBroadcastFlagsI\000"
 5202      7442726F 
 5202      61646361 
 5202      7374466C 
 5202      61677349 
 5203              	.LASF34:
 5204 0229 705F6F6C 		.ascii	"p_older\000"
 5204      64657200 
 5205              	.LASF36:
 5206 0231 705F7374 		.ascii	"p_state\000"
 5206      61746500 
 5207              	.LASF120:
 5208 0239 636D6465 		.ascii	"cmdexec\000"
 5208      78656300 
 5209              	.LASF15:
 5210 0241 75696E74 		.ascii	"uint8_t\000"
 5210      385F7400 
 5211              	.LASF26:
 5212 0249 666C6167 		.ascii	"flagsmask_t\000"
 5212      736D6173 
 5212      6B5F7400 
 5213              	.LASF111:
 5214 0255 6C697374 		.ascii	"list_commands\000"
 5214      5F636F6D 
 5214      6D616E64 
 5214      7300
 5215              	.LASF45:
 5216 0263 705F6D74 		.ascii	"p_mtxlist\000"
 5216      786C6973 
 5216      7400
 5217              	.LASF85:
 5218 026d 685F6D74 		.ascii	"h_mtx\000"
 5218      7800
 5219              	.LASF11:
 5220 0273 6C6F6E67 		.ascii	"long long int\000"
 5220      206C6F6E 
 5220      6720696E 
 5220      7400
 5221              	.LASF96:
 5222 0281 77726974 		.ascii	"write\000"
 5222      6500
 5223              	.LASF62:
 5224 0287 725F7175 		.ascii	"r_queue\000"
 5224      65756500 
 5225              	.LASF24:
 5226 028f 6D73675F 		.ascii	"msg_t\000"
 5226      7400
ARM GAS  /tmp/ccXMVEoh.s 			page 96


 5227              	.LASF52:
 5228 0295 636F6E74 		.ascii	"context\000"
 5228      65787400 
 5229              	.LASF37:
 5230 029d 705F666C 		.ascii	"p_flags\000"
 5230      61677300 
 5231              	.LASF128:
 5232 02a5 73747273 		.ascii	"strspn\000"
 5232      706E00
 5233              	.LASF122:
 5234 02ac 746F6B70 		.ascii	"tokp\000"
 5234      00
 5235              	.LASF89:
 5236 02b1 73697A65 		.ascii	"size\000"
 5236      00
 5237              	.LASF22:
 5238 02b6 74736C69 		.ascii	"tslices_t\000"
 5238      6365735F 
 5238      7400
 5239              	.LASF66:
 5240 02c0 725F6F6C 		.ascii	"r_older\000"
 5240      64657200 
 5241              	.LASF113:
 5242 02c8 73617665 		.ascii	"saveptr\000"
 5242      70747200 
 5243              	.LASF140:
 5244 02d0 7368656C 		.ascii	"shell_thread\000"
 5244      6C5F7468 
 5244      72656164 
 5244      00
 5245              	.LASF130:
 5246 02dd 63685468 		.ascii	"chThdCreateStatic\000"
 5246      64437265 
 5246      61746553 
 5246      74617469 
 5246      6300
 5247              	.LASF74:
 5248 02ef 656C5F6E 		.ascii	"el_next\000"
 5248      65787400 
 5249              	.LASF43:
 5250 02f7 705F6D73 		.ascii	"p_msg\000"
 5250      6700
 5251              	.LASF19:
 5252 02fd 746D6F64 		.ascii	"tmode_t\000"
 5252      655F7400 
 5253              	.LASF139:
 5254 0305 7368656C 		.ascii	"shellInit\000"
 5254      6C496E69 
 5254      7400
 5255              	.LASF123:
 5256 030f 61726773 		.ascii	"args\000"
 5256      00
 5257              	.LASF109:
 5258 0314 61726776 		.ascii	"argv\000"
 5258      00
 5259              	.LASF116:
 5260 0319 7368656C 		.ascii	"shellCreateStatic\000"
ARM GAS  /tmp/ccXMVEoh.s 			page 97


 5260      6C437265 
 5260      61746553 
 5260      74617469 
 5260      6300
 5261              	.LASF138:
 5262 032b 746F6B65 		.ascii	"token\000"
 5262      6E00
 5263              	.LASF51:
 5264 0331 696E7463 		.ascii	"intctx\000"
 5264      747800
 5265              	.LASF100:
 5266 0338 73635F6E 		.ascii	"sc_name\000"
 5266      616D6500 
 5267              	.LASF103:
 5268 0340 73635F63 		.ascii	"sc_channel\000"
 5268      68616E6E 
 5268      656C00
 5269              	.LASF102:
 5270 034b 5368656C 		.ascii	"ShellCommand\000"
 5270      6C436F6D 
 5270      6D616E64 
 5270      00
 5271              	.LASF142:
 5272 0358 73747263 		.ascii	"strchr\000"
 5272      687200
 5273              	.LASF46:
 5274 035f 705F7265 		.ascii	"p_realprio\000"
 5274      616C7072 
 5274      696F00
 5275              	.LASF5:
 5276 036a 73686F72 		.ascii	"short int\000"
 5276      7420696E 
 5276      7400
 5277              	.LASF82:
 5278 0374 6D656D6F 		.ascii	"memory_heap\000"
 5278      72795F68 
 5278      65617000 
 5279              	.LASF67:
 5280 0380 725F6375 		.ascii	"r_current\000"
 5280      7272656E 
 5280      7400
 5281              	.LASF110:
 5282 038a 636D645F 		.ascii	"cmd_info\000"
 5282      696E666F 
 5282      00
 5283              	.LASF44:
 5284 0393 705F6570 		.ascii	"p_epending\000"
 5284      656E6469 
 5284      6E6700
 5285              	.LASF70:
 5286 039e 6D5F7175 		.ascii	"m_queue\000"
 5286      65756500 
 5287              	.LASF8:
 5288 03a6 6C6F6E67 		.ascii	"long int\000"
 5288      20696E74 
 5288      00
 5289              	.LASF134:
ARM GAS  /tmp/ccXMVEoh.s 			page 98


 5290 03af 474E5520 		.ascii	"GNU C 4.9.3 20150529 (prerelease) -mcpu=arm1176jz-s"
 5290      4320342E 
 5290      392E3320 
 5290      32303135 
 5290      30353239 
 5291 03e2 202D6D6E 		.ascii	" -mno-thumb-interwork -ggdb -O2 -fomit-frame-pointe"
 5291      6F2D7468 
 5291      756D622D 
 5291      696E7465 
 5291      72776F72 
 5292 0415 72202D66 		.ascii	"r -ffunction-sections -fdata-sections\000"
 5292      66756E63 
 5292      74696F6E 
 5292      2D736563 
 5292      74696F6E 
 5293              	.LASF29:
 5294 043b 705F6E65 		.ascii	"p_next\000"
 5294      787400
 5295              	.LASF32:
 5296 0442 705F6374 		.ascii	"p_ctx\000"
 5296      7800
 5297              	.LASF126:
 5298 0448 726C6973 		.ascii	"rlist\000"
 5298      7400
 5299              	.LASF54:
 5300 044e 56697274 		.ascii	"VirtualTimer\000"
 5300      75616C54 
 5300      696D6572 
 5300      00
 5301              	.LASF106:
 5302 045b 75736167 		.ascii	"usage\000"
 5302      6500
 5303              	.LASF3:
 5304 0461 5F5F7569 		.ascii	"__uint8_t\000"
 5304      6E74385F 
 5304      7400
 5305              	.LASF80:
 5306 046b 6D656D67 		.ascii	"memgetfunc_t\000"
 5306      65746675 
 5306      6E635F74 
 5306      00
 5307              	.LASF97:
 5308 0478 72656164 		.ascii	"read\000"
 5308      00
 5309              	.LASF75:
 5310 047d 656C5F6C 		.ascii	"el_listener\000"
 5310      69737465 
 5310      6E657200 
 5311              	.LASF104:
 5312 0489 73635F63 		.ascii	"sc_commands\000"
 5312      6F6D6D61 
 5312      6E647300 
 5313              	.LASF131:
 5314 0495 73747263 		.ascii	"strcasecmp\000"
 5314      61736563 
 5314      6D7000
 5315              	.LASF30:
ARM GAS  /tmp/ccXMVEoh.s 			page 99


 5316 04a0 705F7072 		.ascii	"p_prev\000"
 5316      657600
 5317              	.LASF13:
 5318 04a7 73697A65 		.ascii	"sizetype\000"
 5318      74797065 
 5318      00
 5319              	.LASF21:
 5320 04b0 74726566 		.ascii	"trefs_t\000"
 5320      735F7400 
 5321              	.LASF73:
 5322 04b8 4576656E 		.ascii	"EventListener\000"
 5322      744C6973 
 5322      74656E65 
 5322      7200
 5323              	.LASF10:
 5324 04c6 6C6F6E67 		.ascii	"long unsigned int\000"
 5324      20756E73 
 5324      69676E65 
 5324      6420696E 
 5324      7400
 5325              	.LASF16:
 5326 04d8 696E7433 		.ascii	"int32_t\000"
 5326      325F7400 
 5327              	.LASF119:
 5328 04e0 5F737472 		.ascii	"_strtok\000"
 5328      746F6B00 
 5329              	.LASF129:
 5330 04e8 63685468 		.ascii	"chThdCreateFromHeap\000"
 5330      64437265 
 5330      61746546 
 5330      726F6D48 
 5330      65617000 
 5331              	.LASF117:
 5332 04fc 7368656C 		.ascii	"shellGetLine\000"
 5332      6C476574 
 5332      4C696E65 
 5332      00
 5333              	.LASF107:
 5334 0509 636D645F 		.ascii	"cmd_systime\000"
 5334      73797374 
 5334      696D6500 
 5335              	.LASF4:
 5336 0515 756E7369 		.ascii	"unsigned char\000"
 5336      676E6564 
 5336      20636861 
 5336      7200
 5337              	.LASF9:
 5338 0523 5F5F7569 		.ascii	"__uint32_t\000"
 5338      6E743332 
 5338      5F7400
 5339              	.LASF118:
 5340 052e 6C696E65 		.ascii	"line\000"
 5340      00
 5341              	.LASF38:
 5342 0533 705F7265 		.ascii	"p_refs\000"
 5342      667300
 5343              	.LASF68:
ARM GAS  /tmp/ccXMVEoh.s 			page 100


 5344 053a 52656164 		.ascii	"ReadyList\000"
 5344      794C6973 
 5344      7400
 5345              	.LASF136:
 5346 0544 2F686F6D 		.ascii	"/home/hunter/development/chibi/ChibiOS-RPi/demos/AR"
 5346      652F6875 
 5346      6E746572 
 5346      2F646576 
 5346      656C6F70 
 5347 0577 4D31312D 		.ascii	"M11-BCM2835-GCC\000"
 5347      42434D32 
 5347      3833352D 
 5347      47434300 
 5348              	.LASF39:
 5349 0587 705F7072 		.ascii	"p_preempt\000"
 5349      65656D70 
 5349      7400
 5350              	.LASF79:
 5351 0591 65735F6E 		.ascii	"es_next\000"
 5351      65787400 
 5352              	.LASF55:
 5353 0599 76745F6E 		.ascii	"vt_next\000"
 5353      65787400 
 5354              	.LASF141:
 5355 05a1 5F5F6275 		.ascii	"__builtin_strchr\000"
 5355      696C7469 
 5355      6E5F7374 
 5355      72636872 
 5355      00
 5356              	.LASF127:
 5357 05b2 7368656C 		.ascii	"shell_terminated\000"
 5357      6C5F7465 
 5357      726D696E 
 5357      61746564 
 5357      00
 5358              	.LASF72:
 5359 05c3 6D5F6E65 		.ascii	"m_next\000"
 5359      787400
 5360              	.LASF1:
 5361 05ca 7369676E 		.ascii	"signed char\000"
 5361      65642063 
 5361      68617200 
 5362              	.LASF6:
 5363 05d6 73686F72 		.ascii	"short unsigned int\000"
 5363      7420756E 
 5363      7369676E 
 5363      65642069 
 5363      6E7400
 5364              	.LASF64:
 5365 05e9 725F6374 		.ascii	"r_ctx\000"
 5365      7800
 5366              	.LASF49:
 5367 05ef 73746B61 		.ascii	"stkalign_t\000"
 5367      6C69676E 
 5367      5F7400
 5368              	.LASF81:
 5369 05fa 4D656D6F 		.ascii	"MemoryHeap\000"
ARM GAS  /tmp/ccXMVEoh.s 			page 101


 5369      72794865 
 5369      617000
 5370              	.LASF58:
 5371 0605 76745F66 		.ascii	"vt_func\000"
 5371      756E6300 
 5372              	.LASF56:
 5373 060d 76745F70 		.ascii	"vt_prev\000"
 5373      72657600 
 5374              	.LASF88:
 5375 0615 616C6967 		.ascii	"align\000"
 5375      6E00
 5376              	.LASF77:
 5377 061b 656C5F66 		.ascii	"el_flags\000"
 5377      6C616773 
 5377      00
 5378              	.LASF91:
 5379 0624 65786974 		.ascii	"exitcode\000"
 5379      636F6465 
 5379      00
 5380              	.LASF101:
 5381 062d 73635F66 		.ascii	"sc_function\000"
 5381      756E6374 
 5381      696F6E00 
 5382              		.ident	"GCC: (15:4.9.3+svn231177-1) 4.9.3 20150529 (prerelease)"
ARM GAS  /tmp/ccXMVEoh.s 			page 102


DEFINED SYMBOLS
                            *ABS*:0000000000000000 shell.c
     /tmp/ccXMVEoh.s:17     .text.cmd_systime:0000000000000000 $a
     /tmp/ccXMVEoh.s:19     .text.cmd_systime:0000000000000000 cmd_systime
     /tmp/ccXMVEoh.s:57     .text.cmd_systime:0000000000000024 $d
     /tmp/ccXMVEoh.s:67     .text.cmd_info:0000000000000000 $a
     /tmp/ccXMVEoh.s:69     .text.cmd_info:0000000000000000 cmd_info
     /tmp/ccXMVEoh.s:160    .text.cmd_info:00000000000000a0 $d
     /tmp/ccXMVEoh.s:182    .text._strtok.constprop.2:0000000000000000 $a
     /tmp/ccXMVEoh.s:184    .text._strtok.constprop.2:0000000000000000 _strtok.constprop.2
     /tmp/ccXMVEoh.s:254    .text._strtok.constprop.2:0000000000000070 $d
     /tmp/ccXMVEoh.s:259    .text.shellInit:0000000000000000 $a
     /tmp/ccXMVEoh.s:262    .text.shellInit:0000000000000000 shellInit
     /tmp/ccXMVEoh.s:276    .text.shellInit:000000000000000c $d
                            *COM*:0000000000000004 shell_terminated
     /tmp/ccXMVEoh.s:281    .text.shellCreate:0000000000000000 $a
     /tmp/ccXMVEoh.s:284    .text.shellCreate:0000000000000000 shellCreate
     /tmp/ccXMVEoh.s:311    .text.shellCreate:0000000000000020 $d
     /tmp/ccXMVEoh.s:515    .text.shell_thread:0000000000000000 shell_thread
     /tmp/ccXMVEoh.s:316    .text.shellCreateStatic:0000000000000000 $a
     /tmp/ccXMVEoh.s:319    .text.shellCreateStatic:0000000000000000 shellCreateStatic
     /tmp/ccXMVEoh.s:351    .text.shellCreateStatic:0000000000000028 $d
     /tmp/ccXMVEoh.s:356    .text.shellGetLine:0000000000000000 $a
     /tmp/ccXMVEoh.s:359    .text.shellGetLine:0000000000000000 shellGetLine
     /tmp/ccXMVEoh.s:507    .text.shellGetLine:0000000000000110 $d
     /tmp/ccXMVEoh.s:513    .text.shell_thread:0000000000000000 $a
     /tmp/ccXMVEoh.s:858    .text.shell_thread:000000000000025c $d
     /tmp/ccXMVEoh.s:879    .rodata:0000000000000000 $d
     /tmp/ccXMVEoh.s:884    .data.local_commands:0000000000000000 $d
     /tmp/ccXMVEoh.s:888    .data.local_commands:0000000000000000 local_commands
     /tmp/ccXMVEoh.s:896    .rodata.str1.4:0000000000000000 $d
                     .debug_frame:0000000000000010 $d

UNDEFINED SYMBOLS
chprintf
vtlist
strspn
strchr
chThdCreateFromHeap
chThdCreateStatic
strcasecmp
chEvtBroadcastFlagsI
chThdExitS
rlist
