ARM GAS  /tmp/ccXk7m7y.s 			page 1


   1              		.cpu arm1176jz-s
   2              		.fpu softvfp
   3              		.eabi_attribute 20, 1
   4              		.eabi_attribute 21, 1
   5              		.eabi_attribute 23, 3
   6              		.eabi_attribute 24, 1
   7              		.eabi_attribute 25, 1
   8              		.eabi_attribute 26, 1
   9              		.eabi_attribute 30, 2
  10              		.eabi_attribute 34, 1
  11              		.eabi_attribute 18, 4
  12              		.file	"spi.c"
  13              		.text
  14              	.Ltext0:
  15              		.cfi_sections	.debug_frame
  16              		.section	.text.spiInit,"ax",%progbits
  17              		.align	2
  18              		.global	spiInit
  19              		.type	spiInit, %function
  20              	spiInit:
  21              	.LFB7:
  22              		.file 1 "../../os/hal/src/spi.c"
  23              		.loc 1 61 0
  24              		.cfi_startproc
  25              		@ args = 0, pretend = 0, frame = 0
  26              		@ frame_needed = 0, uses_anonymous_args = 0
  27              		@ link register save eliminated.
  28              		.loc 1 63 0
  29 0000 FEFFFFEA 		b	spi_lld_init
  30              	.LVL0:
  31              		.cfi_endproc
  32              	.LFE7:
  33              		.size	spiInit, .-spiInit
  34              		.section	.text.spiObjectInit,"ax",%progbits
  35              		.align	2
  36              		.global	spiObjectInit
  37              		.type	spiObjectInit, %function
  38              	spiObjectInit:
  39              	.LFB8:
  40              		.loc 1 73 0
  41              		.cfi_startproc
  42              		@ args = 0, pretend = 0, frame = 0
  43              		@ frame_needed = 0, uses_anonymous_args = 0
  44              		@ link register save eliminated.
  45              	.LVL1:
  46              		.loc 1 76 0
  47 0000 0030A0E3 		mov	r3, #0
  48              		.loc 1 75 0
  49 0004 0120A0E3 		mov	r2, #1
  50              		.loc 1 76 0
  51 0008 043080E5 		str	r3, [r0, #4]
  52              		.loc 1 75 0
  53 000c 0020C0E5 		strb	r2, [r0]
  54              		.loc 1 78 0
  55 0010 083080E5 		str	r3, [r0, #8]
  56              		.loc 1 82 0
  57 0014 0C0080E2 		add	r0, r0, #12
ARM GAS  /tmp/ccXk7m7y.s 			page 2


  58              	.LVL2:
  59 0018 FEFFFFEA 		b	chMtxInit
  60              	.LVL3:
  61              		.cfi_endproc
  62              	.LFE8:
  63              		.size	spiObjectInit, .-spiObjectInit
  64              		.section	.text.spiStart,"ax",%progbits
  65              		.align	2
  66              		.global	spiStart
  67              		.type	spiStart, %function
  68              	spiStart:
  69              	.LFB9:
  70              		.loc 1 100 0
  71              		.cfi_startproc
  72              		@ args = 0, pretend = 0, frame = 0
  73              		@ frame_needed = 0, uses_anonymous_args = 0
  74              	.LVL4:
  75 0000 10402DE9 		stmfd	sp!, {r4, lr}
  76              		.cfi_def_cfa_offset 8
  77              		.cfi_offset 4, -8
  78              		.cfi_offset 14, -4
  79              		.loc 1 100 0
  80 0004 0040A0E1 		mov	r4, r0
  81              		.loc 1 104 0
  82              	@ 104 "../../os/hal/src/spi.c" 1
  83 0008 9FF021E3 		msr     CPSR_c, #0x9F
  84              	@ 0 "" 2
  85              		.loc 1 107 0
  86 000c 041080E5 		str	r1, [r0, #4]
  87              		.loc 1 108 0
  88 0010 FEFFFFEB 		bl	spi_lld_start
  89              	.LVL5:
  90              		.loc 1 109 0
  91 0014 0230A0E3 		mov	r3, #2
  92 0018 0030C4E5 		strb	r3, [r4]
  93              		.loc 1 110 0
  94              	@ 110 "../../os/hal/src/spi.c" 1
  95 001c 1FF021E3 		msr     CPSR_c, #0x1F
  96              	@ 0 "" 2
  97 0020 1080BDE8 		ldmfd	sp!, {r4, pc}
  98              		.cfi_endproc
  99              	.LFE9:
 100              		.size	spiStart, .-spiStart
 101              		.section	.text.spiStop,"ax",%progbits
 102              		.align	2
 103              		.global	spiStop
 104              		.type	spiStop, %function
 105              	spiStop:
 106              	.LFB10:
 107              		.loc 1 122 0
 108              		.cfi_startproc
 109              		@ args = 0, pretend = 0, frame = 0
 110              		@ frame_needed = 0, uses_anonymous_args = 0
 111              	.LVL6:
 112 0000 10402DE9 		stmfd	sp!, {r4, lr}
 113              		.cfi_def_cfa_offset 8
 114              		.cfi_offset 4, -8
ARM GAS  /tmp/ccXk7m7y.s 			page 3


 115              		.cfi_offset 14, -4
 116              		.loc 1 122 0
 117 0004 0040A0E1 		mov	r4, r0
 118              		.loc 1 126 0
 119              	@ 126 "../../os/hal/src/spi.c" 1
 120 0008 9FF021E3 		msr     CPSR_c, #0x9F
 121              	@ 0 "" 2
 122              		.loc 1 129 0
 123 000c FEFFFFEB 		bl	spi_lld_unselect
 124              	.LVL7:
 125              		.loc 1 130 0
 126 0010 0400A0E1 		mov	r0, r4
 127 0014 FEFFFFEB 		bl	spi_lld_stop
 128              	.LVL8:
 129              		.loc 1 131 0
 130 0018 0130A0E3 		mov	r3, #1
 131 001c 0030C4E5 		strb	r3, [r4]
 132              		.loc 1 132 0
 133              	@ 132 "../../os/hal/src/spi.c" 1
 134 0020 1FF021E3 		msr     CPSR_c, #0x1F
 135              	@ 0 "" 2
 136 0024 1080BDE8 		ldmfd	sp!, {r4, pc}
 137              		.cfi_endproc
 138              	.LFE10:
 139              		.size	spiStop, .-spiStop
 140              		.section	.text.spiSelect,"ax",%progbits
 141              		.align	2
 142              		.global	spiSelect
 143              		.type	spiSelect, %function
 144              	spiSelect:
 145              	.LFB11:
 146              		.loc 1 142 0
 147              		.cfi_startproc
 148              		@ args = 0, pretend = 0, frame = 0
 149              		@ frame_needed = 0, uses_anonymous_args = 0
 150              	.LVL9:
 151 0000 08402DE9 		stmfd	sp!, {r3, lr}
 152              		.cfi_def_cfa_offset 8
 153              		.cfi_offset 3, -8
 154              		.cfi_offset 14, -4
 155              		.loc 1 146 0
 156              	@ 146 "../../os/hal/src/spi.c" 1
 157 0004 9FF021E3 		msr     CPSR_c, #0x9F
 158              	@ 0 "" 2
 159              		.loc 1 148 0
 160 0008 FEFFFFEB 		bl	spi_lld_select
 161              	.LVL10:
 162              		.loc 1 149 0
 163              	@ 149 "../../os/hal/src/spi.c" 1
 164 000c 1FF021E3 		msr     CPSR_c, #0x1F
 165              	@ 0 "" 2
 166 0010 0880BDE8 		ldmfd	sp!, {r3, pc}
 167              		.cfi_endproc
 168              	.LFE11:
 169              		.size	spiSelect, .-spiSelect
 170              		.section	.text.spiUnselect,"ax",%progbits
 171              		.align	2
ARM GAS  /tmp/ccXk7m7y.s 			page 4


 172              		.global	spiUnselect
 173              		.type	spiUnselect, %function
 174              	spiUnselect:
 175              	.LFB12:
 176              		.loc 1 160 0
 177              		.cfi_startproc
 178              		@ args = 0, pretend = 0, frame = 0
 179              		@ frame_needed = 0, uses_anonymous_args = 0
 180              	.LVL11:
 181 0000 08402DE9 		stmfd	sp!, {r3, lr}
 182              		.cfi_def_cfa_offset 8
 183              		.cfi_offset 3, -8
 184              		.cfi_offset 14, -4
 185              		.loc 1 164 0
 186              	@ 164 "../../os/hal/src/spi.c" 1
 187 0004 9FF021E3 		msr     CPSR_c, #0x9F
 188              	@ 0 "" 2
 189              		.loc 1 166 0
 190 0008 FEFFFFEB 		bl	spi_lld_unselect
 191              	.LVL12:
 192              		.loc 1 167 0
 193              	@ 167 "../../os/hal/src/spi.c" 1
 194 000c 1FF021E3 		msr     CPSR_c, #0x1F
 195              	@ 0 "" 2
 196 0010 0880BDE8 		ldmfd	sp!, {r3, pc}
 197              		.cfi_endproc
 198              	.LFE12:
 199              		.size	spiUnselect, .-spiUnselect
 200              		.section	.text.spiStartIgnore,"ax",%progbits
 201              		.align	2
 202              		.global	spiStartIgnore
 203              		.type	spiStartIgnore, %function
 204              	spiStartIgnore:
 205              	.LFB13:
 206              		.loc 1 183 0
 207              		.cfi_startproc
 208              		@ args = 0, pretend = 0, frame = 0
 209              		@ frame_needed = 0, uses_anonymous_args = 0
 210              	.LVL13:
 211 0000 08402DE9 		stmfd	sp!, {r3, lr}
 212              		.cfi_def_cfa_offset 8
 213              		.cfi_offset 3, -8
 214              		.cfi_offset 14, -4
 215              		.loc 1 187 0
 216              	@ 187 "../../os/hal/src/spi.c" 1
 217 0004 9FF021E3 		msr     CPSR_c, #0x9F
 218              	@ 0 "" 2
 219              		.loc 1 189 0
 220 0008 0320A0E3 		mov	r2, #3
 221 000c 0020C0E5 		strb	r2, [r0]
 222 0010 FEFFFFEB 		bl	spi_lld_ignore
 223              	.LVL14:
 224              		.loc 1 190 0
 225              	@ 190 "../../os/hal/src/spi.c" 1
 226 0014 1FF021E3 		msr     CPSR_c, #0x1F
 227              	@ 0 "" 2
 228 0018 0880BDE8 		ldmfd	sp!, {r3, pc}
ARM GAS  /tmp/ccXk7m7y.s 			page 5


 229              		.cfi_endproc
 230              	.LFE13:
 231              		.size	spiStartIgnore, .-spiStartIgnore
 232              		.section	.text.spiStartExchange,"ax",%progbits
 233              		.align	2
 234              		.global	spiStartExchange
 235              		.type	spiStartExchange, %function
 236              	spiStartExchange:
 237              	.LFB14:
 238              		.loc 1 211 0
 239              		.cfi_startproc
 240              		@ args = 0, pretend = 0, frame = 0
 241              		@ frame_needed = 0, uses_anonymous_args = 0
 242              	.LVL15:
 243 0000 08402DE9 		stmfd	sp!, {r3, lr}
 244              		.cfi_def_cfa_offset 8
 245              		.cfi_offset 3, -8
 246              		.cfi_offset 14, -4
 247              		.loc 1 216 0
 248              	@ 216 "../../os/hal/src/spi.c" 1
 249 0004 9FF021E3 		msr     CPSR_c, #0x9F
 250              	@ 0 "" 2
 251              		.loc 1 218 0
 252 0008 03E0A0E3 		mov	lr, #3
 253 000c 00E0C0E5 		strb	lr, [r0]
 254 0010 FEFFFFEB 		bl	spi_lld_exchange
 255              	.LVL16:
 256              		.loc 1 219 0
 257              	@ 219 "../../os/hal/src/spi.c" 1
 258 0014 1FF021E3 		msr     CPSR_c, #0x1F
 259              	@ 0 "" 2
 260 0018 0880BDE8 		ldmfd	sp!, {r3, pc}
 261              		.cfi_endproc
 262              	.LFE14:
 263              		.size	spiStartExchange, .-spiStartExchange
 264              		.section	.text.spiStartSend,"ax",%progbits
 265              		.align	2
 266              		.global	spiStartSend
 267              		.type	spiStartSend, %function
 268              	spiStartSend:
 269              	.LFB15:
 270              		.loc 1 237 0
 271              		.cfi_startproc
 272              		@ args = 0, pretend = 0, frame = 0
 273              		@ frame_needed = 0, uses_anonymous_args = 0
 274              	.LVL17:
 275 0000 08402DE9 		stmfd	sp!, {r3, lr}
 276              		.cfi_def_cfa_offset 8
 277              		.cfi_offset 3, -8
 278              		.cfi_offset 14, -4
 279              		.loc 1 242 0
 280              	@ 242 "../../os/hal/src/spi.c" 1
 281 0004 9FF021E3 		msr     CPSR_c, #0x9F
 282              	@ 0 "" 2
 283              		.loc 1 244 0
 284 0008 03C0A0E3 		mov	ip, #3
 285 000c 00C0C0E5 		strb	ip, [r0]
ARM GAS  /tmp/ccXk7m7y.s 			page 6


 286 0010 FEFFFFEB 		bl	spi_lld_send
 287              	.LVL18:
 288              		.loc 1 245 0
 289              	@ 245 "../../os/hal/src/spi.c" 1
 290 0014 1FF021E3 		msr     CPSR_c, #0x1F
 291              	@ 0 "" 2
 292 0018 0880BDE8 		ldmfd	sp!, {r3, pc}
 293              		.cfi_endproc
 294              	.LFE15:
 295              		.size	spiStartSend, .-spiStartSend
 296              		.section	.text.spiStartReceive,"ax",%progbits
 297              		.align	2
 298              		.global	spiStartReceive
 299              		.type	spiStartReceive, %function
 300              	spiStartReceive:
 301              	.LFB16:
 302              		.loc 1 263 0
 303              		.cfi_startproc
 304              		@ args = 0, pretend = 0, frame = 0
 305              		@ frame_needed = 0, uses_anonymous_args = 0
 306              	.LVL19:
 307 0000 08402DE9 		stmfd	sp!, {r3, lr}
 308              		.cfi_def_cfa_offset 8
 309              		.cfi_offset 3, -8
 310              		.cfi_offset 14, -4
 311              		.loc 1 268 0
 312              	@ 268 "../../os/hal/src/spi.c" 1
 313 0004 9FF021E3 		msr     CPSR_c, #0x9F
 314              	@ 0 "" 2
 315              		.loc 1 270 0
 316 0008 03C0A0E3 		mov	ip, #3
 317 000c 00C0C0E5 		strb	ip, [r0]
 318 0010 FEFFFFEB 		bl	spi_lld_receive
 319              	.LVL20:
 320              		.loc 1 271 0
 321              	@ 271 "../../os/hal/src/spi.c" 1
 322 0014 1FF021E3 		msr     CPSR_c, #0x1F
 323              	@ 0 "" 2
 324 0018 0880BDE8 		ldmfd	sp!, {r3, pc}
 325              		.cfi_endproc
 326              	.LFE16:
 327              		.size	spiStartReceive, .-spiStartReceive
 328              		.section	.text.spiIgnore,"ax",%progbits
 329              		.align	2
 330              		.global	spiIgnore
 331              		.type	spiIgnore, %function
 332              	spiIgnore:
 333              	.LFB17:
 334              		.loc 1 289 0
 335              		.cfi_startproc
 336              		@ args = 0, pretend = 0, frame = 0
 337              		@ frame_needed = 0, uses_anonymous_args = 0
 338              	.LVL21:
 339 0000 10402DE9 		stmfd	sp!, {r4, lr}
 340              		.cfi_def_cfa_offset 8
 341              		.cfi_offset 4, -8
 342              		.cfi_offset 14, -4
ARM GAS  /tmp/ccXk7m7y.s 			page 7


 343              		.loc 1 289 0
 344 0004 0040A0E1 		mov	r4, r0
 345              		.loc 1 293 0
 346              	@ 293 "../../os/hal/src/spi.c" 1
 347 0008 9FF021E3 		msr     CPSR_c, #0x9F
 348              	@ 0 "" 2
 349              		.loc 1 296 0
 350 000c 0330A0E3 		mov	r3, #3
 351 0010 0030C0E5 		strb	r3, [r0]
 352 0014 FEFFFFEB 		bl	spi_lld_ignore
 353              	.LVL22:
 354              		.loc 1 297 0
 355 0018 14309FE5 		ldr	r3, .L21
 356 001c 0200A0E3 		mov	r0, #2
 357 0020 183093E5 		ldr	r3, [r3, #24]
 358 0024 083084E5 		str	r3, [r4, #8]
 359 0028 FEFFFFEB 		bl	chSchGoSleepS
 360              	.LVL23:
 361              		.loc 1 298 0
 362              	@ 298 "../../os/hal/src/spi.c" 1
 363 002c 1FF021E3 		msr     CPSR_c, #0x1F
 364              	@ 0 "" 2
 365 0030 1080BDE8 		ldmfd	sp!, {r4, pc}
 366              	.L22:
 367              		.align	2
 368              	.L21:
 369 0034 00000000 		.word	rlist
 370              		.cfi_endproc
 371              	.LFE17:
 372              		.size	spiIgnore, .-spiIgnore
 373              		.section	.text.spiExchange,"ax",%progbits
 374              		.align	2
 375              		.global	spiExchange
 376              		.type	spiExchange, %function
 377              	spiExchange:
 378              	.LFB18:
 379              		.loc 1 320 0
 380              		.cfi_startproc
 381              		@ args = 0, pretend = 0, frame = 0
 382              		@ frame_needed = 0, uses_anonymous_args = 0
 383              	.LVL24:
 384 0000 10402DE9 		stmfd	sp!, {r4, lr}
 385              		.cfi_def_cfa_offset 8
 386              		.cfi_offset 4, -8
 387              		.cfi_offset 14, -4
 388              		.loc 1 320 0
 389 0004 0040A0E1 		mov	r4, r0
 390              		.loc 1 325 0
 391              	@ 325 "../../os/hal/src/spi.c" 1
 392 0008 9FF021E3 		msr     CPSR_c, #0x9F
 393              	@ 0 "" 2
 394              		.loc 1 329 0
 395 000c 03C0A0E3 		mov	ip, #3
 396 0010 00C0C0E5 		strb	ip, [r0]
 397 0014 FEFFFFEB 		bl	spi_lld_exchange
 398              	.LVL25:
 399              		.loc 1 330 0
ARM GAS  /tmp/ccXk7m7y.s 			page 8


 400 0018 14309FE5 		ldr	r3, .L25
 401 001c 0200A0E3 		mov	r0, #2
 402 0020 183093E5 		ldr	r3, [r3, #24]
 403 0024 083084E5 		str	r3, [r4, #8]
 404 0028 FEFFFFEB 		bl	chSchGoSleepS
 405              	.LVL26:
 406              		.loc 1 331 0
 407              	@ 331 "../../os/hal/src/spi.c" 1
 408 002c 1FF021E3 		msr     CPSR_c, #0x1F
 409              	@ 0 "" 2
 410 0030 1080BDE8 		ldmfd	sp!, {r4, pc}
 411              	.L26:
 412              		.align	2
 413              	.L25:
 414 0034 00000000 		.word	rlist
 415              		.cfi_endproc
 416              	.LFE18:
 417              		.size	spiExchange, .-spiExchange
 418              		.section	.text.spiSend,"ax",%progbits
 419              		.align	2
 420              		.global	spiSend
 421              		.type	spiSend, %function
 422              	spiSend:
 423              	.LFB19:
 424              		.loc 1 350 0
 425              		.cfi_startproc
 426              		@ args = 0, pretend = 0, frame = 0
 427              		@ frame_needed = 0, uses_anonymous_args = 0
 428              	.LVL27:
 429 0000 10402DE9 		stmfd	sp!, {r4, lr}
 430              		.cfi_def_cfa_offset 8
 431              		.cfi_offset 4, -8
 432              		.cfi_offset 14, -4
 433              		.loc 1 350 0
 434 0004 0040A0E1 		mov	r4, r0
 435              		.loc 1 354 0
 436              	@ 354 "../../os/hal/src/spi.c" 1
 437 0008 9FF021E3 		msr     CPSR_c, #0x9F
 438              	@ 0 "" 2
 439              		.loc 1 357 0
 440 000c 0330A0E3 		mov	r3, #3
 441 0010 0030C0E5 		strb	r3, [r0]
 442 0014 FEFFFFEB 		bl	spi_lld_send
 443              	.LVL28:
 444              		.loc 1 358 0
 445 0018 14309FE5 		ldr	r3, .L29
 446 001c 0200A0E3 		mov	r0, #2
 447 0020 183093E5 		ldr	r3, [r3, #24]
 448 0024 083084E5 		str	r3, [r4, #8]
 449 0028 FEFFFFEB 		bl	chSchGoSleepS
 450              	.LVL29:
 451              		.loc 1 359 0
 452              	@ 359 "../../os/hal/src/spi.c" 1
 453 002c 1FF021E3 		msr     CPSR_c, #0x1F
 454              	@ 0 "" 2
 455 0030 1080BDE8 		ldmfd	sp!, {r4, pc}
 456              	.L30:
ARM GAS  /tmp/ccXk7m7y.s 			page 9


 457              		.align	2
 458              	.L29:
 459 0034 00000000 		.word	rlist
 460              		.cfi_endproc
 461              	.LFE19:
 462              		.size	spiSend, .-spiSend
 463              		.section	.text.spiReceive,"ax",%progbits
 464              		.align	2
 465              		.global	spiReceive
 466              		.type	spiReceive, %function
 467              	spiReceive:
 468              	.LFB20:
 469              		.loc 1 378 0
 470              		.cfi_startproc
 471              		@ args = 0, pretend = 0, frame = 0
 472              		@ frame_needed = 0, uses_anonymous_args = 0
 473              	.LVL30:
 474 0000 10402DE9 		stmfd	sp!, {r4, lr}
 475              		.cfi_def_cfa_offset 8
 476              		.cfi_offset 4, -8
 477              		.cfi_offset 14, -4
 478              		.loc 1 378 0
 479 0004 0040A0E1 		mov	r4, r0
 480              		.loc 1 383 0
 481              	@ 383 "../../os/hal/src/spi.c" 1
 482 0008 9FF021E3 		msr     CPSR_c, #0x9F
 483              	@ 0 "" 2
 484              		.loc 1 387 0
 485 000c 0330A0E3 		mov	r3, #3
 486 0010 0030C0E5 		strb	r3, [r0]
 487 0014 FEFFFFEB 		bl	spi_lld_receive
 488              	.LVL31:
 489              		.loc 1 388 0
 490 0018 14309FE5 		ldr	r3, .L33
 491 001c 0200A0E3 		mov	r0, #2
 492 0020 183093E5 		ldr	r3, [r3, #24]
 493 0024 083084E5 		str	r3, [r4, #8]
 494 0028 FEFFFFEB 		bl	chSchGoSleepS
 495              	.LVL32:
 496              		.loc 1 389 0
 497              	@ 389 "../../os/hal/src/spi.c" 1
 498 002c 1FF021E3 		msr     CPSR_c, #0x1F
 499              	@ 0 "" 2
 500 0030 1080BDE8 		ldmfd	sp!, {r4, pc}
 501              	.L34:
 502              		.align	2
 503              	.L33:
 504 0034 00000000 		.word	rlist
 505              		.cfi_endproc
 506              	.LFE20:
 507              		.size	spiReceive, .-spiReceive
 508              		.section	.text.spiAcquireBus,"ax",%progbits
 509              		.align	2
 510              		.global	spiAcquireBus
 511              		.type	spiAcquireBus, %function
 512              	spiAcquireBus:
 513              	.LFB21:
ARM GAS  /tmp/ccXk7m7y.s 			page 10


 514              		.loc 1 405 0
 515              		.cfi_startproc
 516              		@ args = 0, pretend = 0, frame = 0
 517              		@ frame_needed = 0, uses_anonymous_args = 0
 518              		@ link register save eliminated.
 519              	.LVL33:
 520              		.loc 1 410 0
 521 0000 0C0080E2 		add	r0, r0, #12
 522              	.LVL34:
 523 0004 FEFFFFEA 		b	chMtxLock
 524              	.LVL35:
 525              		.cfi_endproc
 526              	.LFE21:
 527              		.size	spiAcquireBus, .-spiAcquireBus
 528              		.section	.text.spiReleaseBus,"ax",%progbits
 529              		.align	2
 530              		.global	spiReleaseBus
 531              		.type	spiReleaseBus, %function
 532              	spiReleaseBus:
 533              	.LFB22:
 534              		.loc 1 425 0
 535              		.cfi_startproc
 536              		@ args = 0, pretend = 0, frame = 0
 537              		@ frame_needed = 0, uses_anonymous_args = 0
 538              		@ link register save eliminated.
 539              	.LVL36:
 540              		.loc 1 431 0
 541 0000 FEFFFFEA 		b	chMtxUnlock
 542              	.LVL37:
 543              		.cfi_endproc
 544              	.LFE22:
 545              		.size	spiReleaseBus, .-spiReleaseBus
 546              		.text
 547              	.Letext0:
 548              		.file 2 "/usr/lib/gcc/arm-none-eabi/4.9.3/include/stddef.h"
 549              		.file 3 "/usr/include/newlib/machine/_default_types.h"
 550              		.file 4 "/usr/include/newlib/sys/_stdint.h"
 551              		.file 5 "../../os/ports/GCC/ARM/chtypes.h"
 552              		.file 6 "../../os/kernel/include/chlists.h"
 553              		.file 7 "../../os/kernel/include/chthreads.h"
 554              		.file 8 "../../os/ports/GCC/ARM/chcore.h"
 555              		.file 9 "../../os/kernel/include/chschd.h"
 556              		.file 10 "../../os/kernel/include/chmtx.h"
 557              		.file 11 "../../os/hal/include/spi.h"
 558              		.file 12 "../../os/hal/platforms/BCM2835/spi_lld.h"