ARM GAS  /tmp/ccdMvw60.s 			page 1


   1              		.cpu arm1176jz-s
   2              		.fpu softvfp
   3              		.eabi_attribute 20, 1
   4              		.eabi_attribute 21, 1
   5              		.eabi_attribute 23, 3
   6              		.eabi_attribute 24, 1
   7              		.eabi_attribute 25, 1
   8              		.eabi_attribute 26, 1
   9              		.eabi_attribute 30, 2
  10              		.eabi_attribute 34, 1
  11              		.eabi_attribute 18, 4
  12              		.file	"spi_lld.c"
  13              		.text
  14              	.Ltext0:
  15              		.cfi_sections	.debug_frame
  16              		.section	.text.spi_lld_serve_interrupt,"ax",%progbits
  17              		.align	2
  18              		.global	spi_lld_serve_interrupt
  19              		.type	spi_lld_serve_interrupt, %function
  20              	spi_lld_serve_interrupt:
  21              	.LFB7:
  22              		.file 1 "../../os/hal/platforms/BCM2835/spi_lld.c"
  23              		.loc 1 75 0
  24              		.cfi_startproc
  25              		@ args = 0, pretend = 0, frame = 0
  26              		@ frame_needed = 0, uses_anonymous_args = 0
  27              	.LVL0:
  28              		.loc 1 76 0
  29 0000 8C319FE5 		ldr	r3, .L53
  30 0004 083293E5 		ldr	r3, [r3, #520]
  31 0008 010513E3 		tst	r3, #4194304
  32 000c 1EFF2F01 		bxeq	lr
  33              		.loc 1 77 0
  34 0010 80319FE5 		ldr	r3, .L53+4
  35              		.loc 1 75 0
  36 0014 10402DE9 		stmfd	sp!, {r4, lr}
  37              		.cfi_def_cfa_offset 8
  38              		.cfi_offset 4, -8
  39              		.cfi_offset 14, -4
  40              		.loc 1 77 0
  41 0018 002093E5 		ldr	r2, [r3]
  42 001c 0040A0E1 		mov	r4, r0
  43 0020 010812E3 		tst	r2, #65536
  44 0024 1800000A 		beq	.L4
  45              	.LVL1:
  46              	.LBB8:
  47              		.loc 1 79 0
  48 0028 242090E5 		ldr	r2, [r0, #36]
  49 002c 000052E3 		cmp	r2, #0
  50 0030 2600000A 		beq	.L13
  51              		.loc 1 81 0
  52 0034 041090E5 		ldr	r1, [r0, #4]
  53              	.LBB9:
  54              		.loc 1 83 0
  55 0038 20C090E5 		ldr	ip, [r0, #32]
  56              	.LBE9:
  57              		.loc 1 81 0
ARM GAS  /tmp/ccdMvw60.s 			page 2


  58 003c 0410D1E5 		ldrb	r1, [r1, #4]	@ zero_extendqisi2
  59 0040 000051E3 		cmp	r1, #0
  60              	.LBB10:
  61              		.loc 1 84 0
  62 0044 001093E5 		ldr	r1, [r3]
  63              	.LBE10:
  64              		.loc 1 81 0
  65 0048 3D00000A 		beq	.L6
  66              	.LVL2:
  67              	.LBB11:
  68              		.loc 1 84 0
  69 004c 010711E3 		tst	r1, #262144
  70 0050 0D00000A 		beq	.L4
  71 0054 0C10A0E1 		mov	r1, ip
  72 0058 010000EA 		b	.L10
  73              	.LVL3:
  74              	.L50:
  75              		.loc 1 84 0 is_stmt 0 discriminator 1
  76 005c 000052E3 		cmp	r2, #0
  77 0060 0800000A 		beq	.L48
  78              	.L10:
  79              	.LVL4:
  80              		.loc 1 85 0 is_stmt 1
  81 0064 00005CE3 		cmp	ip, #0
  82 0068 0C00A001 		moveq	r0, ip
  83 006c B000D111 		ldrneh	r0, [r1]
  84 0070 02108112 		addne	r1, r1, #2
  85              	.LVL5:
  86 0074 040083E5 		str	r0, [r3, #4]
  87              		.loc 1 84 0
  88 0078 000093E5 		ldr	r0, [r3]
  89              		.loc 1 86 0
  90 007c 022042E2 		sub	r2, r2, #2
  91              		.loc 1 84 0
  92 0080 010710E3 		tst	r0, #262144
  93 0084 F4FFFF1A 		bne	.L50
  94              	.L48:
  95 0088 242084E5 		str	r2, [r4, #36]
  96              	.LVL6:
  97              	.L4:
  98              	.LBE11:
  99              	.LBE8:
 100              		.loc 1 106 0
 101 008c 04319FE5 		ldr	r3, .L53+4
 102 0090 002093E5 		ldr	r2, [r3]
 103 0094 020712E3 		tst	r2, #524288
 104 0098 0400001A 		bne	.L19
 105              	.L51:
 106 009c 1080BDE8 		ldmfd	sp!, {r4, pc}
 107              	.L20:
 108              	.LBB15:
 109              		.loc 1 107 0 discriminator 4
 110 00a0 1C2094E5 		ldr	r2, [r4, #28]
 111 00a4 041093E5 		ldr	r1, [r3, #4]
 112              	.LVL7:
 113 00a8 000052E3 		cmp	r2, #0
 114              	.LVL8:
ARM GAS  /tmp/ccdMvw60.s 			page 3


 115 00ac 0010C215 		strneb	r1, [r2]
 116              	.LVL9:
 117              	.L19:
 118              	.LBE15:
 119              		.loc 1 107 0 is_stmt 0 discriminator 3
 120 00b0 002093E5 		ldr	r2, [r3]
 121 00b4 020812E3 		tst	r2, #131072
 122 00b8 F8FFFF1A 		bne	.L20
 123 00bc 1080BDE8 		ldmfd	sp!, {r4, pc}
 124              	.LVL10:
 125              	.L14:
 126              	.LBB16:
 127              	.LBB12:
 128              		.loc 1 99 0 is_stmt 1 discriminator 4
 129 00c0 1C2094E5 		ldr	r2, [r4, #28]
 130 00c4 041093E5 		ldr	r1, [r3, #4]
 131              	.LVL11:
 132 00c8 000052E3 		cmp	r2, #0
 133              	.LVL12:
 134 00cc 0010C215 		strneb	r1, [r2]
 135              	.LVL13:
 136              	.L13:
 137              	.LBE12:
 138              		.loc 1 99 0 is_stmt 0 discriminator 3
 139 00d0 002093E5 		ldr	r2, [r3]
 140 00d4 BC109FE5 		ldr	r1, .L53+4
 141 00d8 020812E3 		tst	r2, #131072
 142 00dc F7FFFF1A 		bne	.L14
 143              		.loc 1 102 0 is_stmt 1
 144 00e0 042094E5 		ldr	r2, [r4, #4]
 145              		.loc 1 101 0
 146 00e4 003091E5 		ldr	r3, [r1]
 147              		.loc 1 102 0
 148 00e8 002092E5 		ldr	r2, [r2]
 149              		.loc 1 101 0
 150 00ec 1A3DC3E3 		bic	r3, r3, #1664
 151              		.loc 1 102 0
 152 00f0 000052E3 		cmp	r2, #0
 153              		.loc 1 101 0
 154 00f4 003081E5 		str	r3, [r1]
 155              		.loc 1 102 0
 156 00f8 2200000A 		beq	.L15
 157              		.loc 1 102 0 is_stmt 0 discriminator 1
 158 00fc 0430A0E3 		mov	r3, #4
 159 0100 0400A0E1 		mov	r0, r4
 160              	.LVL14:
 161 0104 0030C4E5 		strb	r3, [r4]
 162 0108 32FF2FE1 		blx	r2
 163              	.LVL15:
 164 010c 0030D4E5 		ldrb	r3, [r4]	@ zero_extendqisi2
 165 0110 040053E3 		cmp	r3, #4
 166 0114 1B00000A 		beq	.L15
 167              	.L16:
 168              		.loc 1 102 0 discriminator 4
 169 0118 080094E5 		ldr	r0, [r4, #8]
 170 011c 000050E3 		cmp	r0, #0
 171 0120 D9FFFF0A 		beq	.L4
ARM GAS  /tmp/ccdMvw60.s 			page 4


 172              	.LVL16:
 173              	.LBB13:
 174              		.loc 1 102 0 discriminator 5
 175 0124 0030A0E3 		mov	r3, #0
 176 0128 083084E5 		str	r3, [r4, #8]
 177 012c FEFFFFEB 		bl	chSchReadyI
 178              	.LVL17:
 179              	.LBE13:
 180              	.LBE16:
 181              		.loc 1 106 0 is_stmt 1 discriminator 5
 182 0130 60309FE5 		ldr	r3, .L53+4
 183 0134 002093E5 		ldr	r2, [r3]
 184 0138 020712E3 		tst	r2, #524288
 185 013c DBFFFF1A 		bne	.L19
 186 0140 D5FFFFEA 		b	.L51
 187              	.LVL18:
 188              	.L6:
 189              	.LBB17:
 190              	.LBB14:
 191              		.loc 1 91 0
 192 0144 010711E3 		tst	r1, #262144
 193 0148 CFFFFF0A 		beq	.L4
 194 014c 0C10A0E1 		mov	r1, ip
 195 0150 010000EA 		b	.L12
 196              	.LVL19:
 197              	.L52:
 198              		.loc 1 91 0 is_stmt 0 discriminator 1
 199 0154 000052E3 		cmp	r2, #0
 200 0158 CBFFFF0A 		beq	.L4
 201              	.L12:
 202              	.LVL20:
 203              		.loc 1 92 0 is_stmt 1
 204 015c 00005CE3 		cmp	ip, #0
 205 0160 0C00A001 		moveq	r0, ip
 206 0164 0000D115 		ldrneb	r0, [r1]	@ zero_extendqisi2
 207              		.loc 1 93 0
 208 0168 012042E2 		sub	r2, r2, #1
 209              		.loc 1 92 0
 210 016c 040083E5 		str	r0, [r3, #4]
 211              		.loc 1 91 0
 212 0170 000093E5 		ldr	r0, [r3]
 213              		.loc 1 92 0
 214 0174 01108112 		addne	r1, r1, #1
 215              	.LVL21:
 216              		.loc 1 91 0
 217 0178 010710E3 		tst	r0, #262144
 218              		.loc 1 93 0
 219 017c 242084E5 		str	r2, [r4, #36]
 220              		.loc 1 91 0
 221 0180 F3FFFF1A 		bne	.L52
 222 0184 C0FFFFEA 		b	.L4
 223              	.LVL22:
 224              	.L15:
 225              	.LBE14:
 226              		.loc 1 102 0 discriminator 3
 227 0188 0230A0E3 		mov	r3, #2
 228 018c 0030C4E5 		strb	r3, [r4]
ARM GAS  /tmp/ccdMvw60.s 			page 5


 229 0190 E0FFFFEA 		b	.L16
 230              	.L54:
 231              		.align	2
 232              	.L53:
 233 0194 00B00020 		.word	536915968
 234 0198 00402020 		.word	538984448
 235              	.LBE17:
 236              		.cfi_endproc
 237              	.LFE7:
 238              		.size	spi_lld_serve_interrupt, .-spi_lld_serve_interrupt
 239              		.section	.text.spi_lld_init,"ax",%progbits
 240              		.align	2
 241              		.global	spi_lld_init
 242              		.type	spi_lld_init, %function
 243              	spi_lld_init:
 244              	.LFB8:
 245              		.loc 1 121 0
 246              		.cfi_startproc
 247              		@ args = 0, pretend = 0, frame = 0
 248              		@ frame_needed = 0, uses_anonymous_args = 0
 249              		@ link register save eliminated.
 250              		.loc 1 122 0
 251 0000 00009FE5 		ldr	r0, .L56
 252 0004 FEFFFFEA 		b	spiObjectInit
 253              	.LVL23:
 254              	.L57:
 255              		.align	2
 256              	.L56:
 257 0008 00000000 		.word	SPI0
 258              		.cfi_endproc
 259              	.LFE8:
 260              		.size	spi_lld_init, .-spi_lld_init
 261              		.section	.text.spi_lld_start,"ax",%progbits
 262              		.align	2
 263              		.global	spi_lld_start
 264              		.type	spi_lld_start, %function
 265              	spi_lld_start:
 266              	.LFB9:
 267              		.loc 1 132 0
 268              		.cfi_startproc
 269              		@ args = 0, pretend = 0, frame = 0
 270              		@ frame_needed = 0, uses_anonymous_args = 0
 271              	.LVL24:
 272 0000 10402DE9 		stmfd	sp!, {r4, lr}
 273              		.cfi_def_cfa_offset 8
 274              		.cfi_offset 4, -8
 275              		.cfi_offset 14, -4
 276              		.loc 1 132 0
 277 0004 0040A0E1 		mov	r4, r0
 278              		.loc 1 135 0
 279 0008 AC209FE5 		ldr	r2, .L82
 280              		.loc 1 138 0
 281 000c 0700A0E3 		mov	r0, #7
 282              	.LVL25:
 283              		.loc 1 135 0
 284 0010 203292E5 		ldr	r3, [r2, #544]
 285              		.loc 1 138 0
ARM GAS  /tmp/ccdMvw60.s 			page 6


 286 0014 0410A0E3 		mov	r1, #4
 287              		.loc 1 135 0
 288 0018 013583E3 		orr	r3, r3, #4194304
 289 001c 203282E5 		str	r3, [r2, #544]
 290              		.loc 1 138 0
 291 0020 FEFFFFEB 		bl	bcm2835_gpio_fnsel
 292              	.LVL26:
 293              		.loc 1 139 0
 294 0024 0800A0E3 		mov	r0, #8
 295 0028 0410A0E3 		mov	r1, #4
 296 002c FEFFFFEB 		bl	bcm2835_gpio_fnsel
 297              	.LVL27:
 298              		.loc 1 140 0
 299 0030 0900A0E3 		mov	r0, #9
 300 0034 0410A0E3 		mov	r1, #4
 301 0038 FEFFFFEB 		bl	bcm2835_gpio_fnsel
 302              	.LVL28:
 303              		.loc 1 141 0
 304 003c 0A00A0E3 		mov	r0, #10
 305 0040 0410A0E3 		mov	r1, #4
 306 0044 FEFFFFEB 		bl	bcm2835_gpio_fnsel
 307              	.LVL29:
 308              		.loc 1 142 0
 309 0048 0410A0E3 		mov	r1, #4
 310 004c 0B00A0E3 		mov	r0, #11
 311 0050 FEFFFFEB 		bl	bcm2835_gpio_fnsel
 312              	.LVL30:
 313              		.loc 1 149 0
 314 0054 042094E5 		ldr	r2, [r4, #4]
 315              	.LVL31:
 316              		.loc 1 151 0
 317 0058 0930D2E5 		ldrb	r3, [r2, #9]	@ zero_extendqisi2
 318              		.loc 1 154 0
 319 005c 0A10D2E5 		ldrb	r1, [r2, #10]	@ zero_extendqisi2
 320              		.loc 1 152 0
 321 0060 000053E3 		cmp	r3, #0
 322 0064 0830A013 		movne	r3, #8
 323 0068 0030A003 		moveq	r3, #0
 324              	.LVL32:
 325              		.loc 1 154 0
 326 006c 000051E3 		cmp	r1, #0
 327              		.loc 1 157 0
 328 0070 0610D2E5 		ldrb	r1, [r2, #6]	@ zero_extendqisi2
 329              		.loc 1 155 0
 330 0074 04308313 		orrne	r3, r3, #4
 331              	.LVL33:
 332              		.loc 1 157 0
 333 0078 000051E3 		cmp	r1, #0
 334              		.loc 1 160 0
 335 007c 0710D2E5 		ldrb	r1, [r2, #7]	@ zero_extendqisi2
 336              		.loc 1 158 0
 337 0080 40308313 		orrne	r3, r3, #64
 338              	.LVL34:
 339              		.loc 1 160 0
 340 0084 000051E3 		cmp	r1, #0
 341              		.loc 1 163 0
 342 0088 0810D2E5 		ldrb	r1, [r2, #8]	@ zero_extendqisi2
ARM GAS  /tmp/ccdMvw60.s 			page 7


 343              		.loc 1 161 0
 344 008c 02368313 		orrne	r3, r3, #2097152
 345              	.LVL35:
 346              		.loc 1 163 0
 347 0090 000051E3 		cmp	r1, #0
 348              		.loc 1 166 0
 349 0094 0410D2E5 		ldrb	r1, [r2, #4]	@ zero_extendqisi2
 350              		.loc 1 164 0
 351 0098 01358313 		orrne	r3, r3, #4194304
 352              	.LVL36:
 353              		.loc 1 166 0
 354 009c 000051E3 		cmp	r1, #0
 355              		.loc 1 167 0
 356 00a0 023A8313 		orrne	r3, r3, #8192
 357              	.LVL37:
 358              		.loc 1 170 0
 359 00a4 14109FE5 		ldr	r1, .L82+4
 360 00a8 303083E3 		orr	r3, r3, #48
 361              	.LVL38:
 362 00ac 003081E5 		str	r3, [r1]
 363              	.LVL39:
 364              		.loc 1 172 0
 365 00b0 0C3092E5 		ldr	r3, [r2, #12]
 366 00b4 083081E5 		str	r3, [r1, #8]
 367 00b8 1080BDE8 		ldmfd	sp!, {r4, pc}
 368              	.L83:
 369              		.align	2
 370              	.L82:
 371 00bc 00B00020 		.word	536915968
 372 00c0 00402020 		.word	538984448
 373              		.cfi_endproc
 374              	.LFE9:
 375              		.size	spi_lld_start, .-spi_lld_start
 376              		.section	.text.spi_lld_stop,"ax",%progbits
 377              		.align	2
 378              		.global	spi_lld_stop
 379              		.type	spi_lld_stop, %function
 380              	spi_lld_stop:
 381              	.LFB10:
 382              		.loc 1 182 0
 383              		.cfi_startproc
 384              		@ args = 0, pretend = 0, frame = 0
 385              		@ frame_needed = 0, uses_anonymous_args = 0
 386              	.LVL40:
 387              		.loc 1 185 0
 388 0000 4C209FE5 		ldr	r2, .L86
 389              		.loc 1 182 0
 390 0004 08402DE9 		stmfd	sp!, {r3, lr}
 391              		.cfi_def_cfa_offset 8
 392              		.cfi_offset 3, -8
 393              		.cfi_offset 14, -4
 394              		.loc 1 185 0
 395 0008 203292E5 		ldr	r3, [r2, #544]
 396              		.loc 1 188 0
 397 000c 0700A0E3 		mov	r0, #7
 398              	.LVL41:
 399              		.loc 1 185 0
ARM GAS  /tmp/ccdMvw60.s 			page 8


 400 0010 013583E3 		orr	r3, r3, #4194304
 401 0014 203282E5 		str	r3, [r2, #544]
 402              		.loc 1 188 0
 403 0018 0010A0E3 		mov	r1, #0
 404 001c FEFFFFEB 		bl	bcm2835_gpio_fnsel
 405              	.LVL42:
 406              		.loc 1 189 0
 407 0020 0800A0E3 		mov	r0, #8
 408 0024 0010A0E3 		mov	r1, #0
 409 0028 FEFFFFEB 		bl	bcm2835_gpio_fnsel
 410              	.LVL43:
 411              		.loc 1 190 0
 412 002c 0900A0E3 		mov	r0, #9
 413 0030 0010A0E3 		mov	r1, #0
 414 0034 FEFFFFEB 		bl	bcm2835_gpio_fnsel
 415              	.LVL44:
 416              		.loc 1 191 0
 417 0038 0A00A0E3 		mov	r0, #10
 418 003c 0010A0E3 		mov	r1, #0
 419 0040 FEFFFFEB 		bl	bcm2835_gpio_fnsel
 420              	.LVL45:
 421              		.loc 1 193 0
 422 0044 0840BDE8 		ldmfd	sp!, {r3, lr}
 423              		.cfi_restore 14
 424              		.cfi_restore 3
 425              		.cfi_def_cfa_offset 0
 426              		.loc 1 192 0
 427 0048 0B00A0E3 		mov	r0, #11
 428 004c 0010A0E3 		mov	r1, #0
 429 0050 FEFFFFEA 		b	bcm2835_gpio_fnsel
 430              	.LVL46:
 431              	.L87:
 432              		.align	2
 433              	.L86:
 434 0054 00B00020 		.word	536915968
 435              		.cfi_endproc
 436              	.LFE10:
 437              		.size	spi_lld_stop, .-spi_lld_stop
 438              		.section	.text.spi_lld_select,"ax",%progbits
 439              		.align	2
 440              		.global	spi_lld_select
 441              		.type	spi_lld_select, %function
 442              	spi_lld_select:
 443              	.LFB11:
 444              		.loc 1 202 0
 445              		.cfi_startproc
 446              		@ args = 0, pretend = 0, frame = 0
 447              		@ frame_needed = 0, uses_anonymous_args = 0
 448              		@ link register save eliminated.
 449              	.LVL47:
 450              		.loc 1 205 0
 451 0000 043090E5 		ldr	r3, [r0, #4]
 452              		.loc 1 203 0
 453 0004 18109FE5 		ldr	r1, .L89
 454              		.loc 1 205 0
 455 0008 0520D3E5 		ldrb	r2, [r3, #5]	@ zero_extendqisi2
 456              		.loc 1 203 0
ARM GAS  /tmp/ccdMvw60.s 			page 9


 457 000c 003091E5 		ldr	r3, [r1]
 458              	.LVL48:
 459              		.loc 1 205 0
 460 0010 032002E2 		and	r2, r2, #3
 461              		.loc 1 204 0
 462 0014 0330C3E3 		bic	r3, r3, #3
 463              	.LVL49:
 464              		.loc 1 205 0
 465 0018 033082E1 		orr	r3, r2, r3
 466              	.LVL50:
 467              		.loc 1 206 0
 468 001c 003081E5 		str	r3, [r1]
 469 0020 1EFF2FE1 		bx	lr
 470              	.L90:
 471              		.align	2
 472              	.L89:
 473 0024 00402020 		.word	538984448
 474              		.cfi_endproc
 475              	.LFE11:
 476              		.size	spi_lld_select, .-spi_lld_select
 477              		.section	.text.spi_lld_unselect,"ax",%progbits
 478              		.align	2
 479              		.global	spi_lld_unselect
 480              		.type	spi_lld_unselect, %function
 481              	spi_lld_unselect:
 482              	.LFB12:
 483              		.loc 1 217 0
 484              		.cfi_startproc
 485              		@ args = 0, pretend = 0, frame = 0
 486              		@ frame_needed = 0, uses_anonymous_args = 0
 487              		@ link register save eliminated.
 488              	.LVL51:
 489              		.loc 1 223 0
 490 0000 0C209FE5 		ldr	r2, .L92
 491 0004 003092E5 		ldr	r3, [r2]
 492 0008 0330C3E3 		bic	r3, r3, #3
 493 000c 003082E5 		str	r3, [r2]
 494 0010 1EFF2FE1 		bx	lr
 495              	.L93:
 496              		.align	2
 497              	.L92:
 498 0014 00402020 		.word	538984448
 499              		.cfi_endproc
 500              	.LFE12:
 501              		.size	spi_lld_unselect, .-spi_lld_unselect
 502              		.section	.text.spi_lld_ignore,"ax",%progbits
 503              		.align	2
 504              		.global	spi_lld_ignore
 505              		.type	spi_lld_ignore, %function
 506              	spi_lld_ignore:
 507              	.LFB13:
 508              		.loc 1 237 0
 509              		.cfi_startproc
 510              		@ args = 0, pretend = 0, frame = 0
 511              		@ frame_needed = 0, uses_anonymous_args = 0
 512              	.LVL52:
 513 0000 04E02DE5 		str	lr, [sp, #-4]!
ARM GAS  /tmp/ccdMvw60.s 			page 10


 514              		.cfi_def_cfa_offset 4
 515              		.cfi_offset 14, -4
 516              	.LBB18:
 517              	.LBB19:
 518              		.loc 1 261 0
 519 0004 00E0A0E3 		mov	lr, #0
 520              		.loc 1 259 0
 521 0008 34309FE5 		ldr	r3, .L96
 522              		.loc 1 267 0
 523 000c 34C09FE5 		ldr	ip, .L96+4
 524              		.loc 1 259 0
 525 0010 002093E5 		ldr	r2, [r3]
 526 0014 302082E3 		orr	r2, r2, #48
 527 0018 002083E5 		str	r2, [r3]
 528              		.loc 1 266 0
 529 001c 002093E5 		ldr	r2, [r3]
 530              		.loc 1 262 0
 531 0020 241080E5 		str	r1, [r0, #36]
 532              		.loc 1 266 0
 533 0024 1A2D82E3 		orr	r2, r2, #1664
 534              		.loc 1 261 0
 535 0028 20E080E5 		str	lr, [r0, #32]
 536              		.loc 1 263 0
 537 002c 1CE080E5 		str	lr, [r0, #28]
 538              		.loc 1 266 0
 539 0030 002083E5 		str	r2, [r3]
 540              		.loc 1 267 0
 541 0034 14329CE5 		ldr	r3, [ip, #532]
 542 0038 013583E3 		orr	r3, r3, #4194304
 543 003c 14328CE5 		str	r3, [ip, #532]
 544 0040 04F09DE4 		ldr	pc, [sp], #4
 545              	.L97:
 546              		.align	2
 547              	.L96:
 548 0044 00402020 		.word	538984448
 549 0048 00B00020 		.word	536915968
 550              	.LBE19:
 551              	.LBE18:
 552              		.cfi_endproc
 553              	.LFE13:
 554              		.size	spi_lld_ignore, .-spi_lld_ignore
 555              		.section	.text.spi_lld_exchange,"ax",%progbits
 556              		.align	2
 557              		.global	spi_lld_exchange
 558              		.type	spi_lld_exchange, %function
 559              	spi_lld_exchange:
 560              	.LFB14:
 561              		.loc 1 257 0
 562              		.cfi_startproc
 563              		@ args = 0, pretend = 0, frame = 0
 564              		@ frame_needed = 0, uses_anonymous_args = 0
 565              	.LVL53:
 566              		.loc 1 259 0
 567 0000 38C09FE5 		ldr	ip, .L100
 568              		.loc 1 257 0
 569 0004 10402DE9 		stmfd	sp!, {r4, lr}
 570              		.cfi_def_cfa_offset 8
ARM GAS  /tmp/ccdMvw60.s 			page 11


 571              		.cfi_offset 4, -8
 572              		.cfi_offset 14, -4
 573              		.loc 1 259 0
 574 0008 00E09CE5 		ldr	lr, [ip]
 575              		.loc 1 267 0
 576 000c 30409FE5 		ldr	r4, .L100+4
 577              		.loc 1 259 0
 578 0010 30E08EE3 		orr	lr, lr, #48
 579 0014 00E08CE5 		str	lr, [ip]
 580              		.loc 1 266 0
 581 0018 00E09CE5 		ldr	lr, [ip]
 582              		.loc 1 263 0
 583 001c 1C3080E5 		str	r3, [r0, #28]
 584              		.loc 1 266 0
 585 0020 1AED8EE3 		orr	lr, lr, #1664
 586              		.loc 1 261 0
 587 0024 202080E5 		str	r2, [r0, #32]
 588              		.loc 1 262 0
 589 0028 241080E5 		str	r1, [r0, #36]
 590              		.loc 1 266 0
 591 002c 00E08CE5 		str	lr, [ip]
 592              		.loc 1 267 0
 593 0030 143294E5 		ldr	r3, [r4, #532]
 594              	.LVL54:
 595 0034 013583E3 		orr	r3, r3, #4194304
 596 0038 143284E5 		str	r3, [r4, #532]
 597 003c 1080BDE8 		ldmfd	sp!, {r4, pc}
 598              	.L101:
 599              		.align	2
 600              	.L100:
 601 0040 00402020 		.word	538984448
 602 0044 00B00020 		.word	536915968
 603              		.cfi_endproc
 604              	.LFE14:
 605              		.size	spi_lld_exchange, .-spi_lld_exchange
 606              		.section	.text.spi_lld_send,"ax",%progbits
 607              		.align	2
 608              		.global	spi_lld_send
 609              		.type	spi_lld_send, %function
 610              	spi_lld_send:
 611              	.LFB15:
 612              		.loc 1 283 0
 613              		.cfi_startproc
 614              		@ args = 0, pretend = 0, frame = 0
 615              		@ frame_needed = 0, uses_anonymous_args = 0
 616              	.LVL55:
 617 0000 10402DE9 		stmfd	sp!, {r4, lr}
 618              		.cfi_def_cfa_offset 8
 619              		.cfi_offset 4, -8
 620              		.cfi_offset 14, -4
 621              	.LBB20:
 622              	.LBB21:
 623              		.loc 1 263 0
 624 0004 0040A0E3 		mov	r4, #0
 625              		.loc 1 259 0
 626 0008 34309FE5 		ldr	r3, .L104
 627              		.loc 1 267 0
ARM GAS  /tmp/ccdMvw60.s 			page 12


 628 000c 34E09FE5 		ldr	lr, .L104+4
 629              		.loc 1 259 0
 630 0010 00C093E5 		ldr	ip, [r3]
 631 0014 30C08CE3 		orr	ip, ip, #48
 632 0018 00C083E5 		str	ip, [r3]
 633              		.loc 1 266 0
 634 001c 00C093E5 		ldr	ip, [r3]
 635              		.loc 1 261 0
 636 0020 202080E5 		str	r2, [r0, #32]
 637              		.loc 1 266 0
 638 0024 1ACD8CE3 		orr	ip, ip, #1664
 639              		.loc 1 262 0
 640 0028 241080E5 		str	r1, [r0, #36]
 641              		.loc 1 263 0
 642 002c 1C4080E5 		str	r4, [r0, #28]
 643              		.loc 1 266 0
 644 0030 00C083E5 		str	ip, [r3]
 645              		.loc 1 267 0
 646 0034 14329EE5 		ldr	r3, [lr, #532]
 647 0038 013583E3 		orr	r3, r3, #4194304
 648 003c 14328EE5 		str	r3, [lr, #532]
 649 0040 1080BDE8 		ldmfd	sp!, {r4, pc}
 650              	.L105:
 651              		.align	2
 652              	.L104:
 653 0044 00402020 		.word	538984448
 654 0048 00B00020 		.word	536915968
 655              	.LBE21:
 656              	.LBE20:
 657              		.cfi_endproc
 658              	.LFE15:
 659              		.size	spi_lld_send, .-spi_lld_send
 660              		.section	.text.spi_lld_receive,"ax",%progbits
 661              		.align	2
 662              		.global	spi_lld_receive
 663              		.type	spi_lld_receive, %function
 664              	spi_lld_receive:
 665              	.LFB16:
 666              		.loc 1 300 0
 667              		.cfi_startproc
 668              		@ args = 0, pretend = 0, frame = 0
 669              		@ frame_needed = 0, uses_anonymous_args = 0
 670              	.LVL56:
 671 0000 10402DE9 		stmfd	sp!, {r4, lr}
 672              		.cfi_def_cfa_offset 8
 673              		.cfi_offset 4, -8
 674              		.cfi_offset 14, -4
 675              	.LBB22:
 676              	.LBB23:
 677              		.loc 1 261 0
 678 0004 0040A0E3 		mov	r4, #0
 679              		.loc 1 259 0
 680 0008 34309FE5 		ldr	r3, .L108
 681              		.loc 1 267 0
 682 000c 34E09FE5 		ldr	lr, .L108+4
 683              		.loc 1 259 0
 684 0010 00C093E5 		ldr	ip, [r3]
ARM GAS  /tmp/ccdMvw60.s 			page 13


 685 0014 30C08CE3 		orr	ip, ip, #48
 686 0018 00C083E5 		str	ip, [r3]
 687              		.loc 1 266 0
 688 001c 00C093E5 		ldr	ip, [r3]
 689              		.loc 1 262 0
 690 0020 241080E5 		str	r1, [r0, #36]
 691              		.loc 1 266 0
 692 0024 1ACD8CE3 		orr	ip, ip, #1664
 693              		.loc 1 263 0
 694 0028 1C2080E5 		str	r2, [r0, #28]
 695              		.loc 1 261 0
 696 002c 204080E5 		str	r4, [r0, #32]
 697              		.loc 1 266 0
 698 0030 00C083E5 		str	ip, [r3]
 699              		.loc 1 267 0
 700 0034 14329EE5 		ldr	r3, [lr, #532]
 701 0038 013583E3 		orr	r3, r3, #4194304
 702 003c 14328EE5 		str	r3, [lr, #532]
 703 0040 1080BDE8 		ldmfd	sp!, {r4, pc}
 704              	.L109:
 705              		.align	2
 706              	.L108:
 707 0044 00402020 		.word	538984448
 708 0048 00B00020 		.word	536915968
 709              	.LBE23:
 710              	.LBE22:
 711              		.cfi_endproc
 712              	.LFE16:
 713              		.size	spi_lld_receive, .-spi_lld_receive
 714              		.section	.text.spi_lld_polled_exchange,"ax",%progbits
 715              		.align	2
 716              		.global	spi_lld_polled_exchange
 717              		.type	spi_lld_polled_exchange, %function
 718              	spi_lld_polled_exchange:
 719              	.LFB17:
 720              		.loc 1 316 0
 721              		.cfi_startproc
 722              		@ args = 0, pretend = 0, frame = 0
 723              		@ frame_needed = 0, uses_anonymous_args = 0
 724              		@ link register save eliminated.
 725              	.LVL57:
 726              		.loc 1 320 0
 727 0000 4C309FE5 		ldr	r3, .L117
 728              		.loc 1 323 0
 729 0004 0300A0E1 		mov	r0, r3
 730              	.LVL58:
 731              		.loc 1 320 0
 732 0008 002093E5 		ldr	r2, [r3]
 733 000c B02082E3 		orr	r2, r2, #176
 734 0010 002083E5 		str	r2, [r3]
 735              	.L111:
 736              		.loc 1 323 0 discriminator 1
 737 0014 003090E5 		ldr	r3, [r0]
 738 0018 34209FE5 		ldr	r2, .L117
 739 001c 010713E3 		tst	r3, #262144
 740 0020 FBFFFF0A 		beq	.L111
 741              		.loc 1 329 0
ARM GAS  /tmp/ccdMvw60.s 			page 14


 742 0024 0200A0E1 		mov	r0, r2
 743              		.loc 1 326 0
 744 0028 041082E5 		str	r1, [r2, #4]
 745              	.L112:
 746              		.loc 1 329 0 discriminator 1
 747 002c 003090E5 		ldr	r3, [r0]
 748 0030 1C209FE5 		ldr	r2, .L117
 749 0034 010813E3 		tst	r3, #65536
 750 0038 FBFFFF0A 		beq	.L112
 751              		.loc 1 332 0
 752 003c 040092E5 		ldr	r0, [r2, #4]
 753              	.LVL59:
 754              		.loc 1 335 0
 755 0040 003092E5 		ldr	r3, [r2]
 756              		.loc 1 338 0
 757 0044 7000FFE6 		uxth	r0, r0
 758              		.loc 1 335 0
 759 0048 8030C3E3 		bic	r3, r3, #128
 760 004c 003082E5 		str	r3, [r2]
 761              		.loc 1 338 0
 762 0050 1EFF2FE1 		bx	lr
 763              	.L118:
 764              		.align	2
 765              	.L117:
 766 0054 00402020 		.word	538984448
 767              		.cfi_endproc
 768              	.LFE17:
 769              		.size	spi_lld_polled_exchange, .-spi_lld_polled_exchange
 770              		.comm	SPI0,40,4
 771              		.text
 772              	.Letext0:
 773              		.file 2 "/usr/lib/gcc/arm-none-eabi/4.9.3/include/stddef.h"
 774              		.file 3 "/usr/include/newlib/machine/_default_types.h"
 775              		.file 4 "/usr/include/newlib/sys/_stdint.h"
 776              		.file 5 "../../os/ports/GCC/ARM/chtypes.h"
 777              		.file 6 "../../os/kernel/include/chlists.h"
 778              		.file 7 "../../os/kernel/include/chthreads.h"
 779              		.file 8 "../../os/ports/GCC/ARM/chcore.h"
 780              		.file 9 "../../os/kernel/include/chmtx.h"
 781              		.file 10 "../../os/hal/include/spi.h"
 782              		.file 11 "../../os/hal/platforms/BCM2835/spi_lld.h"
 783              		.file 12 "../../os/kernel/include/chschd.h"
 784              		.file 13 "../../os/hal/platforms/BCM2835/bcm2835.h"
 785              		.section	.debug_info,"",%progbits
 786              	.Ldebug_info0:
 787 0000 FC090000 		.4byte	0x9fc
 788 0004 0400     		.2byte	0x4
 789 0006 00000000 		.4byte	.Ldebug_abbrev0
 790 000a 04       		.byte	0x4
 791 000b 01       		.uleb128 0x1
 792 000c 86040000 		.4byte	.LASF101
 793 0010 01       		.byte	0x1
 794 0011 11030000 		.4byte	.LASF102
 795 0015 FB030000 		.4byte	.LASF103
 796 0019 40000000 		.4byte	.Ldebug_ranges0+0x40
 797 001d 00000000 		.4byte	0
 798 0021 00000000 		.4byte	.Ldebug_line0
ARM GAS  /tmp/ccdMvw60.s 			page 15


 799 0025 02       		.uleb128 0x2
 800 0026 04       		.byte	0x4
 801 0027 05       		.byte	0x5
 802 0028 696E7400 		.ascii	"int\000"
 803 002c 03       		.uleb128 0x3
 804 002d 0C000000 		.4byte	.LASF2
 805 0031 02       		.byte	0x2
 806 0032 D4       		.byte	0xd4
 807 0033 37000000 		.4byte	0x37
 808 0037 04       		.uleb128 0x4
 809 0038 04       		.byte	0x4
 810 0039 07       		.byte	0x7
 811 003a 71010000 		.4byte	.LASF0
 812 003e 04       		.uleb128 0x4
 813 003f 01       		.byte	0x1
 814 0040 06       		.byte	0x6
 815 0041 7A000000 		.4byte	.LASF1
 816 0045 03       		.uleb128 0x3
 817 0046 1A000000 		.4byte	.LASF3
 818 004a 03       		.byte	0x3
 819 004b 1D       		.byte	0x1d
 820 004c 50000000 		.4byte	0x50
 821 0050 04       		.uleb128 0x4
 822 0051 01       		.byte	0x1
 823 0052 08       		.byte	0x8
 824 0053 A4020000 		.4byte	.LASF4
 825 0057 04       		.uleb128 0x4
 826 0058 02       		.byte	0x2
 827 0059 05       		.byte	0x5
 828 005a BC020000 		.4byte	.LASF5
 829 005e 03       		.uleb128 0x3
 830 005f 73030000 		.4byte	.LASF6
 831 0063 03       		.byte	0x3
 832 0064 2B       		.byte	0x2b
 833 0065 69000000 		.4byte	0x69
 834 0069 04       		.uleb128 0x4
 835 006a 02       		.byte	0x2
 836 006b 07       		.byte	0x7
 837 006c D1010000 		.4byte	.LASF7
 838 0070 03       		.uleb128 0x3
 839 0071 B4030000 		.4byte	.LASF8
 840 0075 03       		.byte	0x3
 841 0076 3F       		.byte	0x3f
 842 0077 7B000000 		.4byte	0x7b
 843 007b 04       		.uleb128 0x4
 844 007c 04       		.byte	0x4
 845 007d 05       		.byte	0x5
 846 007e B4000000 		.4byte	.LASF9
 847 0082 03       		.uleb128 0x3
 848 0083 3C010000 		.4byte	.LASF10
 849 0087 03       		.byte	0x3
 850 0088 41       		.byte	0x41
 851 0089 8D000000 		.4byte	0x8d
 852 008d 04       		.uleb128 0x4
 853 008e 04       		.byte	0x4
 854 008f 07       		.byte	0x7
 855 0090 95010000 		.4byte	.LASF11
ARM GAS  /tmp/ccdMvw60.s 			page 16


 856 0094 04       		.uleb128 0x4
 857 0095 08       		.byte	0x8
 858 0096 05       		.byte	0x5
 859 0097 6C000000 		.4byte	.LASF12
 860 009b 04       		.uleb128 0x4
 861 009c 08       		.byte	0x8
 862 009d 07       		.byte	0x7
 863 009e 35000000 		.4byte	.LASF13
 864 00a2 03       		.uleb128 0x3
 865 00a3 53040000 		.4byte	.LASF14
 866 00a7 04       		.byte	0x4
 867 00a8 14       		.byte	0x14
 868 00a9 45000000 		.4byte	0x45
 869 00ad 03       		.uleb128 0x3
 870 00ae EA000000 		.4byte	.LASF15
 871 00b2 04       		.byte	0x4
 872 00b3 1A       		.byte	0x1a
 873 00b4 5E000000 		.4byte	0x5e
 874 00b8 03       		.uleb128 0x3
 875 00b9 9C020000 		.4byte	.LASF16
 876 00bd 04       		.byte	0x4
 877 00be 1F       		.byte	0x1f
 878 00bf 70000000 		.4byte	0x70
 879 00c3 03       		.uleb128 0x3
 880 00c4 45030000 		.4byte	.LASF17
 881 00c8 04       		.byte	0x4
 882 00c9 20       		.byte	0x20
 883 00ca 82000000 		.4byte	0x82
 884 00ce 03       		.uleb128 0x3
 885 00cf EA010000 		.4byte	.LASF18
 886 00d3 05       		.byte	0x5
 887 00d4 2A       		.byte	0x2a
 888 00d5 A2000000 		.4byte	0xa2
 889 00d9 03       		.uleb128 0x3
 890 00da BD000000 		.4byte	.LASF19
 891 00de 05       		.byte	0x5
 892 00df 2B       		.byte	0x2b
 893 00e0 A2000000 		.4byte	0xa2
 894 00e4 03       		.uleb128 0x3
 895 00e5 7E020000 		.4byte	.LASF20
 896 00e9 05       		.byte	0x5
 897 00ea 2C       		.byte	0x2c
 898 00eb A2000000 		.4byte	0xa2
 899 00ef 03       		.uleb128 0x3
 900 00f0 A4000000 		.4byte	.LASF21
 901 00f4 05       		.byte	0x5
 902 00f5 2D       		.byte	0x2d
 903 00f6 A2000000 		.4byte	0xa2
 904 00fa 03       		.uleb128 0x3
 905 00fb 8D020000 		.4byte	.LASF22
 906 00ff 05       		.byte	0x5
 907 0100 2E       		.byte	0x2e
 908 0101 C3000000 		.4byte	0xc3
 909 0105 03       		.uleb128 0x3
 910 0106 E4010000 		.4byte	.LASF23
 911 010a 05       		.byte	0x5
 912 010b 2F       		.byte	0x2f
ARM GAS  /tmp/ccdMvw60.s 			page 17


 913 010c B8000000 		.4byte	0xb8
 914 0110 03       		.uleb128 0x3
 915 0111 FE010000 		.4byte	.LASF24
 916 0115 05       		.byte	0x5
 917 0116 31       		.byte	0x31
 918 0117 C3000000 		.4byte	0xc3
 919 011b 03       		.uleb128 0x3
 920 011c 9F030000 		.4byte	.LASF25
 921 0120 05       		.byte	0x5
 922 0121 33       		.byte	0x33
 923 0122 C3000000 		.4byte	0xc3
 924 0126 03       		.uleb128 0x3
 925 0127 FC020000 		.4byte	.LASF26
 926 012b 06       		.byte	0x6
 927 012c 23       		.byte	0x23
 928 012d 31010000 		.4byte	0x131
 929 0131 05       		.uleb128 0x5
 930 0132 FC020000 		.4byte	.LASF26
 931 0136 44       		.byte	0x44
 932 0137 07       		.byte	0x7
 933 0138 57       		.byte	0x57
 934 0139 22020000 		.4byte	0x222
 935 013d 06       		.uleb128 0x6
 936 013e ED020000 		.4byte	.LASF27
 937 0142 07       		.byte	0x7
 938 0143 58       		.byte	0x58
 939 0144 43020000 		.4byte	0x243
 940 0148 00       		.byte	0
 941 0149 06       		.uleb128 0x6
 942 014a 86020000 		.4byte	.LASF28
 943 014e 07       		.byte	0x7
 944 014f 5A       		.byte	0x5a
 945 0150 43020000 		.4byte	0x243
 946 0154 04       		.byte	0x4
 947 0155 06       		.uleb128 0x6
 948 0156 65000000 		.4byte	.LASF29
 949 015a 07       		.byte	0x7
 950 015b 5C       		.byte	0x5c
 951 015c FA000000 		.4byte	0xfa
 952 0160 08       		.byte	0x8
 953 0161 06       		.uleb128 0x6
 954 0162 3C050000 		.4byte	.LASF30
 955 0166 07       		.byte	0x7
 956 0167 5D       		.byte	0x5d
 957 0168 F3020000 		.4byte	0x2f3
 958 016c 0C       		.byte	0xc
 959 016d 06       		.uleb128 0x6
 960 016e F3000000 		.4byte	.LASF31
 961 0172 07       		.byte	0x7
 962 0173 5F       		.byte	0x5f
 963 0174 43020000 		.4byte	0x243
 964 0178 10       		.byte	0x10
 965 0179 06       		.uleb128 0x6
 966 017a 36020000 		.4byte	.LASF32
 967 017e 07       		.byte	0x7
 968 017f 60       		.byte	0x60
 969 0180 43020000 		.4byte	0x243
ARM GAS  /tmp/ccdMvw60.s 			page 18


 970 0184 14       		.byte	0x14
 971 0185 06       		.uleb128 0x6
 972 0186 7F040000 		.4byte	.LASF33
 973 018a 07       		.byte	0x7
 974 018b 67       		.byte	0x67
 975 018c 8E030000 		.4byte	0x38e
 976 0190 18       		.byte	0x18
 977 0191 06       		.uleb128 0x6
 978 0192 C6020000 		.4byte	.LASF34
 979 0196 07       		.byte	0x7
 980 0197 72       		.byte	0x72
 981 0198 D9000000 		.4byte	0xd9
 982 019c 1C       		.byte	0x1c
 983 019d 06       		.uleb128 0x6
 984 019e F4020000 		.4byte	.LASF35
 985 01a2 07       		.byte	0x7
 986 01a3 76       		.byte	0x76
 987 01a4 CE000000 		.4byte	0xce
 988 01a8 1D       		.byte	0x1d
 989 01a9 06       		.uleb128 0x6
 990 01aa 3E040000 		.4byte	.LASF36
 991 01ae 07       		.byte	0x7
 992 01af 7B       		.byte	0x7b
 993 01b0 E4000000 		.4byte	0xe4
 994 01b4 1E       		.byte	0x1e
 995 01b5 06       		.uleb128 0x6
 996 01b6 CE020000 		.4byte	.LASF37
 997 01ba 07       		.byte	0x7
 998 01bb 81       		.byte	0x81
 999 01bc EF000000 		.4byte	0xef
 1000 01c0 1F       		.byte	0x1f
 1001 01c1 06       		.uleb128 0x6
 1002 01c2 BE030000 		.4byte	.LASF38
 1003 01c6 07       		.byte	0x7
 1004 01c7 88       		.byte	0x88
 1005 01c8 12030000 		.4byte	0x312
 1006 01cc 20       		.byte	0x20
 1007 01cd 07       		.uleb128 0x7
 1008 01ce 705F7500 		.ascii	"p_u\000"
 1009 01d2 07       		.byte	0x7
 1010 01d3 AD       		.byte	0xad
 1011 01d4 59030000 		.4byte	0x359
 1012 01d8 24       		.byte	0x24
 1013 01d9 06       		.uleb128 0x6
 1014 01da 42050000 		.4byte	.LASF39
 1015 01de 07       		.byte	0x7
 1016 01df B2       		.byte	0xb2
 1017 01e0 69020000 		.4byte	0x269
 1018 01e4 28       		.byte	0x28
 1019 01e5 06       		.uleb128 0x6
 1020 01e6 DB030000 		.4byte	.LASF40
 1021 01ea 07       		.byte	0x7
 1022 01eb B8       		.byte	0xb8
 1023 01ec 49020000 		.4byte	0x249
 1024 01f0 2C       		.byte	0x2c
 1025 01f1 06       		.uleb128 0x6
 1026 01f2 06000000 		.4byte	.LASF41
ARM GAS  /tmp/ccdMvw60.s 			page 19


 1027 01f6 07       		.byte	0x7
 1028 01f7 BC       		.byte	0xbc
 1029 01f8 05010000 		.4byte	0x105
 1030 01fc 34       		.byte	0x34
 1031 01fd 06       		.uleb128 0x6
 1032 01fe 3A030000 		.4byte	.LASF42
 1033 0202 07       		.byte	0x7
 1034 0203 C2       		.byte	0xc2
 1035 0204 10010000 		.4byte	0x110
 1036 0208 38       		.byte	0x38
 1037 0209 06       		.uleb128 0x6
 1038 020a B2020000 		.4byte	.LASF43
 1039 020e 07       		.byte	0x7
 1040 020f C9       		.byte	0xc9
 1041 0210 A0030000 		.4byte	0x3a0
 1042 0214 3C       		.byte	0x3c
 1043 0215 06       		.uleb128 0x6
 1044 0216 A9030000 		.4byte	.LASF44
 1045 021a 07       		.byte	0x7
 1046 021b CD       		.byte	0xcd
 1047 021c FA000000 		.4byte	0xfa
 1048 0220 40       		.byte	0x40
 1049 0221 00       		.byte	0
 1050 0222 08       		.uleb128 0x8
 1051 0223 08       		.byte	0x8
 1052 0224 06       		.byte	0x6
 1053 0225 5A       		.byte	0x5a
 1054 0226 43020000 		.4byte	0x243
 1055 022a 06       		.uleb128 0x6
 1056 022b ED020000 		.4byte	.LASF27
 1057 022f 06       		.byte	0x6
 1058 0230 5B       		.byte	0x5b
 1059 0231 43020000 		.4byte	0x243
 1060 0235 00       		.byte	0
 1061 0236 06       		.uleb128 0x6
 1062 0237 86020000 		.4byte	.LASF28
 1063 023b 06       		.byte	0x6
 1064 023c 5D       		.byte	0x5d
 1065 023d 43020000 		.4byte	0x243
 1066 0241 04       		.byte	0x4
 1067 0242 00       		.byte	0
 1068 0243 09       		.uleb128 0x9
 1069 0244 04       		.byte	0x4
 1070 0245 26010000 		.4byte	0x126
 1071 0249 03       		.uleb128 0x3
 1072 024a 3E020000 		.4byte	.LASF45
 1073 024e 06       		.byte	0x6
 1074 024f 5F       		.byte	0x5f
 1075 0250 22020000 		.4byte	0x222
 1076 0254 08       		.uleb128 0x8
 1077 0255 04       		.byte	0x4
 1078 0256 06       		.byte	0x6
 1079 0257 64       		.byte	0x64
 1080 0258 69020000 		.4byte	0x269
 1081 025c 06       		.uleb128 0x6
 1082 025d ED020000 		.4byte	.LASF27
 1083 0261 06       		.byte	0x6
ARM GAS  /tmp/ccdMvw60.s 			page 20


 1084 0262 66       		.byte	0x66
 1085 0263 43020000 		.4byte	0x243
 1086 0267 00       		.byte	0
 1087 0268 00       		.byte	0
 1088 0269 03       		.uleb128 0x3
 1089 026a F2010000 		.4byte	.LASF46
 1090 026e 06       		.byte	0x6
 1091 026f 69       		.byte	0x69
 1092 0270 54020000 		.4byte	0x254
 1093 0274 03       		.uleb128 0x3
 1094 0275 47010000 		.4byte	.LASF47
 1095 0279 08       		.byte	0x8
 1096 027a A2       		.byte	0xa2
 1097 027b 7F020000 		.4byte	0x27f
 1098 027f 0A       		.uleb128 0xa
 1099 0280 04       		.byte	0x4
 1100 0281 05       		.uleb128 0x5
 1101 0282 D4030000 		.4byte	.LASF48
 1102 0286 24       		.byte	0x24
 1103 0287 08       		.byte	0x8
 1104 0288 B9       		.byte	0xb9
 1105 0289 F3020000 		.4byte	0x2f3
 1106 028d 07       		.uleb128 0x7
 1107 028e 723400   		.ascii	"r4\000"
 1108 0291 08       		.byte	0x8
 1109 0292 BA       		.byte	0xba
 1110 0293 74020000 		.4byte	0x274
 1111 0297 00       		.byte	0
 1112 0298 07       		.uleb128 0x7
 1113 0299 723500   		.ascii	"r5\000"
 1114 029c 08       		.byte	0x8
 1115 029d BB       		.byte	0xbb
 1116 029e 74020000 		.4byte	0x274
 1117 02a2 04       		.byte	0x4
 1118 02a3 07       		.uleb128 0x7
 1119 02a4 723600   		.ascii	"r6\000"
 1120 02a7 08       		.byte	0x8
 1121 02a8 BC       		.byte	0xbc
 1122 02a9 74020000 		.4byte	0x274
 1123 02ad 08       		.byte	0x8
 1124 02ae 07       		.uleb128 0x7
 1125 02af 723700   		.ascii	"r7\000"
 1126 02b2 08       		.byte	0x8
 1127 02b3 BD       		.byte	0xbd
 1128 02b4 74020000 		.4byte	0x274
 1129 02b8 0C       		.byte	0xc
 1130 02b9 07       		.uleb128 0x7
 1131 02ba 723800   		.ascii	"r8\000"
 1132 02bd 08       		.byte	0x8
 1133 02be BE       		.byte	0xbe
 1134 02bf 74020000 		.4byte	0x274
 1135 02c3 10       		.byte	0x10
 1136 02c4 07       		.uleb128 0x7
 1137 02c5 723900   		.ascii	"r9\000"
 1138 02c8 08       		.byte	0x8
 1139 02c9 BF       		.byte	0xbf
 1140 02ca 74020000 		.4byte	0x274
ARM GAS  /tmp/ccdMvw60.s 			page 21


 1141 02ce 14       		.byte	0x14
 1142 02cf 07       		.uleb128 0x7
 1143 02d0 72313000 		.ascii	"r10\000"
 1144 02d4 08       		.byte	0x8
 1145 02d5 C0       		.byte	0xc0
 1146 02d6 74020000 		.4byte	0x274
 1147 02da 18       		.byte	0x18
 1148 02db 07       		.uleb128 0x7
 1149 02dc 72313100 		.ascii	"r11\000"
 1150 02e0 08       		.byte	0x8
 1151 02e1 C1       		.byte	0xc1
 1152 02e2 74020000 		.4byte	0x274
 1153 02e6 1C       		.byte	0x1c
 1154 02e7 07       		.uleb128 0x7
 1155 02e8 6C7200   		.ascii	"lr\000"
 1156 02eb 08       		.byte	0x8
 1157 02ec C2       		.byte	0xc2
 1158 02ed 74020000 		.4byte	0x274
 1159 02f1 20       		.byte	0x20
 1160 02f2 00       		.byte	0
 1161 02f3 05       		.uleb128 0x5
 1162 02f4 C9010000 		.4byte	.LASF49
 1163 02f8 04       		.byte	0x4
 1164 02f9 08       		.byte	0x8
 1165 02fa CA       		.byte	0xca
 1166 02fb 0C030000 		.4byte	0x30c
 1167 02ff 07       		.uleb128 0x7
 1168 0300 72313300 		.ascii	"r13\000"
 1169 0304 08       		.byte	0x8
 1170 0305 CB       		.byte	0xcb
 1171 0306 0C030000 		.4byte	0x30c
 1172 030a 00       		.byte	0
 1173 030b 00       		.byte	0
 1174 030c 09       		.uleb128 0x9
 1175 030d 04       		.byte	0x4
 1176 030e 81020000 		.4byte	0x281
 1177 0312 0B       		.uleb128 0xb
 1178 0313 1B010000 		.4byte	0x11b
 1179 0317 05       		.uleb128 0x5
 1180 0318 0A020000 		.4byte	.LASF50
 1181 031c 10       		.byte	0x10
 1182 031d 09       		.byte	0x9
 1183 031e 25       		.byte	0x25
 1184 031f 48030000 		.4byte	0x348
 1185 0323 06       		.uleb128 0x6
 1186 0324 9C000000 		.4byte	.LASF51
 1187 0328 09       		.byte	0x9
 1188 0329 26       		.byte	0x26
 1189 032a 49020000 		.4byte	0x249
 1190 032e 00       		.byte	0
 1191 032f 06       		.uleb128 0x6
 1192 0330 34050000 		.4byte	.LASF52
 1193 0334 09       		.byte	0x9
 1194 0335 28       		.byte	0x28
 1195 0336 43020000 		.4byte	0x243
 1196 033a 08       		.byte	0x8
 1197 033b 06       		.uleb128 0x6
ARM GAS  /tmp/ccdMvw60.s 			page 22


 1198 033c 98030000 		.4byte	.LASF53
 1199 0340 09       		.byte	0x9
 1200 0341 2A       		.byte	0x2a
 1201 0342 48030000 		.4byte	0x348
 1202 0346 0C       		.byte	0xc
 1203 0347 00       		.byte	0
 1204 0348 09       		.uleb128 0x9
 1205 0349 04       		.byte	0x4
 1206 034a 17030000 		.4byte	0x317
 1207 034e 03       		.uleb128 0x3
 1208 034f 0A020000 		.4byte	.LASF50
 1209 0353 09       		.byte	0x9
 1210 0354 2C       		.byte	0x2c
 1211 0355 17030000 		.4byte	0x317
 1212 0359 0C       		.uleb128 0xc
 1213 035a 04       		.byte	0x4
 1214 035b 07       		.byte	0x7
 1215 035c 8F       		.byte	0x8f
 1216 035d 8E030000 		.4byte	0x38e
 1217 0361 0D       		.uleb128 0xd
 1218 0362 13000000 		.4byte	.LASF54
 1219 0366 07       		.byte	0x7
 1220 0367 96       		.byte	0x96
 1221 0368 05010000 		.4byte	0x105
 1222 036c 0D       		.uleb128 0xd
 1223 036d 52000000 		.4byte	.LASF55
 1224 0371 07       		.byte	0x7
 1225 0372 9D       		.byte	0x9d
 1226 0373 05010000 		.4byte	0x105
 1227 0377 0D       		.uleb128 0xd
 1228 0378 78040000 		.4byte	.LASF56
 1229 037c 07       		.byte	0x7
 1230 037d A4       		.byte	0xa4
 1231 037e 7F020000 		.4byte	0x27f
 1232 0382 0D       		.uleb128 0xd
 1233 0383 E6020000 		.4byte	.LASF57
 1234 0387 07       		.byte	0x7
 1235 0388 AB       		.byte	0xab
 1236 0389 10010000 		.4byte	0x110
 1237 038d 00       		.byte	0
 1238 038e 09       		.uleb128 0x9
 1239 038f 04       		.byte	0x4
 1240 0390 94030000 		.4byte	0x394
 1241 0394 0E       		.uleb128 0xe
 1242 0395 99030000 		.4byte	0x399
 1243 0399 04       		.uleb128 0x4
 1244 039a 01       		.byte	0x1
 1245 039b 08       		.byte	0x8
 1246 039c 5A030000 		.4byte	.LASF58
 1247 03a0 09       		.uleb128 0x9
 1248 03a1 04       		.byte	0x4
 1249 03a2 4E030000 		.4byte	0x34e
 1250 03a6 04       		.uleb128 0x4
 1251 03a7 04       		.byte	0x4
 1252 03a8 07       		.byte	0x7
 1253 03a9 20020000 		.4byte	.LASF59
 1254 03ad 09       		.uleb128 0x9
ARM GAS  /tmp/ccdMvw60.s 			page 23


 1255 03ae 04       		.byte	0x4
 1256 03af A2000000 		.4byte	0xa2
 1257 03b3 0F       		.uleb128 0xf
 1258 03b4 01       		.byte	0x1
 1259 03b5 0A       		.byte	0xa
 1260 03b6 4E       		.byte	0x4e
 1261 03b7 DA030000 		.4byte	0x3da
 1262 03bb 10       		.uleb128 0x10
 1263 03bc F0030000 		.4byte	.LASF60
 1264 03c0 00       		.sleb128 0
 1265 03c1 10       		.uleb128 0x10
 1266 03c2 86000000 		.4byte	.LASF61
 1267 03c6 01       		.sleb128 1
 1268 03c7 10       		.uleb128 0x10
 1269 03c8 E6030000 		.4byte	.LASF62
 1270 03cc 02       		.sleb128 2
 1271 03cd 10       		.uleb128 0x10
 1272 03ce 24000000 		.4byte	.LASF63
 1273 03d2 03       		.sleb128 3
 1274 03d3 10       		.uleb128 0x10
 1275 03d4 5F030000 		.4byte	.LASF64
 1276 03d8 04       		.sleb128 4
 1277 03d9 00       		.byte	0
 1278 03da 03       		.uleb128 0x3
 1279 03db 8D030000 		.4byte	.LASF65
 1280 03df 0A       		.byte	0xa
 1281 03e0 54       		.byte	0x54
 1282 03e1 B3030000 		.4byte	0x3b3
 1283 03e5 03       		.uleb128 0x3
 1284 03e6 5B000000 		.4byte	.LASF66
 1285 03ea 0B       		.byte	0xb
 1286 03eb 35       		.byte	0x35
 1287 03ec F0030000 		.4byte	0x3f0
 1288 03f0 05       		.uleb128 0x5
 1289 03f1 5B000000 		.4byte	.LASF66
 1290 03f5 28       		.byte	0x28
 1291 03f6 0B       		.byte	0xb
 1292 03f7 7C       		.byte	0x7c
 1293 03f8 51040000 		.4byte	0x451
 1294 03fc 06       		.uleb128 0x6
 1295 03fd AE000000 		.4byte	.LASF67
 1296 0401 0B       		.byte	0xb
 1297 0402 80       		.byte	0x80
 1298 0403 DA030000 		.4byte	0x3da
 1299 0407 00       		.byte	0
 1300 0408 06       		.uleb128 0x6
 1301 0409 6C030000 		.4byte	.LASF68
 1302 040d 0B       		.byte	0xb
 1303 040e 84       		.byte	0x84
 1304 040f F3040000 		.4byte	0x4f3
 1305 0413 04       		.byte	0x4
 1306 0414 06       		.uleb128 0x6
 1307 0415 95020000 		.4byte	.LASF69
 1308 0419 0B       		.byte	0xb
 1309 041a 89       		.byte	0x89
 1310 041b 43020000 		.4byte	0x243
 1311 041f 08       		.byte	0x8
ARM GAS  /tmp/ccdMvw60.s 			page 24


 1312 0420 06       		.uleb128 0x6
 1313 0421 5E010000 		.4byte	.LASF70
 1314 0425 0B       		.byte	0xb
 1315 0426 90       		.byte	0x90
 1316 0427 4E030000 		.4byte	0x34e
 1317 042b 0C       		.byte	0xc
 1318 042c 06       		.uleb128 0x6
 1319 042d 2F000000 		.4byte	.LASF71
 1320 0431 0B       		.byte	0xb
 1321 0432 98       		.byte	0x98
 1322 0433 7F020000 		.4byte	0x27f
 1323 0437 1C       		.byte	0x1c
 1324 0438 06       		.uleb128 0x6
 1325 0439 8F010000 		.4byte	.LASF72
 1326 043d 0B       		.byte	0xb
 1327 043e 9D       		.byte	0x9d
 1328 043f FE040000 		.4byte	0x4fe
 1329 0443 20       		.byte	0x20
 1330 0444 06       		.uleb128 0x6
 1331 0445 02010000 		.4byte	.LASF73
 1332 0449 0B       		.byte	0xb
 1333 044a A2       		.byte	0xa2
 1334 044b 2C000000 		.4byte	0x2c
 1335 044f 24       		.byte	0x24
 1336 0450 00       		.byte	0
 1337 0451 03       		.uleb128 0x3
 1338 0452 50010000 		.4byte	.LASF74
 1339 0456 0B       		.byte	0xb
 1340 0457 3D       		.byte	0x3d
 1341 0458 5C040000 		.4byte	0x45c
 1342 045c 09       		.uleb128 0x9
 1343 045d 04       		.byte	0x4
 1344 045e 62040000 		.4byte	0x462
 1345 0462 11       		.uleb128 0x11
 1346 0463 6D040000 		.4byte	0x46d
 1347 0467 12       		.uleb128 0x12
 1348 0468 6D040000 		.4byte	0x46d
 1349 046c 00       		.byte	0
 1350 046d 09       		.uleb128 0x9
 1351 046e 04       		.byte	0x4
 1352 046f E5030000 		.4byte	0x3e5
 1353 0473 08       		.uleb128 0x8
 1354 0474 10       		.byte	0x10
 1355 0475 0B       		.byte	0xb
 1356 0476 44       		.byte	0x44
 1357 0477 E8040000 		.4byte	0x4e8
 1358 047b 06       		.uleb128 0x6
 1359 047c FB000000 		.4byte	.LASF75
 1360 0480 0B       		.byte	0xb
 1361 0481 48       		.byte	0x48
 1362 0482 51040000 		.4byte	0x451
 1363 0486 00       		.byte	0
 1364 0487 06       		.uleb128 0x6
 1365 0488 A7010000 		.4byte	.LASF76
 1366 048c 0B       		.byte	0xb
 1367 048d 4F       		.byte	0x4f
 1368 048e A2000000 		.4byte	0xa2
ARM GAS  /tmp/ccdMvw60.s 			page 25


 1369 0492 04       		.byte	0x4
 1370 0493 06       		.uleb128 0x6
 1371 0494 72020000 		.4byte	.LASF77
 1372 0498 0B       		.byte	0xb
 1373 0499 52       		.byte	0x52
 1374 049a A2000000 		.4byte	0xa2
 1375 049e 05       		.byte	0x5
 1376 049f 06       		.uleb128 0x6
 1377 04a0 B4010000 		.4byte	.LASF78
 1378 04a4 0B       		.byte	0xb
 1379 04a5 58       		.byte	0x58
 1380 04a6 A2000000 		.4byte	0xa2
 1381 04aa 06       		.byte	0x6
 1382 04ab 06       		.uleb128 0x6
 1383 04ac 08010000 		.4byte	.LASF79
 1384 04b0 0B       		.byte	0xb
 1385 04b1 5E       		.byte	0x5e
 1386 04b2 A2000000 		.4byte	0xa2
 1387 04b6 07       		.byte	0x7
 1388 04b7 06       		.uleb128 0x6
 1389 04b8 1E010000 		.4byte	.LASF80
 1390 04bc 0B       		.byte	0xb
 1391 04bd 64       		.byte	0x64
 1392 04be A2000000 		.4byte	0xa2
 1393 04c2 08       		.byte	0x8
 1394 04c3 06       		.uleb128 0x6
 1395 04c4 C5030000 		.4byte	.LASF81
 1396 04c8 0B       		.byte	0xb
 1397 04c9 6A       		.byte	0x6a
 1398 04ca A2000000 		.4byte	0xa2
 1399 04ce 09       		.byte	0x9
 1400 04cf 06       		.uleb128 0x6
 1401 04d0 DE000000 		.4byte	.LASF82
 1402 04d4 0B       		.byte	0xb
 1403 04d5 70       		.byte	0x70
 1404 04d6 A2000000 		.4byte	0xa2
 1405 04da 0A       		.byte	0xa
 1406 04db 06       		.uleb128 0x6
 1407 04dc 03030000 		.4byte	.LASF83
 1408 04e0 0B       		.byte	0xb
 1409 04e1 73       		.byte	0x73
 1410 04e2 C3000000 		.4byte	0xc3
 1411 04e6 0C       		.byte	0xc
 1412 04e7 00       		.byte	0
 1413 04e8 03       		.uleb128 0x3
 1414 04e9 2A050000 		.4byte	.LASF84
 1415 04ed 0B       		.byte	0xb
 1416 04ee 75       		.byte	0x75
 1417 04ef 73040000 		.4byte	0x473
 1418 04f3 09       		.uleb128 0x9
 1419 04f4 04       		.byte	0x4
 1420 04f5 F9040000 		.4byte	0x4f9
 1421 04f9 0E       		.uleb128 0xe
 1422 04fa E8040000 		.4byte	0x4e8
 1423 04fe 09       		.uleb128 0x9
 1424 04ff 04       		.byte	0x4
 1425 0500 04050000 		.4byte	0x504
ARM GAS  /tmp/ccdMvw60.s 			page 26


 1426 0504 13       		.uleb128 0x13
 1427 0505 14       		.uleb128 0x14
 1428 0506 CD000000 		.4byte	.LASF99
 1429 050a 01       		.byte	0x1
 1430 050b 0001     		.2byte	0x100
 1431 050d 01       		.byte	0x1
 1432 050e 41050000 		.4byte	0x541
 1433 0512 15       		.uleb128 0x15
 1434 0513 5B040000 		.4byte	.LASF85
 1435 0517 01       		.byte	0x1
 1436 0518 0001     		.2byte	0x100
 1437 051a 6D040000 		.4byte	0x46d
 1438 051e 16       		.uleb128 0x16
 1439 051f 6E00     		.ascii	"n\000"
 1440 0521 01       		.byte	0x1
 1441 0522 0001     		.2byte	0x100
 1442 0524 2C000000 		.4byte	0x2c
 1443 0528 15       		.uleb128 0x15
 1444 0529 8F010000 		.4byte	.LASF72
 1445 052d 01       		.byte	0x1
 1446 052e 0101     		.2byte	0x101
 1447 0530 FE040000 		.4byte	0x4fe
 1448 0534 15       		.uleb128 0x15
 1449 0535 2F000000 		.4byte	.LASF71
 1450 0539 01       		.byte	0x1
 1451 053a 0101     		.2byte	0x101
 1452 053c 7F020000 		.4byte	0x27f
 1453 0540 00       		.byte	0
 1454 0541 17       		.uleb128 0x17
 1455 0542 60040000 		.4byte	.LASF87
 1456 0546 01       		.byte	0x1
 1457 0547 4B       		.byte	0x4b
 1458 0548 00000000 		.4byte	.LFB7
 1459 054c 9C010000 		.4byte	.LFE7-.LFB7
 1460 0550 01       		.uleb128 0x1
 1461 0551 9C       		.byte	0x9c
 1462 0552 38060000 		.4byte	0x638
 1463 0556 18       		.uleb128 0x18
 1464 0557 5B040000 		.4byte	.LASF85
 1465 055b 01       		.byte	0x1
 1466 055c 4B       		.byte	0x4b
 1467 055d 6D040000 		.4byte	0x46d
 1468 0561 00000000 		.4byte	.LLST0
 1469 0565 19       		.uleb128 0x19
 1470 0566 00000000 		.4byte	.Ldebug_ranges0+0
 1471 056a 10060000 		.4byte	0x610
 1472 056e 1A       		.uleb128 0x1a
 1473 056f 00000000 		.4byte	.LASF86
 1474 0573 01       		.byte	0x1
 1475 0574 4E       		.byte	0x4e
 1476 0575 38060000 		.4byte	0x638
 1477 0579 4A000000 		.4byte	.LLST1
 1478 057d 19       		.uleb128 0x19
 1479 057e 20000000 		.4byte	.Ldebug_ranges0+0x20
 1480 0582 96050000 		.4byte	0x596
 1481 0586 1A       		.uleb128 0x1a
 1482 0587 8F010000 		.4byte	.LASF72
ARM GAS  /tmp/ccdMvw60.s 			page 27


 1483 058b 01       		.byte	0x1
 1484 058c 53       		.byte	0x53
 1485 058d 3E060000 		.4byte	0x63e
 1486 0591 A0000000 		.4byte	.LLST2
 1487 0595 00       		.byte	0
 1488 0596 1B       		.uleb128 0x1b
 1489 0597 C0000000 		.4byte	.LBB12
 1490 059b 10000000 		.4byte	.LBE12-.LBB12
 1491 059f C1050000 		.4byte	0x5c1
 1492 05a3 1C       		.uleb128 0x1c
 1493 05a4 727800   		.ascii	"rx\000"
 1494 05a7 01       		.byte	0x1
 1495 05a8 63       		.byte	0x63
 1496 05a9 C3000000 		.4byte	0xc3
 1497 05ad D6000000 		.4byte	.LLST3
 1498 05b1 1A       		.uleb128 0x1a
 1499 05b2 2F000000 		.4byte	.LASF71
 1500 05b6 01       		.byte	0x1
 1501 05b7 63       		.byte	0x63
 1502 05b8 AD030000 		.4byte	0x3ad
 1503 05bc E9000000 		.4byte	.LLST4
 1504 05c0 00       		.byte	0
 1505 05c1 1B       		.uleb128 0x1b
 1506 05c2 24010000 		.4byte	.LBB13
 1507 05c6 0C000000 		.4byte	.LBE13-.LBB13
 1508 05ca E6050000 		.4byte	0x5e6
 1509 05ce 1C       		.uleb128 0x1c
 1510 05cf 747000   		.ascii	"tp\000"
 1511 05d2 01       		.byte	0x1
 1512 05d3 66       		.byte	0x66
 1513 05d4 43020000 		.4byte	0x243
 1514 05d8 09010000 		.4byte	.LLST5
 1515 05dc 1D       		.uleb128 0x1d
 1516 05dd 30010000 		.4byte	.LVL17
 1517 05e1 C5090000 		.4byte	0x9c5
 1518 05e5 00       		.byte	0
 1519 05e6 1B       		.uleb128 0x1b
 1520 05e7 44010000 		.4byte	.LBB14
 1521 05eb 44000000 		.4byte	.LBE14-.LBB14
 1522 05ef 03060000 		.4byte	0x603
 1523 05f3 1A       		.uleb128 0x1a
 1524 05f4 8F010000 		.4byte	.LASF72
 1525 05f8 01       		.byte	0x1
 1526 05f9 5A       		.byte	0x5a
 1527 05fa AD030000 		.4byte	0x3ad
 1528 05fe 1C010000 		.4byte	.LLST6
 1529 0602 00       		.byte	0
 1530 0603 1E       		.uleb128 0x1e
 1531 0604 0C010000 		.4byte	.LVL15
 1532 0608 1F       		.uleb128 0x1f
 1533 0609 01       		.uleb128 0x1
 1534 060a 50       		.byte	0x50
 1535 060b 02       		.uleb128 0x2
 1536 060c 74       		.byte	0x74
 1537 060d 00       		.sleb128 0
 1538 060e 00       		.byte	0
 1539 060f 00       		.byte	0
ARM GAS  /tmp/ccdMvw60.s 			page 28


 1540 0610 20       		.uleb128 0x20
 1541 0611 A0000000 		.4byte	.LBB15
 1542 0615 10000000 		.4byte	.LBE15-.LBB15
 1543 0619 1C       		.uleb128 0x1c
 1544 061a 727800   		.ascii	"rx\000"
 1545 061d 01       		.byte	0x1
 1546 061e 6B       		.byte	0x6b
 1547 061f C3000000 		.4byte	0xc3
 1548 0623 52010000 		.4byte	.LLST7
 1549 0627 1A       		.uleb128 0x1a
 1550 0628 2F000000 		.4byte	.LASF71
 1551 062c 01       		.byte	0x1
 1552 062d 6B       		.byte	0x6b
 1553 062e AD030000 		.4byte	0x3ad
 1554 0632 65010000 		.4byte	.LLST8
 1555 0636 00       		.byte	0
 1556 0637 00       		.byte	0
 1557 0638 09       		.uleb128 0x9
 1558 0639 04       		.byte	0x4
 1559 063a 2C000000 		.4byte	0x2c
 1560 063e 09       		.uleb128 0x9
 1561 063f 04       		.byte	0x4
 1562 0640 AD000000 		.4byte	0xad
 1563 0644 17       		.uleb128 0x17
 1564 0645 8F000000 		.4byte	.LASF88
 1565 0649 01       		.byte	0x1
 1566 064a 79       		.byte	0x79
 1567 064b 00000000 		.4byte	.LFB8
 1568 064f 0C000000 		.4byte	.LFE8-.LFB8
 1569 0653 01       		.uleb128 0x1
 1570 0654 9C       		.byte	0x9c
 1571 0655 6D060000 		.4byte	0x66d
 1572 0659 21       		.uleb128 0x21
 1573 065a 08000000 		.4byte	.LVL23
 1574 065e DA090000 		.4byte	0x9da
 1575 0662 1F       		.uleb128 0x1f
 1576 0663 01       		.uleb128 0x1
 1577 0664 50       		.byte	0x50
 1578 0665 05       		.uleb128 0x5
 1579 0666 03       		.byte	0x3
 1580 0667 00000000 		.4byte	SPI0
 1581 066b 00       		.byte	0
 1582 066c 00       		.byte	0
 1583 066d 17       		.uleb128 0x17
 1584 066e 45040000 		.4byte	.LASF89
 1585 0672 01       		.byte	0x1
 1586 0673 84       		.byte	0x84
 1587 0674 00000000 		.4byte	.LFB9
 1588 0678 C4000000 		.4byte	.LFE9-.LFB9
 1589 067c 01       		.uleb128 0x1
 1590 067d 9C       		.byte	0x9c
 1591 067e 22070000 		.4byte	0x722
 1592 0682 18       		.uleb128 0x18
 1593 0683 5B040000 		.4byte	.LASF85
 1594 0687 01       		.byte	0x1
 1595 0688 84       		.byte	0x84
 1596 0689 6D040000 		.4byte	0x46d
ARM GAS  /tmp/ccdMvw60.s 			page 29


 1597 068d 85010000 		.4byte	.LLST9
 1598 0691 1A       		.uleb128 0x1a
 1599 0692 34010000 		.4byte	.LASF90
 1600 0696 01       		.byte	0x1
 1601 0697 90       		.byte	0x90
 1602 0698 C3000000 		.4byte	0xc3
 1603 069c A3010000 		.4byte	.LLST10
 1604 06a0 22       		.uleb128 0x22
 1605 06a1 63666700 		.ascii	"cfg\000"
 1606 06a5 01       		.byte	0x1
 1607 06a6 95       		.byte	0x95
 1608 06a7 F3040000 		.4byte	0x4f3
 1609 06ab 01       		.uleb128 0x1
 1610 06ac 52       		.byte	0x52
 1611 06ad 23       		.uleb128 0x23
 1612 06ae 24000000 		.4byte	.LVL26
 1613 06b2 EC090000 		.4byte	0x9ec
 1614 06b6 C5060000 		.4byte	0x6c5
 1615 06ba 1F       		.uleb128 0x1f
 1616 06bb 01       		.uleb128 0x1
 1617 06bc 51       		.byte	0x51
 1618 06bd 01       		.uleb128 0x1
 1619 06be 34       		.byte	0x34
 1620 06bf 1F       		.uleb128 0x1f
 1621 06c0 01       		.uleb128 0x1
 1622 06c1 50       		.byte	0x50
 1623 06c2 01       		.uleb128 0x1
 1624 06c3 37       		.byte	0x37
 1625 06c4 00       		.byte	0
 1626 06c5 23       		.uleb128 0x23
 1627 06c6 30000000 		.4byte	.LVL27
 1628 06ca EC090000 		.4byte	0x9ec
 1629 06ce DD060000 		.4byte	0x6dd
 1630 06d2 1F       		.uleb128 0x1f
 1631 06d3 01       		.uleb128 0x1
 1632 06d4 51       		.byte	0x51
 1633 06d5 01       		.uleb128 0x1
 1634 06d6 34       		.byte	0x34
 1635 06d7 1F       		.uleb128 0x1f
 1636 06d8 01       		.uleb128 0x1
 1637 06d9 50       		.byte	0x50
 1638 06da 01       		.uleb128 0x1
 1639 06db 38       		.byte	0x38
 1640 06dc 00       		.byte	0
 1641 06dd 23       		.uleb128 0x23
 1642 06de 3C000000 		.4byte	.LVL28
 1643 06e2 EC090000 		.4byte	0x9ec
 1644 06e6 F5060000 		.4byte	0x6f5
 1645 06ea 1F       		.uleb128 0x1f
 1646 06eb 01       		.uleb128 0x1
 1647 06ec 51       		.byte	0x51
 1648 06ed 01       		.uleb128 0x1
 1649 06ee 34       		.byte	0x34
 1650 06ef 1F       		.uleb128 0x1f
 1651 06f0 01       		.uleb128 0x1
 1652 06f1 50       		.byte	0x50
 1653 06f2 01       		.uleb128 0x1
ARM GAS  /tmp/ccdMvw60.s 			page 30


 1654 06f3 39       		.byte	0x39
 1655 06f4 00       		.byte	0
 1656 06f5 23       		.uleb128 0x23
 1657 06f6 48000000 		.4byte	.LVL29
 1658 06fa EC090000 		.4byte	0x9ec
 1659 06fe 0D070000 		.4byte	0x70d
 1660 0702 1F       		.uleb128 0x1f
 1661 0703 01       		.uleb128 0x1
 1662 0704 51       		.byte	0x51
 1663 0705 01       		.uleb128 0x1
 1664 0706 34       		.byte	0x34
 1665 0707 1F       		.uleb128 0x1f
 1666 0708 01       		.uleb128 0x1
 1667 0709 50       		.byte	0x50
 1668 070a 01       		.uleb128 0x1
 1669 070b 3A       		.byte	0x3a
 1670 070c 00       		.byte	0
 1671 070d 24       		.uleb128 0x24
 1672 070e 54000000 		.4byte	.LVL30
 1673 0712 EC090000 		.4byte	0x9ec
 1674 0716 1F       		.uleb128 0x1f
 1675 0717 01       		.uleb128 0x1
 1676 0718 51       		.byte	0x51
 1677 0719 01       		.uleb128 0x1
 1678 071a 34       		.byte	0x34
 1679 071b 1F       		.uleb128 0x1f
 1680 071c 01       		.uleb128 0x1
 1681 071d 50       		.byte	0x50
 1682 071e 01       		.uleb128 0x1
 1683 071f 3B       		.byte	0x3b
 1684 0720 00       		.byte	0
 1685 0721 00       		.byte	0
 1686 0722 17       		.uleb128 0x17
 1687 0723 29020000 		.4byte	.LASF91
 1688 0727 01       		.byte	0x1
 1689 0728 B6       		.byte	0xb6
 1690 0729 00000000 		.4byte	.LFB10
 1691 072d 58000000 		.4byte	.LFE10-.LFB10
 1692 0731 01       		.uleb128 0x1
 1693 0732 9C       		.byte	0x9c
 1694 0733 BB070000 		.4byte	0x7bb
 1695 0737 18       		.uleb128 0x18
 1696 0738 5B040000 		.4byte	.LASF85
 1697 073c 01       		.byte	0x1
 1698 073d B6       		.byte	0xb6
 1699 073e 6D040000 		.4byte	0x46d
 1700 0742 C2010000 		.4byte	.LLST11
 1701 0746 23       		.uleb128 0x23
 1702 0747 20000000 		.4byte	.LVL42
 1703 074b EC090000 		.4byte	0x9ec
 1704 074f 5E070000 		.4byte	0x75e
 1705 0753 1F       		.uleb128 0x1f
 1706 0754 01       		.uleb128 0x1
 1707 0755 51       		.byte	0x51
 1708 0756 01       		.uleb128 0x1
 1709 0757 30       		.byte	0x30
 1710 0758 1F       		.uleb128 0x1f
ARM GAS  /tmp/ccdMvw60.s 			page 31


 1711 0759 01       		.uleb128 0x1
 1712 075a 50       		.byte	0x50
 1713 075b 01       		.uleb128 0x1
 1714 075c 37       		.byte	0x37
 1715 075d 00       		.byte	0
 1716 075e 23       		.uleb128 0x23
 1717 075f 2C000000 		.4byte	.LVL43
 1718 0763 EC090000 		.4byte	0x9ec
 1719 0767 76070000 		.4byte	0x776
 1720 076b 1F       		.uleb128 0x1f
 1721 076c 01       		.uleb128 0x1
 1722 076d 51       		.byte	0x51
 1723 076e 01       		.uleb128 0x1
 1724 076f 30       		.byte	0x30
 1725 0770 1F       		.uleb128 0x1f
 1726 0771 01       		.uleb128 0x1
 1727 0772 50       		.byte	0x50
 1728 0773 01       		.uleb128 0x1
 1729 0774 38       		.byte	0x38
 1730 0775 00       		.byte	0
 1731 0776 23       		.uleb128 0x23
 1732 0777 38000000 		.4byte	.LVL44
 1733 077b EC090000 		.4byte	0x9ec
 1734 077f 8E070000 		.4byte	0x78e
 1735 0783 1F       		.uleb128 0x1f
 1736 0784 01       		.uleb128 0x1
 1737 0785 51       		.byte	0x51
 1738 0786 01       		.uleb128 0x1
 1739 0787 30       		.byte	0x30
 1740 0788 1F       		.uleb128 0x1f
 1741 0789 01       		.uleb128 0x1
 1742 078a 50       		.byte	0x50
 1743 078b 01       		.uleb128 0x1
 1744 078c 39       		.byte	0x39
 1745 078d 00       		.byte	0
 1746 078e 23       		.uleb128 0x23
 1747 078f 44000000 		.4byte	.LVL45
 1748 0793 EC090000 		.4byte	0x9ec
 1749 0797 A6070000 		.4byte	0x7a6
 1750 079b 1F       		.uleb128 0x1f
 1751 079c 01       		.uleb128 0x1
 1752 079d 51       		.byte	0x51
 1753 079e 01       		.uleb128 0x1
 1754 079f 30       		.byte	0x30
 1755 07a0 1F       		.uleb128 0x1f
 1756 07a1 01       		.uleb128 0x1
 1757 07a2 50       		.byte	0x50
 1758 07a3 01       		.uleb128 0x1
 1759 07a4 3A       		.byte	0x3a
 1760 07a5 00       		.byte	0
 1761 07a6 21       		.uleb128 0x21
 1762 07a7 54000000 		.4byte	.LVL46
 1763 07ab EC090000 		.4byte	0x9ec
 1764 07af 1F       		.uleb128 0x1f
 1765 07b0 01       		.uleb128 0x1
 1766 07b1 51       		.byte	0x51
 1767 07b2 01       		.uleb128 0x1
ARM GAS  /tmp/ccdMvw60.s 			page 32


 1768 07b3 30       		.byte	0x30
 1769 07b4 1F       		.uleb128 0x1f
 1770 07b5 01       		.uleb128 0x1
 1771 07b6 50       		.byte	0x50
 1772 07b7 01       		.uleb128 0x1
 1773 07b8 3B       		.byte	0x3b
 1774 07b9 00       		.byte	0
 1775 07ba 00       		.byte	0
 1776 07bb 17       		.uleb128 0x17
 1777 07bc 63020000 		.4byte	.LASF92
 1778 07c0 01       		.byte	0x1
 1779 07c1 CA       		.byte	0xca
 1780 07c2 00000000 		.4byte	.LFB11
 1781 07c6 28000000 		.4byte	.LFE11-.LFB11
 1782 07ca 01       		.uleb128 0x1
 1783 07cb 9C       		.byte	0x9c
 1784 07cc EA070000 		.4byte	0x7ea
 1785 07d0 25       		.uleb128 0x25
 1786 07d1 5B040000 		.4byte	.LASF85
 1787 07d5 01       		.byte	0x1
 1788 07d6 CA       		.byte	0xca
 1789 07d7 6D040000 		.4byte	0x46d
 1790 07db 01       		.uleb128 0x1
 1791 07dc 50       		.byte	0x50
 1792 07dd 22       		.uleb128 0x22
 1793 07de 637300   		.ascii	"cs\000"
 1794 07e1 01       		.byte	0x1
 1795 07e2 CB       		.byte	0xcb
 1796 07e3 C3000000 		.4byte	0xc3
 1797 07e7 01       		.uleb128 0x1
 1798 07e8 53       		.byte	0x53
 1799 07e9 00       		.byte	0
 1800 07ea 17       		.uleb128 0x17
 1801 07eb 7E010000 		.4byte	.LASF93
 1802 07ef 01       		.byte	0x1
 1803 07f0 D9       		.byte	0xd9
 1804 07f1 00000000 		.4byte	.LFB12
 1805 07f5 18000000 		.4byte	.LFE12-.LFB12
 1806 07f9 01       		.uleb128 0x1
 1807 07fa 9C       		.byte	0x9c
 1808 07fb 0D080000 		.4byte	0x80d
 1809 07ff 25       		.uleb128 0x25
 1810 0800 5B040000 		.4byte	.LASF85
 1811 0804 01       		.byte	0x1
 1812 0805 D9       		.byte	0xd9
 1813 0806 6D040000 		.4byte	0x46d
 1814 080a 01       		.uleb128 0x1
 1815 080b 50       		.byte	0x50
 1816 080c 00       		.byte	0
 1817 080d 17       		.uleb128 0x17
 1818 080e 7E030000 		.4byte	.LASF94
 1819 0812 01       		.byte	0x1
 1820 0813 ED       		.byte	0xed
 1821 0814 00000000 		.4byte	.LFB13
 1822 0818 4C000000 		.4byte	.LFE13-.LFB13
 1823 081c 01       		.uleb128 0x1
 1824 081d 9C       		.byte	0x9c
ARM GAS  /tmp/ccdMvw60.s 			page 33


 1825 081e 65080000 		.4byte	0x865
 1826 0822 25       		.uleb128 0x25
 1827 0823 5B040000 		.4byte	.LASF85
 1828 0827 01       		.byte	0x1
 1829 0828 ED       		.byte	0xed
 1830 0829 6D040000 		.4byte	0x46d
 1831 082d 01       		.uleb128 0x1
 1832 082e 50       		.byte	0x50
 1833 082f 26       		.uleb128 0x26
 1834 0830 6E00     		.ascii	"n\000"
 1835 0832 01       		.byte	0x1
 1836 0833 ED       		.byte	0xed
 1837 0834 2C000000 		.4byte	0x2c
 1838 0838 01       		.uleb128 0x1
 1839 0839 51       		.byte	0x51
 1840 083a 27       		.uleb128 0x27
 1841 083b 05050000 		.4byte	0x505
 1842 083f 04000000 		.4byte	.LBB18
 1843 0843 48000000 		.4byte	.LBE18-.LBB18
 1844 0847 01       		.byte	0x1
 1845 0848 EE       		.byte	0xee
 1846 0849 28       		.uleb128 0x28
 1847 084a 34050000 		.4byte	0x534
 1848 084e 00       		.byte	0
 1849 084f 28       		.uleb128 0x28
 1850 0850 28050000 		.4byte	0x528
 1851 0854 00       		.byte	0
 1852 0855 29       		.uleb128 0x29
 1853 0856 1E050000 		.4byte	0x51e
 1854 085a 01       		.uleb128 0x1
 1855 085b 51       		.byte	0x51
 1856 085c 29       		.uleb128 0x29
 1857 085d 12050000 		.4byte	0x512
 1858 0861 01       		.uleb128 0x1
 1859 0862 50       		.byte	0x50
 1860 0863 00       		.byte	0
 1861 0864 00       		.byte	0
 1862 0865 2A       		.uleb128 0x2a
 1863 0866 05050000 		.4byte	0x505
 1864 086a 00000000 		.4byte	.LFB14
 1865 086e 48000000 		.4byte	.LFE14-.LFB14
 1866 0872 01       		.uleb128 0x1
 1867 0873 9C       		.byte	0x9c
 1868 0874 97080000 		.4byte	0x897
 1869 0878 29       		.uleb128 0x29
 1870 0879 12050000 		.4byte	0x512
 1871 087d 01       		.uleb128 0x1
 1872 087e 50       		.byte	0x50
 1873 087f 29       		.uleb128 0x29
 1874 0880 1E050000 		.4byte	0x51e
 1875 0884 01       		.uleb128 0x1
 1876 0885 51       		.byte	0x51
 1877 0886 29       		.uleb128 0x29
 1878 0887 28050000 		.4byte	0x528
 1879 088b 01       		.uleb128 0x1
 1880 088c 52       		.byte	0x52
 1881 088d 2B       		.uleb128 0x2b
ARM GAS  /tmp/ccdMvw60.s 			page 34


 1882 088e 34050000 		.4byte	0x534
 1883 0892 E3010000 		.4byte	.LLST12
 1884 0896 00       		.byte	0
 1885 0897 2C       		.uleb128 0x2c
 1886 0898 64010000 		.4byte	.LASF95
 1887 089c 01       		.byte	0x1
 1888 089d 1B01     		.2byte	0x11b
 1889 089f 00000000 		.4byte	.LFB15
 1890 08a3 4C000000 		.4byte	.LFE15-.LFB15
 1891 08a7 01       		.uleb128 0x1
 1892 08a8 9C       		.byte	0x9c
 1893 08a9 02090000 		.4byte	0x902
 1894 08ad 2D       		.uleb128 0x2d
 1895 08ae 5B040000 		.4byte	.LASF85
 1896 08b2 01       		.byte	0x1
 1897 08b3 1B01     		.2byte	0x11b
 1898 08b5 6D040000 		.4byte	0x46d
 1899 08b9 01       		.uleb128 0x1
 1900 08ba 50       		.byte	0x50
 1901 08bb 2E       		.uleb128 0x2e
 1902 08bc 6E00     		.ascii	"n\000"
 1903 08be 01       		.byte	0x1
 1904 08bf 1B01     		.2byte	0x11b
 1905 08c1 2C000000 		.4byte	0x2c
 1906 08c5 01       		.uleb128 0x1
 1907 08c6 51       		.byte	0x51
 1908 08c7 2D       		.uleb128 0x2d
 1909 08c8 8F010000 		.4byte	.LASF72
 1910 08cc 01       		.byte	0x1
 1911 08cd 1B01     		.2byte	0x11b
 1912 08cf FE040000 		.4byte	0x4fe
 1913 08d3 01       		.uleb128 0x1
 1914 08d4 52       		.byte	0x52
 1915 08d5 2F       		.uleb128 0x2f
 1916 08d6 05050000 		.4byte	0x505
 1917 08da 04000000 		.4byte	.LBB20
 1918 08de 48000000 		.4byte	.LBE20-.LBB20
 1919 08e2 01       		.byte	0x1
 1920 08e3 1C01     		.2byte	0x11c
 1921 08e5 28       		.uleb128 0x28
 1922 08e6 34050000 		.4byte	0x534
 1923 08ea 00       		.byte	0
 1924 08eb 29       		.uleb128 0x29
 1925 08ec 28050000 		.4byte	0x528
 1926 08f0 01       		.uleb128 0x1
 1927 08f1 52       		.byte	0x52
 1928 08f2 29       		.uleb128 0x29
 1929 08f3 1E050000 		.4byte	0x51e
 1930 08f7 01       		.uleb128 0x1
 1931 08f8 51       		.byte	0x51
 1932 08f9 29       		.uleb128 0x29
 1933 08fa 12050000 		.4byte	0x512
 1934 08fe 01       		.uleb128 0x1
 1935 08ff 50       		.byte	0x50
 1936 0900 00       		.byte	0
 1937 0901 00       		.byte	0
 1938 0902 2C       		.uleb128 0x2c
ARM GAS  /tmp/ccdMvw60.s 			page 35


 1939 0903 10020000 		.4byte	.LASF96
 1940 0907 01       		.byte	0x1
 1941 0908 2C01     		.2byte	0x12c
 1942 090a 00000000 		.4byte	.LFB16
 1943 090e 4C000000 		.4byte	.LFE16-.LFB16
 1944 0912 01       		.uleb128 0x1
 1945 0913 9C       		.byte	0x9c
 1946 0914 6D090000 		.4byte	0x96d
 1947 0918 2D       		.uleb128 0x2d
 1948 0919 5B040000 		.4byte	.LASF85
 1949 091d 01       		.byte	0x1
 1950 091e 2C01     		.2byte	0x12c
 1951 0920 6D040000 		.4byte	0x46d
 1952 0924 01       		.uleb128 0x1
 1953 0925 50       		.byte	0x50
 1954 0926 2E       		.uleb128 0x2e
 1955 0927 6E00     		.ascii	"n\000"
 1956 0929 01       		.byte	0x1
 1957 092a 2C01     		.2byte	0x12c
 1958 092c 2C000000 		.4byte	0x2c
 1959 0930 01       		.uleb128 0x1
 1960 0931 51       		.byte	0x51
 1961 0932 2D       		.uleb128 0x2d
 1962 0933 2F000000 		.4byte	.LASF71
 1963 0937 01       		.byte	0x1
 1964 0938 2C01     		.2byte	0x12c
 1965 093a 7F020000 		.4byte	0x27f
 1966 093e 01       		.uleb128 0x1
 1967 093f 52       		.byte	0x52
 1968 0940 2F       		.uleb128 0x2f
 1969 0941 05050000 		.4byte	0x505
 1970 0945 04000000 		.4byte	.LBB22
 1971 0949 48000000 		.4byte	.LBE22-.LBB22
 1972 094d 01       		.byte	0x1
 1973 094e 2D01     		.2byte	0x12d
 1974 0950 29       		.uleb128 0x29
 1975 0951 34050000 		.4byte	0x534
 1976 0955 01       		.uleb128 0x1
 1977 0956 52       		.byte	0x52
 1978 0957 28       		.uleb128 0x28
 1979 0958 28050000 		.4byte	0x528
 1980 095c 00       		.byte	0
 1981 095d 29       		.uleb128 0x29
 1982 095e 1E050000 		.4byte	0x51e
 1983 0962 01       		.uleb128 0x1
 1984 0963 51       		.byte	0x51
 1985 0964 29       		.uleb128 0x29
 1986 0965 12050000 		.4byte	0x512
 1987 0969 01       		.uleb128 0x1
 1988 096a 50       		.byte	0x50
 1989 096b 00       		.byte	0
 1990 096c 00       		.byte	0
 1991 096d 30       		.uleb128 0x30
 1992 096e 12050000 		.4byte	.LASF104
 1993 0972 01       		.byte	0x1
 1994 0973 3C01     		.2byte	0x13c
 1995 0975 AD000000 		.4byte	0xad
ARM GAS  /tmp/ccdMvw60.s 			page 36


 1996 0979 00000000 		.4byte	.LFB17
 1997 097d 58000000 		.4byte	.LFE17-.LFB17
 1998 0981 01       		.uleb128 0x1
 1999 0982 9C       		.byte	0x9c
 2000 0983 B4090000 		.4byte	0x9b4
 2001 0987 31       		.uleb128 0x31
 2002 0988 5B040000 		.4byte	.LASF85
 2003 098c 01       		.byte	0x1
 2004 098d 3C01     		.2byte	0x13c
 2005 098f 6D040000 		.4byte	0x46d
 2006 0993 02020000 		.4byte	.LLST13
 2007 0997 2D       		.uleb128 0x2d
 2008 0998 4C000000 		.4byte	.LASF97
 2009 099c 01       		.byte	0x1
 2010 099d 3C01     		.2byte	0x13c
 2011 099f AD000000 		.4byte	0xad
 2012 09a3 01       		.uleb128 0x1
 2013 09a4 51       		.byte	0x51
 2014 09a5 32       		.uleb128 0x32
 2015 09a6 C6000000 		.4byte	.LASF98
 2016 09aa 01       		.byte	0x1
 2017 09ab 4C01     		.2byte	0x14c
 2018 09ad AD000000 		.4byte	0xad
 2019 09b1 01       		.uleb128 0x1
 2020 09b2 50       		.byte	0x50
 2021 09b3 00       		.byte	0
 2022 09b4 33       		.uleb128 0x33
 2023 09b5 4B020000 		.4byte	.LASF105
 2024 09b9 01       		.byte	0x1
 2025 09ba 2C       		.byte	0x2c
 2026 09bb E5030000 		.4byte	0x3e5
 2027 09bf 05       		.uleb128 0x5
 2028 09c0 03       		.byte	0x3
 2029 09c1 00000000 		.4byte	SPI0
 2030 09c5 34       		.uleb128 0x34
 2031 09c6 4E030000 		.4byte	.LASF106
 2032 09ca 0C       		.byte	0xc
 2033 09cb 89       		.byte	0x89
 2034 09cc 43020000 		.4byte	0x243
 2035 09d0 DA090000 		.4byte	0x9da
 2036 09d4 12       		.uleb128 0x12
 2037 09d5 43020000 		.4byte	0x243
 2038 09d9 00       		.byte	0
 2039 09da 35       		.uleb128 0x35
 2040 09db D8020000 		.4byte	.LASF100
 2041 09df 0A       		.byte	0xa
 2042 09e0 2701     		.2byte	0x127
 2043 09e2 EC090000 		.4byte	0x9ec
 2044 09e6 12       		.uleb128 0x12
 2045 09e7 6D040000 		.4byte	0x46d
 2046 09eb 00       		.byte	0
 2047 09ec 36       		.uleb128 0x36
 2048 09ed 50020000 		.4byte	.LASF107
 2049 09f1 0D       		.byte	0xd
 2050 09f2 8C01     		.2byte	0x18c
 2051 09f4 12       		.uleb128 0x12
 2052 09f5 C3000000 		.4byte	0xc3
ARM GAS  /tmp/ccdMvw60.s 			page 37


 2053 09f9 12       		.uleb128 0x12
 2054 09fa C3000000 		.4byte	0xc3
 2055 09fe 00       		.byte	0
 2056 09ff 00       		.byte	0
 2057              		.section	.debug_abbrev,"",%progbits
 2058              	.Ldebug_abbrev0:
 2059 0000 01       		.uleb128 0x1
 2060 0001 11       		.uleb128 0x11
 2061 0002 01       		.byte	0x1
 2062 0003 25       		.uleb128 0x25
 2063 0004 0E       		.uleb128 0xe
 2064 0005 13       		.uleb128 0x13
 2065 0006 0B       		.uleb128 0xb
 2066 0007 03       		.uleb128 0x3
 2067 0008 0E       		.uleb128 0xe
 2068 0009 1B       		.uleb128 0x1b
 2069 000a 0E       		.uleb128 0xe
 2070 000b 55       		.uleb128 0x55
 2071 000c 17       		.uleb128 0x17
 2072 000d 11       		.uleb128 0x11
 2073 000e 01       		.uleb128 0x1
 2074 000f 10       		.uleb128 0x10
 2075 0010 17       		.uleb128 0x17
 2076 0011 00       		.byte	0
 2077 0012 00       		.byte	0
 2078 0013 02       		.uleb128 0x2
 2079 0014 24       		.uleb128 0x24
 2080 0015 00       		.byte	0
 2081 0016 0B       		.uleb128 0xb
 2082 0017 0B       		.uleb128 0xb
 2083 0018 3E       		.uleb128 0x3e
 2084 0019 0B       		.uleb128 0xb
 2085 001a 03       		.uleb128 0x3
 2086 001b 08       		.uleb128 0x8
 2087 001c 00       		.byte	0
 2088 001d 00       		.byte	0
 2089 001e 03       		.uleb128 0x3
 2090 001f 16       		.uleb128 0x16
 2091 0020 00       		.byte	0
 2092 0021 03       		.uleb128 0x3
 2093 0022 0E       		.uleb128 0xe
 2094 0023 3A       		.uleb128 0x3a
 2095 0024 0B       		.uleb128 0xb
 2096 0025 3B       		.uleb128 0x3b
 2097 0026 0B       		.uleb128 0xb
 2098 0027 49       		.uleb128 0x49
 2099 0028 13       		.uleb128 0x13
 2100 0029 00       		.byte	0
 2101 002a 00       		.byte	0
 2102 002b 04       		.uleb128 0x4
 2103 002c 24       		.uleb128 0x24
 2104 002d 00       		.byte	0
 2105 002e 0B       		.uleb128 0xb
 2106 002f 0B       		.uleb128 0xb
 2107 0030 3E       		.uleb128 0x3e
 2108 0031 0B       		.uleb128 0xb
 2109 0032 03       		.uleb128 0x3
ARM GAS  /tmp/ccdMvw60.s 			page 38


 2110 0033 0E       		.uleb128 0xe
 2111 0034 00       		.byte	0
 2112 0035 00       		.byte	0
 2113 0036 05       		.uleb128 0x5
 2114 0037 13       		.uleb128 0x13
 2115 0038 01       		.byte	0x1
 2116 0039 03       		.uleb128 0x3
 2117 003a 0E       		.uleb128 0xe
 2118 003b 0B       		.uleb128 0xb
 2119 003c 0B       		.uleb128 0xb
 2120 003d 3A       		.uleb128 0x3a
 2121 003e 0B       		.uleb128 0xb
 2122 003f 3B       		.uleb128 0x3b
 2123 0040 0B       		.uleb128 0xb
 2124 0041 01       		.uleb128 0x1
 2125 0042 13       		.uleb128 0x13
 2126 0043 00       		.byte	0
 2127 0044 00       		.byte	0
 2128 0045 06       		.uleb128 0x6
 2129 0046 0D       		.uleb128 0xd
 2130 0047 00       		.byte	0
 2131 0048 03       		.uleb128 0x3
 2132 0049 0E       		.uleb128 0xe
 2133 004a 3A       		.uleb128 0x3a
 2134 004b 0B       		.uleb128 0xb
 2135 004c 3B       		.uleb128 0x3b
 2136 004d 0B       		.uleb128 0xb
 2137 004e 49       		.uleb128 0x49
 2138 004f 13       		.uleb128 0x13
 2139 0050 38       		.uleb128 0x38
 2140 0051 0B       		.uleb128 0xb
 2141 0052 00       		.byte	0
 2142 0053 00       		.byte	0
 2143 0054 07       		.uleb128 0x7
 2144 0055 0D       		.uleb128 0xd
 2145 0056 00       		.byte	0
 2146 0057 03       		.uleb128 0x3
 2147 0058 08       		.uleb128 0x8
 2148 0059 3A       		.uleb128 0x3a
 2149 005a 0B       		.uleb128 0xb
 2150 005b 3B       		.uleb128 0x3b
 2151 005c 0B       		.uleb128 0xb
 2152 005d 49       		.uleb128 0x49
 2153 005e 13       		.uleb128 0x13
 2154 005f 38       		.uleb128 0x38
 2155 0060 0B       		.uleb128 0xb
 2156 0061 00       		.byte	0
 2157 0062 00       		.byte	0
 2158 0063 08       		.uleb128 0x8
 2159 0064 13       		.uleb128 0x13
 2160 0065 01       		.byte	0x1
 2161 0066 0B       		.uleb128 0xb
 2162 0067 0B       		.uleb128 0xb
 2163 0068 3A       		.uleb128 0x3a
 2164 0069 0B       		.uleb128 0xb
 2165 006a 3B       		.uleb128 0x3b
 2166 006b 0B       		.uleb128 0xb
ARM GAS  /tmp/ccdMvw60.s 			page 39


 2167 006c 01       		.uleb128 0x1
 2168 006d 13       		.uleb128 0x13
 2169 006e 00       		.byte	0
 2170 006f 00       		.byte	0
 2171 0070 09       		.uleb128 0x9
 2172 0071 0F       		.uleb128 0xf
 2173 0072 00       		.byte	0
 2174 0073 0B       		.uleb128 0xb
 2175 0074 0B       		.uleb128 0xb
 2176 0075 49       		.uleb128 0x49
 2177 0076 13       		.uleb128 0x13
 2178 0077 00       		.byte	0
 2179 0078 00       		.byte	0
 2180 0079 0A       		.uleb128 0xa
 2181 007a 0F       		.uleb128 0xf
 2182 007b 00       		.byte	0
 2183 007c 0B       		.uleb128 0xb
 2184 007d 0B       		.uleb128 0xb
 2185 007e 00       		.byte	0
 2186 007f 00       		.byte	0
 2187 0080 0B       		.uleb128 0xb
 2188 0081 35       		.uleb128 0x35
 2189 0082 00       		.byte	0
 2190 0083 49       		.uleb128 0x49
 2191 0084 13       		.uleb128 0x13
 2192 0085 00       		.byte	0
 2193 0086 00       		.byte	0
 2194 0087 0C       		.uleb128 0xc
 2195 0088 17       		.uleb128 0x17
 2196 0089 01       		.byte	0x1
 2197 008a 0B       		.uleb128 0xb
 2198 008b 0B       		.uleb128 0xb
 2199 008c 3A       		.uleb128 0x3a
 2200 008d 0B       		.uleb128 0xb
 2201 008e 3B       		.uleb128 0x3b
 2202 008f 0B       		.uleb128 0xb
 2203 0090 01       		.uleb128 0x1
 2204 0091 13       		.uleb128 0x13
 2205 0092 00       		.byte	0
 2206 0093 00       		.byte	0
 2207 0094 0D       		.uleb128 0xd
 2208 0095 0D       		.uleb128 0xd
 2209 0096 00       		.byte	0
 2210 0097 03       		.uleb128 0x3
 2211 0098 0E       		.uleb128 0xe
 2212 0099 3A       		.uleb128 0x3a
 2213 009a 0B       		.uleb128 0xb
 2214 009b 3B       		.uleb128 0x3b
 2215 009c 0B       		.uleb128 0xb
 2216 009d 49       		.uleb128 0x49
 2217 009e 13       		.uleb128 0x13
 2218 009f 00       		.byte	0
 2219 00a0 00       		.byte	0
 2220 00a1 0E       		.uleb128 0xe
 2221 00a2 26       		.uleb128 0x26
 2222 00a3 00       		.byte	0
 2223 00a4 49       		.uleb128 0x49
ARM GAS  /tmp/ccdMvw60.s 			page 40


 2224 00a5 13       		.uleb128 0x13
 2225 00a6 00       		.byte	0
 2226 00a7 00       		.byte	0
 2227 00a8 0F       		.uleb128 0xf
 2228 00a9 04       		.uleb128 0x4
 2229 00aa 01       		.byte	0x1
 2230 00ab 0B       		.uleb128 0xb
 2231 00ac 0B       		.uleb128 0xb
 2232 00ad 3A       		.uleb128 0x3a
 2233 00ae 0B       		.uleb128 0xb
 2234 00af 3B       		.uleb128 0x3b
 2235 00b0 0B       		.uleb128 0xb
 2236 00b1 01       		.uleb128 0x1
 2237 00b2 13       		.uleb128 0x13
 2238 00b3 00       		.byte	0
 2239 00b4 00       		.byte	0
 2240 00b5 10       		.uleb128 0x10
 2241 00b6 28       		.uleb128 0x28
 2242 00b7 00       		.byte	0
 2243 00b8 03       		.uleb128 0x3
 2244 00b9 0E       		.uleb128 0xe
 2245 00ba 1C       		.uleb128 0x1c
 2246 00bb 0D       		.uleb128 0xd
 2247 00bc 00       		.byte	0
 2248 00bd 00       		.byte	0
 2249 00be 11       		.uleb128 0x11
 2250 00bf 15       		.uleb128 0x15
 2251 00c0 01       		.byte	0x1
 2252 00c1 27       		.uleb128 0x27
 2253 00c2 19       		.uleb128 0x19
 2254 00c3 01       		.uleb128 0x1
 2255 00c4 13       		.uleb128 0x13
 2256 00c5 00       		.byte	0
 2257 00c6 00       		.byte	0
 2258 00c7 12       		.uleb128 0x12
 2259 00c8 05       		.uleb128 0x5
 2260 00c9 00       		.byte	0
 2261 00ca 49       		.uleb128 0x49
 2262 00cb 13       		.uleb128 0x13
 2263 00cc 00       		.byte	0
 2264 00cd 00       		.byte	0
 2265 00ce 13       		.uleb128 0x13
 2266 00cf 26       		.uleb128 0x26
 2267 00d0 00       		.byte	0
 2268 00d1 00       		.byte	0
 2269 00d2 00       		.byte	0
 2270 00d3 14       		.uleb128 0x14
 2271 00d4 2E       		.uleb128 0x2e
 2272 00d5 01       		.byte	0x1
 2273 00d6 3F       		.uleb128 0x3f
 2274 00d7 19       		.uleb128 0x19
 2275 00d8 03       		.uleb128 0x3
 2276 00d9 0E       		.uleb128 0xe
 2277 00da 3A       		.uleb128 0x3a
 2278 00db 0B       		.uleb128 0xb
 2279 00dc 3B       		.uleb128 0x3b
 2280 00dd 05       		.uleb128 0x5
ARM GAS  /tmp/ccdMvw60.s 			page 41


 2281 00de 27       		.uleb128 0x27
 2282 00df 19       		.uleb128 0x19
 2283 00e0 20       		.uleb128 0x20
 2284 00e1 0B       		.uleb128 0xb
 2285 00e2 01       		.uleb128 0x1
 2286 00e3 13       		.uleb128 0x13
 2287 00e4 00       		.byte	0
 2288 00e5 00       		.byte	0
 2289 00e6 15       		.uleb128 0x15
 2290 00e7 05       		.uleb128 0x5
 2291 00e8 00       		.byte	0
 2292 00e9 03       		.uleb128 0x3
 2293 00ea 0E       		.uleb128 0xe
 2294 00eb 3A       		.uleb128 0x3a
 2295 00ec 0B       		.uleb128 0xb
 2296 00ed 3B       		.uleb128 0x3b
 2297 00ee 05       		.uleb128 0x5
 2298 00ef 49       		.uleb128 0x49
 2299 00f0 13       		.uleb128 0x13
 2300 00f1 00       		.byte	0
 2301 00f2 00       		.byte	0
 2302 00f3 16       		.uleb128 0x16
 2303 00f4 05       		.uleb128 0x5
 2304 00f5 00       		.byte	0
 2305 00f6 03       		.uleb128 0x3
 2306 00f7 08       		.uleb128 0x8
 2307 00f8 3A       		.uleb128 0x3a
 2308 00f9 0B       		.uleb128 0xb
 2309 00fa 3B       		.uleb128 0x3b
 2310 00fb 05       		.uleb128 0x5
 2311 00fc 49       		.uleb128 0x49
 2312 00fd 13       		.uleb128 0x13
 2313 00fe 00       		.byte	0
 2314 00ff 00       		.byte	0
 2315 0100 17       		.uleb128 0x17
 2316 0101 2E       		.uleb128 0x2e
 2317 0102 01       		.byte	0x1
 2318 0103 3F       		.uleb128 0x3f
 2319 0104 19       		.uleb128 0x19
 2320 0105 03       		.uleb128 0x3
 2321 0106 0E       		.uleb128 0xe
 2322 0107 3A       		.uleb128 0x3a
 2323 0108 0B       		.uleb128 0xb
 2324 0109 3B       		.uleb128 0x3b
 2325 010a 0B       		.uleb128 0xb
 2326 010b 27       		.uleb128 0x27
 2327 010c 19       		.uleb128 0x19
 2328 010d 11       		.uleb128 0x11
 2329 010e 01       		.uleb128 0x1
 2330 010f 12       		.uleb128 0x12
 2331 0110 06       		.uleb128 0x6
 2332 0111 40       		.uleb128 0x40
 2333 0112 18       		.uleb128 0x18
 2334 0113 9742     		.uleb128 0x2117
 2335 0115 19       		.uleb128 0x19
 2336 0116 01       		.uleb128 0x1
 2337 0117 13       		.uleb128 0x13
ARM GAS  /tmp/ccdMvw60.s 			page 42


 2338 0118 00       		.byte	0
 2339 0119 00       		.byte	0
 2340 011a 18       		.uleb128 0x18
 2341 011b 05       		.uleb128 0x5
 2342 011c 00       		.byte	0
 2343 011d 03       		.uleb128 0x3
 2344 011e 0E       		.uleb128 0xe
 2345 011f 3A       		.uleb128 0x3a
 2346 0120 0B       		.uleb128 0xb
 2347 0121 3B       		.uleb128 0x3b
 2348 0122 0B       		.uleb128 0xb
 2349 0123 49       		.uleb128 0x49
 2350 0124 13       		.uleb128 0x13
 2351 0125 02       		.uleb128 0x2
 2352 0126 17       		.uleb128 0x17
 2353 0127 00       		.byte	0
 2354 0128 00       		.byte	0
 2355 0129 19       		.uleb128 0x19
 2356 012a 0B       		.uleb128 0xb
 2357 012b 01       		.byte	0x1
 2358 012c 55       		.uleb128 0x55
 2359 012d 17       		.uleb128 0x17
 2360 012e 01       		.uleb128 0x1
 2361 012f 13       		.uleb128 0x13
 2362 0130 00       		.byte	0
 2363 0131 00       		.byte	0
 2364 0132 1A       		.uleb128 0x1a
 2365 0133 34       		.uleb128 0x34
 2366 0134 00       		.byte	0
 2367 0135 03       		.uleb128 0x3
 2368 0136 0E       		.uleb128 0xe
 2369 0137 3A       		.uleb128 0x3a
 2370 0138 0B       		.uleb128 0xb
 2371 0139 3B       		.uleb128 0x3b
 2372 013a 0B       		.uleb128 0xb
 2373 013b 49       		.uleb128 0x49
 2374 013c 13       		.uleb128 0x13
 2375 013d 02       		.uleb128 0x2
 2376 013e 17       		.uleb128 0x17
 2377 013f 00       		.byte	0
 2378 0140 00       		.byte	0
 2379 0141 1B       		.uleb128 0x1b
 2380 0142 0B       		.uleb128 0xb
 2381 0143 01       		.byte	0x1
 2382 0144 11       		.uleb128 0x11
 2383 0145 01       		.uleb128 0x1
 2384 0146 12       		.uleb128 0x12
 2385 0147 06       		.uleb128 0x6
 2386 0148 01       		.uleb128 0x1
 2387 0149 13       		.uleb128 0x13
 2388 014a 00       		.byte	0
 2389 014b 00       		.byte	0
 2390 014c 1C       		.uleb128 0x1c
 2391 014d 34       		.uleb128 0x34
 2392 014e 00       		.byte	0
 2393 014f 03       		.uleb128 0x3
 2394 0150 08       		.uleb128 0x8
ARM GAS  /tmp/ccdMvw60.s 			page 43


 2395 0151 3A       		.uleb128 0x3a
 2396 0152 0B       		.uleb128 0xb
 2397 0153 3B       		.uleb128 0x3b
 2398 0154 0B       		.uleb128 0xb
 2399 0155 49       		.uleb128 0x49
 2400 0156 13       		.uleb128 0x13
 2401 0157 02       		.uleb128 0x2
 2402 0158 17       		.uleb128 0x17
 2403 0159 00       		.byte	0
 2404 015a 00       		.byte	0
 2405 015b 1D       		.uleb128 0x1d
 2406 015c 898201   		.uleb128 0x4109
 2407 015f 00       		.byte	0
 2408 0160 11       		.uleb128 0x11
 2409 0161 01       		.uleb128 0x1
 2410 0162 31       		.uleb128 0x31
 2411 0163 13       		.uleb128 0x13
 2412 0164 00       		.byte	0
 2413 0165 00       		.byte	0
 2414 0166 1E       		.uleb128 0x1e
 2415 0167 898201   		.uleb128 0x4109
 2416 016a 01       		.byte	0x1
 2417 016b 11       		.uleb128 0x11
 2418 016c 01       		.uleb128 0x1
 2419 016d 00       		.byte	0
 2420 016e 00       		.byte	0
 2421 016f 1F       		.uleb128 0x1f
 2422 0170 8A8201   		.uleb128 0x410a
 2423 0173 00       		.byte	0
 2424 0174 02       		.uleb128 0x2
 2425 0175 18       		.uleb128 0x18
 2426 0176 9142     		.uleb128 0x2111
 2427 0178 18       		.uleb128 0x18
 2428 0179 00       		.byte	0
 2429 017a 00       		.byte	0
 2430 017b 20       		.uleb128 0x20
 2431 017c 0B       		.uleb128 0xb
 2432 017d 01       		.byte	0x1
 2433 017e 11       		.uleb128 0x11
 2434 017f 01       		.uleb128 0x1
 2435 0180 12       		.uleb128 0x12
 2436 0181 06       		.uleb128 0x6
 2437 0182 00       		.byte	0
 2438 0183 00       		.byte	0
 2439 0184 21       		.uleb128 0x21
 2440 0185 898201   		.uleb128 0x4109
 2441 0188 01       		.byte	0x1
 2442 0189 11       		.uleb128 0x11
 2443 018a 01       		.uleb128 0x1
 2444 018b 9542     		.uleb128 0x2115
 2445 018d 19       		.uleb128 0x19
 2446 018e 31       		.uleb128 0x31
 2447 018f 13       		.uleb128 0x13
 2448 0190 00       		.byte	0
 2449 0191 00       		.byte	0
 2450 0192 22       		.uleb128 0x22
 2451 0193 34       		.uleb128 0x34
ARM GAS  /tmp/ccdMvw60.s 			page 44


 2452 0194 00       		.byte	0
 2453 0195 03       		.uleb128 0x3
 2454 0196 08       		.uleb128 0x8
 2455 0197 3A       		.uleb128 0x3a
 2456 0198 0B       		.uleb128 0xb
 2457 0199 3B       		.uleb128 0x3b
 2458 019a 0B       		.uleb128 0xb
 2459 019b 49       		.uleb128 0x49
 2460 019c 13       		.uleb128 0x13
 2461 019d 02       		.uleb128 0x2
 2462 019e 18       		.uleb128 0x18
 2463 019f 00       		.byte	0
 2464 01a0 00       		.byte	0
 2465 01a1 23       		.uleb128 0x23
 2466 01a2 898201   		.uleb128 0x4109
 2467 01a5 01       		.byte	0x1
 2468 01a6 11       		.uleb128 0x11
 2469 01a7 01       		.uleb128 0x1
 2470 01a8 31       		.uleb128 0x31
 2471 01a9 13       		.uleb128 0x13
 2472 01aa 01       		.uleb128 0x1
 2473 01ab 13       		.uleb128 0x13
 2474 01ac 00       		.byte	0
 2475 01ad 00       		.byte	0
 2476 01ae 24       		.uleb128 0x24
 2477 01af 898201   		.uleb128 0x4109
 2478 01b2 01       		.byte	0x1
 2479 01b3 11       		.uleb128 0x11
 2480 01b4 01       		.uleb128 0x1
 2481 01b5 31       		.uleb128 0x31
 2482 01b6 13       		.uleb128 0x13
 2483 01b7 00       		.byte	0
 2484 01b8 00       		.byte	0
 2485 01b9 25       		.uleb128 0x25
 2486 01ba 05       		.uleb128 0x5
 2487 01bb 00       		.byte	0
 2488 01bc 03       		.uleb128 0x3
 2489 01bd 0E       		.uleb128 0xe
 2490 01be 3A       		.uleb128 0x3a
 2491 01bf 0B       		.uleb128 0xb
 2492 01c0 3B       		.uleb128 0x3b
 2493 01c1 0B       		.uleb128 0xb
 2494 01c2 49       		.uleb128 0x49
 2495 01c3 13       		.uleb128 0x13
 2496 01c4 02       		.uleb128 0x2
 2497 01c5 18       		.uleb128 0x18
 2498 01c6 00       		.byte	0
 2499 01c7 00       		.byte	0
 2500 01c8 26       		.uleb128 0x26
 2501 01c9 05       		.uleb128 0x5
 2502 01ca 00       		.byte	0
 2503 01cb 03       		.uleb128 0x3
 2504 01cc 08       		.uleb128 0x8
 2505 01cd 3A       		.uleb128 0x3a
 2506 01ce 0B       		.uleb128 0xb
 2507 01cf 3B       		.uleb128 0x3b
 2508 01d0 0B       		.uleb128 0xb
ARM GAS  /tmp/ccdMvw60.s 			page 45


 2509 01d1 49       		.uleb128 0x49
 2510 01d2 13       		.uleb128 0x13
 2511 01d3 02       		.uleb128 0x2
 2512 01d4 18       		.uleb128 0x18
 2513 01d5 00       		.byte	0
 2514 01d6 00       		.byte	0
 2515 01d7 27       		.uleb128 0x27
 2516 01d8 1D       		.uleb128 0x1d
 2517 01d9 01       		.byte	0x1
 2518 01da 31       		.uleb128 0x31
 2519 01db 13       		.uleb128 0x13
 2520 01dc 11       		.uleb128 0x11
 2521 01dd 01       		.uleb128 0x1
 2522 01de 12       		.uleb128 0x12
 2523 01df 06       		.uleb128 0x6
 2524 01e0 58       		.uleb128 0x58
 2525 01e1 0B       		.uleb128 0xb
 2526 01e2 59       		.uleb128 0x59
 2527 01e3 0B       		.uleb128 0xb
 2528 01e4 00       		.byte	0
 2529 01e5 00       		.byte	0
 2530 01e6 28       		.uleb128 0x28
 2531 01e7 05       		.uleb128 0x5
 2532 01e8 00       		.byte	0
 2533 01e9 31       		.uleb128 0x31
 2534 01ea 13       		.uleb128 0x13
 2535 01eb 1C       		.uleb128 0x1c
 2536 01ec 0B       		.uleb128 0xb
 2537 01ed 00       		.byte	0
 2538 01ee 00       		.byte	0
 2539 01ef 29       		.uleb128 0x29
 2540 01f0 05       		.uleb128 0x5
 2541 01f1 00       		.byte	0
 2542 01f2 31       		.uleb128 0x31
 2543 01f3 13       		.uleb128 0x13
 2544 01f4 02       		.uleb128 0x2
 2545 01f5 18       		.uleb128 0x18
 2546 01f6 00       		.byte	0
 2547 01f7 00       		.byte	0
 2548 01f8 2A       		.uleb128 0x2a
 2549 01f9 2E       		.uleb128 0x2e
 2550 01fa 01       		.byte	0x1
 2551 01fb 31       		.uleb128 0x31
 2552 01fc 13       		.uleb128 0x13
 2553 01fd 11       		.uleb128 0x11
 2554 01fe 01       		.uleb128 0x1
 2555 01ff 12       		.uleb128 0x12
 2556 0200 06       		.uleb128 0x6
 2557 0201 40       		.uleb128 0x40
 2558 0202 18       		.uleb128 0x18
 2559 0203 9742     		.uleb128 0x2117
 2560 0205 19       		.uleb128 0x19
 2561 0206 01       		.uleb128 0x1
 2562 0207 13       		.uleb128 0x13
 2563 0208 00       		.byte	0
 2564 0209 00       		.byte	0
 2565 020a 2B       		.uleb128 0x2b
ARM GAS  /tmp/ccdMvw60.s 			page 46


 2566 020b 05       		.uleb128 0x5
 2567 020c 00       		.byte	0
 2568 020d 31       		.uleb128 0x31
 2569 020e 13       		.uleb128 0x13
 2570 020f 02       		.uleb128 0x2
 2571 0210 17       		.uleb128 0x17
 2572 0211 00       		.byte	0
 2573 0212 00       		.byte	0
 2574 0213 2C       		.uleb128 0x2c
 2575 0214 2E       		.uleb128 0x2e
 2576 0215 01       		.byte	0x1
 2577 0216 3F       		.uleb128 0x3f
 2578 0217 19       		.uleb128 0x19
 2579 0218 03       		.uleb128 0x3
 2580 0219 0E       		.uleb128 0xe
 2581 021a 3A       		.uleb128 0x3a
 2582 021b 0B       		.uleb128 0xb
 2583 021c 3B       		.uleb128 0x3b
 2584 021d 05       		.uleb128 0x5
 2585 021e 27       		.uleb128 0x27
 2586 021f 19       		.uleb128 0x19
 2587 0220 11       		.uleb128 0x11
 2588 0221 01       		.uleb128 0x1
 2589 0222 12       		.uleb128 0x12
 2590 0223 06       		.uleb128 0x6
 2591 0224 40       		.uleb128 0x40
 2592 0225 18       		.uleb128 0x18
 2593 0226 9742     		.uleb128 0x2117
 2594 0228 19       		.uleb128 0x19
 2595 0229 01       		.uleb128 0x1
 2596 022a 13       		.uleb128 0x13
 2597 022b 00       		.byte	0
 2598 022c 00       		.byte	0
 2599 022d 2D       		.uleb128 0x2d
 2600 022e 05       		.uleb128 0x5
 2601 022f 00       		.byte	0
 2602 0230 03       		.uleb128 0x3
 2603 0231 0E       		.uleb128 0xe
 2604 0232 3A       		.uleb128 0x3a
 2605 0233 0B       		.uleb128 0xb
 2606 0234 3B       		.uleb128 0x3b
 2607 0235 05       		.uleb128 0x5
 2608 0236 49       		.uleb128 0x49
 2609 0237 13       		.uleb128 0x13
 2610 0238 02       		.uleb128 0x2
 2611 0239 18       		.uleb128 0x18
 2612 023a 00       		.byte	0
 2613 023b 00       		.byte	0
 2614 023c 2E       		.uleb128 0x2e
 2615 023d 05       		.uleb128 0x5
 2616 023e 00       		.byte	0
 2617 023f 03       		.uleb128 0x3
 2618 0240 08       		.uleb128 0x8
 2619 0241 3A       		.uleb128 0x3a
 2620 0242 0B       		.uleb128 0xb
 2621 0243 3B       		.uleb128 0x3b
 2622 0244 05       		.uleb128 0x5
ARM GAS  /tmp/ccdMvw60.s 			page 47


 2623 0245 49       		.uleb128 0x49
 2624 0246 13       		.uleb128 0x13
 2625 0247 02       		.uleb128 0x2
 2626 0248 18       		.uleb128 0x18
 2627 0249 00       		.byte	0
 2628 024a 00       		.byte	0
 2629 024b 2F       		.uleb128 0x2f
 2630 024c 1D       		.uleb128 0x1d
 2631 024d 01       		.byte	0x1
 2632 024e 31       		.uleb128 0x31
 2633 024f 13       		.uleb128 0x13
 2634 0250 11       		.uleb128 0x11
 2635 0251 01       		.uleb128 0x1
 2636 0252 12       		.uleb128 0x12
 2637 0253 06       		.uleb128 0x6
 2638 0254 58       		.uleb128 0x58
 2639 0255 0B       		.uleb128 0xb
 2640 0256 59       		.uleb128 0x59
 2641 0257 05       		.uleb128 0x5
 2642 0258 00       		.byte	0
 2643 0259 00       		.byte	0
 2644 025a 30       		.uleb128 0x30
 2645 025b 2E       		.uleb128 0x2e
 2646 025c 01       		.byte	0x1
 2647 025d 3F       		.uleb128 0x3f
 2648 025e 19       		.uleb128 0x19
 2649 025f 03       		.uleb128 0x3
 2650 0260 0E       		.uleb128 0xe
 2651 0261 3A       		.uleb128 0x3a
 2652 0262 0B       		.uleb128 0xb
 2653 0263 3B       		.uleb128 0x3b
 2654 0264 05       		.uleb128 0x5
 2655 0265 27       		.uleb128 0x27
 2656 0266 19       		.uleb128 0x19
 2657 0267 49       		.uleb128 0x49
 2658 0268 13       		.uleb128 0x13
 2659 0269 11       		.uleb128 0x11
 2660 026a 01       		.uleb128 0x1
 2661 026b 12       		.uleb128 0x12
 2662 026c 06       		.uleb128 0x6
 2663 026d 40       		.uleb128 0x40
 2664 026e 18       		.uleb128 0x18
 2665 026f 9742     		.uleb128 0x2117
 2666 0271 19       		.uleb128 0x19
 2667 0272 01       		.uleb128 0x1
 2668 0273 13       		.uleb128 0x13
 2669 0274 00       		.byte	0
 2670 0275 00       		.byte	0
 2671 0276 31       		.uleb128 0x31
 2672 0277 05       		.uleb128 0x5
 2673 0278 00       		.byte	0
 2674 0279 03       		.uleb128 0x3
 2675 027a 0E       		.uleb128 0xe
 2676 027b 3A       		.uleb128 0x3a
 2677 027c 0B       		.uleb128 0xb
 2678 027d 3B       		.uleb128 0x3b
 2679 027e 05       		.uleb128 0x5
ARM GAS  /tmp/ccdMvw60.s 			page 48


 2680 027f 49       		.uleb128 0x49
 2681 0280 13       		.uleb128 0x13
 2682 0281 02       		.uleb128 0x2
 2683 0282 17       		.uleb128 0x17
 2684 0283 00       		.byte	0
 2685 0284 00       		.byte	0
 2686 0285 32       		.uleb128 0x32
 2687 0286 34       		.uleb128 0x34
 2688 0287 00       		.byte	0
 2689 0288 03       		.uleb128 0x3
 2690 0289 0E       		.uleb128 0xe
 2691 028a 3A       		.uleb128 0x3a
 2692 028b 0B       		.uleb128 0xb
 2693 028c 3B       		.uleb128 0x3b
 2694 028d 05       		.uleb128 0x5
 2695 028e 49       		.uleb128 0x49
 2696 028f 13       		.uleb128 0x13
 2697 0290 02       		.uleb128 0x2
 2698 0291 18       		.uleb128 0x18
 2699 0292 00       		.byte	0
 2700 0293 00       		.byte	0
 2701 0294 33       		.uleb128 0x33
 2702 0295 34       		.uleb128 0x34
 2703 0296 00       		.byte	0
 2704 0297 03       		.uleb128 0x3
 2705 0298 0E       		.uleb128 0xe
 2706 0299 3A       		.uleb128 0x3a
 2707 029a 0B       		.uleb128 0xb
 2708 029b 3B       		.uleb128 0x3b
 2709 029c 0B       		.uleb128 0xb
 2710 029d 49       		.uleb128 0x49
 2711 029e 13       		.uleb128 0x13
 2712 029f 3F       		.uleb128 0x3f
 2713 02a0 19       		.uleb128 0x19
 2714 02a1 02       		.uleb128 0x2
 2715 02a2 18       		.uleb128 0x18
 2716 02a3 00       		.byte	0
 2717 02a4 00       		.byte	0
 2718 02a5 34       		.uleb128 0x34
 2719 02a6 2E       		.uleb128 0x2e
 2720 02a7 01       		.byte	0x1
 2721 02a8 3F       		.uleb128 0x3f
 2722 02a9 19       		.uleb128 0x19
 2723 02aa 03       		.uleb128 0x3
 2724 02ab 0E       		.uleb128 0xe
 2725 02ac 3A       		.uleb128 0x3a
 2726 02ad 0B       		.uleb128 0xb
 2727 02ae 3B       		.uleb128 0x3b
 2728 02af 0B       		.uleb128 0xb
 2729 02b0 27       		.uleb128 0x27
 2730 02b1 19       		.uleb128 0x19
 2731 02b2 49       		.uleb128 0x49
 2732 02b3 13       		.uleb128 0x13
 2733 02b4 3C       		.uleb128 0x3c
 2734 02b5 19       		.uleb128 0x19
 2735 02b6 01       		.uleb128 0x1
 2736 02b7 13       		.uleb128 0x13
ARM GAS  /tmp/ccdMvw60.s 			page 49


 2737 02b8 00       		.byte	0
 2738 02b9 00       		.byte	0
 2739 02ba 35       		.uleb128 0x35
 2740 02bb 2E       		.uleb128 0x2e
 2741 02bc 01       		.byte	0x1
 2742 02bd 3F       		.uleb128 0x3f
 2743 02be 19       		.uleb128 0x19
 2744 02bf 03       		.uleb128 0x3
 2745 02c0 0E       		.uleb128 0xe
 2746 02c1 3A       		.uleb128 0x3a
 2747 02c2 0B       		.uleb128 0xb
 2748 02c3 3B       		.uleb128 0x3b
 2749 02c4 05       		.uleb128 0x5
 2750 02c5 27       		.uleb128 0x27
 2751 02c6 19       		.uleb128 0x19
 2752 02c7 3C       		.uleb128 0x3c
 2753 02c8 19       		.uleb128 0x19
 2754 02c9 01       		.uleb128 0x1
 2755 02ca 13       		.uleb128 0x13
 2756 02cb 00       		.byte	0
 2757 02cc 00       		.byte	0
 2758 02cd 36       		.uleb128 0x36
 2759 02ce 2E       		.uleb128 0x2e
 2760 02cf 01       		.byte	0x1
 2761 02d0 3F       		.uleb128 0x3f
 2762 02d1 19       		.uleb128 0x19
 2763 02d2 03       		.uleb128 0x3
 2764 02d3 0E       		.uleb128 0xe
 2765 02d4 3A       		.uleb128 0x3a
 2766 02d5 0B       		.uleb128 0xb
 2767 02d6 3B       		.uleb128 0x3b
 2768 02d7 05       		.uleb128 0x5
 2769 02d8 27       		.uleb128 0x27
 2770 02d9 19       		.uleb128 0x19
 2771 02da 3C       		.uleb128 0x3c
 2772 02db 19       		.uleb128 0x19
 2773 02dc 00       		.byte	0
 2774 02dd 00       		.byte	0
 2775 02de 00       		.byte	0
 2776              		.section	.debug_loc,"",%progbits
 2777              	.Ldebug_loc0:
 2778              	.LLST0:
 2779 0000 00000000 		.4byte	.LVL0
 2780 0004 5C000000 		.4byte	.LVL3
 2781 0008 0100     		.2byte	0x1
 2782 000a 50       		.byte	0x50
 2783 000b 5C000000 		.4byte	.LVL3
 2784 000f C0000000 		.4byte	.LVL10
 2785 0013 0100     		.2byte	0x1
 2786 0015 54       		.byte	0x54
 2787 0016 C0000000 		.4byte	.LVL10
 2788 001a 04010000 		.4byte	.LVL14
 2789 001e 0100     		.2byte	0x1
 2790 0020 50       		.byte	0x50
 2791 0021 04010000 		.4byte	.LVL14
 2792 0025 44010000 		.4byte	.LVL18
 2793 0029 0100     		.2byte	0x1
ARM GAS  /tmp/ccdMvw60.s 			page 50


 2794 002b 54       		.byte	0x54
 2795 002c 44010000 		.4byte	.LVL18
 2796 0030 54010000 		.4byte	.LVL19
 2797 0034 0100     		.2byte	0x1
 2798 0036 50       		.byte	0x50
 2799 0037 54010000 		.4byte	.LVL19
 2800 003b 9C010000 		.4byte	.LFE7
 2801 003f 0100     		.2byte	0x1
 2802 0041 54       		.byte	0x54
 2803 0042 00000000 		.4byte	0
 2804 0046 00000000 		.4byte	0
 2805              	.LLST1:
 2806 004a 28000000 		.4byte	.LVL1
 2807 004e 5C000000 		.4byte	.LVL3
 2808 0052 0300     		.2byte	0x3
 2809 0054 70       		.byte	0x70
 2810 0055 24       		.sleb128 36
 2811 0056 9F       		.byte	0x9f
 2812 0057 5C000000 		.4byte	.LVL3
 2813 005b 8C000000 		.4byte	.LVL6
 2814 005f 0300     		.2byte	0x3
 2815 0061 74       		.byte	0x74
 2816 0062 24       		.sleb128 36
 2817 0063 9F       		.byte	0x9f
 2818 0064 C0000000 		.4byte	.LVL10
 2819 0068 04010000 		.4byte	.LVL14
 2820 006c 0300     		.2byte	0x3
 2821 006e 70       		.byte	0x70
 2822 006f 24       		.sleb128 36
 2823 0070 9F       		.byte	0x9f
 2824 0071 04010000 		.4byte	.LVL14
 2825 0075 44010000 		.4byte	.LVL18
 2826 0079 0300     		.2byte	0x3
 2827 007b 74       		.byte	0x74
 2828 007c 24       		.sleb128 36
 2829 007d 9F       		.byte	0x9f
 2830 007e 44010000 		.4byte	.LVL18
 2831 0082 54010000 		.4byte	.LVL19
 2832 0086 0300     		.2byte	0x3
 2833 0088 70       		.byte	0x70
 2834 0089 24       		.sleb128 36
 2835 008a 9F       		.byte	0x9f
 2836 008b 54010000 		.4byte	.LVL19
 2837 008f 9C010000 		.4byte	.LFE7
 2838 0093 0300     		.2byte	0x3
 2839 0095 74       		.byte	0x74
 2840 0096 24       		.sleb128 36
 2841 0097 9F       		.byte	0x9f
 2842 0098 00000000 		.4byte	0
 2843 009c 00000000 		.4byte	0
 2844              	.LLST2:
 2845 00a0 4C000000 		.4byte	.LVL2
 2846 00a4 5C000000 		.4byte	.LVL3
 2847 00a8 0100     		.2byte	0x1
 2848 00aa 5C       		.byte	0x5c
 2849 00ab 5C000000 		.4byte	.LVL3
 2850 00af 64000000 		.4byte	.LVL4
ARM GAS  /tmp/ccdMvw60.s 			page 51


 2851 00b3 0100     		.2byte	0x1
 2852 00b5 51       		.byte	0x51
 2853 00b6 64000000 		.4byte	.LVL4
 2854 00ba 74000000 		.4byte	.LVL5
 2855 00be 0300     		.2byte	0x3
 2856 00c0 71       		.byte	0x71
 2857 00c1 02       		.sleb128 2
 2858 00c2 9F       		.byte	0x9f
 2859 00c3 74000000 		.4byte	.LVL5
 2860 00c7 8C000000 		.4byte	.LVL6
 2861 00cb 0100     		.2byte	0x1
 2862 00cd 51       		.byte	0x51
 2863 00ce 00000000 		.4byte	0
 2864 00d2 00000000 		.4byte	0
 2865              	.LLST3:
 2866 00d6 C8000000 		.4byte	.LVL11
 2867 00da D0000000 		.4byte	.LVL13
 2868 00de 0100     		.2byte	0x1
 2869 00e0 51       		.byte	0x51
 2870 00e1 00000000 		.4byte	0
 2871 00e5 00000000 		.4byte	0
 2872              	.LLST4:
 2873 00e9 C8000000 		.4byte	.LVL11
 2874 00ed CC000000 		.4byte	.LVL12
 2875 00f1 0100     		.2byte	0x1
 2876 00f3 52       		.byte	0x52
 2877 00f4 CC000000 		.4byte	.LVL12
 2878 00f8 D0000000 		.4byte	.LVL13
 2879 00fc 0300     		.2byte	0x3
 2880 00fe 72       		.byte	0x72
 2881 00ff 01       		.sleb128 1
 2882 0100 9F       		.byte	0x9f
 2883 0101 00000000 		.4byte	0
 2884 0105 00000000 		.4byte	0
 2885              	.LLST5:
 2886 0109 24010000 		.4byte	.LVL16
 2887 010d 2F010000 		.4byte	.LVL17-1
 2888 0111 0100     		.2byte	0x1
 2889 0113 50       		.byte	0x50
 2890 0114 00000000 		.4byte	0
 2891 0118 00000000 		.4byte	0
 2892              	.LLST6:
 2893 011c 44010000 		.4byte	.LVL18
 2894 0120 54010000 		.4byte	.LVL19
 2895 0124 0100     		.2byte	0x1
 2896 0126 5C       		.byte	0x5c
 2897 0127 54010000 		.4byte	.LVL19
 2898 012b 5C010000 		.4byte	.LVL20
 2899 012f 0100     		.2byte	0x1
 2900 0131 51       		.byte	0x51
 2901 0132 5C010000 		.4byte	.LVL20
 2902 0136 78010000 		.4byte	.LVL21
 2903 013a 0300     		.2byte	0x3
 2904 013c 71       		.byte	0x71
 2905 013d 01       		.sleb128 1
 2906 013e 9F       		.byte	0x9f
 2907 013f 78010000 		.4byte	.LVL21
ARM GAS  /tmp/ccdMvw60.s 			page 52


 2908 0143 88010000 		.4byte	.LVL22
 2909 0147 0100     		.2byte	0x1
 2910 0149 51       		.byte	0x51
 2911 014a 00000000 		.4byte	0
 2912 014e 00000000 		.4byte	0
 2913              	.LLST7:
 2914 0152 A8000000 		.4byte	.LVL7
 2915 0156 B0000000 		.4byte	.LVL9
 2916 015a 0100     		.2byte	0x1
 2917 015c 51       		.byte	0x51
 2918 015d 00000000 		.4byte	0
 2919 0161 00000000 		.4byte	0
 2920              	.LLST8:
 2921 0165 A8000000 		.4byte	.LVL7
 2922 0169 AC000000 		.4byte	.LVL8
 2923 016d 0100     		.2byte	0x1
 2924 016f 52       		.byte	0x52
 2925 0170 AC000000 		.4byte	.LVL8
 2926 0174 B0000000 		.4byte	.LVL9
 2927 0178 0300     		.2byte	0x3
 2928 017a 72       		.byte	0x72
 2929 017b 01       		.sleb128 1
 2930 017c 9F       		.byte	0x9f
 2931 017d 00000000 		.4byte	0
 2932 0181 00000000 		.4byte	0
 2933              	.LLST9:
 2934 0185 00000000 		.4byte	.LVL24
 2935 0189 10000000 		.4byte	.LVL25
 2936 018d 0100     		.2byte	0x1
 2937 018f 50       		.byte	0x50
 2938 0190 10000000 		.4byte	.LVL25
 2939 0194 C4000000 		.4byte	.LFE9
 2940 0198 0100     		.2byte	0x1
 2941 019a 54       		.byte	0x54
 2942 019b 00000000 		.4byte	0
 2943 019f 00000000 		.4byte	0
 2944              	.LLST10:
 2945 01a3 54000000 		.4byte	.LVL30
 2946 01a7 6C000000 		.4byte	.LVL32
 2947 01ab 0200     		.2byte	0x2
 2948 01ad 30       		.byte	0x30
 2949 01ae 9F       		.byte	0x9f
 2950 01af 6C000000 		.4byte	.LVL32
 2951 01b3 AC000000 		.4byte	.LVL38
 2952 01b7 0100     		.2byte	0x1
 2953 01b9 53       		.byte	0x53
 2954 01ba 00000000 		.4byte	0
 2955 01be 00000000 		.4byte	0
 2956              	.LLST11:
 2957 01c2 00000000 		.4byte	.LVL40
 2958 01c6 10000000 		.4byte	.LVL41
 2959 01ca 0100     		.2byte	0x1
 2960 01cc 50       		.byte	0x50
 2961 01cd 10000000 		.4byte	.LVL41
 2962 01d1 58000000 		.4byte	.LFE10
 2963 01d5 0400     		.2byte	0x4
 2964 01d7 F3       		.byte	0xf3
ARM GAS  /tmp/ccdMvw60.s 			page 53


 2965 01d8 01       		.uleb128 0x1
 2966 01d9 50       		.byte	0x50
 2967 01da 9F       		.byte	0x9f
 2968 01db 00000000 		.4byte	0
 2969 01df 00000000 		.4byte	0
 2970              	.LLST12:
 2971 01e3 00000000 		.4byte	.LVL53
 2972 01e7 34000000 		.4byte	.LVL54
 2973 01eb 0100     		.2byte	0x1
 2974 01ed 53       		.byte	0x53
 2975 01ee 34000000 		.4byte	.LVL54
 2976 01f2 48000000 		.4byte	.LFE14
 2977 01f6 0200     		.2byte	0x2
 2978 01f8 70       		.byte	0x70
 2979 01f9 1C       		.sleb128 28
 2980 01fa 00000000 		.4byte	0
 2981 01fe 00000000 		.4byte	0
 2982              	.LLST13:
 2983 0202 00000000 		.4byte	.LVL57
 2984 0206 08000000 		.4byte	.LVL58
 2985 020a 0100     		.2byte	0x1
 2986 020c 50       		.byte	0x50
 2987 020d 08000000 		.4byte	.LVL58
 2988 0211 58000000 		.4byte	.LFE17
 2989 0215 0400     		.2byte	0x4
 2990 0217 F3       		.byte	0xf3
 2991 0218 01       		.uleb128 0x1
 2992 0219 50       		.byte	0x50
 2993 021a 9F       		.byte	0x9f
 2994 021b 00000000 		.4byte	0
 2995 021f 00000000 		.4byte	0
 2996              		.section	.debug_aranges,"",%progbits
 2997 0000 6C000000 		.4byte	0x6c
 2998 0004 0200     		.2byte	0x2
 2999 0006 00000000 		.4byte	.Ldebug_info0
 3000 000a 04       		.byte	0x4
 3001 000b 00       		.byte	0
 3002 000c 0000     		.2byte	0
 3003 000e 0000     		.2byte	0
 3004 0010 00000000 		.4byte	.LFB7
 3005 0014 9C010000 		.4byte	.LFE7-.LFB7
 3006 0018 00000000 		.4byte	.LFB8
 3007 001c 0C000000 		.4byte	.LFE8-.LFB8
 3008 0020 00000000 		.4byte	.LFB9
 3009 0024 C4000000 		.4byte	.LFE9-.LFB9
 3010 0028 00000000 		.4byte	.LFB10
 3011 002c 58000000 		.4byte	.LFE10-.LFB10
 3012 0030 00000000 		.4byte	.LFB11
 3013 0034 28000000 		.4byte	.LFE11-.LFB11
 3014 0038 00000000 		.4byte	.LFB12
 3015 003c 18000000 		.4byte	.LFE12-.LFB12
 3016 0040 00000000 		.4byte	.LFB13
 3017 0044 4C000000 		.4byte	.LFE13-.LFB13
 3018 0048 00000000 		.4byte	.LFB14
 3019 004c 48000000 		.4byte	.LFE14-.LFB14
 3020 0050 00000000 		.4byte	.LFB15
 3021 0054 4C000000 		.4byte	.LFE15-.LFB15
ARM GAS  /tmp/ccdMvw60.s 			page 54


 3022 0058 00000000 		.4byte	.LFB16
 3023 005c 4C000000 		.4byte	.LFE16-.LFB16
 3024 0060 00000000 		.4byte	.LFB17
 3025 0064 58000000 		.4byte	.LFE17-.LFB17
 3026 0068 00000000 		.4byte	0
 3027 006c 00000000 		.4byte	0
 3028              		.section	.debug_ranges,"",%progbits
 3029              	.Ldebug_ranges0:
 3030 0000 28000000 		.4byte	.LBB8
 3031 0004 8C000000 		.4byte	.LBE8
 3032 0008 C0000000 		.4byte	.LBB16
 3033 000c 30010000 		.4byte	.LBE16
 3034 0010 44010000 		.4byte	.LBB17
 3035 0014 9C010000 		.4byte	.LBE17
 3036 0018 00000000 		.4byte	0
 3037 001c 00000000 		.4byte	0
 3038 0020 38000000 		.4byte	.LBB9
 3039 0024 3C000000 		.4byte	.LBE9
 3040 0028 44000000 		.4byte	.LBB10
 3041 002c 48000000 		.4byte	.LBE10
 3042 0030 4C000000 		.4byte	.LBB11
 3043 0034 8C000000 		.4byte	.LBE11
 3044 0038 00000000 		.4byte	0
 3045 003c 00000000 		.4byte	0
 3046 0040 00000000 		.4byte	.LFB7
 3047 0044 9C010000 		.4byte	.LFE7
 3048 0048 00000000 		.4byte	.LFB8
 3049 004c 0C000000 		.4byte	.LFE8
 3050 0050 00000000 		.4byte	.LFB9
 3051 0054 C4000000 		.4byte	.LFE9
 3052 0058 00000000 		.4byte	.LFB10
 3053 005c 58000000 		.4byte	.LFE10
 3054 0060 00000000 		.4byte	.LFB11
 3055 0064 28000000 		.4byte	.LFE11
 3056 0068 00000000 		.4byte	.LFB12
 3057 006c 18000000 		.4byte	.LFE12
 3058 0070 00000000 		.4byte	.LFB13
 3059 0074 4C000000 		.4byte	.LFE13
 3060 0078 00000000 		.4byte	.LFB14
 3061 007c 48000000 		.4byte	.LFE14
 3062 0080 00000000 		.4byte	.LFB15
 3063 0084 4C000000 		.4byte	.LFE15
 3064 0088 00000000 		.4byte	.LFB16
 3065 008c 4C000000 		.4byte	.LFE16
 3066 0090 00000000 		.4byte	.LFB17
 3067 0094 58000000 		.4byte	.LFE17
 3068 0098 00000000 		.4byte	0
 3069 009c 00000000 		.4byte	0
 3070              		.section	.debug_line,"",%progbits
 3071              	.Ldebug_line0:
 3072 0000 1E030000 		.section	.debug_str,"MS",%progbits,1
 3072      02007C01 
 3072      00000201 
 3072      FB0E0D00 
 3072      01010101 
 3073              	.LASF86:
 3074 0000 636F756E 		.ascii	"count\000"
ARM GAS  /tmp/ccdMvw60.s 			page 55


 3074      7400
 3075              	.LASF41:
 3076 0006 705F6D73 		.ascii	"p_msg\000"
 3076      6700
 3077              	.LASF2:
 3078 000c 73697A65 		.ascii	"size_t\000"
 3078      5F7400
 3079              	.LASF54:
 3080 0013 7264796D 		.ascii	"rdymsg\000"
 3080      736700
 3081              	.LASF3:
 3082 001a 5F5F7569 		.ascii	"__uint8_t\000"
 3082      6E74385F 
 3082      7400
 3083              	.LASF63:
 3084 0024 5350495F 		.ascii	"SPI_ACTIVE\000"
 3084      41435449 
 3084      564500
 3085              	.LASF71:
 3086 002f 72786275 		.ascii	"rxbuf\000"
 3086      6600
 3087              	.LASF13:
 3088 0035 6C6F6E67 		.ascii	"long long unsigned int\000"
 3088      206C6F6E 
 3088      6720756E 
 3088      7369676E 
 3088      65642069 
 3089              	.LASF97:
 3090 004c 6672616D 		.ascii	"frame\000"
 3090      6500
 3091              	.LASF55:
 3092 0052 65786974 		.ascii	"exitcode\000"
 3092      636F6465 
 3092      00
 3093              	.LASF66:
 3094 005b 53504944 		.ascii	"SPIDriver\000"
 3094      72697665 
 3094      7200
 3095              	.LASF29:
 3096 0065 705F7072 		.ascii	"p_prio\000"
 3096      696F00
 3097              	.LASF12:
 3098 006c 6C6F6E67 		.ascii	"long long int\000"
 3098      206C6F6E 
 3098      6720696E 
 3098      7400
 3099              	.LASF1:
 3100 007a 7369676E 		.ascii	"signed char\000"
 3100      65642063 
 3100      68617200 
 3101              	.LASF61:
 3102 0086 5350495F 		.ascii	"SPI_STOP\000"
 3102      53544F50 
 3102      00
 3103              	.LASF88:
 3104 008f 7370695F 		.ascii	"spi_lld_init\000"
 3104      6C6C645F 
ARM GAS  /tmp/ccdMvw60.s 			page 56


 3104      696E6974 
 3104      00
 3105              	.LASF51:
 3106 009c 6D5F7175 		.ascii	"m_queue\000"
 3106      65756500 
 3107              	.LASF21:
 3108 00a4 74736C69 		.ascii	"tslices_t\000"
 3108      6365735F 
 3108      7400
 3109              	.LASF67:
 3110 00ae 73746174 		.ascii	"state\000"
 3110      6500
 3111              	.LASF9:
 3112 00b4 6C6F6E67 		.ascii	"long int\000"
 3112      20696E74 
 3112      00
 3113              	.LASF19:
 3114 00bd 74737461 		.ascii	"tstate_t\000"
 3114      74655F74 
 3114      00
 3115              	.LASF98:
 3116 00c6 72786461 		.ascii	"rxdata\000"
 3116      746100
 3117              	.LASF99:
 3118 00cd 7370695F 		.ascii	"spi_lld_exchange\000"
 3118      6C6C645F 
 3118      65786368 
 3118      616E6765 
 3118      00
 3119              	.LASF82:
 3120 00de 636C6F63 		.ascii	"clock_phase\000"
 3120      6B5F7068 
 3120      61736500 
 3121              	.LASF15:
 3122 00ea 75696E74 		.ascii	"uint16_t\000"
 3122      31365F74 
 3122      00
 3123              	.LASF31:
 3124 00f3 705F6E65 		.ascii	"p_newer\000"
 3124      77657200 
 3125              	.LASF75:
 3126 00fb 656E645F 		.ascii	"end_cb\000"
 3126      636200
 3127              	.LASF73:
 3128 0102 7478636E 		.ascii	"txcnt\000"
 3128      7400
 3129              	.LASF79:
 3130 0108 63686970 		.ascii	"chip_select_polarity0\000"
 3130      5F73656C 
 3130      6563745F 
 3130      706F6C61 
 3130      72697479 
 3131              	.LASF80:
 3132 011e 63686970 		.ascii	"chip_select_polarity1\000"
 3132      5F73656C 
 3132      6563745F 
 3132      706F6C61 
ARM GAS  /tmp/ccdMvw60.s 			page 57


 3132      72697479 
 3133              	.LASF90:
 3134 0134 636F6E74 		.ascii	"control\000"
 3134      726F6C00 
 3135              	.LASF10:
 3136 013c 5F5F7569 		.ascii	"__uint32_t\000"
 3136      6E743332 
 3136      5F7400
 3137              	.LASF47:
 3138 0147 72656761 		.ascii	"regarm_t\000"
 3138      726D5F74 
 3138      00
 3139              	.LASF74:
 3140 0150 73706963 		.ascii	"spicallback_t\000"
 3140      616C6C62 
 3140      61636B5F 
 3140      7400
 3141              	.LASF70:
 3142 015e 6D757465 		.ascii	"mutex\000"
 3142      7800
 3143              	.LASF95:
 3144 0164 7370695F 		.ascii	"spi_lld_send\000"
 3144      6C6C645F 
 3144      73656E64 
 3144      00
 3145              	.LASF0:
 3146 0171 756E7369 		.ascii	"unsigned int\000"
 3146      676E6564 
 3146      20696E74 
 3146      00
 3147              	.LASF93:
 3148 017e 7370695F 		.ascii	"spi_lld_unselect\000"
 3148      6C6C645F 
 3148      756E7365 
 3148      6C656374 
 3148      00
 3149              	.LASF72:
 3150 018f 74786275 		.ascii	"txbuf\000"
 3150      6600
 3151              	.LASF11:
 3152 0195 6C6F6E67 		.ascii	"long unsigned int\000"
 3152      20756E73 
 3152      69676E65 
 3152      6420696E 
 3152      7400
 3153              	.LASF76:
 3154 01a7 6C6F7373 		.ascii	"lossiEnabled\000"
 3154      69456E61 
 3154      626C6564 
 3154      00
 3155              	.LASF78:
 3156 01b4 63686970 		.ascii	"chip_select_polarity\000"
 3156      5F73656C 
 3156      6563745F 
 3156      706F6C61 
 3156      72697479 
 3157              	.LASF49:
ARM GAS  /tmp/ccdMvw60.s 			page 58


 3158 01c9 636F6E74 		.ascii	"context\000"
 3158      65787400 
 3159              	.LASF7:
 3160 01d1 73686F72 		.ascii	"short unsigned int\000"
 3160      7420756E 
 3160      7369676E 
 3160      65642069 
 3160      6E7400
 3161              	.LASF23:
 3162 01e4 6D73675F 		.ascii	"msg_t\000"
 3162      7400
 3163              	.LASF18:
 3164 01ea 746D6F64 		.ascii	"tmode_t\000"
 3164      655F7400 
 3165              	.LASF46:
 3166 01f2 54687265 		.ascii	"ThreadsList\000"
 3166      6164734C 
 3166      69737400 
 3167              	.LASF24:
 3168 01fe 6576656E 		.ascii	"eventmask_t\000"
 3168      746D6173 
 3168      6B5F7400 
 3169              	.LASF50:
 3170 020a 4D757465 		.ascii	"Mutex\000"
 3170      7800
 3171              	.LASF96:
 3172 0210 7370695F 		.ascii	"spi_lld_receive\000"
 3172      6C6C645F 
 3172      72656365 
 3172      69766500 
 3173              	.LASF59:
 3174 0220 73697A65 		.ascii	"sizetype\000"
 3174      74797065 
 3174      00
 3175              	.LASF91:
 3176 0229 7370695F 		.ascii	"spi_lld_stop\000"
 3176      6C6C645F 
 3176      73746F70 
 3176      00
 3177              	.LASF32:
 3178 0236 705F6F6C 		.ascii	"p_older\000"
 3178      64657200 
 3179              	.LASF45:
 3180 023e 54687265 		.ascii	"ThreadsQueue\000"
 3180      61647351 
 3180      75657565 
 3180      00
 3181              	.LASF105:
 3182 024b 53504930 		.ascii	"SPI0\000"
 3182      00
 3183              	.LASF107:
 3184 0250 62636D32 		.ascii	"bcm2835_gpio_fnsel\000"
 3184      3833355F 
 3184      6770696F 
 3184      5F666E73 
 3184      656C00
 3185              	.LASF92:
ARM GAS  /tmp/ccdMvw60.s 			page 59


 3186 0263 7370695F 		.ascii	"spi_lld_select\000"
 3186      6C6C645F 
 3186      73656C65 
 3186      637400
 3187              	.LASF77:
 3188 0272 63686970 		.ascii	"chip_select\000"
 3188      5F73656C 
 3188      65637400 
 3189              	.LASF20:
 3190 027e 74726566 		.ascii	"trefs_t\000"
 3190      735F7400 
 3191              	.LASF28:
 3192 0286 705F7072 		.ascii	"p_prev\000"
 3192      657600
 3193              	.LASF22:
 3194 028d 74707269 		.ascii	"tprio_t\000"
 3194      6F5F7400 
 3195              	.LASF69:
 3196 0295 74687265 		.ascii	"thread\000"
 3196      616400
 3197              	.LASF16:
 3198 029c 696E7433 		.ascii	"int32_t\000"
 3198      325F7400 
 3199              	.LASF4:
 3200 02a4 756E7369 		.ascii	"unsigned char\000"
 3200      676E6564 
 3200      20636861 
 3200      7200
 3201              	.LASF43:
 3202 02b2 705F6D74 		.ascii	"p_mtxlist\000"
 3202      786C6973 
 3202      7400
 3203              	.LASF5:
 3204 02bc 73686F72 		.ascii	"short int\000"
 3204      7420696E 
 3204      7400
 3205              	.LASF34:
 3206 02c6 705F7374 		.ascii	"p_state\000"
 3206      61746500 
 3207              	.LASF37:
 3208 02ce 705F7072 		.ascii	"p_preempt\000"
 3208      65656D70 
 3208      7400
 3209              	.LASF100:
 3210 02d8 7370694F 		.ascii	"spiObjectInit\000"
 3210      626A6563 
 3210      74496E69 
 3210      7400
 3211              	.LASF57:
 3212 02e6 65776D61 		.ascii	"ewmask\000"
 3212      736B00
 3213              	.LASF27:
 3214 02ed 705F6E65 		.ascii	"p_next\000"
 3214      787400
 3215              	.LASF35:
 3216 02f4 705F666C 		.ascii	"p_flags\000"
 3216      61677300 
ARM GAS  /tmp/ccdMvw60.s 			page 60


 3217              	.LASF26:
 3218 02fc 54687265 		.ascii	"Thread\000"
 3218      616400
 3219              	.LASF83:
 3220 0303 636C6F63 		.ascii	"clock_divider\000"
 3220      6B5F6469 
 3220      76696465 
 3220      7200
 3221              	.LASF102:
 3222 0311 2E2E2F2E 		.ascii	"../../os/hal/platforms/BCM2835/spi_lld.c\000"
 3222      2E2F6F73 
 3222      2F68616C 
 3222      2F706C61 
 3222      74666F72 
 3223              	.LASF42:
 3224 033a 705F6570 		.ascii	"p_epending\000"
 3224      656E6469 
 3224      6E6700
 3225              	.LASF17:
 3226 0345 75696E74 		.ascii	"uint32_t\000"
 3226      33325F74 
 3226      00
 3227              	.LASF106:
 3228 034e 63685363 		.ascii	"chSchReadyI\000"
 3228      68526561 
 3228      64794900 
 3229              	.LASF58:
 3230 035a 63686172 		.ascii	"char\000"
 3230      00
 3231              	.LASF64:
 3232 035f 5350495F 		.ascii	"SPI_COMPLETE\000"
 3232      434F4D50 
 3232      4C455445 
 3232      00
 3233              	.LASF68:
 3234 036c 636F6E66 		.ascii	"config\000"
 3234      696700
 3235              	.LASF6:
 3236 0373 5F5F7569 		.ascii	"__uint16_t\000"
 3236      6E743136 
 3236      5F7400
 3237              	.LASF94:
 3238 037e 7370695F 		.ascii	"spi_lld_ignore\000"
 3238      6C6C645F 
 3238      69676E6F 
 3238      726500
 3239              	.LASF65:
 3240 038d 73706973 		.ascii	"spistate_t\000"
 3240      74617465 
 3240      5F7400
 3241              	.LASF53:
 3242 0398 6D5F6E65 		.ascii	"m_next\000"
 3242      787400
 3243              	.LASF25:
 3244 039f 73797374 		.ascii	"systime_t\000"
 3244      696D655F 
 3244      7400
ARM GAS  /tmp/ccdMvw60.s 			page 61


 3245              	.LASF44:
 3246 03a9 705F7265 		.ascii	"p_realprio\000"
 3246      616C7072 
 3246      696F00
 3247              	.LASF8:
 3248 03b4 5F5F696E 		.ascii	"__int32_t\000"
 3248      7433325F 
 3248      7400
 3249              	.LASF38:
 3250 03be 705F7469 		.ascii	"p_time\000"
 3250      6D6500
 3251              	.LASF81:
 3252 03c5 636C6F63 		.ascii	"clock_polarity\000"
 3252      6B5F706F 
 3252      6C617269 
 3252      747900
 3253              	.LASF48:
 3254 03d4 696E7463 		.ascii	"intctx\000"
 3254      747800
 3255              	.LASF40:
 3256 03db 705F6D73 		.ascii	"p_msgqueue\000"
 3256      67717565 
 3256      756500
 3257              	.LASF62:
 3258 03e6 5350495F 		.ascii	"SPI_READY\000"
 3258      52454144 
 3258      5900
 3259              	.LASF60:
 3260 03f0 5350495F 		.ascii	"SPI_UNINIT\000"
 3260      554E494E 
 3260      495400
 3261              	.LASF103:
 3262 03fb 2F686F6D 		.ascii	"/home/hunter/development/chibi/ChibiOS-RPi/demos/AR"
 3262      652F6875 
 3262      6E746572 
 3262      2F646576 
 3262      656C6F70 
 3263 042e 4D31312D 		.ascii	"M11-BCM2835-GCC\000"
 3263      42434D32 
 3263      3833352D 
 3263      47434300 
 3264              	.LASF36:
 3265 043e 705F7265 		.ascii	"p_refs\000"
 3265      667300
 3266              	.LASF89:
 3267 0445 7370695F 		.ascii	"spi_lld_start\000"
 3267      6C6C645F 
 3267      73746172 
 3267      7400
 3268              	.LASF14:
 3269 0453 75696E74 		.ascii	"uint8_t\000"
 3269      385F7400 
 3270              	.LASF85:
 3271 045b 73706970 		.ascii	"spip\000"
 3271      00
 3272              	.LASF87:
 3273 0460 7370695F 		.ascii	"spi_lld_serve_interrupt\000"
ARM GAS  /tmp/ccdMvw60.s 			page 62


 3273      6C6C645F 
 3273      73657276 
 3273      655F696E 
 3273      74657272 
 3274              	.LASF56:
 3275 0478 77746F62 		.ascii	"wtobjp\000"
 3275      6A7000
 3276              	.LASF33:
 3277 047f 705F6E61 		.ascii	"p_name\000"
 3277      6D6500
 3278              	.LASF101:
 3279 0486 474E5520 		.ascii	"GNU C 4.9.3 20150529 (prerelease) -mcpu=arm1176jz-s"
 3279      4320342E 
 3279      392E3320 
 3279      32303135 
 3279      30353239 
 3280 04b9 202D6D6E 		.ascii	" -mno-thumb-interwork -ggdb -O2 -fomit-frame-pointe"
 3280      6F2D7468 
 3280      756D622D 
 3280      696E7465 
 3280      72776F72 
 3281 04ec 72202D66 		.ascii	"r -ffunction-sections -fdata-sections\000"
 3281      66756E63 
 3281      74696F6E 
 3281      2D736563 
 3281      74696F6E 
 3282              	.LASF104:
 3283 0512 7370695F 		.ascii	"spi_lld_polled_exchange\000"
 3283      6C6C645F 
 3283      706F6C6C 
 3283      65645F65 
 3283      78636861 
 3284              	.LASF84:
 3285 052a 53504943 		.ascii	"SPIConfig\000"
 3285      6F6E6669 
 3285      6700
 3286              	.LASF52:
 3287 0534 6D5F6F77 		.ascii	"m_owner\000"
 3287      6E657200 
 3288              	.LASF30:
 3289 053c 705F6374 		.ascii	"p_ctx\000"
 3289      7800
 3290              	.LASF39:
 3291 0542 705F7761 		.ascii	"p_waiting\000"
 3291      6974696E 
 3291      6700
 3292              		.ident	"GCC: (15:4.9.3+svn231177-1) 4.9.3 20150529 (prerelease)"
ARM GAS  /tmp/ccdMvw60.s 			page 63


DEFINED SYMBOLS
                            *ABS*:0000000000000000 spi_lld.c
     /tmp/ccdMvw60.s:17     .text.spi_lld_serve_interrupt:0000000000000000 $a
     /tmp/ccdMvw60.s:20     .text.spi_lld_serve_interrupt:0000000000000000 spi_lld_serve_interrupt
     /tmp/ccdMvw60.s:233    .text.spi_lld_serve_interrupt:0000000000000194 $d
     /tmp/ccdMvw60.s:240    .text.spi_lld_init:0000000000000000 $a
     /tmp/ccdMvw60.s:243    .text.spi_lld_init:0000000000000000 spi_lld_init
     /tmp/ccdMvw60.s:257    .text.spi_lld_init:0000000000000008 $d
                            *COM*:0000000000000028 SPI0
     /tmp/ccdMvw60.s:262    .text.spi_lld_start:0000000000000000 $a
     /tmp/ccdMvw60.s:265    .text.spi_lld_start:0000000000000000 spi_lld_start
     /tmp/ccdMvw60.s:371    .text.spi_lld_start:00000000000000bc $d
     /tmp/ccdMvw60.s:377    .text.spi_lld_stop:0000000000000000 $a
     /tmp/ccdMvw60.s:380    .text.spi_lld_stop:0000000000000000 spi_lld_stop
     /tmp/ccdMvw60.s:434    .text.spi_lld_stop:0000000000000054 $d
     /tmp/ccdMvw60.s:439    .text.spi_lld_select:0000000000000000 $a
     /tmp/ccdMvw60.s:442    .text.spi_lld_select:0000000000000000 spi_lld_select
     /tmp/ccdMvw60.s:473    .text.spi_lld_select:0000000000000024 $d
     /tmp/ccdMvw60.s:478    .text.spi_lld_unselect:0000000000000000 $a
     /tmp/ccdMvw60.s:481    .text.spi_lld_unselect:0000000000000000 spi_lld_unselect
     /tmp/ccdMvw60.s:498    .text.spi_lld_unselect:0000000000000014 $d
     /tmp/ccdMvw60.s:503    .text.spi_lld_ignore:0000000000000000 $a
     /tmp/ccdMvw60.s:506    .text.spi_lld_ignore:0000000000000000 spi_lld_ignore
     /tmp/ccdMvw60.s:548    .text.spi_lld_ignore:0000000000000044 $d
     /tmp/ccdMvw60.s:556    .text.spi_lld_exchange:0000000000000000 $a
     /tmp/ccdMvw60.s:559    .text.spi_lld_exchange:0000000000000000 spi_lld_exchange
     /tmp/ccdMvw60.s:601    .text.spi_lld_exchange:0000000000000040 $d
     /tmp/ccdMvw60.s:607    .text.spi_lld_send:0000000000000000 $a
     /tmp/ccdMvw60.s:610    .text.spi_lld_send:0000000000000000 spi_lld_send
     /tmp/ccdMvw60.s:653    .text.spi_lld_send:0000000000000044 $d
     /tmp/ccdMvw60.s:661    .text.spi_lld_receive:0000000000000000 $a
     /tmp/ccdMvw60.s:664    .text.spi_lld_receive:0000000000000000 spi_lld_receive
     /tmp/ccdMvw60.s:707    .text.spi_lld_receive:0000000000000044 $d
     /tmp/ccdMvw60.s:715    .text.spi_lld_polled_exchange:0000000000000000 $a
     /tmp/ccdMvw60.s:718    .text.spi_lld_polled_exchange:0000000000000000 spi_lld_polled_exchange
     /tmp/ccdMvw60.s:766    .text.spi_lld_polled_exchange:0000000000000054 $d
                     .debug_frame:0000000000000010 $d

UNDEFINED SYMBOLS
chSchReadyI
spiObjectInit
bcm2835_gpio_fnsel
