ARM GAS  /tmp/ccdMvw60.s 			page 1


   1              		.cpu arm1176jz-s
   2              		.fpu softvfp
   3              		.eabi_attribute 20, 1
   4              		.eabi_attribute 21, 1
   5              		.eabi_attribute 23, 3
   6              		.eabi_attribute 24, 1
   7              		.eabi_attribute 25, 1
   8              		.eabi_attribute 26, 1
   9              		.eabi_attribute 30, 2
  10              		.eabi_attribute 34, 1
  11              		.eabi_attribute 18, 4
  12              		.file	"spi_lld.c"
  13              		.text
  14              	.Ltext0:
  15              		.cfi_sections	.debug_frame
  16              		.section	.text.spi_lld_serve_interrupt,"ax",%progbits
  17              		.align	2
  18              		.global	spi_lld_serve_interrupt
  19              		.type	spi_lld_serve_interrupt, %function
  20              	spi_lld_serve_interrupt:
  21              	.LFB7:
  22              		.file 1 "../../os/hal/platforms/BCM2835/spi_lld.c"
  23              		.loc 1 75 0
  24              		.cfi_startproc
  25              		@ args = 0, pretend = 0, frame = 0
  26              		@ frame_needed = 0, uses_anonymous_args = 0
  27              	.LVL0:
  28              		.loc 1 76 0
  29 0000 8C319FE5 		ldr	r3, .L53
  30 0004 083293E5 		ldr	r3, [r3, #520]
  31 0008 010513E3 		tst	r3, #4194304
  32 000c 1EFF2F01 		bxeq	lr
  33              		.loc 1 77 0
  34 0010 80319FE5 		ldr	r3, .L53+4
  35              		.loc 1 75 0
  36 0014 10402DE9 		stmfd	sp!, {r4, lr}
  37              		.cfi_def_cfa_offset 8
  38              		.cfi_offset 4, -8
  39              		.cfi_offset 14, -4
  40              		.loc 1 77 0
  41 0018 002093E5 		ldr	r2, [r3]
  42 001c 0040A0E1 		mov	r4, r0
  43 0020 010812E3 		tst	r2, #65536
  44 0024 1800000A 		beq	.L4
  45              	.LVL1:
  46              	.LBB8:
  47              		.loc 1 79 0
  48 0028 242090E5 		ldr	r2, [r0, #36]
  49 002c 000052E3 		cmp	r2, #0
  50 0030 2600000A 		beq	.L13
  51              		.loc 1 81 0
  52 0034 041090E5 		ldr	r1, [r0, #4]
  53              	.LBB9:
  54              		.loc 1 83 0
  55 0038 20C090E5 		ldr	ip, [r0, #32]
  56              	.LBE9:
  57              		.loc 1 81 0
ARM GAS  /tmp/ccdMvw60.s 			page 2


  58 003c 0410D1E5 		ldrb	r1, [r1, #4]	@ zero_extendqisi2
  59 0040 000051E3 		cmp	r1, #0
  60              	.LBB10:
  61              		.loc 1 84 0
  62 0044 001093E5 		ldr	r1, [r3]
  63              	.LBE10:
  64              		.loc 1 81 0
  65 0048 3D00000A 		beq	.L6
  66              	.LVL2:
  67              	.LBB11:
  68              		.loc 1 84 0
  69 004c 010711E3 		tst	r1, #262144
  70 0050 0D00000A 		beq	.L4
  71 0054 0C10A0E1 		mov	r1, ip
  72 0058 010000EA 		b	.L10
  73              	.LVL3:
  74              	.L50:
  75              		.loc 1 84 0 is_stmt 0 discriminator 1
  76 005c 000052E3 		cmp	r2, #0
  77 0060 0800000A 		beq	.L48
  78              	.L10:
  79              	.LVL4:
  80              		.loc 1 85 0 is_stmt 1
  81 0064 00005CE3 		cmp	ip, #0
  82 0068 0C00A001 		moveq	r0, ip
  83 006c B000D111 		ldrneh	r0, [r1]
  84 0070 02108112 		addne	r1, r1, #2
  85              	.LVL5:
  86 0074 040083E5 		str	r0, [r3, #4]
  87              		.loc 1 84 0
  88 0078 000093E5 		ldr	r0, [r3]
  89              		.loc 1 86 0
  90 007c 022042E2 		sub	r2, r2, #2
  91              		.loc 1 84 0
  92 0080 010710E3 		tst	r0, #262144
  93 0084 F4FFFF1A 		bne	.L50
  94              	.L48:
  95 0088 242084E5 		str	r2, [r4, #36]
  96              	.LVL6:
  97              	.L4:
  98              	.LBE11:
  99              	.LBE8:
 100              		.loc 1 106 0
 101 008c 04319FE5 		ldr	r3, .L53+4
 102 0090 002093E5 		ldr	r2, [r3]
 103 0094 020712E3 		tst	r2, #524288
 104 0098 0400001A 		bne	.L19
 105              	.L51:
 106 009c 1080BDE8 		ldmfd	sp!, {r4, pc}
 107              	.L20:
 108              	.LBB15:
 109              		.loc 1 107 0 discriminator 4
 110 00a0 1C2094E5 		ldr	r2, [r4, #28]
 111 00a4 041093E5 		ldr	r1, [r3, #4]
 112              	.LVL7:
 113 00a8 000052E3 		cmp	r2, #0
 114              	.LVL8:
ARM GAS  /tmp/ccdMvw60.s 			page 3


 115 00ac 0010C215 		strneb	r1, [r2]
 116              	.LVL9:
 117              	.L19:
 118              	.LBE15:
 119              		.loc 1 107 0 is_stmt 0 discriminator 3
 120 00b0 002093E5 		ldr	r2, [r3]
 121 00b4 020812E3 		tst	r2, #131072
 122 00b8 F8FFFF1A 		bne	.L20
 123 00bc 1080BDE8 		ldmfd	sp!, {r4, pc}
 124              	.LVL10:
 125              	.L14:
 126              	.LBB16:
 127              	.LBB12:
 128              		.loc 1 99 0 is_stmt 1 discriminator 4
 129 00c0 1C2094E5 		ldr	r2, [r4, #28]
 130 00c4 041093E5 		ldr	r1, [r3, #4]
 131              	.LVL11:
 132 00c8 000052E3 		cmp	r2, #0
 133              	.LVL12:
 134 00cc 0010C215 		strneb	r1, [r2]
 135              	.LVL13:
 136              	.L13:
 137              	.LBE12:
 138              		.loc 1 99 0 is_stmt 0 discriminator 3
 139 00d0 002093E5 		ldr	r2, [r3]
 140 00d4 BC109FE5 		ldr	r1, .L53+4
 141 00d8 020812E3 		tst	r2, #131072
 142 00dc F7FFFF1A 		bne	.L14
 143              		.loc 1 102 0 is_stmt 1
 144 00e0 042094E5 		ldr	r2, [r4, #4]
 145              		.loc 1 101 0
 146 00e4 003091E5 		ldr	r3, [r1]
 147              		.loc 1 102 0
 148 00e8 002092E5 		ldr	r2, [r2]
 149              		.loc 1 101 0
 150 00ec 1A3DC3E3 		bic	r3, r3, #1664
 151              		.loc 1 102 0
 152 00f0 000052E3 		cmp	r2, #0
 153              		.loc 1 101 0
 154 00f4 003081E5 		str	r3, [r1]
 155              		.loc 1 102 0
 156 00f8 2200000A 		beq	.L15
 157              		.loc 1 102 0 is_stmt 0 discriminator 1
 158 00fc 0430A0E3 		mov	r3, #4
 159 0100 0400A0E1 		mov	r0, r4
 160              	.LVL14:
 161 0104 0030C4E5 		strb	r3, [r4]
 162 0108 32FF2FE1 		blx	r2
 163              	.LVL15:
 164 010c 0030D4E5 		ldrb	r3, [r4]	@ zero_extendqisi2
 165 0110 040053E3 		cmp	r3, #4
 166 0114 1B00000A 		beq	.L15
 167              	.L16:
 168              		.loc 1 102 0 discriminator 4
 169 0118 080094E5 		ldr	r0, [r4, #8]
 170 011c 000050E3 		cmp	r0, #0
 171 0120 D9FFFF0A 		beq	.L4
ARM GAS  /tmp/ccdMvw60.s 			page 4


 172              	.LVL16:
 173              	.LBB13:
 174              		.loc 1 102 0 discriminator 5
 175 0124 0030A0E3 		mov	r3, #0
 176 0128 083084E5 		str	r3, [r4, #8]
 177 012c FEFFFFEB 		bl	chSchReadyI
 178              	.LVL17:
 179              	.LBE13:
 180              	.LBE16:
 181              		.loc 1 106 0 is_stmt 1 discriminator 5
 182 0130 60309FE5 		ldr	r3, .L53+4
 183 0134 002093E5 		ldr	r2, [r3]
 184 0138 020712E3 		tst	r2, #524288
 185 013c DBFFFF1A 		bne	.L19
 186 0140 D5FFFFEA 		b	.L51
 187              	.LVL18:
 188              	.L6:
 189              	.LBB17:
 190              	.LBB14:
 191              		.loc 1 91 0
 192 0144 010711E3 		tst	r1, #262144
 193 0148 CFFFFF0A 		beq	.L4
 194 014c 0C10A0E1 		mov	r1, ip
 195 0150 010000EA 		b	.L12
 196              	.LVL19:
 197              	.L52:
 198              		.loc 1 91 0 is_stmt 0 discriminator 1
 199 0154 000052E3 		cmp	r2, #0
 200 0158 CBFFFF0A 		beq	.L4
 201              	.L12:
 202              	.LVL20:
 203              		.loc 1 92 0 is_stmt 1
 204 015c 00005CE3 		cmp	ip, #0
 205 0160 0C00A001 		moveq	r0, ip
 206 0164 0000D115 		ldrneb	r0, [r1]	@ zero_extendqisi2
 207              		.loc 1 93 0
 208 0168 012042E2 		sub	r2, r2, #1
 209              		.loc 1 92 0
 210 016c 040083E5 		str	r0, [r3, #4]
 211              		.loc 1 91 0
 212 0170 000093E5 		ldr	r0, [r3]
 213              		.loc 1 92 0
 214 0174 01108112 		addne	r1, r1, #1
 215              	.LVL21:
 216              		.loc 1 91 0
 217 0178 010710E3 		tst	r0, #262144
 218              		.loc 1 93 0
 219 017c 242084E5 		str	r2, [r4, #36]
 220              		.loc 1 91 0
 221 0180 F3FFFF1A 		bne	.L52
 222 0184 C0FFFFEA 		b	.L4
 223              	.LVL22:
 224              	.L15:
 225              	.LBE14:
 226              		.loc 1 102 0 discriminator 3
 227 0188 0230A0E3 		mov	r3, #2
 228 018c 0030C4E5 		strb	r3, [r4]
ARM GAS  /tmp/ccdMvw60.s 			page 5


 229 0190 E0FFFFEA 		b	.L16
 230              	.L54:
 231              		.align	2
 232              	.L53:
 233 0194 00B00020 		.word	536915968
 234 0198 00402020 		.word	538984448
 235              	.LBE17:
 236              		.cfi_endproc
 237              	.LFE7:
 238              		.size	spi_lld_serve_interrupt, .-spi_lld_serve_interrupt
 239              		.section	.text.spi_lld_init,"ax",%progbits
 240              		.align	2
 241              		.global	spi_lld_init
 242              		.type	spi_lld_init, %function
 243              	spi_lld_init:
 244              	.LFB8:
 245              		.loc 1 121 0
 246              		.cfi_startproc
 247              		@ args = 0, pretend = 0, frame = 0
 248              		@ frame_needed = 0, uses_anonymous_args = 0
 249              		@ link register save eliminated.
 250              		.loc 1 122 0
 251 0000 00009FE5 		ldr	r0, .L56
 252 0004 FEFFFFEA 		b	spiObjectInit
 253              	.LVL23:
 254              	.L57:
 255              		.align	2
 256              	.L56:
 257 0008 00000000 		.word	SPI0
 258              		.cfi_endproc
 259              	.LFE8:
 260              		.size	spi_lld_init, .-spi_lld_init
 261              		.section	.text.spi_lld_start,"ax",%progbits
 262              		.align	2
 263              		.global	spi_lld_start
 264              		.type	spi_lld_start, %function
 265              	spi_lld_start:
 266              	.LFB9:
 267              		.loc 1 132 0
 268              		.cfi_startproc
 269              		@ args = 0, pretend = 0, frame = 0
 270              		@ frame_needed = 0, uses_anonymous_args = 0
 271              	.LVL24:
 272 0000 10402DE9 		stmfd	sp!, {r4, lr}
 273              		.cfi_def_cfa_offset 8
 274              		.cfi_offset 4, -8
 275              		.cfi_offset 14, -4
 276              		.loc 1 132 0
 277 0004 0040A0E1 		mov	r4, r0
 278              		.loc 1 135 0
 279 0008 AC209FE5 		ldr	r2, .L82
 280              		.loc 1 138 0
 281 000c 0700A0E3 		mov	r0, #7
 282              	.LVL25:
 283              		.loc 1 135 0
 284 0010 203292E5 		ldr	r3, [r2, #544]
 285              		.loc 1 138 0
ARM GAS  /tmp/ccdMvw60.s 			page 6


 286 0014 0410A0E3 		mov	r1, #4
 287              		.loc 1 135 0
 288 0018 013583E3 		orr	r3, r3, #4194304
 289 001c 203282E5 		str	r3, [r2, #544]
 290              		.loc 1 138 0
 291 0020 FEFFFFEB 		bl	bcm2835_gpio_fnsel
 292              	.LVL26:
 293              		.loc 1 139 0
 294 0024 0800A0E3 		mov	r0, #8
 295 0028 0410A0E3 		mov	r1, #4
 296 002c FEFFFFEB 		bl	bcm2835_gpio_fnsel
 297              	.LVL27:
 298              		.loc 1 140 0
 299 0030 0900A0E3 		mov	r0, #9
 300 0034 0410A0E3 		mov	r1, #4
 301 0038 FEFFFFEB 		bl	bcm2835_gpio_fnsel
 302              	.LVL28:
 303              		.loc 1 141 0
 304 003c 0A00A0E3 		mov	r0, #10
 305 0040 0410A0E3 		mov	r1, #4
 306 0044 FEFFFFEB 		bl	bcm2835_gpio_fnsel
 307              	.LVL29:
 308              		.loc 1 142 0
 309 0048 0410A0E3 		mov	r1, #4
 310 004c 0B00A0E3 		mov	r0, #11
 311 0050 FEFFFFEB 		bl	bcm2835_gpio_fnsel
 312              	.LVL30:
 313              		.loc 1 149 0
 314 0054 042094E5 		ldr	r2, [r4, #4]
 315              	.LVL31:
 316              		.loc 1 151 0
 317 0058 0930D2E5 		ldrb	r3, [r2, #9]	@ zero_extendqisi2
 318              		.loc 1 154 0
 319 005c 0A10D2E5 		ldrb	r1, [r2, #10]	@ zero_extendqisi2
 320              		.loc 1 152 0
 321 0060 000053E3 		cmp	r3, #0
 322 0064 0830A013 		movne	r3, #8
 323 0068 0030A003 		moveq	r3, #0
 324              	.LVL32:
 325              		.loc 1 154 0
 326 006c 000051E3 		cmp	r1, #0
 327              		.loc 1 157 0
 328 0070 0610D2E5 		ldrb	r1, [r2, #6]	@ zero_extendqisi2
 329              		.loc 1 155 0
 330 0074 04308313 		orrne	r3, r3, #4
 331              	.LVL33:
 332              		.loc 1 157 0
 333 0078 000051E3 		cmp	r1, #0
 334              		.loc 1 160 0
 335 007c 0710D2E5 		ldrb	r1, [r2, #7]	@ zero_extendqisi2
 336              		.loc 1 158 0
 337 0080 40308313 		orrne	r3, r3, #64
 338              	.LVL34:
 339              		.loc 1 160 0
 340 0084 000051E3 		cmp	r1, #0
 341              		.loc 1 163 0
 342 0088 0810D2E5 		ldrb	r1, [r2, #8]	@ zero_extendqisi2
ARM GAS  /tmp/ccdMvw60.s 			page 7


 343              		.loc 1 161 0
 344 008c 02368313 		orrne	r3, r3, #2097152
 345              	.LVL35:
 346              		.loc 1 163 0
 347 0090 000051E3 		cmp	r1, #0
 348              		.loc 1 166 0
 349 0094 0410D2E5 		ldrb	r1, [r2, #4]	@ zero_extendqisi2
 350              		.loc 1 164 0
 351 0098 01358313 		orrne	r3, r3, #4194304
 352              	.LVL36:
 353              		.loc 1 166 0
 354 009c 000051E3 		cmp	r1, #0
 355              		.loc 1 167 0
 356 00a0 023A8313 		orrne	r3, r3, #8192
 357              	.LVL37:
 358              		.loc 1 170 0
 359 00a4 14109FE5 		ldr	r1, .L82+4
 360 00a8 303083E3 		orr	r3, r3, #48
 361              	.LVL38:
 362 00ac 003081E5 		str	r3, [r1]
 363              	.LVL39:
 364              		.loc 1 172 0
 365 00b0 0C3092E5 		ldr	r3, [r2, #12]
 366 00b4 083081E5 		str	r3, [r1, #8]
 367 00b8 1080BDE8 		ldmfd	sp!, {r4, pc}
 368              	.L83:
 369              		.align	2
 370              	.L82:
 371 00bc 00B00020 		.word	536915968
 372 00c0 00402020 		.word	538984448
 373              		.cfi_endproc
 374              	.LFE9:
 375              		.size	spi_lld_start, .-spi_lld_start
 376              		.section	.text.spi_lld_stop,"ax",%progbits
 377              		.align	2
 378              		.global	spi_lld_stop
 379              		.type	spi_lld_stop, %function
 380              	spi_lld_stop:
 381              	.LFB10:
 382              		.loc 1 182 0
 383              		.cfi_startproc
 384              		@ args = 0, pretend = 0, frame = 0
 385              		@ frame_needed = 0, uses_anonymous_args = 0
 386              	.LVL40:
 387              		.loc 1 185 0
 388 0000 4C209FE5 		ldr	r2, .L86
 389              		.loc 1 182 0
 390 0004 08402DE9 		stmfd	sp!, {r3, lr}
 391              		.cfi_def_cfa_offset 8
 392              		.cfi_offset 3, -8
 393              		.cfi_offset 14, -4
 394              		.loc 1 185 0
 395 0008 203292E5 		ldr	r3, [r2, #544]
 396              		.loc 1 188 0
 397 000c 0700A0E3 		mov	r0, #7
 398              	.LVL41:
 399              		.loc 1 185 0
ARM GAS  /tmp/ccdMvw60.s 			page 8


 400 0010 013583E3 		orr	r3, r3, #4194304
 401 0014 203282E5 		str	r3, [r2, #544]
 402              		.loc 1 188 0
 403 0018 0010A0E3 		mov	r1, #0
 404 001c FEFFFFEB 		bl	bcm2835_gpio_fnsel
 405              	.LVL42:
 406              		.loc 1 189 0
 407 0020 0800A0E3 		mov	r0, #8
 408 0024 0010A0E3 		mov	r1, #0
 409 0028 FEFFFFEB 		bl	bcm2835_gpio_fnsel
 410              	.LVL43:
 411              		.loc 1 190 0
 412 002c 0900A0E3 		mov	r0, #9
 413 0030 0010A0E3 		mov	r1, #0
 414 0034 FEFFFFEB 		bl	bcm2835_gpio_fnsel
 415              	.LVL44:
 416              		.loc 1 191 0
 417 0038 0A00A0E3 		mov	r0, #10
 418 003c 0010A0E3 		mov	r1, #0
 419 0040 FEFFFFEB 		bl	bcm2835_gpio_fnsel
 420              	.LVL45:
 421              		.loc 1 193 0
 422 0044 0840BDE8 		ldmfd	sp!, {r3, lr}
 423              		.cfi_restore 14
 424              		.cfi_restore 3
 425              		.cfi_def_cfa_offset 0
 426              		.loc 1 192 0
 427 0048 0B00A0E3 		mov	r0, #11
 428 004c 0010A0E3 		mov	r1, #0
 429 0050 FEFFFFEA 		b	bcm2835_gpio_fnsel
 430              	.LVL46:
 431              	.L87:
 432              		.align	2
 433              	.L86:
 434 0054 00B00020 		.word	536915968
 435              		.cfi_endproc
 436              	.LFE10:
 437              		.size	spi_lld_stop, .-spi_lld_stop
 438              		.section	.text.spi_lld_select,"ax",%progbits
 439              		.align	2
 440              		.global	spi_lld_select
 441              		.type	spi_lld_select, %function
 442              	spi_lld_select:
 443              	.LFB11:
 444              		.loc 1 202 0
 445              		.cfi_startproc
 446              		@ args = 0, pretend = 0, frame = 0
 447              		@ frame_needed = 0, uses_anonymous_args = 0
 448              		@ link register save eliminated.
 449              	.LVL47:
 450              		.loc 1 205 0
 451 0000 043090E5 		ldr	r3, [r0, #4]
 452              		.loc 1 203 0
 453 0004 18109FE5 		ldr	r1, .L89
 454              		.loc 1 205 0
 455 0008 0520D3E5 		ldrb	r2, [r3, #5]	@ zero_extendqisi2
 456              		.loc 1 203 0
ARM GAS  /tmp/ccdMvw60.s 			page 9


 457 000c 003091E5 		ldr	r3, [r1]
 458              	.LVL48:
 459              		.loc 1 205 0
 460 0010 032002E2 		and	r2, r2, #3
 461              		.loc 1 204 0
 462 0014 0330C3E3 		bic	r3, r3, #3
 463              	.LVL49:
 464              		.loc 1 205 0
 465 0018 033082E1 		orr	r3, r2, r3
 466              	.LVL50:
 467              		.loc 1 206 0
 468 001c 003081E5 		str	r3, [r1]
 469 0020 1EFF2FE1 		bx	lr
 470              	.L90:
 471              		.align	2
 472              	.L89:
 473 0024 00402020 		.word	538984448
 474              		.cfi_endproc
 475              	.LFE11:
 476              		.size	spi_lld_select, .-spi_lld_select
 477              		.section	.text.spi_lld_unselect,"ax",%progbits
 478              		.align	2
 479              		.global	spi_lld_unselect
 480              		.type	spi_lld_unselect, %function
 481              	spi_lld_unselect:
 482              	.LFB12:
 483              		.loc 1 217 0
 484              		.cfi_startproc
 485              		@ args = 0, pretend = 0, frame = 0
 486              		@ frame_needed = 0, uses_anonymous_args = 0
 487              		@ link register save eliminated.
 488              	.LVL51:
 489              		.loc 1 223 0
 490 0000 0C209FE5 		ldr	r2, .L92
 491 0004 003092E5 		ldr	r3, [r2]
 492 0008 0330C3E3 		bic	r3, r3, #3
 493 000c 003082E5 		str	r3, [r2]
 494 0010 1EFF2FE1 		bx	lr
 495              	.L93:
 496              		.align	2
 497              	.L92:
 498 0014 00402020 		.word	538984448
 499              		.cfi_endproc
 500              	.LFE12:
 501              		.size	spi_lld_unselect, .-spi_lld_unselect
 502              		.section	.text.spi_lld_ignore,"ax",%progbits
 503              		.align	2
 504              		.global	spi_lld_ignore
 505              		.type	spi_lld_ignore, %function
 506              	spi_lld_ignore:
 507              	.LFB13:
 508              		.loc 1 237 0
 509              		.cfi_startproc
 510              		@ args = 0, pretend = 0, frame = 0
 511              		@ frame_needed = 0, uses_anonymous_args = 0
 512              	.LVL52:
 513 0000 04E02DE5 		str	lr, [sp, #-4]!
ARM GAS  /tmp/ccdMvw60.s 			page 10


 514              		.cfi_def_cfa_offset 4
 515              		.cfi_offset 14, -4
 516              	.LBB18:
 517              	.LBB19:
 518              		.loc 1 261 0
 519 0004 00E0A0E3 		mov	lr, #0
 520              		.loc 1 259 0
 521 0008 34309FE5 		ldr	r3, .L96
 522              		.loc 1 267 0
 523 000c 34C09FE5 		ldr	ip, .L96+4
 524              		.loc 1 259 0
 525 0010 002093E5 		ldr	r2, [r3]
 526 0014 302082E3 		orr	r2, r2, #48
 527 0018 002083E5 		str	r2, [r3]
 528              		.loc 1 266 0
 529 001c 002093E5 		ldr	r2, [r3]
 530              		.loc 1 262 0
 531 0020 241080E5 		str	r1, [r0, #36]
 532              		.loc 1 266 0
 533 0024 1A2D82E3 		orr	r2, r2, #1664
 534              		.loc 1 261 0
 535 0028 20E080E5 		str	lr, [r0, #32]
 536              		.loc 1 263 0
 537 002c 1CE080E5 		str	lr, [r0, #28]
 538              		.loc 1 266 0
 539 0030 002083E5 		str	r2, [r3]
 540              		.loc 1 267 0
 541 0034 14329CE5 		ldr	r3, [ip, #532]
 542 0038 013583E3 		orr	r3, r3, #4194304
 543 003c 14328CE5 		str	r3, [ip, #532]
 544 0040 04F09DE4 		ldr	pc, [sp], #4
 545              	.L97:
 546              		.align	2
 547              	.L96:
 548 0044 00402020 		.word	538984448
 549 0048 00B00020 		.word	536915968
 550              	.LBE19:
 551              	.LBE18:
 552              		.cfi_endproc
 553              	.LFE13:
 554              		.size	spi_lld_ignore, .-spi_lld_ignore
 555              		.section	.text.spi_lld_exchange,"ax",%progbits
 556              		.align	2
 557              		.global	spi_lld_exchange
 558              		.type	spi_lld_exchange, %function
 559              	spi_lld_exchange:
 560              	.LFB14:
 561              		.loc 1 257 0
 562              		.cfi_startproc
 563              		@ args = 0, pretend = 0, frame = 0
 564              		@ frame_needed = 0, uses_anonymous_args = 0
 565              	.LVL53:
 566              		.loc 1 259 0
 567 0000 38C09FE5 		ldr	ip, .L100
 568              		.loc 1 257 0
 569 0004 10402DE9 		stmfd	sp!, {r4, lr}
 570              		.cfi_def_cfa_offset 8
ARM GAS  /tmp/ccdMvw60.s 			page 11


 571              		.cfi_offset 4, -8
 572              		.cfi_offset 14, -4
 573              		.loc 1 259 0
 574 0008 00E09CE5 		ldr	lr, [ip]
 575              		.loc 1 267 0
 576 000c 30409FE5 		ldr	r4, .L100+4
 577              		.loc 1 259 0
 578 0010 30E08EE3 		orr	lr, lr, #48
 579 0014 00E08CE5 		str	lr, [ip]
 580              		.loc 1 266 0
 581 0018 00E09CE5 		ldr	lr, [ip]
 582              		.loc 1 263 0
 583 001c 1C3080E5 		str	r3, [r0, #28]
 584              		.loc 1 266 0
 585 0020 1AED8EE3 		orr	lr, lr, #1664
 586              		.loc 1 261 0
 587 0024 202080E5 		str	r2, [r0, #32]
 588              		.loc 1 262 0
 589 0028 241080E5 		str	r1, [r0, #36]
 590              		.loc 1 266 0
 591 002c 00E08CE5 		str	lr, [ip]
 592              		.loc 1 267 0
 593 0030 143294E5 		ldr	r3, [r4, #532]
 594              	.LVL54:
 595 0034 013583E3 		orr	r3, r3, #4194304
 596 0038 143284E5 		str	r3, [r4, #532]
 597 003c 1080BDE8 		ldmfd	sp!, {r4, pc}
 598              	.L101:
 599              		.align	2
 600              	.L100:
 601 0040 00402020 		.word	538984448
 602 0044 00B00020 		.word	536915968
 603              		.cfi_endproc
 604              	.LFE14:
 605              		.size	spi_lld_exchange, .-spi_lld_exchange
 606              		.section	.text.spi_lld_send,"ax",%progbits
 607              		.align	2
 608              		.global	spi_lld_send
 609              		.type	spi_lld_send, %function
 610              	spi_lld_send:
 611              	.LFB15:
 612              		.loc 1 283 0
 613              		.cfi_startproc
 614              		@ args = 0, pretend = 0, frame = 0
 615              		@ frame_needed = 0, uses_anonymous_args = 0
 616              	.LVL55:
 617 0000 10402DE9 		stmfd	sp!, {r4, lr}
 618              		.cfi_def_cfa_offset 8
 619              		.cfi_offset 4, -8
 620              		.cfi_offset 14, -4
 621              	.LBB20:
 622              	.LBB21:
 623              		.loc 1 263 0
 624 0004 0040A0E3 		mov	r4, #0
 625              		.loc 1 259 0
 626 0008 34309FE5 		ldr	r3, .L104
 627              		.loc 1 267 0
ARM GAS  /tmp/ccdMvw60.s 			page 12


 628 000c 34E09FE5 		ldr	lr, .L104+4
 629              		.loc 1 259 0
 630 0010 00C093E5 		ldr	ip, [r3]
 631 0014 30C08CE3 		orr	ip, ip, #48
 632 0018 00C083E5 		str	ip, [r3]
 633              		.loc 1 266 0
 634 001c 00C093E5 		ldr	ip, [r3]
 635              		.loc 1 261 0
 636 0020 202080E5 		str	r2, [r0, #32]
 637              		.loc 1 266 0
 638 0024 1ACD8CE3 		orr	ip, ip, #1664
 639              		.loc 1 262 0
 640 0028 241080E5 		str	r1, [r0, #36]
 641              		.loc 1 263 0
 642 002c 1C4080E5 		str	r4, [r0, #28]
 643              		.loc 1 266 0
 644 0030 00C083E5 		str	ip, [r3]
 645              		.loc 1 267 0
 646 0034 14329EE5 		ldr	r3, [lr, #532]
 647 0038 013583E3 		orr	r3, r3, #4194304
 648 003c 14328EE5 		str	r3, [lr, #532]
 649 0040 1080BDE8 		ldmfd	sp!, {r4, pc}
 650              	.L105:
 651              		.align	2
 652              	.L104:
 653 0044 00402020 		.word	538984448
 654 0048 00B00020 		.word	536915968
 655              	.LBE21:
 656              	.LBE20:
 657              		.cfi_endproc
 658              	.LFE15:
 659              		.size	spi_lld_send, .-spi_lld_send
 660              		.section	.text.spi_lld_receive,"ax",%progbits
 661              		.align	2
 662              		.global	spi_lld_receive
 663              		.type	spi_lld_receive, %function
 664              	spi_lld_receive:
 665              	.LFB16:
 666              		.loc 1 300 0
 667              		.cfi_startproc
 668              		@ args = 0, pretend = 0, frame = 0
 669              		@ frame_needed = 0, uses_anonymous_args = 0
 670              	.LVL56:
 671 0000 10402DE9 		stmfd	sp!, {r4, lr}
 672              		.cfi_def_cfa_offset 8
 673              		.cfi_offset 4, -8
 674              		.cfi_offset 14, -4
 675              	.LBB22:
 676              	.LBB23:
 677              		.loc 1 261 0
 678 0004 0040A0E3 		mov	r4, #0
 679              		.loc 1 259 0
 680 0008 34309FE5 		ldr	r3, .L108
 681              		.loc 1 267 0
 682 000c 34E09FE5 		ldr	lr, .L108+4
 683              		.loc 1 259 0
 684 0010 00C093E5 		ldr	ip, [r3]
ARM GAS  /tmp/ccdMvw60.s 			page 13


 685 0014 30C08CE3 		orr	ip, ip, #48
 686 0018 00C083E5 		str	ip, [r3]
 687              		.loc 1 266 0
 688 001c 00C093E5 		ldr	ip, [r3]
 689              		.loc 1 262 0
 690 0020 241080E5 		str	r1, [r0, #36]
 691              		.loc 1 266 0
 692 0024 1ACD8CE3 		orr	ip, ip, #1664
 693              		.loc 1 263 0
 694 0028 1C2080E5 		str	r2, [r0, #28]
 695              		.loc 1 261 0
 696 002c 204080E5 		str	r4, [r0, #32]
 697              		.loc 1 266 0
 698 0030 00C083E5 		str	ip, [r3]
 699              		.loc 1 267 0
 700 0034 14329EE5 		ldr	r3, [lr, #532]
 701 0038 013583E3 		orr	r3, r3, #4194304
 702 003c 14328EE5 		str	r3, [lr, #532]
 703 0040 1080BDE8 		ldmfd	sp!, {r4, pc}
 704              	.L109:
 705              		.align	2
 706              	.L108:
 707 0044 00402020 		.word	538984448
 708 0048 00B00020 		.word	536915968
 709              	.LBE23:
 710              	.LBE22:
 711              		.cfi_endproc
 712              	.LFE16:
 713              		.size	spi_lld_receive, .-spi_lld_receive
 714              		.section	.text.spi_lld_polled_exchange,"ax",%progbits
 715              		.align	2
 716              		.global	spi_lld_polled_exchange
 717              		.type	spi_lld_polled_exchange, %function
 718              	spi_lld_polled_exchange:
 719              	.LFB17:
 720              		.loc 1 316 0
 721              		.cfi_startproc
 722              		@ args = 0, pretend = 0, frame = 0
 723              		@ frame_needed = 0, uses_anonymous_args = 0
 724              		@ link register save eliminated.
 725              	.LVL57:
 726              		.loc 1 320 0
 727 0000 4C309FE5 		ldr	r3, .L117
 728              		.loc 1 323 0
 729 0004 0300A0E1 		mov	r0, r3
 730              	.LVL58:
 731              		.loc 1 320 0
 732 0008 002093E5 		ldr	r2, [r3]
 733 000c B02082E3 		orr	r2, r2, #176
 734 0010 002083E5 		str	r2, [r3]
 735              	.L111:
 736              		.loc 1 323 0 discriminator 1
 737 0014 003090E5 		ldr	r3, [r0]
 738 0018 34209FE5 		ldr	r2, .L117
 739 001c 010713E3 		tst	r3, #262144
 740 0020 FBFFFF0A 		beq	.L111
 741              		.loc 1 329 0
ARM GAS  /tmp/ccdMvw60.s 			page 14


 742 0024 0200A0E1 		mov	r0, r2
 743              		.loc 1 326 0
 744 0028 041082E5 		str	r1, [r2, #4]
 745              	.L112:
 746              		.loc 1 329 0 discriminator 1
 747 002c 003090E5 		ldr	r3, [r0]
 748 0030 1C209FE5 		ldr	r2, .L117
 749 0034 010813E3 		tst	r3, #65536
 750 0038 FBFFFF0A 		beq	.L112
 751              		.loc 1 332 0
 752 003c 040092E5 		ldr	r0, [r2, #4]
 753              	.LVL59:
 754              		.loc 1 335 0
 755 0040 003092E5 		ldr	r3, [r2]
 756              		.loc 1 338 0
 757 0044 7000FFE6 		uxth	r0, r0
 758              		.loc 1 335 0
 759 0048 8030C3E3 		bic	r3, r3, #128
 760 004c 003082E5 		str	r3, [r2]
 761              		.loc 1 338 0
 762 0050 1EFF2FE1 		bx	lr
 763              	.L118:
 764              		.align	2
 765              	.L117:
 766 0054 00402020 		.word	538984448
 767              		.cfi_endproc
 768              	.LFE17:
 769              		.size	spi_lld_polled_exchange, .-spi_lld_polled_exchange
 770              		.comm	SPI0,40,4
 771              		.text
 772              	.Letext0:
 773              		.file 2 "/usr/lib/gcc/arm-none-eabi/4.9.3/include/stddef.h"
 774              		.file 3 "/usr/include/newlib/machine/_default_types.h"
 775              		.file 4 "/usr/include/newlib/sys/_stdint.h"
 776              		.file 5 "../../os/ports/GCC/ARM/chtypes.h"
 777              		.file 6 "../../os/kernel/include/chlists.h"
 778              		.file 7 "../../os/kernel/include/chthreads.h"
 779              		.file 8 "../../os/ports/GCC/ARM/chcore.h"
 780              		.file 9 "../../os/kernel/include/chmtx.h"
 781              		.file 10 "../../os/hal/include/spi.h"
 782              		.file 11 "../../os/hal/platforms/BCM2835/spi_lld.h"
 783              		.file 12 "../../os/kernel/include/chschd.h"
 784              		.file 13 "../../os/hal/platforms/BCM2835/bcm2835.h"