ARM GAS  /tmp/ccKDLBsl.s 			page 1


   1              		.cpu arm1176jz-s
   2              		.fpu softvfp
   3              		.eabi_attribute 20, 1
   4              		.eabi_attribute 21, 1
   5              		.eabi_attribute 23, 3
   6              		.eabi_attribute 24, 1
   7              		.eabi_attribute 25, 1
   8              		.eabi_attribute 26, 1
   9              		.eabi_attribute 30, 2
  10              		.eabi_attribute 34, 1
  11              		.eabi_attribute 18, 4
  12              		.file	"testmtx.c"
  13              		.text
  14              	.Ltext0:
  15              		.cfi_sections	.debug_frame
  16              		.section	.text.mtx1_execute,"ax",%progbits
  17              		.align	2
  18              		.type	mtx1_execute, %function
  19              	mtx1_execute:
  20              	.LFB9:
  21              		.file 1 "../../test/testmtx.c"
  22              		.loc 1 101 0
  23              		.cfi_startproc
  24              		@ args = 0, pretend = 0, frame = 0
  25              		@ frame_needed = 0, uses_anonymous_args = 0
  26 0000 F0402DE9 		stmfd	sp!, {r4, r5, r6, r7, lr}
  27              		.cfi_def_cfa_offset 20
  28              		.cfi_offset 4, -20
  29              		.cfi_offset 5, -16
  30              		.cfi_offset 6, -12
  31              		.cfi_offset 7, -8
  32              		.cfi_offset 14, -4
  33              		.loc 1 103 0
  34 0004 10719FE5 		ldr	r7, .L6
  35              		.loc 1 101 0
  36 0008 0CD04DE2 		sub	sp, sp, #12
  37              		.cfi_def_cfa_offset 32
  38              		.loc 1 103 0
  39 000c 183097E5 		ldr	r3, [r7, #24]
  40              		.loc 1 104 0
  41 0010 08019FE5 		ldr	r0, .L6+4
  42              		.loc 1 103 0
  43 0014 084093E5 		ldr	r4, [r3, #8]
  44              	.LVL0:
  45              		.loc 1 105 0
  46 0018 04619FE5 		ldr	r6, .L6+8
  47              		.loc 1 104 0
  48 001c FEFFFFEB 		bl	chMtxLock
  49              	.LVL1:
  50              		.loc 1 105 0
  51 0020 00319FE5 		ldr	r3, .L6+12
  52 0024 012084E2 		add	r2, r4, #1
  53 0028 00308DE5 		str	r3, [sp]
  54 002c 461FA0E3 		mov	r1, #280
  55 0030 F4309FE5 		ldr	r3, .L6+16
  56 0034 000096E5 		ldr	r0, [r6]
  57 0038 FEFFFFEB 		bl	chThdCreateStatic
ARM GAS  /tmp/ccKDLBsl.s 			page 2


  58              	.LVL2:
  59 003c EC509FE5 		ldr	r5, .L6+20
  60              		.loc 1 106 0
  61 0040 041096E5 		ldr	r1, [r6, #4]
  62 0044 E8309FE5 		ldr	r3, .L6+24
  63              		.loc 1 105 0
  64 0048 000085E5 		str	r0, [r5]
  65              		.loc 1 106 0
  66 004c 022084E2 		add	r2, r4, #2
  67 0050 0100A0E1 		mov	r0, r1
  68 0054 00308DE5 		str	r3, [sp]
  69 0058 461FA0E3 		mov	r1, #280
  70 005c C8309FE5 		ldr	r3, .L6+16
  71 0060 FEFFFFEB 		bl	chThdCreateStatic
  72              	.LVL3:
  73              		.loc 1 107 0
  74 0064 081096E5 		ldr	r1, [r6, #8]
  75 0068 C8309FE5 		ldr	r3, .L6+28
  76              		.loc 1 106 0
  77 006c 040085E5 		str	r0, [r5, #4]
  78              		.loc 1 107 0
  79 0070 032084E2 		add	r2, r4, #3
  80 0074 0100A0E1 		mov	r0, r1
  81 0078 00308DE5 		str	r3, [sp]
  82 007c 461FA0E3 		mov	r1, #280
  83 0080 A4309FE5 		ldr	r3, .L6+16
  84 0084 FEFFFFEB 		bl	chThdCreateStatic
  85              	.LVL4:
  86              		.loc 1 108 0
  87 0088 0C1096E5 		ldr	r1, [r6, #12]
  88 008c A8309FE5 		ldr	r3, .L6+32
  89              		.loc 1 107 0
  90 0090 080085E5 		str	r0, [r5, #8]
  91              		.loc 1 108 0
  92 0094 042084E2 		add	r2, r4, #4
  93 0098 0100A0E1 		mov	r0, r1
  94 009c 00308DE5 		str	r3, [sp]
  95 00a0 461FA0E3 		mov	r1, #280
  96 00a4 80309FE5 		ldr	r3, .L6+16
  97 00a8 FEFFFFEB 		bl	chThdCreateStatic
  98              	.LVL5:
  99              		.loc 1 109 0
 100 00ac 101096E5 		ldr	r1, [r6, #16]
 101 00b0 88309FE5 		ldr	r3, .L6+36
 102 00b4 052084E2 		add	r2, r4, #5
 103              		.loc 1 108 0
 104 00b8 0C0085E5 		str	r0, [r5, #12]
 105              		.loc 1 109 0
 106 00bc 00308DE5 		str	r3, [sp]
 107 00c0 0100A0E1 		mov	r0, r1
 108 00c4 60309FE5 		ldr	r3, .L6+16
 109 00c8 461FA0E3 		mov	r1, #280
 110 00cc FEFFFFEB 		bl	chThdCreateStatic
 111              	.LVL6:
 112 00d0 100085E5 		str	r0, [r5, #16]
 113              		.loc 1 110 0
 114 00d4 FEFFFFEB 		bl	chMtxUnlock
ARM GAS  /tmp/ccKDLBsl.s 			page 3


 115              	.LVL7:
 116              		.loc 1 111 0
 117 00d8 FEFFFFEB 		bl	test_wait_threads
 118              	.LVL8:
 119              		.loc 1 112 0
 120 00dc 183097E5 		ldr	r3, [r7, #24]
 121 00e0 0100A0E3 		mov	r0, #1
 122 00e4 081093E5 		ldr	r1, [r3, #8]
 123 00e8 011064E0 		rsb	r1, r4, r1
 124 00ec 111F6FE1 		clz	r1, r1
 125 00f0 A112A0E1 		mov	r1, r1, lsr #5
 126 00f4 FEFFFFEB 		bl	_test_assert
 127              	.LVL9:
 128 00f8 000050E3 		cmp	r0, #0
 129 00fc 0100000A 		beq	.L5
 130              		.loc 1 114 0
 131 0100 0CD08DE2 		add	sp, sp, #12
 132              		.cfi_remember_state
 133              		.cfi_def_cfa_offset 20
 134              		@ sp needed
 135 0104 F080BDE8 		ldmfd	sp!, {r4, r5, r6, r7, pc}
 136              	.LVL10:
 137              	.L5:
 138              		.cfi_restore_state
 139              		.loc 1 113 0
 140 0108 0200A0E3 		mov	r0, #2
 141 010c 30109FE5 		ldr	r1, .L6+40
 142              		.loc 1 114 0
 143 0110 0CD08DE2 		add	sp, sp, #12
 144              		.cfi_def_cfa_offset 20
 145              		@ sp needed
 146 0114 F040BDE8 		ldmfd	sp!, {r4, r5, r6, r7, lr}
 147              		.cfi_restore 14
 148              		.cfi_restore 7
 149              		.cfi_restore 6
 150              		.cfi_restore 5
 151              		.cfi_restore 4
 152              		.cfi_def_cfa_offset 0
 153              	.LVL11:
 154              		.loc 1 113 0
 155 0118 FEFFFFEA 		b	_test_assert_sequence
 156              	.LVL12:
 157              	.L7:
 158              		.align	2
 159              	.L6:
 160 011c 00000000 		.word	rlist
 161 0120 00000000 		.word	.LANCHOR0
 162 0124 00000000 		.word	wa
 163 0128 00000000 		.word	.LC0
 164 012c 00000000 		.word	thread1
 165 0130 00000000 		.word	threads
 166 0134 04000000 		.word	.LC1
 167 0138 08000000 		.word	.LC2
 168 013c 0C000000 		.word	.LC3
 169 0140 10000000 		.word	.LC4
 170 0144 14000000 		.word	.LC5
 171              		.cfi_endproc
ARM GAS  /tmp/ccKDLBsl.s 			page 4


 172              	.LFE9:
 173              		.size	mtx1_execute, .-mtx1_execute
 174              		.section	.text.thread1,"ax",%progbits
 175              		.align	2
 176              		.type	thread1, %function
 177              	thread1:
 178              	.LFB8:
 179              		.loc 1 93 0
 180              		.cfi_startproc
 181              		@ args = 0, pretend = 0, frame = 0
 182              		@ frame_needed = 0, uses_anonymous_args = 0
 183              	.LVL13:
 184 0000 10402DE9 		stmfd	sp!, {r4, lr}
 185              		.cfi_def_cfa_offset 8
 186              		.cfi_offset 4, -8
 187              		.cfi_offset 14, -4
 188              		.loc 1 93 0
 189 0004 0040A0E1 		mov	r4, r0
 190              		.loc 1 95 0
 191 0008 14009FE5 		ldr	r0, .L10
 192              	.LVL14:
 193 000c FEFFFFEB 		bl	chMtxLock
 194              	.LVL15:
 195              		.loc 1 96 0
 196 0010 0000D4E5 		ldrb	r0, [r4]	@ zero_extendqisi2
 197 0014 FEFFFFEB 		bl	test_emit_token
 198              	.LVL16:
 199              		.loc 1 97 0
 200 0018 FEFFFFEB 		bl	chMtxUnlock
 201              	.LVL17:
 202              		.loc 1 99 0
 203 001c 0000A0E3 		mov	r0, #0
 204 0020 1080BDE8 		ldmfd	sp!, {r4, pc}
 205              	.L11:
 206              		.align	2
 207              	.L10:
 208 0024 00000000 		.word	.LANCHOR0
 209              		.cfi_endproc
 210              	.LFE8:
 211              		.size	thread1, .-thread1
 212              		.section	.text.thread12,"ax",%progbits
 213              		.align	2
 214              		.type	thread12, %function
 215              	thread12:
 216              	.LFB35:
 217              		.loc 1 591 0
 218              		.cfi_startproc
 219              		@ args = 0, pretend = 0, frame = 0
 220              		@ frame_needed = 0, uses_anonymous_args = 0
 221              	.LVL18:
 222 0000 10402DE9 		stmfd	sp!, {r4, lr}
 223              		.cfi_def_cfa_offset 8
 224              		.cfi_offset 4, -8
 225              		.cfi_offset 14, -4
 226              		.loc 1 591 0
 227 0004 0040A0E1 		mov	r4, r0
 228              		.loc 1 593 0
ARM GAS  /tmp/ccKDLBsl.s 			page 5


 229 0008 14009FE5 		ldr	r0, .L14
 230              	.LVL19:
 231 000c FEFFFFEB 		bl	chMtxLock
 232              	.LVL20:
 233              		.loc 1 594 0
 234 0010 0000D4E5 		ldrb	r0, [r4]	@ zero_extendqisi2
 235 0014 FEFFFFEB 		bl	test_emit_token
 236              	.LVL21:
 237              		.loc 1 595 0
 238 0018 FEFFFFEB 		bl	chMtxUnlock
 239              	.LVL22:
 240              		.loc 1 597 0
 241 001c 0000A0E3 		mov	r0, #0
 242 0020 1080BDE8 		ldmfd	sp!, {r4, pc}
 243              	.L15:
 244              		.align	2
 245              	.L14:
 246 0024 00000000 		.word	.LANCHOR1
 247              		.cfi_endproc
 248              	.LFE35:
 249              		.size	thread12, .-thread12
 250              		.section	.text.mtx1_setup,"ax",%progbits
 251              		.align	2
 252              		.type	mtx1_setup, %function
 253              	mtx1_setup:
 254              	.LFB7:
 255              		.loc 1 88 0
 256              		.cfi_startproc
 257              		@ args = 0, pretend = 0, frame = 0
 258              		@ frame_needed = 0, uses_anonymous_args = 0
 259              		@ link register save eliminated.
 260              		.loc 1 90 0
 261 0000 00009FE5 		ldr	r0, .L17
 262 0004 FEFFFFEA 		b	chMtxInit
 263              	.LVL23:
 264              	.L18:
 265              		.align	2
 266              	.L17:
 267 0008 00000000 		.word	.LANCHOR0
 268              		.cfi_endproc
 269              	.LFE7:
 270              		.size	mtx1_setup, .-mtx1_setup
 271              		.section	.text.mtx2_setup,"ax",%progbits
 272              		.align	2
 273              		.type	mtx2_setup, %function
 274              	mtx2_setup:
 275              	.LFB10:
 276              		.loc 1 155 0
 277              		.cfi_startproc
 278              		@ args = 0, pretend = 0, frame = 0
 279              		@ frame_needed = 0, uses_anonymous_args = 0
 280              		@ link register save eliminated.
 281              		.loc 1 157 0
 282 0000 00009FE5 		ldr	r0, .L20
 283 0004 FEFFFFEA 		b	chMtxInit
 284              	.LVL24:
 285              	.L21:
ARM GAS  /tmp/ccKDLBsl.s 			page 6


 286              		.align	2
 287              	.L20:
 288 0008 00000000 		.word	.LANCHOR0
 289              		.cfi_endproc
 290              	.LFE10:
 291              		.size	mtx2_setup, .-mtx2_setup
 292              		.section	.text.mtx3_setup,"ax",%progbits
 293              		.align	2
 294              		.type	mtx3_setup, %function
 295              	mtx3_setup:
 296              	.LFB15:
 297              		.loc 1 245 0
 298              		.cfi_startproc
 299              		@ args = 0, pretend = 0, frame = 0
 300              		@ frame_needed = 0, uses_anonymous_args = 0
 301 0000 08402DE9 		stmfd	sp!, {r3, lr}
 302              		.cfi_def_cfa_offset 8
 303              		.cfi_offset 3, -8
 304              		.cfi_offset 14, -4
 305              		.loc 1 247 0
 306 0004 0C009FE5 		ldr	r0, .L24
 307 0008 FEFFFFEB 		bl	chMtxInit
 308              	.LVL25:
 309              		.loc 1 249 0
 310 000c 0840BDE8 		ldmfd	sp!, {r3, lr}
 311              		.cfi_restore 14
 312              		.cfi_restore 3
 313              		.cfi_def_cfa_offset 0
 314              		.loc 1 248 0
 315 0010 04009FE5 		ldr	r0, .L24+4
 316 0014 FEFFFFEA 		b	chMtxInit
 317              	.LVL26:
 318              	.L25:
 319              		.align	2
 320              	.L24:
 321 0018 00000000 		.word	.LANCHOR0
 322 001c 00000000 		.word	.LANCHOR1
 323              		.cfi_endproc
 324              	.LFE15:
 325              		.size	mtx3_setup, .-mtx3_setup
 326              		.section	.text.mtx4_setup,"ax",%progbits
 327              		.align	2
 328              		.type	mtx4_setup, %function
 329              	mtx4_setup:
 330              	.LFB22:
 331              		.loc 1 345 0
 332              		.cfi_startproc
 333              		@ args = 0, pretend = 0, frame = 0
 334              		@ frame_needed = 0, uses_anonymous_args = 0
 335 0000 08402DE9 		stmfd	sp!, {r3, lr}
 336              		.cfi_def_cfa_offset 8
 337              		.cfi_offset 3, -8
 338              		.cfi_offset 14, -4
 339              		.loc 1 347 0
 340 0004 0C009FE5 		ldr	r0, .L28
 341 0008 FEFFFFEB 		bl	chMtxInit
 342              	.LVL27:
ARM GAS  /tmp/ccKDLBsl.s 			page 7


 343              		.loc 1 349 0
 344 000c 0840BDE8 		ldmfd	sp!, {r3, lr}
 345              		.cfi_restore 14
 346              		.cfi_restore 3
 347              		.cfi_def_cfa_offset 0
 348              		.loc 1 348 0
 349 0010 04009FE5 		ldr	r0, .L28+4
 350 0014 FEFFFFEA 		b	chMtxInit
 351              	.LVL28:
 352              	.L29:
 353              		.align	2
 354              	.L28:
 355 0018 00000000 		.word	.LANCHOR0
 356 001c 00000000 		.word	.LANCHOR1
 357              		.cfi_endproc
 358              	.LFE22:
 359              		.size	mtx4_setup, .-mtx4_setup
 360              		.section	.text.mtx5_setup,"ax",%progbits
 361              		.align	2
 362              		.type	mtx5_setup, %function
 363              	mtx5_setup:
 364              	.LFB26:
 365              		.loc 1 432 0
 366              		.cfi_startproc
 367              		@ args = 0, pretend = 0, frame = 0
 368              		@ frame_needed = 0, uses_anonymous_args = 0
 369              		@ link register save eliminated.
 370              		.loc 1 434 0
 371 0000 00009FE5 		ldr	r0, .L31
 372 0004 FEFFFFEA 		b	chMtxInit
 373              	.LVL29:
 374              	.L32:
 375              		.align	2
 376              	.L31:
 377 0008 00000000 		.word	.LANCHOR0
 378              		.cfi_endproc
 379              	.LFE26:
 380              		.size	mtx5_setup, .-mtx5_setup
 381              		.section	.text.mtx2_execute,"ax",%progbits
 382              		.align	2
 383              		.type	mtx2_execute, %function
 384              	mtx2_execute:
 385              	.LFB14:
 386              		.loc 1 194 0
 387              		.cfi_startproc
 388              		@ args = 0, pretend = 0, frame = 0
 389              		@ frame_needed = 0, uses_anonymous_args = 0
 390 0000 F0412DE9 		stmfd	sp!, {r4, r5, r6, r7, r8, lr}
 391              		.cfi_def_cfa_offset 24
 392              		.cfi_offset 4, -24
 393              		.cfi_offset 5, -20
 394              		.cfi_offset 6, -16
 395              		.cfi_offset 7, -12
 396              		.cfi_offset 8, -8
 397              		.cfi_offset 14, -4
 398              		.loc 1 199 0
 399 0004 0050A0E3 		mov	r5, #0
ARM GAS  /tmp/ccKDLBsl.s 			page 8


 400 0008 C0709FE5 		ldr	r7, .L37
 401              		.loc 1 194 0
 402 000c 08D04DE2 		sub	sp, sp, #8
 403              		.cfi_def_cfa_offset 32
 404              		.loc 1 197 0
 405 0010 FEFFFFEB 		bl	test_wait_tick
 406              	.LVL30:
 407              		.loc 1 199 0
 408 0014 183097E5 		ldr	r3, [r7, #24]
 409 0018 B4609FE5 		ldr	r6, .L37+4
 410 001c 082093E5 		ldr	r2, [r3, #8]
 411              		.loc 1 198 0
 412 0020 B0C09FE5 		ldr	ip, .L37+8
 413              		.loc 1 199 0
 414 0024 012042E2 		sub	r2, r2, #1
 415 0028 461FA0E3 		mov	r1, #280
 416 002c A8309FE5 		ldr	r3, .L37+12
 417 0030 000096E5 		ldr	r0, [r6]
 418 0034 00508DE5 		str	r5, [sp]
 419              		.loc 1 198 0
 420 0038 0C809CE5 		ldr	r8, [ip, #12]
 421              	.LVL31:
 422              		.loc 1 199 0
 423 003c FEFFFFEB 		bl	chThdCreateStatic
 424              	.LVL32:
 425              		.loc 1 200 0
 426 0040 183097E5 		ldr	r3, [r7, #24]
 427              		.loc 1 199 0
 428 0044 94409FE5 		ldr	r4, .L37+16
 429              		.loc 1 200 0
 430 0048 082093E5 		ldr	r2, [r3, #8]
 431 004c 043096E5 		ldr	r3, [r6, #4]
 432              		.loc 1 199 0
 433 0050 000084E5 		str	r0, [r4]
 434              		.loc 1 200 0
 435 0054 022042E2 		sub	r2, r2, #2
 436 0058 0300A0E1 		mov	r0, r3
 437 005c 461FA0E3 		mov	r1, #280
 438 0060 7C309FE5 		ldr	r3, .L37+20
 439 0064 00508DE5 		str	r5, [sp]
 440 0068 FEFFFFEB 		bl	chThdCreateStatic
 441              	.LVL33:
 442              		.loc 1 201 0
 443 006c 182097E5 		ldr	r2, [r7, #24]
 444 0070 083096E5 		ldr	r3, [r6, #8]
 445 0074 082092E5 		ldr	r2, [r2, #8]
 446 0078 461FA0E3 		mov	r1, #280
 447 007c 032042E2 		sub	r2, r2, #3
 448              		.loc 1 200 0
 449 0080 040084E5 		str	r0, [r4, #4]
 450              		.loc 1 201 0
 451 0084 00508DE5 		str	r5, [sp]
 452 0088 0300A0E1 		mov	r0, r3
 453 008c 54309FE5 		ldr	r3, .L37+24
 454 0090 FEFFFFEB 		bl	chThdCreateStatic
 455              	.LVL34:
 456 0094 080084E5 		str	r0, [r4, #8]
ARM GAS  /tmp/ccKDLBsl.s 			page 9


 457              		.loc 1 202 0
 458 0098 FEFFFFEB 		bl	test_wait_threads
 459              	.LVL35:
 460              		.loc 1 203 0
 461 009c 0100A0E3 		mov	r0, #1
 462 00a0 44109FE5 		ldr	r1, .L37+28
 463 00a4 FEFFFFEB 		bl	_test_assert_sequence
 464              	.LVL36:
 465 00a8 050050E1 		cmp	r0, r5
 466 00ac 0100000A 		beq	.L36
 467              		.loc 1 205 0
 468 00b0 08D08DE2 		add	sp, sp, #8
 469              		.cfi_remember_state
 470              		.cfi_def_cfa_offset 24
 471              		@ sp needed
 472 00b4 F081BDE8 		ldmfd	sp!, {r4, r5, r6, r7, r8, pc}
 473              	.LVL37:
 474              	.L36:
 475              		.cfi_restore_state
 476              		.loc 1 204 0
 477 00b8 0200A0E3 		mov	r0, #2
 478 00bc 641088E2 		add	r1, r8, #100
 479 00c0 692088E2 		add	r2, r8, #105
 480              		.loc 1 205 0
 481 00c4 08D08DE2 		add	sp, sp, #8
 482              		.cfi_def_cfa_offset 24
 483              		@ sp needed
 484 00c8 F041BDE8 		ldmfd	sp!, {r4, r5, r6, r7, r8, lr}
 485              		.cfi_restore 14
 486              		.cfi_restore 8
 487              		.cfi_restore 7
 488              		.cfi_restore 6
 489              		.cfi_restore 5
 490              		.cfi_restore 4
 491              		.cfi_def_cfa_offset 0
 492              	.LVL38:
 493              		.loc 1 204 0
 494 00cc FEFFFFEA 		b	_test_assert_time_window
 495              	.LVL39:
 496              	.L38:
 497              		.align	2
 498              	.L37:
 499 00d0 00000000 		.word	rlist
 500 00d4 00000000 		.word	wa
 501 00d8 00000000 		.word	vtlist
 502 00dc 00000000 		.word	thread2H
 503 00e0 00000000 		.word	threads
 504 00e4 00000000 		.word	thread2M
 505 00e8 00000000 		.word	thread2L
 506 00ec 1C000000 		.word	.LC6
 507              		.cfi_endproc
 508              	.LFE14:
 509              		.size	mtx2_execute, .-mtx2_execute
 510              		.section	.text.mtx3_execute,"ax",%progbits
 511              		.align	2
 512              		.type	mtx3_execute, %function
 513              	mtx3_execute:
ARM GAS  /tmp/ccKDLBsl.s 			page 10


 514              	.LFB21:
 515              		.loc 1 312 0
 516              		.cfi_startproc
 517              		@ args = 0, pretend = 0, frame = 0
 518              		@ frame_needed = 0, uses_anonymous_args = 0
 519 0000 F0412DE9 		stmfd	sp!, {r4, r5, r6, r7, r8, lr}
 520              		.cfi_def_cfa_offset 24
 521              		.cfi_offset 4, -24
 522              		.cfi_offset 5, -20
 523              		.cfi_offset 6, -16
 524              		.cfi_offset 7, -12
 525              		.cfi_offset 8, -8
 526              		.cfi_offset 14, -4
 527              		.loc 1 317 0
 528 0004 0050A0E3 		mov	r5, #0
 529 0008 10719FE5 		ldr	r7, .L43
 530              		.loc 1 312 0
 531 000c 08D04DE2 		sub	sp, sp, #8
 532              		.cfi_def_cfa_offset 32
 533              		.loc 1 315 0
 534 0010 FEFFFFEB 		bl	test_wait_tick
 535              	.LVL40:
 536              		.loc 1 317 0
 537 0014 183097E5 		ldr	r3, [r7, #24]
 538 0018 04619FE5 		ldr	r6, .L43+4
 539 001c 082093E5 		ldr	r2, [r3, #8]
 540              		.loc 1 316 0
 541 0020 00C19FE5 		ldr	ip, .L43+8
 542              		.loc 1 317 0
 543 0024 052042E2 		sub	r2, r2, #5
 544 0028 461FA0E3 		mov	r1, #280
 545 002c F8309FE5 		ldr	r3, .L43+12
 546 0030 000096E5 		ldr	r0, [r6]
 547 0034 00508DE5 		str	r5, [sp]
 548              		.loc 1 316 0
 549 0038 0C809CE5 		ldr	r8, [ip, #12]
 550              	.LVL41:
 551              		.loc 1 317 0
 552 003c FEFFFFEB 		bl	chThdCreateStatic
 553              	.LVL42:
 554              		.loc 1 318 0
 555 0040 183097E5 		ldr	r3, [r7, #24]
 556              		.loc 1 317 0
 557 0044 E4409FE5 		ldr	r4, .L43+16
 558              		.loc 1 318 0
 559 0048 082093E5 		ldr	r2, [r3, #8]
 560 004c 043096E5 		ldr	r3, [r6, #4]
 561              		.loc 1 317 0
 562 0050 000084E5 		str	r0, [r4]
 563              		.loc 1 318 0
 564 0054 042042E2 		sub	r2, r2, #4
 565 0058 0300A0E1 		mov	r0, r3
 566 005c 461FA0E3 		mov	r1, #280
 567 0060 CC309FE5 		ldr	r3, .L43+20
 568 0064 00508DE5 		str	r5, [sp]
 569 0068 FEFFFFEB 		bl	chThdCreateStatic
 570              	.LVL43:
ARM GAS  /tmp/ccKDLBsl.s 			page 11


 571              		.loc 1 319 0
 572 006c 182097E5 		ldr	r2, [r7, #24]
 573 0070 083096E5 		ldr	r3, [r6, #8]
 574 0074 082092E5 		ldr	r2, [r2, #8]
 575 0078 461FA0E3 		mov	r1, #280
 576              		.loc 1 318 0
 577 007c 040084E5 		str	r0, [r4, #4]
 578              		.loc 1 319 0
 579 0080 032042E2 		sub	r2, r2, #3
 580 0084 0300A0E1 		mov	r0, r3
 581 0088 00508DE5 		str	r5, [sp]
 582 008c A4309FE5 		ldr	r3, .L43+24
 583 0090 FEFFFFEB 		bl	chThdCreateStatic
 584              	.LVL44:
 585              		.loc 1 320 0
 586 0094 182097E5 		ldr	r2, [r7, #24]
 587 0098 0C3096E5 		ldr	r3, [r6, #12]
 588 009c 082092E5 		ldr	r2, [r2, #8]
 589 00a0 461FA0E3 		mov	r1, #280
 590              		.loc 1 319 0
 591 00a4 080084E5 		str	r0, [r4, #8]
 592              		.loc 1 320 0
 593 00a8 022042E2 		sub	r2, r2, #2
 594 00ac 0300A0E1 		mov	r0, r3
 595 00b0 00508DE5 		str	r5, [sp]
 596 00b4 80309FE5 		ldr	r3, .L43+28
 597 00b8 FEFFFFEB 		bl	chThdCreateStatic
 598              	.LVL45:
 599              		.loc 1 321 0
 600 00bc 182097E5 		ldr	r2, [r7, #24]
 601 00c0 103096E5 		ldr	r3, [r6, #16]
 602 00c4 082092E5 		ldr	r2, [r2, #8]
 603 00c8 461FA0E3 		mov	r1, #280
 604 00cc 012042E2 		sub	r2, r2, #1
 605              		.loc 1 320 0
 606 00d0 0C0084E5 		str	r0, [r4, #12]
 607              		.loc 1 321 0
 608 00d4 00508DE5 		str	r5, [sp]
 609 00d8 0300A0E1 		mov	r0, r3
 610 00dc 5C309FE5 		ldr	r3, .L43+32
 611 00e0 FEFFFFEB 		bl	chThdCreateStatic
 612              	.LVL46:
 613 00e4 100084E5 		str	r0, [r4, #16]
 614              		.loc 1 322 0
 615 00e8 FEFFFFEB 		bl	test_wait_threads
 616              	.LVL47:
 617              		.loc 1 323 0
 618 00ec 0100A0E3 		mov	r0, #1
 619 00f0 4C109FE5 		ldr	r1, .L43+36
 620 00f4 FEFFFFEB 		bl	_test_assert_sequence
 621              	.LVL48:
 622 00f8 050050E1 		cmp	r0, r5
 623 00fc 0100000A 		beq	.L42
 624              		.loc 1 325 0
 625 0100 08D08DE2 		add	sp, sp, #8
 626              		.cfi_remember_state
 627              		.cfi_def_cfa_offset 24
ARM GAS  /tmp/ccKDLBsl.s 			page 12


 628              		@ sp needed
 629 0104 F081BDE8 		ldmfd	sp!, {r4, r5, r6, r7, r8, pc}
 630              	.LVL49:
 631              	.L42:
 632              		.cfi_restore_state
 633              		.loc 1 324 0
 634 0108 0200A0E3 		mov	r0, #2
 635 010c 6E1088E2 		add	r1, r8, #110
 636 0110 732088E2 		add	r2, r8, #115
 637              		.loc 1 325 0
 638 0114 08D08DE2 		add	sp, sp, #8
 639              		.cfi_def_cfa_offset 24
 640              		@ sp needed
 641 0118 F041BDE8 		ldmfd	sp!, {r4, r5, r6, r7, r8, lr}
 642              		.cfi_restore 14
 643              		.cfi_restore 8
 644              		.cfi_restore 7
 645              		.cfi_restore 6
 646              		.cfi_restore 5
 647              		.cfi_restore 4
 648              		.cfi_def_cfa_offset 0
 649              	.LVL50:
 650              		.loc 1 324 0
 651 011c FEFFFFEA 		b	_test_assert_time_window
 652              	.LVL51:
 653              	.L44:
 654              		.align	2
 655              	.L43:
 656 0120 00000000 		.word	rlist
 657 0124 00000000 		.word	wa
 658 0128 00000000 		.word	vtlist
 659 012c 00000000 		.word	thread3LL
 660 0130 00000000 		.word	threads
 661 0134 00000000 		.word	thread3L
 662 0138 00000000 		.word	thread3M
 663 013c 00000000 		.word	thread3H
 664 0140 00000000 		.word	thread3HH
 665 0144 14000000 		.word	.LC5
 666              		.cfi_endproc
 667              	.LFE21:
 668              		.size	mtx3_execute, .-mtx3_execute
 669              		.section	.text.thread2L,"ax",%progbits
 670              		.align	2
 671              		.type	thread2L, %function
 672              	thread2L:
 673              	.LFB11:
 674              		.loc 1 161 0
 675              		.cfi_startproc
 676              		@ args = 0, pretend = 0, frame = 0
 677              		@ frame_needed = 0, uses_anonymous_args = 0
 678              	.LVL52:
 679 0000 08402DE9 		stmfd	sp!, {r3, lr}
 680              		.cfi_def_cfa_offset 8
 681              		.cfi_offset 3, -8
 682              		.cfi_offset 14, -4
 683              		.loc 1 164 0
 684 0004 24009FE5 		ldr	r0, .L47
ARM GAS  /tmp/ccKDLBsl.s 			page 13


 685              	.LVL53:
 686 0008 FEFFFFEB 		bl	chMtxLock
 687              	.LVL54:
 688              		.loc 1 165 0
 689 000c 2800A0E3 		mov	r0, #40
 690 0010 FEFFFFEB 		bl	test_cpu_pulse
 691              	.LVL55:
 692              		.loc 1 166 0
 693 0014 FEFFFFEB 		bl	chMtxUnlock
 694              	.LVL56:
 695              		.loc 1 167 0
 696 0018 0A00A0E3 		mov	r0, #10
 697 001c FEFFFFEB 		bl	test_cpu_pulse
 698              	.LVL57:
 699              		.loc 1 168 0
 700 0020 4300A0E3 		mov	r0, #67
 701 0024 FEFFFFEB 		bl	test_emit_token
 702              	.LVL58:
 703              		.loc 1 170 0
 704 0028 0000A0E3 		mov	r0, #0
 705 002c 0880BDE8 		ldmfd	sp!, {r3, pc}
 706              	.L48:
 707              		.align	2
 708              	.L47:
 709 0030 00000000 		.word	.LANCHOR0
 710              		.cfi_endproc
 711              	.LFE11:
 712              		.size	thread2L, .-thread2L
 713              		.section	.text.thread3LL,"ax",%progbits
 714              		.align	2
 715              		.type	thread3LL, %function
 716              	thread3LL:
 717              	.LFB16:
 718              		.loc 1 252 0
 719              		.cfi_startproc
 720              		@ args = 0, pretend = 0, frame = 0
 721              		@ frame_needed = 0, uses_anonymous_args = 0
 722              	.LVL59:
 723 0000 08402DE9 		stmfd	sp!, {r3, lr}
 724              		.cfi_def_cfa_offset 8
 725              		.cfi_offset 3, -8
 726              		.cfi_offset 14, -4
 727              		.loc 1 255 0
 728 0004 1C009FE5 		ldr	r0, .L51
 729              	.LVL60:
 730 0008 FEFFFFEB 		bl	chMtxLock
 731              	.LVL61:
 732              		.loc 1 256 0
 733 000c 1E00A0E3 		mov	r0, #30
 734 0010 FEFFFFEB 		bl	test_cpu_pulse
 735              	.LVL62:
 736              		.loc 1 257 0
 737 0014 FEFFFFEB 		bl	chMtxUnlock
 738              	.LVL63:
 739              		.loc 1 258 0
 740 0018 4500A0E3 		mov	r0, #69
 741 001c FEFFFFEB 		bl	test_emit_token
ARM GAS  /tmp/ccKDLBsl.s 			page 14


 742              	.LVL64:
 743              		.loc 1 260 0
 744 0020 0000A0E3 		mov	r0, #0
 745 0024 0880BDE8 		ldmfd	sp!, {r3, pc}
 746              	.L52:
 747              		.align	2
 748              	.L51:
 749 0028 00000000 		.word	.LANCHOR0
 750              		.cfi_endproc
 751              	.LFE16:
 752              		.size	thread3LL, .-thread3LL
 753              		.section	.text.thread2M,"ax",%progbits
 754              		.align	2
 755              		.type	thread2M, %function
 756              	thread2M:
 757              	.LFB12:
 758              		.loc 1 173 0
 759              		.cfi_startproc
 760              		@ args = 0, pretend = 0, frame = 0
 761              		@ frame_needed = 0, uses_anonymous_args = 0
 762              	.LVL65:
 763 0000 08402DE9 		stmfd	sp!, {r3, lr}
 764              		.cfi_def_cfa_offset 8
 765              		.cfi_offset 3, -8
 766              		.cfi_offset 14, -4
 767              		.loc 1 176 0
 768 0004 1400A0E3 		mov	r0, #20
 769              	.LVL66:
 770 0008 FEFFFFEB 		bl	chThdSleep
 771              	.LVL67:
 772              		.loc 1 177 0
 773 000c 2800A0E3 		mov	r0, #40
 774 0010 FEFFFFEB 		bl	test_cpu_pulse
 775              	.LVL68:
 776              		.loc 1 178 0
 777 0014 4200A0E3 		mov	r0, #66
 778 0018 FEFFFFEB 		bl	test_emit_token
 779              	.LVL69:
 780              		.loc 1 180 0
 781 001c 0000A0E3 		mov	r0, #0
 782 0020 0880BDE8 		ldmfd	sp!, {r3, pc}
 783              		.cfi_endproc
 784              	.LFE12:
 785              		.size	thread2M, .-thread2M
 786              		.section	.text.thread2H,"ax",%progbits
 787              		.align	2
 788              		.type	thread2H, %function
 789              	thread2H:
 790              	.LFB13:
 791              		.loc 1 183 0
 792              		.cfi_startproc
 793              		@ args = 0, pretend = 0, frame = 0
 794              		@ frame_needed = 0, uses_anonymous_args = 0
 795              	.LVL70:
 796 0000 08402DE9 		stmfd	sp!, {r3, lr}
 797              		.cfi_def_cfa_offset 8
 798              		.cfi_offset 3, -8
ARM GAS  /tmp/ccKDLBsl.s 			page 15


 799              		.cfi_offset 14, -4
 800              		.loc 1 186 0
 801 0004 2800A0E3 		mov	r0, #40
 802              	.LVL71:
 803 0008 FEFFFFEB 		bl	chThdSleep
 804              	.LVL72:
 805              		.loc 1 187 0
 806 000c 1C009FE5 		ldr	r0, .L57
 807 0010 FEFFFFEB 		bl	chMtxLock
 808              	.LVL73:
 809              		.loc 1 188 0
 810 0014 0A00A0E3 		mov	r0, #10
 811 0018 FEFFFFEB 		bl	test_cpu_pulse
 812              	.LVL74:
 813              		.loc 1 189 0
 814 001c FEFFFFEB 		bl	chMtxUnlock
 815              	.LVL75:
 816              		.loc 1 190 0
 817 0020 4100A0E3 		mov	r0, #65
 818 0024 FEFFFFEB 		bl	test_emit_token
 819              	.LVL76:
 820              		.loc 1 192 0
 821 0028 0000A0E3 		mov	r0, #0
 822 002c 0880BDE8 		ldmfd	sp!, {r3, pc}
 823              	.L58:
 824              		.align	2
 825              	.L57:
 826 0030 00000000 		.word	.LANCHOR0
 827              		.cfi_endproc
 828              	.LFE13:
 829              		.size	thread2H, .-thread2H
 830              		.section	.text.thread3HH,"ax",%progbits
 831              		.align	2
 832              		.type	thread3HH, %function
 833              	thread3HH:
 834              	.LFB20:
 835              		.loc 1 301 0
 836              		.cfi_startproc
 837              		@ args = 0, pretend = 0, frame = 0
 838              		@ frame_needed = 0, uses_anonymous_args = 0
 839              	.LVL77:
 840 0000 08402DE9 		stmfd	sp!, {r3, lr}
 841              		.cfi_def_cfa_offset 8
 842              		.cfi_offset 3, -8
 843              		.cfi_offset 14, -4
 844              		.loc 1 304 0
 845 0004 3200A0E3 		mov	r0, #50
 846              	.LVL78:
 847 0008 FEFFFFEB 		bl	chThdSleep
 848              	.LVL79:
 849              		.loc 1 305 0
 850 000c 1C009FE5 		ldr	r0, .L61
 851 0010 FEFFFFEB 		bl	chMtxLock
 852              	.LVL80:
 853              		.loc 1 306 0
 854 0014 0A00A0E3 		mov	r0, #10
 855 0018 FEFFFFEB 		bl	test_cpu_pulse
ARM GAS  /tmp/ccKDLBsl.s 			page 16


 856              	.LVL81:
 857              		.loc 1 307 0
 858 001c FEFFFFEB 		bl	chMtxUnlock
 859              	.LVL82:
 860              		.loc 1 308 0
 861 0020 4100A0E3 		mov	r0, #65
 862 0024 FEFFFFEB 		bl	test_emit_token
 863              	.LVL83:
 864              		.loc 1 310 0
 865 0028 0000A0E3 		mov	r0, #0
 866 002c 0880BDE8 		ldmfd	sp!, {r3, pc}
 867              	.L62:
 868              		.align	2
 869              	.L61:
 870 0030 00000000 		.word	.LANCHOR1
 871              		.cfi_endproc
 872              	.LFE20:
 873              		.size	thread3HH, .-thread3HH
 874              		.section	.text.thread3H,"ax",%progbits
 875              		.align	2
 876              		.type	thread3H, %function
 877              	thread3H:
 878              	.LFB19:
 879              		.loc 1 291 0
 880              		.cfi_startproc
 881              		@ args = 0, pretend = 0, frame = 0
 882              		@ frame_needed = 0, uses_anonymous_args = 0
 883              	.LVL84:
 884 0000 08402DE9 		stmfd	sp!, {r3, lr}
 885              		.cfi_def_cfa_offset 8
 886              		.cfi_offset 3, -8
 887              		.cfi_offset 14, -4
 888              		.loc 1 294 0
 889 0004 2800A0E3 		mov	r0, #40
 890              	.LVL85:
 891 0008 FEFFFFEB 		bl	chThdSleep
 892              	.LVL86:
 893              		.loc 1 295 0
 894 000c 1400A0E3 		mov	r0, #20
 895 0010 FEFFFFEB 		bl	test_cpu_pulse
 896              	.LVL87:
 897              		.loc 1 296 0
 898 0014 4200A0E3 		mov	r0, #66
 899 0018 FEFFFFEB 		bl	test_emit_token
 900              	.LVL88:
 901              		.loc 1 298 0
 902 001c 0000A0E3 		mov	r0, #0
 903 0020 0880BDE8 		ldmfd	sp!, {r3, pc}
 904              		.cfi_endproc
 905              	.LFE19:
 906              		.size	thread3H, .-thread3H
 907              		.section	.text.thread3M,"ax",%progbits
 908              		.align	2
 909              		.type	thread3M, %function
 910              	thread3M:
 911              	.LFB18:
 912              		.loc 1 279 0
ARM GAS  /tmp/ccKDLBsl.s 			page 17


 913              		.cfi_startproc
 914              		@ args = 0, pretend = 0, frame = 0
 915              		@ frame_needed = 0, uses_anonymous_args = 0
 916              	.LVL89:
 917 0000 08402DE9 		stmfd	sp!, {r3, lr}
 918              		.cfi_def_cfa_offset 8
 919              		.cfi_offset 3, -8
 920              		.cfi_offset 14, -4
 921              		.loc 1 282 0
 922 0004 1400A0E3 		mov	r0, #20
 923              	.LVL90:
 924 0008 FEFFFFEB 		bl	chThdSleep
 925              	.LVL91:
 926              		.loc 1 283 0
 927 000c 1C009FE5 		ldr	r0, .L67
 928 0010 FEFFFFEB 		bl	chMtxLock
 929              	.LVL92:
 930              		.loc 1 284 0
 931 0014 0A00A0E3 		mov	r0, #10
 932 0018 FEFFFFEB 		bl	test_cpu_pulse
 933              	.LVL93:
 934              		.loc 1 285 0
 935 001c FEFFFFEB 		bl	chMtxUnlock
 936              	.LVL94:
 937              		.loc 1 286 0
 938 0020 4300A0E3 		mov	r0, #67
 939 0024 FEFFFFEB 		bl	test_emit_token
 940              	.LVL95:
 941              		.loc 1 288 0
 942 0028 0000A0E3 		mov	r0, #0
 943 002c 0880BDE8 		ldmfd	sp!, {r3, pc}
 944              	.L68:
 945              		.align	2
 946              	.L67:
 947 0030 00000000 		.word	.LANCHOR1
 948              		.cfi_endproc
 949              	.LFE18:
 950              		.size	thread3M, .-thread3M
 951              		.section	.text.thread3L,"ax",%progbits
 952              		.align	2
 953              		.type	thread3L, %function
 954              	thread3L:
 955              	.LFB17:
 956              		.loc 1 263 0
 957              		.cfi_startproc
 958              		@ args = 0, pretend = 0, frame = 0
 959              		@ frame_needed = 0, uses_anonymous_args = 0
 960              	.LVL96:
 961 0000 08402DE9 		stmfd	sp!, {r3, lr}
 962              		.cfi_def_cfa_offset 8
 963              		.cfi_offset 3, -8
 964              		.cfi_offset 14, -4
 965              		.loc 1 266 0
 966 0004 0A00A0E3 		mov	r0, #10
 967              	.LVL97:
 968 0008 FEFFFFEB 		bl	chThdSleep
 969              	.LVL98:
ARM GAS  /tmp/ccKDLBsl.s 			page 18


 970              		.loc 1 267 0
 971 000c 38009FE5 		ldr	r0, .L71
 972 0010 FEFFFFEB 		bl	chMtxLock
 973              	.LVL99:
 974              		.loc 1 268 0
 975 0014 1400A0E3 		mov	r0, #20
 976 0018 FEFFFFEB 		bl	test_cpu_pulse
 977              	.LVL100:
 978              		.loc 1 269 0
 979 001c 2C009FE5 		ldr	r0, .L71+4
 980 0020 FEFFFFEB 		bl	chMtxLock
 981              	.LVL101:
 982              		.loc 1 270 0
 983 0024 0A00A0E3 		mov	r0, #10
 984 0028 FEFFFFEB 		bl	test_cpu_pulse
 985              	.LVL102:
 986              		.loc 1 271 0
 987 002c FEFFFFEB 		bl	chMtxUnlock
 988              	.LVL103:
 989              		.loc 1 272 0
 990 0030 0A00A0E3 		mov	r0, #10
 991 0034 FEFFFFEB 		bl	test_cpu_pulse
 992              	.LVL104:
 993              		.loc 1 273 0
 994 0038 FEFFFFEB 		bl	chMtxUnlock
 995              	.LVL105:
 996              		.loc 1 274 0
 997 003c 4400A0E3 		mov	r0, #68
 998 0040 FEFFFFEB 		bl	test_emit_token
 999              	.LVL106:
 1000              		.loc 1 276 0
 1001 0044 0000A0E3 		mov	r0, #0
 1002 0048 0880BDE8 		ldmfd	sp!, {r3, pc}
 1003              	.L72:
 1004              		.align	2
 1005              	.L71:
 1006 004c 00000000 		.word	.LANCHOR1
 1007 0050 00000000 		.word	.LANCHOR0
 1008              		.cfi_endproc
 1009              	.LFE17:
 1010              		.size	thread3L, .-thread3L
 1011              		.section	.text.thread4b,"ax",%progbits
 1012              		.align	2
 1013              		.type	thread4b, %function
 1014              	thread4b:
 1015              	.LFB24:
 1016              		.loc 1 360 0
 1017              		.cfi_startproc
 1018              		@ args = 0, pretend = 0, frame = 0
 1019              		@ frame_needed = 0, uses_anonymous_args = 0
 1020              	.LVL107:
 1021 0000 08402DE9 		stmfd	sp!, {r3, lr}
 1022              		.cfi_def_cfa_offset 8
 1023              		.cfi_offset 3, -8
 1024              		.cfi_offset 14, -4
 1025              		.loc 1 363 0
 1026 0004 9600A0E3 		mov	r0, #150
ARM GAS  /tmp/ccKDLBsl.s 			page 19


 1027              	.LVL108:
 1028 0008 FEFFFFEB 		bl	chThdSleep
 1029              	.LVL109:
 1030              		.loc 1 364 0
 1031 000c 0C009FE5 		ldr	r0, .L75
 1032 0010 FEFFFFEB 		bl	chMtxLock
 1033              	.LVL110:
 1034              		.loc 1 365 0
 1035 0014 FEFFFFEB 		bl	chMtxUnlock
 1036              	.LVL111:
 1037              		.loc 1 367 0
 1038 0018 0000A0E3 		mov	r0, #0
 1039 001c 0880BDE8 		ldmfd	sp!, {r3, pc}
 1040              	.L76:
 1041              		.align	2
 1042              	.L75:
 1043 0020 00000000 		.word	.LANCHOR0
 1044              		.cfi_endproc
 1045              	.LFE24:
 1046              		.size	thread4b, .-thread4b
 1047              		.section	.text.thread4a,"ax",%progbits
 1048              		.align	2
 1049              		.type	thread4a, %function
 1050              	thread4a:
 1051              	.LFB23:
 1052              		.loc 1 351 0
 1053              		.cfi_startproc
 1054              		@ args = 0, pretend = 0, frame = 0
 1055              		@ frame_needed = 0, uses_anonymous_args = 0
 1056              	.LVL112:
 1057 0000 08402DE9 		stmfd	sp!, {r3, lr}
 1058              		.cfi_def_cfa_offset 8
 1059              		.cfi_offset 3, -8
 1060              		.cfi_offset 14, -4
 1061              		.loc 1 354 0
 1062 0004 3200A0E3 		mov	r0, #50
 1063              	.LVL113:
 1064 0008 FEFFFFEB 		bl	chThdSleep
 1065              	.LVL114:
 1066              		.loc 1 355 0
 1067 000c 0C009FE5 		ldr	r0, .L79
 1068 0010 FEFFFFEB 		bl	chMtxLock
 1069              	.LVL115:
 1070              		.loc 1 356 0
 1071 0014 FEFFFFEB 		bl	chMtxUnlock
 1072              	.LVL116:
 1073              		.loc 1 358 0
 1074 0018 0000A0E3 		mov	r0, #0
 1075 001c 0880BDE8 		ldmfd	sp!, {r3, pc}
 1076              	.L80:
 1077              		.align	2
 1078              	.L79:
 1079 0020 00000000 		.word	.LANCHOR1
 1080              		.cfi_endproc
 1081              	.LFE23:
 1082              		.size	thread4a, .-thread4a
 1083              		.section	.text.mtx4_execute,"ax",%progbits
ARM GAS  /tmp/ccKDLBsl.s 			page 20


 1084              		.align	2
 1085              		.type	mtx4_execute, %function
 1086              	mtx4_execute:
 1087              	.LFB25:
 1088              		.loc 1 369 0
 1089              		.cfi_startproc
 1090              		@ args = 0, pretend = 0, frame = 0
 1091              		@ frame_needed = 0, uses_anonymous_args = 0
 1092 0000 F0472DE9 		stmfd	sp!, {r4, r5, r6, r7, r8, r9, r10, lr}
 1093              		.cfi_def_cfa_offset 32
 1094              		.cfi_offset 4, -32
 1095              		.cfi_offset 5, -28
 1096              		.cfi_offset 6, -24
 1097              		.cfi_offset 7, -20
 1098              		.cfi_offset 8, -16
 1099              		.cfi_offset 9, -12
 1100              		.cfi_offset 10, -8
 1101              		.cfi_offset 14, -4
 1102              		.loc 1 372 0
 1103 0004 18539FE5 		ldr	r5, .L87
 1104              		.loc 1 375 0
 1105 0008 18739FE5 		ldr	r7, .L87+4
 1106              		.loc 1 372 0
 1107 000c 183095E5 		ldr	r3, [r5, #24]
 1108              		.loc 1 375 0
 1109 0010 00A097E5 		ldr	r10, [r7]
 1110              		.loc 1 372 0
 1111 0014 084093E5 		ldr	r4, [r3, #8]
 1112              	.LVL117:
 1113              		.loc 1 375 0
 1114 0018 0C339FE5 		ldr	r3, .L87+8
 1115              		.loc 1 369 0
 1116 001c 08D04DE2 		sub	sp, sp, #8
 1117              		.cfi_def_cfa_offset 40
 1118              		.loc 1 373 0
 1119 0020 018084E2 		add	r8, r4, #1
 1120              	.LVL118:
 1121              		.loc 1 375 0
 1122 0024 0820A0E1 		mov	r2, r8
 1123 0028 00308DE5 		str	r3, [sp]
 1124 002c 461FA0E3 		mov	r1, #280
 1125 0030 F8329FE5 		ldr	r3, .L87+12
 1126 0034 0A00A0E1 		mov	r0, r10
 1127 0038 FEFFFFEB 		bl	chThdCreateStatic
 1128              	.LVL119:
 1129 003c F0629FE5 		ldr	r6, .L87+16
 1130              		.loc 1 376 0
 1131 0040 049097E5 		ldr	r9, [r7, #4]
 1132 0044 EC329FE5 		ldr	r3, .L87+20
 1133              		.loc 1 374 0
 1134 0048 027084E2 		add	r7, r4, #2
 1135              	.LVL120:
 1136              		.loc 1 376 0
 1137 004c 0720A0E1 		mov	r2, r7
 1138 0050 461FA0E3 		mov	r1, #280
 1139              		.loc 1 375 0
 1140 0054 000086E5 		str	r0, [r6]
ARM GAS  /tmp/ccKDLBsl.s 			page 21


 1141              		.loc 1 376 0
 1142 0058 00308DE5 		str	r3, [sp]
 1143 005c 0900A0E1 		mov	r0, r9
 1144 0060 D4329FE5 		ldr	r3, .L87+24
 1145 0064 FEFFFFEB 		bl	chThdCreateStatic
 1146              	.LVL121:
 1147 0068 040086E5 		str	r0, [r6, #4]
 1148              		.loc 1 377 0
 1149 006c CC029FE5 		ldr	r0, .L87+28
 1150 0070 FEFFFFEB 		bl	chMtxLock
 1151              	.LVL122:
 1152              		.loc 1 378 0
 1153 0074 183095E5 		ldr	r3, [r5, #24]
 1154 0078 0100A0E3 		mov	r0, #1
 1155 007c 081093E5 		ldr	r1, [r3, #8]
 1156 0080 011064E0 		rsb	r1, r4, r1
 1157 0084 111F6FE1 		clz	r1, r1
 1158 0088 A112A0E1 		mov	r1, r1, lsr #5
 1159 008c FEFFFFEB 		bl	_test_assert
 1160              	.LVL123:
 1161 0090 000050E3 		cmp	r0, #0
 1162 0094 0100000A 		beq	.L86
 1163              	.L81:
 1164              		.loc 1 413 0
 1165 0098 08D08DE2 		add	sp, sp, #8
 1166              		.cfi_remember_state
 1167              		.cfi_def_cfa_offset 32
 1168              		@ sp needed
 1169 009c F087BDE8 		ldmfd	sp!, {r4, r5, r6, r7, r8, r9, r10, pc}
 1170              	.LVL124:
 1171              	.L86:
 1172              		.cfi_restore_state
 1173              		.loc 1 379 0
 1174 00a0 6400A0E3 		mov	r0, #100
 1175 00a4 FEFFFFEB 		bl	chThdSleep
 1176              	.LVL125:
 1177              		.loc 1 380 0
 1178 00a8 183095E5 		ldr	r3, [r5, #24]
 1179 00ac 0200A0E3 		mov	r0, #2
 1180 00b0 081093E5 		ldr	r1, [r3, #8]
 1181 00b4 011068E0 		rsb	r1, r8, r1
 1182 00b8 111F6FE1 		clz	r1, r1
 1183 00bc A112A0E1 		mov	r1, r1, lsr #5
 1184 00c0 FEFFFFEB 		bl	_test_assert
 1185              	.LVL126:
 1186 00c4 000050E3 		cmp	r0, #0
 1187 00c8 F2FFFF1A 		bne	.L81
 1188              		.loc 1 381 0
 1189 00cc 70029FE5 		ldr	r0, .L87+32
 1190 00d0 FEFFFFEB 		bl	chMtxLock
 1191              	.LVL127:
 1192              		.loc 1 382 0
 1193 00d4 183095E5 		ldr	r3, [r5, #24]
 1194 00d8 0300A0E3 		mov	r0, #3
 1195 00dc 081093E5 		ldr	r1, [r3, #8]
 1196 00e0 011068E0 		rsb	r1, r8, r1
 1197 00e4 111F6FE1 		clz	r1, r1
ARM GAS  /tmp/ccKDLBsl.s 			page 22


 1198 00e8 A112A0E1 		mov	r1, r1, lsr #5
 1199 00ec FEFFFFEB 		bl	_test_assert
 1200              	.LVL128:
 1201 00f0 000050E3 		cmp	r0, #0
 1202 00f4 E7FFFF1A 		bne	.L81
 1203              		.loc 1 383 0
 1204 00f8 6400A0E3 		mov	r0, #100
 1205 00fc FEFFFFEB 		bl	chThdSleep
 1206              	.LVL129:
 1207              		.loc 1 384 0
 1208 0100 183095E5 		ldr	r3, [r5, #24]
 1209 0104 0400A0E3 		mov	r0, #4
 1210 0108 081093E5 		ldr	r1, [r3, #8]
 1211 010c 011067E0 		rsb	r1, r7, r1
 1212 0110 111F6FE1 		clz	r1, r1
 1213 0114 A112A0E1 		mov	r1, r1, lsr #5
 1214 0118 FEFFFFEB 		bl	_test_assert
 1215              	.LVL130:
 1216 011c 000050E3 		cmp	r0, #0
 1217 0120 DCFFFF1A 		bne	.L81
 1218              		.loc 1 385 0
 1219 0124 FEFFFFEB 		bl	chMtxUnlock
 1220              	.LVL131:
 1221              		.loc 1 386 0
 1222 0128 183095E5 		ldr	r3, [r5, #24]
 1223 012c 0500A0E3 		mov	r0, #5
 1224 0130 081093E5 		ldr	r1, [r3, #8]
 1225 0134 011068E0 		rsb	r1, r8, r1
 1226 0138 111F6FE1 		clz	r1, r1
 1227 013c A112A0E1 		mov	r1, r1, lsr #5
 1228 0140 FEFFFFEB 		bl	_test_assert
 1229              	.LVL132:
 1230 0144 000050E3 		cmp	r0, #0
 1231 0148 D2FFFF1A 		bne	.L81
 1232              		.loc 1 387 0
 1233 014c 6400A0E3 		mov	r0, #100
 1234 0150 FEFFFFEB 		bl	chThdSleep
 1235              	.LVL133:
 1236              		.loc 1 388 0
 1237 0154 183095E5 		ldr	r3, [r5, #24]
 1238 0158 0600A0E3 		mov	r0, #6
 1239 015c 081093E5 		ldr	r1, [r3, #8]
 1240 0160 011068E0 		rsb	r1, r8, r1
 1241 0164 111F6FE1 		clz	r1, r1
 1242 0168 A112A0E1 		mov	r1, r1, lsr #5
 1243 016c FEFFFFEB 		bl	_test_assert
 1244              	.LVL134:
 1245 0170 000050E3 		cmp	r0, #0
 1246 0174 C7FFFF1A 		bne	.L81
 1247              		.loc 1 389 0
 1248 0178 FEFFFFEB 		bl	chMtxUnlockAll
 1249              	.LVL135:
 1250              		.loc 1 390 0
 1251 017c 183095E5 		ldr	r3, [r5, #24]
 1252 0180 0700A0E3 		mov	r0, #7
 1253 0184 081093E5 		ldr	r1, [r3, #8]
 1254 0188 011064E0 		rsb	r1, r4, r1
ARM GAS  /tmp/ccKDLBsl.s 			page 23


 1255 018c 111F6FE1 		clz	r1, r1
 1256 0190 A112A0E1 		mov	r1, r1, lsr #5
 1257 0194 FEFFFFEB 		bl	_test_assert
 1258              	.LVL136:
 1259 0198 000050E3 		cmp	r0, #0
 1260 019c BDFFFF1A 		bne	.L81
 1261              		.loc 1 391 0
 1262 01a0 FEFFFFEB 		bl	test_wait_threads
 1263              	.LVL137:
 1264              		.loc 1 394 0
 1265 01a4 9C319FE5 		ldr	r3, .L87+36
 1266 01a8 461FA0E3 		mov	r1, #280
 1267 01ac 00308DE5 		str	r3, [sp]
 1268 01b0 0820A0E1 		mov	r2, r8
 1269 01b4 74319FE5 		ldr	r3, .L87+12
 1270 01b8 0A00A0E1 		mov	r0, r10
 1271 01bc FEFFFFEB 		bl	chThdCreateStatic
 1272              	.LVL138:
 1273              		.loc 1 395 0
 1274 01c0 84319FE5 		ldr	r3, .L87+40
 1275 01c4 461FA0E3 		mov	r1, #280
 1276 01c8 0720A0E1 		mov	r2, r7
 1277              		.loc 1 394 0
 1278 01cc 000086E5 		str	r0, [r6]
 1279              		.loc 1 395 0
 1280 01d0 00308DE5 		str	r3, [sp]
 1281 01d4 0900A0E1 		mov	r0, r9
 1282 01d8 5C319FE5 		ldr	r3, .L87+24
 1283 01dc FEFFFFEB 		bl	chThdCreateStatic
 1284              	.LVL139:
 1285 01e0 040086E5 		str	r0, [r6, #4]
 1286              		.loc 1 396 0
 1287 01e4 54019FE5 		ldr	r0, .L87+28
 1288 01e8 FEFFFFEB 		bl	chMtxLock
 1289              	.LVL140:
 1290              		.loc 1 397 0
 1291 01ec 183095E5 		ldr	r3, [r5, #24]
 1292 01f0 0800A0E3 		mov	r0, #8
 1293 01f4 081093E5 		ldr	r1, [r3, #8]
 1294 01f8 011064E0 		rsb	r1, r4, r1
 1295 01fc 111F6FE1 		clz	r1, r1
 1296 0200 A112A0E1 		mov	r1, r1, lsr #5
 1297 0204 FEFFFFEB 		bl	_test_assert
 1298              	.LVL141:
 1299 0208 000050E3 		cmp	r0, #0
 1300 020c A1FFFF1A 		bne	.L81
 1301              		.loc 1 398 0
 1302 0210 6400A0E3 		mov	r0, #100
 1303 0214 FEFFFFEB 		bl	chThdSleep
 1304              	.LVL142:
 1305              		.loc 1 399 0
 1306 0218 183095E5 		ldr	r3, [r5, #24]
 1307 021c 0900A0E3 		mov	r0, #9
 1308 0220 081093E5 		ldr	r1, [r3, #8]
 1309 0224 011068E0 		rsb	r1, r8, r1
 1310 0228 111F6FE1 		clz	r1, r1
 1311 022c A112A0E1 		mov	r1, r1, lsr #5
ARM GAS  /tmp/ccKDLBsl.s 			page 24


 1312 0230 FEFFFFEB 		bl	_test_assert
 1313              	.LVL143:
 1314 0234 000050E3 		cmp	r0, #0
 1315 0238 96FFFF1A 		bne	.L81
 1316              		.loc 1 400 0
 1317 023c 00019FE5 		ldr	r0, .L87+32
 1318 0240 FEFFFFEB 		bl	chMtxLock
 1319              	.LVL144:
 1320              		.loc 1 401 0
 1321 0244 183095E5 		ldr	r3, [r5, #24]
 1322 0248 0A00A0E3 		mov	r0, #10
 1323 024c 081093E5 		ldr	r1, [r3, #8]
 1324 0250 011068E0 		rsb	r1, r8, r1
 1325 0254 111F6FE1 		clz	r1, r1
 1326 0258 A112A0E1 		mov	r1, r1, lsr #5
 1327 025c FEFFFFEB 		bl	_test_assert
 1328              	.LVL145:
 1329 0260 000050E3 		cmp	r0, #0
 1330 0264 8BFFFF1A 		bne	.L81
 1331              		.loc 1 402 0
 1332 0268 6400A0E3 		mov	r0, #100
 1333 026c FEFFFFEB 		bl	chThdSleep
 1334              	.LVL146:
 1335              		.loc 1 403 0
 1336 0270 183095E5 		ldr	r3, [r5, #24]
 1337 0274 0B00A0E3 		mov	r0, #11
 1338 0278 081093E5 		ldr	r1, [r3, #8]
 1339 027c 011067E0 		rsb	r1, r7, r1
 1340 0280 111F6FE1 		clz	r1, r1
 1341 0284 A112A0E1 		mov	r1, r1, lsr #5
 1342 0288 FEFFFFEB 		bl	_test_assert
 1343              	.LVL147:
 1344 028c 000050E3 		cmp	r0, #0
 1345 0290 80FFFF1A 		bne	.L81
 1346              		.loc 1 404 0
 1347              	@ 404 "../../test/testmtx.c" 1
 1348 0294 9FF021E3 		msr     CPSR_c, #0x9F
 1349              	@ 0 "" 2
 1350              		.loc 1 405 0
 1351 0298 FEFFFFEB 		bl	chMtxUnlockS
 1352              	.LVL148:
 1353              		.loc 1 406 0
 1354              	@ 406 "../../test/testmtx.c" 1
 1355 029c 1FF021E3 		msr     CPSR_c, #0x1F
 1356              	@ 0 "" 2
 1357              		.loc 1 407 0
 1358 02a0 183095E5 		ldr	r3, [r5, #24]
 1359 02a4 0C00A0E3 		mov	r0, #12
 1360 02a8 081093E5 		ldr	r1, [r3, #8]
 1361 02ac 011068E0 		rsb	r1, r8, r1
 1362 02b0 111F6FE1 		clz	r1, r1
 1363 02b4 A112A0E1 		mov	r1, r1, lsr #5
 1364 02b8 FEFFFFEB 		bl	_test_assert
 1365              	.LVL149:
 1366 02bc 000050E3 		cmp	r0, #0
 1367 02c0 74FFFF1A 		bne	.L81
 1368              		.loc 1 408 0
ARM GAS  /tmp/ccKDLBsl.s 			page 25


 1369 02c4 6400A0E3 		mov	r0, #100
 1370 02c8 FEFFFFEB 		bl	chThdSleep
 1371              	.LVL150:
 1372              		.loc 1 409 0
 1373 02cc 183095E5 		ldr	r3, [r5, #24]
 1374 02d0 0D00A0E3 		mov	r0, #13
 1375 02d4 081093E5 		ldr	r1, [r3, #8]
 1376 02d8 011068E0 		rsb	r1, r8, r1
 1377 02dc 111F6FE1 		clz	r1, r1
 1378 02e0 A112A0E1 		mov	r1, r1, lsr #5
 1379 02e4 FEFFFFEB 		bl	_test_assert
 1380              	.LVL151:
 1381 02e8 000050E3 		cmp	r0, #0
 1382 02ec 69FFFF1A 		bne	.L81
 1383              		.loc 1 410 0
 1384 02f0 FEFFFFEB 		bl	chMtxUnlockAll
 1385              	.LVL152:
 1386              		.loc 1 411 0
 1387 02f4 183095E5 		ldr	r3, [r5, #24]
 1388 02f8 0E00A0E3 		mov	r0, #14
 1389 02fc 081093E5 		ldr	r1, [r3, #8]
 1390 0300 011064E0 		rsb	r1, r4, r1
 1391 0304 111F6FE1 		clz	r1, r1
 1392 0308 A112A0E1 		mov	r1, r1, lsr #5
 1393 030c FEFFFFEB 		bl	_test_assert
 1394              	.LVL153:
 1395 0310 000050E3 		cmp	r0, #0
 1396 0314 5FFFFF1A 		bne	.L81
 1397              		.loc 1 413 0
 1398 0318 08D08DE2 		add	sp, sp, #8
 1399              		.cfi_def_cfa_offset 32
 1400              		@ sp needed
 1401 031c F047BDE8 		ldmfd	sp!, {r4, r5, r6, r7, r8, r9, r10, lr}
 1402              		.cfi_restore 14
 1403              		.cfi_restore 10
 1404              		.cfi_restore 9
 1405              		.cfi_restore 8
 1406              		.cfi_restore 7
 1407              		.cfi_restore 6
 1408              		.cfi_restore 5
 1409              		.cfi_restore 4
 1410              		.cfi_def_cfa_offset 0
 1411              	.LVL154:
 1412              		.loc 1 412 0
 1413 0320 FEFFFFEA 		b	test_wait_threads
 1414              	.LVL155:
 1415              	.L88:
 1416              		.align	2
 1417              	.L87:
 1418 0324 00000000 		.word	rlist
 1419 0328 00000000 		.word	wa
 1420 032c 0C000000 		.word	.LC3
 1421 0330 00000000 		.word	thread4a
 1422 0334 00000000 		.word	threads
 1423 0338 10000000 		.word	.LC4
 1424 033c 00000000 		.word	thread4b
 1425 0340 00000000 		.word	.LANCHOR1
ARM GAS  /tmp/ccKDLBsl.s 			page 26


 1426 0344 00000000 		.word	.LANCHOR0
 1427 0348 04000000 		.word	.LC1
 1428 034c 08000000 		.word	.LC2
 1429              		.cfi_endproc
 1430              	.LFE25:
 1431              		.size	mtx4_execute, .-mtx4_execute
 1432              		.section	.text.mtx5_execute,"ax",%progbits
 1433              		.align	2
 1434              		.type	mtx5_execute, %function
 1435              	mtx5_execute:
 1436              	.LFB27:
 1437              		.loc 1 437 0
 1438              		.cfi_startproc
 1439              		@ args = 0, pretend = 0, frame = 0
 1440              		@ frame_needed = 0, uses_anonymous_args = 0
 1441 0000 70402DE9 		stmfd	sp!, {r4, r5, r6, lr}
 1442              		.cfi_def_cfa_offset 16
 1443              		.cfi_offset 4, -16
 1444              		.cfi_offset 5, -12
 1445              		.cfi_offset 6, -8
 1446              		.cfi_offset 14, -4
 1447              		.loc 1 441 0
 1448 0004 F4509FE5 		ldr	r5, .L94
 1449              		.loc 1 443 0
 1450 0008 F4409FE5 		ldr	r4, .L94+4
 1451              		.loc 1 441 0
 1452 000c 183095E5 		ldr	r3, [r5, #24]
 1453              		.loc 1 443 0
 1454 0010 0400A0E1 		mov	r0, r4
 1455              		.loc 1 441 0
 1456 0014 086093E5 		ldr	r6, [r3, #8]
 1457              	.LVL156:
 1458              		.loc 1 443 0
 1459 0018 FEFFFFEB 		bl	chMtxTryLock
 1460              	.LVL157:
 1461 001c 0010A0E1 		mov	r1, r0
 1462              	.LVL158:
 1463              		.loc 1 444 0
 1464 0020 0100A0E3 		mov	r0, #1
 1465              	.LVL159:
 1466 0024 FEFFFFEB 		bl	_test_assert
 1467              	.LVL160:
 1468 0028 000050E3 		cmp	r0, #0
 1469 002c 7080BD18 		ldmnefd	sp!, {r4, r5, r6, pc}
 1470              		.loc 1 446 0
 1471 0030 0400A0E1 		mov	r0, r4
 1472 0034 FEFFFFEB 		bl	chMtxTryLock
 1473              	.LVL161:
 1474              		.loc 1 447 0
 1475 0038 101F6FE1 		clz	r1, r0
 1476 003c 0200A0E3 		mov	r0, #2
 1477              	.LVL162:
 1478 0040 A112A0E1 		mov	r1, r1, lsr #5
 1479 0044 FEFFFFEB 		bl	_test_assert
 1480              	.LVL163:
 1481 0048 000050E3 		cmp	r0, #0
 1482 004c 7080BD18 		ldmnefd	sp!, {r4, r5, r6, pc}
ARM GAS  /tmp/ccKDLBsl.s 			page 27


 1483              		.loc 1 449 0
 1484              	@ 449 "../../test/testmtx.c" 1
 1485 0050 9FF021E3 		msr     CPSR_c, #0x9F
 1486              	@ 0 "" 2
 1487              		.loc 1 450 0
 1488 0054 FEFFFFEB 		bl	chMtxUnlockS
 1489              	.LVL164:
 1490              		.loc 1 451 0
 1491              	@ 451 "../../test/testmtx.c" 1
 1492 0058 1FF021E3 		msr     CPSR_c, #0x1F
 1493              	@ 0 "" 2
 1494              		.loc 1 453 0
 1495 005c 001094E5 		ldr	r1, [r4]
 1496 0060 0300A0E3 		mov	r0, #3
 1497 0064 011064E0 		rsb	r1, r4, r1
 1498 0068 111F6FE1 		clz	r1, r1
 1499 006c A112A0E1 		mov	r1, r1, lsr #5
 1500 0070 FEFFFFEB 		bl	_test_assert
 1501              	.LVL165:
 1502 0074 000050E3 		cmp	r0, #0
 1503 0078 7080BD18 		ldmnefd	sp!, {r4, r5, r6, pc}
 1504              		.loc 1 454 0
 1505 007c 081094E5 		ldr	r1, [r4, #8]
 1506 0080 0400A0E3 		mov	r0, #4
 1507 0084 111F6FE1 		clz	r1, r1
 1508 0088 A112A0E1 		mov	r1, r1, lsr #5
 1509 008c FEFFFFEB 		bl	_test_assert
 1510              	.LVL166:
 1511 0090 000050E3 		cmp	r0, #0
 1512 0094 7080BD18 		ldmnefd	sp!, {r4, r5, r6, pc}
 1513              		.loc 1 455 0
 1514 0098 183095E5 		ldr	r3, [r5, #24]
 1515 009c 0500A0E3 		mov	r0, #5
 1516 00a0 081093E5 		ldr	r1, [r3, #8]
 1517 00a4 011066E0 		rsb	r1, r6, r1
 1518 00a8 111F6FE1 		clz	r1, r1
 1519 00ac A112A0E1 		mov	r1, r1, lsr #5
 1520 00b0 FEFFFFEB 		bl	_test_assert
 1521              	.LVL167:
 1522 00b4 000050E3 		cmp	r0, #0
 1523 00b8 7080BD18 		ldmnefd	sp!, {r4, r5, r6, pc}
 1524              		.loc 1 457 0
 1525 00bc 0400A0E1 		mov	r0, r4
 1526 00c0 FEFFFFEB 		bl	chMtxLock
 1527              	.LVL168:
 1528              		.loc 1 458 0
 1529 00c4 FEFFFFEB 		bl	chMtxUnlockAll
 1530              	.LVL169:
 1531              		.loc 1 459 0
 1532 00c8 001094E5 		ldr	r1, [r4]
 1533 00cc 0600A0E3 		mov	r0, #6
 1534 00d0 011064E0 		rsb	r1, r4, r1
 1535 00d4 111F6FE1 		clz	r1, r1
 1536 00d8 A112A0E1 		mov	r1, r1, lsr #5
 1537 00dc FEFFFFEB 		bl	_test_assert
 1538              	.LVL170:
 1539 00e0 000050E3 		cmp	r0, #0
ARM GAS  /tmp/ccKDLBsl.s 			page 28


 1540 00e4 7080BD18 		ldmnefd	sp!, {r4, r5, r6, pc}
 1541              		.loc 1 460 0
 1542 00e8 081094E5 		ldr	r1, [r4, #8]
 1543 00ec 0700A0E3 		mov	r0, #7
 1544              		.loc 1 461 0
 1545 00f0 7040BDE8 		ldmfd	sp!, {r4, r5, r6, lr}
 1546              		.cfi_restore 14
 1547              		.cfi_restore 6
 1548              		.cfi_restore 5
 1549              		.cfi_restore 4
 1550              		.cfi_def_cfa_offset 0
 1551              	.LVL171:
 1552              		.loc 1 460 0
 1553 00f4 111F6FE1 		clz	r1, r1
 1554 00f8 A112A0E1 		mov	r1, r1, lsr #5
 1555 00fc FEFFFFEA 		b	_test_assert
 1556              	.LVL172:
 1557              	.L95:
 1558              		.align	2
 1559              	.L94:
 1560 0100 00000000 		.word	rlist
 1561 0104 00000000 		.word	.LANCHOR0
 1562              		.cfi_endproc
 1563              	.LFE27:
 1564              		.size	mtx5_execute, .-mtx5_execute
 1565              		.section	.text.mtx6_execute,"ax",%progbits
 1566              		.align	2
 1567              		.type	mtx6_execute, %function
 1568              	mtx6_execute:
 1569              	.LFB30:
 1570              		.loc 1 497 0
 1571              		.cfi_startproc
 1572              		@ args = 0, pretend = 0, frame = 0
 1573              		@ frame_needed = 0, uses_anonymous_args = 0
 1574 0000 F0402DE9 		stmfd	sp!, {r4, r5, r6, r7, lr}
 1575              		.cfi_def_cfa_offset 20
 1576              		.cfi_offset 4, -20
 1577              		.cfi_offset 5, -16
 1578              		.cfi_offset 6, -12
 1579              		.cfi_offset 7, -8
 1580              		.cfi_offset 14, -4
 1581              		.loc 1 499 0
 1582 0004 14319FE5 		ldr	r3, .L98
 1583              		.loc 1 500 0
 1584 0008 14719FE5 		ldr	r7, .L98+4
 1585              		.loc 1 499 0
 1586 000c 183093E5 		ldr	r3, [r3, #24]
 1587              		.loc 1 500 0
 1588 0010 10519FE5 		ldr	r5, .L98+8
 1589              		.loc 1 499 0
 1590 0014 086093E5 		ldr	r6, [r3, #8]
 1591              	.LVL173:
 1592              		.loc 1 500 0
 1593 0018 0C119FE5 		ldr	r1, .L98+12
 1594              		.loc 1 497 0
 1595 001c 0CD04DE2 		sub	sp, sp, #12
 1596              		.cfi_def_cfa_offset 32
ARM GAS  /tmp/ccKDLBsl.s 			page 29


 1597              		.loc 1 500 0
 1598 0020 012086E2 		add	r2, r6, #1
 1599 0024 0530A0E1 		mov	r3, r5
 1600 0028 00108DE5 		str	r1, [sp]
 1601 002c 000097E5 		ldr	r0, [r7]
 1602 0030 461FA0E3 		mov	r1, #280
 1603 0034 FEFFFFEB 		bl	chThdCreateStatic
 1604              	.LVL174:
 1605 0038 F0409FE5 		ldr	r4, .L98+16
 1606              		.loc 1 501 0
 1607 003c 043097E5 		ldr	r3, [r7, #4]
 1608 0040 EC109FE5 		ldr	r1, .L98+20
 1609              		.loc 1 500 0
 1610 0044 000084E5 		str	r0, [r4]
 1611              		.loc 1 501 0
 1612 0048 022086E2 		add	r2, r6, #2
 1613 004c 00108DE5 		str	r1, [sp]
 1614 0050 0300A0E1 		mov	r0, r3
 1615 0054 461FA0E3 		mov	r1, #280
 1616 0058 0530A0E1 		mov	r3, r5
 1617 005c FEFFFFEB 		bl	chThdCreateStatic
 1618              	.LVL175:
 1619              		.loc 1 502 0
 1620 0060 083097E5 		ldr	r3, [r7, #8]
 1621 0064 CC109FE5 		ldr	r1, .L98+24
 1622              		.loc 1 501 0
 1623 0068 040084E5 		str	r0, [r4, #4]
 1624              		.loc 1 502 0
 1625 006c 032086E2 		add	r2, r6, #3
 1626 0070 00108DE5 		str	r1, [sp]
 1627 0074 0300A0E1 		mov	r0, r3
 1628 0078 461FA0E3 		mov	r1, #280
 1629 007c 0530A0E1 		mov	r3, r5
 1630 0080 FEFFFFEB 		bl	chThdCreateStatic
 1631              	.LVL176:
 1632              		.loc 1 503 0
 1633 0084 0C3097E5 		ldr	r3, [r7, #12]
 1634 0088 AC109FE5 		ldr	r1, .L98+28
 1635              		.loc 1 502 0
 1636 008c 080084E5 		str	r0, [r4, #8]
 1637              		.loc 1 503 0
 1638 0090 042086E2 		add	r2, r6, #4
 1639 0094 00108DE5 		str	r1, [sp]
 1640 0098 0300A0E1 		mov	r0, r3
 1641 009c 461FA0E3 		mov	r1, #280
 1642 00a0 0530A0E1 		mov	r3, r5
 1643 00a4 FEFFFFEB 		bl	chThdCreateStatic
 1644              	.LVL177:
 1645              		.loc 1 504 0
 1646 00a8 103097E5 		ldr	r3, [r7, #16]
 1647 00ac 8C109FE5 		ldr	r1, .L98+32
 1648              		.loc 1 503 0
 1649 00b0 0C0084E5 		str	r0, [r4, #12]
 1650              		.loc 1 504 0
 1651 00b4 052086E2 		add	r2, r6, #5
 1652 00b8 00108DE5 		str	r1, [sp]
 1653 00bc 0300A0E1 		mov	r0, r3
ARM GAS  /tmp/ccKDLBsl.s 			page 30


 1654 00c0 461FA0E3 		mov	r1, #280
 1655 00c4 0530A0E1 		mov	r3, r5
 1656 00c8 FEFFFFEB 		bl	chThdCreateStatic
 1657              	.LVL178:
 1658 00cc 100084E5 		str	r0, [r4, #16]
 1659              		.loc 1 505 0
 1660              	@ 505 "../../test/testmtx.c" 1
 1661 00d0 9FF021E3 		msr     CPSR_c, #0x9F
 1662              	@ 0 "" 2
 1663              		.loc 1 506 0
 1664 00d4 68409FE5 		ldr	r4, .L98+36
 1665 00d8 0400A0E1 		mov	r0, r4
 1666 00dc FEFFFFEB 		bl	chCondSignalI
 1667              	.LVL179:
 1668              		.loc 1 507 0
 1669 00e0 0400A0E1 		mov	r0, r4
 1670 00e4 FEFFFFEB 		bl	chCondSignalI
 1671              	.LVL180:
 1672              		.loc 1 508 0
 1673 00e8 0400A0E1 		mov	r0, r4
 1674 00ec FEFFFFEB 		bl	chCondSignalI
 1675              	.LVL181:
 1676              		.loc 1 509 0
 1677 00f0 0400A0E1 		mov	r0, r4
 1678 00f4 FEFFFFEB 		bl	chCondSignalI
 1679              	.LVL182:
 1680              		.loc 1 510 0
 1681 00f8 0400A0E1 		mov	r0, r4
 1682 00fc FEFFFFEB 		bl	chCondSignalI
 1683              	.LVL183:
 1684              		.loc 1 511 0
 1685 0100 FEFFFFEB 		bl	chSchRescheduleS
 1686              	.LVL184:
 1687              		.loc 1 512 0
 1688              	@ 512 "../../test/testmtx.c" 1
 1689 0104 1FF021E3 		msr     CPSR_c, #0x1F
 1690              	@ 0 "" 2
 1691              		.loc 1 513 0
 1692 0108 FEFFFFEB 		bl	test_wait_threads
 1693              	.LVL185:
 1694              		.loc 1 514 0
 1695 010c 0100A0E3 		mov	r0, #1
 1696 0110 30109FE5 		ldr	r1, .L98+40
 1697              		.loc 1 515 0
 1698 0114 0CD08DE2 		add	sp, sp, #12
 1699              		.cfi_def_cfa_offset 20
 1700              		@ sp needed
 1701 0118 F040BDE8 		ldmfd	sp!, {r4, r5, r6, r7, lr}
 1702              		.cfi_restore 14
 1703              		.cfi_restore 7
 1704              		.cfi_restore 6
 1705              		.cfi_restore 5
 1706              		.cfi_restore 4
 1707              		.cfi_def_cfa_offset 0
 1708              	.LVL186:
 1709              		.loc 1 514 0
 1710 011c FEFFFFEA 		b	_test_assert_sequence
ARM GAS  /tmp/ccKDLBsl.s 			page 31


 1711              	.LVL187:
 1712              	.L99:
 1713              		.align	2
 1714              	.L98:
 1715 0120 00000000 		.word	rlist
 1716 0124 00000000 		.word	wa
 1717 0128 00000000 		.word	thread10
 1718 012c 00000000 		.word	.LC0
 1719 0130 00000000 		.word	threads
 1720 0134 04000000 		.word	.LC1
 1721 0138 08000000 		.word	.LC2
 1722 013c 0C000000 		.word	.LC3
 1723 0140 10000000 		.word	.LC4
 1724 0144 00000000 		.word	.LANCHOR2
 1725 0148 14000000 		.word	.LC5
 1726              		.cfi_endproc
 1727              	.LFE30:
 1728              		.size	mtx6_execute, .-mtx6_execute
 1729              		.section	.text.thread10,"ax",%progbits
 1730              		.align	2
 1731              		.type	thread10, %function
 1732              	thread10:
 1733              	.LFB29:
 1734              		.loc 1 488 0
 1735              		.cfi_startproc
 1736              		@ args = 0, pretend = 0, frame = 0
 1737              		@ frame_needed = 0, uses_anonymous_args = 0
 1738              	.LVL188:
 1739 0000 10402DE9 		stmfd	sp!, {r4, lr}
 1740              		.cfi_def_cfa_offset 8
 1741              		.cfi_offset 4, -8
 1742              		.cfi_offset 14, -4
 1743              		.loc 1 488 0
 1744 0004 0040A0E1 		mov	r4, r0
 1745              		.loc 1 490 0
 1746 0008 1C009FE5 		ldr	r0, .L102
 1747              	.LVL189:
 1748 000c FEFFFFEB 		bl	chMtxLock
 1749              	.LVL190:
 1750              		.loc 1 491 0
 1751 0010 18009FE5 		ldr	r0, .L102+4
 1752 0014 FEFFFFEB 		bl	chCondWait
 1753              	.LVL191:
 1754              		.loc 1 492 0
 1755 0018 0000D4E5 		ldrb	r0, [r4]	@ zero_extendqisi2
 1756 001c FEFFFFEB 		bl	test_emit_token
 1757              	.LVL192:
 1758              		.loc 1 493 0
 1759 0020 FEFFFFEB 		bl	chMtxUnlock
 1760              	.LVL193:
 1761              		.loc 1 495 0
 1762 0024 0000A0E3 		mov	r0, #0
 1763 0028 1080BDE8 		ldmfd	sp!, {r4, pc}
 1764              	.L103:
 1765              		.align	2
 1766              	.L102:
 1767 002c 00000000 		.word	.LANCHOR0
ARM GAS  /tmp/ccKDLBsl.s 			page 32


 1768 0030 00000000 		.word	.LANCHOR2
 1769              		.cfi_endproc
 1770              	.LFE29:
 1771              		.size	thread10, .-thread10
 1772              		.section	.text.mtx6_setup,"ax",%progbits
 1773              		.align	2
 1774              		.type	mtx6_setup, %function
 1775              	mtx6_setup:
 1776              	.LFB28:
 1777              		.loc 1 482 0
 1778              		.cfi_startproc
 1779              		@ args = 0, pretend = 0, frame = 0
 1780              		@ frame_needed = 0, uses_anonymous_args = 0
 1781 0000 08402DE9 		stmfd	sp!, {r3, lr}
 1782              		.cfi_def_cfa_offset 8
 1783              		.cfi_offset 3, -8
 1784              		.cfi_offset 14, -4
 1785              		.loc 1 484 0
 1786 0004 0C009FE5 		ldr	r0, .L106
 1787 0008 FEFFFFEB 		bl	chCondInit
 1788              	.LVL194:
 1789              		.loc 1 486 0
 1790 000c 0840BDE8 		ldmfd	sp!, {r3, lr}
 1791              		.cfi_restore 14
 1792              		.cfi_restore 3
 1793              		.cfi_def_cfa_offset 0
 1794              		.loc 1 485 0
 1795 0010 04009FE5 		ldr	r0, .L106+4
 1796 0014 FEFFFFEA 		b	chMtxInit
 1797              	.LVL195:
 1798              	.L107:
 1799              		.align	2
 1800              	.L106:
 1801 0018 00000000 		.word	.LANCHOR2
 1802 001c 00000000 		.word	.LANCHOR0
 1803              		.cfi_endproc
 1804              	.LFE28:
 1805              		.size	mtx6_setup, .-mtx6_setup
 1806              		.section	.text.mtx7_setup,"ax",%progbits
 1807              		.align	2
 1808              		.type	mtx7_setup, %function
 1809              	mtx7_setup:
 1810              	.LFB31:
 1811              		.loc 1 534 0
 1812              		.cfi_startproc
 1813              		@ args = 0, pretend = 0, frame = 0
 1814              		@ frame_needed = 0, uses_anonymous_args = 0
 1815 0000 08402DE9 		stmfd	sp!, {r3, lr}
 1816              		.cfi_def_cfa_offset 8
 1817              		.cfi_offset 3, -8
 1818              		.cfi_offset 14, -4
 1819              		.loc 1 536 0
 1820 0004 0C009FE5 		ldr	r0, .L110
 1821 0008 FEFFFFEB 		bl	chCondInit
 1822              	.LVL196:
 1823              		.loc 1 538 0
 1824 000c 0840BDE8 		ldmfd	sp!, {r3, lr}
ARM GAS  /tmp/ccKDLBsl.s 			page 33


 1825              		.cfi_restore 14
 1826              		.cfi_restore 3
 1827              		.cfi_def_cfa_offset 0
 1828              		.loc 1 537 0
 1829 0010 04009FE5 		ldr	r0, .L110+4
 1830 0014 FEFFFFEA 		b	chMtxInit
 1831              	.LVL197:
 1832              	.L111:
 1833              		.align	2
 1834              	.L110:
 1835 0018 00000000 		.word	.LANCHOR2
 1836 001c 00000000 		.word	.LANCHOR0
 1837              		.cfi_endproc
 1838              	.LFE31:
 1839              		.size	mtx7_setup, .-mtx7_setup
 1840              		.section	.text.mtx8_setup,"ax",%progbits
 1841              		.align	2
 1842              		.type	mtx8_setup, %function
 1843              	mtx8_setup:
 1844              	.LFB33:
 1845              		.loc 1 569 0
 1846              		.cfi_startproc
 1847              		@ args = 0, pretend = 0, frame = 0
 1848              		@ frame_needed = 0, uses_anonymous_args = 0
 1849 0000 08402DE9 		stmfd	sp!, {r3, lr}
 1850              		.cfi_def_cfa_offset 8
 1851              		.cfi_offset 3, -8
 1852              		.cfi_offset 14, -4
 1853              		.loc 1 571 0
 1854 0004 14009FE5 		ldr	r0, .L114
 1855 0008 FEFFFFEB 		bl	chCondInit
 1856              	.LVL198:
 1857              		.loc 1 572 0
 1858 000c 10009FE5 		ldr	r0, .L114+4
 1859 0010 FEFFFFEB 		bl	chMtxInit
 1860              	.LVL199:
 1861              		.loc 1 574 0
 1862 0014 0840BDE8 		ldmfd	sp!, {r3, lr}
 1863              		.cfi_restore 14
 1864              		.cfi_restore 3
 1865              		.cfi_def_cfa_offset 0
 1866              		.loc 1 573 0
 1867 0018 08009FE5 		ldr	r0, .L114+8
 1868 001c FEFFFFEA 		b	chMtxInit
 1869              	.LVL200:
 1870              	.L115:
 1871              		.align	2
 1872              	.L114:
 1873 0020 00000000 		.word	.LANCHOR2
 1874 0024 00000000 		.word	.LANCHOR0
 1875 0028 00000000 		.word	.LANCHOR1
 1876              		.cfi_endproc
 1877              	.LFE33:
 1878              		.size	mtx8_setup, .-mtx8_setup
 1879              		.section	.text.mtx7_execute,"ax",%progbits
 1880              		.align	2
 1881              		.type	mtx7_execute, %function
ARM GAS  /tmp/ccKDLBsl.s 			page 34


 1882              	mtx7_execute:
 1883              	.LFB32:
 1884              		.loc 1 540 0
 1885              		.cfi_startproc
 1886              		@ args = 0, pretend = 0, frame = 0
 1887              		@ frame_needed = 0, uses_anonymous_args = 0
 1888 0000 F0402DE9 		stmfd	sp!, {r4, r5, r6, r7, lr}
 1889              		.cfi_def_cfa_offset 20
 1890              		.cfi_offset 4, -20
 1891              		.cfi_offset 5, -16
 1892              		.cfi_offset 6, -12
 1893              		.cfi_offset 7, -8
 1894              		.cfi_offset 14, -4
 1895              		.loc 1 542 0
 1896 0004 E4309FE5 		ldr	r3, .L118
 1897              		.loc 1 543 0
 1898 0008 E4709FE5 		ldr	r7, .L118+4
 1899              		.loc 1 542 0
 1900 000c 183093E5 		ldr	r3, [r3, #24]
 1901              		.loc 1 543 0
 1902 0010 E0509FE5 		ldr	r5, .L118+8
 1903              		.loc 1 542 0
 1904 0014 086093E5 		ldr	r6, [r3, #8]
 1905              	.LVL201:
 1906              		.loc 1 543 0
 1907 0018 DC109FE5 		ldr	r1, .L118+12
 1908              		.loc 1 540 0
 1909 001c 0CD04DE2 		sub	sp, sp, #12
 1910              		.cfi_def_cfa_offset 32
 1911              		.loc 1 543 0
 1912 0020 012086E2 		add	r2, r6, #1
 1913 0024 0530A0E1 		mov	r3, r5
 1914 0028 00108DE5 		str	r1, [sp]
 1915 002c 000097E5 		ldr	r0, [r7]
 1916 0030 461FA0E3 		mov	r1, #280
 1917 0034 FEFFFFEB 		bl	chThdCreateStatic
 1918              	.LVL202:
 1919 0038 C0409FE5 		ldr	r4, .L118+16
 1920              		.loc 1 544 0
 1921 003c 043097E5 		ldr	r3, [r7, #4]
 1922 0040 BC109FE5 		ldr	r1, .L118+20
 1923              		.loc 1 543 0
 1924 0044 000084E5 		str	r0, [r4]
 1925              		.loc 1 544 0
 1926 0048 022086E2 		add	r2, r6, #2
 1927 004c 00108DE5 		str	r1, [sp]
 1928 0050 0300A0E1 		mov	r0, r3
 1929 0054 461FA0E3 		mov	r1, #280
 1930 0058 0530A0E1 		mov	r3, r5
 1931 005c FEFFFFEB 		bl	chThdCreateStatic
 1932              	.LVL203:
 1933              		.loc 1 545 0
 1934 0060 083097E5 		ldr	r3, [r7, #8]
 1935 0064 9C109FE5 		ldr	r1, .L118+24
 1936              		.loc 1 544 0
 1937 0068 040084E5 		str	r0, [r4, #4]
 1938              		.loc 1 545 0
ARM GAS  /tmp/ccKDLBsl.s 			page 35


 1939 006c 032086E2 		add	r2, r6, #3
 1940 0070 00108DE5 		str	r1, [sp]
 1941 0074 0300A0E1 		mov	r0, r3
 1942 0078 461FA0E3 		mov	r1, #280
 1943 007c 0530A0E1 		mov	r3, r5
 1944 0080 FEFFFFEB 		bl	chThdCreateStatic
 1945              	.LVL204:
 1946              		.loc 1 546 0
 1947 0084 0C3097E5 		ldr	r3, [r7, #12]
 1948 0088 7C109FE5 		ldr	r1, .L118+28
 1949              		.loc 1 545 0
 1950 008c 080084E5 		str	r0, [r4, #8]
 1951              		.loc 1 546 0
 1952 0090 042086E2 		add	r2, r6, #4
 1953 0094 00108DE5 		str	r1, [sp]
 1954 0098 0300A0E1 		mov	r0, r3
 1955 009c 461FA0E3 		mov	r1, #280
 1956 00a0 0530A0E1 		mov	r3, r5
 1957 00a4 FEFFFFEB 		bl	chThdCreateStatic
 1958              	.LVL205:
 1959              		.loc 1 547 0
 1960 00a8 103097E5 		ldr	r3, [r7, #16]
 1961 00ac 5C109FE5 		ldr	r1, .L118+32
 1962 00b0 052086E2 		add	r2, r6, #5
 1963              		.loc 1 546 0
 1964 00b4 0C0084E5 		str	r0, [r4, #12]
 1965              		.loc 1 547 0
 1966 00b8 00108DE5 		str	r1, [sp]
 1967 00bc 0300A0E1 		mov	r0, r3
 1968 00c0 461FA0E3 		mov	r1, #280
 1969 00c4 0530A0E1 		mov	r3, r5
 1970 00c8 FEFFFFEB 		bl	chThdCreateStatic
 1971              	.LVL206:
 1972 00cc 100084E5 		str	r0, [r4, #16]
 1973              		.loc 1 548 0
 1974 00d0 3C009FE5 		ldr	r0, .L118+36
 1975 00d4 FEFFFFEB 		bl	chCondBroadcast
 1976              	.LVL207:
 1977              		.loc 1 549 0
 1978 00d8 FEFFFFEB 		bl	test_wait_threads
 1979              	.LVL208:
 1980              		.loc 1 550 0
 1981 00dc 0100A0E3 		mov	r0, #1
 1982 00e0 30109FE5 		ldr	r1, .L118+40
 1983              		.loc 1 551 0
 1984 00e4 0CD08DE2 		add	sp, sp, #12
 1985              		.cfi_def_cfa_offset 20
 1986              		@ sp needed
 1987 00e8 F040BDE8 		ldmfd	sp!, {r4, r5, r6, r7, lr}
 1988              		.cfi_restore 14
 1989              		.cfi_restore 7
 1990              		.cfi_restore 6
 1991              		.cfi_restore 5
 1992              		.cfi_restore 4
 1993              		.cfi_def_cfa_offset 0
 1994              	.LVL209:
 1995              		.loc 1 550 0
ARM GAS  /tmp/ccKDLBsl.s 			page 36


 1996 00ec FEFFFFEA 		b	_test_assert_sequence
 1997              	.LVL210:
 1998              	.L119:
 1999              		.align	2
 2000              	.L118:
 2001 00f0 00000000 		.word	rlist
 2002 00f4 00000000 		.word	wa
 2003 00f8 00000000 		.word	thread10
 2004 00fc 00000000 		.word	.LC0
 2005 0100 00000000 		.word	threads
 2006 0104 04000000 		.word	.LC1
 2007 0108 08000000 		.word	.LC2
 2008 010c 0C000000 		.word	.LC3
 2009 0110 10000000 		.word	.LC4
 2010 0114 00000000 		.word	.LANCHOR2
 2011 0118 14000000 		.word	.LC5
 2012              		.cfi_endproc
 2013              	.LFE32:
 2014              		.size	mtx7_execute, .-mtx7_execute
 2015              		.section	.text.mtx8_execute,"ax",%progbits
 2016              		.align	2
 2017              		.type	mtx8_execute, %function
 2018              	mtx8_execute:
 2019              	.LFB36:
 2020              		.loc 1 599 0
 2021              		.cfi_startproc
 2022              		@ args = 0, pretend = 0, frame = 0
 2023              		@ frame_needed = 0, uses_anonymous_args = 0
 2024 0000 70402DE9 		stmfd	sp!, {r4, r5, r6, lr}
 2025              		.cfi_def_cfa_offset 16
 2026              		.cfi_offset 4, -16
 2027              		.cfi_offset 5, -12
 2028              		.cfi_offset 6, -8
 2029              		.cfi_offset 14, -4
 2030              		.loc 1 601 0
 2031 0004 A4309FE5 		ldr	r3, .L122
 2032              		.loc 1 602 0
 2033 0008 A4609FE5 		ldr	r6, .L122+4
 2034              		.loc 1 601 0
 2035 000c 183093E5 		ldr	r3, [r3, #24]
 2036              		.loc 1 599 0
 2037 0010 08D04DE2 		sub	sp, sp, #8
 2038              		.cfi_def_cfa_offset 24
 2039              		.loc 1 601 0
 2040 0014 085093E5 		ldr	r5, [r3, #8]
 2041              	.LVL211:
 2042              		.loc 1 602 0
 2043 0018 98309FE5 		ldr	r3, .L122+8
 2044 001c 012085E2 		add	r2, r5, #1
 2045 0020 00308DE5 		str	r3, [sp]
 2046 0024 000096E5 		ldr	r0, [r6]
 2047 0028 461FA0E3 		mov	r1, #280
 2048 002c 88309FE5 		ldr	r3, .L122+12
 2049 0030 FEFFFFEB 		bl	chThdCreateStatic
 2050              	.LVL212:
 2051 0034 84409FE5 		ldr	r4, .L122+16
 2052              		.loc 1 603 0
ARM GAS  /tmp/ccKDLBsl.s 			page 37


 2053 0038 041096E5 		ldr	r1, [r6, #4]
 2054 003c 80309FE5 		ldr	r3, .L122+20
 2055              		.loc 1 602 0
 2056 0040 000084E5 		str	r0, [r4]
 2057              		.loc 1 603 0
 2058 0044 022085E2 		add	r2, r5, #2
 2059 0048 00308DE5 		str	r3, [sp]
 2060 004c 0100A0E1 		mov	r0, r1
 2061 0050 70309FE5 		ldr	r3, .L122+24
 2062 0054 461FA0E3 		mov	r1, #280
 2063 0058 FEFFFFEB 		bl	chThdCreateStatic
 2064              	.LVL213:
 2065              		.loc 1 604 0
 2066 005c 081096E5 		ldr	r1, [r6, #8]
 2067 0060 64309FE5 		ldr	r3, .L122+28
 2068 0064 032085E2 		add	r2, r5, #3
 2069              		.loc 1 603 0
 2070 0068 040084E5 		str	r0, [r4, #4]
 2071              		.loc 1 604 0
 2072 006c 00308DE5 		str	r3, [sp]
 2073 0070 0100A0E1 		mov	r0, r1
 2074 0074 54309FE5 		ldr	r3, .L122+32
 2075 0078 461FA0E3 		mov	r1, #280
 2076 007c FEFFFFEB 		bl	chThdCreateStatic
 2077              	.LVL214:
 2078              		.loc 1 605 0
 2079 0080 4C509FE5 		ldr	r5, .L122+36
 2080              	.LVL215:
 2081              		.loc 1 604 0
 2082 0084 080084E5 		str	r0, [r4, #8]
 2083              		.loc 1 605 0
 2084 0088 0500A0E1 		mov	r0, r5
 2085 008c FEFFFFEB 		bl	chCondSignal
 2086              	.LVL216:
 2087              		.loc 1 606 0
 2088 0090 0500A0E1 		mov	r0, r5
 2089 0094 FEFFFFEB 		bl	chCondSignal
 2090              	.LVL217:
 2091              		.loc 1 607 0
 2092 0098 FEFFFFEB 		bl	test_wait_threads
 2093              	.LVL218:
 2094              		.loc 1 608 0
 2095 009c 0100A0E3 		mov	r0, #1
 2096 00a0 30109FE5 		ldr	r1, .L122+40
 2097              		.loc 1 609 0
 2098 00a4 08D08DE2 		add	sp, sp, #8
 2099              		.cfi_def_cfa_offset 16
 2100              		@ sp needed
 2101 00a8 7040BDE8 		ldmfd	sp!, {r4, r5, r6, lr}
 2102              		.cfi_restore 14
 2103              		.cfi_restore 6
 2104              		.cfi_restore 5
 2105              		.cfi_restore 4
 2106              		.cfi_def_cfa_offset 0
 2107              		.loc 1 608 0
 2108 00ac FEFFFFEA 		b	_test_assert_sequence
 2109              	.LVL219:
ARM GAS  /tmp/ccKDLBsl.s 			page 38


 2110              	.L123:
 2111              		.align	2
 2112              	.L122:
 2113 00b0 00000000 		.word	rlist
 2114 00b4 00000000 		.word	wa
 2115 00b8 10000000 		.word	.LC4
 2116 00bc 00000000 		.word	thread11
 2117 00c0 00000000 		.word	threads
 2118 00c4 08000000 		.word	.LC2
 2119 00c8 00000000 		.word	thread10
 2120 00cc 0C000000 		.word	.LC3
 2121 00d0 00000000 		.word	thread12
 2122 00d4 00000000 		.word	.LANCHOR2
 2123 00d8 1C000000 		.word	.LC6
 2124              		.cfi_endproc
 2125              	.LFE36:
 2126              		.size	mtx8_execute, .-mtx8_execute
 2127              		.section	.text.thread11,"ax",%progbits
 2128              		.align	2
 2129              		.type	thread11, %function
 2130              	thread11:
 2131              	.LFB34:
 2132              		.loc 1 576 0
 2133              		.cfi_startproc
 2134              		@ args = 0, pretend = 0, frame = 0
 2135              		@ frame_needed = 0, uses_anonymous_args = 0
 2136              	.LVL220:
 2137 0000 10402DE9 		stmfd	sp!, {r4, lr}
 2138              		.cfi_def_cfa_offset 8
 2139              		.cfi_offset 4, -8
 2140              		.cfi_offset 14, -4
 2141              		.loc 1 576 0
 2142 0004 0040A0E1 		mov	r4, r0
 2143              		.loc 1 578 0
 2144 0008 2C009FE5 		ldr	r0, .L126
 2145              	.LVL221:
 2146 000c FEFFFFEB 		bl	chMtxLock
 2147              	.LVL222:
 2148              		.loc 1 579 0
 2149 0010 28009FE5 		ldr	r0, .L126+4
 2150 0014 FEFFFFEB 		bl	chMtxLock
 2151              	.LVL223:
 2152              		.loc 1 581 0
 2153 0018 0010E0E3 		mvn	r1, #0
 2154 001c 20009FE5 		ldr	r0, .L126+8
 2155 0020 FEFFFFEB 		bl	chCondWaitTimeout
 2156              	.LVL224:
 2157              		.loc 1 585 0
 2158 0024 0000D4E5 		ldrb	r0, [r4]	@ zero_extendqisi2
 2159 0028 FEFFFFEB 		bl	test_emit_token
 2160              	.LVL225:
 2161              		.loc 1 586 0
 2162 002c FEFFFFEB 		bl	chMtxUnlock
 2163              	.LVL226:
 2164              		.loc 1 587 0
 2165 0030 FEFFFFEB 		bl	chMtxUnlock
 2166              	.LVL227:
ARM GAS  /tmp/ccKDLBsl.s 			page 39


 2167              		.loc 1 589 0
 2168 0034 0000A0E3 		mov	r0, #0
 2169 0038 1080BDE8 		ldmfd	sp!, {r4, pc}
 2170              	.L127:
 2171              		.align	2
 2172              	.L126:
 2173 003c 00000000 		.word	.LANCHOR1
 2174 0040 00000000 		.word	.LANCHOR0
 2175 0044 00000000 		.word	.LANCHOR2
 2176              		.cfi_endproc
 2177              	.LFE34:
 2178              		.size	thread11, .-thread11
 2179              		.global	patternmtx
 2180              		.global	testmtx8
 2181              		.global	testmtx7
 2182              		.global	testmtx6
 2183              		.global	testmtx5
 2184              		.global	testmtx4
 2185              		.global	testmtx3
 2186              		.global	testmtx2
 2187              		.global	testmtx1
 2188              		.section	.rodata.testmtx5,"a",%progbits
 2189              		.align	2
 2190              		.type	testmtx5, %object
 2191              		.size	testmtx5, 16
 2192              	testmtx5:
 2193 0000 64000000 		.word	.LC10
 2194 0004 00000000 		.word	mtx5_setup
 2195 0008 00000000 		.word	0
 2196 000c 00000000 		.word	mtx5_execute
 2197              		.section	.rodata.testmtx6,"a",%progbits
 2198              		.align	2
 2199              		.type	testmtx6, %object
 2200              		.size	testmtx6, 16
 2201              	testmtx6:
 2202 0000 4C000000 		.word	.LC9
 2203 0004 00000000 		.word	mtx6_setup
 2204 0008 00000000 		.word	0
 2205 000c 00000000 		.word	mtx6_execute
 2206              		.section	.rodata.testmtx7,"a",%progbits
 2207              		.align	2
 2208              		.type	testmtx7, %object
 2209              		.size	testmtx7, 16
 2210              	testmtx7:
 2211 0000 34000000 		.word	.LC8
 2212 0004 00000000 		.word	mtx7_setup
 2213 0008 00000000 		.word	0
 2214 000c 00000000 		.word	mtx7_execute
 2215              		.section	.rodata.testmtx8,"a",%progbits
 2216              		.align	2
 2217              		.type	testmtx8, %object
 2218              		.size	testmtx8, 16
 2219              	testmtx8:
 2220 0000 20000000 		.word	.LC7
 2221 0004 00000000 		.word	mtx8_setup
 2222 0008 00000000 		.word	0
 2223 000c 00000000 		.word	mtx8_execute
ARM GAS  /tmp/ccKDLBsl.s 			page 40


 2224              		.section	.data.m1,"aw",%progbits
 2225              		.align	2
 2226              		.set	.LANCHOR0,. + 0
 2227              		.type	m1, %object
 2228              		.size	m1, 16
 2229              	m1:
 2230 0000 00000000 		.word	m1
 2231 0004 00000000 		.word	m1
 2232 0008 00000000 		.word	0
 2233 000c 00000000 		.word	0
 2234              		.section	.data.m2,"aw",%progbits
 2235              		.align	2
 2236              		.set	.LANCHOR1,. + 0
 2237              		.type	m2, %object
 2238              		.size	m2, 16
 2239              	m2:
 2240 0000 00000000 		.word	m2
 2241 0004 00000000 		.word	m2
 2242 0008 00000000 		.word	0
 2243 000c 00000000 		.word	0
 2244              		.section	.rodata.str1.4,"aMS",%progbits,1
 2245              		.align	2
 2246              	.LC0:
 2247 0000 4500     		.ascii	"E\000"
 2248 0002 0000     		.space	2
 2249              	.LC1:
 2250 0004 4400     		.ascii	"D\000"
 2251 0006 0000     		.space	2
 2252              	.LC2:
 2253 0008 4300     		.ascii	"C\000"
 2254 000a 0000     		.space	2
 2255              	.LC3:
 2256 000c 4200     		.ascii	"B\000"
 2257 000e 0000     		.space	2
 2258              	.LC4:
 2259 0010 4100     		.ascii	"A\000"
 2260 0012 0000     		.space	2
 2261              	.LC5:
 2262 0014 41424344 		.ascii	"ABCDE\000"
 2262      4500
 2263 001a 0000     		.space	2
 2264              	.LC6:
 2265 001c 41424300 		.ascii	"ABC\000"
 2266              	.LC7:
 2267 0020 436F6E64 		.ascii	"CondVar, boost test\000"
 2267      5661722C 
 2267      20626F6F 
 2267      73742074 
 2267      65737400 
 2268              	.LC8:
 2269 0034 436F6E64 		.ascii	"CondVar, broadcast test\000"
 2269      5661722C 
 2269      2062726F 
 2269      61646361 
 2269      73742074 
 2270              	.LC9:
 2271 004c 436F6E64 		.ascii	"CondVar, signal test\000"
ARM GAS  /tmp/ccKDLBsl.s 			page 41


 2271      5661722C 
 2271      20736967 
 2271      6E616C20 
 2271      74657374 
 2272 0061 000000   		.space	3
 2273              	.LC10:
 2274 0064 4D757465 		.ascii	"Mutexes, status\000"
 2274      7865732C 
 2274      20737461 
 2274      74757300 
 2275              	.LC11:
 2276 0074 4D757465 		.ascii	"Mutexes, priority return\000"
 2276      7865732C 
 2276      20707269 
 2276      6F726974 
 2276      79207265 
 2277 008d 000000   		.space	3
 2278              	.LC12:
 2279 0090 4D757465 		.ascii	"Mutexes, priority inheritance, complex case\000"
 2279      7865732C 
 2279      20707269 
 2279      6F726974 
 2279      7920696E 
 2280              	.LC13:
 2281 00bc 4D757465 		.ascii	"Mutexes, priority inheritance, simple case\000"
 2281      7865732C 
 2281      20707269 
 2281      6F726974 
 2281      7920696E 
 2282 00e7 00       		.space	1
 2283              	.LC14:
 2284 00e8 4D757465 		.ascii	"Mutexes, priority enqueuing test\000"
 2284      7865732C 
 2284      20707269 
 2284      6F726974 
 2284      7920656E 
 2285              		.section	.rodata.patternmtx,"a",%progbits
 2286              		.align	2
 2287              		.type	patternmtx, %object
 2288              		.size	patternmtx, 36
 2289              	patternmtx:
 2290 0000 00000000 		.word	testmtx1
 2291 0004 00000000 		.word	testmtx2
 2292 0008 00000000 		.word	testmtx3
 2293 000c 00000000 		.word	testmtx4
 2294 0010 00000000 		.word	testmtx5
 2295 0014 00000000 		.word	testmtx6
 2296 0018 00000000 		.word	testmtx7
 2297 001c 00000000 		.word	testmtx8
 2298 0020 00000000 		.word	0
 2299              		.section	.data.c1,"aw",%progbits
 2300              		.align	2
 2301              		.set	.LANCHOR2,. + 0
 2302              		.type	c1, %object
 2303              		.size	c1, 8
 2304              	c1:
 2305 0000 00000000 		.word	c1
ARM GAS  /tmp/ccKDLBsl.s 			page 42


 2306 0004 00000000 		.word	c1
 2307              		.section	.rodata.testmtx1,"a",%progbits
 2308              		.align	2
 2309              		.type	testmtx1, %object
 2310              		.size	testmtx1, 16
 2311              	testmtx1:
 2312 0000 E8000000 		.word	.LC14
 2313 0004 00000000 		.word	mtx1_setup
 2314 0008 00000000 		.word	0
 2315 000c 00000000 		.word	mtx1_execute
 2316              		.section	.rodata.testmtx2,"a",%progbits
 2317              		.align	2
 2318              		.type	testmtx2, %object
 2319              		.size	testmtx2, 16
 2320              	testmtx2:
 2321 0000 BC000000 		.word	.LC13
 2322 0004 00000000 		.word	mtx2_setup
 2323 0008 00000000 		.word	0
 2324 000c 00000000 		.word	mtx2_execute
 2325              		.section	.rodata.testmtx3,"a",%progbits
 2326              		.align	2
 2327              		.type	testmtx3, %object
 2328              		.size	testmtx3, 16
 2329              	testmtx3:
 2330 0000 90000000 		.word	.LC12
 2331 0004 00000000 		.word	mtx3_setup
 2332 0008 00000000 		.word	0
 2333 000c 00000000 		.word	mtx3_execute
 2334              		.section	.rodata.testmtx4,"a",%progbits
 2335              		.align	2
 2336              		.type	testmtx4, %object
 2337              		.size	testmtx4, 16
 2338              	testmtx4:
 2339 0000 74000000 		.word	.LC11
 2340 0004 00000000 		.word	mtx4_setup
 2341 0008 00000000 		.word	0
 2342 000c 00000000 		.word	mtx4_execute
 2343              		.text
 2344              	.Letext0:
 2345              		.file 2 "/usr/lib/gcc/arm-none-eabi/4.9.3/include/stddef.h"
 2346              		.file 3 "/usr/include/newlib/machine/_default_types.h"
 2347              		.file 4 "/usr/include/newlib/sys/_stdint.h"
 2348              		.file 5 "../../os/ports/GCC/ARM/chtypes.h"
 2349              		.file 6 "../../os/kernel/include/chlists.h"
 2350              		.file 7 "../../os/kernel/include/chthreads.h"
 2351              		.file 8 "../../os/ports/GCC/ARM/chcore.h"
 2352              		.file 9 "../../os/kernel/include/chvt.h"
 2353              		.file 10 "../../os/kernel/include/chschd.h"
 2354              		.file 11 "../../os/kernel/include/chmtx.h"
 2355              		.file 12 "../../os/kernel/include/chcond.h"
 2356              		.file 13 "../../test/test.h"