ARM GAS  /tmp/ccXo09QA.s 			page 1


   1              		.cpu arm1176jz-s
   2              		.fpu softvfp
   3              		.eabi_attribute 20, 1
   4              		.eabi_attribute 21, 1
   5              		.eabi_attribute 23, 3
   6              		.eabi_attribute 24, 1
   7              		.eabi_attribute 25, 1
   8              		.eabi_attribute 26, 1
   9              		.eabi_attribute 30, 2
  10              		.eabi_attribute 34, 1
  11              		.eabi_attribute 18, 4
  12              		.file	"testheap.c"
  13              		.text
  14              	.Ltext0:
  15              		.cfi_sections	.debug_frame
  16              		.section	.text.heap1_execute,"ax",%progbits
  17              		.align	2
  18              		.type	heap1_execute, %function
  19              	heap1_execute:
  20              	.LFB8:
  21              		.file 1 "../../test/testheap.c"
  22              		.loc 1 73 0
  23              		.cfi_startproc
  24              		@ args = 0, pretend = 0, frame = 8
  25              		@ frame_needed = 0, uses_anonymous_args = 0
  26 0000 70402DE9 		stmfd	sp!, {r4, r5, r6, lr}
  27              		.cfi_def_cfa_offset 16
  28              		.cfi_offset 4, -16
  29              		.cfi_offset 5, -12
  30              		.cfi_offset 6, -8
  31              		.cfi_offset 14, -4
  32 0004 08D04DE2 		sub	sp, sp, #8
  33              		.cfi_def_cfa_offset 24
  34              		.loc 1 78 0
  35 0008 FEFFFFEB 		bl	chCoreStatus
  36              	.LVL0:
  37              		.loc 1 84 0
  38 000c 04108DE2 		add	r1, sp, #4
  39 0010 0000A0E3 		mov	r0, #0
  40 0014 FEFFFFEB 		bl	chHeapStatus
  41              	.LVL1:
  42              		.loc 1 85 0
  43 0018 1010A0E3 		mov	r1, #16
  44 001c 0000A0E3 		mov	r0, #0
  45 0020 FEFFFFEB 		bl	chHeapAlloc
  46              	.LVL2:
  47              		.loc 1 86 0
  48 0024 001090E2 		adds	r1, r0, #0
  49 0028 0110A013 		movne	r1, #1
  50 002c 0040A0E1 		mov	r4, r0
  51 0030 0100A0E3 		mov	r0, #1
  52              	.LVL3:
  53 0034 FEFFFFEB 		bl	_test_assert
  54              	.LVL4:
  55 0038 005050E2 		subs	r5, r0, #0
  56 003c 0100000A 		beq	.L8
  57              	.LVL5:
ARM GAS  /tmp/ccXo09QA.s 			page 2


  58              	.L1:
  59              		.loc 1 144 0
  60 0040 08D08DE2 		add	sp, sp, #8
  61              		.cfi_remember_state
  62              		.cfi_def_cfa_offset 16
  63              		@ sp needed
  64 0044 7080BDE8 		ldmfd	sp!, {r4, r5, r6, pc}
  65              	.LVL6:
  66              	.L8:
  67              		.cfi_restore_state
  68              		.loc 1 87 0
  69 0048 0400A0E1 		mov	r0, r4
  70 004c FEFFFFEB 		bl	chHeapFree
  71              	.LVL7:
  72              		.loc 1 88 0
  73 0050 FF10E0E3 		mvn	r1, #255
  74 0054 0500A0E1 		mov	r0, r5
  75 0058 FEFFFFEB 		bl	chHeapAlloc
  76              	.LVL8:
  77              		.loc 1 89 0
  78 005c 101F6FE1 		clz	r1, r0
  79 0060 0200A0E3 		mov	r0, #2
  80              	.LVL9:
  81 0064 A112A0E1 		mov	r1, r1, lsr #5
  82 0068 FEFFFFEB 		bl	_test_assert
  83              	.LVL10:
  84 006c 000050E3 		cmp	r0, #0
  85 0070 F2FFFF1A 		bne	.L1
  86              		.loc 1 92 0
  87 0074 04108DE2 		add	r1, sp, #4
  88 0078 CC029FE5 		ldr	r0, .L9
  89 007c FEFFFFEB 		bl	chHeapStatus
  90              	.LVL11:
  91              		.loc 1 95 0
  92 0080 1010A0E3 		mov	r1, #16
  93 0084 C0029FE5 		ldr	r0, .L9
  94 0088 FEFFFFEB 		bl	chHeapAlloc
  95              	.LVL12:
  96              		.loc 1 96 0
  97 008c 1010A0E3 		mov	r1, #16
  98              		.loc 1 95 0
  99 0090 0060A0E1 		mov	r6, r0
 100              	.LVL13:
 101              		.loc 1 96 0
 102 0094 B0029FE5 		ldr	r0, .L9
 103              	.LVL14:
 104 0098 FEFFFFEB 		bl	chHeapAlloc
 105              	.LVL15:
 106              		.loc 1 97 0
 107 009c 1010A0E3 		mov	r1, #16
 108              		.loc 1 96 0
 109 00a0 0050A0E1 		mov	r5, r0
 110              	.LVL16:
 111              		.loc 1 97 0
 112 00a4 A0029FE5 		ldr	r0, .L9
 113              	.LVL17:
 114 00a8 FEFFFFEB 		bl	chHeapAlloc
ARM GAS  /tmp/ccXo09QA.s 			page 3


 115              	.LVL18:
 116 00ac 0040A0E1 		mov	r4, r0
 117              	.LVL19:
 118              		.loc 1 98 0
 119 00b0 0600A0E1 		mov	r0, r6
 120              	.LVL20:
 121 00b4 FEFFFFEB 		bl	chHeapFree
 122              	.LVL21:
 123              		.loc 1 99 0
 124 00b8 0500A0E1 		mov	r0, r5
 125 00bc FEFFFFEB 		bl	chHeapFree
 126              	.LVL22:
 127              		.loc 1 100 0
 128 00c0 0400A0E1 		mov	r0, r4
 129 00c4 FEFFFFEB 		bl	chHeapFree
 130              	.LVL23:
 131              		.loc 1 101 0
 132 00c8 0D10A0E1 		mov	r1, sp
 133 00cc 78029FE5 		ldr	r0, .L9
 134 00d0 FEFFFFEB 		bl	chHeapStatus
 135              	.LVL24:
 136 00d4 011040E2 		sub	r1, r0, #1
 137 00d8 111F6FE1 		clz	r1, r1
 138 00dc 0300A0E3 		mov	r0, #3
 139 00e0 A112A0E1 		mov	r1, r1, lsr #5
 140 00e4 FEFFFFEB 		bl	_test_assert
 141              	.LVL25:
 142 00e8 000050E3 		cmp	r0, #0
 143 00ec D3FFFF1A 		bne	.L1
 144              		.loc 1 104 0
 145 00f0 1010A0E3 		mov	r1, #16
 146 00f4 50029FE5 		ldr	r0, .L9
 147 00f8 FEFFFFEB 		bl	chHeapAlloc
 148              	.LVL26:
 149              		.loc 1 105 0
 150 00fc 1010A0E3 		mov	r1, #16
 151              		.loc 1 104 0
 152 0100 0040A0E1 		mov	r4, r0
 153              	.LVL27:
 154              		.loc 1 105 0
 155 0104 40029FE5 		ldr	r0, .L9
 156              	.LVL28:
 157 0108 FEFFFFEB 		bl	chHeapAlloc
 158              	.LVL29:
 159 010c 0050A0E1 		mov	r5, r0
 160              	.LVL30:
 161              		.loc 1 106 0
 162 0110 1010A0E3 		mov	r1, #16
 163 0114 30029FE5 		ldr	r0, .L9
 164              	.LVL31:
 165 0118 FEFFFFEB 		bl	chHeapAlloc
 166              	.LVL32:
 167              		.loc 1 107 0
 168 011c FEFFFFEB 		bl	chHeapFree
 169              	.LVL33:
 170              		.loc 1 108 0
 171 0120 0500A0E1 		mov	r0, r5
ARM GAS  /tmp/ccXo09QA.s 			page 4


 172 0124 FEFFFFEB 		bl	chHeapFree
 173              	.LVL34:
 174              		.loc 1 109 0
 175 0128 0400A0E1 		mov	r0, r4
 176 012c FEFFFFEB 		bl	chHeapFree
 177              	.LVL35:
 178              		.loc 1 110 0
 179 0130 0D10A0E1 		mov	r1, sp
 180 0134 10029FE5 		ldr	r0, .L9
 181 0138 FEFFFFEB 		bl	chHeapStatus
 182              	.LVL36:
 183 013c 011040E2 		sub	r1, r0, #1
 184 0140 111F6FE1 		clz	r1, r1
 185 0144 0400A0E3 		mov	r0, #4
 186 0148 A112A0E1 		mov	r1, r1, lsr #5
 187 014c FEFFFFEB 		bl	_test_assert
 188              	.LVL37:
 189 0150 000050E3 		cmp	r0, #0
 190 0154 B9FFFF1A 		bne	.L1
 191              		.loc 1 113 0
 192 0158 1110A0E3 		mov	r1, #17
 193 015c E8019FE5 		ldr	r0, .L9
 194 0160 FEFFFFEB 		bl	chHeapAlloc
 195              	.LVL38:
 196              		.loc 1 114 0
 197 0164 1010A0E3 		mov	r1, #16
 198              		.loc 1 113 0
 199 0168 0040A0E1 		mov	r4, r0
 200              	.LVL39:
 201              		.loc 1 114 0
 202 016c D8019FE5 		ldr	r0, .L9
 203              	.LVL40:
 204 0170 FEFFFFEB 		bl	chHeapAlloc
 205              	.LVL41:
 206 0174 0050A0E1 		mov	r5, r0
 207              	.LVL42:
 208              		.loc 1 115 0
 209 0178 0400A0E1 		mov	r0, r4
 210              	.LVL43:
 211 017c FEFFFFEB 		bl	chHeapFree
 212              	.LVL44:
 213              		.loc 1 116 0
 214 0180 0D10A0E1 		mov	r1, sp
 215 0184 C0019FE5 		ldr	r0, .L9
 216 0188 FEFFFFEB 		bl	chHeapStatus
 217              	.LVL45:
 218 018c 021040E2 		sub	r1, r0, #2
 219 0190 111F6FE1 		clz	r1, r1
 220 0194 0500A0E3 		mov	r0, #5
 221 0198 A112A0E1 		mov	r1, r1, lsr #5
 222 019c FEFFFFEB 		bl	_test_assert
 223              	.LVL46:
 224 01a0 000050E3 		cmp	r0, #0
 225 01a4 A5FFFF1A 		bne	.L1
 226              		.loc 1 117 0
 227 01a8 1010A0E3 		mov	r1, #16
 228 01ac 98019FE5 		ldr	r0, .L9
ARM GAS  /tmp/ccXo09QA.s 			page 5


 229 01b0 FEFFFFEB 		bl	chHeapAlloc
 230              	.LVL47:
 231              		.loc 1 120 0
 232 01b4 0D10A0E1 		mov	r1, sp
 233              		.loc 1 117 0
 234 01b8 0040A0E1 		mov	r4, r0
 235              	.LVL48:
 236              		.loc 1 120 0
 237 01bc 88019FE5 		ldr	r0, .L9
 238              	.LVL49:
 239 01c0 FEFFFFEB 		bl	chHeapStatus
 240              	.LVL50:
 241 01c4 010050E3 		cmp	r0, #1
 242 01c8 0010A001 		moveq	r1, r0
 243 01cc 0500000A 		beq	.L3
 244              		.loc 1 120 0 is_stmt 0 discriminator 2
 245 01d0 0D10A0E1 		mov	r1, sp
 246 01d4 70019FE5 		ldr	r0, .L9
 247 01d8 FEFFFFEB 		bl	chHeapStatus
 248              	.LVL51:
 249 01dc 021040E2 		sub	r1, r0, #2
 250 01e0 111F6FE1 		clz	r1, r1
 251 01e4 A112A0E1 		mov	r1, r1, lsr #5
 252              	.L3:
 253              		.loc 1 120 0 discriminator 6
 254 01e8 0600A0E3 		mov	r0, #6
 255 01ec FEFFFFEB 		bl	_test_assert
 256              	.LVL52:
 257 01f0 000050E3 		cmp	r0, #0
 258 01f4 91FFFF1A 		bne	.L1
 259              		.loc 1 122 0 is_stmt 1
 260 01f8 0500A0E1 		mov	r0, r5
 261 01fc FEFFFFEB 		bl	chHeapFree
 262              	.LVL53:
 263              		.loc 1 123 0
 264 0200 0400A0E1 		mov	r0, r4
 265 0204 FEFFFFEB 		bl	chHeapFree
 266              	.LVL54:
 267              		.loc 1 124 0
 268 0208 0D10A0E1 		mov	r1, sp
 269 020c 38019FE5 		ldr	r0, .L9
 270 0210 FEFFFFEB 		bl	chHeapStatus
 271              	.LVL55:
 272 0214 011040E2 		sub	r1, r0, #1
 273 0218 111F6FE1 		clz	r1, r1
 274 021c 0700A0E3 		mov	r0, #7
 275 0220 A112A0E1 		mov	r1, r1, lsr #5
 276 0224 FEFFFFEB 		bl	_test_assert
 277              	.LVL56:
 278 0228 000050E3 		cmp	r0, #0
 279 022c 83FFFF1A 		bne	.L1
 280              		.loc 1 127 0
 281 0230 1010A0E3 		mov	r1, #16
 282 0234 10019FE5 		ldr	r0, .L9
 283 0238 FEFFFFEB 		bl	chHeapAlloc
 284              	.LVL57:
 285              		.loc 1 128 0
ARM GAS  /tmp/ccXo09QA.s 			page 6


 286 023c 1010A0E3 		mov	r1, #16
 287              		.loc 1 127 0
 288 0240 0050A0E1 		mov	r5, r0
 289              	.LVL58:
 290              		.loc 1 128 0
 291 0244 00019FE5 		ldr	r0, .L9
 292              	.LVL59:
 293 0248 FEFFFFEB 		bl	chHeapAlloc
 294              	.LVL60:
 295 024c 0040A0E1 		mov	r4, r0
 296              	.LVL61:
 297              		.loc 1 129 0
 298 0250 0500A0E1 		mov	r0, r5
 299              	.LVL62:
 300 0254 FEFFFFEB 		bl	chHeapFree
 301              	.LVL63:
 302              		.loc 1 130 0
 303 0258 0D10A0E1 		mov	r1, sp
 304 025c E8009FE5 		ldr	r0, .L9
 305 0260 FEFFFFEB 		bl	chHeapStatus
 306              	.LVL64:
 307 0264 021040E2 		sub	r1, r0, #2
 308 0268 111F6FE1 		clz	r1, r1
 309 026c 0800A0E3 		mov	r0, #8
 310 0270 A112A0E1 		mov	r1, r1, lsr #5
 311 0274 FEFFFFEB 		bl	_test_assert
 312              	.LVL65:
 313 0278 000050E3 		cmp	r0, #0
 314 027c 6FFFFF1A 		bne	.L1
 315              		.loc 1 131 0
 316 0280 2010A0E3 		mov	r1, #32
 317 0284 C0009FE5 		ldr	r0, .L9
 318 0288 FEFFFFEB 		bl	chHeapAlloc
 319              	.LVL66:
 320              		.loc 1 132 0
 321 028c FEFFFFEB 		bl	chHeapFree
 322              	.LVL67:
 323              		.loc 1 133 0
 324 0290 0400A0E1 		mov	r0, r4
 325 0294 FEFFFFEB 		bl	chHeapFree
 326              	.LVL68:
 327              		.loc 1 134 0
 328 0298 0D10A0E1 		mov	r1, sp
 329 029c A8009FE5 		ldr	r0, .L9
 330 02a0 FEFFFFEB 		bl	chHeapStatus
 331              	.LVL69:
 332 02a4 011040E2 		sub	r1, r0, #1
 333 02a8 111F6FE1 		clz	r1, r1
 334 02ac 0900A0E3 		mov	r0, #9
 335 02b0 A112A0E1 		mov	r1, r1, lsr #5
 336 02b4 FEFFFFEB 		bl	_test_assert
 337              	.LVL70:
 338 02b8 000050E3 		cmp	r0, #0
 339 02bc 5FFFFF1A 		bne	.L1
 340              		.loc 1 137 0
 341 02c0 0D10A0E1 		mov	r1, sp
 342 02c4 80009FE5 		ldr	r0, .L9
ARM GAS  /tmp/ccXo09QA.s 			page 7


 343 02c8 FEFFFFEB 		bl	chHeapStatus
 344              	.LVL71:
 345              		.loc 1 138 0
 346 02cc 00109DE5 		ldr	r1, [sp]
 347 02d0 74009FE5 		ldr	r0, .L9
 348 02d4 FEFFFFEB 		bl	chHeapAlloc
 349              	.LVL72:
 350              		.loc 1 139 0
 351 02d8 0D10A0E1 		mov	r1, sp
 352              		.loc 1 138 0
 353 02dc 0040A0E1 		mov	r4, r0
 354              	.LVL73:
 355              		.loc 1 139 0
 356 02e0 64009FE5 		ldr	r0, .L9
 357              	.LVL74:
 358 02e4 FEFFFFEB 		bl	chHeapStatus
 359              	.LVL75:
 360 02e8 101F6FE1 		clz	r1, r0
 361 02ec 0A00A0E3 		mov	r0, #10
 362 02f0 A112A0E1 		mov	r1, r1, lsr #5
 363 02f4 FEFFFFEB 		bl	_test_assert
 364              	.LVL76:
 365 02f8 000050E3 		cmp	r0, #0
 366 02fc 4FFFFF1A 		bne	.L1
 367              		.loc 1 140 0
 368 0300 0400A0E1 		mov	r0, r4
 369 0304 FEFFFFEB 		bl	chHeapFree
 370              	.LVL77:
 371              		.loc 1 142 0
 372 0308 0D10A0E1 		mov	r1, sp
 373 030c 38009FE5 		ldr	r0, .L9
 374 0310 FEFFFFEB 		bl	chHeapStatus
 375              	.LVL78:
 376 0314 011040E2 		sub	r1, r0, #1
 377 0318 111F6FE1 		clz	r1, r1
 378 031c 0B00A0E3 		mov	r0, #11
 379 0320 A112A0E1 		mov	r1, r1, lsr #5
 380 0324 FEFFFFEB 		bl	_test_assert
 381              	.LVL79:
 382 0328 000050E3 		cmp	r0, #0
 383 032c 43FFFF1A 		bne	.L1
 384              		.loc 1 143 0
 385 0330 0A009DE8 		ldmia	sp, {r1, r3}
 386 0334 011063E0 		rsb	r1, r3, r1
 387 0338 111F6FE1 		clz	r1, r1
 388 033c 0C00A0E3 		mov	r0, #12
 389 0340 A112A0E1 		mov	r1, r1, lsr #5
 390 0344 FEFFFFEB 		bl	_test_assert
 391              	.LVL80:
 392 0348 3CFFFFEA 		b	.L1
 393              	.L10:
 394              		.align	2
 395              	.L9:
 396 034c 00000000 		.word	.LANCHOR0
 397              		.cfi_endproc
 398              	.LFE8:
 399              		.size	heap1_execute, .-heap1_execute
ARM GAS  /tmp/ccXo09QA.s 			page 8


 400              		.section	.text.heap1_setup,"ax",%progbits
 401              		.align	2
 402              		.type	heap1_setup, %function
 403              	heap1_setup:
 404              	.LFB7:
 405              		.loc 1 68 0
 406              		.cfi_startproc
 407              		@ args = 0, pretend = 0, frame = 0
 408              		@ frame_needed = 0, uses_anonymous_args = 0
 409              		@ link register save eliminated.
 410              		.loc 1 70 0
 411 0000 08009FE5 		ldr	r0, .L12
 412 0004 08109FE5 		ldr	r1, .L12+4
 413 0008 08209FE5 		ldr	r2, .L12+8
 414 000c FEFFFFEA 		b	chHeapInit
 415              	.LVL81:
 416              	.L13:
 417              		.align	2
 418              	.L12:
 419 0010 00000000 		.word	.LANCHOR0
 420 0014 00000000 		.word	test
 421 0018 78050000 		.word	1400
 422              		.cfi_endproc
 423              	.LFE7:
 424              		.size	heap1_setup, .-heap1_setup
 425              		.global	patternheap
 426              		.global	testheap1
 427              		.section	.rodata.patternheap,"a",%progbits
 428              		.align	2
 429              		.type	patternheap, %object
 430              		.size	patternheap, 8
 431              	patternheap:
 432 0000 00000000 		.word	testheap1
 433 0004 00000000 		.word	0
 434              		.section	.rodata.str1.4,"aMS",%progbits,1
 435              		.align	2
 436              	.LC0:
 437 0000 48656170 		.ascii	"Heap, allocation and fragmentation test\000"
 437      2C20616C 
 437      6C6F6361 
 437      74696F6E 
 437      20616E64 
 438              		.section	.rodata.testheap1,"a",%progbits
 439              		.align	2
 440              		.type	testheap1, %object
 441              		.size	testheap1, 16
 442              	testheap1:
 443 0000 00000000 		.word	.LC0
 444 0004 00000000 		.word	heap1_setup
 445 0008 00000000 		.word	0
 446 000c 00000000 		.word	heap1_execute
 447              		.section	.bss.test_heap,"aw",%nobits
 448              		.align	2
 449              		.set	.LANCHOR0,. + 0
 450              		.type	test_heap, %object
 451              		.size	test_heap, 28
 452              	test_heap:
ARM GAS  /tmp/ccXo09QA.s 			page 9


 453 0000 00000000 		.space	28
 453      00000000 
 453      00000000 
 453      00000000 
 453      00000000 
 454              		.text
 455              	.Letext0:
 456              		.file 2 "/usr/lib/gcc/arm-none-eabi/4.9.3/include/stddef.h"
 457              		.file 3 "/usr/include/newlib/machine/_default_types.h"
 458              		.file 4 "/usr/include/newlib/sys/_stdint.h"
 459              		.file 5 "../../os/ports/GCC/ARM/chtypes.h"
 460              		.file 6 "../../os/kernel/include/chlists.h"
 461              		.file 7 "../../os/kernel/include/chthreads.h"
 462              		.file 8 "../../os/ports/GCC/ARM/chcore.h"
 463              		.file 9 "../../os/kernel/include/chmtx.h"
 464              		.file 10 "../../os/kernel/include/chmemcore.h"
 465              		.file 11 "../../os/kernel/include/chheap.h"
 466              		.file 12 "../../test/test.h"
 467              		.section	.debug_info,"",%progbits
 468              	.Ldebug_info0:
 469 0000 B70B0000 		.4byte	0xbb7
 470 0004 0400     		.2byte	0x4
 471 0006 00000000 		.4byte	.Ldebug_abbrev0
 472 000a 04       		.byte	0x4
 473 000b 01       		.uleb128 0x1
 474 000c 78030000 		.4byte	.LASF87
 475 0010 01       		.byte	0x1
 476 0011 FC010000 		.4byte	.LASF88
 477 0015 01030000 		.4byte	.LASF89
 478 0019 00000000 		.4byte	.Ldebug_ranges0+0
 479 001d 00000000 		.4byte	0
 480 0021 00000000 		.4byte	.Ldebug_line0
 481 0025 02       		.uleb128 0x2
 482 0026 04       		.byte	0x4
 483 0027 05       		.byte	0x5
 484 0028 696E7400 		.ascii	"int\000"
 485 002c 03       		.uleb128 0x3
 486 002d 06000000 		.4byte	.LASF2
 487 0031 02       		.byte	0x2
 488 0032 D4       		.byte	0xd4
 489 0033 37000000 		.4byte	0x37
 490 0037 04       		.uleb128 0x4
 491 0038 04       		.byte	0x4
 492 0039 07       		.byte	0x7
 493 003a 13010000 		.4byte	.LASF0
 494 003e 04       		.uleb128 0x4
 495 003f 01       		.byte	0x1
 496 0040 06       		.byte	0x6
 497 0041 88000000 		.4byte	.LASF1
 498 0045 03       		.uleb128 0x3
 499 0046 14000000 		.4byte	.LASF3
 500 004a 03       		.byte	0x3
 501 004b 1D       		.byte	0x1d
 502 004c 50000000 		.4byte	0x50
 503 0050 04       		.uleb128 0x4
 504 0051 01       		.byte	0x1
 505 0052 08       		.byte	0x8
ARM GAS  /tmp/ccXo09QA.s 			page 10


 506 0053 1A020000 		.4byte	.LASF4
 507 0057 04       		.uleb128 0x4
 508 0058 02       		.byte	0x2
 509 0059 05       		.byte	0x5
 510 005a 3D020000 		.4byte	.LASF5
 511 005e 04       		.uleb128 0x4
 512 005f 02       		.byte	0x2
 513 0060 07       		.byte	0x7
 514 0061 4D010000 		.4byte	.LASF6
 515 0065 03       		.uleb128 0x3
 516 0066 DE020000 		.4byte	.LASF7
 517 006a 03       		.byte	0x3
 518 006b 3F       		.byte	0x3f
 519 006c 70000000 		.4byte	0x70
 520 0070 04       		.uleb128 0x4
 521 0071 04       		.byte	0x4
 522 0072 05       		.byte	0x5
 523 0073 CA000000 		.4byte	.LASF8
 524 0077 03       		.uleb128 0x3
 525 0078 EB000000 		.4byte	.LASF9
 526 007c 03       		.byte	0x3
 527 007d 41       		.byte	0x41
 528 007e 82000000 		.4byte	0x82
 529 0082 04       		.uleb128 0x4
 530 0083 04       		.byte	0x4
 531 0084 07       		.byte	0x7
 532 0085 20010000 		.4byte	.LASF10
 533 0089 04       		.uleb128 0x4
 534 008a 08       		.byte	0x8
 535 008b 05       		.byte	0x5
 536 008c 7A000000 		.4byte	.LASF11
 537 0090 04       		.uleb128 0x4
 538 0091 08       		.byte	0x8
 539 0092 07       		.byte	0x7
 540 0093 2B000000 		.4byte	.LASF12
 541 0097 03       		.uleb128 0x3
 542 0098 58030000 		.4byte	.LASF13
 543 009c 04       		.byte	0x4
 544 009d 14       		.byte	0x14
 545 009e 45000000 		.4byte	0x45
 546 00a2 03       		.uleb128 0x3
 547 00a3 12020000 		.4byte	.LASF14
 548 00a7 04       		.byte	0x4
 549 00a8 1F       		.byte	0x1f
 550 00a9 65000000 		.4byte	0x65
 551 00ad 03       		.uleb128 0x3
 552 00ae A2020000 		.4byte	.LASF15
 553 00b2 04       		.byte	0x4
 554 00b3 20       		.byte	0x20
 555 00b4 77000000 		.4byte	0x77
 556 00b8 03       		.uleb128 0x3
 557 00b9 9A000000 		.4byte	.LASF16
 558 00bd 05       		.byte	0x5
 559 00be 29       		.byte	0x29
 560 00bf A2000000 		.4byte	0xa2
 561 00c3 03       		.uleb128 0x3
 562 00c4 66010000 		.4byte	.LASF17
ARM GAS  /tmp/ccXo09QA.s 			page 11


 563 00c8 05       		.byte	0x5
 564 00c9 2A       		.byte	0x2a
 565 00ca 97000000 		.4byte	0x97
 566 00ce 03       		.uleb128 0x3
 567 00cf D3000000 		.4byte	.LASF18
 568 00d3 05       		.byte	0x5
 569 00d4 2B       		.byte	0x2b
 570 00d5 97000000 		.4byte	0x97
 571 00d9 03       		.uleb128 0x3
 572 00da DD010000 		.4byte	.LASF19
 573 00de 05       		.byte	0x5
 574 00df 2C       		.byte	0x2c
 575 00e0 97000000 		.4byte	0x97
 576 00e4 03       		.uleb128 0x3
 577 00e5 C0000000 		.4byte	.LASF20
 578 00e9 05       		.byte	0x5
 579 00ea 2D       		.byte	0x2d
 580 00eb 97000000 		.4byte	0x97
 581 00ef 03       		.uleb128 0x3
 582 00f0 F4010000 		.4byte	.LASF21
 583 00f4 05       		.byte	0x5
 584 00f5 2E       		.byte	0x2e
 585 00f6 AD000000 		.4byte	0xad
 586 00fa 03       		.uleb128 0x3
 587 00fb 60010000 		.4byte	.LASF22
 588 00ff 05       		.byte	0x5
 589 0100 2F       		.byte	0x2f
 590 0101 A2000000 		.4byte	0xa2
 591 0105 03       		.uleb128 0x3
 592 0106 7A010000 		.4byte	.LASF23
 593 010a 05       		.byte	0x5
 594 010b 31       		.byte	0x31
 595 010c AD000000 		.4byte	0xad
 596 0110 03       		.uleb128 0x3
 597 0111 C9020000 		.4byte	.LASF24
 598 0115 05       		.byte	0x5
 599 0116 33       		.byte	0x33
 600 0117 AD000000 		.4byte	0xad
 601 011b 03       		.uleb128 0x3
 602 011c 7B020000 		.4byte	.LASF25
 603 0120 06       		.byte	0x6
 604 0121 23       		.byte	0x23
 605 0122 26010000 		.4byte	0x126
 606 0126 05       		.uleb128 0x5
 607 0127 7B020000 		.4byte	.LASF25
 608 012b 44       		.byte	0x44
 609 012c 07       		.byte	0x7
 610 012d 57       		.byte	0x57
 611 012e 17020000 		.4byte	0x217
 612 0132 06       		.uleb128 0x6
 613 0133 6C020000 		.4byte	.LASF26
 614 0137 07       		.byte	0x7
 615 0138 58       		.byte	0x58
 616 0139 38020000 		.4byte	0x238
 617 013d 00       		.byte	0
 618 013e 06       		.uleb128 0x6
 619 013f E5010000 		.4byte	.LASF27
ARM GAS  /tmp/ccXo09QA.s 			page 12


 620 0143 07       		.byte	0x7
 621 0144 5A       		.byte	0x5a
 622 0145 38020000 		.4byte	0x238
 623 0149 04       		.byte	0x4
 624 014a 06       		.uleb128 0x6
 625 014b 67000000 		.4byte	.LASF28
 626 014f 07       		.byte	0x7
 627 0150 5C       		.byte	0x5c
 628 0151 EF000000 		.4byte	0xef
 629 0155 08       		.byte	0x8
 630 0156 06       		.uleb128 0x6
 631 0157 19040000 		.4byte	.LASF29
 632 015b 07       		.byte	0x7
 633 015c 5D       		.byte	0x5d
 634 015d F3020000 		.4byte	0x2f3
 635 0161 0C       		.byte	0xc
 636 0162 06       		.uleb128 0x6
 637 0163 E3000000 		.4byte	.LASF30
 638 0167 07       		.byte	0x7
 639 0168 5F       		.byte	0x5f
 640 0169 38020000 		.4byte	0x238
 641 016d 10       		.byte	0x10
 642 016e 06       		.uleb128 0x6
 643 016f B7010000 		.4byte	.LASF31
 644 0173 07       		.byte	0x7
 645 0174 60       		.byte	0x60
 646 0175 38020000 		.4byte	0x238
 647 0179 14       		.byte	0x14
 648 017a 06       		.uleb128 0x6
 649 017b 71030000 		.4byte	.LASF32
 650 017f 07       		.byte	0x7
 651 0180 67       		.byte	0x67
 652 0181 55040000 		.4byte	0x455
 653 0185 18       		.byte	0x18
 654 0186 06       		.uleb128 0x6
 655 0187 47020000 		.4byte	.LASF33
 656 018b 07       		.byte	0x7
 657 018c 72       		.byte	0x72
 658 018d CE000000 		.4byte	0xce
 659 0191 1C       		.byte	0x1c
 660 0192 06       		.uleb128 0x6
 661 0193 73020000 		.4byte	.LASF34
 662 0197 07       		.byte	0x7
 663 0198 76       		.byte	0x76
 664 0199 C3000000 		.4byte	0xc3
 665 019d 1D       		.byte	0x1d
 666 019e 06       		.uleb128 0x6
 667 019f 51030000 		.4byte	.LASF35
 668 01a3 07       		.byte	0x7
 669 01a4 7B       		.byte	0x7b
 670 01a5 D9000000 		.4byte	0xd9
 671 01a9 1E       		.byte	0x1e
 672 01aa 06       		.uleb128 0x6
 673 01ab 4F020000 		.4byte	.LASF36
 674 01af 07       		.byte	0x7
 675 01b0 81       		.byte	0x81
 676 01b1 E4000000 		.4byte	0xe4
ARM GAS  /tmp/ccXo09QA.s 			page 13


 677 01b5 1F       		.byte	0x1f
 678 01b6 06       		.uleb128 0x6
 679 01b7 E8020000 		.4byte	.LASF37
 680 01bb 07       		.byte	0x7
 681 01bc 88       		.byte	0x88
 682 01bd 12030000 		.4byte	0x312
 683 01c1 20       		.byte	0x20
 684 01c2 07       		.uleb128 0x7
 685 01c3 705F7500 		.ascii	"p_u\000"
 686 01c7 07       		.byte	0x7
 687 01c8 AD       		.byte	0xad
 688 01c9 20040000 		.4byte	0x420
 689 01cd 24       		.byte	0x24
 690 01ce 06       		.uleb128 0x6
 691 01cf 1F040000 		.4byte	.LASF38
 692 01d3 07       		.byte	0x7
 693 01d4 B2       		.byte	0xb2
 694 01d5 5E020000 		.4byte	0x25e
 695 01d9 28       		.byte	0x28
 696 01da 06       		.uleb128 0x6
 697 01db F6020000 		.4byte	.LASF39
 698 01df 07       		.byte	0x7
 699 01e0 B8       		.byte	0xb8
 700 01e1 3E020000 		.4byte	0x23e
 701 01e5 2C       		.byte	0x2c
 702 01e6 06       		.uleb128 0x6
 703 01e7 00000000 		.4byte	.LASF40
 704 01eb 07       		.byte	0x7
 705 01ec BC       		.byte	0xbc
 706 01ed FA000000 		.4byte	0xfa
 707 01f1 34       		.byte	0x34
 708 01f2 06       		.uleb128 0x6
 709 01f3 97020000 		.4byte	.LASF41
 710 01f7 07       		.byte	0x7
 711 01f8 C2       		.byte	0xc2
 712 01f9 05010000 		.4byte	0x105
 713 01fd 38       		.byte	0x38
 714 01fe 06       		.uleb128 0x6
 715 01ff 33020000 		.4byte	.LASF42
 716 0203 07       		.byte	0x7
 717 0204 C9       		.byte	0xc9
 718 0205 67040000 		.4byte	0x467
 719 0209 3C       		.byte	0x3c
 720 020a 06       		.uleb128 0x6
 721 020b D3020000 		.4byte	.LASF43
 722 020f 07       		.byte	0x7
 723 0210 CD       		.byte	0xcd
 724 0211 EF000000 		.4byte	0xef
 725 0215 40       		.byte	0x40
 726 0216 00       		.byte	0
 727 0217 08       		.uleb128 0x8
 728 0218 08       		.byte	0x8
 729 0219 06       		.byte	0x6
 730 021a 5A       		.byte	0x5a
 731 021b 38020000 		.4byte	0x238
 732 021f 06       		.uleb128 0x6
 733 0220 6C020000 		.4byte	.LASF26
ARM GAS  /tmp/ccXo09QA.s 			page 14


 734 0224 06       		.byte	0x6
 735 0225 5B       		.byte	0x5b
 736 0226 38020000 		.4byte	0x238
 737 022a 00       		.byte	0
 738 022b 06       		.uleb128 0x6
 739 022c E5010000 		.4byte	.LASF27
 740 0230 06       		.byte	0x6
 741 0231 5D       		.byte	0x5d
 742 0232 38020000 		.4byte	0x238
 743 0236 04       		.byte	0x4
 744 0237 00       		.byte	0
 745 0238 09       		.uleb128 0x9
 746 0239 04       		.byte	0x4
 747 023a 1B010000 		.4byte	0x11b
 748 023e 03       		.uleb128 0x3
 749 023f BF010000 		.4byte	.LASF44
 750 0243 06       		.byte	0x6
 751 0244 5F       		.byte	0x5f
 752 0245 17020000 		.4byte	0x217
 753 0249 08       		.uleb128 0x8
 754 024a 04       		.byte	0x4
 755 024b 06       		.byte	0x6
 756 024c 64       		.byte	0x64
 757 024d 5E020000 		.4byte	0x25e
 758 0251 06       		.uleb128 0x6
 759 0252 6C020000 		.4byte	.LASF26
 760 0256 06       		.byte	0x6
 761 0257 66       		.byte	0x66
 762 0258 38020000 		.4byte	0x238
 763 025c 00       		.byte	0
 764 025d 00       		.byte	0
 765 025e 03       		.uleb128 0x3
 766 025f 6E010000 		.4byte	.LASF45
 767 0263 06       		.byte	0x6
 768 0264 69       		.byte	0x69
 769 0265 49020000 		.4byte	0x249
 770 0269 03       		.uleb128 0x3
 771 026a 8C010000 		.4byte	.LASF46
 772 026e 08       		.byte	0x8
 773 026f 9D       		.byte	0x9d
 774 0270 AD000000 		.4byte	0xad
 775 0274 03       		.uleb128 0x3
 776 0275 F6000000 		.4byte	.LASF47
 777 0279 08       		.byte	0x8
 778 027a A2       		.byte	0xa2
 779 027b 7F020000 		.4byte	0x27f
 780 027f 0A       		.uleb128 0xa
 781 0280 04       		.byte	0x4
 782 0281 05       		.uleb128 0x5
 783 0282 EF020000 		.4byte	.LASF48
 784 0286 24       		.byte	0x24
 785 0287 08       		.byte	0x8
 786 0288 B9       		.byte	0xb9
 787 0289 F3020000 		.4byte	0x2f3
 788 028d 07       		.uleb128 0x7
 789 028e 723400   		.ascii	"r4\000"
 790 0291 08       		.byte	0x8
ARM GAS  /tmp/ccXo09QA.s 			page 15


 791 0292 BA       		.byte	0xba
 792 0293 74020000 		.4byte	0x274
 793 0297 00       		.byte	0
 794 0298 07       		.uleb128 0x7
 795 0299 723500   		.ascii	"r5\000"
 796 029c 08       		.byte	0x8
 797 029d BB       		.byte	0xbb
 798 029e 74020000 		.4byte	0x274
 799 02a2 04       		.byte	0x4
 800 02a3 07       		.uleb128 0x7
 801 02a4 723600   		.ascii	"r6\000"
 802 02a7 08       		.byte	0x8
 803 02a8 BC       		.byte	0xbc
 804 02a9 74020000 		.4byte	0x274
 805 02ad 08       		.byte	0x8
 806 02ae 07       		.uleb128 0x7
 807 02af 723700   		.ascii	"r7\000"
 808 02b2 08       		.byte	0x8
 809 02b3 BD       		.byte	0xbd
 810 02b4 74020000 		.4byte	0x274
 811 02b8 0C       		.byte	0xc
 812 02b9 07       		.uleb128 0x7
 813 02ba 723800   		.ascii	"r8\000"
 814 02bd 08       		.byte	0x8
 815 02be BE       		.byte	0xbe
 816 02bf 74020000 		.4byte	0x274
 817 02c3 10       		.byte	0x10
 818 02c4 07       		.uleb128 0x7
 819 02c5 723900   		.ascii	"r9\000"
 820 02c8 08       		.byte	0x8
 821 02c9 BF       		.byte	0xbf
 822 02ca 74020000 		.4byte	0x274
 823 02ce 14       		.byte	0x14
 824 02cf 07       		.uleb128 0x7
 825 02d0 72313000 		.ascii	"r10\000"
 826 02d4 08       		.byte	0x8
 827 02d5 C0       		.byte	0xc0
 828 02d6 74020000 		.4byte	0x274
 829 02da 18       		.byte	0x18
 830 02db 07       		.uleb128 0x7
 831 02dc 72313100 		.ascii	"r11\000"
 832 02e0 08       		.byte	0x8
 833 02e1 C1       		.byte	0xc1
 834 02e2 74020000 		.4byte	0x274
 835 02e6 1C       		.byte	0x1c
 836 02e7 07       		.uleb128 0x7
 837 02e8 6C7200   		.ascii	"lr\000"
 838 02eb 08       		.byte	0x8
 839 02ec C2       		.byte	0xc2
 840 02ed 74020000 		.4byte	0x274
 841 02f1 20       		.byte	0x20
 842 02f2 00       		.byte	0
 843 02f3 05       		.uleb128 0x5
 844 02f4 40010000 		.4byte	.LASF49
 845 02f8 04       		.byte	0x4
 846 02f9 08       		.byte	0x8
 847 02fa CA       		.byte	0xca
ARM GAS  /tmp/ccXo09QA.s 			page 16


 848 02fb 0C030000 		.4byte	0x30c
 849 02ff 07       		.uleb128 0x7
 850 0300 72313300 		.ascii	"r13\000"
 851 0304 08       		.byte	0x8
 852 0305 CB       		.byte	0xcb
 853 0306 0C030000 		.4byte	0x30c
 854 030a 00       		.byte	0
 855 030b 00       		.byte	0
 856 030c 09       		.uleb128 0x9
 857 030d 04       		.byte	0x4
 858 030e 81020000 		.4byte	0x281
 859 0312 0B       		.uleb128 0xb
 860 0313 10010000 		.4byte	0x110
 861 0317 05       		.uleb128 0x5
 862 0318 86010000 		.4byte	.LASF50
 863 031c 10       		.byte	0x10
 864 031d 09       		.byte	0x9
 865 031e 25       		.byte	0x25
 866 031f 48030000 		.4byte	0x348
 867 0323 06       		.uleb128 0x6
 868 0324 A1000000 		.4byte	.LASF51
 869 0328 09       		.byte	0x9
 870 0329 26       		.byte	0x26
 871 032a 3E020000 		.4byte	0x23e
 872 032e 00       		.byte	0
 873 032f 06       		.uleb128 0x6
 874 0330 11040000 		.4byte	.LASF52
 875 0334 09       		.byte	0x9
 876 0335 28       		.byte	0x28
 877 0336 38020000 		.4byte	0x238
 878 033a 08       		.byte	0x8
 879 033b 06       		.uleb128 0x6
 880 033c C2020000 		.4byte	.LASF53
 881 0340 09       		.byte	0x9
 882 0341 2A       		.byte	0x2a
 883 0342 48030000 		.4byte	0x348
 884 0346 0C       		.byte	0xc
 885 0347 00       		.byte	0
 886 0348 09       		.uleb128 0x9
 887 0349 04       		.byte	0x4
 888 034a 17030000 		.4byte	0x317
 889 034e 03       		.uleb128 0x3
 890 034f 86010000 		.4byte	.LASF50
 891 0353 09       		.byte	0x9
 892 0354 2C       		.byte	0x2c
 893 0355 17030000 		.4byte	0x317
 894 0359 03       		.uleb128 0x3
 895 035a 1E000000 		.4byte	.LASF54
 896 035e 0A       		.byte	0xa
 897 035f 25       		.byte	0x25
 898 0360 64030000 		.4byte	0x364
 899 0364 09       		.uleb128 0x9
 900 0365 04       		.byte	0x4
 901 0366 6A030000 		.4byte	0x36a
 902 036a 0C       		.uleb128 0xc
 903 036b 7F020000 		.4byte	0x27f
 904 036f 79030000 		.4byte	0x379
ARM GAS  /tmp/ccXo09QA.s 			page 17


 905 0373 0D       		.uleb128 0xd
 906 0374 2C000000 		.4byte	0x2c
 907 0378 00       		.byte	0
 908 0379 03       		.uleb128 0x3
 909 037a D2010000 		.4byte	.LASF55
 910 037e 0B       		.byte	0xb
 911 037f 2D       		.byte	0x2d
 912 0380 84030000 		.4byte	0x384
 913 0384 05       		.uleb128 0x5
 914 0385 29040000 		.4byte	.LASF56
 915 0389 1C       		.byte	0x1c
 916 038a 0B       		.byte	0xb
 917 038b 40       		.byte	0x40
 918 038c B5030000 		.4byte	0x3b5
 919 0390 06       		.uleb128 0x6
 920 0391 28020000 		.4byte	.LASF57
 921 0395 0B       		.byte	0xb
 922 0396 41       		.byte	0x41
 923 0397 59030000 		.4byte	0x359
 924 039b 00       		.byte	0
 925 039c 06       		.uleb128 0x6
 926 039d 4B000000 		.4byte	.LASF58
 927 03a1 0B       		.byte	0xb
 928 03a2 43       		.byte	0x43
 929 03a3 D4030000 		.4byte	0x3d4
 930 03a7 04       		.byte	0x4
 931 03a8 06       		.uleb128 0x6
 932 03a9 94000000 		.4byte	.LASF59
 933 03ad 0B       		.byte	0xb
 934 03ae 45       		.byte	0x45
 935 03af 4E030000 		.4byte	0x34e
 936 03b3 0C       		.byte	0xc
 937 03b4 00       		.byte	0
 938 03b5 0E       		.uleb128 0xe
 939 03b6 04       		.byte	0x4
 940 03b7 0B       		.byte	0xb
 941 03b8 35       		.byte	0x35
 942 03b9 D4030000 		.4byte	0x3d4
 943 03bd 0F       		.uleb128 0xf
 944 03be 62000000 		.4byte	.LASF60
 945 03c2 0B       		.byte	0xb
 946 03c3 36       		.byte	0x36
 947 03c4 F5030000 		.4byte	0x3f5
 948 03c8 0F       		.uleb128 0xf
 949 03c9 AB020000 		.4byte	.LASF61
 950 03cd 0B       		.byte	0xb
 951 03ce 37       		.byte	0x37
 952 03cf FB030000 		.4byte	0x3fb
 953 03d3 00       		.byte	0
 954 03d4 10       		.uleb128 0x10
 955 03d5 59020000 		.4byte	.LASF75
 956 03d9 08       		.byte	0x8
 957 03da 0B       		.byte	0xb
 958 03db 32       		.byte	0x32
 959 03dc F5030000 		.4byte	0x3f5
 960 03e0 0F       		.uleb128 0xf
 961 03e1 0D010000 		.4byte	.LASF62
ARM GAS  /tmp/ccXo09QA.s 			page 18


 962 03e5 0B       		.byte	0xb
 963 03e6 33       		.byte	0x33
 964 03e7 69020000 		.4byte	0x269
 965 03eb 11       		.uleb128 0x11
 966 03ec 6800     		.ascii	"h\000"
 967 03ee 0B       		.byte	0xb
 968 03ef 3A       		.byte	0x3a
 969 03f0 01040000 		.4byte	0x401
 970 03f4 00       		.byte	0
 971 03f5 09       		.uleb128 0x9
 972 03f6 04       		.byte	0x4
 973 03f7 D4030000 		.4byte	0x3d4
 974 03fb 09       		.uleb128 0x9
 975 03fc 04       		.byte	0x4
 976 03fd 79030000 		.4byte	0x379
 977 0401 08       		.uleb128 0x8
 978 0402 08       		.byte	0x8
 979 0403 0B       		.byte	0xb
 980 0404 34       		.byte	0x34
 981 0405 20040000 		.4byte	0x420
 982 0409 07       		.uleb128 0x7
 983 040a 7500     		.ascii	"u\000"
 984 040c 0B       		.byte	0xb
 985 040d 38       		.byte	0x38
 986 040e B5030000 		.4byte	0x3b5
 987 0412 00       		.byte	0
 988 0413 06       		.uleb128 0x6
 989 0414 48010000 		.4byte	.LASF63
 990 0418 0B       		.byte	0xb
 991 0419 39       		.byte	0x39
 992 041a 2C000000 		.4byte	0x2c
 993 041e 04       		.byte	0x4
 994 041f 00       		.byte	0
 995 0420 0E       		.uleb128 0xe
 996 0421 04       		.byte	0x4
 997 0422 07       		.byte	0x7
 998 0423 8F       		.byte	0x8f
 999 0424 55040000 		.4byte	0x455
 1000 0428 0F       		.uleb128 0xf
 1001 0429 0D000000 		.4byte	.LASF64
 1002 042d 07       		.byte	0x7
 1003 042e 96       		.byte	0x96
 1004 042f FA000000 		.4byte	0xfa
 1005 0433 0F       		.uleb128 0xf
 1006 0434 42000000 		.4byte	.LASF65
 1007 0438 07       		.byte	0x7
 1008 0439 9D       		.byte	0x9d
 1009 043a FA000000 		.4byte	0xfa
 1010 043e 0F       		.uleb128 0xf
 1011 043f 6A030000 		.4byte	.LASF66
 1012 0443 07       		.byte	0x7
 1013 0444 A4       		.byte	0xa4
 1014 0445 7F020000 		.4byte	0x27f
 1015 0449 0F       		.uleb128 0xf
 1016 044a 65020000 		.4byte	.LASF67
 1017 044e 07       		.byte	0x7
 1018 044f AB       		.byte	0xab
ARM GAS  /tmp/ccXo09QA.s 			page 19


 1019 0450 05010000 		.4byte	0x105
 1020 0454 00       		.byte	0
 1021 0455 09       		.uleb128 0x9
 1022 0456 04       		.byte	0x4
 1023 0457 5B040000 		.4byte	0x45b
 1024 045b 12       		.uleb128 0x12
 1025 045c 60040000 		.4byte	0x460
 1026 0460 04       		.uleb128 0x4
 1027 0461 01       		.byte	0x1
 1028 0462 08       		.byte	0x8
 1029 0463 B0020000 		.4byte	.LASF68
 1030 0467 09       		.uleb128 0x9
 1031 0468 04       		.byte	0x4
 1032 0469 4E030000 		.4byte	0x34e
 1033 046d 04       		.uleb128 0x4
 1034 046e 04       		.byte	0x4
 1035 046f 07       		.byte	0x7
 1036 0470 A1010000 		.4byte	.LASF69
 1037 0474 05       		.uleb128 0x5
 1038 0475 8E020000 		.4byte	.LASF70
 1039 0479 10       		.byte	0x10
 1040 047a 0C       		.byte	0xc
 1041 047b 3F       		.byte	0x3f
 1042 047c B1040000 		.4byte	0x4b1
 1043 0480 06       		.uleb128 0x6
 1044 0481 3B010000 		.4byte	.LASF71
 1045 0485 0C       		.byte	0xc
 1046 0486 40       		.byte	0x40
 1047 0487 55040000 		.4byte	0x455
 1048 048b 00       		.byte	0
 1049 048c 06       		.uleb128 0x6
 1050 048d CC010000 		.4byte	.LASF72
 1051 0491 0C       		.byte	0xc
 1052 0492 41       		.byte	0x41
 1053 0493 B2040000 		.4byte	0x4b2
 1054 0497 04       		.byte	0x4
 1055 0498 06       		.uleb128 0x6
 1056 0499 32010000 		.4byte	.LASF73
 1057 049d 0C       		.byte	0xc
 1058 049e 42       		.byte	0x42
 1059 049f B2040000 		.4byte	0x4b2
 1060 04a3 08       		.byte	0x8
 1061 04a4 06       		.uleb128 0x6
 1062 04a5 EC010000 		.4byte	.LASF74
 1063 04a9 0C       		.byte	0xc
 1064 04aa 43       		.byte	0x43
 1065 04ab B2040000 		.4byte	0x4b2
 1066 04af 0C       		.byte	0xc
 1067 04b0 00       		.byte	0
 1068 04b1 13       		.uleb128 0x13
 1069 04b2 09       		.uleb128 0x9
 1070 04b3 04       		.byte	0x4
 1071 04b4 B1040000 		.4byte	0x4b1
 1072 04b8 14       		.uleb128 0x14
 1073 04b9 7805     		.2byte	0x578
 1074 04bb 0C       		.byte	0xc
 1075 04bc 48       		.byte	0x48
ARM GAS  /tmp/ccXo09QA.s 			page 20


 1076 04bd FD040000 		.4byte	0x4fd
 1077 04c1 07       		.uleb128 0x7
 1078 04c2 543000   		.ascii	"T0\000"
 1079 04c5 0C       		.byte	0xc
 1080 04c6 49       		.byte	0x49
 1081 04c7 FD040000 		.4byte	0x4fd
 1082 04cb 00       		.byte	0
 1083 04cc 15       		.uleb128 0x15
 1084 04cd 543100   		.ascii	"T1\000"
 1085 04d0 0C       		.byte	0xc
 1086 04d1 4A       		.byte	0x4a
 1087 04d2 FD040000 		.4byte	0x4fd
 1088 04d6 1801     		.2byte	0x118
 1089 04d8 15       		.uleb128 0x15
 1090 04d9 543200   		.ascii	"T2\000"
 1091 04dc 0C       		.byte	0xc
 1092 04dd 4B       		.byte	0x4b
 1093 04de FD040000 		.4byte	0x4fd
 1094 04e2 3002     		.2byte	0x230
 1095 04e4 15       		.uleb128 0x15
 1096 04e5 543300   		.ascii	"T3\000"
 1097 04e8 0C       		.byte	0xc
 1098 04e9 4C       		.byte	0x4c
 1099 04ea FD040000 		.4byte	0x4fd
 1100 04ee 4803     		.2byte	0x348
 1101 04f0 15       		.uleb128 0x15
 1102 04f1 543400   		.ascii	"T4\000"
 1103 04f4 0C       		.byte	0xc
 1104 04f5 4D       		.byte	0x4d
 1105 04f6 FD040000 		.4byte	0x4fd
 1106 04fa 6004     		.2byte	0x460
 1107 04fc 00       		.byte	0
 1108 04fd 16       		.uleb128 0x16
 1109 04fe 69020000 		.4byte	0x269
 1110 0502 0D050000 		.4byte	0x50d
 1111 0506 17       		.uleb128 0x17
 1112 0507 6D040000 		.4byte	0x46d
 1113 050b 45       		.byte	0x45
 1114 050c 00       		.byte	0
 1115 050d 18       		.uleb128 0x18
 1116 050e 44030000 		.4byte	.LASF76
 1117 0512 7805     		.2byte	0x578
 1118 0514 0C       		.byte	0xc
 1119 0515 47       		.byte	0x47
 1120 0516 30050000 		.4byte	0x530
 1121 051a 11       		.uleb128 0x11
 1122 051b 776100   		.ascii	"wa\000"
 1123 051e 0C       		.byte	0xc
 1124 051f 4E       		.byte	0x4e
 1125 0520 B8040000 		.4byte	0x4b8
 1126 0524 0F       		.uleb128 0xf
 1127 0525 DC000000 		.4byte	.LASF77
 1128 0529 0C       		.byte	0xc
 1129 052a 4F       		.byte	0x4f
 1130 052b 30050000 		.4byte	0x530
 1131 052f 00       		.byte	0
 1132 0530 16       		.uleb128 0x16
ARM GAS  /tmp/ccXo09QA.s 			page 21


 1133 0531 97000000 		.4byte	0x97
 1134 0535 41050000 		.4byte	0x541
 1135 0539 19       		.uleb128 0x19
 1136 053a 6D040000 		.4byte	0x46d
 1137 053e 7705     		.2byte	0x577
 1138 0540 00       		.byte	0
 1139 0541 1A       		.uleb128 0x1a
 1140 0542 FF000000 		.4byte	.LASF78
 1141 0546 01       		.byte	0x1
 1142 0547 49       		.byte	0x49
 1143 0548 00000000 		.4byte	.LFB8
 1144 054c 50030000 		.4byte	.LFE8-.LFB8
 1145 0550 01       		.uleb128 0x1
 1146 0551 9C       		.byte	0x9c
 1147 0552 A50A0000 		.4byte	0xaa5
 1148 0556 1B       		.uleb128 0x1b
 1149 0557 703100   		.ascii	"p1\000"
 1150 055a 01       		.byte	0x1
 1151 055b 4A       		.byte	0x4a
 1152 055c 7F020000 		.4byte	0x27f
 1153 0560 00000000 		.4byte	.LLST0
 1154 0564 1B       		.uleb128 0x1b
 1155 0565 703200   		.ascii	"p2\000"
 1156 0568 01       		.byte	0x1
 1157 0569 4A       		.byte	0x4a
 1158 056a 7F020000 		.4byte	0x27f
 1159 056e C3000000 		.4byte	.LLST1
 1160 0572 1B       		.uleb128 0x1b
 1161 0573 703300   		.ascii	"p3\000"
 1162 0576 01       		.byte	0x1
 1163 0577 4A       		.byte	0x4a
 1164 0578 7F020000 		.4byte	0x27f
 1165 057c 23010000 		.4byte	.LLST2
 1166 0580 1C       		.uleb128 0x1c
 1167 0581 6E00     		.ascii	"n\000"
 1168 0583 01       		.byte	0x1
 1169 0584 4B       		.byte	0x4b
 1170 0585 2C000000 		.4byte	0x2c
 1171 0589 02       		.uleb128 0x2
 1172 058a 91       		.byte	0x91
 1173 058b 68       		.sleb128 -24
 1174 058c 1C       		.uleb128 0x1c
 1175 058d 737A00   		.ascii	"sz\000"
 1176 0590 01       		.byte	0x1
 1177 0591 4B       		.byte	0x4b
 1178 0592 2C000000 		.4byte	0x2c
 1179 0596 02       		.uleb128 0x2
 1180 0597 91       		.byte	0x91
 1181 0598 6C       		.sleb128 -20
 1182 0599 1D       		.uleb128 0x1d
 1183 059a 0C000000 		.4byte	.LVL0
 1184 059e 330B0000 		.4byte	0xb33
 1185 05a2 1E       		.uleb128 0x1e
 1186 05a3 18000000 		.4byte	.LVL1
 1187 05a7 3E0B0000 		.4byte	0xb3e
 1188 05ab BB050000 		.4byte	0x5bb
 1189 05af 1F       		.uleb128 0x1f
ARM GAS  /tmp/ccXo09QA.s 			page 22


 1190 05b0 01       		.uleb128 0x1
 1191 05b1 51       		.byte	0x51
 1192 05b2 02       		.uleb128 0x2
 1193 05b3 91       		.byte	0x91
 1194 05b4 64       		.sleb128 -28
 1195 05b5 1F       		.uleb128 0x1f
 1196 05b6 01       		.uleb128 0x1
 1197 05b7 50       		.byte	0x50
 1198 05b8 01       		.uleb128 0x1
 1199 05b9 30       		.byte	0x30
 1200 05ba 00       		.byte	0
 1201 05bb 1E       		.uleb128 0x1e
 1202 05bc 24000000 		.4byte	.LVL2
 1203 05c0 5E0B0000 		.4byte	0xb5e
 1204 05c4 D3050000 		.4byte	0x5d3
 1205 05c8 1F       		.uleb128 0x1f
 1206 05c9 01       		.uleb128 0x1
 1207 05ca 51       		.byte	0x51
 1208 05cb 01       		.uleb128 0x1
 1209 05cc 40       		.byte	0x40
 1210 05cd 1F       		.uleb128 0x1f
 1211 05ce 01       		.uleb128 0x1
 1212 05cf 50       		.byte	0x50
 1213 05d0 01       		.uleb128 0x1
 1214 05d1 30       		.byte	0x30
 1215 05d2 00       		.byte	0
 1216 05d3 1E       		.uleb128 0x1e
 1217 05d4 38000000 		.4byte	.LVL4
 1218 05d8 780B0000 		.4byte	0xb78
 1219 05dc F6050000 		.4byte	0x5f6
 1220 05e0 1F       		.uleb128 0x1f
 1221 05e1 01       		.uleb128 0x1
 1222 05e2 51       		.byte	0x51
 1223 05e3 0C       		.uleb128 0xc
 1224 05e4 31       		.byte	0x31
 1225 05e5 74       		.byte	0x74
 1226 05e6 00       		.sleb128 0
 1227 05e7 74       		.byte	0x74
 1228 05e8 00       		.sleb128 0
 1229 05e9 30       		.byte	0x30
 1230 05ea 2E       		.byte	0x2e
 1231 05eb 28       		.byte	0x28
 1232 05ec 0100     		.2byte	0x1
 1233 05ee 16       		.byte	0x16
 1234 05ef 13       		.byte	0x13
 1235 05f0 1F       		.uleb128 0x1f
 1236 05f1 01       		.uleb128 0x1
 1237 05f2 50       		.byte	0x50
 1238 05f3 01       		.uleb128 0x1
 1239 05f4 31       		.byte	0x31
 1240 05f5 00       		.byte	0
 1241 05f6 1E       		.uleb128 0x1e
 1242 05f7 50000000 		.4byte	.LVL7
 1243 05fb 920B0000 		.4byte	0xb92
 1244 05ff 0A060000 		.4byte	0x60a
 1245 0603 1F       		.uleb128 0x1f
 1246 0604 01       		.uleb128 0x1
ARM GAS  /tmp/ccXo09QA.s 			page 23


 1247 0605 50       		.byte	0x50
 1248 0606 02       		.uleb128 0x2
 1249 0607 74       		.byte	0x74
 1250 0608 00       		.sleb128 0
 1251 0609 00       		.byte	0
 1252 060a 1E       		.uleb128 0x1e
 1253 060b 5C000000 		.4byte	.LVL8
 1254 060f 5E0B0000 		.4byte	0xb5e
 1255 0613 25060000 		.4byte	0x625
 1256 0617 1F       		.uleb128 0x1f
 1257 0618 01       		.uleb128 0x1
 1258 0619 51       		.byte	0x51
 1259 061a 03       		.uleb128 0x3
 1260 061b 0B       		.byte	0xb
 1261 061c 00FF     		.2byte	0xff00
 1262 061e 1F       		.uleb128 0x1f
 1263 061f 01       		.uleb128 0x1
 1264 0620 50       		.byte	0x50
 1265 0621 02       		.uleb128 0x2
 1266 0622 75       		.byte	0x75
 1267 0623 00       		.sleb128 0
 1268 0624 00       		.byte	0
 1269 0625 1E       		.uleb128 0x1e
 1270 0626 6C000000 		.4byte	.LVL10
 1271 062a 780B0000 		.4byte	0xb78
 1272 062e 38060000 		.4byte	0x638
 1273 0632 1F       		.uleb128 0x1f
 1274 0633 01       		.uleb128 0x1
 1275 0634 50       		.byte	0x50
 1276 0635 01       		.uleb128 0x1
 1277 0636 32       		.byte	0x32
 1278 0637 00       		.byte	0
 1279 0638 1E       		.uleb128 0x1e
 1280 0639 80000000 		.4byte	.LVL11
 1281 063d 3E0B0000 		.4byte	0xb3e
 1282 0641 55060000 		.4byte	0x655
 1283 0645 1F       		.uleb128 0x1f
 1284 0646 01       		.uleb128 0x1
 1285 0647 51       		.byte	0x51
 1286 0648 02       		.uleb128 0x2
 1287 0649 91       		.byte	0x91
 1288 064a 64       		.sleb128 -28
 1289 064b 1F       		.uleb128 0x1f
 1290 064c 01       		.uleb128 0x1
 1291 064d 50       		.byte	0x50
 1292 064e 05       		.uleb128 0x5
 1293 064f 03       		.byte	0x3
 1294 0650 00000000 		.4byte	.LANCHOR0
 1295 0654 00       		.byte	0
 1296 0655 1E       		.uleb128 0x1e
 1297 0656 8C000000 		.4byte	.LVL12
 1298 065a 5E0B0000 		.4byte	0xb5e
 1299 065e 71060000 		.4byte	0x671
 1300 0662 1F       		.uleb128 0x1f
 1301 0663 01       		.uleb128 0x1
 1302 0664 51       		.byte	0x51
 1303 0665 01       		.uleb128 0x1
ARM GAS  /tmp/ccXo09QA.s 			page 24


 1304 0666 40       		.byte	0x40
 1305 0667 1F       		.uleb128 0x1f
 1306 0668 01       		.uleb128 0x1
 1307 0669 50       		.byte	0x50
 1308 066a 05       		.uleb128 0x5
 1309 066b 03       		.byte	0x3
 1310 066c 00000000 		.4byte	.LANCHOR0
 1311 0670 00       		.byte	0
 1312 0671 1E       		.uleb128 0x1e
 1313 0672 9C000000 		.4byte	.LVL15
 1314 0676 5E0B0000 		.4byte	0xb5e
 1315 067a 8D060000 		.4byte	0x68d
 1316 067e 1F       		.uleb128 0x1f
 1317 067f 01       		.uleb128 0x1
 1318 0680 51       		.byte	0x51
 1319 0681 01       		.uleb128 0x1
 1320 0682 40       		.byte	0x40
 1321 0683 1F       		.uleb128 0x1f
 1322 0684 01       		.uleb128 0x1
 1323 0685 50       		.byte	0x50
 1324 0686 05       		.uleb128 0x5
 1325 0687 03       		.byte	0x3
 1326 0688 00000000 		.4byte	.LANCHOR0
 1327 068c 00       		.byte	0
 1328 068d 1E       		.uleb128 0x1e
 1329 068e AC000000 		.4byte	.LVL18
 1330 0692 5E0B0000 		.4byte	0xb5e
 1331 0696 A9060000 		.4byte	0x6a9
 1332 069a 1F       		.uleb128 0x1f
 1333 069b 01       		.uleb128 0x1
 1334 069c 51       		.byte	0x51
 1335 069d 01       		.uleb128 0x1
 1336 069e 40       		.byte	0x40
 1337 069f 1F       		.uleb128 0x1f
 1338 06a0 01       		.uleb128 0x1
 1339 06a1 50       		.byte	0x50
 1340 06a2 05       		.uleb128 0x5
 1341 06a3 03       		.byte	0x3
 1342 06a4 00000000 		.4byte	.LANCHOR0
 1343 06a8 00       		.byte	0
 1344 06a9 1E       		.uleb128 0x1e
 1345 06aa B8000000 		.4byte	.LVL21
 1346 06ae 920B0000 		.4byte	0xb92
 1347 06b2 BD060000 		.4byte	0x6bd
 1348 06b6 1F       		.uleb128 0x1f
 1349 06b7 01       		.uleb128 0x1
 1350 06b8 50       		.byte	0x50
 1351 06b9 02       		.uleb128 0x2
 1352 06ba 76       		.byte	0x76
 1353 06bb 00       		.sleb128 0
 1354 06bc 00       		.byte	0
 1355 06bd 1E       		.uleb128 0x1e
 1356 06be C0000000 		.4byte	.LVL22
 1357 06c2 920B0000 		.4byte	0xb92
 1358 06c6 D1060000 		.4byte	0x6d1
 1359 06ca 1F       		.uleb128 0x1f
 1360 06cb 01       		.uleb128 0x1
ARM GAS  /tmp/ccXo09QA.s 			page 25


 1361 06cc 50       		.byte	0x50
 1362 06cd 02       		.uleb128 0x2
 1363 06ce 75       		.byte	0x75
 1364 06cf 00       		.sleb128 0
 1365 06d0 00       		.byte	0
 1366 06d1 1E       		.uleb128 0x1e
 1367 06d2 C8000000 		.4byte	.LVL23
 1368 06d6 920B0000 		.4byte	0xb92
 1369 06da E5060000 		.4byte	0x6e5
 1370 06de 1F       		.uleb128 0x1f
 1371 06df 01       		.uleb128 0x1
 1372 06e0 50       		.byte	0x50
 1373 06e1 02       		.uleb128 0x2
 1374 06e2 74       		.byte	0x74
 1375 06e3 00       		.sleb128 0
 1376 06e4 00       		.byte	0
 1377 06e5 1E       		.uleb128 0x1e
 1378 06e6 D4000000 		.4byte	.LVL24
 1379 06ea 3E0B0000 		.4byte	0xb3e
 1380 06ee 02070000 		.4byte	0x702
 1381 06f2 1F       		.uleb128 0x1f
 1382 06f3 01       		.uleb128 0x1
 1383 06f4 51       		.byte	0x51
 1384 06f5 02       		.uleb128 0x2
 1385 06f6 7D       		.byte	0x7d
 1386 06f7 00       		.sleb128 0
 1387 06f8 1F       		.uleb128 0x1f
 1388 06f9 01       		.uleb128 0x1
 1389 06fa 50       		.byte	0x50
 1390 06fb 05       		.uleb128 0x5
 1391 06fc 03       		.byte	0x3
 1392 06fd 00000000 		.4byte	.LANCHOR0
 1393 0701 00       		.byte	0
 1394 0702 1E       		.uleb128 0x1e
 1395 0703 E8000000 		.4byte	.LVL25
 1396 0707 780B0000 		.4byte	0xb78
 1397 070b 15070000 		.4byte	0x715
 1398 070f 1F       		.uleb128 0x1f
 1399 0710 01       		.uleb128 0x1
 1400 0711 50       		.byte	0x50
 1401 0712 01       		.uleb128 0x1
 1402 0713 33       		.byte	0x33
 1403 0714 00       		.byte	0
 1404 0715 1E       		.uleb128 0x1e
 1405 0716 FC000000 		.4byte	.LVL26
 1406 071a 5E0B0000 		.4byte	0xb5e
 1407 071e 31070000 		.4byte	0x731
 1408 0722 1F       		.uleb128 0x1f
 1409 0723 01       		.uleb128 0x1
 1410 0724 51       		.byte	0x51
 1411 0725 01       		.uleb128 0x1
 1412 0726 40       		.byte	0x40
 1413 0727 1F       		.uleb128 0x1f
 1414 0728 01       		.uleb128 0x1
 1415 0729 50       		.byte	0x50
 1416 072a 05       		.uleb128 0x5
 1417 072b 03       		.byte	0x3
ARM GAS  /tmp/ccXo09QA.s 			page 26


 1418 072c 00000000 		.4byte	.LANCHOR0
 1419 0730 00       		.byte	0
 1420 0731 1E       		.uleb128 0x1e
 1421 0732 0C010000 		.4byte	.LVL29
 1422 0736 5E0B0000 		.4byte	0xb5e
 1423 073a 4D070000 		.4byte	0x74d
 1424 073e 1F       		.uleb128 0x1f
 1425 073f 01       		.uleb128 0x1
 1426 0740 51       		.byte	0x51
 1427 0741 01       		.uleb128 0x1
 1428 0742 40       		.byte	0x40
 1429 0743 1F       		.uleb128 0x1f
 1430 0744 01       		.uleb128 0x1
 1431 0745 50       		.byte	0x50
 1432 0746 05       		.uleb128 0x5
 1433 0747 03       		.byte	0x3
 1434 0748 00000000 		.4byte	.LANCHOR0
 1435 074c 00       		.byte	0
 1436 074d 1E       		.uleb128 0x1e
 1437 074e 1C010000 		.4byte	.LVL32
 1438 0752 5E0B0000 		.4byte	0xb5e
 1439 0756 69070000 		.4byte	0x769
 1440 075a 1F       		.uleb128 0x1f
 1441 075b 01       		.uleb128 0x1
 1442 075c 51       		.byte	0x51
 1443 075d 01       		.uleb128 0x1
 1444 075e 40       		.byte	0x40
 1445 075f 1F       		.uleb128 0x1f
 1446 0760 01       		.uleb128 0x1
 1447 0761 50       		.byte	0x50
 1448 0762 05       		.uleb128 0x5
 1449 0763 03       		.byte	0x3
 1450 0764 00000000 		.4byte	.LANCHOR0
 1451 0768 00       		.byte	0
 1452 0769 1D       		.uleb128 0x1d
 1453 076a 20010000 		.4byte	.LVL33
 1454 076e 920B0000 		.4byte	0xb92
 1455 0772 1E       		.uleb128 0x1e
 1456 0773 28010000 		.4byte	.LVL34
 1457 0777 920B0000 		.4byte	0xb92
 1458 077b 86070000 		.4byte	0x786
 1459 077f 1F       		.uleb128 0x1f
 1460 0780 01       		.uleb128 0x1
 1461 0781 50       		.byte	0x50
 1462 0782 02       		.uleb128 0x2
 1463 0783 75       		.byte	0x75
 1464 0784 00       		.sleb128 0
 1465 0785 00       		.byte	0
 1466 0786 1E       		.uleb128 0x1e
 1467 0787 30010000 		.4byte	.LVL35
 1468 078b 920B0000 		.4byte	0xb92
 1469 078f 9A070000 		.4byte	0x79a
 1470 0793 1F       		.uleb128 0x1f
 1471 0794 01       		.uleb128 0x1
 1472 0795 50       		.byte	0x50
 1473 0796 02       		.uleb128 0x2
 1474 0797 74       		.byte	0x74
ARM GAS  /tmp/ccXo09QA.s 			page 27


 1475 0798 00       		.sleb128 0
 1476 0799 00       		.byte	0
 1477 079a 1E       		.uleb128 0x1e
 1478 079b 3C010000 		.4byte	.LVL36
 1479 079f 3E0B0000 		.4byte	0xb3e
 1480 07a3 B7070000 		.4byte	0x7b7
 1481 07a7 1F       		.uleb128 0x1f
 1482 07a8 01       		.uleb128 0x1
 1483 07a9 51       		.byte	0x51
 1484 07aa 02       		.uleb128 0x2
 1485 07ab 7D       		.byte	0x7d
 1486 07ac 00       		.sleb128 0
 1487 07ad 1F       		.uleb128 0x1f
 1488 07ae 01       		.uleb128 0x1
 1489 07af 50       		.byte	0x50
 1490 07b0 05       		.uleb128 0x5
 1491 07b1 03       		.byte	0x3
 1492 07b2 00000000 		.4byte	.LANCHOR0
 1493 07b6 00       		.byte	0
 1494 07b7 1E       		.uleb128 0x1e
 1495 07b8 50010000 		.4byte	.LVL37
 1496 07bc 780B0000 		.4byte	0xb78
 1497 07c0 CA070000 		.4byte	0x7ca
 1498 07c4 1F       		.uleb128 0x1f
 1499 07c5 01       		.uleb128 0x1
 1500 07c6 50       		.byte	0x50
 1501 07c7 01       		.uleb128 0x1
 1502 07c8 34       		.byte	0x34
 1503 07c9 00       		.byte	0
 1504 07ca 1E       		.uleb128 0x1e
 1505 07cb 64010000 		.4byte	.LVL38
 1506 07cf 5E0B0000 		.4byte	0xb5e
 1507 07d3 E6070000 		.4byte	0x7e6
 1508 07d7 1F       		.uleb128 0x1f
 1509 07d8 01       		.uleb128 0x1
 1510 07d9 51       		.byte	0x51
 1511 07da 01       		.uleb128 0x1
 1512 07db 41       		.byte	0x41
 1513 07dc 1F       		.uleb128 0x1f
 1514 07dd 01       		.uleb128 0x1
 1515 07de 50       		.byte	0x50
 1516 07df 05       		.uleb128 0x5
 1517 07e0 03       		.byte	0x3
 1518 07e1 00000000 		.4byte	.LANCHOR0
 1519 07e5 00       		.byte	0
 1520 07e6 1E       		.uleb128 0x1e
 1521 07e7 74010000 		.4byte	.LVL41
 1522 07eb 5E0B0000 		.4byte	0xb5e
 1523 07ef 02080000 		.4byte	0x802
 1524 07f3 1F       		.uleb128 0x1f
 1525 07f4 01       		.uleb128 0x1
 1526 07f5 51       		.byte	0x51
 1527 07f6 01       		.uleb128 0x1
 1528 07f7 40       		.byte	0x40
 1529 07f8 1F       		.uleb128 0x1f
 1530 07f9 01       		.uleb128 0x1
 1531 07fa 50       		.byte	0x50
ARM GAS  /tmp/ccXo09QA.s 			page 28


 1532 07fb 05       		.uleb128 0x5
 1533 07fc 03       		.byte	0x3
 1534 07fd 00000000 		.4byte	.LANCHOR0
 1535 0801 00       		.byte	0
 1536 0802 1E       		.uleb128 0x1e
 1537 0803 80010000 		.4byte	.LVL44
 1538 0807 920B0000 		.4byte	0xb92
 1539 080b 16080000 		.4byte	0x816
 1540 080f 1F       		.uleb128 0x1f
 1541 0810 01       		.uleb128 0x1
 1542 0811 50       		.byte	0x50
 1543 0812 02       		.uleb128 0x2
 1544 0813 74       		.byte	0x74
 1545 0814 00       		.sleb128 0
 1546 0815 00       		.byte	0
 1547 0816 1E       		.uleb128 0x1e
 1548 0817 8C010000 		.4byte	.LVL45
 1549 081b 3E0B0000 		.4byte	0xb3e
 1550 081f 33080000 		.4byte	0x833
 1551 0823 1F       		.uleb128 0x1f
 1552 0824 01       		.uleb128 0x1
 1553 0825 51       		.byte	0x51
 1554 0826 02       		.uleb128 0x2
 1555 0827 7D       		.byte	0x7d
 1556 0828 00       		.sleb128 0
 1557 0829 1F       		.uleb128 0x1f
 1558 082a 01       		.uleb128 0x1
 1559 082b 50       		.byte	0x50
 1560 082c 05       		.uleb128 0x5
 1561 082d 03       		.byte	0x3
 1562 082e 00000000 		.4byte	.LANCHOR0
 1563 0832 00       		.byte	0
 1564 0833 1E       		.uleb128 0x1e
 1565 0834 A0010000 		.4byte	.LVL46
 1566 0838 780B0000 		.4byte	0xb78
 1567 083c 46080000 		.4byte	0x846
 1568 0840 1F       		.uleb128 0x1f
 1569 0841 01       		.uleb128 0x1
 1570 0842 50       		.byte	0x50
 1571 0843 01       		.uleb128 0x1
 1572 0844 35       		.byte	0x35
 1573 0845 00       		.byte	0
 1574 0846 1E       		.uleb128 0x1e
 1575 0847 B4010000 		.4byte	.LVL47
 1576 084b 5E0B0000 		.4byte	0xb5e
 1577 084f 62080000 		.4byte	0x862
 1578 0853 1F       		.uleb128 0x1f
 1579 0854 01       		.uleb128 0x1
 1580 0855 51       		.byte	0x51
 1581 0856 01       		.uleb128 0x1
 1582 0857 40       		.byte	0x40
 1583 0858 1F       		.uleb128 0x1f
 1584 0859 01       		.uleb128 0x1
 1585 085a 50       		.byte	0x50
 1586 085b 05       		.uleb128 0x5
 1587 085c 03       		.byte	0x3
 1588 085d 00000000 		.4byte	.LANCHOR0
ARM GAS  /tmp/ccXo09QA.s 			page 29


 1589 0861 00       		.byte	0
 1590 0862 1E       		.uleb128 0x1e
 1591 0863 C4010000 		.4byte	.LVL50
 1592 0867 3E0B0000 		.4byte	0xb3e
 1593 086b 7F080000 		.4byte	0x87f
 1594 086f 1F       		.uleb128 0x1f
 1595 0870 01       		.uleb128 0x1
 1596 0871 51       		.byte	0x51
 1597 0872 02       		.uleb128 0x2
 1598 0873 7D       		.byte	0x7d
 1599 0874 00       		.sleb128 0
 1600 0875 1F       		.uleb128 0x1f
 1601 0876 01       		.uleb128 0x1
 1602 0877 50       		.byte	0x50
 1603 0878 05       		.uleb128 0x5
 1604 0879 03       		.byte	0x3
 1605 087a 00000000 		.4byte	.LANCHOR0
 1606 087e 00       		.byte	0
 1607 087f 1E       		.uleb128 0x1e
 1608 0880 DC010000 		.4byte	.LVL51
 1609 0884 3E0B0000 		.4byte	0xb3e
 1610 0888 9C080000 		.4byte	0x89c
 1611 088c 1F       		.uleb128 0x1f
 1612 088d 01       		.uleb128 0x1
 1613 088e 51       		.byte	0x51
 1614 088f 02       		.uleb128 0x2
 1615 0890 7D       		.byte	0x7d
 1616 0891 00       		.sleb128 0
 1617 0892 1F       		.uleb128 0x1f
 1618 0893 01       		.uleb128 0x1
 1619 0894 50       		.byte	0x50
 1620 0895 05       		.uleb128 0x5
 1621 0896 03       		.byte	0x3
 1622 0897 00000000 		.4byte	.LANCHOR0
 1623 089b 00       		.byte	0
 1624 089c 1E       		.uleb128 0x1e
 1625 089d F0010000 		.4byte	.LVL52
 1626 08a1 780B0000 		.4byte	0xb78
 1627 08a5 AF080000 		.4byte	0x8af
 1628 08a9 1F       		.uleb128 0x1f
 1629 08aa 01       		.uleb128 0x1
 1630 08ab 50       		.byte	0x50
 1631 08ac 01       		.uleb128 0x1
 1632 08ad 36       		.byte	0x36
 1633 08ae 00       		.byte	0
 1634 08af 1E       		.uleb128 0x1e
 1635 08b0 00020000 		.4byte	.LVL53
 1636 08b4 920B0000 		.4byte	0xb92
 1637 08b8 C3080000 		.4byte	0x8c3
 1638 08bc 1F       		.uleb128 0x1f
 1639 08bd 01       		.uleb128 0x1
 1640 08be 50       		.byte	0x50
 1641 08bf 02       		.uleb128 0x2
 1642 08c0 75       		.byte	0x75
 1643 08c1 00       		.sleb128 0
 1644 08c2 00       		.byte	0
 1645 08c3 1E       		.uleb128 0x1e
ARM GAS  /tmp/ccXo09QA.s 			page 30


 1646 08c4 08020000 		.4byte	.LVL54
 1647 08c8 920B0000 		.4byte	0xb92
 1648 08cc D7080000 		.4byte	0x8d7
 1649 08d0 1F       		.uleb128 0x1f
 1650 08d1 01       		.uleb128 0x1
 1651 08d2 50       		.byte	0x50
 1652 08d3 02       		.uleb128 0x2
 1653 08d4 74       		.byte	0x74
 1654 08d5 00       		.sleb128 0
 1655 08d6 00       		.byte	0
 1656 08d7 1E       		.uleb128 0x1e
 1657 08d8 14020000 		.4byte	.LVL55
 1658 08dc 3E0B0000 		.4byte	0xb3e
 1659 08e0 F4080000 		.4byte	0x8f4
 1660 08e4 1F       		.uleb128 0x1f
 1661 08e5 01       		.uleb128 0x1
 1662 08e6 51       		.byte	0x51
 1663 08e7 02       		.uleb128 0x2
 1664 08e8 7D       		.byte	0x7d
 1665 08e9 00       		.sleb128 0
 1666 08ea 1F       		.uleb128 0x1f
 1667 08eb 01       		.uleb128 0x1
 1668 08ec 50       		.byte	0x50
 1669 08ed 05       		.uleb128 0x5
 1670 08ee 03       		.byte	0x3
 1671 08ef 00000000 		.4byte	.LANCHOR0
 1672 08f3 00       		.byte	0
 1673 08f4 1E       		.uleb128 0x1e
 1674 08f5 28020000 		.4byte	.LVL56
 1675 08f9 780B0000 		.4byte	0xb78
 1676 08fd 07090000 		.4byte	0x907
 1677 0901 1F       		.uleb128 0x1f
 1678 0902 01       		.uleb128 0x1
 1679 0903 50       		.byte	0x50
 1680 0904 01       		.uleb128 0x1
 1681 0905 37       		.byte	0x37
 1682 0906 00       		.byte	0
 1683 0907 1E       		.uleb128 0x1e
 1684 0908 3C020000 		.4byte	.LVL57
 1685 090c 5E0B0000 		.4byte	0xb5e
 1686 0910 23090000 		.4byte	0x923
 1687 0914 1F       		.uleb128 0x1f
 1688 0915 01       		.uleb128 0x1
 1689 0916 51       		.byte	0x51
 1690 0917 01       		.uleb128 0x1
 1691 0918 40       		.byte	0x40
 1692 0919 1F       		.uleb128 0x1f
 1693 091a 01       		.uleb128 0x1
 1694 091b 50       		.byte	0x50
 1695 091c 05       		.uleb128 0x5
 1696 091d 03       		.byte	0x3
 1697 091e 00000000 		.4byte	.LANCHOR0
 1698 0922 00       		.byte	0
 1699 0923 1E       		.uleb128 0x1e
 1700 0924 4C020000 		.4byte	.LVL60
 1701 0928 5E0B0000 		.4byte	0xb5e
 1702 092c 3F090000 		.4byte	0x93f
ARM GAS  /tmp/ccXo09QA.s 			page 31


 1703 0930 1F       		.uleb128 0x1f
 1704 0931 01       		.uleb128 0x1
 1705 0932 51       		.byte	0x51
 1706 0933 01       		.uleb128 0x1
 1707 0934 40       		.byte	0x40
 1708 0935 1F       		.uleb128 0x1f
 1709 0936 01       		.uleb128 0x1
 1710 0937 50       		.byte	0x50
 1711 0938 05       		.uleb128 0x5
 1712 0939 03       		.byte	0x3
 1713 093a 00000000 		.4byte	.LANCHOR0
 1714 093e 00       		.byte	0
 1715 093f 1E       		.uleb128 0x1e
 1716 0940 58020000 		.4byte	.LVL63
 1717 0944 920B0000 		.4byte	0xb92
 1718 0948 53090000 		.4byte	0x953
 1719 094c 1F       		.uleb128 0x1f
 1720 094d 01       		.uleb128 0x1
 1721 094e 50       		.byte	0x50
 1722 094f 02       		.uleb128 0x2
 1723 0950 75       		.byte	0x75
 1724 0951 00       		.sleb128 0
 1725 0952 00       		.byte	0
 1726 0953 1E       		.uleb128 0x1e
 1727 0954 64020000 		.4byte	.LVL64
 1728 0958 3E0B0000 		.4byte	0xb3e
 1729 095c 70090000 		.4byte	0x970
 1730 0960 1F       		.uleb128 0x1f
 1731 0961 01       		.uleb128 0x1
 1732 0962 51       		.byte	0x51
 1733 0963 02       		.uleb128 0x2
 1734 0964 7D       		.byte	0x7d
 1735 0965 00       		.sleb128 0
 1736 0966 1F       		.uleb128 0x1f
 1737 0967 01       		.uleb128 0x1
 1738 0968 50       		.byte	0x50
 1739 0969 05       		.uleb128 0x5
 1740 096a 03       		.byte	0x3
 1741 096b 00000000 		.4byte	.LANCHOR0
 1742 096f 00       		.byte	0
 1743 0970 1E       		.uleb128 0x1e
 1744 0971 78020000 		.4byte	.LVL65
 1745 0975 780B0000 		.4byte	0xb78
 1746 0979 83090000 		.4byte	0x983
 1747 097d 1F       		.uleb128 0x1f
 1748 097e 01       		.uleb128 0x1
 1749 097f 50       		.byte	0x50
 1750 0980 01       		.uleb128 0x1
 1751 0981 38       		.byte	0x38
 1752 0982 00       		.byte	0
 1753 0983 1E       		.uleb128 0x1e
 1754 0984 8C020000 		.4byte	.LVL66
 1755 0988 5E0B0000 		.4byte	0xb5e
 1756 098c A0090000 		.4byte	0x9a0
 1757 0990 1F       		.uleb128 0x1f
 1758 0991 01       		.uleb128 0x1
 1759 0992 51       		.byte	0x51
ARM GAS  /tmp/ccXo09QA.s 			page 32


 1760 0993 02       		.uleb128 0x2
 1761 0994 08       		.byte	0x8
 1762 0995 20       		.byte	0x20
 1763 0996 1F       		.uleb128 0x1f
 1764 0997 01       		.uleb128 0x1
 1765 0998 50       		.byte	0x50
 1766 0999 05       		.uleb128 0x5
 1767 099a 03       		.byte	0x3
 1768 099b 00000000 		.4byte	.LANCHOR0
 1769 099f 00       		.byte	0
 1770 09a0 1D       		.uleb128 0x1d
 1771 09a1 90020000 		.4byte	.LVL67
 1772 09a5 920B0000 		.4byte	0xb92
 1773 09a9 1E       		.uleb128 0x1e
 1774 09aa 98020000 		.4byte	.LVL68
 1775 09ae 920B0000 		.4byte	0xb92
 1776 09b2 BD090000 		.4byte	0x9bd
 1777 09b6 1F       		.uleb128 0x1f
 1778 09b7 01       		.uleb128 0x1
 1779 09b8 50       		.byte	0x50
 1780 09b9 02       		.uleb128 0x2
 1781 09ba 74       		.byte	0x74
 1782 09bb 00       		.sleb128 0
 1783 09bc 00       		.byte	0
 1784 09bd 1E       		.uleb128 0x1e
 1785 09be A4020000 		.4byte	.LVL69
 1786 09c2 3E0B0000 		.4byte	0xb3e
 1787 09c6 DA090000 		.4byte	0x9da
 1788 09ca 1F       		.uleb128 0x1f
 1789 09cb 01       		.uleb128 0x1
 1790 09cc 51       		.byte	0x51
 1791 09cd 02       		.uleb128 0x2
 1792 09ce 7D       		.byte	0x7d
 1793 09cf 00       		.sleb128 0
 1794 09d0 1F       		.uleb128 0x1f
 1795 09d1 01       		.uleb128 0x1
 1796 09d2 50       		.byte	0x50
 1797 09d3 05       		.uleb128 0x5
 1798 09d4 03       		.byte	0x3
 1799 09d5 00000000 		.4byte	.LANCHOR0
 1800 09d9 00       		.byte	0
 1801 09da 1E       		.uleb128 0x1e
 1802 09db B8020000 		.4byte	.LVL70
 1803 09df 780B0000 		.4byte	0xb78
 1804 09e3 ED090000 		.4byte	0x9ed
 1805 09e7 1F       		.uleb128 0x1f
 1806 09e8 01       		.uleb128 0x1
 1807 09e9 50       		.byte	0x50
 1808 09ea 01       		.uleb128 0x1
 1809 09eb 39       		.byte	0x39
 1810 09ec 00       		.byte	0
 1811 09ed 1E       		.uleb128 0x1e
 1812 09ee CC020000 		.4byte	.LVL71
 1813 09f2 3E0B0000 		.4byte	0xb3e
 1814 09f6 0A0A0000 		.4byte	0xa0a
 1815 09fa 1F       		.uleb128 0x1f
 1816 09fb 01       		.uleb128 0x1
ARM GAS  /tmp/ccXo09QA.s 			page 33


 1817 09fc 51       		.byte	0x51
 1818 09fd 02       		.uleb128 0x2
 1819 09fe 7D       		.byte	0x7d
 1820 09ff 00       		.sleb128 0
 1821 0a00 1F       		.uleb128 0x1f
 1822 0a01 01       		.uleb128 0x1
 1823 0a02 50       		.byte	0x50
 1824 0a03 05       		.uleb128 0x5
 1825 0a04 03       		.byte	0x3
 1826 0a05 00000000 		.4byte	.LANCHOR0
 1827 0a09 00       		.byte	0
 1828 0a0a 1E       		.uleb128 0x1e
 1829 0a0b D8020000 		.4byte	.LVL72
 1830 0a0f 5E0B0000 		.4byte	0xb5e
 1831 0a13 210A0000 		.4byte	0xa21
 1832 0a17 1F       		.uleb128 0x1f
 1833 0a18 01       		.uleb128 0x1
 1834 0a19 50       		.byte	0x50
 1835 0a1a 05       		.uleb128 0x5
 1836 0a1b 03       		.byte	0x3
 1837 0a1c 00000000 		.4byte	.LANCHOR0
 1838 0a20 00       		.byte	0
 1839 0a21 1E       		.uleb128 0x1e
 1840 0a22 E8020000 		.4byte	.LVL75
 1841 0a26 3E0B0000 		.4byte	0xb3e
 1842 0a2a 3E0A0000 		.4byte	0xa3e
 1843 0a2e 1F       		.uleb128 0x1f
 1844 0a2f 01       		.uleb128 0x1
 1845 0a30 51       		.byte	0x51
 1846 0a31 02       		.uleb128 0x2
 1847 0a32 7D       		.byte	0x7d
 1848 0a33 00       		.sleb128 0
 1849 0a34 1F       		.uleb128 0x1f
 1850 0a35 01       		.uleb128 0x1
 1851 0a36 50       		.byte	0x50
 1852 0a37 05       		.uleb128 0x5
 1853 0a38 03       		.byte	0x3
 1854 0a39 00000000 		.4byte	.LANCHOR0
 1855 0a3d 00       		.byte	0
 1856 0a3e 1E       		.uleb128 0x1e
 1857 0a3f F8020000 		.4byte	.LVL76
 1858 0a43 780B0000 		.4byte	0xb78
 1859 0a47 510A0000 		.4byte	0xa51
 1860 0a4b 1F       		.uleb128 0x1f
 1861 0a4c 01       		.uleb128 0x1
 1862 0a4d 50       		.byte	0x50
 1863 0a4e 01       		.uleb128 0x1
 1864 0a4f 3A       		.byte	0x3a
 1865 0a50 00       		.byte	0
 1866 0a51 1E       		.uleb128 0x1e
 1867 0a52 08030000 		.4byte	.LVL77
 1868 0a56 920B0000 		.4byte	0xb92
 1869 0a5a 650A0000 		.4byte	0xa65
 1870 0a5e 1F       		.uleb128 0x1f
 1871 0a5f 01       		.uleb128 0x1
 1872 0a60 50       		.byte	0x50
 1873 0a61 02       		.uleb128 0x2
ARM GAS  /tmp/ccXo09QA.s 			page 34


 1874 0a62 74       		.byte	0x74
 1875 0a63 00       		.sleb128 0
 1876 0a64 00       		.byte	0
 1877 0a65 1E       		.uleb128 0x1e
 1878 0a66 14030000 		.4byte	.LVL78
 1879 0a6a 3E0B0000 		.4byte	0xb3e
 1880 0a6e 820A0000 		.4byte	0xa82
 1881 0a72 1F       		.uleb128 0x1f
 1882 0a73 01       		.uleb128 0x1
 1883 0a74 51       		.byte	0x51
 1884 0a75 02       		.uleb128 0x2
 1885 0a76 7D       		.byte	0x7d
 1886 0a77 00       		.sleb128 0
 1887 0a78 1F       		.uleb128 0x1f
 1888 0a79 01       		.uleb128 0x1
 1889 0a7a 50       		.byte	0x50
 1890 0a7b 05       		.uleb128 0x5
 1891 0a7c 03       		.byte	0x3
 1892 0a7d 00000000 		.4byte	.LANCHOR0
 1893 0a81 00       		.byte	0
 1894 0a82 1E       		.uleb128 0x1e
 1895 0a83 28030000 		.4byte	.LVL79
 1896 0a87 780B0000 		.4byte	0xb78
 1897 0a8b 950A0000 		.4byte	0xa95
 1898 0a8f 1F       		.uleb128 0x1f
 1899 0a90 01       		.uleb128 0x1
 1900 0a91 50       		.byte	0x50
 1901 0a92 01       		.uleb128 0x1
 1902 0a93 3B       		.byte	0x3b
 1903 0a94 00       		.byte	0
 1904 0a95 20       		.uleb128 0x20
 1905 0a96 48030000 		.4byte	.LVL80
 1906 0a9a 780B0000 		.4byte	0xb78
 1907 0a9e 1F       		.uleb128 0x1f
 1908 0a9f 01       		.uleb128 0x1
 1909 0aa0 50       		.byte	0x50
 1910 0aa1 01       		.uleb128 0x1
 1911 0aa2 3C       		.byte	0x3c
 1912 0aa3 00       		.byte	0
 1913 0aa4 00       		.byte	0
 1914 0aa5 1A       		.uleb128 0x1a
 1915 0aa6 B4000000 		.4byte	.LASF79
 1916 0aaa 01       		.byte	0x1
 1917 0aab 44       		.byte	0x44
 1918 0aac 00000000 		.4byte	.LFB7
 1919 0ab0 1C000000 		.4byte	.LFE7-.LFB7
 1920 0ab4 01       		.uleb128 0x1
 1921 0ab5 9C       		.byte	0x9c
 1922 0ab6 D50A0000 		.4byte	0xad5
 1923 0aba 21       		.uleb128 0x21
 1924 0abb 10000000 		.4byte	.LVL81
 1925 0abf A30B0000 		.4byte	0xba3
 1926 0ac3 1F       		.uleb128 0x1f
 1927 0ac4 01       		.uleb128 0x1
 1928 0ac5 52       		.byte	0x52
 1929 0ac6 03       		.uleb128 0x3
 1930 0ac7 0A       		.byte	0xa
ARM GAS  /tmp/ccXo09QA.s 			page 35


 1931 0ac8 7805     		.2byte	0x578
 1932 0aca 1F       		.uleb128 0x1f
 1933 0acb 01       		.uleb128 0x1
 1934 0acc 50       		.byte	0x50
 1935 0acd 05       		.uleb128 0x5
 1936 0ace 03       		.byte	0x3
 1937 0acf 00000000 		.4byte	.LANCHOR0
 1938 0ad3 00       		.byte	0
 1939 0ad4 00       		.byte	0
 1940 0ad5 22       		.uleb128 0x22
 1941 0ad6 60030000 		.4byte	.LASF80
 1942 0ada 01       		.byte	0x1
 1943 0adb 37       		.byte	0x37
 1944 0adc 79030000 		.4byte	0x379
 1945 0ae0 05       		.uleb128 0x5
 1946 0ae1 03       		.byte	0x3
 1947 0ae2 00000000 		.4byte	test_heap
 1948 0ae6 23       		.uleb128 0x23
 1949 0ae7 52000000 		.4byte	.LASF81
 1950 0aeb 0C       		.byte	0xc
 1951 0aec AA       		.byte	0xaa
 1952 0aed 0D050000 		.4byte	0x50d
 1953 0af1 24       		.uleb128 0x24
 1954 0af2 97010000 		.4byte	.LASF82
 1955 0af6 01       		.byte	0x1
 1956 0af7 92       		.byte	0x92
 1957 0af8 020B0000 		.4byte	0xb02
 1958 0afc 05       		.uleb128 0x5
 1959 0afd 03       		.byte	0x3
 1960 0afe 00000000 		.4byte	testheap1
 1961 0b02 12       		.uleb128 0x12
 1962 0b03 74040000 		.4byte	0x474
 1963 0b07 16       		.uleb128 0x16
 1964 0b08 170B0000 		.4byte	0xb17
 1965 0b0c 170B0000 		.4byte	0xb17
 1966 0b10 17       		.uleb128 0x17
 1967 0b11 6D040000 		.4byte	0x46d
 1968 0b15 01       		.byte	0x1
 1969 0b16 00       		.byte	0
 1970 0b17 09       		.uleb128 0x9
 1971 0b18 04       		.byte	0x4
 1972 0b19 020B0000 		.4byte	0xb02
 1973 0b1d 24       		.uleb128 0x24
 1974 0b1e 6E000000 		.4byte	.LASF83
 1975 0b22 01       		.byte	0x1
 1976 0b23 9E       		.byte	0x9e
 1977 0b24 2E0B0000 		.4byte	0xb2e
 1978 0b28 05       		.uleb128 0x5
 1979 0b29 03       		.byte	0x3
 1980 0b2a 00000000 		.4byte	patternheap
 1981 0b2e 12       		.uleb128 0x12
 1982 0b2f 070B0000 		.4byte	0xb07
 1983 0b33 25       		.uleb128 0x25
 1984 0b34 AA010000 		.4byte	.LASF90
 1985 0b38 0A       		.byte	0xa
 1986 0b39 4D       		.byte	0x4d
 1987 0b3a 2C000000 		.4byte	0x2c
ARM GAS  /tmp/ccXo09QA.s 			page 36


 1988 0b3e 26       		.uleb128 0x26
 1989 0b3f B5020000 		.4byte	.LASF84
 1990 0b43 0B       		.byte	0xb
 1991 0b44 54       		.byte	0x54
 1992 0b45 2C000000 		.4byte	0x2c
 1993 0b49 580B0000 		.4byte	0xb58
 1994 0b4d 0D       		.uleb128 0xd
 1995 0b4e FB030000 		.4byte	0x3fb
 1996 0b52 0D       		.uleb128 0xd
 1997 0b53 580B0000 		.4byte	0xb58
 1998 0b57 00       		.byte	0
 1999 0b58 09       		.uleb128 0x9
 2000 0b59 04       		.byte	0x4
 2001 0b5a 2C000000 		.4byte	0x2c
 2002 0b5e 26       		.uleb128 0x26
 2003 0b5f 82020000 		.4byte	.LASF85
 2004 0b63 0B       		.byte	0xb
 2005 0b64 52       		.byte	0x52
 2006 0b65 7F020000 		.4byte	0x27f
 2007 0b69 780B0000 		.4byte	0xb78
 2008 0b6d 0D       		.uleb128 0xd
 2009 0b6e FB030000 		.4byte	0x3fb
 2010 0b72 0D       		.uleb128 0xd
 2011 0b73 2C000000 		.4byte	0x2c
 2012 0b77 00       		.byte	0
 2013 0b78 26       		.uleb128 0x26
 2014 0b79 04040000 		.4byte	.LASF86
 2015 0b7d 0C       		.byte	0xc
 2016 0b7e 5C       		.byte	0x5c
 2017 0b7f B8000000 		.4byte	0xb8
 2018 0b83 920B0000 		.4byte	0xb92
 2019 0b87 0D       		.uleb128 0xd
 2020 0b88 37000000 		.4byte	0x37
 2021 0b8c 0D       		.uleb128 0xd
 2022 0b8d B8000000 		.4byte	0xb8
 2023 0b91 00       		.byte	0
 2024 0b92 27       		.uleb128 0x27
 2025 0b93 A9000000 		.4byte	.LASF91
 2026 0b97 0B       		.byte	0xb
 2027 0b98 53       		.byte	0x53
 2028 0b99 A30B0000 		.4byte	0xba3
 2029 0b9d 0D       		.uleb128 0xd
 2030 0b9e 7F020000 		.4byte	0x27f
 2031 0ba2 00       		.byte	0
 2032 0ba3 28       		.uleb128 0x28
 2033 0ba4 57000000 		.4byte	.LASF92
 2034 0ba8 0B       		.byte	0xb
 2035 0ba9 50       		.byte	0x50
 2036 0baa 0D       		.uleb128 0xd
 2037 0bab FB030000 		.4byte	0x3fb
 2038 0baf 0D       		.uleb128 0xd
 2039 0bb0 7F020000 		.4byte	0x27f
 2040 0bb4 0D       		.uleb128 0xd
 2041 0bb5 2C000000 		.4byte	0x2c
 2042 0bb9 00       		.byte	0
 2043 0bba 00       		.byte	0
 2044              		.section	.debug_abbrev,"",%progbits
ARM GAS  /tmp/ccXo09QA.s 			page 37


 2045              	.Ldebug_abbrev0:
 2046 0000 01       		.uleb128 0x1
 2047 0001 11       		.uleb128 0x11
 2048 0002 01       		.byte	0x1
 2049 0003 25       		.uleb128 0x25
 2050 0004 0E       		.uleb128 0xe
 2051 0005 13       		.uleb128 0x13
 2052 0006 0B       		.uleb128 0xb
 2053 0007 03       		.uleb128 0x3
 2054 0008 0E       		.uleb128 0xe
 2055 0009 1B       		.uleb128 0x1b
 2056 000a 0E       		.uleb128 0xe
 2057 000b 55       		.uleb128 0x55
 2058 000c 17       		.uleb128 0x17
 2059 000d 11       		.uleb128 0x11
 2060 000e 01       		.uleb128 0x1
 2061 000f 10       		.uleb128 0x10
 2062 0010 17       		.uleb128 0x17
 2063 0011 00       		.byte	0
 2064 0012 00       		.byte	0
 2065 0013 02       		.uleb128 0x2
 2066 0014 24       		.uleb128 0x24
 2067 0015 00       		.byte	0
 2068 0016 0B       		.uleb128 0xb
 2069 0017 0B       		.uleb128 0xb
 2070 0018 3E       		.uleb128 0x3e
 2071 0019 0B       		.uleb128 0xb
 2072 001a 03       		.uleb128 0x3
 2073 001b 08       		.uleb128 0x8
 2074 001c 00       		.byte	0
 2075 001d 00       		.byte	0
 2076 001e 03       		.uleb128 0x3
 2077 001f 16       		.uleb128 0x16
 2078 0020 00       		.byte	0
 2079 0021 03       		.uleb128 0x3
 2080 0022 0E       		.uleb128 0xe
 2081 0023 3A       		.uleb128 0x3a
 2082 0024 0B       		.uleb128 0xb
 2083 0025 3B       		.uleb128 0x3b
 2084 0026 0B       		.uleb128 0xb
 2085 0027 49       		.uleb128 0x49
 2086 0028 13       		.uleb128 0x13
 2087 0029 00       		.byte	0
 2088 002a 00       		.byte	0
 2089 002b 04       		.uleb128 0x4
 2090 002c 24       		.uleb128 0x24
 2091 002d 00       		.byte	0
 2092 002e 0B       		.uleb128 0xb
 2093 002f 0B       		.uleb128 0xb
 2094 0030 3E       		.uleb128 0x3e
 2095 0031 0B       		.uleb128 0xb
 2096 0032 03       		.uleb128 0x3
 2097 0033 0E       		.uleb128 0xe
 2098 0034 00       		.byte	0
 2099 0035 00       		.byte	0
 2100 0036 05       		.uleb128 0x5
 2101 0037 13       		.uleb128 0x13
ARM GAS  /tmp/ccXo09QA.s 			page 38


 2102 0038 01       		.byte	0x1
 2103 0039 03       		.uleb128 0x3
 2104 003a 0E       		.uleb128 0xe
 2105 003b 0B       		.uleb128 0xb
 2106 003c 0B       		.uleb128 0xb
 2107 003d 3A       		.uleb128 0x3a
 2108 003e 0B       		.uleb128 0xb
 2109 003f 3B       		.uleb128 0x3b
 2110 0040 0B       		.uleb128 0xb
 2111 0041 01       		.uleb128 0x1
 2112 0042 13       		.uleb128 0x13
 2113 0043 00       		.byte	0
 2114 0044 00       		.byte	0
 2115 0045 06       		.uleb128 0x6
 2116 0046 0D       		.uleb128 0xd
 2117 0047 00       		.byte	0
 2118 0048 03       		.uleb128 0x3
 2119 0049 0E       		.uleb128 0xe
 2120 004a 3A       		.uleb128 0x3a
 2121 004b 0B       		.uleb128 0xb
 2122 004c 3B       		.uleb128 0x3b
 2123 004d 0B       		.uleb128 0xb
 2124 004e 49       		.uleb128 0x49
 2125 004f 13       		.uleb128 0x13
 2126 0050 38       		.uleb128 0x38
 2127 0051 0B       		.uleb128 0xb
 2128 0052 00       		.byte	0
 2129 0053 00       		.byte	0
 2130 0054 07       		.uleb128 0x7
 2131 0055 0D       		.uleb128 0xd
 2132 0056 00       		.byte	0
 2133 0057 03       		.uleb128 0x3
 2134 0058 08       		.uleb128 0x8
 2135 0059 3A       		.uleb128 0x3a
 2136 005a 0B       		.uleb128 0xb
 2137 005b 3B       		.uleb128 0x3b
 2138 005c 0B       		.uleb128 0xb
 2139 005d 49       		.uleb128 0x49
 2140 005e 13       		.uleb128 0x13
 2141 005f 38       		.uleb128 0x38
 2142 0060 0B       		.uleb128 0xb
 2143 0061 00       		.byte	0
 2144 0062 00       		.byte	0
 2145 0063 08       		.uleb128 0x8
 2146 0064 13       		.uleb128 0x13
 2147 0065 01       		.byte	0x1
 2148 0066 0B       		.uleb128 0xb
 2149 0067 0B       		.uleb128 0xb
 2150 0068 3A       		.uleb128 0x3a
 2151 0069 0B       		.uleb128 0xb
 2152 006a 3B       		.uleb128 0x3b
 2153 006b 0B       		.uleb128 0xb
 2154 006c 01       		.uleb128 0x1
 2155 006d 13       		.uleb128 0x13
 2156 006e 00       		.byte	0
 2157 006f 00       		.byte	0
 2158 0070 09       		.uleb128 0x9
ARM GAS  /tmp/ccXo09QA.s 			page 39


 2159 0071 0F       		.uleb128 0xf
 2160 0072 00       		.byte	0
 2161 0073 0B       		.uleb128 0xb
 2162 0074 0B       		.uleb128 0xb
 2163 0075 49       		.uleb128 0x49
 2164 0076 13       		.uleb128 0x13
 2165 0077 00       		.byte	0
 2166 0078 00       		.byte	0
 2167 0079 0A       		.uleb128 0xa
 2168 007a 0F       		.uleb128 0xf
 2169 007b 00       		.byte	0
 2170 007c 0B       		.uleb128 0xb
 2171 007d 0B       		.uleb128 0xb
 2172 007e 00       		.byte	0
 2173 007f 00       		.byte	0
 2174 0080 0B       		.uleb128 0xb
 2175 0081 35       		.uleb128 0x35
 2176 0082 00       		.byte	0
 2177 0083 49       		.uleb128 0x49
 2178 0084 13       		.uleb128 0x13
 2179 0085 00       		.byte	0
 2180 0086 00       		.byte	0
 2181 0087 0C       		.uleb128 0xc
 2182 0088 15       		.uleb128 0x15
 2183 0089 01       		.byte	0x1
 2184 008a 27       		.uleb128 0x27
 2185 008b 19       		.uleb128 0x19
 2186 008c 49       		.uleb128 0x49
 2187 008d 13       		.uleb128 0x13
 2188 008e 01       		.uleb128 0x1
 2189 008f 13       		.uleb128 0x13
 2190 0090 00       		.byte	0
 2191 0091 00       		.byte	0
 2192 0092 0D       		.uleb128 0xd
 2193 0093 05       		.uleb128 0x5
 2194 0094 00       		.byte	0
 2195 0095 49       		.uleb128 0x49
 2196 0096 13       		.uleb128 0x13
 2197 0097 00       		.byte	0
 2198 0098 00       		.byte	0
 2199 0099 0E       		.uleb128 0xe
 2200 009a 17       		.uleb128 0x17
 2201 009b 01       		.byte	0x1
 2202 009c 0B       		.uleb128 0xb
 2203 009d 0B       		.uleb128 0xb
 2204 009e 3A       		.uleb128 0x3a
 2205 009f 0B       		.uleb128 0xb
 2206 00a0 3B       		.uleb128 0x3b
 2207 00a1 0B       		.uleb128 0xb
 2208 00a2 01       		.uleb128 0x1
 2209 00a3 13       		.uleb128 0x13
 2210 00a4 00       		.byte	0
 2211 00a5 00       		.byte	0
 2212 00a6 0F       		.uleb128 0xf
 2213 00a7 0D       		.uleb128 0xd
 2214 00a8 00       		.byte	0
 2215 00a9 03       		.uleb128 0x3
ARM GAS  /tmp/ccXo09QA.s 			page 40


 2216 00aa 0E       		.uleb128 0xe
 2217 00ab 3A       		.uleb128 0x3a
 2218 00ac 0B       		.uleb128 0xb
 2219 00ad 3B       		.uleb128 0x3b
 2220 00ae 0B       		.uleb128 0xb
 2221 00af 49       		.uleb128 0x49
 2222 00b0 13       		.uleb128 0x13
 2223 00b1 00       		.byte	0
 2224 00b2 00       		.byte	0
 2225 00b3 10       		.uleb128 0x10
 2226 00b4 17       		.uleb128 0x17
 2227 00b5 01       		.byte	0x1
 2228 00b6 03       		.uleb128 0x3
 2229 00b7 0E       		.uleb128 0xe
 2230 00b8 0B       		.uleb128 0xb
 2231 00b9 0B       		.uleb128 0xb
 2232 00ba 3A       		.uleb128 0x3a
 2233 00bb 0B       		.uleb128 0xb
 2234 00bc 3B       		.uleb128 0x3b
 2235 00bd 0B       		.uleb128 0xb
 2236 00be 01       		.uleb128 0x1
 2237 00bf 13       		.uleb128 0x13
 2238 00c0 00       		.byte	0
 2239 00c1 00       		.byte	0
 2240 00c2 11       		.uleb128 0x11
 2241 00c3 0D       		.uleb128 0xd
 2242 00c4 00       		.byte	0
 2243 00c5 03       		.uleb128 0x3
 2244 00c6 08       		.uleb128 0x8
 2245 00c7 3A       		.uleb128 0x3a
 2246 00c8 0B       		.uleb128 0xb
 2247 00c9 3B       		.uleb128 0x3b
 2248 00ca 0B       		.uleb128 0xb
 2249 00cb 49       		.uleb128 0x49
 2250 00cc 13       		.uleb128 0x13
 2251 00cd 00       		.byte	0
 2252 00ce 00       		.byte	0
 2253 00cf 12       		.uleb128 0x12
 2254 00d0 26       		.uleb128 0x26
 2255 00d1 00       		.byte	0
 2256 00d2 49       		.uleb128 0x49
 2257 00d3 13       		.uleb128 0x13
 2258 00d4 00       		.byte	0
 2259 00d5 00       		.byte	0
 2260 00d6 13       		.uleb128 0x13
 2261 00d7 15       		.uleb128 0x15
 2262 00d8 00       		.byte	0
 2263 00d9 27       		.uleb128 0x27
 2264 00da 19       		.uleb128 0x19
 2265 00db 00       		.byte	0
 2266 00dc 00       		.byte	0
 2267 00dd 14       		.uleb128 0x14
 2268 00de 13       		.uleb128 0x13
 2269 00df 01       		.byte	0x1
 2270 00e0 0B       		.uleb128 0xb
 2271 00e1 05       		.uleb128 0x5
 2272 00e2 3A       		.uleb128 0x3a
ARM GAS  /tmp/ccXo09QA.s 			page 41


 2273 00e3 0B       		.uleb128 0xb
 2274 00e4 3B       		.uleb128 0x3b
 2275 00e5 0B       		.uleb128 0xb
 2276 00e6 01       		.uleb128 0x1
 2277 00e7 13       		.uleb128 0x13
 2278 00e8 00       		.byte	0
 2279 00e9 00       		.byte	0
 2280 00ea 15       		.uleb128 0x15
 2281 00eb 0D       		.uleb128 0xd
 2282 00ec 00       		.byte	0
 2283 00ed 03       		.uleb128 0x3
 2284 00ee 08       		.uleb128 0x8
 2285 00ef 3A       		.uleb128 0x3a
 2286 00f0 0B       		.uleb128 0xb
 2287 00f1 3B       		.uleb128 0x3b
 2288 00f2 0B       		.uleb128 0xb
 2289 00f3 49       		.uleb128 0x49
 2290 00f4 13       		.uleb128 0x13
 2291 00f5 38       		.uleb128 0x38
 2292 00f6 05       		.uleb128 0x5
 2293 00f7 00       		.byte	0
 2294 00f8 00       		.byte	0
 2295 00f9 16       		.uleb128 0x16
 2296 00fa 01       		.uleb128 0x1
 2297 00fb 01       		.byte	0x1
 2298 00fc 49       		.uleb128 0x49
 2299 00fd 13       		.uleb128 0x13
 2300 00fe 01       		.uleb128 0x1
 2301 00ff 13       		.uleb128 0x13
 2302 0100 00       		.byte	0
 2303 0101 00       		.byte	0
 2304 0102 17       		.uleb128 0x17
 2305 0103 21       		.uleb128 0x21
 2306 0104 00       		.byte	0
 2307 0105 49       		.uleb128 0x49
 2308 0106 13       		.uleb128 0x13
 2309 0107 2F       		.uleb128 0x2f
 2310 0108 0B       		.uleb128 0xb
 2311 0109 00       		.byte	0
 2312 010a 00       		.byte	0
 2313 010b 18       		.uleb128 0x18
 2314 010c 17       		.uleb128 0x17
 2315 010d 01       		.byte	0x1
 2316 010e 03       		.uleb128 0x3
 2317 010f 0E       		.uleb128 0xe
 2318 0110 0B       		.uleb128 0xb
 2319 0111 05       		.uleb128 0x5
 2320 0112 3A       		.uleb128 0x3a
 2321 0113 0B       		.uleb128 0xb
 2322 0114 3B       		.uleb128 0x3b
 2323 0115 0B       		.uleb128 0xb
 2324 0116 01       		.uleb128 0x1
 2325 0117 13       		.uleb128 0x13
 2326 0118 00       		.byte	0
 2327 0119 00       		.byte	0
 2328 011a 19       		.uleb128 0x19
 2329 011b 21       		.uleb128 0x21
ARM GAS  /tmp/ccXo09QA.s 			page 42


 2330 011c 00       		.byte	0
 2331 011d 49       		.uleb128 0x49
 2332 011e 13       		.uleb128 0x13
 2333 011f 2F       		.uleb128 0x2f
 2334 0120 05       		.uleb128 0x5
 2335 0121 00       		.byte	0
 2336 0122 00       		.byte	0
 2337 0123 1A       		.uleb128 0x1a
 2338 0124 2E       		.uleb128 0x2e
 2339 0125 01       		.byte	0x1
 2340 0126 03       		.uleb128 0x3
 2341 0127 0E       		.uleb128 0xe
 2342 0128 3A       		.uleb128 0x3a
 2343 0129 0B       		.uleb128 0xb
 2344 012a 3B       		.uleb128 0x3b
 2345 012b 0B       		.uleb128 0xb
 2346 012c 27       		.uleb128 0x27
 2347 012d 19       		.uleb128 0x19
 2348 012e 11       		.uleb128 0x11
 2349 012f 01       		.uleb128 0x1
 2350 0130 12       		.uleb128 0x12
 2351 0131 06       		.uleb128 0x6
 2352 0132 40       		.uleb128 0x40
 2353 0133 18       		.uleb128 0x18
 2354 0134 9742     		.uleb128 0x2117
 2355 0136 19       		.uleb128 0x19
 2356 0137 01       		.uleb128 0x1
 2357 0138 13       		.uleb128 0x13
 2358 0139 00       		.byte	0
 2359 013a 00       		.byte	0
 2360 013b 1B       		.uleb128 0x1b
 2361 013c 34       		.uleb128 0x34
 2362 013d 00       		.byte	0
 2363 013e 03       		.uleb128 0x3
 2364 013f 08       		.uleb128 0x8
 2365 0140 3A       		.uleb128 0x3a
 2366 0141 0B       		.uleb128 0xb
 2367 0142 3B       		.uleb128 0x3b
 2368 0143 0B       		.uleb128 0xb
 2369 0144 49       		.uleb128 0x49
 2370 0145 13       		.uleb128 0x13
 2371 0146 02       		.uleb128 0x2
 2372 0147 17       		.uleb128 0x17
 2373 0148 00       		.byte	0
 2374 0149 00       		.byte	0
 2375 014a 1C       		.uleb128 0x1c
 2376 014b 34       		.uleb128 0x34
 2377 014c 00       		.byte	0
 2378 014d 03       		.uleb128 0x3
 2379 014e 08       		.uleb128 0x8
 2380 014f 3A       		.uleb128 0x3a
 2381 0150 0B       		.uleb128 0xb
 2382 0151 3B       		.uleb128 0x3b
 2383 0152 0B       		.uleb128 0xb
 2384 0153 49       		.uleb128 0x49
 2385 0154 13       		.uleb128 0x13
 2386 0155 02       		.uleb128 0x2
ARM GAS  /tmp/ccXo09QA.s 			page 43


 2387 0156 18       		.uleb128 0x18
 2388 0157 00       		.byte	0
 2389 0158 00       		.byte	0
 2390 0159 1D       		.uleb128 0x1d
 2391 015a 898201   		.uleb128 0x4109
 2392 015d 00       		.byte	0
 2393 015e 11       		.uleb128 0x11
 2394 015f 01       		.uleb128 0x1
 2395 0160 31       		.uleb128 0x31
 2396 0161 13       		.uleb128 0x13
 2397 0162 00       		.byte	0
 2398 0163 00       		.byte	0
 2399 0164 1E       		.uleb128 0x1e
 2400 0165 898201   		.uleb128 0x4109
 2401 0168 01       		.byte	0x1
 2402 0169 11       		.uleb128 0x11
 2403 016a 01       		.uleb128 0x1
 2404 016b 31       		.uleb128 0x31
 2405 016c 13       		.uleb128 0x13
 2406 016d 01       		.uleb128 0x1
 2407 016e 13       		.uleb128 0x13
 2408 016f 00       		.byte	0
 2409 0170 00       		.byte	0
 2410 0171 1F       		.uleb128 0x1f
 2411 0172 8A8201   		.uleb128 0x410a
 2412 0175 00       		.byte	0
 2413 0176 02       		.uleb128 0x2
 2414 0177 18       		.uleb128 0x18
 2415 0178 9142     		.uleb128 0x2111
 2416 017a 18       		.uleb128 0x18
 2417 017b 00       		.byte	0
 2418 017c 00       		.byte	0
 2419 017d 20       		.uleb128 0x20
 2420 017e 898201   		.uleb128 0x4109
 2421 0181 01       		.byte	0x1
 2422 0182 11       		.uleb128 0x11
 2423 0183 01       		.uleb128 0x1
 2424 0184 31       		.uleb128 0x31
 2425 0185 13       		.uleb128 0x13
 2426 0186 00       		.byte	0
 2427 0187 00       		.byte	0
 2428 0188 21       		.uleb128 0x21
 2429 0189 898201   		.uleb128 0x4109
 2430 018c 01       		.byte	0x1
 2431 018d 11       		.uleb128 0x11
 2432 018e 01       		.uleb128 0x1
 2433 018f 9542     		.uleb128 0x2115
 2434 0191 19       		.uleb128 0x19
 2435 0192 31       		.uleb128 0x31
 2436 0193 13       		.uleb128 0x13
 2437 0194 00       		.byte	0
 2438 0195 00       		.byte	0
 2439 0196 22       		.uleb128 0x22
 2440 0197 34       		.uleb128 0x34
 2441 0198 00       		.byte	0
 2442 0199 03       		.uleb128 0x3
 2443 019a 0E       		.uleb128 0xe
ARM GAS  /tmp/ccXo09QA.s 			page 44


 2444 019b 3A       		.uleb128 0x3a
 2445 019c 0B       		.uleb128 0xb
 2446 019d 3B       		.uleb128 0x3b
 2447 019e 0B       		.uleb128 0xb
 2448 019f 49       		.uleb128 0x49
 2449 01a0 13       		.uleb128 0x13
 2450 01a1 02       		.uleb128 0x2
 2451 01a2 18       		.uleb128 0x18
 2452 01a3 00       		.byte	0
 2453 01a4 00       		.byte	0
 2454 01a5 23       		.uleb128 0x23
 2455 01a6 34       		.uleb128 0x34
 2456 01a7 00       		.byte	0
 2457 01a8 03       		.uleb128 0x3
 2458 01a9 0E       		.uleb128 0xe
 2459 01aa 3A       		.uleb128 0x3a
 2460 01ab 0B       		.uleb128 0xb
 2461 01ac 3B       		.uleb128 0x3b
 2462 01ad 0B       		.uleb128 0xb
 2463 01ae 49       		.uleb128 0x49
 2464 01af 13       		.uleb128 0x13
 2465 01b0 3F       		.uleb128 0x3f
 2466 01b1 19       		.uleb128 0x19
 2467 01b2 3C       		.uleb128 0x3c
 2468 01b3 19       		.uleb128 0x19
 2469 01b4 00       		.byte	0
 2470 01b5 00       		.byte	0
 2471 01b6 24       		.uleb128 0x24
 2472 01b7 34       		.uleb128 0x34
 2473 01b8 00       		.byte	0
 2474 01b9 03       		.uleb128 0x3
 2475 01ba 0E       		.uleb128 0xe
 2476 01bb 3A       		.uleb128 0x3a
 2477 01bc 0B       		.uleb128 0xb
 2478 01bd 3B       		.uleb128 0x3b
 2479 01be 0B       		.uleb128 0xb
 2480 01bf 49       		.uleb128 0x49
 2481 01c0 13       		.uleb128 0x13
 2482 01c1 3F       		.uleb128 0x3f
 2483 01c2 19       		.uleb128 0x19
 2484 01c3 02       		.uleb128 0x2
 2485 01c4 18       		.uleb128 0x18
 2486 01c5 00       		.byte	0
 2487 01c6 00       		.byte	0
 2488 01c7 25       		.uleb128 0x25
 2489 01c8 2E       		.uleb128 0x2e
 2490 01c9 00       		.byte	0
 2491 01ca 3F       		.uleb128 0x3f
 2492 01cb 19       		.uleb128 0x19
 2493 01cc 03       		.uleb128 0x3
 2494 01cd 0E       		.uleb128 0xe
 2495 01ce 3A       		.uleb128 0x3a
 2496 01cf 0B       		.uleb128 0xb
 2497 01d0 3B       		.uleb128 0x3b
 2498 01d1 0B       		.uleb128 0xb
 2499 01d2 27       		.uleb128 0x27
 2500 01d3 19       		.uleb128 0x19
ARM GAS  /tmp/ccXo09QA.s 			page 45


 2501 01d4 49       		.uleb128 0x49
 2502 01d5 13       		.uleb128 0x13
 2503 01d6 3C       		.uleb128 0x3c
 2504 01d7 19       		.uleb128 0x19
 2505 01d8 00       		.byte	0
 2506 01d9 00       		.byte	0
 2507 01da 26       		.uleb128 0x26
 2508 01db 2E       		.uleb128 0x2e
 2509 01dc 01       		.byte	0x1
 2510 01dd 3F       		.uleb128 0x3f
 2511 01de 19       		.uleb128 0x19
 2512 01df 03       		.uleb128 0x3
 2513 01e0 0E       		.uleb128 0xe
 2514 01e1 3A       		.uleb128 0x3a
 2515 01e2 0B       		.uleb128 0xb
 2516 01e3 3B       		.uleb128 0x3b
 2517 01e4 0B       		.uleb128 0xb
 2518 01e5 27       		.uleb128 0x27
 2519 01e6 19       		.uleb128 0x19
 2520 01e7 49       		.uleb128 0x49
 2521 01e8 13       		.uleb128 0x13
 2522 01e9 3C       		.uleb128 0x3c
 2523 01ea 19       		.uleb128 0x19
 2524 01eb 01       		.uleb128 0x1
 2525 01ec 13       		.uleb128 0x13
 2526 01ed 00       		.byte	0
 2527 01ee 00       		.byte	0
 2528 01ef 27       		.uleb128 0x27
 2529 01f0 2E       		.uleb128 0x2e
 2530 01f1 01       		.byte	0x1
 2531 01f2 3F       		.uleb128 0x3f
 2532 01f3 19       		.uleb128 0x19
 2533 01f4 03       		.uleb128 0x3
 2534 01f5 0E       		.uleb128 0xe
 2535 01f6 3A       		.uleb128 0x3a
 2536 01f7 0B       		.uleb128 0xb
 2537 01f8 3B       		.uleb128 0x3b
 2538 01f9 0B       		.uleb128 0xb
 2539 01fa 27       		.uleb128 0x27
 2540 01fb 19       		.uleb128 0x19
 2541 01fc 3C       		.uleb128 0x3c
 2542 01fd 19       		.uleb128 0x19
 2543 01fe 01       		.uleb128 0x1
 2544 01ff 13       		.uleb128 0x13
 2545 0200 00       		.byte	0
 2546 0201 00       		.byte	0
 2547 0202 28       		.uleb128 0x28
 2548 0203 2E       		.uleb128 0x2e
 2549 0204 01       		.byte	0x1
 2550 0205 3F       		.uleb128 0x3f
 2551 0206 19       		.uleb128 0x19
 2552 0207 03       		.uleb128 0x3
 2553 0208 0E       		.uleb128 0xe
 2554 0209 3A       		.uleb128 0x3a
 2555 020a 0B       		.uleb128 0xb
 2556 020b 3B       		.uleb128 0x3b
 2557 020c 0B       		.uleb128 0xb
ARM GAS  /tmp/ccXo09QA.s 			page 46


 2558 020d 27       		.uleb128 0x27
 2559 020e 19       		.uleb128 0x19
 2560 020f 3C       		.uleb128 0x3c
 2561 0210 19       		.uleb128 0x19
 2562 0211 00       		.byte	0
 2563 0212 00       		.byte	0
 2564 0213 00       		.byte	0
 2565              		.section	.debug_loc,"",%progbits
 2566              	.Ldebug_loc0:
 2567              	.LLST0:
 2568 0000 24000000 		.4byte	.LVL2
 2569 0004 34000000 		.4byte	.LVL3
 2570 0008 0100     		.2byte	0x1
 2571 000a 50       		.byte	0x50
 2572 000b 34000000 		.4byte	.LVL3
 2573 000f 40000000 		.4byte	.LVL5
 2574 0013 0100     		.2byte	0x1
 2575 0015 54       		.byte	0x54
 2576 0016 48000000 		.4byte	.LVL6
 2577 001a 5C000000 		.4byte	.LVL8
 2578 001e 0100     		.2byte	0x1
 2579 0020 54       		.byte	0x54
 2580 0021 5C000000 		.4byte	.LVL8
 2581 0025 64000000 		.4byte	.LVL9
 2582 0029 0100     		.2byte	0x1
 2583 002b 50       		.byte	0x50
 2584 002c 94000000 		.4byte	.LVL13
 2585 0030 98000000 		.4byte	.LVL14
 2586 0034 0100     		.2byte	0x1
 2587 0036 50       		.byte	0x50
 2588 0037 98000000 		.4byte	.LVL14
 2589 003b 04010000 		.4byte	.LVL27
 2590 003f 0100     		.2byte	0x1
 2591 0041 56       		.byte	0x56
 2592 0042 04010000 		.4byte	.LVL27
 2593 0046 08010000 		.4byte	.LVL28
 2594 004a 0100     		.2byte	0x1
 2595 004c 50       		.byte	0x50
 2596 004d 08010000 		.4byte	.LVL28
 2597 0051 6C010000 		.4byte	.LVL39
 2598 0055 0100     		.2byte	0x1
 2599 0057 54       		.byte	0x54
 2600 0058 6C010000 		.4byte	.LVL39
 2601 005c 70010000 		.4byte	.LVL40
 2602 0060 0100     		.2byte	0x1
 2603 0062 50       		.byte	0x50
 2604 0063 70010000 		.4byte	.LVL40
 2605 0067 BC010000 		.4byte	.LVL48
 2606 006b 0100     		.2byte	0x1
 2607 006d 54       		.byte	0x54
 2608 006e BC010000 		.4byte	.LVL48
 2609 0072 C0010000 		.4byte	.LVL49
 2610 0076 0100     		.2byte	0x1
 2611 0078 50       		.byte	0x50
 2612 0079 C0010000 		.4byte	.LVL49
 2613 007d 44020000 		.4byte	.LVL58
 2614 0081 0100     		.2byte	0x1
ARM GAS  /tmp/ccXo09QA.s 			page 47


 2615 0083 54       		.byte	0x54
 2616 0084 44020000 		.4byte	.LVL58
 2617 0088 48020000 		.4byte	.LVL59
 2618 008c 0100     		.2byte	0x1
 2619 008e 50       		.byte	0x50
 2620 008f 48020000 		.4byte	.LVL59
 2621 0093 8C020000 		.4byte	.LVL66
 2622 0097 0100     		.2byte	0x1
 2623 0099 55       		.byte	0x55
 2624 009a 8C020000 		.4byte	.LVL66
 2625 009e 8F020000 		.4byte	.LVL67-1
 2626 00a2 0100     		.2byte	0x1
 2627 00a4 50       		.byte	0x50
 2628 00a5 E0020000 		.4byte	.LVL73
 2629 00a9 E4020000 		.4byte	.LVL74
 2630 00ad 0100     		.2byte	0x1
 2631 00af 50       		.byte	0x50
 2632 00b0 E4020000 		.4byte	.LVL74
 2633 00b4 50030000 		.4byte	.LFE8
 2634 00b8 0100     		.2byte	0x1
 2635 00ba 54       		.byte	0x54
 2636 00bb 00000000 		.4byte	0
 2637 00bf 00000000 		.4byte	0
 2638              	.LLST1:
 2639 00c3 A4000000 		.4byte	.LVL16
 2640 00c7 A8000000 		.4byte	.LVL17
 2641 00cb 0100     		.2byte	0x1
 2642 00cd 50       		.byte	0x50
 2643 00ce A8000000 		.4byte	.LVL17
 2644 00d2 10010000 		.4byte	.LVL30
 2645 00d6 0100     		.2byte	0x1
 2646 00d8 55       		.byte	0x55
 2647 00d9 10010000 		.4byte	.LVL30
 2648 00dd 18010000 		.4byte	.LVL31
 2649 00e1 0100     		.2byte	0x1
 2650 00e3 50       		.byte	0x50
 2651 00e4 18010000 		.4byte	.LVL31
 2652 00e8 78010000 		.4byte	.LVL42
 2653 00ec 0100     		.2byte	0x1
 2654 00ee 55       		.byte	0x55
 2655 00ef 78010000 		.4byte	.LVL42
 2656 00f3 7C010000 		.4byte	.LVL43
 2657 00f7 0100     		.2byte	0x1
 2658 00f9 50       		.byte	0x50
 2659 00fa 7C010000 		.4byte	.LVL43
 2660 00fe 44020000 		.4byte	.LVL58
 2661 0102 0100     		.2byte	0x1
 2662 0104 55       		.byte	0x55
 2663 0105 50020000 		.4byte	.LVL61
 2664 0109 54020000 		.4byte	.LVL62
 2665 010d 0100     		.2byte	0x1
 2666 010f 50       		.byte	0x50
 2667 0110 54020000 		.4byte	.LVL62
 2668 0114 E0020000 		.4byte	.LVL73
 2669 0118 0100     		.2byte	0x1
 2670 011a 54       		.byte	0x54
 2671 011b 00000000 		.4byte	0
ARM GAS  /tmp/ccXo09QA.s 			page 48


 2672 011f 00000000 		.4byte	0
 2673              	.LLST2:
 2674 0123 B0000000 		.4byte	.LVL19
 2675 0127 B4000000 		.4byte	.LVL20
 2676 012b 0100     		.2byte	0x1
 2677 012d 50       		.byte	0x50
 2678 012e B4000000 		.4byte	.LVL20
 2679 0132 04010000 		.4byte	.LVL27
 2680 0136 0100     		.2byte	0x1
 2681 0138 54       		.byte	0x54
 2682 0139 1C010000 		.4byte	.LVL32
 2683 013d 1F010000 		.4byte	.LVL33-1
 2684 0141 0100     		.2byte	0x1
 2685 0143 50       		.byte	0x50
 2686 0144 00000000 		.4byte	0
 2687 0148 00000000 		.4byte	0
 2688              		.section	.debug_aranges,"",%progbits
 2689 0000 24000000 		.4byte	0x24
 2690 0004 0200     		.2byte	0x2
 2691 0006 00000000 		.4byte	.Ldebug_info0
 2692 000a 04       		.byte	0x4
 2693 000b 00       		.byte	0
 2694 000c 0000     		.2byte	0
 2695 000e 0000     		.2byte	0
 2696 0010 00000000 		.4byte	.LFB8
 2697 0014 50030000 		.4byte	.LFE8-.LFB8
 2698 0018 00000000 		.4byte	.LFB7
 2699 001c 1C000000 		.4byte	.LFE7-.LFB7
 2700 0020 00000000 		.4byte	0
 2701 0024 00000000 		.4byte	0
 2702              		.section	.debug_ranges,"",%progbits
 2703              	.Ldebug_ranges0:
 2704 0000 00000000 		.4byte	.LFB8
 2705 0004 50030000 		.4byte	.LFE8
 2706 0008 00000000 		.4byte	.LFB7
 2707 000c 1C000000 		.4byte	.LFE7
 2708 0010 00000000 		.4byte	0
 2709 0014 00000000 		.4byte	0
 2710              		.section	.debug_line,"",%progbits
 2711              	.Ldebug_line0:
 2712 0000 C4010000 		.section	.debug_str,"MS",%progbits,1
 2712      02004A01 
 2712      00000201 
 2712      FB0E0D00 
 2712      01010101 
 2713              	.LASF40:
 2714 0000 705F6D73 		.ascii	"p_msg\000"
 2714      6700
 2715              	.LASF2:
 2716 0006 73697A65 		.ascii	"size_t\000"
 2716      5F7400
 2717              	.LASF64:
 2718 000d 7264796D 		.ascii	"rdymsg\000"
 2718      736700
 2719              	.LASF3:
 2720 0014 5F5F7569 		.ascii	"__uint8_t\000"
 2720      6E74385F 
ARM GAS  /tmp/ccXo09QA.s 			page 49


 2720      7400
 2721              	.LASF54:
 2722 001e 6D656D67 		.ascii	"memgetfunc_t\000"
 2722      65746675 
 2722      6E635F74 
 2722      00
 2723              	.LASF12:
 2724 002b 6C6F6E67 		.ascii	"long long unsigned int\000"
 2724      206C6F6E 
 2724      6720756E 
 2724      7369676E 
 2724      65642069 
 2725              	.LASF65:
 2726 0042 65786974 		.ascii	"exitcode\000"
 2726      636F6465 
 2726      00
 2727              	.LASF58:
 2728 004b 685F6672 		.ascii	"h_free\000"
 2728      656500
 2729              	.LASF81:
 2730 0052 74657374 		.ascii	"test\000"
 2730      00
 2731              	.LASF92:
 2732 0057 63684865 		.ascii	"chHeapInit\000"
 2732      6170496E 
 2732      697400
 2733              	.LASF60:
 2734 0062 6E657874 		.ascii	"next\000"
 2734      00
 2735              	.LASF28:
 2736 0067 705F7072 		.ascii	"p_prio\000"
 2736      696F00
 2737              	.LASF83:
 2738 006e 70617474 		.ascii	"patternheap\000"
 2738      65726E68 
 2738      65617000 
 2739              	.LASF11:
 2740 007a 6C6F6E67 		.ascii	"long long int\000"
 2740      206C6F6E 
 2740      6720696E 
 2740      7400
 2741              	.LASF1:
 2742 0088 7369676E 		.ascii	"signed char\000"
 2742      65642063 
 2742      68617200 
 2743              	.LASF59:
 2744 0094 685F6D74 		.ascii	"h_mtx\000"
 2744      7800
 2745              	.LASF16:
 2746 009a 626F6F6C 		.ascii	"bool_t\000"
 2746      5F7400
 2747              	.LASF51:
 2748 00a1 6D5F7175 		.ascii	"m_queue\000"
 2748      65756500 
 2749              	.LASF91:
 2750 00a9 63684865 		.ascii	"chHeapFree\000"
 2750      61704672 
ARM GAS  /tmp/ccXo09QA.s 			page 50


 2750      656500
 2751              	.LASF79:
 2752 00b4 68656170 		.ascii	"heap1_setup\000"
 2752      315F7365 
 2752      74757000 
 2753              	.LASF20:
 2754 00c0 74736C69 		.ascii	"tslices_t\000"
 2754      6365735F 
 2754      7400
 2755              	.LASF8:
 2756 00ca 6C6F6E67 		.ascii	"long int\000"
 2756      20696E74 
 2756      00
 2757              	.LASF18:
 2758 00d3 74737461 		.ascii	"tstate_t\000"
 2758      74655F74 
 2758      00
 2759              	.LASF77:
 2760 00dc 62756666 		.ascii	"buffer\000"
 2760      657200
 2761              	.LASF30:
 2762 00e3 705F6E65 		.ascii	"p_newer\000"
 2762      77657200 
 2763              	.LASF9:
 2764 00eb 5F5F7569 		.ascii	"__uint32_t\000"
 2764      6E743332 
 2764      5F7400
 2765              	.LASF47:
 2766 00f6 72656761 		.ascii	"regarm_t\000"
 2766      726D5F74 
 2766      00
 2767              	.LASF78:
 2768 00ff 68656170 		.ascii	"heap1_execute\000"
 2768      315F6578 
 2768      65637574 
 2768      6500
 2769              	.LASF62:
 2770 010d 616C6967 		.ascii	"align\000"
 2770      6E00
 2771              	.LASF0:
 2772 0113 756E7369 		.ascii	"unsigned int\000"
 2772      676E6564 
 2772      20696E74 
 2772      00
 2773              	.LASF10:
 2774 0120 6C6F6E67 		.ascii	"long unsigned int\000"
 2774      20756E73 
 2774      69676E65 
 2774      6420696E 
 2774      7400
 2775              	.LASF73:
 2776 0132 74656172 		.ascii	"teardown\000"
 2776      646F776E 
 2776      00
 2777              	.LASF71:
 2778 013b 6E616D65 		.ascii	"name\000"
 2778      00
ARM GAS  /tmp/ccXo09QA.s 			page 51


 2779              	.LASF49:
 2780 0140 636F6E74 		.ascii	"context\000"
 2780      65787400 
 2781              	.LASF63:
 2782 0148 73697A65 		.ascii	"size\000"
 2782      00
 2783              	.LASF6:
 2784 014d 73686F72 		.ascii	"short unsigned int\000"
 2784      7420756E 
 2784      7369676E 
 2784      65642069 
 2784      6E7400
 2785              	.LASF22:
 2786 0160 6D73675F 		.ascii	"msg_t\000"
 2786      7400
 2787              	.LASF17:
 2788 0166 746D6F64 		.ascii	"tmode_t\000"
 2788      655F7400 
 2789              	.LASF45:
 2790 016e 54687265 		.ascii	"ThreadsList\000"
 2790      6164734C 
 2790      69737400 
 2791              	.LASF23:
 2792 017a 6576656E 		.ascii	"eventmask_t\000"
 2792      746D6173 
 2792      6B5F7400 
 2793              	.LASF50:
 2794 0186 4D757465 		.ascii	"Mutex\000"
 2794      7800
 2795              	.LASF46:
 2796 018c 73746B61 		.ascii	"stkalign_t\000"
 2796      6C69676E 
 2796      5F7400
 2797              	.LASF82:
 2798 0197 74657374 		.ascii	"testheap1\000"
 2798      68656170 
 2798      3100
 2799              	.LASF69:
 2800 01a1 73697A65 		.ascii	"sizetype\000"
 2800      74797065 
 2800      00
 2801              	.LASF90:
 2802 01aa 6368436F 		.ascii	"chCoreStatus\000"
 2802      72655374 
 2802      61747573 
 2802      00
 2803              	.LASF31:
 2804 01b7 705F6F6C 		.ascii	"p_older\000"
 2804      64657200 
 2805              	.LASF44:
 2806 01bf 54687265 		.ascii	"ThreadsQueue\000"
 2806      61647351 
 2806      75657565 
 2806      00
 2807              	.LASF72:
 2808 01cc 73657475 		.ascii	"setup\000"
 2808      7000
ARM GAS  /tmp/ccXo09QA.s 			page 52


 2809              	.LASF55:
 2810 01d2 4D656D6F 		.ascii	"MemoryHeap\000"
 2810      72794865 
 2810      617000
 2811              	.LASF19:
 2812 01dd 74726566 		.ascii	"trefs_t\000"
 2812      735F7400 
 2813              	.LASF27:
 2814 01e5 705F7072 		.ascii	"p_prev\000"
 2814      657600
 2815              	.LASF74:
 2816 01ec 65786563 		.ascii	"execute\000"
 2816      75746500 
 2817              	.LASF21:
 2818 01f4 74707269 		.ascii	"tprio_t\000"
 2818      6F5F7400 
 2819              	.LASF88:
 2820 01fc 2E2E2F2E 		.ascii	"../../test/testheap.c\000"
 2820      2E2F7465 
 2820      73742F74 
 2820      65737468 
 2820      6561702E 
 2821              	.LASF14:
 2822 0212 696E7433 		.ascii	"int32_t\000"
 2822      325F7400 
 2823              	.LASF4:
 2824 021a 756E7369 		.ascii	"unsigned char\000"
 2824      676E6564 
 2824      20636861 
 2824      7200
 2825              	.LASF57:
 2826 0228 685F7072 		.ascii	"h_provider\000"
 2826      6F766964 
 2826      657200
 2827              	.LASF42:
 2828 0233 705F6D74 		.ascii	"p_mtxlist\000"
 2828      786C6973 
 2828      7400
 2829              	.LASF5:
 2830 023d 73686F72 		.ascii	"short int\000"
 2830      7420696E 
 2830      7400
 2831              	.LASF33:
 2832 0247 705F7374 		.ascii	"p_state\000"
 2832      61746500 
 2833              	.LASF36:
 2834 024f 705F7072 		.ascii	"p_preempt\000"
 2834      65656D70 
 2834      7400
 2835              	.LASF75:
 2836 0259 68656170 		.ascii	"heap_header\000"
 2836      5F686561 
 2836      64657200 
 2837              	.LASF67:
 2838 0265 65776D61 		.ascii	"ewmask\000"
 2838      736B00
 2839              	.LASF26:
ARM GAS  /tmp/ccXo09QA.s 			page 53


 2840 026c 705F6E65 		.ascii	"p_next\000"
 2840      787400
 2841              	.LASF34:
 2842 0273 705F666C 		.ascii	"p_flags\000"
 2842      61677300 
 2843              	.LASF25:
 2844 027b 54687265 		.ascii	"Thread\000"
 2844      616400
 2845              	.LASF85:
 2846 0282 63684865 		.ascii	"chHeapAlloc\000"
 2846      6170416C 
 2846      6C6F6300 
 2847              	.LASF70:
 2848 028e 74657374 		.ascii	"testcase\000"
 2848      63617365 
 2848      00
 2849              	.LASF41:
 2850 0297 705F6570 		.ascii	"p_epending\000"
 2850      656E6469 
 2850      6E6700
 2851              	.LASF15:
 2852 02a2 75696E74 		.ascii	"uint32_t\000"
 2852      33325F74 
 2852      00
 2853              	.LASF61:
 2854 02ab 68656170 		.ascii	"heap\000"
 2854      00
 2855              	.LASF68:
 2856 02b0 63686172 		.ascii	"char\000"
 2856      00
 2857              	.LASF84:
 2858 02b5 63684865 		.ascii	"chHeapStatus\000"
 2858      61705374 
 2858      61747573 
 2858      00
 2859              	.LASF53:
 2860 02c2 6D5F6E65 		.ascii	"m_next\000"
 2860      787400
 2861              	.LASF24:
 2862 02c9 73797374 		.ascii	"systime_t\000"
 2862      696D655F 
 2862      7400
 2863              	.LASF43:
 2864 02d3 705F7265 		.ascii	"p_realprio\000"
 2864      616C7072 
 2864      696F00
 2865              	.LASF7:
 2866 02de 5F5F696E 		.ascii	"__int32_t\000"
 2866      7433325F 
 2866      7400
 2867              	.LASF37:
 2868 02e8 705F7469 		.ascii	"p_time\000"
 2868      6D6500
 2869              	.LASF48:
 2870 02ef 696E7463 		.ascii	"intctx\000"
 2870      747800
 2871              	.LASF39:
ARM GAS  /tmp/ccXo09QA.s 			page 54


 2872 02f6 705F6D73 		.ascii	"p_msgqueue\000"
 2872      67717565 
 2872      756500
 2873              	.LASF89:
 2874 0301 2F686F6D 		.ascii	"/home/hunter/development/chibi/ChibiOS-RPi/demos/AR"
 2874      652F6875 
 2874      6E746572 
 2874      2F646576 
 2874      656C6F70 
 2875 0334 4D31312D 		.ascii	"M11-BCM2835-GCC\000"
 2875      42434D32 
 2875      3833352D 
 2875      47434300 
 2876              	.LASF76:
 2877 0344 74657374 		.ascii	"test_buffers\000"
 2877      5F627566 
 2877      66657273 
 2877      00
 2878              	.LASF35:
 2879 0351 705F7265 		.ascii	"p_refs\000"
 2879      667300
 2880              	.LASF13:
 2881 0358 75696E74 		.ascii	"uint8_t\000"
 2881      385F7400 
 2882              	.LASF80:
 2883 0360 74657374 		.ascii	"test_heap\000"
 2883      5F686561 
 2883      7000
 2884              	.LASF66:
 2885 036a 77746F62 		.ascii	"wtobjp\000"
 2885      6A7000
 2886              	.LASF32:
 2887 0371 705F6E61 		.ascii	"p_name\000"
 2887      6D6500
 2888              	.LASF87:
 2889 0378 474E5520 		.ascii	"GNU C 4.9.3 20150529 (prerelease) -mcpu=arm1176jz-s"
 2889      4320342E 
 2889      392E3320 
 2889      32303135 
 2889      30353239 
 2890 03ab 202D6D6E 		.ascii	" -mno-thumb-interwork -ggdb -O2 -fomit-frame-pointe"
 2890      6F2D7468 
 2890      756D622D 
 2890      696E7465 
 2890      72776F72 
 2891 03de 72202D66 		.ascii	"r -ffunction-sections -fdata-sections\000"
 2891      66756E63 
 2891      74696F6E 
 2891      2D736563 
 2891      74696F6E 
 2892              	.LASF86:
 2893 0404 5F746573 		.ascii	"_test_assert\000"
 2893      745F6173 
 2893      73657274 
 2893      00
 2894              	.LASF52:
 2895 0411 6D5F6F77 		.ascii	"m_owner\000"
ARM GAS  /tmp/ccXo09QA.s 			page 55


 2895      6E657200 
 2896              	.LASF29:
 2897 0419 705F6374 		.ascii	"p_ctx\000"
 2897      7800
 2898              	.LASF38:
 2899 041f 705F7761 		.ascii	"p_waiting\000"
 2899      6974696E 
 2899      6700
 2900              	.LASF56:
 2901 0429 6D656D6F 		.ascii	"memory_heap\000"
 2901      72795F68 
 2901      65617000 
 2902              		.ident	"GCC: (15:4.9.3+svn231177-1) 4.9.3 20150529 (prerelease)"
ARM GAS  /tmp/ccXo09QA.s 			page 56


DEFINED SYMBOLS
                            *ABS*:0000000000000000 testheap.c
     /tmp/ccXo09QA.s:17     .text.heap1_execute:0000000000000000 $a
     /tmp/ccXo09QA.s:19     .text.heap1_execute:0000000000000000 heap1_execute
     /tmp/ccXo09QA.s:396    .text.heap1_execute:000000000000034c $d
     /tmp/ccXo09QA.s:401    .text.heap1_setup:0000000000000000 $a
     /tmp/ccXo09QA.s:403    .text.heap1_setup:0000000000000000 heap1_setup
     /tmp/ccXo09QA.s:419    .text.heap1_setup:0000000000000010 $d
     /tmp/ccXo09QA.s:431    .rodata.patternheap:0000000000000000 patternheap
     /tmp/ccXo09QA.s:442    .rodata.testheap1:0000000000000000 testheap1
     /tmp/ccXo09QA.s:428    .rodata.patternheap:0000000000000000 $d
     /tmp/ccXo09QA.s:435    .rodata.str1.4:0000000000000000 $d
     /tmp/ccXo09QA.s:439    .rodata.testheap1:0000000000000000 $d
     /tmp/ccXo09QA.s:448    .bss.test_heap:0000000000000000 $d
     /tmp/ccXo09QA.s:452    .bss.test_heap:0000000000000000 test_heap
                     .debug_frame:0000000000000010 $d

UNDEFINED SYMBOLS
chCoreStatus
chHeapStatus
chHeapAlloc
_test_assert
chHeapFree
chHeapInit
test
