ARM GAS  /tmp/ccIAyMaf.s 			page 1


   1              		.cpu arm1176jz-s
   2              		.fpu softvfp
   3              		.eabi_attribute 20, 1
   4              		.eabi_attribute 21, 1
   5              		.eabi_attribute 23, 3
   6              		.eabi_attribute 24, 1
   7              		.eabi_attribute 25, 1
   8              		.eabi_attribute 26, 1
   9              		.eabi_attribute 30, 2
  10              		.eabi_attribute 34, 1
  11              		.eabi_attribute 18, 4
  12              		.file	"testsem.c"
  13              		.text
  14              	.Ltext0:
  15              		.cfi_sections	.debug_frame
  16              		.section	.text.sem1_execute,"ax",%progbits
  17              		.align	2
  18              		.type	sem1_execute, %function
  19              	sem1_execute:
  20              	.LFB9:
  21              		.file 1 "../../test/testsem.c"
  22              		.loc 1 88 0
  23              		.cfi_startproc
  24              		@ args = 0, pretend = 0, frame = 0
  25              		@ frame_needed = 0, uses_anonymous_args = 0
  26 0000 F0412DE9 		stmfd	sp!, {r4, r5, r6, r7, r8, lr}
  27              		.cfi_def_cfa_offset 24
  28              		.cfi_offset 4, -24
  29              		.cfi_offset 5, -20
  30              		.cfi_offset 6, -16
  31              		.cfi_offset 7, -12
  32              		.cfi_offset 8, -8
  33              		.cfi_offset 14, -4
  34              		.loc 1 90 0
  35 0004 8C619FE5 		ldr	r6, .L6
  36 0008 8C419FE5 		ldr	r4, .L6+4
  37 000c 183096E5 		ldr	r3, [r6, #24]
  38 0010 008094E5 		ldr	r8, [r4]
  39 0014 082093E5 		ldr	r2, [r3, #8]
  40 0018 80719FE5 		ldr	r7, .L6+8
  41              		.loc 1 88 0
  42 001c 08D04DE2 		sub	sp, sp, #8
  43              		.cfi_def_cfa_offset 32
  44              		.loc 1 90 0
  45 0020 052082E2 		add	r2, r2, #5
  46 0024 461FA0E3 		mov	r1, #280
  47 0028 74319FE5 		ldr	r3, .L6+12
  48 002c 0800A0E1 		mov	r0, r8
  49 0030 00708DE5 		str	r7, [sp]
  50 0034 FEFFFFEB 		bl	chThdCreateStatic
  51              	.LVL0:
  52              		.loc 1 91 0
  53 0038 183096E5 		ldr	r3, [r6, #24]
  54              		.loc 1 90 0
  55 003c 64519FE5 		ldr	r5, .L6+16
  56              		.loc 1 91 0
  57 0040 082093E5 		ldr	r2, [r3, #8]
ARM GAS  /tmp/ccIAyMaf.s 			page 2


  58 0044 041094E5 		ldr	r1, [r4, #4]
  59 0048 5C319FE5 		ldr	r3, .L6+20
  60              		.loc 1 90 0
  61 004c 000085E5 		str	r0, [r5]
  62              		.loc 1 91 0
  63 0050 012082E2 		add	r2, r2, #1
  64 0054 0100A0E1 		mov	r0, r1
  65 0058 00308DE5 		str	r3, [sp]
  66 005c 461FA0E3 		mov	r1, #280
  67 0060 3C319FE5 		ldr	r3, .L6+12
  68 0064 FEFFFFEB 		bl	chThdCreateStatic
  69              	.LVL1:
  70              		.loc 1 92 0
  71 0068 183096E5 		ldr	r3, [r6, #24]
  72 006c 081094E5 		ldr	r1, [r4, #8]
  73 0070 082093E5 		ldr	r2, [r3, #8]
  74 0074 34319FE5 		ldr	r3, .L6+24
  75              		.loc 1 91 0
  76 0078 040085E5 		str	r0, [r5, #4]
  77              		.loc 1 92 0
  78 007c 032082E2 		add	r2, r2, #3
  79 0080 0100A0E1 		mov	r0, r1
  80 0084 00308DE5 		str	r3, [sp]
  81 0088 461FA0E3 		mov	r1, #280
  82 008c 10319FE5 		ldr	r3, .L6+12
  83 0090 FEFFFFEB 		bl	chThdCreateStatic
  84              	.LVL2:
  85              		.loc 1 93 0
  86 0094 183096E5 		ldr	r3, [r6, #24]
  87 0098 0C1094E5 		ldr	r1, [r4, #12]
  88 009c 082093E5 		ldr	r2, [r3, #8]
  89 00a0 0C319FE5 		ldr	r3, .L6+28
  90              		.loc 1 92 0
  91 00a4 080085E5 		str	r0, [r5, #8]
  92              		.loc 1 93 0
  93 00a8 042082E2 		add	r2, r2, #4
  94 00ac 0100A0E1 		mov	r0, r1
  95 00b0 00308DE5 		str	r3, [sp]
  96 00b4 461FA0E3 		mov	r1, #280
  97 00b8 E4309FE5 		ldr	r3, .L6+12
  98 00bc FEFFFFEB 		bl	chThdCreateStatic
  99              	.LVL3:
 100              		.loc 1 94 0
 101 00c0 183096E5 		ldr	r3, [r6, #24]
 102 00c4 101094E5 		ldr	r1, [r4, #16]
 103 00c8 082093E5 		ldr	r2, [r3, #8]
 104 00cc E4309FE5 		ldr	r3, .L6+32
 105 00d0 022082E2 		add	r2, r2, #2
 106              		.loc 1 93 0
 107 00d4 0C0085E5 		str	r0, [r5, #12]
 108              		.loc 1 94 0
 109 00d8 00308DE5 		str	r3, [sp]
 110 00dc 0100A0E1 		mov	r0, r1
 111 00e0 BC309FE5 		ldr	r3, .L6+12
 112 00e4 461FA0E3 		mov	r1, #280
 113 00e8 FEFFFFEB 		bl	chThdCreateStatic
 114              	.LVL4:
ARM GAS  /tmp/ccIAyMaf.s 			page 3


 115              		.loc 1 95 0
 116 00ec C8409FE5 		ldr	r4, .L6+36
 117              		.loc 1 94 0
 118 00f0 100085E5 		str	r0, [r5, #16]
 119              		.loc 1 95 0
 120 00f4 0400A0E1 		mov	r0, r4
 121 00f8 FEFFFFEB 		bl	chSemSignal
 122              	.LVL5:
 123              		.loc 1 96 0
 124 00fc 0400A0E1 		mov	r0, r4
 125 0100 FEFFFFEB 		bl	chSemSignal
 126              	.LVL6:
 127              		.loc 1 97 0
 128 0104 0400A0E1 		mov	r0, r4
 129 0108 FEFFFFEB 		bl	chSemSignal
 130              	.LVL7:
 131              		.loc 1 98 0
 132 010c 0400A0E1 		mov	r0, r4
 133 0110 FEFFFFEB 		bl	chSemSignal
 134              	.LVL8:
 135              		.loc 1 99 0
 136 0114 0400A0E1 		mov	r0, r4
 137 0118 FEFFFFEB 		bl	chSemSignal
 138              	.LVL9:
 139              		.loc 1 100 0
 140 011c FEFFFFEB 		bl	test_wait_threads
 141              	.LVL10:
 142              		.loc 1 104 0
 143 0120 0100A0E3 		mov	r0, #1
 144 0124 94109FE5 		ldr	r1, .L6+40
 145 0128 FEFFFFEB 		bl	_test_assert_sequence
 146              	.LVL11:
 147 012c 000050E3 		cmp	r0, #0
 148 0130 0100000A 		beq	.L5
 149              		.loc 1 112 0
 150 0134 08D08DE2 		add	sp, sp, #8
 151              		.cfi_remember_state
 152              		.cfi_def_cfa_offset 24
 153              		@ sp needed
 154 0138 F081BDE8 		ldmfd	sp!, {r4, r5, r6, r7, r8, pc}
 155              	.L5:
 156              		.cfi_restore_state
 157              		.loc 1 106 0
 158 013c 183096E5 		ldr	r3, [r6, #24]
 159 0140 0800A0E1 		mov	r0, r8
 160 0144 082093E5 		ldr	r2, [r3, #8]
 161 0148 461FA0E3 		mov	r1, #280
 162 014c 052082E2 		add	r2, r2, #5
 163 0150 00708DE5 		str	r7, [sp]
 164 0154 48309FE5 		ldr	r3, .L6+12
 165 0158 FEFFFFEB 		bl	chThdCreateStatic
 166              	.LVL12:
 167 015c 000085E5 		str	r0, [r5]
 168              		.loc 1 107 0
 169              	@ 107 "../../test/testsem.c" 1
 170 0160 9FF021E3 		msr     CPSR_c, #0x9F
 171              	@ 0 "" 2
ARM GAS  /tmp/ccIAyMaf.s 			page 4


 172              		.loc 1 108 0
 173 0164 0210A0E3 		mov	r1, #2
 174 0168 0400A0E1 		mov	r0, r4
 175 016c FEFFFFEB 		bl	chSemAddCounterI
 176              	.LVL13:
 177              		.loc 1 109 0
 178              	@ 109 "../../test/testsem.c" 1
 179 0170 1FF021E3 		msr     CPSR_c, #0x1F
 180              	@ 0 "" 2
 181              		.loc 1 110 0
 182 0174 FEFFFFEB 		bl	test_wait_threads
 183              	.LVL14:
 184              		.loc 1 111 0
 185 0178 081094E5 		ldr	r1, [r4, #8]
 186 017c 0200A0E3 		mov	r0, #2
 187 0180 011041E2 		sub	r1, r1, #1
 188 0184 111F6FE1 		clz	r1, r1
 189 0188 A112A0E1 		mov	r1, r1, lsr #5
 190              		.loc 1 112 0
 191 018c 08D08DE2 		add	sp, sp, #8
 192              		.cfi_def_cfa_offset 24
 193              		@ sp needed
 194 0190 F041BDE8 		ldmfd	sp!, {r4, r5, r6, r7, r8, lr}
 195              		.cfi_restore 14
 196              		.cfi_restore 8
 197              		.cfi_restore 7
 198              		.cfi_restore 6
 199              		.cfi_restore 5
 200              		.cfi_restore 4
 201              		.cfi_def_cfa_offset 0
 202              		.loc 1 111 0
 203 0194 FEFFFFEA 		b	_test_assert
 204              	.LVL15:
 205              	.L7:
 206              		.align	2
 207              	.L6:
 208 0198 00000000 		.word	rlist
 209 019c 00000000 		.word	wa
 210 01a0 00000000 		.word	.LC0
 211 01a4 00000000 		.word	thread1
 212 01a8 00000000 		.word	threads
 213 01ac 04000000 		.word	.LC1
 214 01b0 08000000 		.word	.LC2
 215 01b4 0C000000 		.word	.LC3
 216 01b8 10000000 		.word	.LC4
 217 01bc 00000000 		.word	.LANCHOR0
 218 01c0 14000000 		.word	.LC5
 219              		.cfi_endproc
 220              	.LFE9:
 221              		.size	sem1_execute, .-sem1_execute
 222              		.section	.text.thread3,"ax",%progbits
 223              		.align	2
 224              		.type	thread3, %function
 225              	thread3:
 226              	.LFB14:
 227              		.loc 1 213 0
 228              		.cfi_startproc
ARM GAS  /tmp/ccIAyMaf.s 			page 5


 229              		@ args = 0, pretend = 0, frame = 0
 230              		@ frame_needed = 0, uses_anonymous_args = 0
 231              	.LVL16:
 232 0000 10402DE9 		stmfd	sp!, {r4, lr}
 233              		.cfi_def_cfa_offset 8
 234              		.cfi_offset 4, -8
 235              		.cfi_offset 14, -4
 236              		.loc 1 216 0
 237 0004 14409FE5 		ldr	r4, .L10
 238 0008 0400A0E1 		mov	r0, r4
 239              	.LVL17:
 240 000c FEFFFFEB 		bl	chSemWait
 241              	.LVL18:
 242              		.loc 1 217 0
 243 0010 0400A0E1 		mov	r0, r4
 244 0014 FEFFFFEB 		bl	chSemSignal
 245              	.LVL19:
 246              		.loc 1 219 0
 247 0018 0000A0E3 		mov	r0, #0
 248 001c 1080BDE8 		ldmfd	sp!, {r4, pc}
 249              	.L11:
 250              		.align	2
 251              	.L10:
 252 0020 00000000 		.word	.LANCHOR0
 253              		.cfi_endproc
 254              	.LFE14:
 255              		.size	thread3, .-thread3
 256              		.section	.text.thread1,"ax",%progbits
 257              		.align	2
 258              		.type	thread1, %function
 259              	thread1:
 260              	.LFB8:
 261              		.loc 1 81 0
 262              		.cfi_startproc
 263              		@ args = 0, pretend = 0, frame = 0
 264              		@ frame_needed = 0, uses_anonymous_args = 0
 265              	.LVL20:
 266 0000 10402DE9 		stmfd	sp!, {r4, lr}
 267              		.cfi_def_cfa_offset 8
 268              		.cfi_offset 4, -8
 269              		.cfi_offset 14, -4
 270              		.loc 1 81 0
 271 0004 0040A0E1 		mov	r4, r0
 272              		.loc 1 83 0
 273 0008 10009FE5 		ldr	r0, .L14
 274              	.LVL21:
 275 000c FEFFFFEB 		bl	chSemWait
 276              	.LVL22:
 277              		.loc 1 84 0
 278 0010 0000D4E5 		ldrb	r0, [r4]	@ zero_extendqisi2
 279 0014 FEFFFFEB 		bl	test_emit_token
 280              	.LVL23:
 281              		.loc 1 86 0
 282 0018 0000A0E3 		mov	r0, #0
 283 001c 1080BDE8 		ldmfd	sp!, {r4, pc}
 284              	.L15:
 285              		.align	2
ARM GAS  /tmp/ccIAyMaf.s 			page 6


 286              	.L14:
 287 0020 00000000 		.word	.LANCHOR0
 288              		.cfi_endproc
 289              	.LFE8:
 290              		.size	thread1, .-thread1
 291              		.section	.text.sem1_setup,"ax",%progbits
 292              		.align	2
 293              		.type	sem1_setup, %function
 294              	sem1_setup:
 295              	.LFB7:
 296              		.loc 1 76 0
 297              		.cfi_startproc
 298              		@ args = 0, pretend = 0, frame = 0
 299              		@ frame_needed = 0, uses_anonymous_args = 0
 300              		@ link register save eliminated.
 301              		.loc 1 78 0
 302 0000 04009FE5 		ldr	r0, .L17
 303 0004 0010A0E3 		mov	r1, #0
 304 0008 FEFFFFEA 		b	chSemInit
 305              	.LVL24:
 306              	.L18:
 307              		.align	2
 308              	.L17:
 309 000c 00000000 		.word	.LANCHOR0
 310              		.cfi_endproc
 311              	.LFE7:
 312              		.size	sem1_setup, .-sem1_setup
 313              		.section	.text.sem2_setup,"ax",%progbits
 314              		.align	2
 315              		.type	sem2_setup, %function
 316              	sem2_setup:
 317              	.LFB10:
 318              		.loc 1 132 0
 319              		.cfi_startproc
 320              		@ args = 0, pretend = 0, frame = 0
 321              		@ frame_needed = 0, uses_anonymous_args = 0
 322              		@ link register save eliminated.
 323              		.loc 1 134 0
 324 0000 04009FE5 		ldr	r0, .L20
 325 0004 0010A0E3 		mov	r1, #0
 326 0008 FEFFFFEA 		b	chSemInit
 327              	.LVL25:
 328              	.L21:
 329              		.align	2
 330              	.L20:
 331 000c 00000000 		.word	.LANCHOR0
 332              		.cfi_endproc
 333              	.LFE10:
 334              		.size	sem2_setup, .-sem2_setup
 335              		.section	.text.sem3_setup,"ax",%progbits
 336              		.align	2
 337              		.type	sem3_setup, %function
 338              	sem3_setup:
 339              	.LFB13:
 340              		.loc 1 208 0
 341              		.cfi_startproc
 342              		@ args = 0, pretend = 0, frame = 0
ARM GAS  /tmp/ccIAyMaf.s 			page 7


 343              		@ frame_needed = 0, uses_anonymous_args = 0
 344              		@ link register save eliminated.
 345              		.loc 1 210 0
 346 0000 04009FE5 		ldr	r0, .L23
 347 0004 0010A0E3 		mov	r1, #0
 348 0008 FEFFFFEA 		b	chSemInit
 349              	.LVL26:
 350              	.L24:
 351              		.align	2
 352              	.L23:
 353 000c 00000000 		.word	.LANCHOR0
 354              		.cfi_endproc
 355              	.LFE13:
 356              		.size	sem3_setup, .-sem3_setup
 357              		.section	.text.thread2,"ax",%progbits
 358              		.align	2
 359              		.type	thread2, %function
 360              	thread2:
 361              	.LFB11:
 362              		.loc 1 137 0
 363              		.cfi_startproc
 364              		@ args = 0, pretend = 0, frame = 0
 365              		@ frame_needed = 0, uses_anonymous_args = 0
 366              	.LVL27:
 367 0000 08402DE9 		stmfd	sp!, {r3, lr}
 368              		.cfi_def_cfa_offset 8
 369              		.cfi_offset 3, -8
 370              		.cfi_offset 14, -4
 371              		.loc 1 140 0
 372 0004 3200A0E3 		mov	r0, #50
 373              	.LVL28:
 374 0008 FEFFFFEB 		bl	chThdSleep
 375              	.LVL29:
 376              		.loc 1 141 0
 377              	@ 141 "../../test/testsem.c" 1
 378 000c 9FF021E3 		msr     CPSR_c, #0x9F
 379              	@ 0 "" 2
 380              		.loc 1 142 0
 381 0010 10009FE5 		ldr	r0, .L27
 382 0014 FEFFFFEB 		bl	chSemSignalI
 383              	.LVL30:
 384              		.loc 1 143 0
 385 0018 FEFFFFEB 		bl	chSchRescheduleS
 386              	.LVL31:
 387              		.loc 1 144 0
 388              	@ 144 "../../test/testsem.c" 1
 389 001c 1FF021E3 		msr     CPSR_c, #0x1F
 390              	@ 0 "" 2
 391              		.loc 1 146 0
 392 0020 0000A0E3 		mov	r0, #0
 393 0024 0880BDE8 		ldmfd	sp!, {r3, pc}
 394              	.L28:
 395              		.align	2
 396              	.L27:
 397 0028 00000000 		.word	.LANCHOR0
 398              		.cfi_endproc
 399              	.LFE11:
ARM GAS  /tmp/ccIAyMaf.s 			page 8


 400              		.size	thread2, .-thread2
 401              		.section	.text.thread4,"ax",%progbits
 402              		.align	2
 403              		.type	thread4, %function
 404              	thread4:
 405              	.LFB16:
 406              		.loc 1 249 0
 407              		.cfi_startproc
 408              		@ args = 0, pretend = 0, frame = 0
 409              		@ frame_needed = 0, uses_anonymous_args = 0
 410              	.LVL32:
 411 0000 08402DE9 		stmfd	sp!, {r3, lr}
 412              		.cfi_def_cfa_offset 8
 413              		.cfi_offset 3, -8
 414              		.cfi_offset 14, -4
 415              		.loc 1 251 0
 416              	@ 251 "../../test/testsem.c" 1
 417 0004 9FF021E3 		msr     CPSR_c, #0x9F
 418              	@ 0 "" 2
 419 0008 083090E5 		ldr	r3, [r0, #8]
 420 000c 000053E3 		cmp	r3, #0
 421 0010 030000DA 		ble	.L32
 422              	.LVL33:
 423              	.L30:
 424              		.loc 1 251 0 is_stmt 0 discriminator 3
 425 0014 FEFFFFEB 		bl	chSchRescheduleS
 426              	.LVL34:
 427              	@ 251 "../../test/testsem.c" 1
 428 0018 1FF021E3 		msr     CPSR_c, #0x1F
 429              	@ 0 "" 2
 430              		.loc 1 253 0 is_stmt 1 discriminator 3
 431 001c 0000A0E3 		mov	r0, #0
 432 0020 0880BDE8 		ldmfd	sp!, {r3, pc}
 433              	.LVL35:
 434              	.L32:
 435              		.loc 1 251 0 discriminator 1
 436 0024 FEFFFFEB 		bl	chSemSignalI
 437              	.LVL36:
 438 0028 F9FFFFEA 		b	.L30
 439              		.cfi_endproc
 440              	.LFE16:
 441              		.size	thread4, .-thread4
 442              		.section	.text.sem4_execute,"ax",%progbits
 443              		.align	2
 444              		.type	sem4_execute, %function
 445              	sem4_execute:
 446              	.LFB17:
 447              		.loc 1 255 0
 448              		.cfi_startproc
 449              		@ args = 0, pretend = 0, frame = 16
 450              		@ frame_needed = 0, uses_anonymous_args = 0
 451 0000 04E02DE5 		str	lr, [sp, #-4]!
 452              		.cfi_def_cfa_offset 4
 453              		.cfi_offset 14, -4
 454 0004 1CD04DE2 		sub	sp, sp, #28
 455              		.cfi_def_cfa_offset 32
 456              		.loc 1 259 0
ARM GAS  /tmp/ccIAyMaf.s 			page 9


 457 0008 0C008DE2 		add	r0, sp, #12
 458 000c 0010A0E3 		mov	r1, #0
 459 0010 FEFFFFEB 		bl	chSemInit
 460              	.LVL37:
 461              		.loc 1 260 0
 462 0014 0C008DE2 		add	r0, sp, #12
 463 0018 0010A0E3 		mov	r1, #0
 464 001c FEFFFFEB 		bl	chSemReset
 465              	.LVL38:
 466              		.loc 1 261 0
 467 0020 14109DE5 		ldr	r1, [sp, #20]
 468 0024 0100A0E3 		mov	r0, #1
 469 0028 000051E3 		cmp	r1, #0
 470 002c 0010A0C3 		movgt	r1, #0
 471 0030 0110A0D3 		movle	r1, #1
 472 0034 FEFFFFEB 		bl	_test_assert
 473              	.LVL39:
 474 0038 000050E3 		cmp	r0, #0
 475 003c 0100000A 		beq	.L39
 476              	.L33:
 477              		.loc 1 283 0
 478 0040 1CD08DE2 		add	sp, sp, #28
 479              		.cfi_remember_state
 480              		.cfi_def_cfa_offset 4
 481              		@ sp needed
 482 0044 04F09DE4 		ldr	pc, [sp], #4
 483              	.L39:
 484              		.cfi_restore_state
 485              		.loc 1 265 0
 486 0048 18319FE5 		ldr	r3, .L42
 487              		.loc 1 264 0
 488 004c 18219FE5 		ldr	r2, .L42+4
 489              		.loc 1 265 0
 490 0050 183093E5 		ldr	r3, [r3, #24]
 491              		.loc 1 264 0
 492 0054 000092E5 		ldr	r0, [r2]
 493 0058 082093E5 		ldr	r2, [r3, #8]
 494 005c 0C308DE2 		add	r3, sp, #12
 495 0060 012042E2 		sub	r2, r2, #1
 496 0064 461FA0E3 		mov	r1, #280
 497 0068 00308DE5 		str	r3, [sp]
 498 006c FC309FE5 		ldr	r3, .L42+8
 499 0070 FEFFFFEB 		bl	chThdCreateStatic
 500              	.LVL40:
 501 0074 F8309FE5 		ldr	r3, .L42+12
 502 0078 000083E5 		str	r0, [r3]
 503              		.loc 1 268 0
 504 007c 0C008DE2 		add	r0, sp, #12
 505 0080 FEFFFFEB 		bl	chSemWait
 506              	.LVL41:
 507              		.loc 1 271 0
 508 0084 14109DE5 		ldr	r1, [sp, #20]
 509 0088 0200A0E3 		mov	r0, #2
 510 008c 000051E3 		cmp	r1, #0
 511 0090 0010A0C3 		movgt	r1, #0
 512 0094 0110A0D3 		movle	r1, #1
 513 0098 FEFFFFEB 		bl	_test_assert
ARM GAS  /tmp/ccIAyMaf.s 			page 10


 514              	.LVL42:
 515 009c 000050E3 		cmp	r0, #0
 516 00a0 E6FFFF1A 		bne	.L33
 517              		.loc 1 275 0
 518              	@ 275 "../../test/testsem.c" 1
 519 00a4 9FF021E3 		msr     CPSR_c, #0x9F
 520              	@ 0 "" 2
 521 00a8 14309DE5 		ldr	r3, [sp, #20]
 522 00ac 000053E3 		cmp	r3, #0
 523 00b0 260000DA 		ble	.L40
 524              	.L35:
 525              		.loc 1 275 0 is_stmt 0 discriminator 3
 526 00b4 FEFFFFEB 		bl	chSchRescheduleS
 527              	.LVL43:
 528              	@ 275 "../../test/testsem.c" 1
 529 00b8 1FF021E3 		msr     CPSR_c, #0x1F
 530              	@ 0 "" 2
 531              		.loc 1 276 0 is_stmt 1 discriminator 3
 532 00bc 14109DE5 		ldr	r1, [sp, #20]
 533 00c0 0300A0E3 		mov	r0, #3
 534 00c4 000051E3 		cmp	r1, #0
 535 00c8 0010A0D3 		movle	r1, #0
 536 00cc 0110A0C3 		movgt	r1, #1
 537 00d0 FEFFFFEB 		bl	_test_assert
 538              	.LVL44:
 539 00d4 000050E3 		cmp	r0, #0
 540 00d8 D8FFFF1A 		bne	.L33
 541              		.loc 1 277 0
 542 00dc 14109DE5 		ldr	r1, [sp, #20]
 543 00e0 0400A0E3 		mov	r0, #4
 544 00e4 011041E2 		sub	r1, r1, #1
 545 00e8 111F6FE1 		clz	r1, r1
 546 00ec A112A0E1 		mov	r1, r1, lsr #5
 547 00f0 FEFFFFEB 		bl	_test_assert
 548              	.LVL45:
 549 00f4 000050E3 		cmp	r0, #0
 550 00f8 D0FFFF1A 		bne	.L33
 551              		.loc 1 280 0
 552              	@ 280 "../../test/testsem.c" 1
 553 00fc 9FF021E3 		msr     CPSR_c, #0x9F
 554              	@ 0 "" 2
 555 0100 14309DE5 		ldr	r3, [sp, #20]
 556 0104 000053E3 		cmp	r3, #0
 557 0108 130000DA 		ble	.L41
 558              	.L36:
 559              		.loc 1 280 0 is_stmt 0 discriminator 3
 560 010c FEFFFFEB 		bl	chSchRescheduleS
 561              	.LVL46:
 562              	@ 280 "../../test/testsem.c" 1
 563 0110 1FF021E3 		msr     CPSR_c, #0x1F
 564              	@ 0 "" 2
 565              		.loc 1 281 0 is_stmt 1 discriminator 3
 566 0114 14109DE5 		ldr	r1, [sp, #20]
 567 0118 0300A0E3 		mov	r0, #3
 568 011c 000051E3 		cmp	r1, #0
 569 0120 0010A0D3 		movle	r1, #0
 570 0124 0110A0C3 		movgt	r1, #1
ARM GAS  /tmp/ccIAyMaf.s 			page 11


 571 0128 FEFFFFEB 		bl	_test_assert
 572              	.LVL47:
 573 012c 000050E3 		cmp	r0, #0
 574 0130 C2FFFF1A 		bne	.L33
 575              		.loc 1 282 0
 576 0134 14109DE5 		ldr	r1, [sp, #20]
 577 0138 0500A0E3 		mov	r0, #5
 578 013c 011041E2 		sub	r1, r1, #1
 579 0140 111F6FE1 		clz	r1, r1
 580 0144 A112A0E1 		mov	r1, r1, lsr #5
 581 0148 FEFFFFEB 		bl	_test_assert
 582              	.LVL48:
 583 014c BBFFFFEA 		b	.L33
 584              	.L40:
 585              		.loc 1 275 0 discriminator 1
 586 0150 0C008DE2 		add	r0, sp, #12
 587 0154 FEFFFFEB 		bl	chSemSignalI
 588              	.LVL49:
 589 0158 D5FFFFEA 		b	.L35
 590              	.L41:
 591              		.loc 1 280 0 discriminator 1
 592 015c 0C008DE2 		add	r0, sp, #12
 593 0160 FEFFFFEB 		bl	chSemSignalI
 594              	.LVL50:
 595 0164 E8FFFFEA 		b	.L36
 596              	.L43:
 597              		.align	2
 598              	.L42:
 599 0168 00000000 		.word	rlist
 600 016c 00000000 		.word	wa
 601 0170 00000000 		.word	thread4
 602 0174 00000000 		.word	threads
 603              		.cfi_endproc
 604              	.LFE17:
 605              		.size	sem4_execute, .-sem4_execute
 606              		.section	.text.sem2_execute,"ax",%progbits
 607              		.align	2
 608              		.type	sem2_execute, %function
 609              	sem2_execute:
 610              	.LFB12:
 611              		.loc 1 148 0
 612              		.cfi_startproc
 613              		@ args = 0, pretend = 0, frame = 0
 614              		@ frame_needed = 0, uses_anonymous_args = 0
 615 0000 70402DE9 		stmfd	sp!, {r4, r5, r6, lr}
 616              		.cfi_def_cfa_offset 16
 617              		.cfi_offset 4, -16
 618              		.cfi_offset 5, -12
 619              		.cfi_offset 6, -8
 620              		.cfi_offset 14, -4
 621              		.loc 1 156 0
 622 0004 C0419FE5 		ldr	r4, .L52
 623 0008 0010A0E3 		mov	r1, #0
 624              		.loc 1 148 0
 625 000c 08D04DE2 		sub	sp, sp, #8
 626              		.cfi_def_cfa_offset 24
 627              		.loc 1 156 0
ARM GAS  /tmp/ccIAyMaf.s 			page 12


 628 0010 0400A0E1 		mov	r0, r4
 629 0014 FEFFFFEB 		bl	chSemWaitTimeout
 630              	.LVL51:
 631              		.loc 1 157 0
 632 0018 010070E3 		cmn	r0, #1
 633 001c 0010A013 		movne	r1, #0
 634 0020 0110A003 		moveq	r1, #1
 635 0024 0100A0E3 		mov	r0, #1
 636              	.LVL52:
 637 0028 FEFFFFEB 		bl	_test_assert
 638              	.LVL53:
 639 002c 000050E3 		cmp	r0, #0
 640 0030 0100000A 		beq	.L51
 641              	.L44:
 642              		.loc 1 186 0
 643 0034 08D08DE2 		add	sp, sp, #8
 644              		.cfi_remember_state
 645              		.cfi_def_cfa_offset 16
 646              		@ sp needed
 647 0038 7080BDE8 		ldmfd	sp!, {r4, r5, r6, pc}
 648              	.L51:
 649              		.cfi_restore_state
 650              		.loc 1 158 0
 651 003c 001094E5 		ldr	r1, [r4]
 652 0040 0200A0E3 		mov	r0, #2
 653 0044 011064E0 		rsb	r1, r4, r1
 654 0048 111F6FE1 		clz	r1, r1
 655 004c A112A0E1 		mov	r1, r1, lsr #5
 656 0050 FEFFFFEB 		bl	_test_assert
 657              	.LVL54:
 658 0054 000050E3 		cmp	r0, #0
 659 0058 F5FFFF1A 		bne	.L44
 660              		.loc 1 159 0
 661 005c 081094E5 		ldr	r1, [r4, #8]
 662 0060 0300A0E3 		mov	r0, #3
 663 0064 111F6FE1 		clz	r1, r1
 664 0068 A112A0E1 		mov	r1, r1, lsr #5
 665 006c FEFFFFEB 		bl	_test_assert
 666              	.LVL55:
 667 0070 003050E2 		subs	r3, r0, #0
 668 0074 EEFFFF1A 		bne	.L44
 669              	.LBB4:
 670              	.LBB5:
 671              		.loc 1 164 0
 672 0078 50219FE5 		ldr	r2, .L52+4
 673 007c 50119FE5 		ldr	r1, .L52+8
 674 0080 182092E5 		ldr	r2, [r2, #24]
 675 0084 000091E5 		ldr	r0, [r1]
 676 0088 082092E5 		ldr	r2, [r2, #8]
 677 008c 461FA0E3 		mov	r1, #280
 678 0090 012042E2 		sub	r2, r2, #1
 679 0094 00308DE5 		str	r3, [sp]
 680 0098 38319FE5 		ldr	r3, .L52+12
 681 009c FEFFFFEB 		bl	chThdCreateStatic
 682              	.LVL56:
 683 00a0 34319FE5 		ldr	r3, .L52+16
 684              		.loc 1 166 0
ARM GAS  /tmp/ccIAyMaf.s 			page 13


 685 00a4 7D1FA0E3 		mov	r1, #500
 686              		.loc 1 164 0
 687 00a8 000083E5 		str	r0, [r3]
 688              		.loc 1 166 0
 689 00ac 0400A0E1 		mov	r0, r4
 690 00b0 FEFFFFEB 		bl	chSemWaitTimeout
 691              	.LVL57:
 692 00b4 0050A0E1 		mov	r5, r0
 693              	.LVL58:
 694              		.loc 1 167 0
 695 00b8 FEFFFFEB 		bl	test_wait_threads
 696              	.LVL59:
 697              		.loc 1 168 0
 698 00bc 151F6FE1 		clz	r1, r5
 699 00c0 0400A0E3 		mov	r0, #4
 700 00c4 A112A0E1 		mov	r1, r1, lsr #5
 701 00c8 FEFFFFEB 		bl	_test_assert
 702              	.LVL60:
 703 00cc 000050E3 		cmp	r0, #0
 704 00d0 D7FFFF1A 		bne	.L44
 705              		.loc 1 169 0
 706 00d4 001094E5 		ldr	r1, [r4]
 707 00d8 0500A0E3 		mov	r0, #5
 708 00dc 011064E0 		rsb	r1, r4, r1
 709 00e0 111F6FE1 		clz	r1, r1
 710 00e4 A112A0E1 		mov	r1, r1, lsr #5
 711 00e8 FEFFFFEB 		bl	_test_assert
 712              	.LVL61:
 713 00ec 000050E3 		cmp	r0, #0
 714 00f0 CFFFFF1A 		bne	.L44
 715              		.loc 1 170 0
 716 00f4 081094E5 		ldr	r1, [r4, #8]
 717 00f8 0600A0E3 		mov	r0, #6
 718 00fc 111F6FE1 		clz	r1, r1
 719 0100 A112A0E1 		mov	r1, r1, lsr #5
 720 0104 FEFFFFEB 		bl	_test_assert
 721              	.LVL62:
 722 0108 000050E3 		cmp	r0, #0
 723 010c C8FFFF1A 		bne	.L44
 724              		.loc 1 176 0
 725 0110 4150A0E3 		mov	r5, #65
 726              	.LVL63:
 727              		.loc 1 175 0
 728 0114 FEFFFFEB 		bl	test_wait_tick
 729              	.LVL64:
 730              		.loc 1 176 0
 731 0118 C0309FE5 		ldr	r3, .L52+20
 732 011c 0C6093E5 		ldr	r6, [r3, #12]
 733              	.LVL65:
 734              	.L48:
 735              		.loc 1 178 0
 736 0120 0500A0E1 		mov	r0, r5
 737 0124 FEFFFFEB 		bl	test_emit_token
 738              	.LVL66:
 739              		.loc 1 179 0
 740 0128 7D1FA0E3 		mov	r1, #500
 741 012c 98009FE5 		ldr	r0, .L52
ARM GAS  /tmp/ccIAyMaf.s 			page 14


 742 0130 FEFFFFEB 		bl	chSemWaitTimeout
 743              	.LVL67:
 744              		.loc 1 180 0
 745 0134 010070E3 		cmn	r0, #1
 746 0138 0010A013 		movne	r1, #0
 747 013c 0110A003 		moveq	r1, #1
 748 0140 0700A0E3 		mov	r0, #7
 749              	.LVL68:
 750 0144 FEFFFFEB 		bl	_test_assert
 751              	.LVL69:
 752 0148 000050E3 		cmp	r0, #0
 753 014c B8FFFF1A 		bne	.L44
 754              		.loc 1 181 0
 755 0150 001094E5 		ldr	r1, [r4]
 756 0154 0800A0E3 		mov	r0, #8
 757 0158 011064E0 		rsb	r1, r4, r1
 758 015c 111F6FE1 		clz	r1, r1
 759 0160 A112A0E1 		mov	r1, r1, lsr #5
 760 0164 FEFFFFEB 		bl	_test_assert
 761              	.LVL70:
 762 0168 000050E3 		cmp	r0, #0
 763 016c B0FFFF1A 		bne	.L44
 764              		.loc 1 182 0
 765 0170 081094E5 		ldr	r1, [r4, #8]
 766 0174 0900A0E3 		mov	r0, #9
 767 0178 111F6FE1 		clz	r1, r1
 768 017c A112A0E1 		mov	r1, r1, lsr #5
 769 0180 FEFFFFEB 		bl	_test_assert
 770              	.LVL71:
 771 0184 015085E2 		add	r5, r5, #1
 772 0188 000050E3 		cmp	r0, #0
 773 018c 7550EFE6 		uxtb	r5, r5
 774 0190 A7FFFF1A 		bne	.L44
 775              		.loc 1 177 0
 776 0194 460055E3 		cmp	r5, #70
 777 0198 E0FFFF1A 		bne	.L48
 778              		.loc 1 184 0
 779 019c 0A00A0E3 		mov	r0, #10
 780 01a0 3C109FE5 		ldr	r1, .L52+24
 781 01a4 FEFFFFEB 		bl	_test_assert_sequence
 782              	.LVL72:
 783 01a8 000050E3 		cmp	r0, #0
 784 01ac A0FFFF1A 		bne	.L44
 785              		.loc 1 185 0
 786 01b0 0B00A0E3 		mov	r0, #11
 787              		.loc 1 176 0
 788 01b4 272D86E2 		add	r2, r6, #2496
 789              		.loc 1 185 0
 790 01b8 041082E2 		add	r1, r2, #4
 791 01bc 092082E2 		add	r2, r2, #9
 792              	.LBE5:
 793              	.LBE4:
 794              		.loc 1 186 0
 795 01c0 08D08DE2 		add	sp, sp, #8
 796              		.cfi_def_cfa_offset 16
 797              		@ sp needed
 798 01c4 7040BDE8 		ldmfd	sp!, {r4, r5, r6, lr}
ARM GAS  /tmp/ccIAyMaf.s 			page 15


 799              		.cfi_restore 14
 800              		.cfi_restore 6
 801              		.cfi_restore 5
 802              		.cfi_restore 4
 803              		.cfi_def_cfa_offset 0
 804              	.LVL73:
 805              	.LBB7:
 806              	.LBB6:
 807              		.loc 1 185 0
 808 01c8 FEFFFFEA 		b	_test_assert_time_window
 809              	.LVL74:
 810              	.L53:
 811              		.align	2
 812              	.L52:
 813 01cc 00000000 		.word	.LANCHOR0
 814 01d0 00000000 		.word	rlist
 815 01d4 00000000 		.word	wa
 816 01d8 00000000 		.word	thread2
 817 01dc 00000000 		.word	threads
 818 01e0 00000000 		.word	vtlist
 819 01e4 14000000 		.word	.LC5
 820              	.LBE6:
 821              	.LBE7:
 822              		.cfi_endproc
 823              	.LFE12:
 824              		.size	sem2_execute, .-sem2_execute
 825              		.section	.text.sem3_execute,"ax",%progbits
 826              		.align	2
 827              		.type	sem3_execute, %function
 828              	sem3_execute:
 829              	.LFB15:
 830              		.loc 1 221 0
 831              		.cfi_startproc
 832              		@ args = 0, pretend = 0, frame = 0
 833              		@ frame_needed = 0, uses_anonymous_args = 0
 834              		.loc 1 223 0
 835 0000 0030A0E3 		mov	r3, #0
 836              		.loc 1 221 0
 837 0004 10402DE9 		stmfd	sp!, {r4, lr}
 838              		.cfi_def_cfa_offset 8
 839              		.cfi_offset 4, -8
 840              		.cfi_offset 14, -4
 841              		.loc 1 223 0
 842 0008 C8209FE5 		ldr	r2, .L60
 843 000c C8109FE5 		ldr	r1, .L60+4
 844 0010 182092E5 		ldr	r2, [r2, #24]
 845              		.loc 1 221 0
 846 0014 08D04DE2 		sub	sp, sp, #8
 847              		.cfi_def_cfa_offset 16
 848              		.loc 1 223 0
 849 0018 082092E5 		ldr	r2, [r2, #8]
 850 001c 000091E5 		ldr	r0, [r1]
 851 0020 012082E2 		add	r2, r2, #1
 852 0024 00308DE5 		str	r3, [sp]
 853 0028 461FA0E3 		mov	r1, #280
 854 002c AC309FE5 		ldr	r3, .L60+8
 855 0030 FEFFFFEB 		bl	chThdCreateStatic
ARM GAS  /tmp/ccIAyMaf.s 			page 16


 856              	.LVL75:
 857              		.loc 1 224 0
 858 0034 A8409FE5 		ldr	r4, .L60+12
 859              		.loc 1 223 0
 860 0038 A8309FE5 		ldr	r3, .L60+16
 861              		.loc 1 224 0
 862 003c 0410A0E1 		mov	r1, r4
 863              		.loc 1 223 0
 864 0040 000083E5 		str	r0, [r3]
 865              		.loc 1 224 0
 866 0044 0400A0E1 		mov	r0, r4
 867 0048 FEFFFFEB 		bl	chSemSignalWait
 868              	.LVL76:
 869              		.loc 1 225 0
 870 004c 001094E5 		ldr	r1, [r4]
 871 0050 0100A0E3 		mov	r0, #1
 872 0054 011064E0 		rsb	r1, r4, r1
 873 0058 111F6FE1 		clz	r1, r1
 874 005c A112A0E1 		mov	r1, r1, lsr #5
 875 0060 FEFFFFEB 		bl	_test_assert
 876              	.LVL77:
 877 0064 000050E3 		cmp	r0, #0
 878 0068 0100000A 		beq	.L59
 879              	.L54:
 880              		.loc 1 231 0
 881 006c 08D08DE2 		add	sp, sp, #8
 882              		.cfi_remember_state
 883              		.cfi_def_cfa_offset 8
 884              		@ sp needed
 885 0070 1080BDE8 		ldmfd	sp!, {r4, pc}
 886              	.L59:
 887              		.cfi_restore_state
 888              		.loc 1 226 0
 889 0074 081094E5 		ldr	r1, [r4, #8]
 890 0078 0200A0E3 		mov	r0, #2
 891 007c 111F6FE1 		clz	r1, r1
 892 0080 A112A0E1 		mov	r1, r1, lsr #5
 893 0084 FEFFFFEB 		bl	_test_assert
 894              	.LVL78:
 895 0088 000050E3 		cmp	r0, #0
 896 008c F6FFFF1A 		bne	.L54
 897              	.LBB10:
 898              	.LBB11:
 899              		.loc 1 228 0
 900 0090 0410A0E1 		mov	r1, r4
 901 0094 0400A0E1 		mov	r0, r4
 902 0098 FEFFFFEB 		bl	chSemSignalWait
 903              	.LVL79:
 904              		.loc 1 229 0
 905 009c 001094E5 		ldr	r1, [r4]
 906 00a0 0300A0E3 		mov	r0, #3
 907 00a4 011064E0 		rsb	r1, r4, r1
 908 00a8 111F6FE1 		clz	r1, r1
 909 00ac A112A0E1 		mov	r1, r1, lsr #5
 910 00b0 FEFFFFEB 		bl	_test_assert
 911              	.LVL80:
 912 00b4 000050E3 		cmp	r0, #0
ARM GAS  /tmp/ccIAyMaf.s 			page 17


 913 00b8 EBFFFF1A 		bne	.L54
 914              		.loc 1 230 0
 915 00bc 081094E5 		ldr	r1, [r4, #8]
 916 00c0 0400A0E3 		mov	r0, #4
 917 00c4 111F6FE1 		clz	r1, r1
 918 00c8 A112A0E1 		mov	r1, r1, lsr #5
 919              	.LBE11:
 920              	.LBE10:
 921              		.loc 1 231 0
 922 00cc 08D08DE2 		add	sp, sp, #8
 923              		.cfi_def_cfa_offset 8
 924              		@ sp needed
 925 00d0 1040BDE8 		ldmfd	sp!, {r4, lr}
 926              		.cfi_restore 14
 927              		.cfi_restore 4
 928              		.cfi_def_cfa_offset 0
 929              	.LBB13:
 930              	.LBB12:
 931              		.loc 1 230 0
 932 00d4 FEFFFFEA 		b	_test_assert
 933              	.LVL81:
 934              	.L61:
 935              		.align	2
 936              	.L60:
 937 00d8 00000000 		.word	rlist
 938 00dc 00000000 		.word	wa
 939 00e0 00000000 		.word	thread3
 940 00e4 00000000 		.word	.LANCHOR0
 941 00e8 00000000 		.word	threads
 942              	.LBE12:
 943              	.LBE13:
 944              		.cfi_endproc
 945              	.LFE15:
 946              		.size	sem3_execute, .-sem3_execute
 947              		.global	patternsem
 948              		.global	testsem4
 949              		.global	testsem3
 950              		.global	testsem2
 951              		.global	testsem1
 952              		.section	.rodata.testsem1,"a",%progbits
 953              		.align	2
 954              		.type	testsem1, %object
 955              		.size	testsem1, 16
 956              	testsem1:
 957 0000 74000000 		.word	.LC9
 958 0004 00000000 		.word	sem1_setup
 959 0008 00000000 		.word	0
 960 000c 00000000 		.word	sem1_execute
 961              		.section	.rodata.testsem2,"a",%progbits
 962              		.align	2
 963              		.type	testsem2, %object
 964              		.size	testsem2, 16
 965              	testsem2:
 966 0000 60000000 		.word	.LC8
 967 0004 00000000 		.word	sem2_setup
 968 0008 00000000 		.word	0
 969 000c 00000000 		.word	sem2_execute
ARM GAS  /tmp/ccIAyMaf.s 			page 18


 970              		.section	.rodata.testsem3,"a",%progbits
 971              		.align	2
 972              		.type	testsem3, %object
 973              		.size	testsem3, 16
 974              	testsem3:
 975 0000 40000000 		.word	.LC7
 976 0004 00000000 		.word	sem3_setup
 977 0008 00000000 		.word	0
 978 000c 00000000 		.word	sem3_execute
 979              		.section	.rodata.testsem4,"a",%progbits
 980              		.align	2
 981              		.type	testsem4, %object
 982              		.size	testsem4, 16
 983              	testsem4:
 984 0000 1C000000 		.word	.LC6
 985 0004 00000000 		.word	0
 986 0008 00000000 		.word	0
 987 000c 00000000 		.word	sem4_execute
 988              		.section	.data.sem1,"aw",%progbits
 989              		.align	2
 990              		.set	.LANCHOR0,. + 0
 991              		.type	sem1, %object
 992              		.size	sem1, 12
 993              	sem1:
 994 0000 00000000 		.word	sem1
 995 0004 00000000 		.word	sem1
 996 0008 00000000 		.word	0
 997              		.section	.rodata.patternsem,"a",%progbits
 998              		.align	2
 999              		.type	patternsem, %object
 1000              		.size	patternsem, 20
 1001              	patternsem:
 1002 0000 00000000 		.word	testsem1
 1003 0004 00000000 		.word	testsem2
 1004 0008 00000000 		.word	testsem3
 1005 000c 00000000 		.word	testsem4
 1006 0010 00000000 		.word	0
 1007              		.section	.rodata.str1.4,"aMS",%progbits,1
 1008              		.align	2
 1009              	.LC0:
 1010 0000 4100     		.ascii	"A\000"
 1011 0002 0000     		.space	2
 1012              	.LC1:
 1013 0004 4200     		.ascii	"B\000"
 1014 0006 0000     		.space	2
 1015              	.LC2:
 1016 0008 4300     		.ascii	"C\000"
 1017 000a 0000     		.space	2
 1018              	.LC3:
 1019 000c 4400     		.ascii	"D\000"
 1020 000e 0000     		.space	2
 1021              	.LC4:
 1022 0010 4500     		.ascii	"E\000"
 1023 0012 0000     		.space	2
 1024              	.LC5:
 1025 0014 41424344 		.ascii	"ABCDE\000"
 1025      4500
ARM GAS  /tmp/ccIAyMaf.s 			page 19


 1026 001a 0000     		.space	2
 1027              	.LC6:
 1028 001c 42696E61 		.ascii	"Binary Semaphores, functionality\000"
 1028      72792053 
 1028      656D6170 
 1028      686F7265 
 1028      732C2066 
 1029 003d 000000   		.space	3
 1030              	.LC7:
 1031 0040 53656D61 		.ascii	"Semaphores, atomic signal-wait\000"
 1031      70686F72 
 1031      65732C20 
 1031      61746F6D 
 1031      69632073 
 1032 005f 00       		.space	1
 1033              	.LC8:
 1034 0060 53656D61 		.ascii	"Semaphores, timeout\000"
 1034      70686F72 
 1034      65732C20 
 1034      74696D65 
 1034      6F757400 
 1035              	.LC9:
 1036 0074 53656D61 		.ascii	"Semaphores, enqueuing\000"
 1036      70686F72 
 1036      65732C20 
 1036      656E7175 
 1036      6575696E 
 1037              		.text
 1038              	.Letext0:
 1039              		.file 2 "/usr/lib/gcc/arm-none-eabi/4.9.3/include/stddef.h"
 1040              		.file 3 "/usr/include/newlib/machine/_default_types.h"
 1041              		.file 4 "/usr/include/newlib/sys/_stdint.h"
 1042              		.file 5 "../../os/ports/GCC/ARM/chtypes.h"
 1043              		.file 6 "../../os/kernel/include/chlists.h"
 1044              		.file 7 "../../os/kernel/include/chthreads.h"
 1045              		.file 8 "../../os/ports/GCC/ARM/chcore.h"
 1046              		.file 9 "../../os/kernel/include/chvt.h"
 1047              		.file 10 "../../os/kernel/include/chschd.h"
 1048              		.file 11 "../../os/kernel/include/chsem.h"
 1049              		.file 12 "../../os/kernel/include/chbsem.h"
 1050              		.file 13 "../../os/kernel/include/chmtx.h"
 1051              		.file 14 "../../test/test.h"
 1052              		.section	.debug_info,"",%progbits
 1053              	.Ldebug_info0:
 1054 0000 1C0F0000 		.4byte	0xf1c
 1055 0004 0400     		.2byte	0x4
 1056 0006 00000000 		.4byte	.Ldebug_abbrev0
 1057 000a 04       		.byte	0x4
 1058 000b 01       		.uleb128 0x1
 1059 000c F5040000 		.4byte	.LASF123
 1060 0010 01       		.byte	0x1
 1061 0011 7B030000 		.4byte	.LASF124
 1062 0015 6F040000 		.4byte	.LASF125
 1063 0019 18000000 		.4byte	.Ldebug_ranges0+0x18
 1064 001d 00000000 		.4byte	0
 1065 0021 00000000 		.4byte	.Ldebug_line0
 1066 0025 02       		.uleb128 0x2
ARM GAS  /tmp/ccIAyMaf.s 			page 20


 1067 0026 04       		.byte	0x4
 1068 0027 05       		.byte	0x5
 1069 0028 696E7400 		.ascii	"int\000"
 1070 002c 03       		.uleb128 0x3
 1071 002d 1B000000 		.4byte	.LASF2
 1072 0031 02       		.byte	0x2
 1073 0032 D4       		.byte	0xd4
 1074 0033 37000000 		.4byte	0x37
 1075 0037 04       		.uleb128 0x4
 1076 0038 04       		.byte	0x4
 1077 0039 07       		.byte	0x7
 1078 003a 7D010000 		.4byte	.LASF0
 1079 003e 04       		.uleb128 0x4
 1080 003f 01       		.byte	0x1
 1081 0040 06       		.byte	0x6
 1082 0041 8D000000 		.4byte	.LASF1
 1083 0045 03       		.uleb128 0x3
 1084 0046 36000000 		.4byte	.LASF3
 1085 004a 03       		.byte	0x3
 1086 004b 1D       		.byte	0x1d
 1087 004c 50000000 		.4byte	0x50
 1088 0050 04       		.uleb128 0x4
 1089 0051 01       		.byte	0x1
 1090 0052 08       		.byte	0x8
 1091 0053 54030000 		.4byte	.LASF4
 1092 0057 04       		.uleb128 0x4
 1093 0058 02       		.byte	0x2
 1094 0059 05       		.byte	0x5
 1095 005a 5C020000 		.4byte	.LASF5
 1096 005e 04       		.uleb128 0x4
 1097 005f 02       		.byte	0x2
 1098 0060 07       		.byte	0x7
 1099 0061 0B020000 		.4byte	.LASF6
 1100 0065 03       		.uleb128 0x3
 1101 0066 3B040000 		.4byte	.LASF7
 1102 006a 03       		.byte	0x3
 1103 006b 3F       		.byte	0x3f
 1104 006c 70000000 		.4byte	0x70
 1105 0070 04       		.uleb128 0x4
 1106 0071 04       		.byte	0x4
 1107 0072 05       		.byte	0x5
 1108 0073 E7000000 		.4byte	.LASF8
 1109 0077 03       		.uleb128 0x3
 1110 0078 4B010000 		.4byte	.LASF9
 1111 007c 03       		.byte	0x3
 1112 007d 41       		.byte	0x41
 1113 007e 82000000 		.4byte	0x82
 1114 0082 04       		.uleb128 0x4
 1115 0083 04       		.byte	0x4
 1116 0084 07       		.byte	0x7
 1117 0085 D4010000 		.4byte	.LASF10
 1118 0089 04       		.uleb128 0x4
 1119 008a 08       		.byte	0x8
 1120 008b 05       		.byte	0x5
 1121 008c 7F000000 		.4byte	.LASF11
 1122 0090 04       		.uleb128 0x4
 1123 0091 08       		.byte	0x8
ARM GAS  /tmp/ccIAyMaf.s 			page 21


 1124 0092 07       		.byte	0x7
 1125 0093 47000000 		.4byte	.LASF12
 1126 0097 03       		.uleb128 0x3
 1127 0098 DF040000 		.4byte	.LASF13
 1128 009c 04       		.byte	0x4
 1129 009d 14       		.byte	0x14
 1130 009e 45000000 		.4byte	0x45
 1131 00a2 03       		.uleb128 0x3
 1132 00a3 4C030000 		.4byte	.LASF14
 1133 00a7 04       		.byte	0x4
 1134 00a8 1F       		.byte	0x1f
 1135 00a9 65000000 		.4byte	0x65
 1136 00ad 03       		.uleb128 0x3
 1137 00ae EC030000 		.4byte	.LASF15
 1138 00b2 04       		.byte	0x4
 1139 00b3 20       		.byte	0x20
 1140 00b4 77000000 		.4byte	0x77
 1141 00b8 03       		.uleb128 0x3
 1142 00b9 A9000000 		.4byte	.LASF16
 1143 00bd 05       		.byte	0x5
 1144 00be 29       		.byte	0x29
 1145 00bf A2000000 		.4byte	0xa2
 1146 00c3 03       		.uleb128 0x3
 1147 00c4 3C020000 		.4byte	.LASF17
 1148 00c8 05       		.byte	0x5
 1149 00c9 2A       		.byte	0x2a
 1150 00ca 97000000 		.4byte	0x97
 1151 00ce 03       		.uleb128 0x3
 1152 00cf FC000000 		.4byte	.LASF18
 1153 00d3 05       		.byte	0x5
 1154 00d4 2B       		.byte	0x2b
 1155 00d5 97000000 		.4byte	0x97
 1156 00d9 03       		.uleb128 0x3
 1157 00da 2D030000 		.4byte	.LASF19
 1158 00de 05       		.byte	0x5
 1159 00df 2C       		.byte	0x2c
 1160 00e0 97000000 		.4byte	0x97
 1161 00e4 03       		.uleb128 0x3
 1162 00e5 D0000000 		.4byte	.LASF20
 1163 00e9 05       		.byte	0x5
 1164 00ea 2D       		.byte	0x2d
 1165 00eb 97000000 		.4byte	0x97
 1166 00ef 03       		.uleb128 0x3
 1167 00f0 44030000 		.4byte	.LASF21
 1168 00f4 05       		.byte	0x5
 1169 00f5 2E       		.byte	0x2e
 1170 00f6 AD000000 		.4byte	0xad
 1171 00fa 03       		.uleb128 0x3
 1172 00fb 2E020000 		.4byte	.LASF22
 1173 00ff 05       		.byte	0x5
 1174 0100 2F       		.byte	0x2f
 1175 0101 A2000000 		.4byte	0xa2
 1176 0105 03       		.uleb128 0x3
 1177 0106 50020000 		.4byte	.LASF23
 1178 010a 05       		.byte	0x5
 1179 010b 31       		.byte	0x31
 1180 010c AD000000 		.4byte	0xad
ARM GAS  /tmp/ccIAyMaf.s 			page 22


 1181 0110 03       		.uleb128 0x3
 1182 0111 26040000 		.4byte	.LASF24
 1183 0115 05       		.byte	0x5
 1184 0116 33       		.byte	0x33
 1185 0117 AD000000 		.4byte	0xad
 1186 011b 03       		.uleb128 0x3
 1187 011c 77010000 		.4byte	.LASF25
 1188 0120 05       		.byte	0x5
 1189 0121 34       		.byte	0x34
 1190 0122 A2000000 		.4byte	0xa2
 1191 0126 03       		.uleb128 0x3
 1192 0127 C7030000 		.4byte	.LASF26
 1193 012b 06       		.byte	0x6
 1194 012c 23       		.byte	0x23
 1195 012d 31010000 		.4byte	0x131
 1196 0131 05       		.uleb128 0x5
 1197 0132 C7030000 		.4byte	.LASF26
 1198 0136 44       		.byte	0x44
 1199 0137 07       		.byte	0x7
 1200 0138 57       		.byte	0x57
 1201 0139 22020000 		.4byte	0x222
 1202 013d 06       		.uleb128 0x6
 1203 013e B8030000 		.4byte	.LASF27
 1204 0142 07       		.byte	0x7
 1205 0143 58       		.byte	0x58
 1206 0144 43020000 		.4byte	0x243
 1207 0148 00       		.byte	0
 1208 0149 06       		.uleb128 0x6
 1209 014a 35030000 		.4byte	.LASF28
 1210 014e 07       		.byte	0x7
 1211 014f 5A       		.byte	0x5a
 1212 0150 43020000 		.4byte	0x243
 1213 0154 04       		.byte	0x4
 1214 0155 06       		.uleb128 0x6
 1215 0156 78000000 		.4byte	.LASF29
 1216 015a 07       		.byte	0x7
 1217 015b 5C       		.byte	0x5c
 1218 015c EF000000 		.4byte	0xef
 1219 0160 08       		.byte	0x8
 1220 0161 06       		.uleb128 0x6
 1221 0162 AF050000 		.4byte	.LASF30
 1222 0166 07       		.byte	0x7
 1223 0167 5D       		.byte	0x5d
 1224 0168 F3020000 		.4byte	0x2f3
 1225 016c 0C       		.byte	0xc
 1226 016d 06       		.uleb128 0x6
 1227 016e 2A010000 		.4byte	.LASF31
 1228 0172 07       		.byte	0x7
 1229 0173 5F       		.byte	0x5f
 1230 0174 43020000 		.4byte	0x243
 1231 0178 10       		.byte	0x10
 1232 0179 06       		.uleb128 0x6
 1233 017a C1020000 		.4byte	.LASF32
 1234 017e 07       		.byte	0x7
 1235 017f 60       		.byte	0x60
 1236 0180 43020000 		.4byte	0x243
 1237 0184 14       		.byte	0x14
ARM GAS  /tmp/ccIAyMaf.s 			page 23


 1238 0185 06       		.uleb128 0x6
 1239 0186 EE040000 		.4byte	.LASF33
 1240 018a 07       		.byte	0x7
 1241 018b 67       		.byte	0x67
 1242 018c F4040000 		.4byte	0x4f4
 1243 0190 18       		.byte	0x18
 1244 0191 06       		.uleb128 0x6
 1245 0192 90030000 		.4byte	.LASF34
 1246 0196 07       		.byte	0x7
 1247 0197 72       		.byte	0x72
 1248 0198 CE000000 		.4byte	0xce
 1249 019c 1C       		.byte	0x1c
 1250 019d 06       		.uleb128 0x6
 1251 019e BF030000 		.4byte	.LASF35
 1252 01a2 07       		.byte	0x7
 1253 01a3 76       		.byte	0x76
 1254 01a4 C3000000 		.4byte	0xc3
 1255 01a8 1D       		.byte	0x1d
 1256 01a9 06       		.uleb128 0x6
 1257 01aa C8040000 		.4byte	.LASF36
 1258 01ae 07       		.byte	0x7
 1259 01af 7B       		.byte	0x7b
 1260 01b0 D9000000 		.4byte	0xd9
 1261 01b4 1E       		.byte	0x1e
 1262 01b5 06       		.uleb128 0x6
 1263 01b6 98030000 		.4byte	.LASF37
 1264 01ba 07       		.byte	0x7
 1265 01bb 81       		.byte	0x81
 1266 01bc E4000000 		.4byte	0xe4
 1267 01c0 1F       		.byte	0x1f
 1268 01c1 06       		.uleb128 0x6
 1269 01c2 4F040000 		.4byte	.LASF38
 1270 01c6 07       		.byte	0x7
 1271 01c7 88       		.byte	0x88
 1272 01c8 C1030000 		.4byte	0x3c1
 1273 01cc 20       		.byte	0x20
 1274 01cd 07       		.uleb128 0x7
 1275 01ce 705F7500 		.ascii	"p_u\000"
 1276 01d2 07       		.byte	0x7
 1277 01d3 AD       		.byte	0xad
 1278 01d4 BF040000 		.4byte	0x4bf
 1279 01d8 24       		.byte	0x24
 1280 01d9 06       		.uleb128 0x6
 1281 01da B5050000 		.4byte	.LASF39
 1282 01de 07       		.byte	0x7
 1283 01df B2       		.byte	0xb2
 1284 01e0 69020000 		.4byte	0x269
 1285 01e4 28       		.byte	0x28
 1286 01e5 06       		.uleb128 0x6
 1287 01e6 5D040000 		.4byte	.LASF40
 1288 01ea 07       		.byte	0x7
 1289 01eb B8       		.byte	0xb8
 1290 01ec 49020000 		.4byte	0x249
 1291 01f0 2C       		.byte	0x2c
 1292 01f1 06       		.uleb128 0x6
 1293 01f2 08000000 		.4byte	.LASF41
 1294 01f6 07       		.byte	0x7
ARM GAS  /tmp/ccIAyMaf.s 			page 24


 1295 01f7 BC       		.byte	0xbc
 1296 01f8 FA000000 		.4byte	0xfa
 1297 01fc 34       		.byte	0x34
 1298 01fd 06       		.uleb128 0x6
 1299 01fe D7030000 		.4byte	.LASF42
 1300 0202 07       		.byte	0x7
 1301 0203 C2       		.byte	0xc2
 1302 0204 05010000 		.4byte	0x105
 1303 0208 38       		.byte	0x38
 1304 0209 06       		.uleb128 0x6
 1305 020a 71030000 		.4byte	.LASF43
 1306 020e 07       		.byte	0x7
 1307 020f C9       		.byte	0xc9
 1308 0210 06050000 		.4byte	0x506
 1309 0214 3C       		.byte	0x3c
 1310 0215 06       		.uleb128 0x6
 1311 0216 30040000 		.4byte	.LASF44
 1312 021a 07       		.byte	0x7
 1313 021b CD       		.byte	0xcd
 1314 021c EF000000 		.4byte	0xef
 1315 0220 40       		.byte	0x40
 1316 0221 00       		.byte	0
 1317 0222 08       		.uleb128 0x8
 1318 0223 08       		.byte	0x8
 1319 0224 06       		.byte	0x6
 1320 0225 5A       		.byte	0x5a
 1321 0226 43020000 		.4byte	0x243
 1322 022a 06       		.uleb128 0x6
 1323 022b B8030000 		.4byte	.LASF27
 1324 022f 06       		.byte	0x6
 1325 0230 5B       		.byte	0x5b
 1326 0231 43020000 		.4byte	0x243
 1327 0235 00       		.byte	0
 1328 0236 06       		.uleb128 0x6
 1329 0237 35030000 		.4byte	.LASF28
 1330 023b 06       		.byte	0x6
 1331 023c 5D       		.byte	0x5d
 1332 023d 43020000 		.4byte	0x243
 1333 0241 04       		.byte	0x4
 1334 0242 00       		.byte	0
 1335 0243 09       		.uleb128 0x9
 1336 0244 04       		.byte	0x4
 1337 0245 26010000 		.4byte	0x126
 1338 0249 03       		.uleb128 0x3
 1339 024a E7020000 		.4byte	.LASF45
 1340 024e 06       		.byte	0x6
 1341 024f 5F       		.byte	0x5f
 1342 0250 22020000 		.4byte	0x222
 1343 0254 08       		.uleb128 0x8
 1344 0255 04       		.byte	0x4
 1345 0256 06       		.byte	0x6
 1346 0257 64       		.byte	0x64
 1347 0258 69020000 		.4byte	0x269
 1348 025c 06       		.uleb128 0x6
 1349 025d B8030000 		.4byte	.LASF27
 1350 0261 06       		.byte	0x6
 1351 0262 66       		.byte	0x66
ARM GAS  /tmp/ccIAyMaf.s 			page 25


 1352 0263 43020000 		.4byte	0x243
 1353 0267 00       		.byte	0
 1354 0268 00       		.byte	0
 1355 0269 03       		.uleb128 0x3
 1356 026a 44020000 		.4byte	.LASF46
 1357 026e 06       		.byte	0x6
 1358 026f 69       		.byte	0x69
 1359 0270 54020000 		.4byte	0x254
 1360 0274 03       		.uleb128 0x3
 1361 0275 56010000 		.4byte	.LASF47
 1362 0279 08       		.byte	0x8
 1363 027a A2       		.byte	0xa2
 1364 027b 7F020000 		.4byte	0x27f
 1365 027f 0A       		.uleb128 0xa
 1366 0280 04       		.byte	0x4
 1367 0281 05       		.uleb128 0x5
 1368 0282 56040000 		.4byte	.LASF48
 1369 0286 24       		.byte	0x24
 1370 0287 08       		.byte	0x8
 1371 0288 B9       		.byte	0xb9
 1372 0289 F3020000 		.4byte	0x2f3
 1373 028d 07       		.uleb128 0x7
 1374 028e 723400   		.ascii	"r4\000"
 1375 0291 08       		.byte	0x8
 1376 0292 BA       		.byte	0xba
 1377 0293 74020000 		.4byte	0x274
 1378 0297 00       		.byte	0
 1379 0298 07       		.uleb128 0x7
 1380 0299 723500   		.ascii	"r5\000"
 1381 029c 08       		.byte	0x8
 1382 029d BB       		.byte	0xbb
 1383 029e 74020000 		.4byte	0x274
 1384 02a2 04       		.byte	0x4
 1385 02a3 07       		.uleb128 0x7
 1386 02a4 723600   		.ascii	"r6\000"
 1387 02a7 08       		.byte	0x8
 1388 02a8 BC       		.byte	0xbc
 1389 02a9 74020000 		.4byte	0x274
 1390 02ad 08       		.byte	0x8
 1391 02ae 07       		.uleb128 0x7
 1392 02af 723700   		.ascii	"r7\000"
 1393 02b2 08       		.byte	0x8
 1394 02b3 BD       		.byte	0xbd
 1395 02b4 74020000 		.4byte	0x274
 1396 02b8 0C       		.byte	0xc
 1397 02b9 07       		.uleb128 0x7
 1398 02ba 723800   		.ascii	"r8\000"
 1399 02bd 08       		.byte	0x8
 1400 02be BE       		.byte	0xbe
 1401 02bf 74020000 		.4byte	0x274
 1402 02c3 10       		.byte	0x10
 1403 02c4 07       		.uleb128 0x7
 1404 02c5 723900   		.ascii	"r9\000"
 1405 02c8 08       		.byte	0x8
 1406 02c9 BF       		.byte	0xbf
 1407 02ca 74020000 		.4byte	0x274
 1408 02ce 14       		.byte	0x14
ARM GAS  /tmp/ccIAyMaf.s 			page 26


 1409 02cf 07       		.uleb128 0x7
 1410 02d0 72313000 		.ascii	"r10\000"
 1411 02d4 08       		.byte	0x8
 1412 02d5 C0       		.byte	0xc0
 1413 02d6 74020000 		.4byte	0x274
 1414 02da 18       		.byte	0x18
 1415 02db 07       		.uleb128 0x7
 1416 02dc 72313100 		.ascii	"r11\000"
 1417 02e0 08       		.byte	0x8
 1418 02e1 C1       		.byte	0xc1
 1419 02e2 74020000 		.4byte	0x274
 1420 02e6 1C       		.byte	0x1c
 1421 02e7 07       		.uleb128 0x7
 1422 02e8 6C7200   		.ascii	"lr\000"
 1423 02eb 08       		.byte	0x8
 1424 02ec C2       		.byte	0xc2
 1425 02ed 74020000 		.4byte	0x274
 1426 02f1 20       		.byte	0x20
 1427 02f2 00       		.byte	0
 1428 02f3 05       		.uleb128 0x5
 1429 02f4 03020000 		.4byte	.LASF49
 1430 02f8 04       		.byte	0x4
 1431 02f9 08       		.byte	0x8
 1432 02fa CA       		.byte	0xca
 1433 02fb 0C030000 		.4byte	0x30c
 1434 02ff 07       		.uleb128 0x7
 1435 0300 72313300 		.ascii	"r13\000"
 1436 0304 08       		.byte	0x8
 1437 0305 CB       		.byte	0xcb
 1438 0306 0C030000 		.4byte	0x30c
 1439 030a 00       		.byte	0
 1440 030b 00       		.byte	0
 1441 030c 09       		.uleb128 0x9
 1442 030d 04       		.byte	0x4
 1443 030e 81020000 		.4byte	0x281
 1444 0312 03       		.uleb128 0x3
 1445 0313 EF010000 		.4byte	.LASF50
 1446 0317 09       		.byte	0x9
 1447 0318 4E       		.byte	0x4e
 1448 0319 1D030000 		.4byte	0x31d
 1449 031d 09       		.uleb128 0x9
 1450 031e 04       		.byte	0x4
 1451 031f 23030000 		.4byte	0x323
 1452 0323 0B       		.uleb128 0xb
 1453 0324 2E030000 		.4byte	0x32e
 1454 0328 0C       		.uleb128 0xc
 1455 0329 7F020000 		.4byte	0x27f
 1456 032d 00       		.byte	0
 1457 032e 03       		.uleb128 0x3
 1458 032f FD030000 		.4byte	.LASF51
 1459 0333 09       		.byte	0x9
 1460 0334 53       		.byte	0x53
 1461 0335 39030000 		.4byte	0x339
 1462 0339 05       		.uleb128 0x5
 1463 033a FD030000 		.4byte	.LASF51
 1464 033e 14       		.byte	0x14
 1465 033f 09       		.byte	0x9
ARM GAS  /tmp/ccIAyMaf.s 			page 27


 1466 0340 5A       		.byte	0x5a
 1467 0341 82030000 		.4byte	0x382
 1468 0345 06       		.uleb128 0x6
 1469 0346 9B010000 		.4byte	.LASF52
 1470 034a 09       		.byte	0x9
 1471 034b 5B       		.byte	0x5b
 1472 034c 82030000 		.4byte	0x382
 1473 0350 00       		.byte	0
 1474 0351 06       		.uleb128 0x6
 1475 0352 5F010000 		.4byte	.LASF53
 1476 0356 09       		.byte	0x9
 1477 0357 5D       		.byte	0x5d
 1478 0358 82030000 		.4byte	0x382
 1479 035c 04       		.byte	0x4
 1480 035d 06       		.uleb128 0x6
 1481 035e 8B020000 		.4byte	.LASF54
 1482 0362 09       		.byte	0x9
 1483 0363 5F       		.byte	0x5f
 1484 0364 10010000 		.4byte	0x110
 1485 0368 08       		.byte	0x8
 1486 0369 06       		.uleb128 0x6
 1487 036a 9C020000 		.4byte	.LASF55
 1488 036e 09       		.byte	0x9
 1489 036f 60       		.byte	0x60
 1490 0370 12030000 		.4byte	0x312
 1491 0374 0C       		.byte	0xc
 1492 0375 06       		.uleb128 0x6
 1493 0376 68040000 		.4byte	.LASF56
 1494 037a 09       		.byte	0x9
 1495 037b 62       		.byte	0x62
 1496 037c 7F020000 		.4byte	0x27f
 1497 0380 10       		.byte	0x10
 1498 0381 00       		.byte	0
 1499 0382 09       		.uleb128 0x9
 1500 0383 04       		.byte	0x4
 1501 0384 2E030000 		.4byte	0x32e
 1502 0388 08       		.uleb128 0x8
 1503 0389 10       		.byte	0x10
 1504 038a 09       		.byte	0x9
 1505 038b 6C       		.byte	0x6c
 1506 038c C1030000 		.4byte	0x3c1
 1507 0390 06       		.uleb128 0x6
 1508 0391 9B010000 		.4byte	.LASF52
 1509 0395 09       		.byte	0x9
 1510 0396 6D       		.byte	0x6d
 1511 0397 82030000 		.4byte	0x382
 1512 039b 00       		.byte	0
 1513 039c 06       		.uleb128 0x6
 1514 039d 5F010000 		.4byte	.LASF53
 1515 03a1 09       		.byte	0x9
 1516 03a2 6F       		.byte	0x6f
 1517 03a3 82030000 		.4byte	0x382
 1518 03a7 04       		.byte	0x4
 1519 03a8 06       		.uleb128 0x6
 1520 03a9 8B020000 		.4byte	.LASF54
 1521 03ad 09       		.byte	0x9
 1522 03ae 71       		.byte	0x71
ARM GAS  /tmp/ccIAyMaf.s 			page 28


 1523 03af 10010000 		.4byte	0x110
 1524 03b3 08       		.byte	0x8
 1525 03b4 06       		.uleb128 0x6
 1526 03b5 8E050000 		.4byte	.LASF57
 1527 03b9 09       		.byte	0x9
 1528 03ba 72       		.byte	0x72
 1529 03bb C1030000 		.4byte	0x3c1
 1530 03bf 0C       		.byte	0xc
 1531 03c0 00       		.byte	0
 1532 03c1 0D       		.uleb128 0xd
 1533 03c2 10010000 		.4byte	0x110
 1534 03c6 03       		.uleb128 0x3
 1535 03c7 A0050000 		.4byte	.LASF58
 1536 03cb 09       		.byte	0x9
 1537 03cc 73       		.byte	0x73
 1538 03cd 88030000 		.4byte	0x388
 1539 03d1 08       		.uleb128 0x8
 1540 03d2 1C       		.byte	0x1c
 1541 03d3 0A       		.byte	0xa
 1542 03d4 57       		.byte	0x57
 1543 03d5 22040000 		.4byte	0x422
 1544 03d9 06       		.uleb128 0x6
 1545 03da F5030000 		.4byte	.LASF59
 1546 03de 0A       		.byte	0xa
 1547 03df 58       		.byte	0x58
 1548 03e0 49020000 		.4byte	0x249
 1549 03e4 00       		.byte	0
 1550 03e5 06       		.uleb128 0x6
 1551 03e6 AA030000 		.4byte	.LASF60
 1552 03ea 0A       		.byte	0xa
 1553 03eb 59       		.byte	0x59
 1554 03ec EF000000 		.4byte	0xef
 1555 03f0 08       		.byte	0x8
 1556 03f1 06       		.uleb128 0x6
 1557 03f2 D9020000 		.4byte	.LASF61
 1558 03f6 0A       		.byte	0xa
 1559 03f7 5B       		.byte	0x5b
 1560 03f8 F3020000 		.4byte	0x2f3
 1561 03fc 0C       		.byte	0xc
 1562 03fd 06       		.uleb128 0x6
 1563 03fe 34020000 		.4byte	.LASF62
 1564 0402 0A       		.byte	0xa
 1565 0403 5E       		.byte	0x5e
 1566 0404 43020000 		.4byte	0x243
 1567 0408 10       		.byte	0x10
 1568 0409 06       		.uleb128 0x6
 1569 040a 1A030000 		.4byte	.LASF63
 1570 040e 0A       		.byte	0xa
 1571 040f 5F       		.byte	0x5f
 1572 0410 43020000 		.4byte	0x243
 1573 0414 14       		.byte	0x14
 1574 0415 06       		.uleb128 0x6
 1575 0416 10030000 		.4byte	.LASF64
 1576 041a 0A       		.byte	0xa
 1577 041b 62       		.byte	0x62
 1578 041c 43020000 		.4byte	0x243
 1579 0420 18       		.byte	0x18
ARM GAS  /tmp/ccIAyMaf.s 			page 29


 1580 0421 00       		.byte	0
 1581 0422 03       		.uleb128 0x3
 1582 0423 CF040000 		.4byte	.LASF65
 1583 0427 0A       		.byte	0xa
 1584 0428 64       		.byte	0x64
 1585 0429 D1030000 		.4byte	0x3d1
 1586 042d 05       		.uleb128 0x5
 1587 042e E2030000 		.4byte	.LASF66
 1588 0432 0C       		.byte	0xc
 1589 0433 0B       		.byte	0xb
 1590 0434 25       		.byte	0x25
 1591 0435 52040000 		.4byte	0x452
 1592 0439 06       		.uleb128 0x6
 1593 043a 32010000 		.4byte	.LASF67
 1594 043e 0B       		.byte	0xb
 1595 043f 26       		.byte	0x26
 1596 0440 49020000 		.4byte	0x249
 1597 0444 00       		.byte	0
 1598 0445 06       		.uleb128 0x6
 1599 0446 F8010000 		.4byte	.LASF68
 1600 044a 0B       		.byte	0xb
 1601 044b 28       		.byte	0x28
 1602 044c 1B010000 		.4byte	0x11b
 1603 0450 08       		.byte	0x8
 1604 0451 00       		.byte	0
 1605 0452 03       		.uleb128 0x3
 1606 0453 E2030000 		.4byte	.LASF66
 1607 0457 0B       		.byte	0xb
 1608 0458 29       		.byte	0x29
 1609 0459 2D040000 		.4byte	0x42d
 1610 045d 08       		.uleb128 0x8
 1611 045e 0C       		.byte	0xc
 1612 045f 0C       		.byte	0xc
 1613 0460 3D       		.byte	0x3d
 1614 0461 72040000 		.4byte	0x472
 1615 0465 06       		.uleb128 0x6
 1616 0466 99050000 		.4byte	.LASF69
 1617 046a 0C       		.byte	0xc
 1618 046b 3E       		.byte	0x3e
 1619 046c 52040000 		.4byte	0x452
 1620 0470 00       		.byte	0
 1621 0471 00       		.byte	0
 1622 0472 03       		.uleb128 0x3
 1623 0473 0F040000 		.4byte	.LASF70
 1624 0477 0C       		.byte	0xc
 1625 0478 3F       		.byte	0x3f
 1626 0479 5D040000 		.4byte	0x45d
 1627 047d 05       		.uleb128 0x5
 1628 047e 66020000 		.4byte	.LASF71
 1629 0482 10       		.byte	0x10
 1630 0483 0D       		.byte	0xd
 1631 0484 25       		.byte	0x25
 1632 0485 AE040000 		.4byte	0x4ae
 1633 0489 06       		.uleb128 0x6
 1634 048a B0000000 		.4byte	.LASF72
 1635 048e 0D       		.byte	0xd
 1636 048f 26       		.byte	0x26
ARM GAS  /tmp/ccIAyMaf.s 			page 30


 1637 0490 49020000 		.4byte	0x249
 1638 0494 00       		.byte	0
 1639 0495 06       		.uleb128 0x6
 1640 0496 A7050000 		.4byte	.LASF73
 1641 049a 0D       		.byte	0xd
 1642 049b 28       		.byte	0x28
 1643 049c 43020000 		.4byte	0x243
 1644 04a0 08       		.byte	0x8
 1645 04a1 06       		.uleb128 0x6
 1646 04a2 1F040000 		.4byte	.LASF74
 1647 04a6 0D       		.byte	0xd
 1648 04a7 2A       		.byte	0x2a
 1649 04a8 AE040000 		.4byte	0x4ae
 1650 04ac 0C       		.byte	0xc
 1651 04ad 00       		.byte	0
 1652 04ae 09       		.uleb128 0x9
 1653 04af 04       		.byte	0x4
 1654 04b0 7D040000 		.4byte	0x47d
 1655 04b4 03       		.uleb128 0x3
 1656 04b5 66020000 		.4byte	.LASF71
 1657 04b9 0D       		.byte	0xd
 1658 04ba 2C       		.byte	0x2c
 1659 04bb 7D040000 		.4byte	0x47d
 1660 04bf 0E       		.uleb128 0xe
 1661 04c0 04       		.byte	0x4
 1662 04c1 07       		.byte	0x7
 1663 04c2 8F       		.byte	0x8f
 1664 04c3 F4040000 		.4byte	0x4f4
 1665 04c7 0F       		.uleb128 0xf
 1666 04c8 22000000 		.4byte	.LASF75
 1667 04cc 07       		.byte	0x7
 1668 04cd 96       		.byte	0x96
 1669 04ce FA000000 		.4byte	0xfa
 1670 04d2 0F       		.uleb128 0xf
 1671 04d3 5E000000 		.4byte	.LASF76
 1672 04d7 07       		.byte	0x7
 1673 04d8 9D       		.byte	0x9d
 1674 04d9 FA000000 		.4byte	0xfa
 1675 04dd 0F       		.uleb128 0xf
 1676 04de E7040000 		.4byte	.LASF77
 1677 04e2 07       		.byte	0x7
 1678 04e3 A4       		.byte	0xa4
 1679 04e4 7F020000 		.4byte	0x27f
 1680 04e8 0F       		.uleb128 0xf
 1681 04e9 B1030000 		.4byte	.LASF78
 1682 04ed 07       		.byte	0x7
 1683 04ee AB       		.byte	0xab
 1684 04ef 05010000 		.4byte	0x105
 1685 04f3 00       		.byte	0
 1686 04f4 09       		.uleb128 0x9
 1687 04f5 04       		.byte	0x4
 1688 04f6 FA040000 		.4byte	0x4fa
 1689 04fa 10       		.uleb128 0x10
 1690 04fb FF040000 		.4byte	0x4ff
 1691 04ff 04       		.uleb128 0x4
 1692 0500 01       		.byte	0x1
 1693 0501 08       		.byte	0x8
ARM GAS  /tmp/ccIAyMaf.s 			page 31


 1694 0502 0A040000 		.4byte	.LASF79
 1695 0506 09       		.uleb128 0x9
 1696 0507 04       		.byte	0x4
 1697 0508 B4040000 		.4byte	0x4b4
 1698 050c 03       		.uleb128 0x3
 1699 050d 00000000 		.4byte	.LASF80
 1700 0511 07       		.byte	0x7
 1701 0512 DE       		.byte	0xde
 1702 0513 17050000 		.4byte	0x517
 1703 0517 09       		.uleb128 0x9
 1704 0518 04       		.byte	0x4
 1705 0519 1D050000 		.4byte	0x51d
 1706 051d 11       		.uleb128 0x11
 1707 051e FA000000 		.4byte	0xfa
 1708 0522 2C050000 		.4byte	0x52c
 1709 0526 0C       		.uleb128 0xc
 1710 0527 7F020000 		.4byte	0x27f
 1711 052b 00       		.byte	0
 1712 052c 04       		.uleb128 0x4
 1713 052d 04       		.byte	0x4
 1714 052e 07       		.byte	0x7
 1715 052f 93020000 		.4byte	.LASF81
 1716 0533 05       		.uleb128 0x5
 1717 0534 CE030000 		.4byte	.LASF82
 1718 0538 10       		.byte	0x10
 1719 0539 0E       		.byte	0xe
 1720 053a 3F       		.byte	0x3f
 1721 053b 70050000 		.4byte	0x570
 1722 053f 06       		.uleb128 0x6
 1723 0540 FE010000 		.4byte	.LASF83
 1724 0544 0E       		.byte	0xe
 1725 0545 40       		.byte	0x40
 1726 0546 F4040000 		.4byte	0x4f4
 1727 054a 00       		.byte	0
 1728 054b 06       		.uleb128 0x6
 1729 054c F4020000 		.4byte	.LASF84
 1730 0550 0E       		.byte	0xe
 1731 0551 41       		.byte	0x41
 1732 0552 71050000 		.4byte	0x571
 1733 0556 04       		.byte	0x4
 1734 0557 06       		.uleb128 0x6
 1735 0558 E6010000 		.4byte	.LASF85
 1736 055c 0E       		.byte	0xe
 1737 055d 42       		.byte	0x42
 1738 055e 71050000 		.4byte	0x571
 1739 0562 08       		.byte	0x8
 1740 0563 06       		.uleb128 0x6
 1741 0564 3C030000 		.4byte	.LASF86
 1742 0568 0E       		.byte	0xe
 1743 0569 43       		.byte	0x43
 1744 056a 71050000 		.4byte	0x571
 1745 056e 0C       		.byte	0xc
 1746 056f 00       		.byte	0
 1747 0570 12       		.uleb128 0x12
 1748 0571 09       		.uleb128 0x9
 1749 0572 04       		.byte	0x4
 1750 0573 70050000 		.4byte	0x570
ARM GAS  /tmp/ccIAyMaf.s 			page 32


 1751 0577 13       		.uleb128 0x13
 1752 0578 DA000000 		.4byte	.LASF126
 1753 057c 01       		.byte	0x1
 1754 057d 94       		.byte	0x94
 1755 057e 01       		.byte	0x1
 1756 057f A3050000 		.4byte	0x5a3
 1757 0583 14       		.uleb128 0x14
 1758 0584 6900     		.ascii	"i\000"
 1759 0586 01       		.byte	0x1
 1760 0587 95       		.byte	0x95
 1761 0588 25000000 		.4byte	0x25
 1762 058c 15       		.uleb128 0x15
 1763 058d F0000000 		.4byte	.LASF87
 1764 0591 01       		.byte	0x1
 1765 0592 96       		.byte	0x96
 1766 0593 10010000 		.4byte	0x110
 1767 0597 14       		.uleb128 0x14
 1768 0598 6D736700 		.ascii	"msg\000"
 1769 059c 01       		.byte	0x1
 1770 059d 97       		.byte	0x97
 1771 059e FA000000 		.4byte	0xfa
 1772 05a2 00       		.byte	0
 1773 05a3 16       		.uleb128 0x16
 1774 05a4 A3010000 		.4byte	.LASF127
 1775 05a8 01       		.byte	0x1
 1776 05a9 DD       		.byte	0xdd
 1777 05aa 01       		.byte	0x1
 1778 05ab 17       		.uleb128 0x17
 1779 05ac 29000000 		.4byte	.LASF90
 1780 05b0 01       		.byte	0x1
 1781 05b1 58       		.byte	0x58
 1782 05b2 00000000 		.4byte	.LFB9
 1783 05b6 C4010000 		.4byte	.LFE9-.LFB9
 1784 05ba 01       		.uleb128 0x1
 1785 05bb 9C       		.byte	0x9c
 1786 05bc 8D070000 		.4byte	0x78d
 1787 05c0 18       		.uleb128 0x18
 1788 05c1 38000000 		.4byte	.LVL0
 1789 05c5 B10D0000 		.4byte	0xdb1
 1790 05c9 EB050000 		.4byte	0x5eb
 1791 05cd 19       		.uleb128 0x19
 1792 05ce 01       		.uleb128 0x1
 1793 05cf 53       		.byte	0x53
 1794 05d0 05       		.uleb128 0x5
 1795 05d1 03       		.byte	0x3
 1796 05d2 00000000 		.4byte	thread1
 1797 05d6 19       		.uleb128 0x19
 1798 05d7 01       		.uleb128 0x1
 1799 05d8 51       		.byte	0x51
 1800 05d9 03       		.uleb128 0x3
 1801 05da 0A       		.byte	0xa
 1802 05db 1801     		.2byte	0x118
 1803 05dd 19       		.uleb128 0x19
 1804 05de 01       		.uleb128 0x1
 1805 05df 50       		.byte	0x50
 1806 05e0 02       		.uleb128 0x2
 1807 05e1 78       		.byte	0x78
ARM GAS  /tmp/ccIAyMaf.s 			page 33


 1808 05e2 00       		.sleb128 0
 1809 05e3 19       		.uleb128 0x19
 1810 05e4 02       		.uleb128 0x2
 1811 05e5 7D       		.byte	0x7d
 1812 05e6 00       		.sleb128 0
 1813 05e7 02       		.uleb128 0x2
 1814 05e8 77       		.byte	0x77
 1815 05e9 00       		.sleb128 0
 1816 05ea 00       		.byte	0
 1817 05eb 18       		.uleb128 0x18
 1818 05ec 68000000 		.4byte	.LVL1
 1819 05f0 B10D0000 		.4byte	0xdb1
 1820 05f4 1A060000 		.4byte	0x61a
 1821 05f8 19       		.uleb128 0x19
 1822 05f9 01       		.uleb128 0x1
 1823 05fa 53       		.byte	0x53
 1824 05fb 05       		.uleb128 0x5
 1825 05fc 03       		.byte	0x3
 1826 05fd 00000000 		.4byte	thread1
 1827 0601 19       		.uleb128 0x19
 1828 0602 01       		.uleb128 0x1
 1829 0603 51       		.byte	0x51
 1830 0604 03       		.uleb128 0x3
 1831 0605 0A       		.byte	0xa
 1832 0606 1801     		.2byte	0x118
 1833 0608 19       		.uleb128 0x19
 1834 0609 01       		.uleb128 0x1
 1835 060a 50       		.byte	0x50
 1836 060b 03       		.uleb128 0x3
 1837 060c 74       		.byte	0x74
 1838 060d 04       		.sleb128 4
 1839 060e 06       		.byte	0x6
 1840 060f 19       		.uleb128 0x19
 1841 0610 02       		.uleb128 0x2
 1842 0611 7D       		.byte	0x7d
 1843 0612 00       		.sleb128 0
 1844 0613 05       		.uleb128 0x5
 1845 0614 03       		.byte	0x3
 1846 0615 04000000 		.4byte	.LC1
 1847 0619 00       		.byte	0
 1848 061a 18       		.uleb128 0x18
 1849 061b 94000000 		.4byte	.LVL2
 1850 061f B10D0000 		.4byte	0xdb1
 1851 0623 49060000 		.4byte	0x649
 1852 0627 19       		.uleb128 0x19
 1853 0628 01       		.uleb128 0x1
 1854 0629 53       		.byte	0x53
 1855 062a 05       		.uleb128 0x5
 1856 062b 03       		.byte	0x3
 1857 062c 00000000 		.4byte	thread1
 1858 0630 19       		.uleb128 0x19
 1859 0631 01       		.uleb128 0x1
 1860 0632 51       		.byte	0x51
 1861 0633 03       		.uleb128 0x3
 1862 0634 0A       		.byte	0xa
 1863 0635 1801     		.2byte	0x118
 1864 0637 19       		.uleb128 0x19
ARM GAS  /tmp/ccIAyMaf.s 			page 34


 1865 0638 01       		.uleb128 0x1
 1866 0639 50       		.byte	0x50
 1867 063a 03       		.uleb128 0x3
 1868 063b 74       		.byte	0x74
 1869 063c 08       		.sleb128 8
 1870 063d 06       		.byte	0x6
 1871 063e 19       		.uleb128 0x19
 1872 063f 02       		.uleb128 0x2
 1873 0640 7D       		.byte	0x7d
 1874 0641 00       		.sleb128 0
 1875 0642 05       		.uleb128 0x5
 1876 0643 03       		.byte	0x3
 1877 0644 08000000 		.4byte	.LC2
 1878 0648 00       		.byte	0
 1879 0649 18       		.uleb128 0x18
 1880 064a C0000000 		.4byte	.LVL3
 1881 064e B10D0000 		.4byte	0xdb1
 1882 0652 78060000 		.4byte	0x678
 1883 0656 19       		.uleb128 0x19
 1884 0657 01       		.uleb128 0x1
 1885 0658 53       		.byte	0x53
 1886 0659 05       		.uleb128 0x5
 1887 065a 03       		.byte	0x3
 1888 065b 00000000 		.4byte	thread1
 1889 065f 19       		.uleb128 0x19
 1890 0660 01       		.uleb128 0x1
 1891 0661 51       		.byte	0x51
 1892 0662 03       		.uleb128 0x3
 1893 0663 0A       		.byte	0xa
 1894 0664 1801     		.2byte	0x118
 1895 0666 19       		.uleb128 0x19
 1896 0667 01       		.uleb128 0x1
 1897 0668 50       		.byte	0x50
 1898 0669 03       		.uleb128 0x3
 1899 066a 74       		.byte	0x74
 1900 066b 0C       		.sleb128 12
 1901 066c 06       		.byte	0x6
 1902 066d 19       		.uleb128 0x19
 1903 066e 02       		.uleb128 0x2
 1904 066f 7D       		.byte	0x7d
 1905 0670 00       		.sleb128 0
 1906 0671 05       		.uleb128 0x5
 1907 0672 03       		.byte	0x3
 1908 0673 0C000000 		.4byte	.LC3
 1909 0677 00       		.byte	0
 1910 0678 18       		.uleb128 0x18
 1911 0679 EC000000 		.4byte	.LVL4
 1912 067d B10D0000 		.4byte	0xdb1
 1913 0681 A7060000 		.4byte	0x6a7
 1914 0685 19       		.uleb128 0x19
 1915 0686 01       		.uleb128 0x1
 1916 0687 53       		.byte	0x53
 1917 0688 05       		.uleb128 0x5
 1918 0689 03       		.byte	0x3
 1919 068a 00000000 		.4byte	thread1
 1920 068e 19       		.uleb128 0x19
 1921 068f 01       		.uleb128 0x1
ARM GAS  /tmp/ccIAyMaf.s 			page 35


 1922 0690 51       		.byte	0x51
 1923 0691 03       		.uleb128 0x3
 1924 0692 0A       		.byte	0xa
 1925 0693 1801     		.2byte	0x118
 1926 0695 19       		.uleb128 0x19
 1927 0696 01       		.uleb128 0x1
 1928 0697 50       		.byte	0x50
 1929 0698 03       		.uleb128 0x3
 1930 0699 74       		.byte	0x74
 1931 069a 10       		.sleb128 16
 1932 069b 06       		.byte	0x6
 1933 069c 19       		.uleb128 0x19
 1934 069d 02       		.uleb128 0x2
 1935 069e 7D       		.byte	0x7d
 1936 069f 00       		.sleb128 0
 1937 06a0 05       		.uleb128 0x5
 1938 06a1 03       		.byte	0x3
 1939 06a2 10000000 		.4byte	.LC4
 1940 06a6 00       		.byte	0
 1941 06a7 18       		.uleb128 0x18
 1942 06a8 FC000000 		.4byte	.LVL5
 1943 06ac DB0D0000 		.4byte	0xddb
 1944 06b0 BB060000 		.4byte	0x6bb
 1945 06b4 19       		.uleb128 0x19
 1946 06b5 01       		.uleb128 0x1
 1947 06b6 50       		.byte	0x50
 1948 06b7 02       		.uleb128 0x2
 1949 06b8 74       		.byte	0x74
 1950 06b9 00       		.sleb128 0
 1951 06ba 00       		.byte	0
 1952 06bb 18       		.uleb128 0x18
 1953 06bc 04010000 		.4byte	.LVL6
 1954 06c0 DB0D0000 		.4byte	0xddb
 1955 06c4 CF060000 		.4byte	0x6cf
 1956 06c8 19       		.uleb128 0x19
 1957 06c9 01       		.uleb128 0x1
 1958 06ca 50       		.byte	0x50
 1959 06cb 02       		.uleb128 0x2
 1960 06cc 74       		.byte	0x74
 1961 06cd 00       		.sleb128 0
 1962 06ce 00       		.byte	0
 1963 06cf 18       		.uleb128 0x18
 1964 06d0 0C010000 		.4byte	.LVL7
 1965 06d4 DB0D0000 		.4byte	0xddb
 1966 06d8 E3060000 		.4byte	0x6e3
 1967 06dc 19       		.uleb128 0x19
 1968 06dd 01       		.uleb128 0x1
 1969 06de 50       		.byte	0x50
 1970 06df 02       		.uleb128 0x2
 1971 06e0 74       		.byte	0x74
 1972 06e1 00       		.sleb128 0
 1973 06e2 00       		.byte	0
 1974 06e3 18       		.uleb128 0x18
 1975 06e4 14010000 		.4byte	.LVL8
 1976 06e8 DB0D0000 		.4byte	0xddb
 1977 06ec F7060000 		.4byte	0x6f7
 1978 06f0 19       		.uleb128 0x19
ARM GAS  /tmp/ccIAyMaf.s 			page 36


 1979 06f1 01       		.uleb128 0x1
 1980 06f2 50       		.byte	0x50
 1981 06f3 02       		.uleb128 0x2
 1982 06f4 74       		.byte	0x74
 1983 06f5 00       		.sleb128 0
 1984 06f6 00       		.byte	0
 1985 06f7 18       		.uleb128 0x18
 1986 06f8 1C010000 		.4byte	.LVL9
 1987 06fc DB0D0000 		.4byte	0xddb
 1988 0700 0B070000 		.4byte	0x70b
 1989 0704 19       		.uleb128 0x19
 1990 0705 01       		.uleb128 0x1
 1991 0706 50       		.byte	0x50
 1992 0707 02       		.uleb128 0x2
 1993 0708 74       		.byte	0x74
 1994 0709 00       		.sleb128 0
 1995 070a 00       		.byte	0
 1996 070b 1A       		.uleb128 0x1a
 1997 070c 20010000 		.4byte	.LVL10
 1998 0710 F20D0000 		.4byte	0xdf2
 1999 0714 18       		.uleb128 0x18
 2000 0715 2C010000 		.4byte	.LVL11
 2001 0719 F90D0000 		.4byte	0xdf9
 2002 071d 30070000 		.4byte	0x730
 2003 0721 19       		.uleb128 0x19
 2004 0722 01       		.uleb128 0x1
 2005 0723 51       		.byte	0x51
 2006 0724 05       		.uleb128 0x5
 2007 0725 03       		.byte	0x3
 2008 0726 14000000 		.4byte	.LC5
 2009 072a 19       		.uleb128 0x19
 2010 072b 01       		.uleb128 0x1
 2011 072c 50       		.byte	0x50
 2012 072d 01       		.uleb128 0x1
 2013 072e 31       		.byte	0x31
 2014 072f 00       		.byte	0
 2015 0730 18       		.uleb128 0x18
 2016 0731 5C010000 		.4byte	.LVL12
 2017 0735 B10D0000 		.4byte	0xdb1
 2018 0739 5B070000 		.4byte	0x75b
 2019 073d 19       		.uleb128 0x19
 2020 073e 01       		.uleb128 0x1
 2021 073f 53       		.byte	0x53
 2022 0740 05       		.uleb128 0x5
 2023 0741 03       		.byte	0x3
 2024 0742 00000000 		.4byte	thread1
 2025 0746 19       		.uleb128 0x19
 2026 0747 01       		.uleb128 0x1
 2027 0748 51       		.byte	0x51
 2028 0749 03       		.uleb128 0x3
 2029 074a 0A       		.byte	0xa
 2030 074b 1801     		.2byte	0x118
 2031 074d 19       		.uleb128 0x19
 2032 074e 01       		.uleb128 0x1
 2033 074f 50       		.byte	0x50
 2034 0750 02       		.uleb128 0x2
 2035 0751 78       		.byte	0x78
ARM GAS  /tmp/ccIAyMaf.s 			page 37


 2036 0752 00       		.sleb128 0
 2037 0753 19       		.uleb128 0x19
 2038 0754 02       		.uleb128 0x2
 2039 0755 7D       		.byte	0x7d
 2040 0756 00       		.sleb128 0
 2041 0757 02       		.uleb128 0x2
 2042 0758 77       		.byte	0x77
 2043 0759 00       		.sleb128 0
 2044 075a 00       		.byte	0
 2045 075b 18       		.uleb128 0x18
 2046 075c 70010000 		.4byte	.LVL13
 2047 0760 190E0000 		.4byte	0xe19
 2048 0764 74070000 		.4byte	0x774
 2049 0768 19       		.uleb128 0x19
 2050 0769 01       		.uleb128 0x1
 2051 076a 51       		.byte	0x51
 2052 076b 01       		.uleb128 0x1
 2053 076c 32       		.byte	0x32
 2054 076d 19       		.uleb128 0x19
 2055 076e 01       		.uleb128 0x1
 2056 076f 50       		.byte	0x50
 2057 0770 02       		.uleb128 0x2
 2058 0771 74       		.byte	0x74
 2059 0772 00       		.sleb128 0
 2060 0773 00       		.byte	0
 2061 0774 1A       		.uleb128 0x1a
 2062 0775 78010000 		.4byte	.LVL14
 2063 0779 F20D0000 		.4byte	0xdf2
 2064 077d 1B       		.uleb128 0x1b
 2065 077e 98010000 		.4byte	.LVL15
 2066 0782 2F0E0000 		.4byte	0xe2f
 2067 0786 19       		.uleb128 0x19
 2068 0787 01       		.uleb128 0x1
 2069 0788 50       		.byte	0x50
 2070 0789 01       		.uleb128 0x1
 2071 078a 32       		.byte	0x32
 2072 078b 00       		.byte	0
 2073 078c 00       		.byte	0
 2074 078d 1C       		.uleb128 0x1c
 2075 078e B8000000 		.4byte	.LASF88
 2076 0792 01       		.byte	0x1
 2077 0793 D5       		.byte	0xd5
 2078 0794 FA000000 		.4byte	0xfa
 2079 0798 00000000 		.4byte	.LFB14
 2080 079c 24000000 		.4byte	.LFE14-.LFB14
 2081 07a0 01       		.uleb128 0x1
 2082 07a1 9C       		.byte	0x9c
 2083 07a2 D8070000 		.4byte	0x7d8
 2084 07a6 1D       		.uleb128 0x1d
 2085 07a7 7000     		.ascii	"p\000"
 2086 07a9 01       		.byte	0x1
 2087 07aa D5       		.byte	0xd5
 2088 07ab 7F020000 		.4byte	0x27f
 2089 07af 00000000 		.4byte	.LLST0
 2090 07b3 18       		.uleb128 0x18
 2091 07b4 10000000 		.4byte	.LVL18
 2092 07b8 490E0000 		.4byte	0xe49
ARM GAS  /tmp/ccIAyMaf.s 			page 38


 2093 07bc C7070000 		.4byte	0x7c7
 2094 07c0 19       		.uleb128 0x19
 2095 07c1 01       		.uleb128 0x1
 2096 07c2 50       		.byte	0x50
 2097 07c3 02       		.uleb128 0x2
 2098 07c4 74       		.byte	0x74
 2099 07c5 00       		.sleb128 0
 2100 07c6 00       		.byte	0
 2101 07c7 1E       		.uleb128 0x1e
 2102 07c8 18000000 		.4byte	.LVL19
 2103 07cc DB0D0000 		.4byte	0xddb
 2104 07d0 19       		.uleb128 0x19
 2105 07d1 01       		.uleb128 0x1
 2106 07d2 50       		.byte	0x50
 2107 07d3 02       		.uleb128 0x2
 2108 07d4 74       		.byte	0x74
 2109 07d5 00       		.sleb128 0
 2110 07d6 00       		.byte	0
 2111 07d7 00       		.byte	0
 2112 07d8 1C       		.uleb128 0x1c
 2113 07d9 C9020000 		.4byte	.LASF89
 2114 07dd 01       		.byte	0x1
 2115 07de 51       		.byte	0x51
 2116 07df FA000000 		.4byte	0xfa
 2117 07e3 00000000 		.4byte	.LFB8
 2118 07e7 24000000 		.4byte	.LFE8-.LFB8
 2119 07eb 01       		.uleb128 0x1
 2120 07ec 9C       		.byte	0x9c
 2121 07ed 1F080000 		.4byte	0x81f
 2122 07f1 1D       		.uleb128 0x1d
 2123 07f2 7000     		.ascii	"p\000"
 2124 07f4 01       		.byte	0x1
 2125 07f5 51       		.byte	0x51
 2126 07f6 7F020000 		.4byte	0x27f
 2127 07fa 21000000 		.4byte	.LLST1
 2128 07fe 18       		.uleb128 0x18
 2129 07ff 10000000 		.4byte	.LVL22
 2130 0803 490E0000 		.4byte	0xe49
 2131 0807 15080000 		.4byte	0x815
 2132 080b 19       		.uleb128 0x19
 2133 080c 01       		.uleb128 0x1
 2134 080d 50       		.byte	0x50
 2135 080e 05       		.uleb128 0x5
 2136 080f 03       		.byte	0x3
 2137 0810 00000000 		.4byte	.LANCHOR0
 2138 0814 00       		.byte	0
 2139 0815 1A       		.uleb128 0x1a
 2140 0816 18000000 		.4byte	.LVL23
 2141 081a 5E0E0000 		.4byte	0xe5e
 2142 081e 00       		.byte	0
 2143 081f 17       		.uleb128 0x17
 2144 0820 A4020000 		.4byte	.LASF91
 2145 0824 01       		.byte	0x1
 2146 0825 4C       		.byte	0x4c
 2147 0826 00000000 		.4byte	.LFB7
 2148 082a 10000000 		.4byte	.LFE7-.LFB7
 2149 082e 01       		.uleb128 0x1
ARM GAS  /tmp/ccIAyMaf.s 			page 39


 2150 082f 9C       		.byte	0x9c
 2151 0830 4D080000 		.4byte	0x84d
 2152 0834 1B       		.uleb128 0x1b
 2153 0835 0C000000 		.4byte	.LVL24
 2154 0839 6F0E0000 		.4byte	0xe6f
 2155 083d 19       		.uleb128 0x19
 2156 083e 01       		.uleb128 0x1
 2157 083f 51       		.byte	0x51
 2158 0840 01       		.uleb128 0x1
 2159 0841 30       		.byte	0x30
 2160 0842 19       		.uleb128 0x19
 2161 0843 01       		.uleb128 0x1
 2162 0844 50       		.byte	0x50
 2163 0845 05       		.uleb128 0x5
 2164 0846 03       		.byte	0x3
 2165 0847 00000000 		.4byte	.LANCHOR0
 2166 084b 00       		.byte	0
 2167 084c 00       		.byte	0
 2168 084d 17       		.uleb128 0x17
 2169 084e 67010000 		.4byte	.LASF92
 2170 0852 01       		.byte	0x1
 2171 0853 84       		.byte	0x84
 2172 0854 00000000 		.4byte	.LFB10
 2173 0858 10000000 		.4byte	.LFE10-.LFB10
 2174 085c 01       		.uleb128 0x1
 2175 085d 9C       		.byte	0x9c
 2176 085e 7B080000 		.4byte	0x87b
 2177 0862 1B       		.uleb128 0x1b
 2178 0863 0C000000 		.4byte	.LVL25
 2179 0867 6F0E0000 		.4byte	0xe6f
 2180 086b 19       		.uleb128 0x19
 2181 086c 01       		.uleb128 0x1
 2182 086d 51       		.byte	0x51
 2183 086e 01       		.uleb128 0x1
 2184 086f 30       		.byte	0x30
 2185 0870 19       		.uleb128 0x19
 2186 0871 01       		.uleb128 0x1
 2187 0872 50       		.byte	0x50
 2188 0873 05       		.uleb128 0x5
 2189 0874 03       		.byte	0x3
 2190 0875 00000000 		.4byte	.LANCHOR0
 2191 0879 00       		.byte	0
 2192 087a 00       		.byte	0
 2193 087b 17       		.uleb128 0x17
 2194 087c B2040000 		.4byte	.LASF93
 2195 0880 01       		.byte	0x1
 2196 0881 D0       		.byte	0xd0
 2197 0882 00000000 		.4byte	.LFB13
 2198 0886 10000000 		.4byte	.LFE13-.LFB13
 2199 088a 01       		.uleb128 0x1
 2200 088b 9C       		.byte	0x9c
 2201 088c A9080000 		.4byte	0x8a9
 2202 0890 1B       		.uleb128 0x1b
 2203 0891 0C000000 		.4byte	.LVL26
 2204 0895 6F0E0000 		.4byte	0xe6f
 2205 0899 19       		.uleb128 0x19
 2206 089a 01       		.uleb128 0x1
ARM GAS  /tmp/ccIAyMaf.s 			page 40


 2207 089b 51       		.byte	0x51
 2208 089c 01       		.uleb128 0x1
 2209 089d 30       		.byte	0x30
 2210 089e 19       		.uleb128 0x19
 2211 089f 01       		.uleb128 0x1
 2212 08a0 50       		.byte	0x50
 2213 08a1 05       		.uleb128 0x5
 2214 08a2 03       		.byte	0x3
 2215 08a3 00000000 		.4byte	.LANCHOR0
 2216 08a7 00       		.byte	0
 2217 08a8 00       		.byte	0
 2218 08a9 1C       		.uleb128 0x1c
 2219 08aa D1020000 		.4byte	.LASF94
 2220 08ae 01       		.byte	0x1
 2221 08af 89       		.byte	0x89
 2222 08b0 FA000000 		.4byte	0xfa
 2223 08b4 00000000 		.4byte	.LFB11
 2224 08b8 2C000000 		.4byte	.LFE11-.LFB11
 2225 08bc 01       		.uleb128 0x1
 2226 08bd 9C       		.byte	0x9c
 2227 08be 04090000 		.4byte	0x904
 2228 08c2 1D       		.uleb128 0x1d
 2229 08c3 7000     		.ascii	"p\000"
 2230 08c5 01       		.byte	0x1
 2231 08c6 89       		.byte	0x89
 2232 08c7 7F020000 		.4byte	0x27f
 2233 08cb 3F000000 		.4byte	.LLST2
 2234 08cf 18       		.uleb128 0x18
 2235 08d0 0C000000 		.4byte	.LVL29
 2236 08d4 850E0000 		.4byte	0xe85
 2237 08d8 E3080000 		.4byte	0x8e3
 2238 08dc 19       		.uleb128 0x19
 2239 08dd 01       		.uleb128 0x1
 2240 08de 50       		.byte	0x50
 2241 08df 02       		.uleb128 0x2
 2242 08e0 08       		.byte	0x8
 2243 08e1 32       		.byte	0x32
 2244 08e2 00       		.byte	0
 2245 08e3 18       		.uleb128 0x18
 2246 08e4 18000000 		.4byte	.LVL30
 2247 08e8 970E0000 		.4byte	0xe97
 2248 08ec FA080000 		.4byte	0x8fa
 2249 08f0 19       		.uleb128 0x19
 2250 08f1 01       		.uleb128 0x1
 2251 08f2 50       		.byte	0x50
 2252 08f3 05       		.uleb128 0x5
 2253 08f4 03       		.byte	0x3
 2254 08f5 00000000 		.4byte	.LANCHOR0
 2255 08f9 00       		.byte	0
 2256 08fa 1A       		.uleb128 0x1a
 2257 08fb 1C000000 		.4byte	.LVL31
 2258 08ff A80E0000 		.4byte	0xea8
 2259 0903 00       		.byte	0
 2260 0904 1C       		.uleb128 0x1c
 2261 0905 DF020000 		.4byte	.LASF95
 2262 0909 01       		.byte	0x1
 2263 090a F9       		.byte	0xf9
ARM GAS  /tmp/ccIAyMaf.s 			page 41


 2264 090b FA000000 		.4byte	0xfa
 2265 090f 00000000 		.4byte	.LFB16
 2266 0913 2C000000 		.4byte	.LFE16-.LFB16
 2267 0917 01       		.uleb128 0x1
 2268 0918 9C       		.byte	0x9c
 2269 0919 3D090000 		.4byte	0x93d
 2270 091d 1D       		.uleb128 0x1d
 2271 091e 7000     		.ascii	"p\000"
 2272 0920 01       		.byte	0x1
 2273 0921 F9       		.byte	0xf9
 2274 0922 7F020000 		.4byte	0x27f
 2275 0926 60000000 		.4byte	.LLST3
 2276 092a 1A       		.uleb128 0x1a
 2277 092b 18000000 		.4byte	.LVL34
 2278 092f A80E0000 		.4byte	0xea8
 2279 0933 1A       		.uleb128 0x1a
 2280 0934 28000000 		.4byte	.LVL36
 2281 0938 970E0000 		.4byte	0xe97
 2282 093c 00       		.byte	0
 2283 093d 17       		.uleb128 0x17
 2284 093e 7E020000 		.4byte	.LASF96
 2285 0942 01       		.byte	0x1
 2286 0943 FF       		.byte	0xff
 2287 0944 00000000 		.4byte	.LFB17
 2288 0948 78010000 		.4byte	.LFE17-.LFB17
 2289 094c 01       		.uleb128 0x1
 2290 094d 9C       		.byte	0x9c
 2291 094e 750A0000 		.4byte	0xa75
 2292 0952 1F       		.uleb128 0x1f
 2293 0953 29020000 		.4byte	.LASF97
 2294 0957 01       		.byte	0x1
 2295 0958 0001     		.2byte	0x100
 2296 095a 72040000 		.4byte	0x472
 2297 095e 02       		.uleb128 0x2
 2298 095f 91       		.byte	0x91
 2299 0960 6C       		.sleb128 -20
 2300 0961 18       		.uleb128 0x18
 2301 0962 14000000 		.4byte	.LVL37
 2302 0966 6F0E0000 		.4byte	0xe6f
 2303 096a 7A090000 		.4byte	0x97a
 2304 096e 19       		.uleb128 0x19
 2305 096f 01       		.uleb128 0x1
 2306 0970 51       		.byte	0x51
 2307 0971 01       		.uleb128 0x1
 2308 0972 30       		.byte	0x30
 2309 0973 19       		.uleb128 0x19
 2310 0974 01       		.uleb128 0x1
 2311 0975 50       		.byte	0x50
 2312 0976 02       		.uleb128 0x2
 2313 0977 91       		.byte	0x91
 2314 0978 64       		.sleb128 -28
 2315 0979 00       		.byte	0
 2316 097a 18       		.uleb128 0x18
 2317 097b 20000000 		.4byte	.LVL38
 2318 097f AF0E0000 		.4byte	0xeaf
 2319 0983 93090000 		.4byte	0x993
 2320 0987 19       		.uleb128 0x19
ARM GAS  /tmp/ccIAyMaf.s 			page 42


 2321 0988 01       		.uleb128 0x1
 2322 0989 51       		.byte	0x51
 2323 098a 01       		.uleb128 0x1
 2324 098b 30       		.byte	0x30
 2325 098c 19       		.uleb128 0x19
 2326 098d 01       		.uleb128 0x1
 2327 098e 50       		.byte	0x50
 2328 098f 02       		.uleb128 0x2
 2329 0990 91       		.byte	0x91
 2330 0991 64       		.sleb128 -28
 2331 0992 00       		.byte	0
 2332 0993 18       		.uleb128 0x18
 2333 0994 38000000 		.4byte	.LVL39
 2334 0998 2F0E0000 		.4byte	0xe2f
 2335 099c A6090000 		.4byte	0x9a6
 2336 09a0 19       		.uleb128 0x19
 2337 09a1 01       		.uleb128 0x1
 2338 09a2 50       		.byte	0x50
 2339 09a3 01       		.uleb128 0x1
 2340 09a4 31       		.byte	0x31
 2341 09a5 00       		.byte	0
 2342 09a6 18       		.uleb128 0x18
 2343 09a7 74000000 		.4byte	.LVL40
 2344 09ab B10D0000 		.4byte	0xdb1
 2345 09af CB090000 		.4byte	0x9cb
 2346 09b3 19       		.uleb128 0x19
 2347 09b4 01       		.uleb128 0x1
 2348 09b5 53       		.byte	0x53
 2349 09b6 05       		.uleb128 0x5
 2350 09b7 03       		.byte	0x3
 2351 09b8 00000000 		.4byte	thread4
 2352 09bc 19       		.uleb128 0x19
 2353 09bd 01       		.uleb128 0x1
 2354 09be 51       		.byte	0x51
 2355 09bf 03       		.uleb128 0x3
 2356 09c0 0A       		.byte	0xa
 2357 09c1 1801     		.2byte	0x118
 2358 09c3 19       		.uleb128 0x19
 2359 09c4 02       		.uleb128 0x2
 2360 09c5 7D       		.byte	0x7d
 2361 09c6 00       		.sleb128 0
 2362 09c7 02       		.uleb128 0x2
 2363 09c8 91       		.byte	0x91
 2364 09c9 64       		.sleb128 -28
 2365 09ca 00       		.byte	0
 2366 09cb 18       		.uleb128 0x18
 2367 09cc 84000000 		.4byte	.LVL41
 2368 09d0 490E0000 		.4byte	0xe49
 2369 09d4 DF090000 		.4byte	0x9df
 2370 09d8 19       		.uleb128 0x19
 2371 09d9 01       		.uleb128 0x1
 2372 09da 50       		.byte	0x50
 2373 09db 02       		.uleb128 0x2
 2374 09dc 91       		.byte	0x91
 2375 09dd 64       		.sleb128 -28
 2376 09de 00       		.byte	0
 2377 09df 18       		.uleb128 0x18
ARM GAS  /tmp/ccIAyMaf.s 			page 43


 2378 09e0 9C000000 		.4byte	.LVL42
 2379 09e4 2F0E0000 		.4byte	0xe2f
 2380 09e8 F2090000 		.4byte	0x9f2
 2381 09ec 19       		.uleb128 0x19
 2382 09ed 01       		.uleb128 0x1
 2383 09ee 50       		.byte	0x50
 2384 09ef 01       		.uleb128 0x1
 2385 09f0 32       		.byte	0x32
 2386 09f1 00       		.byte	0
 2387 09f2 1A       		.uleb128 0x1a
 2388 09f3 B8000000 		.4byte	.LVL43
 2389 09f7 A80E0000 		.4byte	0xea8
 2390 09fb 18       		.uleb128 0x18
 2391 09fc D4000000 		.4byte	.LVL44
 2392 0a00 2F0E0000 		.4byte	0xe2f
 2393 0a04 0E0A0000 		.4byte	0xa0e
 2394 0a08 19       		.uleb128 0x19
 2395 0a09 01       		.uleb128 0x1
 2396 0a0a 50       		.byte	0x50
 2397 0a0b 01       		.uleb128 0x1
 2398 0a0c 33       		.byte	0x33
 2399 0a0d 00       		.byte	0
 2400 0a0e 18       		.uleb128 0x18
 2401 0a0f F4000000 		.4byte	.LVL45
 2402 0a13 2F0E0000 		.4byte	0xe2f
 2403 0a17 210A0000 		.4byte	0xa21
 2404 0a1b 19       		.uleb128 0x19
 2405 0a1c 01       		.uleb128 0x1
 2406 0a1d 50       		.byte	0x50
 2407 0a1e 01       		.uleb128 0x1
 2408 0a1f 34       		.byte	0x34
 2409 0a20 00       		.byte	0
 2410 0a21 1A       		.uleb128 0x1a
 2411 0a22 10010000 		.4byte	.LVL46
 2412 0a26 A80E0000 		.4byte	0xea8
 2413 0a2a 18       		.uleb128 0x18
 2414 0a2b 2C010000 		.4byte	.LVL47
 2415 0a2f 2F0E0000 		.4byte	0xe2f
 2416 0a33 3D0A0000 		.4byte	0xa3d
 2417 0a37 19       		.uleb128 0x19
 2418 0a38 01       		.uleb128 0x1
 2419 0a39 50       		.byte	0x50
 2420 0a3a 01       		.uleb128 0x1
 2421 0a3b 33       		.byte	0x33
 2422 0a3c 00       		.byte	0
 2423 0a3d 18       		.uleb128 0x18
 2424 0a3e 4C010000 		.4byte	.LVL48
 2425 0a42 2F0E0000 		.4byte	0xe2f
 2426 0a46 500A0000 		.4byte	0xa50
 2427 0a4a 19       		.uleb128 0x19
 2428 0a4b 01       		.uleb128 0x1
 2429 0a4c 50       		.byte	0x50
 2430 0a4d 01       		.uleb128 0x1
 2431 0a4e 35       		.byte	0x35
 2432 0a4f 00       		.byte	0
 2433 0a50 18       		.uleb128 0x18
 2434 0a51 58010000 		.4byte	.LVL49
ARM GAS  /tmp/ccIAyMaf.s 			page 44


 2435 0a55 970E0000 		.4byte	0xe97
 2436 0a59 640A0000 		.4byte	0xa64
 2437 0a5d 19       		.uleb128 0x19
 2438 0a5e 01       		.uleb128 0x1
 2439 0a5f 50       		.byte	0x50
 2440 0a60 02       		.uleb128 0x2
 2441 0a61 91       		.byte	0x91
 2442 0a62 64       		.sleb128 -28
 2443 0a63 00       		.byte	0
 2444 0a64 1E       		.uleb128 0x1e
 2445 0a65 64010000 		.4byte	.LVL50
 2446 0a69 970E0000 		.4byte	0xe97
 2447 0a6d 19       		.uleb128 0x19
 2448 0a6e 01       		.uleb128 0x1
 2449 0a6f 50       		.byte	0x50
 2450 0a70 02       		.uleb128 0x2
 2451 0a71 91       		.byte	0x91
 2452 0a72 64       		.sleb128 -28
 2453 0a73 00       		.byte	0
 2454 0a74 00       		.byte	0
 2455 0a75 20       		.uleb128 0x20
 2456 0a76 77050000 		.4byte	0x577
 2457 0a7a 00000000 		.4byte	.LFB12
 2458 0a7e E8010000 		.4byte	.LFE12-.LFB12
 2459 0a82 01       		.uleb128 0x1
 2460 0a83 9C       		.byte	0x9c
 2461 0a84 2A0C0000 		.4byte	0xc2a
 2462 0a88 21       		.uleb128 0x21
 2463 0a89 83050000 		.4byte	0x583
 2464 0a8d 21       		.uleb128 0x21
 2465 0a8e 8C050000 		.4byte	0x58c
 2466 0a92 22       		.uleb128 0x22
 2467 0a93 97050000 		.4byte	0x597
 2468 0a97 9A000000 		.4byte	.LLST4
 2469 0a9b 23       		.uleb128 0x23
 2470 0a9c 00000000 		.4byte	.Ldebug_ranges0+0
 2471 0aa0 DB0B0000 		.4byte	0xbdb
 2472 0aa4 21       		.uleb128 0x21
 2473 0aa5 83050000 		.4byte	0x583
 2474 0aa9 22       		.uleb128 0x22
 2475 0aaa 8C050000 		.4byte	0x58c
 2476 0aae AD000000 		.4byte	.LLST5
 2477 0ab2 22       		.uleb128 0x22
 2478 0ab3 97050000 		.4byte	0x597
 2479 0ab7 D0000000 		.4byte	.LLST6
 2480 0abb 18       		.uleb128 0x18
 2481 0abc A0000000 		.4byte	.LVL56
 2482 0ac0 B10D0000 		.4byte	0xdb1
 2483 0ac4 D90A0000 		.4byte	0xad9
 2484 0ac8 19       		.uleb128 0x19
 2485 0ac9 01       		.uleb128 0x1
 2486 0aca 53       		.byte	0x53
 2487 0acb 05       		.uleb128 0x5
 2488 0acc 03       		.byte	0x3
 2489 0acd 00000000 		.4byte	thread2
 2490 0ad1 19       		.uleb128 0x19
 2491 0ad2 01       		.uleb128 0x1
ARM GAS  /tmp/ccIAyMaf.s 			page 45


 2492 0ad3 51       		.byte	0x51
 2493 0ad4 03       		.uleb128 0x3
 2494 0ad5 0A       		.byte	0xa
 2495 0ad6 1801     		.2byte	0x118
 2496 0ad8 00       		.byte	0
 2497 0ad9 18       		.uleb128 0x18
 2498 0ada B4000000 		.4byte	.LVL57
 2499 0ade C50E0000 		.4byte	0xec5
 2500 0ae2 F40A0000 		.4byte	0xaf4
 2501 0ae6 19       		.uleb128 0x19
 2502 0ae7 01       		.uleb128 0x1
 2503 0ae8 51       		.byte	0x51
 2504 0ae9 03       		.uleb128 0x3
 2505 0aea 0A       		.byte	0xa
 2506 0aeb F401     		.2byte	0x1f4
 2507 0aed 19       		.uleb128 0x19
 2508 0aee 01       		.uleb128 0x1
 2509 0aef 50       		.byte	0x50
 2510 0af0 02       		.uleb128 0x2
 2511 0af1 74       		.byte	0x74
 2512 0af2 00       		.sleb128 0
 2513 0af3 00       		.byte	0
 2514 0af4 1A       		.uleb128 0x1a
 2515 0af5 BC000000 		.4byte	.LVL59
 2516 0af9 F20D0000 		.4byte	0xdf2
 2517 0afd 18       		.uleb128 0x18
 2518 0afe CC000000 		.4byte	.LVL60
 2519 0b02 2F0E0000 		.4byte	0xe2f
 2520 0b06 180B0000 		.4byte	0xb18
 2521 0b0a 19       		.uleb128 0x19
 2522 0b0b 01       		.uleb128 0x1
 2523 0b0c 51       		.byte	0x51
 2524 0b0d 04       		.uleb128 0x4
 2525 0b0e 75       		.byte	0x75
 2526 0b0f 00       		.sleb128 0
 2527 0b10 30       		.byte	0x30
 2528 0b11 29       		.byte	0x29
 2529 0b12 19       		.uleb128 0x19
 2530 0b13 01       		.uleb128 0x1
 2531 0b14 50       		.byte	0x50
 2532 0b15 01       		.uleb128 0x1
 2533 0b16 34       		.byte	0x34
 2534 0b17 00       		.byte	0
 2535 0b18 18       		.uleb128 0x18
 2536 0b19 EC000000 		.4byte	.LVL61
 2537 0b1d 2F0E0000 		.4byte	0xe2f
 2538 0b21 2B0B0000 		.4byte	0xb2b
 2539 0b25 19       		.uleb128 0x19
 2540 0b26 01       		.uleb128 0x1
 2541 0b27 50       		.byte	0x50
 2542 0b28 01       		.uleb128 0x1
 2543 0b29 35       		.byte	0x35
 2544 0b2a 00       		.byte	0
 2545 0b2b 18       		.uleb128 0x18
 2546 0b2c 08010000 		.4byte	.LVL62
 2547 0b30 2F0E0000 		.4byte	0xe2f
 2548 0b34 3E0B0000 		.4byte	0xb3e
ARM GAS  /tmp/ccIAyMaf.s 			page 46


 2549 0b38 19       		.uleb128 0x19
 2550 0b39 01       		.uleb128 0x1
 2551 0b3a 50       		.byte	0x50
 2552 0b3b 01       		.uleb128 0x1
 2553 0b3c 36       		.byte	0x36
 2554 0b3d 00       		.byte	0
 2555 0b3e 1A       		.uleb128 0x1a
 2556 0b3f 18010000 		.4byte	.LVL64
 2557 0b43 DF0E0000 		.4byte	0xedf
 2558 0b47 18       		.uleb128 0x18
 2559 0b48 28010000 		.4byte	.LVL66
 2560 0b4c 5E0E0000 		.4byte	0xe5e
 2561 0b50 5B0B0000 		.4byte	0xb5b
 2562 0b54 19       		.uleb128 0x19
 2563 0b55 01       		.uleb128 0x1
 2564 0b56 50       		.byte	0x50
 2565 0b57 02       		.uleb128 0x2
 2566 0b58 75       		.byte	0x75
 2567 0b59 00       		.sleb128 0
 2568 0b5a 00       		.byte	0
 2569 0b5b 18       		.uleb128 0x18
 2570 0b5c 34010000 		.4byte	.LVL67
 2571 0b60 C50E0000 		.4byte	0xec5
 2572 0b64 760B0000 		.4byte	0xb76
 2573 0b68 19       		.uleb128 0x19
 2574 0b69 01       		.uleb128 0x1
 2575 0b6a 51       		.byte	0x51
 2576 0b6b 03       		.uleb128 0x3
 2577 0b6c 0A       		.byte	0xa
 2578 0b6d F401     		.2byte	0x1f4
 2579 0b6f 19       		.uleb128 0x19
 2580 0b70 01       		.uleb128 0x1
 2581 0b71 50       		.byte	0x50
 2582 0b72 02       		.uleb128 0x2
 2583 0b73 74       		.byte	0x74
 2584 0b74 00       		.sleb128 0
 2585 0b75 00       		.byte	0
 2586 0b76 18       		.uleb128 0x18
 2587 0b77 48010000 		.4byte	.LVL69
 2588 0b7b 2F0E0000 		.4byte	0xe2f
 2589 0b7f 890B0000 		.4byte	0xb89
 2590 0b83 19       		.uleb128 0x19
 2591 0b84 01       		.uleb128 0x1
 2592 0b85 50       		.byte	0x50
 2593 0b86 01       		.uleb128 0x1
 2594 0b87 37       		.byte	0x37
 2595 0b88 00       		.byte	0
 2596 0b89 18       		.uleb128 0x18
 2597 0b8a 68010000 		.4byte	.LVL70
 2598 0b8e 2F0E0000 		.4byte	0xe2f
 2599 0b92 9C0B0000 		.4byte	0xb9c
 2600 0b96 19       		.uleb128 0x19
 2601 0b97 01       		.uleb128 0x1
 2602 0b98 50       		.byte	0x50
 2603 0b99 01       		.uleb128 0x1
 2604 0b9a 38       		.byte	0x38
 2605 0b9b 00       		.byte	0
ARM GAS  /tmp/ccIAyMaf.s 			page 47


 2606 0b9c 18       		.uleb128 0x18
 2607 0b9d 84010000 		.4byte	.LVL71
 2608 0ba1 2F0E0000 		.4byte	0xe2f
 2609 0ba5 AF0B0000 		.4byte	0xbaf
 2610 0ba9 19       		.uleb128 0x19
 2611 0baa 01       		.uleb128 0x1
 2612 0bab 50       		.byte	0x50
 2613 0bac 01       		.uleb128 0x1
 2614 0bad 39       		.byte	0x39
 2615 0bae 00       		.byte	0
 2616 0baf 18       		.uleb128 0x18
 2617 0bb0 A8010000 		.4byte	.LVL72
 2618 0bb4 F90D0000 		.4byte	0xdf9
 2619 0bb8 CB0B0000 		.4byte	0xbcb
 2620 0bbc 19       		.uleb128 0x19
 2621 0bbd 01       		.uleb128 0x1
 2622 0bbe 51       		.byte	0x51
 2623 0bbf 05       		.uleb128 0x5
 2624 0bc0 03       		.byte	0x3
 2625 0bc1 14000000 		.4byte	.LC5
 2626 0bc5 19       		.uleb128 0x19
 2627 0bc6 01       		.uleb128 0x1
 2628 0bc7 50       		.byte	0x50
 2629 0bc8 01       		.uleb128 0x1
 2630 0bc9 3A       		.byte	0x3a
 2631 0bca 00       		.byte	0
 2632 0bcb 1B       		.uleb128 0x1b
 2633 0bcc CC010000 		.4byte	.LVL74
 2634 0bd0 EA0E0000 		.4byte	0xeea
 2635 0bd4 19       		.uleb128 0x19
 2636 0bd5 01       		.uleb128 0x1
 2637 0bd6 50       		.byte	0x50
 2638 0bd7 01       		.uleb128 0x1
 2639 0bd8 3B       		.byte	0x3b
 2640 0bd9 00       		.byte	0
 2641 0bda 00       		.byte	0
 2642 0bdb 18       		.uleb128 0x18
 2643 0bdc 18000000 		.4byte	.LVL51
 2644 0be0 C50E0000 		.4byte	0xec5
 2645 0be4 F40B0000 		.4byte	0xbf4
 2646 0be8 19       		.uleb128 0x19
 2647 0be9 01       		.uleb128 0x1
 2648 0bea 51       		.byte	0x51
 2649 0beb 01       		.uleb128 0x1
 2650 0bec 30       		.byte	0x30
 2651 0bed 19       		.uleb128 0x19
 2652 0bee 01       		.uleb128 0x1
 2653 0bef 50       		.byte	0x50
 2654 0bf0 02       		.uleb128 0x2
 2655 0bf1 74       		.byte	0x74
 2656 0bf2 00       		.sleb128 0
 2657 0bf3 00       		.byte	0
 2658 0bf4 18       		.uleb128 0x18
 2659 0bf5 2C000000 		.4byte	.LVL53
 2660 0bf9 2F0E0000 		.4byte	0xe2f
 2661 0bfd 070C0000 		.4byte	0xc07
 2662 0c01 19       		.uleb128 0x19
ARM GAS  /tmp/ccIAyMaf.s 			page 48


 2663 0c02 01       		.uleb128 0x1
 2664 0c03 50       		.byte	0x50
 2665 0c04 01       		.uleb128 0x1
 2666 0c05 31       		.byte	0x31
 2667 0c06 00       		.byte	0
 2668 0c07 18       		.uleb128 0x18
 2669 0c08 54000000 		.4byte	.LVL54
 2670 0c0c 2F0E0000 		.4byte	0xe2f
 2671 0c10 1A0C0000 		.4byte	0xc1a
 2672 0c14 19       		.uleb128 0x19
 2673 0c15 01       		.uleb128 0x1
 2674 0c16 50       		.byte	0x50
 2675 0c17 01       		.uleb128 0x1
 2676 0c18 32       		.byte	0x32
 2677 0c19 00       		.byte	0
 2678 0c1a 1E       		.uleb128 0x1e
 2679 0c1b 70000000 		.4byte	.LVL55
 2680 0c1f 2F0E0000 		.4byte	0xe2f
 2681 0c23 19       		.uleb128 0x19
 2682 0c24 01       		.uleb128 0x1
 2683 0c25 50       		.byte	0x50
 2684 0c26 01       		.uleb128 0x1
 2685 0c27 33       		.byte	0x33
 2686 0c28 00       		.byte	0
 2687 0c29 00       		.byte	0
 2688 0c2a 20       		.uleb128 0x20
 2689 0c2b A3050000 		.4byte	0x5a3
 2690 0c2f 00000000 		.4byte	.LFB15
 2691 0c33 EC000000 		.4byte	.LFE15-.LFB15
 2692 0c37 01       		.uleb128 0x1
 2693 0c38 9C       		.byte	0x9c
 2694 0c39 DE0C0000 		.4byte	0xcde
 2695 0c3d 18       		.uleb128 0x18
 2696 0c3e 34000000 		.4byte	.LVL75
 2697 0c42 B10D0000 		.4byte	0xdb1
 2698 0c46 610C0000 		.4byte	0xc61
 2699 0c4a 19       		.uleb128 0x19
 2700 0c4b 01       		.uleb128 0x1
 2701 0c4c 53       		.byte	0x53
 2702 0c4d 05       		.uleb128 0x5
 2703 0c4e 03       		.byte	0x3
 2704 0c4f 00000000 		.4byte	thread3
 2705 0c53 19       		.uleb128 0x19
 2706 0c54 01       		.uleb128 0x1
 2707 0c55 51       		.byte	0x51
 2708 0c56 03       		.uleb128 0x3
 2709 0c57 0A       		.byte	0xa
 2710 0c58 1801     		.2byte	0x118
 2711 0c5a 19       		.uleb128 0x19
 2712 0c5b 02       		.uleb128 0x2
 2713 0c5c 7D       		.byte	0x7d
 2714 0c5d 00       		.sleb128 0
 2715 0c5e 01       		.uleb128 0x1
 2716 0c5f 30       		.byte	0x30
 2717 0c60 00       		.byte	0
 2718 0c61 18       		.uleb128 0x18
 2719 0c62 4C000000 		.4byte	.LVL76
ARM GAS  /tmp/ccIAyMaf.s 			page 49


 2720 0c66 090F0000 		.4byte	0xf09
 2721 0c6a 7B0C0000 		.4byte	0xc7b
 2722 0c6e 19       		.uleb128 0x19
 2723 0c6f 01       		.uleb128 0x1
 2724 0c70 51       		.byte	0x51
 2725 0c71 02       		.uleb128 0x2
 2726 0c72 74       		.byte	0x74
 2727 0c73 00       		.sleb128 0
 2728 0c74 19       		.uleb128 0x19
 2729 0c75 01       		.uleb128 0x1
 2730 0c76 50       		.byte	0x50
 2731 0c77 02       		.uleb128 0x2
 2732 0c78 74       		.byte	0x74
 2733 0c79 00       		.sleb128 0
 2734 0c7a 00       		.byte	0
 2735 0c7b 18       		.uleb128 0x18
 2736 0c7c 64000000 		.4byte	.LVL77
 2737 0c80 2F0E0000 		.4byte	0xe2f
 2738 0c84 8E0C0000 		.4byte	0xc8e
 2739 0c88 19       		.uleb128 0x19
 2740 0c89 01       		.uleb128 0x1
 2741 0c8a 50       		.byte	0x50
 2742 0c8b 01       		.uleb128 0x1
 2743 0c8c 31       		.byte	0x31
 2744 0c8d 00       		.byte	0
 2745 0c8e 18       		.uleb128 0x18
 2746 0c8f 88000000 		.4byte	.LVL78
 2747 0c93 2F0E0000 		.4byte	0xe2f
 2748 0c97 A10C0000 		.4byte	0xca1
 2749 0c9b 19       		.uleb128 0x19
 2750 0c9c 01       		.uleb128 0x1
 2751 0c9d 50       		.byte	0x50
 2752 0c9e 01       		.uleb128 0x1
 2753 0c9f 32       		.byte	0x32
 2754 0ca0 00       		.byte	0
 2755 0ca1 18       		.uleb128 0x18
 2756 0ca2 9C000000 		.4byte	.LVL79
 2757 0ca6 090F0000 		.4byte	0xf09
 2758 0caa BB0C0000 		.4byte	0xcbb
 2759 0cae 19       		.uleb128 0x19
 2760 0caf 01       		.uleb128 0x1
 2761 0cb0 51       		.byte	0x51
 2762 0cb1 02       		.uleb128 0x2
 2763 0cb2 74       		.byte	0x74
 2764 0cb3 00       		.sleb128 0
 2765 0cb4 19       		.uleb128 0x19
 2766 0cb5 01       		.uleb128 0x1
 2767 0cb6 50       		.byte	0x50
 2768 0cb7 02       		.uleb128 0x2
 2769 0cb8 74       		.byte	0x74
 2770 0cb9 00       		.sleb128 0
 2771 0cba 00       		.byte	0
 2772 0cbb 18       		.uleb128 0x18
 2773 0cbc B4000000 		.4byte	.LVL80
 2774 0cc0 2F0E0000 		.4byte	0xe2f
 2775 0cc4 CE0C0000 		.4byte	0xcce
 2776 0cc8 19       		.uleb128 0x19
ARM GAS  /tmp/ccIAyMaf.s 			page 50


 2777 0cc9 01       		.uleb128 0x1
 2778 0cca 50       		.byte	0x50
 2779 0ccb 01       		.uleb128 0x1
 2780 0ccc 33       		.byte	0x33
 2781 0ccd 00       		.byte	0
 2782 0cce 1B       		.uleb128 0x1b
 2783 0ccf D8000000 		.4byte	.LVL81
 2784 0cd3 2F0E0000 		.4byte	0xe2f
 2785 0cd7 19       		.uleb128 0x19
 2786 0cd8 01       		.uleb128 0x1
 2787 0cd9 50       		.byte	0x50
 2788 0cda 01       		.uleb128 0x1
 2789 0cdb 34       		.byte	0x34
 2790 0cdc 00       		.byte	0
 2791 0cdd 00       		.byte	0
 2792 0cde 24       		.uleb128 0x24
 2793 0cdf 72010000 		.4byte	.LASF98
 2794 0ce3 01       		.byte	0x1
 2795 0ce4 3F       		.byte	0x3f
 2796 0ce5 52040000 		.4byte	0x452
 2797 0ce9 05       		.uleb128 0x5
 2798 0cea 03       		.byte	0x3
 2799 0ceb 00000000 		.4byte	sem1
 2800 0cef 25       		.uleb128 0x25
 2801 0cf0 40000000 		.4byte	.LASF99
 2802 0cf4 09       		.byte	0x9
 2803 0cf5 D1       		.byte	0xd1
 2804 0cf6 C6030000 		.4byte	0x3c6
 2805 0cfa 25       		.uleb128 0x25
 2806 0cfb D9040000 		.4byte	.LASF100
 2807 0cff 0A       		.byte	0xa
 2808 0d00 68       		.byte	0x68
 2809 0d01 22040000 		.4byte	0x422
 2810 0d05 26       		.uleb128 0x26
 2811 0d06 43020000 		.4byte	0x243
 2812 0d0a 150D0000 		.4byte	0xd15
 2813 0d0e 27       		.uleb128 0x27
 2814 0d0f 2C050000 		.4byte	0x52c
 2815 0d13 04       		.byte	0x4
 2816 0d14 00       		.byte	0
 2817 0d15 25       		.uleb128 0x25
 2818 0d16 A2030000 		.4byte	.LASF101
 2819 0d1a 0E       		.byte	0xe
 2820 0d1b A9       		.byte	0xa9
 2821 0d1c 050D0000 		.4byte	0xd05
 2822 0d20 26       		.uleb128 0x26
 2823 0d21 7F020000 		.4byte	0x27f
 2824 0d25 2B0D0000 		.4byte	0xd2b
 2825 0d29 28       		.uleb128 0x28
 2826 0d2a 00       		.byte	0
 2827 0d2b 29       		.uleb128 0x29
 2828 0d2c 776100   		.ascii	"wa\000"
 2829 0d2f 0E       		.byte	0xe
 2830 0d30 AB       		.byte	0xab
 2831 0d31 350D0000 		.4byte	0xd35
 2832 0d35 10       		.uleb128 0x10
 2833 0d36 200D0000 		.4byte	0xd20
ARM GAS  /tmp/ccIAyMaf.s 			page 51


 2834 0d3a 2A       		.uleb128 0x2a
 2835 0d3b B0010000 		.4byte	.LASF102
 2836 0d3f 01       		.byte	0x1
 2837 0d40 72       		.byte	0x72
 2838 0d41 4B0D0000 		.4byte	0xd4b
 2839 0d45 05       		.uleb128 0x5
 2840 0d46 03       		.byte	0x3
 2841 0d47 00000000 		.4byte	testsem1
 2842 0d4b 10       		.uleb128 0x10
 2843 0d4c 33050000 		.4byte	0x533
 2844 0d50 2A       		.uleb128 0x2a
 2845 0d51 B9010000 		.4byte	.LASF103
 2846 0d55 01       		.byte	0x1
 2847 0d56 BC       		.byte	0xbc
 2848 0d57 4B0D0000 		.4byte	0xd4b
 2849 0d5b 05       		.uleb128 0x5
 2850 0d5c 03       		.byte	0x3
 2851 0d5d 00000000 		.4byte	testsem2
 2852 0d61 2A       		.uleb128 0x2a
 2853 0d62 C2010000 		.4byte	.LASF104
 2854 0d66 01       		.byte	0x1
 2855 0d67 E9       		.byte	0xe9
 2856 0d68 4B0D0000 		.4byte	0xd4b
 2857 0d6c 05       		.uleb128 0x5
 2858 0d6d 03       		.byte	0x3
 2859 0d6e 00000000 		.4byte	testsem3
 2860 0d72 2B       		.uleb128 0x2b
 2861 0d73 CB010000 		.4byte	.LASF105
 2862 0d77 01       		.byte	0x1
 2863 0d78 1D01     		.2byte	0x11d
 2864 0d7a 4B0D0000 		.4byte	0xd4b
 2865 0d7e 05       		.uleb128 0x5
 2866 0d7f 03       		.byte	0x3
 2867 0d80 00000000 		.4byte	testsem4
 2868 0d84 26       		.uleb128 0x26
 2869 0d85 940D0000 		.4byte	0xd94
 2870 0d89 940D0000 		.4byte	0xd94
 2871 0d8d 27       		.uleb128 0x27
 2872 0d8e 2C050000 		.4byte	0x52c
 2873 0d92 04       		.byte	0x4
 2874 0d93 00       		.byte	0
 2875 0d94 09       		.uleb128 0x9
 2876 0d95 04       		.byte	0x4
 2877 0d96 4B0D0000 		.4byte	0xd4b
 2878 0d9a 2B       		.uleb128 0x2b
 2879 0d9b 22030000 		.4byte	.LASF106
 2880 0d9f 01       		.byte	0x1
 2881 0da0 2801     		.2byte	0x128
 2882 0da2 AC0D0000 		.4byte	0xdac
 2883 0da6 05       		.uleb128 0x5
 2884 0da7 03       		.byte	0x3
 2885 0da8 00000000 		.4byte	patternsem
 2886 0dac 10       		.uleb128 0x10
 2887 0dad 840D0000 		.4byte	0xd84
 2888 0db1 2C       		.uleb128 0x2c
 2889 0db2 6C020000 		.4byte	.LASF107
 2890 0db6 07       		.byte	0x7
ARM GAS  /tmp/ccIAyMaf.s 			page 52


 2891 0db7 6401     		.2byte	0x164
 2892 0db9 43020000 		.4byte	0x243
 2893 0dbd DB0D0000 		.4byte	0xddb
 2894 0dc1 0C       		.uleb128 0xc
 2895 0dc2 7F020000 		.4byte	0x27f
 2896 0dc6 0C       		.uleb128 0xc
 2897 0dc7 2C000000 		.4byte	0x2c
 2898 0dcb 0C       		.uleb128 0xc
 2899 0dcc EF000000 		.4byte	0xef
 2900 0dd0 0C       		.uleb128 0xc
 2901 0dd1 0C050000 		.4byte	0x50c
 2902 0dd5 0C       		.uleb128 0xc
 2903 0dd6 7F020000 		.4byte	0x27f
 2904 0dda 00       		.byte	0
 2905 0ddb 2D       		.uleb128 0x2d
 2906 0ddc 1E010000 		.4byte	.LASF109
 2907 0de0 0B       		.byte	0xb
 2908 0de1 35       		.byte	0x35
 2909 0de2 EC0D0000 		.4byte	0xdec
 2910 0de6 0C       		.uleb128 0xc
 2911 0de7 EC0D0000 		.4byte	0xdec
 2912 0deb 00       		.byte	0
 2913 0dec 09       		.uleb128 0x9
 2914 0ded 04       		.byte	0x4
 2915 0dee 52040000 		.4byte	0x452
 2916 0df2 2E       		.uleb128 0x2e
 2917 0df3 AF020000 		.4byte	.LASF117
 2918 0df7 0E       		.byte	0xe
 2919 0df8 60       		.byte	0x60
 2920 0df9 2F       		.uleb128 0x2f
 2921 0dfa FA020000 		.4byte	.LASF108
 2922 0dfe 0E       		.byte	0xe
 2923 0dff 5D       		.byte	0x5d
 2924 0e00 B8000000 		.4byte	0xb8
 2925 0e04 130E0000 		.4byte	0xe13
 2926 0e08 0C       		.uleb128 0xc
 2927 0e09 37000000 		.4byte	0x37
 2928 0e0d 0C       		.uleb128 0xc
 2929 0e0e 130E0000 		.4byte	0xe13
 2930 0e12 00       		.byte	0
 2931 0e13 09       		.uleb128 0x9
 2932 0e14 04       		.byte	0x4
 2933 0e15 FF040000 		.4byte	0x4ff
 2934 0e19 2D       		.uleb128 0x2d
 2935 0e1a 67000000 		.4byte	.LASF110
 2936 0e1e 0B       		.byte	0xb
 2937 0e1f 37       		.byte	0x37
 2938 0e20 2F0E0000 		.4byte	0xe2f
 2939 0e24 0C       		.uleb128 0xc
 2940 0e25 EC0D0000 		.4byte	0xdec
 2941 0e29 0C       		.uleb128 0xc
 2942 0e2a 1B010000 		.4byte	0x11b
 2943 0e2e 00       		.byte	0
 2944 0e2f 2F       		.uleb128 0x2f
 2945 0e30 81050000 		.4byte	.LASF111
 2946 0e34 0E       		.byte	0xe
 2947 0e35 5C       		.byte	0x5c
ARM GAS  /tmp/ccIAyMaf.s 			page 53


 2948 0e36 B8000000 		.4byte	0xb8
 2949 0e3a 490E0000 		.4byte	0xe49
 2950 0e3e 0C       		.uleb128 0xc
 2951 0e3f 37000000 		.4byte	0x37
 2952 0e43 0C       		.uleb128 0xc
 2953 0e44 B8000000 		.4byte	0xb8
 2954 0e48 00       		.byte	0
 2955 0e49 2F       		.uleb128 0x2f
 2956 0e4a 45040000 		.4byte	.LASF112
 2957 0e4e 0B       		.byte	0xb
 2958 0e4f 31       		.byte	0x31
 2959 0e50 FA000000 		.4byte	0xfa
 2960 0e54 5E0E0000 		.4byte	0xe5e
 2961 0e58 0C       		.uleb128 0xc
 2962 0e59 EC0D0000 		.4byte	0xdec
 2963 0e5d 00       		.byte	0
 2964 0e5e 2D       		.uleb128 0x2d
 2965 0e5f C0000000 		.4byte	.LASF113
 2966 0e63 0E       		.byte	0xe
 2967 0e64 5A       		.byte	0x5a
 2968 0e65 6F0E0000 		.4byte	0xe6f
 2969 0e69 0C       		.uleb128 0xc
 2970 0e6a FF040000 		.4byte	0x4ff
 2971 0e6e 00       		.byte	0
 2972 0e6f 2D       		.uleb128 0x2d
 2973 0e70 BF050000 		.4byte	.LASF114
 2974 0e74 0B       		.byte	0xb
 2975 0e75 2E       		.byte	0x2e
 2976 0e76 850E0000 		.4byte	0xe85
 2977 0e7a 0C       		.uleb128 0xc
 2978 0e7b EC0D0000 		.4byte	0xdec
 2979 0e7f 0C       		.uleb128 0xc
 2980 0e80 1B010000 		.4byte	0x11b
 2981 0e84 00       		.byte	0
 2982 0e85 30       		.uleb128 0x30
 2983 0e86 BD040000 		.4byte	.LASF115
 2984 0e8a 07       		.byte	0x7
 2985 0e8b 6901     		.2byte	0x169
 2986 0e8d 970E0000 		.4byte	0xe97
 2987 0e91 0C       		.uleb128 0xc
 2988 0e92 10010000 		.4byte	0x110
 2989 0e96 00       		.byte	0
 2990 0e97 2D       		.uleb128 0x2d
 2991 0e98 0E000000 		.4byte	.LASF116
 2992 0e9c 0B       		.byte	0xb
 2993 0e9d 36       		.byte	0x36
 2994 0e9e A80E0000 		.4byte	0xea8
 2995 0ea2 0C       		.uleb128 0xc
 2996 0ea3 EC0D0000 		.4byte	0xdec
 2997 0ea7 00       		.byte	0
 2998 0ea8 2E       		.uleb128 0x2e
 2999 0ea9 3A010000 		.4byte	.LASF118
 3000 0ead 0A       		.byte	0xa
 3001 0eae 95       		.byte	0x95
 3002 0eaf 2D       		.uleb128 0x2d
 3003 0eb0 1E020000 		.4byte	.LASF119
 3004 0eb4 0B       		.byte	0xb
ARM GAS  /tmp/ccIAyMaf.s 			page 54


 3005 0eb5 2F       		.byte	0x2f
 3006 0eb6 C50E0000 		.4byte	0xec5
 3007 0eba 0C       		.uleb128 0xc
 3008 0ebb EC0D0000 		.4byte	0xdec
 3009 0ebf 0C       		.uleb128 0xc
 3010 0ec0 1B010000 		.4byte	0x11b
 3011 0ec4 00       		.byte	0
 3012 0ec5 2F       		.uleb128 0x2f
 3013 0ec6 8A010000 		.4byte	.LASF120
 3014 0eca 0B       		.byte	0xb
 3015 0ecb 33       		.byte	0x33
 3016 0ecc FA000000 		.4byte	0xfa
 3017 0ed0 DF0E0000 		.4byte	0xedf
 3018 0ed4 0C       		.uleb128 0xc
 3019 0ed5 EC0D0000 		.4byte	0xdec
 3020 0ed9 0C       		.uleb128 0xc
 3021 0eda 10010000 		.4byte	0x110
 3022 0ede 00       		.byte	0
 3023 0edf 31       		.uleb128 0x31
 3024 0ee0 62030000 		.4byte	.LASF128
 3025 0ee4 0E       		.byte	0xe
 3026 0ee5 61       		.byte	0x61
 3027 0ee6 10010000 		.4byte	0x110
 3028 0eea 2F       		.uleb128 0x2f
 3029 0eeb 05010000 		.4byte	.LASF121
 3030 0eef 0E       		.byte	0xe
 3031 0ef0 5E       		.byte	0x5e
 3032 0ef1 B8000000 		.4byte	0xb8
 3033 0ef5 090F0000 		.4byte	0xf09
 3034 0ef9 0C       		.uleb128 0xc
 3035 0efa 37000000 		.4byte	0x37
 3036 0efe 0C       		.uleb128 0xc
 3037 0eff 10010000 		.4byte	0x110
 3038 0f03 0C       		.uleb128 0xc
 3039 0f04 10010000 		.4byte	0x110
 3040 0f08 00       		.byte	0
 3041 0f09 32       		.uleb128 0x32
 3042 0f0a 99000000 		.4byte	.LASF122
 3043 0f0e 0B       		.byte	0xb
 3044 0f0f 39       		.byte	0x39
 3045 0f10 FA000000 		.4byte	0xfa
 3046 0f14 0C       		.uleb128 0xc
 3047 0f15 EC0D0000 		.4byte	0xdec
 3048 0f19 0C       		.uleb128 0xc
 3049 0f1a EC0D0000 		.4byte	0xdec
 3050 0f1e 00       		.byte	0
 3051 0f1f 00       		.byte	0
 3052              		.section	.debug_abbrev,"",%progbits
 3053              	.Ldebug_abbrev0:
 3054 0000 01       		.uleb128 0x1
 3055 0001 11       		.uleb128 0x11
 3056 0002 01       		.byte	0x1
 3057 0003 25       		.uleb128 0x25
 3058 0004 0E       		.uleb128 0xe
 3059 0005 13       		.uleb128 0x13
 3060 0006 0B       		.uleb128 0xb
 3061 0007 03       		.uleb128 0x3
ARM GAS  /tmp/ccIAyMaf.s 			page 55


 3062 0008 0E       		.uleb128 0xe
 3063 0009 1B       		.uleb128 0x1b
 3064 000a 0E       		.uleb128 0xe
 3065 000b 55       		.uleb128 0x55
 3066 000c 17       		.uleb128 0x17
 3067 000d 11       		.uleb128 0x11
 3068 000e 01       		.uleb128 0x1
 3069 000f 10       		.uleb128 0x10
 3070 0010 17       		.uleb128 0x17
 3071 0011 00       		.byte	0
 3072 0012 00       		.byte	0
 3073 0013 02       		.uleb128 0x2
 3074 0014 24       		.uleb128 0x24
 3075 0015 00       		.byte	0
 3076 0016 0B       		.uleb128 0xb
 3077 0017 0B       		.uleb128 0xb
 3078 0018 3E       		.uleb128 0x3e
 3079 0019 0B       		.uleb128 0xb
 3080 001a 03       		.uleb128 0x3
 3081 001b 08       		.uleb128 0x8
 3082 001c 00       		.byte	0
 3083 001d 00       		.byte	0
 3084 001e 03       		.uleb128 0x3
 3085 001f 16       		.uleb128 0x16
 3086 0020 00       		.byte	0
 3087 0021 03       		.uleb128 0x3
 3088 0022 0E       		.uleb128 0xe
 3089 0023 3A       		.uleb128 0x3a
 3090 0024 0B       		.uleb128 0xb
 3091 0025 3B       		.uleb128 0x3b
 3092 0026 0B       		.uleb128 0xb
 3093 0027 49       		.uleb128 0x49
 3094 0028 13       		.uleb128 0x13
 3095 0029 00       		.byte	0
 3096 002a 00       		.byte	0
 3097 002b 04       		.uleb128 0x4
 3098 002c 24       		.uleb128 0x24
 3099 002d 00       		.byte	0
 3100 002e 0B       		.uleb128 0xb
 3101 002f 0B       		.uleb128 0xb
 3102 0030 3E       		.uleb128 0x3e
 3103 0031 0B       		.uleb128 0xb
 3104 0032 03       		.uleb128 0x3
 3105 0033 0E       		.uleb128 0xe
 3106 0034 00       		.byte	0
 3107 0035 00       		.byte	0
 3108 0036 05       		.uleb128 0x5
 3109 0037 13       		.uleb128 0x13
 3110 0038 01       		.byte	0x1
 3111 0039 03       		.uleb128 0x3
 3112 003a 0E       		.uleb128 0xe
 3113 003b 0B       		.uleb128 0xb
 3114 003c 0B       		.uleb128 0xb
 3115 003d 3A       		.uleb128 0x3a
 3116 003e 0B       		.uleb128 0xb
 3117 003f 3B       		.uleb128 0x3b
 3118 0040 0B       		.uleb128 0xb
ARM GAS  /tmp/ccIAyMaf.s 			page 56


 3119 0041 01       		.uleb128 0x1
 3120 0042 13       		.uleb128 0x13
 3121 0043 00       		.byte	0
 3122 0044 00       		.byte	0
 3123 0045 06       		.uleb128 0x6
 3124 0046 0D       		.uleb128 0xd
 3125 0047 00       		.byte	0
 3126 0048 03       		.uleb128 0x3
 3127 0049 0E       		.uleb128 0xe
 3128 004a 3A       		.uleb128 0x3a
 3129 004b 0B       		.uleb128 0xb
 3130 004c 3B       		.uleb128 0x3b
 3131 004d 0B       		.uleb128 0xb
 3132 004e 49       		.uleb128 0x49
 3133 004f 13       		.uleb128 0x13
 3134 0050 38       		.uleb128 0x38
 3135 0051 0B       		.uleb128 0xb
 3136 0052 00       		.byte	0
 3137 0053 00       		.byte	0
 3138 0054 07       		.uleb128 0x7
 3139 0055 0D       		.uleb128 0xd
 3140 0056 00       		.byte	0
 3141 0057 03       		.uleb128 0x3
 3142 0058 08       		.uleb128 0x8
 3143 0059 3A       		.uleb128 0x3a
 3144 005a 0B       		.uleb128 0xb
 3145 005b 3B       		.uleb128 0x3b
 3146 005c 0B       		.uleb128 0xb
 3147 005d 49       		.uleb128 0x49
 3148 005e 13       		.uleb128 0x13
 3149 005f 38       		.uleb128 0x38
 3150 0060 0B       		.uleb128 0xb
 3151 0061 00       		.byte	0
 3152 0062 00       		.byte	0
 3153 0063 08       		.uleb128 0x8
 3154 0064 13       		.uleb128 0x13
 3155 0065 01       		.byte	0x1
 3156 0066 0B       		.uleb128 0xb
 3157 0067 0B       		.uleb128 0xb
 3158 0068 3A       		.uleb128 0x3a
 3159 0069 0B       		.uleb128 0xb
 3160 006a 3B       		.uleb128 0x3b
 3161 006b 0B       		.uleb128 0xb
 3162 006c 01       		.uleb128 0x1
 3163 006d 13       		.uleb128 0x13
 3164 006e 00       		.byte	0
 3165 006f 00       		.byte	0
 3166 0070 09       		.uleb128 0x9
 3167 0071 0F       		.uleb128 0xf
 3168 0072 00       		.byte	0
 3169 0073 0B       		.uleb128 0xb
 3170 0074 0B       		.uleb128 0xb
 3171 0075 49       		.uleb128 0x49
 3172 0076 13       		.uleb128 0x13
 3173 0077 00       		.byte	0
 3174 0078 00       		.byte	0
 3175 0079 0A       		.uleb128 0xa
ARM GAS  /tmp/ccIAyMaf.s 			page 57


 3176 007a 0F       		.uleb128 0xf
 3177 007b 00       		.byte	0
 3178 007c 0B       		.uleb128 0xb
 3179 007d 0B       		.uleb128 0xb
 3180 007e 00       		.byte	0
 3181 007f 00       		.byte	0
 3182 0080 0B       		.uleb128 0xb
 3183 0081 15       		.uleb128 0x15
 3184 0082 01       		.byte	0x1
 3185 0083 27       		.uleb128 0x27
 3186 0084 19       		.uleb128 0x19
 3187 0085 01       		.uleb128 0x1
 3188 0086 13       		.uleb128 0x13
 3189 0087 00       		.byte	0
 3190 0088 00       		.byte	0
 3191 0089 0C       		.uleb128 0xc
 3192 008a 05       		.uleb128 0x5
 3193 008b 00       		.byte	0
 3194 008c 49       		.uleb128 0x49
 3195 008d 13       		.uleb128 0x13
 3196 008e 00       		.byte	0
 3197 008f 00       		.byte	0
 3198 0090 0D       		.uleb128 0xd
 3199 0091 35       		.uleb128 0x35
 3200 0092 00       		.byte	0
 3201 0093 49       		.uleb128 0x49
 3202 0094 13       		.uleb128 0x13
 3203 0095 00       		.byte	0
 3204 0096 00       		.byte	0
 3205 0097 0E       		.uleb128 0xe
 3206 0098 17       		.uleb128 0x17
 3207 0099 01       		.byte	0x1
 3208 009a 0B       		.uleb128 0xb
 3209 009b 0B       		.uleb128 0xb
 3210 009c 3A       		.uleb128 0x3a
 3211 009d 0B       		.uleb128 0xb
 3212 009e 3B       		.uleb128 0x3b
 3213 009f 0B       		.uleb128 0xb
 3214 00a0 01       		.uleb128 0x1
 3215 00a1 13       		.uleb128 0x13
 3216 00a2 00       		.byte	0
 3217 00a3 00       		.byte	0
 3218 00a4 0F       		.uleb128 0xf
 3219 00a5 0D       		.uleb128 0xd
 3220 00a6 00       		.byte	0
 3221 00a7 03       		.uleb128 0x3
 3222 00a8 0E       		.uleb128 0xe
 3223 00a9 3A       		.uleb128 0x3a
 3224 00aa 0B       		.uleb128 0xb
 3225 00ab 3B       		.uleb128 0x3b
 3226 00ac 0B       		.uleb128 0xb
 3227 00ad 49       		.uleb128 0x49
 3228 00ae 13       		.uleb128 0x13
 3229 00af 00       		.byte	0
 3230 00b0 00       		.byte	0
 3231 00b1 10       		.uleb128 0x10
 3232 00b2 26       		.uleb128 0x26
ARM GAS  /tmp/ccIAyMaf.s 			page 58


 3233 00b3 00       		.byte	0
 3234 00b4 49       		.uleb128 0x49
 3235 00b5 13       		.uleb128 0x13
 3236 00b6 00       		.byte	0
 3237 00b7 00       		.byte	0
 3238 00b8 11       		.uleb128 0x11
 3239 00b9 15       		.uleb128 0x15
 3240 00ba 01       		.byte	0x1
 3241 00bb 27       		.uleb128 0x27
 3242 00bc 19       		.uleb128 0x19
 3243 00bd 49       		.uleb128 0x49
 3244 00be 13       		.uleb128 0x13
 3245 00bf 01       		.uleb128 0x1
 3246 00c0 13       		.uleb128 0x13
 3247 00c1 00       		.byte	0
 3248 00c2 00       		.byte	0
 3249 00c3 12       		.uleb128 0x12
 3250 00c4 15       		.uleb128 0x15
 3251 00c5 00       		.byte	0
 3252 00c6 27       		.uleb128 0x27
 3253 00c7 19       		.uleb128 0x19
 3254 00c8 00       		.byte	0
 3255 00c9 00       		.byte	0
 3256 00ca 13       		.uleb128 0x13
 3257 00cb 2E       		.uleb128 0x2e
 3258 00cc 01       		.byte	0x1
 3259 00cd 03       		.uleb128 0x3
 3260 00ce 0E       		.uleb128 0xe
 3261 00cf 3A       		.uleb128 0x3a
 3262 00d0 0B       		.uleb128 0xb
 3263 00d1 3B       		.uleb128 0x3b
 3264 00d2 0B       		.uleb128 0xb
 3265 00d3 27       		.uleb128 0x27
 3266 00d4 19       		.uleb128 0x19
 3267 00d5 20       		.uleb128 0x20
 3268 00d6 0B       		.uleb128 0xb
 3269 00d7 01       		.uleb128 0x1
 3270 00d8 13       		.uleb128 0x13
 3271 00d9 00       		.byte	0
 3272 00da 00       		.byte	0
 3273 00db 14       		.uleb128 0x14
 3274 00dc 34       		.uleb128 0x34
 3275 00dd 00       		.byte	0
 3276 00de 03       		.uleb128 0x3
 3277 00df 08       		.uleb128 0x8
 3278 00e0 3A       		.uleb128 0x3a
 3279 00e1 0B       		.uleb128 0xb
 3280 00e2 3B       		.uleb128 0x3b
 3281 00e3 0B       		.uleb128 0xb
 3282 00e4 49       		.uleb128 0x49
 3283 00e5 13       		.uleb128 0x13
 3284 00e6 00       		.byte	0
 3285 00e7 00       		.byte	0
 3286 00e8 15       		.uleb128 0x15
 3287 00e9 34       		.uleb128 0x34
 3288 00ea 00       		.byte	0
 3289 00eb 03       		.uleb128 0x3
ARM GAS  /tmp/ccIAyMaf.s 			page 59


 3290 00ec 0E       		.uleb128 0xe
 3291 00ed 3A       		.uleb128 0x3a
 3292 00ee 0B       		.uleb128 0xb
 3293 00ef 3B       		.uleb128 0x3b
 3294 00f0 0B       		.uleb128 0xb
 3295 00f1 49       		.uleb128 0x49
 3296 00f2 13       		.uleb128 0x13
 3297 00f3 00       		.byte	0
 3298 00f4 00       		.byte	0
 3299 00f5 16       		.uleb128 0x16
 3300 00f6 2E       		.uleb128 0x2e
 3301 00f7 00       		.byte	0
 3302 00f8 03       		.uleb128 0x3
 3303 00f9 0E       		.uleb128 0xe
 3304 00fa 3A       		.uleb128 0x3a
 3305 00fb 0B       		.uleb128 0xb
 3306 00fc 3B       		.uleb128 0x3b
 3307 00fd 0B       		.uleb128 0xb
 3308 00fe 27       		.uleb128 0x27
 3309 00ff 19       		.uleb128 0x19
 3310 0100 20       		.uleb128 0x20
 3311 0101 0B       		.uleb128 0xb
 3312 0102 00       		.byte	0
 3313 0103 00       		.byte	0
 3314 0104 17       		.uleb128 0x17
 3315 0105 2E       		.uleb128 0x2e
 3316 0106 01       		.byte	0x1
 3317 0107 03       		.uleb128 0x3
 3318 0108 0E       		.uleb128 0xe
 3319 0109 3A       		.uleb128 0x3a
 3320 010a 0B       		.uleb128 0xb
 3321 010b 3B       		.uleb128 0x3b
 3322 010c 0B       		.uleb128 0xb
 3323 010d 27       		.uleb128 0x27
 3324 010e 19       		.uleb128 0x19
 3325 010f 11       		.uleb128 0x11
 3326 0110 01       		.uleb128 0x1
 3327 0111 12       		.uleb128 0x12
 3328 0112 06       		.uleb128 0x6
 3329 0113 40       		.uleb128 0x40
 3330 0114 18       		.uleb128 0x18
 3331 0115 9742     		.uleb128 0x2117
 3332 0117 19       		.uleb128 0x19
 3333 0118 01       		.uleb128 0x1
 3334 0119 13       		.uleb128 0x13
 3335 011a 00       		.byte	0
 3336 011b 00       		.byte	0
 3337 011c 18       		.uleb128 0x18
 3338 011d 898201   		.uleb128 0x4109
 3339 0120 01       		.byte	0x1
 3340 0121 11       		.uleb128 0x11
 3341 0122 01       		.uleb128 0x1
 3342 0123 31       		.uleb128 0x31
 3343 0124 13       		.uleb128 0x13
 3344 0125 01       		.uleb128 0x1
 3345 0126 13       		.uleb128 0x13
 3346 0127 00       		.byte	0
ARM GAS  /tmp/ccIAyMaf.s 			page 60


 3347 0128 00       		.byte	0
 3348 0129 19       		.uleb128 0x19
 3349 012a 8A8201   		.uleb128 0x410a
 3350 012d 00       		.byte	0
 3351 012e 02       		.uleb128 0x2
 3352 012f 18       		.uleb128 0x18
 3353 0130 9142     		.uleb128 0x2111
 3354 0132 18       		.uleb128 0x18
 3355 0133 00       		.byte	0
 3356 0134 00       		.byte	0
 3357 0135 1A       		.uleb128 0x1a
 3358 0136 898201   		.uleb128 0x4109
 3359 0139 00       		.byte	0
 3360 013a 11       		.uleb128 0x11
 3361 013b 01       		.uleb128 0x1
 3362 013c 31       		.uleb128 0x31
 3363 013d 13       		.uleb128 0x13
 3364 013e 00       		.byte	0
 3365 013f 00       		.byte	0
 3366 0140 1B       		.uleb128 0x1b
 3367 0141 898201   		.uleb128 0x4109
 3368 0144 01       		.byte	0x1
 3369 0145 11       		.uleb128 0x11
 3370 0146 01       		.uleb128 0x1
 3371 0147 9542     		.uleb128 0x2115
 3372 0149 19       		.uleb128 0x19
 3373 014a 31       		.uleb128 0x31
 3374 014b 13       		.uleb128 0x13
 3375 014c 00       		.byte	0
 3376 014d 00       		.byte	0
 3377 014e 1C       		.uleb128 0x1c
 3378 014f 2E       		.uleb128 0x2e
 3379 0150 01       		.byte	0x1
 3380 0151 03       		.uleb128 0x3
 3381 0152 0E       		.uleb128 0xe
 3382 0153 3A       		.uleb128 0x3a
 3383 0154 0B       		.uleb128 0xb
 3384 0155 3B       		.uleb128 0x3b
 3385 0156 0B       		.uleb128 0xb
 3386 0157 27       		.uleb128 0x27
 3387 0158 19       		.uleb128 0x19
 3388 0159 49       		.uleb128 0x49
 3389 015a 13       		.uleb128 0x13
 3390 015b 11       		.uleb128 0x11
 3391 015c 01       		.uleb128 0x1
 3392 015d 12       		.uleb128 0x12
 3393 015e 06       		.uleb128 0x6
 3394 015f 40       		.uleb128 0x40
 3395 0160 18       		.uleb128 0x18
 3396 0161 9742     		.uleb128 0x2117
 3397 0163 19       		.uleb128 0x19
 3398 0164 01       		.uleb128 0x1
 3399 0165 13       		.uleb128 0x13
 3400 0166 00       		.byte	0
 3401 0167 00       		.byte	0
 3402 0168 1D       		.uleb128 0x1d
 3403 0169 05       		.uleb128 0x5
ARM GAS  /tmp/ccIAyMaf.s 			page 61


 3404 016a 00       		.byte	0
 3405 016b 03       		.uleb128 0x3
 3406 016c 08       		.uleb128 0x8
 3407 016d 3A       		.uleb128 0x3a
 3408 016e 0B       		.uleb128 0xb
 3409 016f 3B       		.uleb128 0x3b
 3410 0170 0B       		.uleb128 0xb
 3411 0171 49       		.uleb128 0x49
 3412 0172 13       		.uleb128 0x13
 3413 0173 02       		.uleb128 0x2
 3414 0174 17       		.uleb128 0x17
 3415 0175 00       		.byte	0
 3416 0176 00       		.byte	0
 3417 0177 1E       		.uleb128 0x1e
 3418 0178 898201   		.uleb128 0x4109
 3419 017b 01       		.byte	0x1
 3420 017c 11       		.uleb128 0x11
 3421 017d 01       		.uleb128 0x1
 3422 017e 31       		.uleb128 0x31
 3423 017f 13       		.uleb128 0x13
 3424 0180 00       		.byte	0
 3425 0181 00       		.byte	0
 3426 0182 1F       		.uleb128 0x1f
 3427 0183 34       		.uleb128 0x34
 3428 0184 00       		.byte	0
 3429 0185 03       		.uleb128 0x3
 3430 0186 0E       		.uleb128 0xe
 3431 0187 3A       		.uleb128 0x3a
 3432 0188 0B       		.uleb128 0xb
 3433 0189 3B       		.uleb128 0x3b
 3434 018a 05       		.uleb128 0x5
 3435 018b 49       		.uleb128 0x49
 3436 018c 13       		.uleb128 0x13
 3437 018d 02       		.uleb128 0x2
 3438 018e 18       		.uleb128 0x18
 3439 018f 00       		.byte	0
 3440 0190 00       		.byte	0
 3441 0191 20       		.uleb128 0x20
 3442 0192 2E       		.uleb128 0x2e
 3443 0193 01       		.byte	0x1
 3444 0194 31       		.uleb128 0x31
 3445 0195 13       		.uleb128 0x13
 3446 0196 11       		.uleb128 0x11
 3447 0197 01       		.uleb128 0x1
 3448 0198 12       		.uleb128 0x12
 3449 0199 06       		.uleb128 0x6
 3450 019a 40       		.uleb128 0x40
 3451 019b 18       		.uleb128 0x18
 3452 019c 9742     		.uleb128 0x2117
 3453 019e 19       		.uleb128 0x19
 3454 019f 01       		.uleb128 0x1
 3455 01a0 13       		.uleb128 0x13
 3456 01a1 00       		.byte	0
 3457 01a2 00       		.byte	0
 3458 01a3 21       		.uleb128 0x21
 3459 01a4 34       		.uleb128 0x34
 3460 01a5 00       		.byte	0
ARM GAS  /tmp/ccIAyMaf.s 			page 62


 3461 01a6 31       		.uleb128 0x31
 3462 01a7 13       		.uleb128 0x13
 3463 01a8 00       		.byte	0
 3464 01a9 00       		.byte	0
 3465 01aa 22       		.uleb128 0x22
 3466 01ab 34       		.uleb128 0x34
 3467 01ac 00       		.byte	0
 3468 01ad 31       		.uleb128 0x31
 3469 01ae 13       		.uleb128 0x13
 3470 01af 02       		.uleb128 0x2
 3471 01b0 17       		.uleb128 0x17
 3472 01b1 00       		.byte	0
 3473 01b2 00       		.byte	0
 3474 01b3 23       		.uleb128 0x23
 3475 01b4 0B       		.uleb128 0xb
 3476 01b5 01       		.byte	0x1
 3477 01b6 55       		.uleb128 0x55
 3478 01b7 17       		.uleb128 0x17
 3479 01b8 01       		.uleb128 0x1
 3480 01b9 13       		.uleb128 0x13
 3481 01ba 00       		.byte	0
 3482 01bb 00       		.byte	0
 3483 01bc 24       		.uleb128 0x24
 3484 01bd 34       		.uleb128 0x34
 3485 01be 00       		.byte	0
 3486 01bf 03       		.uleb128 0x3
 3487 01c0 0E       		.uleb128 0xe
 3488 01c1 3A       		.uleb128 0x3a
 3489 01c2 0B       		.uleb128 0xb
 3490 01c3 3B       		.uleb128 0x3b
 3491 01c4 0B       		.uleb128 0xb
 3492 01c5 49       		.uleb128 0x49
 3493 01c6 13       		.uleb128 0x13
 3494 01c7 02       		.uleb128 0x2
 3495 01c8 18       		.uleb128 0x18
 3496 01c9 00       		.byte	0
 3497 01ca 00       		.byte	0
 3498 01cb 25       		.uleb128 0x25
 3499 01cc 34       		.uleb128 0x34
 3500 01cd 00       		.byte	0
 3501 01ce 03       		.uleb128 0x3
 3502 01cf 0E       		.uleb128 0xe
 3503 01d0 3A       		.uleb128 0x3a
 3504 01d1 0B       		.uleb128 0xb
 3505 01d2 3B       		.uleb128 0x3b
 3506 01d3 0B       		.uleb128 0xb
 3507 01d4 49       		.uleb128 0x49
 3508 01d5 13       		.uleb128 0x13
 3509 01d6 3F       		.uleb128 0x3f
 3510 01d7 19       		.uleb128 0x19
 3511 01d8 3C       		.uleb128 0x3c
 3512 01d9 19       		.uleb128 0x19
 3513 01da 00       		.byte	0
 3514 01db 00       		.byte	0
 3515 01dc 26       		.uleb128 0x26
 3516 01dd 01       		.uleb128 0x1
 3517 01de 01       		.byte	0x1
ARM GAS  /tmp/ccIAyMaf.s 			page 63


 3518 01df 49       		.uleb128 0x49
 3519 01e0 13       		.uleb128 0x13
 3520 01e1 01       		.uleb128 0x1
 3521 01e2 13       		.uleb128 0x13
 3522 01e3 00       		.byte	0
 3523 01e4 00       		.byte	0
 3524 01e5 27       		.uleb128 0x27
 3525 01e6 21       		.uleb128 0x21
 3526 01e7 00       		.byte	0
 3527 01e8 49       		.uleb128 0x49
 3528 01e9 13       		.uleb128 0x13
 3529 01ea 2F       		.uleb128 0x2f
 3530 01eb 0B       		.uleb128 0xb
 3531 01ec 00       		.byte	0
 3532 01ed 00       		.byte	0
 3533 01ee 28       		.uleb128 0x28
 3534 01ef 21       		.uleb128 0x21
 3535 01f0 00       		.byte	0
 3536 01f1 00       		.byte	0
 3537 01f2 00       		.byte	0
 3538 01f3 29       		.uleb128 0x29
 3539 01f4 34       		.uleb128 0x34
 3540 01f5 00       		.byte	0
 3541 01f6 03       		.uleb128 0x3
 3542 01f7 08       		.uleb128 0x8
 3543 01f8 3A       		.uleb128 0x3a
 3544 01f9 0B       		.uleb128 0xb
 3545 01fa 3B       		.uleb128 0x3b
 3546 01fb 0B       		.uleb128 0xb
 3547 01fc 49       		.uleb128 0x49
 3548 01fd 13       		.uleb128 0x13
 3549 01fe 3F       		.uleb128 0x3f
 3550 01ff 19       		.uleb128 0x19
 3551 0200 3C       		.uleb128 0x3c
 3552 0201 19       		.uleb128 0x19
 3553 0202 00       		.byte	0
 3554 0203 00       		.byte	0
 3555 0204 2A       		.uleb128 0x2a
 3556 0205 34       		.uleb128 0x34
 3557 0206 00       		.byte	0
 3558 0207 03       		.uleb128 0x3
 3559 0208 0E       		.uleb128 0xe
 3560 0209 3A       		.uleb128 0x3a
 3561 020a 0B       		.uleb128 0xb
 3562 020b 3B       		.uleb128 0x3b
 3563 020c 0B       		.uleb128 0xb
 3564 020d 49       		.uleb128 0x49
 3565 020e 13       		.uleb128 0x13
 3566 020f 3F       		.uleb128 0x3f
 3567 0210 19       		.uleb128 0x19
 3568 0211 02       		.uleb128 0x2
 3569 0212 18       		.uleb128 0x18
 3570 0213 00       		.byte	0
 3571 0214 00       		.byte	0
 3572 0215 2B       		.uleb128 0x2b
 3573 0216 34       		.uleb128 0x34
 3574 0217 00       		.byte	0
ARM GAS  /tmp/ccIAyMaf.s 			page 64


 3575 0218 03       		.uleb128 0x3
 3576 0219 0E       		.uleb128 0xe
 3577 021a 3A       		.uleb128 0x3a
 3578 021b 0B       		.uleb128 0xb
 3579 021c 3B       		.uleb128 0x3b
 3580 021d 05       		.uleb128 0x5
 3581 021e 49       		.uleb128 0x49
 3582 021f 13       		.uleb128 0x13
 3583 0220 3F       		.uleb128 0x3f
 3584 0221 19       		.uleb128 0x19
 3585 0222 02       		.uleb128 0x2
 3586 0223 18       		.uleb128 0x18
 3587 0224 00       		.byte	0
 3588 0225 00       		.byte	0
 3589 0226 2C       		.uleb128 0x2c
 3590 0227 2E       		.uleb128 0x2e
 3591 0228 01       		.byte	0x1
 3592 0229 3F       		.uleb128 0x3f
 3593 022a 19       		.uleb128 0x19
 3594 022b 03       		.uleb128 0x3
 3595 022c 0E       		.uleb128 0xe
 3596 022d 3A       		.uleb128 0x3a
 3597 022e 0B       		.uleb128 0xb
 3598 022f 3B       		.uleb128 0x3b
 3599 0230 05       		.uleb128 0x5
 3600 0231 27       		.uleb128 0x27
 3601 0232 19       		.uleb128 0x19
 3602 0233 49       		.uleb128 0x49
 3603 0234 13       		.uleb128 0x13
 3604 0235 3C       		.uleb128 0x3c
 3605 0236 19       		.uleb128 0x19
 3606 0237 01       		.uleb128 0x1
 3607 0238 13       		.uleb128 0x13
 3608 0239 00       		.byte	0
 3609 023a 00       		.byte	0
 3610 023b 2D       		.uleb128 0x2d
 3611 023c 2E       		.uleb128 0x2e
 3612 023d 01       		.byte	0x1
 3613 023e 3F       		.uleb128 0x3f
 3614 023f 19       		.uleb128 0x19
 3615 0240 03       		.uleb128 0x3
 3616 0241 0E       		.uleb128 0xe
 3617 0242 3A       		.uleb128 0x3a
 3618 0243 0B       		.uleb128 0xb
 3619 0244 3B       		.uleb128 0x3b
 3620 0245 0B       		.uleb128 0xb
 3621 0246 27       		.uleb128 0x27
 3622 0247 19       		.uleb128 0x19
 3623 0248 3C       		.uleb128 0x3c
 3624 0249 19       		.uleb128 0x19
 3625 024a 01       		.uleb128 0x1
 3626 024b 13       		.uleb128 0x13
 3627 024c 00       		.byte	0
 3628 024d 00       		.byte	0
 3629 024e 2E       		.uleb128 0x2e
 3630 024f 2E       		.uleb128 0x2e
 3631 0250 00       		.byte	0
ARM GAS  /tmp/ccIAyMaf.s 			page 65


 3632 0251 3F       		.uleb128 0x3f
 3633 0252 19       		.uleb128 0x19
 3634 0253 03       		.uleb128 0x3
 3635 0254 0E       		.uleb128 0xe
 3636 0255 3A       		.uleb128 0x3a
 3637 0256 0B       		.uleb128 0xb
 3638 0257 3B       		.uleb128 0x3b
 3639 0258 0B       		.uleb128 0xb
 3640 0259 27       		.uleb128 0x27
 3641 025a 19       		.uleb128 0x19
 3642 025b 3C       		.uleb128 0x3c
 3643 025c 19       		.uleb128 0x19
 3644 025d 00       		.byte	0
 3645 025e 00       		.byte	0
 3646 025f 2F       		.uleb128 0x2f
 3647 0260 2E       		.uleb128 0x2e
 3648 0261 01       		.byte	0x1
 3649 0262 3F       		.uleb128 0x3f
 3650 0263 19       		.uleb128 0x19
 3651 0264 03       		.uleb128 0x3
 3652 0265 0E       		.uleb128 0xe
 3653 0266 3A       		.uleb128 0x3a
 3654 0267 0B       		.uleb128 0xb
 3655 0268 3B       		.uleb128 0x3b
 3656 0269 0B       		.uleb128 0xb
 3657 026a 27       		.uleb128 0x27
 3658 026b 19       		.uleb128 0x19
 3659 026c 49       		.uleb128 0x49
 3660 026d 13       		.uleb128 0x13
 3661 026e 3C       		.uleb128 0x3c
 3662 026f 19       		.uleb128 0x19
 3663 0270 01       		.uleb128 0x1
 3664 0271 13       		.uleb128 0x13
 3665 0272 00       		.byte	0
 3666 0273 00       		.byte	0
 3667 0274 30       		.uleb128 0x30
 3668 0275 2E       		.uleb128 0x2e
 3669 0276 01       		.byte	0x1
 3670 0277 3F       		.uleb128 0x3f
 3671 0278 19       		.uleb128 0x19
 3672 0279 03       		.uleb128 0x3
 3673 027a 0E       		.uleb128 0xe
 3674 027b 3A       		.uleb128 0x3a
 3675 027c 0B       		.uleb128 0xb
 3676 027d 3B       		.uleb128 0x3b
 3677 027e 05       		.uleb128 0x5
 3678 027f 27       		.uleb128 0x27
 3679 0280 19       		.uleb128 0x19
 3680 0281 3C       		.uleb128 0x3c
 3681 0282 19       		.uleb128 0x19
 3682 0283 01       		.uleb128 0x1
 3683 0284 13       		.uleb128 0x13
 3684 0285 00       		.byte	0
 3685 0286 00       		.byte	0
 3686 0287 31       		.uleb128 0x31
 3687 0288 2E       		.uleb128 0x2e
 3688 0289 00       		.byte	0
ARM GAS  /tmp/ccIAyMaf.s 			page 66


 3689 028a 3F       		.uleb128 0x3f
 3690 028b 19       		.uleb128 0x19
 3691 028c 03       		.uleb128 0x3
 3692 028d 0E       		.uleb128 0xe
 3693 028e 3A       		.uleb128 0x3a
 3694 028f 0B       		.uleb128 0xb
 3695 0290 3B       		.uleb128 0x3b
 3696 0291 0B       		.uleb128 0xb
 3697 0292 27       		.uleb128 0x27
 3698 0293 19       		.uleb128 0x19
 3699 0294 49       		.uleb128 0x49
 3700 0295 13       		.uleb128 0x13
 3701 0296 3C       		.uleb128 0x3c
 3702 0297 19       		.uleb128 0x19
 3703 0298 00       		.byte	0
 3704 0299 00       		.byte	0
 3705 029a 32       		.uleb128 0x32
 3706 029b 2E       		.uleb128 0x2e
 3707 029c 01       		.byte	0x1
 3708 029d 3F       		.uleb128 0x3f
 3709 029e 19       		.uleb128 0x19
 3710 029f 03       		.uleb128 0x3
 3711 02a0 0E       		.uleb128 0xe
 3712 02a1 3A       		.uleb128 0x3a
 3713 02a2 0B       		.uleb128 0xb
 3714 02a3 3B       		.uleb128 0x3b
 3715 02a4 0B       		.uleb128 0xb
 3716 02a5 27       		.uleb128 0x27
 3717 02a6 19       		.uleb128 0x19
 3718 02a7 49       		.uleb128 0x49
 3719 02a8 13       		.uleb128 0x13
 3720 02a9 3C       		.uleb128 0x3c
 3721 02aa 19       		.uleb128 0x19
 3722 02ab 00       		.byte	0
 3723 02ac 00       		.byte	0
 3724 02ad 00       		.byte	0
 3725              		.section	.debug_loc,"",%progbits
 3726              	.Ldebug_loc0:
 3727              	.LLST0:
 3728 0000 00000000 		.4byte	.LVL16
 3729 0004 0C000000 		.4byte	.LVL17
 3730 0008 0100     		.2byte	0x1
 3731 000a 50       		.byte	0x50
 3732 000b 0C000000 		.4byte	.LVL17
 3733 000f 24000000 		.4byte	.LFE14
 3734 0013 0400     		.2byte	0x4
 3735 0015 F3       		.byte	0xf3
 3736 0016 01       		.uleb128 0x1
 3737 0017 50       		.byte	0x50
 3738 0018 9F       		.byte	0x9f
 3739 0019 00000000 		.4byte	0
 3740 001d 00000000 		.4byte	0
 3741              	.LLST1:
 3742 0021 00000000 		.4byte	.LVL20
 3743 0025 0C000000 		.4byte	.LVL21
 3744 0029 0100     		.2byte	0x1
 3745 002b 50       		.byte	0x50
ARM GAS  /tmp/ccIAyMaf.s 			page 67


 3746 002c 0C000000 		.4byte	.LVL21
 3747 0030 24000000 		.4byte	.LFE8
 3748 0034 0100     		.2byte	0x1
 3749 0036 54       		.byte	0x54
 3750 0037 00000000 		.4byte	0
 3751 003b 00000000 		.4byte	0
 3752              	.LLST2:
 3753 003f 00000000 		.4byte	.LVL27
 3754 0043 08000000 		.4byte	.LVL28
 3755 0047 0100     		.2byte	0x1
 3756 0049 50       		.byte	0x50
 3757 004a 08000000 		.4byte	.LVL28
 3758 004e 2C000000 		.4byte	.LFE11
 3759 0052 0400     		.2byte	0x4
 3760 0054 F3       		.byte	0xf3
 3761 0055 01       		.uleb128 0x1
 3762 0056 50       		.byte	0x50
 3763 0057 9F       		.byte	0x9f
 3764 0058 00000000 		.4byte	0
 3765 005c 00000000 		.4byte	0
 3766              	.LLST3:
 3767 0060 00000000 		.4byte	.LVL32
 3768 0064 14000000 		.4byte	.LVL33
 3769 0068 0100     		.2byte	0x1
 3770 006a 50       		.byte	0x50
 3771 006b 14000000 		.4byte	.LVL33
 3772 006f 24000000 		.4byte	.LVL35
 3773 0073 0400     		.2byte	0x4
 3774 0075 F3       		.byte	0xf3
 3775 0076 01       		.uleb128 0x1
 3776 0077 50       		.byte	0x50
 3777 0078 9F       		.byte	0x9f
 3778 0079 24000000 		.4byte	.LVL35
 3779 007d 27000000 		.4byte	.LVL36-1
 3780 0081 0100     		.2byte	0x1
 3781 0083 50       		.byte	0x50
 3782 0084 27000000 		.4byte	.LVL36-1
 3783 0088 2C000000 		.4byte	.LFE16
 3784 008c 0400     		.2byte	0x4
 3785 008e F3       		.byte	0xf3
 3786 008f 01       		.uleb128 0x1
 3787 0090 50       		.byte	0x50
 3788 0091 9F       		.byte	0x9f
 3789 0092 00000000 		.4byte	0
 3790 0096 00000000 		.4byte	0
 3791              	.LLST4:
 3792 009a 18000000 		.4byte	.LVL51
 3793 009e 28000000 		.4byte	.LVL52
 3794 00a2 0100     		.2byte	0x1
 3795 00a4 50       		.byte	0x50
 3796 00a5 00000000 		.4byte	0
 3797 00a9 00000000 		.4byte	0
 3798              	.LLST5:
 3799 00ad 20010000 		.4byte	.LVL65
 3800 00b1 C8010000 		.4byte	.LVL73
 3801 00b5 0400     		.2byte	0x4
 3802 00b7 76       		.byte	0x76
ARM GAS  /tmp/ccIAyMaf.s 			page 68


 3803 00b8 C413     		.sleb128 2500
 3804 00ba 9F       		.byte	0x9f
 3805 00bb C8010000 		.4byte	.LVL73
 3806 00bf CB010000 		.4byte	.LVL74-1
 3807 00c3 0300     		.2byte	0x3
 3808 00c5 72       		.byte	0x72
 3809 00c6 7B       		.sleb128 -5
 3810 00c7 9F       		.byte	0x9f
 3811 00c8 00000000 		.4byte	0
 3812 00cc 00000000 		.4byte	0
 3813              	.LLST6:
 3814 00d0 B8000000 		.4byte	.LVL58
 3815 00d4 BB000000 		.4byte	.LVL59-1
 3816 00d8 0100     		.2byte	0x1
 3817 00da 50       		.byte	0x50
 3818 00db BB000000 		.4byte	.LVL59-1
 3819 00df 14010000 		.4byte	.LVL63
 3820 00e3 0100     		.2byte	0x1
 3821 00e5 55       		.byte	0x55
 3822 00e6 34010000 		.4byte	.LVL67
 3823 00ea 44010000 		.4byte	.LVL68
 3824 00ee 0100     		.2byte	0x1
 3825 00f0 50       		.byte	0x50
 3826 00f1 00000000 		.4byte	0
 3827 00f5 00000000 		.4byte	0
 3828              		.section	.debug_aranges,"",%progbits
 3829 0000 6C000000 		.4byte	0x6c
 3830 0004 0200     		.2byte	0x2
 3831 0006 00000000 		.4byte	.Ldebug_info0
 3832 000a 04       		.byte	0x4
 3833 000b 00       		.byte	0
 3834 000c 0000     		.2byte	0
 3835 000e 0000     		.2byte	0
 3836 0010 00000000 		.4byte	.LFB9
 3837 0014 C4010000 		.4byte	.LFE9-.LFB9
 3838 0018 00000000 		.4byte	.LFB14
 3839 001c 24000000 		.4byte	.LFE14-.LFB14
 3840 0020 00000000 		.4byte	.LFB8
 3841 0024 24000000 		.4byte	.LFE8-.LFB8
 3842 0028 00000000 		.4byte	.LFB7
 3843 002c 10000000 		.4byte	.LFE7-.LFB7
 3844 0030 00000000 		.4byte	.LFB10
 3845 0034 10000000 		.4byte	.LFE10-.LFB10
 3846 0038 00000000 		.4byte	.LFB13
 3847 003c 10000000 		.4byte	.LFE13-.LFB13
 3848 0040 00000000 		.4byte	.LFB11
 3849 0044 2C000000 		.4byte	.LFE11-.LFB11
 3850 0048 00000000 		.4byte	.LFB16
 3851 004c 2C000000 		.4byte	.LFE16-.LFB16
 3852 0050 00000000 		.4byte	.LFB17
 3853 0054 78010000 		.4byte	.LFE17-.LFB17
 3854 0058 00000000 		.4byte	.LFB12
 3855 005c E8010000 		.4byte	.LFE12-.LFB12
 3856 0060 00000000 		.4byte	.LFB15
 3857 0064 EC000000 		.4byte	.LFE15-.LFB15
 3858 0068 00000000 		.4byte	0
 3859 006c 00000000 		.4byte	0
ARM GAS  /tmp/ccIAyMaf.s 			page 69


 3860              		.section	.debug_ranges,"",%progbits
 3861              	.Ldebug_ranges0:
 3862 0000 78000000 		.4byte	.LBB5
 3863 0004 C0010000 		.4byte	.LBE5
 3864 0008 C8010000 		.4byte	.LBB6
 3865 000c E8010000 		.4byte	.LBE6
 3866 0010 00000000 		.4byte	0
 3867 0014 00000000 		.4byte	0
 3868 0018 00000000 		.4byte	.LFB9
 3869 001c C4010000 		.4byte	.LFE9
 3870 0020 00000000 		.4byte	.LFB14
 3871 0024 24000000 		.4byte	.LFE14
 3872 0028 00000000 		.4byte	.LFB8
 3873 002c 24000000 		.4byte	.LFE8
 3874 0030 00000000 		.4byte	.LFB7
 3875 0034 10000000 		.4byte	.LFE7
 3876 0038 00000000 		.4byte	.LFB10
 3877 003c 10000000 		.4byte	.LFE10
 3878 0040 00000000 		.4byte	.LFB13
 3879 0044 10000000 		.4byte	.LFE13
 3880 0048 00000000 		.4byte	.LFB11
 3881 004c 2C000000 		.4byte	.LFE11
 3882 0050 00000000 		.4byte	.LFB16
 3883 0054 2C000000 		.4byte	.LFE16
 3884 0058 00000000 		.4byte	.LFB17
 3885 005c 78010000 		.4byte	.LFE17
 3886 0060 00000000 		.4byte	.LFB12
 3887 0064 E8010000 		.4byte	.LFE12
 3888 0068 00000000 		.4byte	.LFB15
 3889 006c EC000000 		.4byte	.LFE15
 3890 0070 00000000 		.4byte	0
 3891 0074 00000000 		.4byte	0
 3892              		.section	.debug_line,"",%progbits
 3893              	.Ldebug_line0:
 3894 0000 CC020000 		.section	.debug_str,"MS",%progbits,1
 3894      02005B01 
 3894      00000201 
 3894      FB0E0D00 
 3894      01010101 
 3895              	.LASF80:
 3896 0000 7466756E 		.ascii	"tfunc_t\000"
 3896      635F7400 
 3897              	.LASF41:
 3898 0008 705F6D73 		.ascii	"p_msg\000"
 3898      6700
 3899              	.LASF116:
 3900 000e 63685365 		.ascii	"chSemSignalI\000"
 3900      6D536967 
 3900      6E616C49 
 3900      00
 3901              	.LASF2:
 3902 001b 73697A65 		.ascii	"size_t\000"
 3902      5F7400
 3903              	.LASF75:
 3904 0022 7264796D 		.ascii	"rdymsg\000"
 3904      736700
 3905              	.LASF90:
ARM GAS  /tmp/ccIAyMaf.s 			page 70


 3906 0029 73656D31 		.ascii	"sem1_execute\000"
 3906      5F657865 
 3906      63757465 
 3906      00
 3907              	.LASF3:
 3908 0036 5F5F7569 		.ascii	"__uint8_t\000"
 3908      6E74385F 
 3908      7400
 3909              	.LASF99:
 3910 0040 76746C69 		.ascii	"vtlist\000"
 3910      737400
 3911              	.LASF12:
 3912 0047 6C6F6E67 		.ascii	"long long unsigned int\000"
 3912      206C6F6E 
 3912      6720756E 
 3912      7369676E 
 3912      65642069 
 3913              	.LASF76:
 3914 005e 65786974 		.ascii	"exitcode\000"
 3914      636F6465 
 3914      00
 3915              	.LASF110:
 3916 0067 63685365 		.ascii	"chSemAddCounterI\000"
 3916      6D416464 
 3916      436F756E 
 3916      74657249 
 3916      00
 3917              	.LASF29:
 3918 0078 705F7072 		.ascii	"p_prio\000"
 3918      696F00
 3919              	.LASF11:
 3920 007f 6C6F6E67 		.ascii	"long long int\000"
 3920      206C6F6E 
 3920      6720696E 
 3920      7400
 3921              	.LASF1:
 3922 008d 7369676E 		.ascii	"signed char\000"
 3922      65642063 
 3922      68617200 
 3923              	.LASF122:
 3924 0099 63685365 		.ascii	"chSemSignalWait\000"
 3924      6D536967 
 3924      6E616C57 
 3924      61697400 
 3925              	.LASF16:
 3926 00a9 626F6F6C 		.ascii	"bool_t\000"
 3926      5F7400
 3927              	.LASF72:
 3928 00b0 6D5F7175 		.ascii	"m_queue\000"
 3928      65756500 
 3929              	.LASF88:
 3930 00b8 74687265 		.ascii	"thread3\000"
 3930      61643300 
 3931              	.LASF113:
 3932 00c0 74657374 		.ascii	"test_emit_token\000"
 3932      5F656D69 
 3932      745F746F 
ARM GAS  /tmp/ccIAyMaf.s 			page 71


 3932      6B656E00 
 3933              	.LASF20:
 3934 00d0 74736C69 		.ascii	"tslices_t\000"
 3934      6365735F 
 3934      7400
 3935              	.LASF126:
 3936 00da 73656D32 		.ascii	"sem2_execute\000"
 3936      5F657865 
 3936      63757465 
 3936      00
 3937              	.LASF8:
 3938 00e7 6C6F6E67 		.ascii	"long int\000"
 3938      20696E74 
 3938      00
 3939              	.LASF87:
 3940 00f0 74617267 		.ascii	"target_time\000"
 3940      65745F74 
 3940      696D6500 
 3941              	.LASF18:
 3942 00fc 74737461 		.ascii	"tstate_t\000"
 3942      74655F74 
 3942      00
 3943              	.LASF121:
 3944 0105 5F746573 		.ascii	"_test_assert_time_window\000"
 3944      745F6173 
 3944      73657274 
 3944      5F74696D 
 3944      655F7769 
 3945              	.LASF109:
 3946 011e 63685365 		.ascii	"chSemSignal\000"
 3946      6D536967 
 3946      6E616C00 
 3947              	.LASF31:
 3948 012a 705F6E65 		.ascii	"p_newer\000"
 3948      77657200 
 3949              	.LASF67:
 3950 0132 735F7175 		.ascii	"s_queue\000"
 3950      65756500 
 3951              	.LASF118:
 3952 013a 63685363 		.ascii	"chSchRescheduleS\000"
 3952      68526573 
 3952      63686564 
 3952      756C6553 
 3952      00
 3953              	.LASF9:
 3954 014b 5F5F7569 		.ascii	"__uint32_t\000"
 3954      6E743332 
 3954      5F7400
 3955              	.LASF47:
 3956 0156 72656761 		.ascii	"regarm_t\000"
 3956      726D5F74 
 3956      00
 3957              	.LASF53:
 3958 015f 76745F70 		.ascii	"vt_prev\000"
 3958      72657600 
 3959              	.LASF92:
 3960 0167 73656D32 		.ascii	"sem2_setup\000"
ARM GAS  /tmp/ccIAyMaf.s 			page 72


 3960      5F736574 
 3960      757000
 3961              	.LASF98:
 3962 0172 73656D31 		.ascii	"sem1\000"
 3962      00
 3963              	.LASF25:
 3964 0177 636E745F 		.ascii	"cnt_t\000"
 3964      7400
 3965              	.LASF0:
 3966 017d 756E7369 		.ascii	"unsigned int\000"
 3966      676E6564 
 3966      20696E74 
 3966      00
 3967              	.LASF120:
 3968 018a 63685365 		.ascii	"chSemWaitTimeout\000"
 3968      6D576169 
 3968      7454696D 
 3968      656F7574 
 3968      00
 3969              	.LASF52:
 3970 019b 76745F6E 		.ascii	"vt_next\000"
 3970      65787400 
 3971              	.LASF127:
 3972 01a3 73656D33 		.ascii	"sem3_execute\000"
 3972      5F657865 
 3972      63757465 
 3972      00
 3973              	.LASF102:
 3974 01b0 74657374 		.ascii	"testsem1\000"
 3974      73656D31 
 3974      00
 3975              	.LASF103:
 3976 01b9 74657374 		.ascii	"testsem2\000"
 3976      73656D32 
 3976      00
 3977              	.LASF104:
 3978 01c2 74657374 		.ascii	"testsem3\000"
 3978      73656D33 
 3978      00
 3979              	.LASF105:
 3980 01cb 74657374 		.ascii	"testsem4\000"
 3980      73656D34 
 3980      00
 3981              	.LASF10:
 3982 01d4 6C6F6E67 		.ascii	"long unsigned int\000"
 3982      20756E73 
 3982      69676E65 
 3982      6420696E 
 3982      7400
 3983              	.LASF85:
 3984 01e6 74656172 		.ascii	"teardown\000"
 3984      646F776E 
 3984      00
 3985              	.LASF50:
 3986 01ef 76746675 		.ascii	"vtfunc_t\000"
 3986      6E635F74 
 3986      00
ARM GAS  /tmp/ccIAyMaf.s 			page 73


 3987              	.LASF68:
 3988 01f8 735F636E 		.ascii	"s_cnt\000"
 3988      7400
 3989              	.LASF83:
 3990 01fe 6E616D65 		.ascii	"name\000"
 3990      00
 3991              	.LASF49:
 3992 0203 636F6E74 		.ascii	"context\000"
 3992      65787400 
 3993              	.LASF6:
 3994 020b 73686F72 		.ascii	"short unsigned int\000"
 3994      7420756E 
 3994      7369676E 
 3994      65642069 
 3994      6E7400
 3995              	.LASF119:
 3996 021e 63685365 		.ascii	"chSemReset\000"
 3996      6D526573 
 3996      657400
 3997              	.LASF97:
 3998 0229 6273656D 		.ascii	"bsem\000"
 3998      00
 3999              	.LASF22:
 4000 022e 6D73675F 		.ascii	"msg_t\000"
 4000      7400
 4001              	.LASF62:
 4002 0234 725F6E65 		.ascii	"r_newer\000"
 4002      77657200 
 4003              	.LASF17:
 4004 023c 746D6F64 		.ascii	"tmode_t\000"
 4004      655F7400 
 4005              	.LASF46:
 4006 0244 54687265 		.ascii	"ThreadsList\000"
 4006      6164734C 
 4006      69737400 
 4007              	.LASF23:
 4008 0250 6576656E 		.ascii	"eventmask_t\000"
 4008      746D6173 
 4008      6B5F7400 
 4009              	.LASF5:
 4010 025c 73686F72 		.ascii	"short int\000"
 4010      7420696E 
 4010      7400
 4011              	.LASF71:
 4012 0266 4D757465 		.ascii	"Mutex\000"
 4012      7800
 4013              	.LASF107:
 4014 026c 63685468 		.ascii	"chThdCreateStatic\000"
 4014      64437265 
 4014      61746553 
 4014      74617469 
 4014      6300
 4015              	.LASF96:
 4016 027e 73656D34 		.ascii	"sem4_execute\000"
 4016      5F657865 
 4016      63757465 
 4016      00
ARM GAS  /tmp/ccIAyMaf.s 			page 74


 4017              	.LASF54:
 4018 028b 76745F74 		.ascii	"vt_time\000"
 4018      696D6500 
 4019              	.LASF81:
 4020 0293 73697A65 		.ascii	"sizetype\000"
 4020      74797065 
 4020      00
 4021              	.LASF55:
 4022 029c 76745F66 		.ascii	"vt_func\000"
 4022      756E6300 
 4023              	.LASF91:
 4024 02a4 73656D31 		.ascii	"sem1_setup\000"
 4024      5F736574 
 4024      757000
 4025              	.LASF117:
 4026 02af 74657374 		.ascii	"test_wait_threads\000"
 4026      5F776169 
 4026      745F7468 
 4026      72656164 
 4026      7300
 4027              	.LASF32:
 4028 02c1 705F6F6C 		.ascii	"p_older\000"
 4028      64657200 
 4029              	.LASF89:
 4030 02c9 74687265 		.ascii	"thread1\000"
 4030      61643100 
 4031              	.LASF94:
 4032 02d1 74687265 		.ascii	"thread2\000"
 4032      61643200 
 4033              	.LASF61:
 4034 02d9 725F6374 		.ascii	"r_ctx\000"
 4034      7800
 4035              	.LASF95:
 4036 02df 74687265 		.ascii	"thread4\000"
 4036      61643400 
 4037              	.LASF45:
 4038 02e7 54687265 		.ascii	"ThreadsQueue\000"
 4038      61647351 
 4038      75657565 
 4038      00
 4039              	.LASF84:
 4040 02f4 73657475 		.ascii	"setup\000"
 4040      7000
 4041              	.LASF108:
 4042 02fa 5F746573 		.ascii	"_test_assert_sequence\000"
 4042      745F6173 
 4042      73657274 
 4042      5F736571 
 4042      75656E63 
 4043              	.LASF64:
 4044 0310 725F6375 		.ascii	"r_current\000"
 4044      7272656E 
 4044      7400
 4045              	.LASF63:
 4046 031a 725F6F6C 		.ascii	"r_older\000"
 4046      64657200 
 4047              	.LASF106:
ARM GAS  /tmp/ccIAyMaf.s 			page 75


 4048 0322 70617474 		.ascii	"patternsem\000"
 4048      65726E73 
 4048      656D00
 4049              	.LASF19:
 4050 032d 74726566 		.ascii	"trefs_t\000"
 4050      735F7400 
 4051              	.LASF28:
 4052 0335 705F7072 		.ascii	"p_prev\000"
 4052      657600
 4053              	.LASF86:
 4054 033c 65786563 		.ascii	"execute\000"
 4054      75746500 
 4055              	.LASF21:
 4056 0344 74707269 		.ascii	"tprio_t\000"
 4056      6F5F7400 
 4057              	.LASF14:
 4058 034c 696E7433 		.ascii	"int32_t\000"
 4058      325F7400 
 4059              	.LASF4:
 4060 0354 756E7369 		.ascii	"unsigned char\000"
 4060      676E6564 
 4060      20636861 
 4060      7200
 4061              	.LASF128:
 4062 0362 74657374 		.ascii	"test_wait_tick\000"
 4062      5F776169 
 4062      745F7469 
 4062      636B00
 4063              	.LASF43:
 4064 0371 705F6D74 		.ascii	"p_mtxlist\000"
 4064      786C6973 
 4064      7400
 4065              	.LASF124:
 4066 037b 2E2E2F2E 		.ascii	"../../test/testsem.c\000"
 4066      2E2F7465 
 4066      73742F74 
 4066      65737473 
 4066      656D2E63 
 4067              	.LASF34:
 4068 0390 705F7374 		.ascii	"p_state\000"
 4068      61746500 
 4069              	.LASF37:
 4070 0398 705F7072 		.ascii	"p_preempt\000"
 4070      65656D70 
 4070      7400
 4071              	.LASF101:
 4072 03a2 74687265 		.ascii	"threads\000"
 4072      61647300 
 4073              	.LASF60:
 4074 03aa 725F7072 		.ascii	"r_prio\000"
 4074      696F00
 4075              	.LASF78:
 4076 03b1 65776D61 		.ascii	"ewmask\000"
 4076      736B00
 4077              	.LASF27:
 4078 03b8 705F6E65 		.ascii	"p_next\000"
 4078      787400
ARM GAS  /tmp/ccIAyMaf.s 			page 76


 4079              	.LASF35:
 4080 03bf 705F666C 		.ascii	"p_flags\000"
 4080      61677300 
 4081              	.LASF26:
 4082 03c7 54687265 		.ascii	"Thread\000"
 4082      616400
 4083              	.LASF82:
 4084 03ce 74657374 		.ascii	"testcase\000"
 4084      63617365 
 4084      00
 4085              	.LASF42:
 4086 03d7 705F6570 		.ascii	"p_epending\000"
 4086      656E6469 
 4086      6E6700
 4087              	.LASF66:
 4088 03e2 53656D61 		.ascii	"Semaphore\000"
 4088      70686F72 
 4088      6500
 4089              	.LASF15:
 4090 03ec 75696E74 		.ascii	"uint32_t\000"
 4090      33325F74 
 4090      00
 4091              	.LASF59:
 4092 03f5 725F7175 		.ascii	"r_queue\000"
 4092      65756500 
 4093              	.LASF51:
 4094 03fd 56697274 		.ascii	"VirtualTimer\000"
 4094      75616C54 
 4094      696D6572 
 4094      00
 4095              	.LASF79:
 4096 040a 63686172 		.ascii	"char\000"
 4096      00
 4097              	.LASF70:
 4098 040f 42696E61 		.ascii	"BinarySemaphore\000"
 4098      72795365 
 4098      6D617068 
 4098      6F726500 
 4099              	.LASF74:
 4100 041f 6D5F6E65 		.ascii	"m_next\000"
 4100      787400
 4101              	.LASF24:
 4102 0426 73797374 		.ascii	"systime_t\000"
 4102      696D655F 
 4102      7400
 4103              	.LASF44:
 4104 0430 705F7265 		.ascii	"p_realprio\000"
 4104      616C7072 
 4104      696F00
 4105              	.LASF7:
 4106 043b 5F5F696E 		.ascii	"__int32_t\000"
 4106      7433325F 
 4106      7400
 4107              	.LASF112:
 4108 0445 63685365 		.ascii	"chSemWait\000"
 4108      6D576169 
 4108      7400
ARM GAS  /tmp/ccIAyMaf.s 			page 77


 4109              	.LASF38:
 4110 044f 705F7469 		.ascii	"p_time\000"
 4110      6D6500
 4111              	.LASF48:
 4112 0456 696E7463 		.ascii	"intctx\000"
 4112      747800
 4113              	.LASF40:
 4114 045d 705F6D73 		.ascii	"p_msgqueue\000"
 4114      67717565 
 4114      756500
 4115              	.LASF56:
 4116 0468 76745F70 		.ascii	"vt_par\000"
 4116      617200
 4117              	.LASF125:
 4118 046f 2F686F6D 		.ascii	"/home/hunter/development/chibi/ChibiOS-RPi/demos/AR"
 4118      652F6875 
 4118      6E746572 
 4118      2F646576 
 4118      656C6F70 
 4119 04a2 4D31312D 		.ascii	"M11-BCM2835-GCC\000"
 4119      42434D32 
 4119      3833352D 
 4119      47434300 
 4120              	.LASF93:
 4121 04b2 73656D33 		.ascii	"sem3_setup\000"
 4121      5F736574 
 4121      757000
 4122              	.LASF115:
 4123 04bd 63685468 		.ascii	"chThdSleep\000"
 4123      64536C65 
 4123      657000
 4124              	.LASF36:
 4125 04c8 705F7265 		.ascii	"p_refs\000"
 4125      667300
 4126              	.LASF65:
 4127 04cf 52656164 		.ascii	"ReadyList\000"
 4127      794C6973 
 4127      7400
 4128              	.LASF100:
 4129 04d9 726C6973 		.ascii	"rlist\000"
 4129      7400
 4130              	.LASF13:
 4131 04df 75696E74 		.ascii	"uint8_t\000"
 4131      385F7400 
 4132              	.LASF77:
 4133 04e7 77746F62 		.ascii	"wtobjp\000"
 4133      6A7000
 4134              	.LASF33:
 4135 04ee 705F6E61 		.ascii	"p_name\000"
 4135      6D6500
 4136              	.LASF123:
 4137 04f5 474E5520 		.ascii	"GNU C 4.9.3 20150529 (prerelease) -mcpu=arm1176jz-s"
 4137      4320342E 
 4137      392E3320 
 4137      32303135 
 4137      30353239 
 4138 0528 202D6D6E 		.ascii	" -mno-thumb-interwork -ggdb -O2 -fomit-frame-pointe"
ARM GAS  /tmp/ccIAyMaf.s 			page 78


 4138      6F2D7468 
 4138      756D622D 
 4138      696E7465 
 4138      72776F72 
 4139 055b 72202D66 		.ascii	"r -ffunction-sections -fdata-sections\000"
 4139      66756E63 
 4139      74696F6E 
 4139      2D736563 
 4139      74696F6E 
 4140              	.LASF111:
 4141 0581 5F746573 		.ascii	"_test_assert\000"
 4141      745F6173 
 4141      73657274 
 4141      00
 4142              	.LASF57:
 4143 058e 76745F73 		.ascii	"vt_systime\000"
 4143      79737469 
 4143      6D6500
 4144              	.LASF69:
 4145 0599 62735F73 		.ascii	"bs_sem\000"
 4145      656D00
 4146              	.LASF58:
 4147 05a0 56544C69 		.ascii	"VTList\000"
 4147      737400
 4148              	.LASF73:
 4149 05a7 6D5F6F77 		.ascii	"m_owner\000"
 4149      6E657200 
 4150              	.LASF30:
 4151 05af 705F6374 		.ascii	"p_ctx\000"
 4151      7800
 4152              	.LASF39:
 4153 05b5 705F7761 		.ascii	"p_waiting\000"
 4153      6974696E 
 4153      6700
 4154              	.LASF114:
 4155 05bf 63685365 		.ascii	"chSemInit\000"
 4155      6D496E69 
 4155      7400
 4156              		.ident	"GCC: (15:4.9.3+svn231177-1) 4.9.3 20150529 (prerelease)"
ARM GAS  /tmp/ccIAyMaf.s 			page 79


DEFINED SYMBOLS
                            *ABS*:0000000000000000 testsem.c
     /tmp/ccIAyMaf.s:17     .text.sem1_execute:0000000000000000 $a
     /tmp/ccIAyMaf.s:19     .text.sem1_execute:0000000000000000 sem1_execute
     /tmp/ccIAyMaf.s:208    .text.sem1_execute:0000000000000198 $d
     /tmp/ccIAyMaf.s:259    .text.thread1:0000000000000000 thread1
     /tmp/ccIAyMaf.s:223    .text.thread3:0000000000000000 $a
     /tmp/ccIAyMaf.s:225    .text.thread3:0000000000000000 thread3
     /tmp/ccIAyMaf.s:252    .text.thread3:0000000000000020 $d
     /tmp/ccIAyMaf.s:257    .text.thread1:0000000000000000 $a
     /tmp/ccIAyMaf.s:287    .text.thread1:0000000000000020 $d
     /tmp/ccIAyMaf.s:292    .text.sem1_setup:0000000000000000 $a
     /tmp/ccIAyMaf.s:294    .text.sem1_setup:0000000000000000 sem1_setup
     /tmp/ccIAyMaf.s:309    .text.sem1_setup:000000000000000c $d
     /tmp/ccIAyMaf.s:314    .text.sem2_setup:0000000000000000 $a
     /tmp/ccIAyMaf.s:316    .text.sem2_setup:0000000000000000 sem2_setup
     /tmp/ccIAyMaf.s:331    .text.sem2_setup:000000000000000c $d
     /tmp/ccIAyMaf.s:336    .text.sem3_setup:0000000000000000 $a
     /tmp/ccIAyMaf.s:338    .text.sem3_setup:0000000000000000 sem3_setup
     /tmp/ccIAyMaf.s:353    .text.sem3_setup:000000000000000c $d
     /tmp/ccIAyMaf.s:358    .text.thread2:0000000000000000 $a
     /tmp/ccIAyMaf.s:360    .text.thread2:0000000000000000 thread2
     /tmp/ccIAyMaf.s:397    .text.thread2:0000000000000028 $d
     /tmp/ccIAyMaf.s:402    .text.thread4:0000000000000000 $a
     /tmp/ccIAyMaf.s:404    .text.thread4:0000000000000000 thread4
     /tmp/ccIAyMaf.s:443    .text.sem4_execute:0000000000000000 $a
     /tmp/ccIAyMaf.s:445    .text.sem4_execute:0000000000000000 sem4_execute
     /tmp/ccIAyMaf.s:599    .text.sem4_execute:0000000000000168 $d
     /tmp/ccIAyMaf.s:607    .text.sem2_execute:0000000000000000 $a
     /tmp/ccIAyMaf.s:609    .text.sem2_execute:0000000000000000 sem2_execute
     /tmp/ccIAyMaf.s:813    .text.sem2_execute:00000000000001cc $d
     /tmp/ccIAyMaf.s:826    .text.sem3_execute:0000000000000000 $a
     /tmp/ccIAyMaf.s:828    .text.sem3_execute:0000000000000000 sem3_execute
     /tmp/ccIAyMaf.s:937    .text.sem3_execute:00000000000000d8 $d
     /tmp/ccIAyMaf.s:1001   .rodata.patternsem:0000000000000000 patternsem
     /tmp/ccIAyMaf.s:983    .rodata.testsem4:0000000000000000 testsem4
     /tmp/ccIAyMaf.s:974    .rodata.testsem3:0000000000000000 testsem3
     /tmp/ccIAyMaf.s:965    .rodata.testsem2:0000000000000000 testsem2
     /tmp/ccIAyMaf.s:956    .rodata.testsem1:0000000000000000 testsem1
     /tmp/ccIAyMaf.s:953    .rodata.testsem1:0000000000000000 $d
     /tmp/ccIAyMaf.s:962    .rodata.testsem2:0000000000000000 $d
     /tmp/ccIAyMaf.s:971    .rodata.testsem3:0000000000000000 $d
     /tmp/ccIAyMaf.s:980    .rodata.testsem4:0000000000000000 $d
     /tmp/ccIAyMaf.s:989    .data.sem1:0000000000000000 $d
     /tmp/ccIAyMaf.s:993    .data.sem1:0000000000000000 sem1
     /tmp/ccIAyMaf.s:998    .rodata.patternsem:0000000000000000 $d
     /tmp/ccIAyMaf.s:1008   .rodata.str1.4:0000000000000000 $d
                     .debug_frame:0000000000000010 $d

UNDEFINED SYMBOLS
chThdCreateStatic
chSemSignal
test_wait_threads
_test_assert_sequence
chSemAddCounterI
_test_assert
rlist
ARM GAS  /tmp/ccIAyMaf.s 			page 80


wa
threads
chSemWait
test_emit_token
chSemInit
chThdSleep
chSemSignalI
chSchRescheduleS
chSemReset
chSemWaitTimeout
test_wait_tick
_test_assert_time_window
vtlist
chSemSignalWait
