ARM GAS  /tmp/ccfVcRHv.s 			page 1


   1              		.cpu arm1176jz-s
   2              		.fpu softvfp
   3              		.eabi_attribute 20, 1
   4              		.eabi_attribute 21, 1
   5              		.eabi_attribute 23, 3
   6              		.eabi_attribute 24, 1
   7              		.eabi_attribute 25, 1
   8              		.eabi_attribute 26, 1
   9              		.eabi_attribute 30, 2
  10              		.eabi_attribute 34, 1
  11              		.eabi_attribute 18, 4
  12              		.file	"testevt.c"
  13              		.text
  14              	.Ltext0:
  15              		.cfi_sections	.debug_frame
  16              		.section	.text.evt1_execute,"ax",%progbits
  17              		.align	2
  18              		.type	evt1_execute, %function
  19              	evt1_execute:
  20              	.LFB11:
  21              		.file 1 "../../test/testevt.c"
  22              		.loc 1 89 0
  23              		.cfi_startproc
  24              		@ args = 0, pretend = 0, frame = 32
  25              		@ frame_needed = 0, uses_anonymous_args = 0
  26 0000 10402DE9 		stmfd	sp!, {r4, lr}
  27              		.cfi_def_cfa_offset 8
  28              		.cfi_offset 4, -8
  29              		.cfi_offset 14, -4
  30              		.loc 1 95 0
  31 0004 B8409FE5 		ldr	r4, .L7
  32              		.loc 1 89 0
  33 0008 20D04DE2 		sub	sp, sp, #32
  34              		.cfi_def_cfa_offset 40
  35              		.loc 1 96 0
  36 000c 0400A0E1 		mov	r0, r4
  37 0010 0D10A0E1 		mov	r1, sp
  38 0014 0120A0E3 		mov	r2, #1
  39              		.loc 1 95 0
  40 0018 004084E5 		str	r4, [r4]
  41              		.loc 1 96 0
  42 001c FEFFFFEB 		bl	chEvtRegisterMask
  43              	.LVL0:
  44              		.loc 1 97 0
  45 0020 0400A0E1 		mov	r0, r4
  46 0024 10108DE2 		add	r1, sp, #16
  47 0028 0220A0E3 		mov	r2, #2
  48 002c FEFFFFEB 		bl	chEvtRegisterMask
  49              	.LVL1:
  50              		.loc 1 98 0
  51 0030 001094E5 		ldr	r1, [r4]
  52 0034 0100A0E3 		mov	r0, #1
  53 0038 041051E0 		subs	r1, r1, r4
  54 003c 0110A013 		movne	r1, #1
  55 0040 FEFFFFEB 		bl	_test_assert
  56              	.LVL2:
  57 0044 000050E3 		cmp	r0, #0
ARM GAS  /tmp/ccfVcRHv.s 			page 2


  58 0048 0100000A 		beq	.L6
  59              	.L1:
  60              		.loc 1 109 0
  61 004c 20D08DE2 		add	sp, sp, #32
  62              		.cfi_remember_state
  63              		.cfi_def_cfa_offset 8
  64              		@ sp needed
  65 0050 1080BDE8 		ldmfd	sp!, {r4, pc}
  66              	.L6:
  67              		.cfi_restore_state
  68              		.loc 1 99 0
  69 0054 0D10A0E1 		mov	r1, sp
  70 0058 0400A0E1 		mov	r0, r4
  71 005c FEFFFFEB 		bl	chEvtUnregister
  72              	.LVL3:
  73              		.loc 1 100 0
  74 0060 001094E5 		ldr	r1, [r4]
  75 0064 0200A0E3 		mov	r0, #2
  76 0068 041051E0 		subs	r1, r1, r4
  77 006c 0110A013 		movne	r1, #1
  78 0070 FEFFFFEB 		bl	_test_assert
  79              	.LVL4:
  80 0074 000050E3 		cmp	r0, #0
  81 0078 F3FFFF1A 		bne	.L1
  82              		.loc 1 101 0
  83 007c 10108DE2 		add	r1, sp, #16
  84 0080 0400A0E1 		mov	r0, r4
  85 0084 FEFFFFEB 		bl	chEvtUnregister
  86              	.LVL5:
  87              		.loc 1 102 0
  88 0088 001094E5 		ldr	r1, [r4]
  89 008c 0300A0E3 		mov	r0, #3
  90 0090 011064E0 		rsb	r1, r4, r1
  91 0094 111F6FE1 		clz	r1, r1
  92 0098 A112A0E1 		mov	r1, r1, lsr #5
  93 009c FEFFFFEB 		bl	_test_assert
  94              	.LVL6:
  95 00a0 000050E3 		cmp	r0, #0
  96 00a4 E8FFFF1A 		bne	.L1
  97              		.loc 1 107 0
  98 00a8 18009FE5 		ldr	r0, .L7+4
  99 00ac 0710A0E3 		mov	r1, #7
 100 00b0 FEFFFFEB 		bl	chEvtDispatch
 101              	.LVL7:
 102              		.loc 1 108 0
 103 00b4 10109FE5 		ldr	r1, .L7+8
 104 00b8 0400A0E3 		mov	r0, #4
 105 00bc FEFFFFEB 		bl	_test_assert_sequence
 106              	.LVL8:
 107 00c0 E1FFFFEA 		b	.L1
 108              	.L8:
 109              		.align	2
 110              	.L7:
 111 00c4 00000000 		.word	.LANCHOR0
 112 00c8 00000000 		.word	.LANCHOR1
 113 00cc 00000000 		.word	.LC0
 114              		.cfi_endproc
ARM GAS  /tmp/ccfVcRHv.s 			page 3


 115              	.LFE11:
 116              		.size	evt1_execute, .-evt1_execute
 117              		.section	.text.h3,"ax",%progbits
 118              		.align	2
 119              		.type	h3, %function
 120              	h3:
 121              	.LFB10:
 122              		.loc 1 86 0
 123              		.cfi_startproc
 124              		@ args = 0, pretend = 0, frame = 0
 125              		@ frame_needed = 0, uses_anonymous_args = 0
 126              		@ link register save eliminated.
 127              	.LVL9:
 128              		.loc 1 86 0
 129 0000 4300A0E3 		mov	r0, #67
 130              	.LVL10:
 131 0004 FEFFFFEA 		b	test_emit_token
 132              	.LVL11:
 133              		.cfi_endproc
 134              	.LFE10:
 135              		.size	h3, .-h3
 136              		.section	.text.h2,"ax",%progbits
 137              		.align	2
 138              		.type	h2, %function
 139              	h2:
 140              	.LFB9:
 141              		.loc 1 85 0
 142              		.cfi_startproc
 143              		@ args = 0, pretend = 0, frame = 0
 144              		@ frame_needed = 0, uses_anonymous_args = 0
 145              		@ link register save eliminated.
 146              	.LVL12:
 147              		.loc 1 85 0
 148 0000 4200A0E3 		mov	r0, #66
 149              	.LVL13:
 150 0004 FEFFFFEA 		b	test_emit_token
 151              	.LVL14:
 152              		.cfi_endproc
 153              	.LFE9:
 154              		.size	h2, .-h2
 155              		.section	.text.h1,"ax",%progbits
 156              		.align	2
 157              		.type	h1, %function
 158              	h1:
 159              	.LFB8:
 160              		.loc 1 84 0
 161              		.cfi_startproc
 162              		@ args = 0, pretend = 0, frame = 0
 163              		@ frame_needed = 0, uses_anonymous_args = 0
 164              		@ link register save eliminated.
 165              	.LVL15:
 166              		.loc 1 84 0
 167 0000 4100A0E3 		mov	r0, #65
 168              	.LVL16:
 169 0004 FEFFFFEA 		b	test_emit_token
 170              	.LVL17:
 171              		.cfi_endproc
ARM GAS  /tmp/ccfVcRHv.s 			page 4


 172              	.LFE8:
 173              		.size	h1, .-h1
 174              		.section	.text.evt1_setup,"ax",%progbits
 175              		.align	2
 176              		.type	evt1_setup, %function
 177              	evt1_setup:
 178              	.LFB7:
 179              		.loc 1 79 0
 180              		.cfi_startproc
 181              		@ args = 0, pretend = 0, frame = 0
 182              		@ frame_needed = 0, uses_anonymous_args = 0
 183              		@ link register save eliminated.
 184              		.loc 1 81 0
 185 0000 0000E0E3 		mvn	r0, #0
 186 0004 FEFFFFEA 		b	chEvtGetAndClearEvents
 187              	.LVL18:
 188              		.cfi_endproc
 189              	.LFE7:
 190              		.size	evt1_setup, .-evt1_setup
 191              		.section	.text.evt2_setup,"ax",%progbits
 192              		.align	2
 193              		.type	evt2_setup, %function
 194              	evt2_setup:
 195              	.LFB12:
 196              		.loc 1 132 0
 197              		.cfi_startproc
 198              		@ args = 0, pretend = 0, frame = 0
 199              		@ frame_needed = 0, uses_anonymous_args = 0
 200              		@ link register save eliminated.
 201              		.loc 1 134 0
 202 0000 0000E0E3 		mvn	r0, #0
 203 0004 FEFFFFEA 		b	chEvtGetAndClearEvents
 204              	.LVL19:
 205              		.cfi_endproc
 206              	.LFE12:
 207              		.size	evt2_setup, .-evt2_setup
 208              		.section	.text.evt3_setup,"ax",%progbits
 209              		.align	2
 210              		.type	evt3_setup, %function
 211              	evt3_setup:
 212              	.LFB16:
 213              		.loc 1 251 0
 214              		.cfi_startproc
 215              		@ args = 0, pretend = 0, frame = 0
 216              		@ frame_needed = 0, uses_anonymous_args = 0
 217              		@ link register save eliminated.
 218              		.loc 1 253 0
 219 0000 0000E0E3 		mvn	r0, #0
 220 0004 FEFFFFEA 		b	chEvtGetAndClearEvents
 221              	.LVL20:
 222              		.cfi_endproc
 223              	.LFE16:
 224              		.size	evt3_setup, .-evt3_setup
 225              		.section	.text.evt2_execute,"ax",%progbits
 226              		.align	2
 227              		.type	evt2_execute, %function
 228              	evt2_execute:
ARM GAS  /tmp/ccfVcRHv.s 			page 5


 229              	.LFB15:
 230              		.loc 1 153 0
 231              		.cfi_startproc
 232              		@ args = 0, pretend = 0, frame = 32
 233              		@ frame_needed = 0, uses_anonymous_args = 0
 234 0000 F0432DE9 		stmfd	sp!, {r4, r5, r6, r7, r8, r9, lr}
 235              		.cfi_def_cfa_offset 28
 236              		.cfi_offset 4, -28
 237              		.cfi_offset 5, -24
 238              		.cfi_offset 6, -20
 239              		.cfi_offset 7, -16
 240              		.cfi_offset 8, -12
 241              		.cfi_offset 9, -8
 242              		.cfi_offset 14, -4
 243              		.loc 1 161 0
 244 0004 0500A0E3 		mov	r0, #5
 245              		.loc 1 153 0
 246 0008 2CD04DE2 		sub	sp, sp, #44
 247              		.cfi_def_cfa_offset 72
 248              		.loc 1 161 0
 249 000c FEFFFFEB 		bl	chEvtAddEvents
 250              	.LVL21:
 251              		.loc 1 162 0
 252 0010 0000E0E3 		mvn	r0, #0
 253 0014 FEFFFFEB 		bl	chEvtWaitOne
 254              	.LVL22:
 255              		.loc 1 163 0
 256 0018 011040E2 		sub	r1, r0, #1
 257 001c 111F6FE1 		clz	r1, r1
 258 0020 0100A0E3 		mov	r0, #1
 259              	.LVL23:
 260 0024 A112A0E1 		mov	r1, r1, lsr #5
 261 0028 FEFFFFEB 		bl	_test_assert
 262              	.LVL24:
 263 002c 000050E3 		cmp	r0, #0
 264 0030 0100000A 		beq	.L19
 265              	.L15:
 266              		.loc 1 226 0
 267 0034 2CD08DE2 		add	sp, sp, #44
 268              		.cfi_remember_state
 269              		.cfi_def_cfa_offset 28
 270              		@ sp needed
 271 0038 F083BDE8 		ldmfd	sp!, {r4, r5, r6, r7, r8, r9, pc}
 272              	.L19:
 273              		.cfi_restore_state
 274              		.loc 1 164 0
 275 003c 0000E0E3 		mvn	r0, #0
 276 0040 FEFFFFEB 		bl	chEvtWaitOne
 277              	.LVL25:
 278              		.loc 1 165 0
 279 0044 041040E2 		sub	r1, r0, #4
 280 0048 111F6FE1 		clz	r1, r1
 281 004c 0200A0E3 		mov	r0, #2
 282              	.LVL26:
 283 0050 A112A0E1 		mov	r1, r1, lsr #5
 284 0054 FEFFFFEB 		bl	_test_assert
 285              	.LVL27:
ARM GAS  /tmp/ccfVcRHv.s 			page 6


 286 0058 000050E3 		cmp	r0, #0
 287 005c F4FFFF1A 		bne	.L15
 288              		.loc 1 166 0
 289 0060 0000E0E3 		mvn	r0, #0
 290 0064 FEFFFFEB 		bl	chEvtGetAndClearEvents
 291              	.LVL28:
 292              		.loc 1 167 0
 293 0068 101F6FE1 		clz	r1, r0
 294 006c 0300A0E3 		mov	r0, #3
 295              	.LVL29:
 296 0070 A112A0E1 		mov	r1, r1, lsr #5
 297 0074 FEFFFFEB 		bl	_test_assert
 298              	.LVL30:
 299 0078 000050E3 		cmp	r0, #0
 300 007c ECFFFF1A 		bne	.L15
 301              		.loc 1 174 0
 302 0080 70829FE5 		ldr	r8, .L20
 303              		.loc 1 172 0
 304 0084 FEFFFFEB 		bl	test_wait_tick
 305              	.LVL31:
 306              		.loc 1 174 0
 307 0088 183098E5 		ldr	r3, [r8, #24]
 308 008c 68129FE5 		ldr	r1, .L20+4
 309 0090 082093E5 		ldr	r2, [r3, #8]
 310 0094 007091E5 		ldr	r7, [r1]
 311              		.loc 1 173 0
 312 0098 60629FE5 		ldr	r6, .L20+8
 313              		.loc 1 174 0
 314 009c 012042E2 		sub	r2, r2, #1
 315 00a0 00308DE5 		str	r3, [sp]
 316 00a4 461FA0E3 		mov	r1, #280
 317 00a8 54329FE5 		ldr	r3, .L20+12
 318 00ac 0700A0E1 		mov	r0, r7
 319              		.loc 1 173 0
 320 00b0 0C4096E5 		ldr	r4, [r6, #12]
 321              	.LVL32:
 322              		.loc 1 174 0
 323 00b4 FEFFFFEB 		bl	chThdCreateStatic
 324              	.LVL33:
 325 00b8 48529FE5 		ldr	r5, .L20+16
 326 00bc 000085E5 		str	r0, [r5]
 327              		.loc 1 176 0
 328 00c0 0000E0E3 		mvn	r0, #0
 329 00c4 FEFFFFEB 		bl	chEvtWaitOne
 330              	.LVL34:
 331              		.loc 1 177 0
 332 00c8 321084E2 		add	r1, r4, #50
 333              	.LVL35:
 334              		.loc 1 176 0
 335 00cc 0090A0E1 		mov	r9, r0
 336              	.LVL36:
 337              		.loc 1 177 0
 338 00d0 372084E2 		add	r2, r4, #55
 339 00d4 0400A0E3 		mov	r0, #4
 340              	.LVL37:
 341 00d8 FEFFFFEB 		bl	_test_assert_time_window
 342              	.LVL38:
ARM GAS  /tmp/ccfVcRHv.s 			page 7


 343 00dc 000050E3 		cmp	r0, #0
 344 00e0 D3FFFF1A 		bne	.L15
 345              		.loc 1 178 0
 346 00e4 011049E2 		sub	r1, r9, #1
 347 00e8 111F6FE1 		clz	r1, r1
 348 00ec 0500A0E3 		mov	r0, #5
 349 00f0 A112A0E1 		mov	r1, r1, lsr #5
 350 00f4 FEFFFFEB 		bl	_test_assert
 351              	.LVL39:
 352 00f8 000050E3 		cmp	r0, #0
 353 00fc CCFFFF1A 		bne	.L15
 354              		.loc 1 179 0
 355 0100 0000E0E3 		mvn	r0, #0
 356 0104 FEFFFFEB 		bl	chEvtGetAndClearEvents
 357              	.LVL40:
 358              		.loc 1 180 0
 359 0108 101F6FE1 		clz	r1, r0
 360 010c 0600A0E3 		mov	r0, #6
 361              	.LVL41:
 362 0110 A112A0E1 		mov	r1, r1, lsr #5
 363 0114 FEFFFFEB 		bl	_test_assert
 364              	.LVL42:
 365 0118 000050E3 		cmp	r0, #0
 366 011c C4FFFF1A 		bne	.L15
 367              		.loc 1 181 0
 368 0120 FEFFFFEB 		bl	test_wait_threads
 369              	.LVL43:
 370              		.loc 1 186 0
 371 0124 0500A0E3 		mov	r0, #5
 372 0128 FEFFFFEB 		bl	chEvtAddEvents
 373              	.LVL44:
 374              		.loc 1 187 0
 375 012c 0000E0E3 		mvn	r0, #0
 376 0130 FEFFFFEB 		bl	chEvtWaitAny
 377              	.LVL45:
 378              		.loc 1 188 0
 379 0134 051040E2 		sub	r1, r0, #5
 380 0138 111F6FE1 		clz	r1, r1
 381 013c 0700A0E3 		mov	r0, #7
 382              	.LVL46:
 383 0140 A112A0E1 		mov	r1, r1, lsr #5
 384 0144 FEFFFFEB 		bl	_test_assert
 385              	.LVL47:
 386 0148 000050E3 		cmp	r0, #0
 387 014c B8FFFF1A 		bne	.L15
 388              		.loc 1 189 0
 389 0150 0000E0E3 		mvn	r0, #0
 390 0154 FEFFFFEB 		bl	chEvtGetAndClearEvents
 391              	.LVL48:
 392              		.loc 1 190 0
 393 0158 101F6FE1 		clz	r1, r0
 394 015c 0800A0E3 		mov	r0, #8
 395              	.LVL49:
 396 0160 A112A0E1 		mov	r1, r1, lsr #5
 397 0164 FEFFFFEB 		bl	_test_assert
 398              	.LVL50:
 399 0168 000050E3 		cmp	r0, #0
ARM GAS  /tmp/ccfVcRHv.s 			page 8


 400 016c B0FFFF1A 		bne	.L15
 401              		.loc 1 195 0
 402 0170 FEFFFFEB 		bl	test_wait_tick
 403              	.LVL51:
 404              		.loc 1 197 0
 405 0174 183098E5 		ldr	r3, [r8, #24]
 406 0178 461FA0E3 		mov	r1, #280
 407 017c 082093E5 		ldr	r2, [r3, #8]
 408 0180 0700A0E1 		mov	r0, r7
 409 0184 012042E2 		sub	r2, r2, #1
 410 0188 00308DE5 		str	r3, [sp]
 411 018c 70319FE5 		ldr	r3, .L20+12
 412              		.loc 1 196 0
 413 0190 0C4096E5 		ldr	r4, [r6, #12]
 414              	.LVL52:
 415              		.loc 1 197 0
 416 0194 FEFFFFEB 		bl	chThdCreateStatic
 417              	.LVL53:
 418 0198 000085E5 		str	r0, [r5]
 419              		.loc 1 199 0
 420 019c 0000E0E3 		mvn	r0, #0
 421 01a0 FEFFFFEB 		bl	chEvtWaitAny
 422              	.LVL54:
 423              		.loc 1 200 0
 424 01a4 321084E2 		add	r1, r4, #50
 425              	.LVL55:
 426              		.loc 1 199 0
 427 01a8 0090A0E1 		mov	r9, r0
 428              	.LVL56:
 429              		.loc 1 200 0
 430 01ac 372084E2 		add	r2, r4, #55
 431 01b0 0900A0E3 		mov	r0, #9
 432              	.LVL57:
 433 01b4 FEFFFFEB 		bl	_test_assert_time_window
 434              	.LVL58:
 435 01b8 000050E3 		cmp	r0, #0
 436 01bc 9CFFFF1A 		bne	.L15
 437              		.loc 1 201 0
 438 01c0 011049E2 		sub	r1, r9, #1
 439 01c4 111F6FE1 		clz	r1, r1
 440 01c8 0A00A0E3 		mov	r0, #10
 441 01cc A112A0E1 		mov	r1, r1, lsr #5
 442 01d0 FEFFFFEB 		bl	_test_assert
 443              	.LVL59:
 444 01d4 000050E3 		cmp	r0, #0
 445 01d8 95FFFF1A 		bne	.L15
 446              		.loc 1 202 0
 447 01dc 0000E0E3 		mvn	r0, #0
 448 01e0 FEFFFFEB 		bl	chEvtGetAndClearEvents
 449              	.LVL60:
 450              		.loc 1 203 0
 451 01e4 101F6FE1 		clz	r1, r0
 452 01e8 0B00A0E3 		mov	r0, #11
 453              	.LVL61:
 454 01ec A112A0E1 		mov	r1, r1, lsr #5
 455 01f0 FEFFFFEB 		bl	_test_assert
 456              	.LVL62:
ARM GAS  /tmp/ccfVcRHv.s 			page 9


 457 01f4 000050E3 		cmp	r0, #0
 458 01f8 8DFFFF1A 		bne	.L15
 459              		.loc 1 209 0
 460 01fc 08919FE5 		ldr	r9, .L20+20
 461              		.loc 1 210 0
 462 0200 08419FE5 		ldr	r4, .L20+24
 463              	.LVL63:
 464              		.loc 1 204 0
 465 0204 FEFFFFEB 		bl	test_wait_threads
 466              	.LVL64:
 467              		.loc 1 211 0
 468 0208 0900A0E1 		mov	r0, r9
 469 020c 08108DE2 		add	r1, sp, #8
 470 0210 0120A0E3 		mov	r2, #1
 471              		.loc 1 209 0
 472 0214 009089E5 		str	r9, [r9]
 473              		.loc 1 210 0
 474 0218 004084E5 		str	r4, [r4]
 475              		.loc 1 211 0
 476 021c FEFFFFEB 		bl	chEvtRegisterMask
 477              	.LVL65:
 478              		.loc 1 212 0
 479 0220 18108DE2 		add	r1, sp, #24
 480 0224 0420A0E3 		mov	r2, #4
 481 0228 0400A0E1 		mov	r0, r4
 482 022c FEFFFFEB 		bl	chEvtRegisterMask
 483              	.LVL66:
 484              		.loc 1 213 0
 485 0230 FEFFFFEB 		bl	test_wait_tick
 486              	.LVL67:
 487              		.loc 1 215 0
 488 0234 182098E5 		ldr	r2, [r8, #24]
 489 0238 D4309FE5 		ldr	r3, .L20+28
 490 023c 082092E5 		ldr	r2, [r2, #8]
 491 0240 461FA0E3 		mov	r1, #280
 492 0244 012042E2 		sub	r2, r2, #1
 493 0248 00308DE5 		str	r3, [sp]
 494 024c 0700A0E1 		mov	r0, r7
 495 0250 C0309FE5 		ldr	r3, .L20+32
 496              		.loc 1 214 0
 497 0254 0C6096E5 		ldr	r6, [r6, #12]
 498              	.LVL68:
 499              		.loc 1 215 0
 500 0258 FEFFFFEB 		bl	chThdCreateStatic
 501              	.LVL69:
 502 025c 000085E5 		str	r0, [r5]
 503              		.loc 1 217 0
 504 0260 0500A0E3 		mov	r0, #5
 505 0264 FEFFFFEB 		bl	chEvtWaitAll
 506              	.LVL70:
 507              		.loc 1 218 0
 508 0268 321086E2 		add	r1, r6, #50
 509              	.LVL71:
 510 026c 372086E2 		add	r2, r6, #55
 511 0270 0C00A0E3 		mov	r0, #12
 512 0274 FEFFFFEB 		bl	_test_assert_time_window
 513              	.LVL72:
ARM GAS  /tmp/ccfVcRHv.s 			page 10


 514 0278 000050E3 		cmp	r0, #0
 515 027c 6CFFFF1A 		bne	.L15
 516              		.loc 1 219 0
 517 0280 0000E0E3 		mvn	r0, #0
 518 0284 FEFFFFEB 		bl	chEvtGetAndClearEvents
 519              	.LVL73:
 520              		.loc 1 220 0
 521 0288 101F6FE1 		clz	r1, r0
 522 028c 0D00A0E3 		mov	r0, #13
 523              	.LVL74:
 524 0290 A112A0E1 		mov	r1, r1, lsr #5
 525 0294 FEFFFFEB 		bl	_test_assert
 526              	.LVL75:
 527 0298 000050E3 		cmp	r0, #0
 528 029c 64FFFF1A 		bne	.L15
 529              		.loc 1 221 0
 530 02a0 FEFFFFEB 		bl	test_wait_threads
 531              	.LVL76:
 532              		.loc 1 222 0
 533 02a4 0900A0E1 		mov	r0, r9
 534 02a8 08108DE2 		add	r1, sp, #8
 535 02ac FEFFFFEB 		bl	chEvtUnregister
 536              	.LVL77:
 537              		.loc 1 223 0
 538 02b0 0400A0E1 		mov	r0, r4
 539 02b4 18108DE2 		add	r1, sp, #24
 540 02b8 FEFFFFEB 		bl	chEvtUnregister
 541              	.LVL78:
 542              		.loc 1 224 0
 543 02bc 001099E5 		ldr	r1, [r9]
 544 02c0 0E00A0E3 		mov	r0, #14
 545 02c4 011069E0 		rsb	r1, r9, r1
 546 02c8 111F6FE1 		clz	r1, r1
 547 02cc A112A0E1 		mov	r1, r1, lsr #5
 548 02d0 FEFFFFEB 		bl	_test_assert
 549              	.LVL79:
 550 02d4 000050E3 		cmp	r0, #0
 551 02d8 55FFFF1A 		bne	.L15
 552              		.loc 1 225 0
 553 02dc 001094E5 		ldr	r1, [r4]
 554 02e0 0F00A0E3 		mov	r0, #15
 555 02e4 011064E0 		rsb	r1, r4, r1
 556 02e8 111F6FE1 		clz	r1, r1
 557 02ec A112A0E1 		mov	r1, r1, lsr #5
 558 02f0 FEFFFFEB 		bl	_test_assert
 559              	.LVL80:
 560 02f4 4EFFFFEA 		b	.L15
 561              	.L21:
 562              		.align	2
 563              	.L20:
 564 02f8 00000000 		.word	rlist
 565 02fc 00000000 		.word	wa
 566 0300 00000000 		.word	vtlist
 567 0304 00000000 		.word	thread1
 568 0308 00000000 		.word	threads
 569 030c 00000000 		.word	.LANCHOR0
 570 0310 00000000 		.word	.LANCHOR2
ARM GAS  /tmp/ccfVcRHv.s 			page 11


 571 0314 04000000 		.word	.LC1
 572 0318 00000000 		.word	thread2
 573              		.cfi_endproc
 574              	.LFE15:
 575              		.size	evt2_execute, .-evt2_execute
 576              		.section	.text.thread2,"ax",%progbits
 577              		.align	2
 578              		.type	thread2, %function
 579              	thread2:
 580              	.LFB14:
 581              		.loc 1 144 0
 582              		.cfi_startproc
 583              		@ args = 0, pretend = 0, frame = 0
 584              		@ frame_needed = 0, uses_anonymous_args = 0
 585              	.LVL81:
 586 0000 08402DE9 		stmfd	sp!, {r3, lr}
 587              		.cfi_def_cfa_offset 8
 588              		.cfi_offset 3, -8
 589              		.cfi_offset 14, -4
 590              		.loc 1 147 0
 591 0004 0010A0E3 		mov	r1, #0
 592 0008 1C009FE5 		ldr	r0, .L24
 593              	.LVL82:
 594 000c FEFFFFEB 		bl	chEvtBroadcastFlags
 595              	.LVL83:
 596              		.loc 1 148 0
 597 0010 3200A0E3 		mov	r0, #50
 598 0014 FEFFFFEB 		bl	chThdSleep
 599              	.LVL84:
 600              		.loc 1 149 0
 601 0018 10009FE5 		ldr	r0, .L24+4
 602 001c 0010A0E3 		mov	r1, #0
 603 0020 FEFFFFEB 		bl	chEvtBroadcastFlags
 604              	.LVL85:
 605              		.loc 1 151 0
 606 0024 0000A0E3 		mov	r0, #0
 607 0028 0880BDE8 		ldmfd	sp!, {r3, pc}
 608              	.L25:
 609              		.align	2
 610              	.L24:
 611 002c 00000000 		.word	.LANCHOR0
 612 0030 00000000 		.word	.LANCHOR2
 613              		.cfi_endproc
 614              	.LFE14:
 615              		.size	thread2, .-thread2
 616              		.section	.text.thread1,"ax",%progbits
 617              		.align	2
 618              		.type	thread1, %function
 619              	thread1:
 620              	.LFB13:
 621              		.loc 1 137 0
 622              		.cfi_startproc
 623              		@ args = 0, pretend = 0, frame = 0
 624              		@ frame_needed = 0, uses_anonymous_args = 0
 625              	.LVL86:
 626 0000 10402DE9 		stmfd	sp!, {r4, lr}
 627              		.cfi_def_cfa_offset 8
ARM GAS  /tmp/ccfVcRHv.s 			page 12


 628              		.cfi_offset 4, -8
 629              		.cfi_offset 14, -4
 630              		.loc 1 137 0
 631 0004 0040A0E1 		mov	r4, r0
 632              		.loc 1 139 0
 633 0008 3200A0E3 		mov	r0, #50
 634              	.LVL87:
 635 000c FEFFFFEB 		bl	chThdSleep
 636              	.LVL88:
 637              		.loc 1 140 0
 638 0010 0400A0E1 		mov	r0, r4
 639 0014 0110A0E3 		mov	r1, #1
 640 0018 FEFFFFEB 		bl	chEvtSignal
 641              	.LVL89:
 642              		.loc 1 142 0
 643 001c 0000A0E3 		mov	r0, #0
 644 0020 1080BDE8 		ldmfd	sp!, {r4, pc}
 645              		.cfi_endproc
 646              	.LFE13:
 647              		.size	thread1, .-thread1
 648              		.section	.text.evt3_execute,"ax",%progbits
 649              		.align	2
 650              		.type	evt3_execute, %function
 651              	evt3_execute:
 652              	.LFB17:
 653              		.loc 1 256 0
 654              		.cfi_startproc
 655              		@ args = 0, pretend = 0, frame = 0
 656              		@ frame_needed = 0, uses_anonymous_args = 0
 657 0000 08402DE9 		stmfd	sp!, {r3, lr}
 658              		.cfi_def_cfa_offset 8
 659              		.cfi_offset 3, -8
 660              		.cfi_offset 14, -4
 661              		.loc 1 262 0
 662 0004 0010A0E3 		mov	r1, #0
 663 0008 0000E0E3 		mvn	r0, #0
 664 000c FEFFFFEB 		bl	chEvtWaitOneTimeout
 665              	.LVL90:
 666              		.loc 1 263 0
 667 0010 101F6FE1 		clz	r1, r0
 668 0014 0100A0E3 		mov	r0, #1
 669              	.LVL91:
 670 0018 A112A0E1 		mov	r1, r1, lsr #5
 671 001c FEFFFFEB 		bl	_test_assert
 672              	.LVL92:
 673 0020 001050E2 		subs	r1, r0, #0
 674 0024 0880BD18 		ldmnefd	sp!, {r3, pc}
 675              		.loc 1 264 0
 676 0028 0000E0E3 		mvn	r0, #0
 677 002c FEFFFFEB 		bl	chEvtWaitAnyTimeout
 678              	.LVL93:
 679              		.loc 1 265 0
 680 0030 101F6FE1 		clz	r1, r0
 681 0034 0200A0E3 		mov	r0, #2
 682              	.LVL94:
 683 0038 A112A0E1 		mov	r1, r1, lsr #5
 684 003c FEFFFFEB 		bl	_test_assert
ARM GAS  /tmp/ccfVcRHv.s 			page 13


 685              	.LVL95:
 686 0040 001050E2 		subs	r1, r0, #0
 687 0044 0880BD18 		ldmnefd	sp!, {r3, pc}
 688              		.loc 1 266 0
 689 0048 0000E0E3 		mvn	r0, #0
 690 004c FEFFFFEB 		bl	chEvtWaitAllTimeout
 691              	.LVL96:
 692              		.loc 1 267 0
 693 0050 101F6FE1 		clz	r1, r0
 694 0054 0300A0E3 		mov	r0, #3
 695              	.LVL97:
 696 0058 A112A0E1 		mov	r1, r1, lsr #5
 697 005c FEFFFFEB 		bl	_test_assert
 698              	.LVL98:
 699 0060 000050E3 		cmp	r0, #0
 700 0064 0880BD18 		ldmnefd	sp!, {r3, pc}
 701              	.LBB4:
 702              	.LBB5:
 703              		.loc 1 268 0
 704 0068 0A10A0E3 		mov	r1, #10
 705 006c 0000E0E3 		mvn	r0, #0
 706 0070 FEFFFFEB 		bl	chEvtWaitOneTimeout
 707              	.LVL99:
 708              		.loc 1 269 0
 709 0074 101F6FE1 		clz	r1, r0
 710 0078 0400A0E3 		mov	r0, #4
 711              	.LVL100:
 712 007c A112A0E1 		mov	r1, r1, lsr #5
 713 0080 FEFFFFEB 		bl	_test_assert
 714              	.LVL101:
 715 0084 000050E3 		cmp	r0, #0
 716 0088 0880BD18 		ldmnefd	sp!, {r3, pc}
 717              		.loc 1 270 0
 718 008c 0A10A0E3 		mov	r1, #10
 719 0090 0000E0E3 		mvn	r0, #0
 720 0094 FEFFFFEB 		bl	chEvtWaitAnyTimeout
 721              	.LVL102:
 722              		.loc 1 271 0
 723 0098 101F6FE1 		clz	r1, r0
 724 009c 0500A0E3 		mov	r0, #5
 725              	.LVL103:
 726 00a0 A112A0E1 		mov	r1, r1, lsr #5
 727 00a4 FEFFFFEB 		bl	_test_assert
 728              	.LVL104:
 729 00a8 000050E3 		cmp	r0, #0
 730 00ac 0880BD18 		ldmnefd	sp!, {r3, pc}
 731              		.loc 1 272 0
 732 00b0 0A10A0E3 		mov	r1, #10
 733 00b4 0000E0E3 		mvn	r0, #0
 734 00b8 FEFFFFEB 		bl	chEvtWaitAllTimeout
 735              	.LVL105:
 736              	.LBE5:
 737              	.LBE4:
 738              		.loc 1 274 0
 739 00bc 0840BDE8 		ldmfd	sp!, {r3, lr}
 740              		.cfi_restore 14
 741              		.cfi_restore 3
ARM GAS  /tmp/ccfVcRHv.s 			page 14


 742              		.cfi_def_cfa_offset 0
 743              	.LBB7:
 744              	.LBB6:
 745              		.loc 1 273 0
 746 00c0 101F6FE1 		clz	r1, r0
 747 00c4 0600A0E3 		mov	r0, #6
 748              	.LVL106:
 749 00c8 A112A0E1 		mov	r1, r1, lsr #5
 750 00cc FEFFFFEA 		b	_test_assert
 751              	.LVL107:
 752              	.LBE6:
 753              	.LBE7:
 754              		.cfi_endproc
 755              	.LFE17:
 756              		.size	evt3_execute, .-evt3_execute
 757              		.global	patternevt
 758              		.global	testevt3
 759              		.global	testevt2
 760              		.global	testevt1
 761              		.section	.rodata.patternevt,"a",%progbits
 762              		.align	2
 763              		.type	patternevt, %object
 764              		.size	patternevt, 16
 765              	patternevt:
 766 0000 00000000 		.word	testevt1
 767 0004 00000000 		.word	testevt2
 768 0008 00000000 		.word	testevt3
 769 000c 00000000 		.word	0
 770              		.section	.rodata.testevt2,"a",%progbits
 771              		.align	2
 772              		.type	testevt2, %object
 773              		.size	testevt2, 16
 774              	testevt2:
 775 0000 1C000000 		.word	.LC3
 776 0004 00000000 		.word	evt2_setup
 777 0008 00000000 		.word	0
 778 000c 00000000 		.word	evt2_execute
 779              		.section	.rodata.str1.4,"aMS",%progbits,1
 780              		.align	2
 781              	.LC0:
 782 0000 41424300 		.ascii	"ABC\000"
 783              	.LC1:
 784 0004 4100     		.ascii	"A\000"
 785 0006 0000     		.space	2
 786              	.LC2:
 787 0008 4576656E 		.ascii	"Events, timeouts\000"
 787      74732C20 
 787      74696D65 
 787      6F757473 
 787      00
 788 0019 000000   		.space	3
 789              	.LC3:
 790 001c 4576656E 		.ascii	"Events, wait and broadcast\000"
 790      74732C20 
 790      77616974 
 790      20616E64 
 790      2062726F 
ARM GAS  /tmp/ccfVcRHv.s 			page 15


 791 0037 00       		.space	1
 792              	.LC4:
 793 0038 4576656E 		.ascii	"Events, registration and dispatch\000"
 793      74732C20 
 793      72656769 
 793      73747261 
 793      74696F6E 
 794              		.section	.rodata.testevt1,"a",%progbits
 795              		.align	2
 796              		.type	testevt1, %object
 797              		.size	testevt1, 16
 798              	testevt1:
 799 0000 38000000 		.word	.LC4
 800 0004 00000000 		.word	evt1_setup
 801 0008 00000000 		.word	0
 802 000c 00000000 		.word	evt1_execute
 803              		.section	.rodata.evhndl,"a",%progbits
 804              		.align	2
 805              		.set	.LANCHOR1,. + 0
 806              		.type	evhndl, %object
 807              		.size	evhndl, 12
 808              	evhndl:
 809 0000 00000000 		.word	h1
 810 0004 00000000 		.word	h2
 811 0008 00000000 		.word	h3
 812              		.section	.rodata.testevt3,"a",%progbits
 813              		.align	2
 814              		.type	testevt3, %object
 815              		.size	testevt3, 16
 816              	testevt3:
 817 0000 08000000 		.word	.LC2
 818 0004 00000000 		.word	evt3_setup
 819 0008 00000000 		.word	0
 820 000c 00000000 		.word	evt3_execute
 821              		.section	.data.es1,"aw",%progbits
 822              		.align	2
 823              		.set	.LANCHOR0,. + 0
 824              		.type	es1, %object
 825              		.size	es1, 4
 826              	es1:
 827 0000 00000000 		.word	es1
 828              		.section	.data.es2,"aw",%progbits
 829              		.align	2
 830              		.set	.LANCHOR2,. + 0
 831              		.type	es2, %object
 832              		.size	es2, 4
 833              	es2:
 834 0000 00000000 		.word	es2
 835              		.text
 836              	.Letext0:
 837              		.file 2 "/usr/lib/gcc/arm-none-eabi/4.9.3/include/stddef.h"
 838              		.file 3 "/usr/include/newlib/machine/_default_types.h"
 839              		.file 4 "/usr/include/newlib/sys/_stdint.h"
 840              		.file 5 "../../os/ports/GCC/ARM/chtypes.h"
 841              		.file 6 "../../os/kernel/include/chlists.h"
 842              		.file 7 "../../os/kernel/include/chthreads.h"
 843              		.file 8 "../../os/ports/GCC/ARM/chcore.h"
ARM GAS  /tmp/ccfVcRHv.s 			page 16


 844              		.file 9 "../../os/kernel/include/chvt.h"
 845              		.file 10 "../../os/kernel/include/chschd.h"
 846              		.file 11 "../../os/kernel/include/chmtx.h"
 847              		.file 12 "../../os/kernel/include/chevents.h"
 848              		.file 13 "../../test/test.h"