ARM GAS  /tmp/ccXo09QA.s 			page 1


   1              		.cpu arm1176jz-s
   2              		.fpu softvfp
   3              		.eabi_attribute 20, 1
   4              		.eabi_attribute 21, 1
   5              		.eabi_attribute 23, 3
   6              		.eabi_attribute 24, 1
   7              		.eabi_attribute 25, 1
   8              		.eabi_attribute 26, 1
   9              		.eabi_attribute 30, 2
  10              		.eabi_attribute 34, 1
  11              		.eabi_attribute 18, 4
  12              		.file	"testheap.c"
  13              		.text
  14              	.Ltext0:
  15              		.cfi_sections	.debug_frame
  16              		.section	.text.heap1_execute,"ax",%progbits
  17              		.align	2
  18              		.type	heap1_execute, %function
  19              	heap1_execute:
  20              	.LFB8:
  21              		.file 1 "../../test/testheap.c"
  22              		.loc 1 73 0
  23              		.cfi_startproc
  24              		@ args = 0, pretend = 0, frame = 8
  25              		@ frame_needed = 0, uses_anonymous_args = 0
  26 0000 70402DE9 		stmfd	sp!, {r4, r5, r6, lr}
  27              		.cfi_def_cfa_offset 16
  28              		.cfi_offset 4, -16
  29              		.cfi_offset 5, -12
  30              		.cfi_offset 6, -8
  31              		.cfi_offset 14, -4
  32 0004 08D04DE2 		sub	sp, sp, #8
  33              		.cfi_def_cfa_offset 24
  34              		.loc 1 78 0
  35 0008 FEFFFFEB 		bl	chCoreStatus
  36              	.LVL0:
  37              		.loc 1 84 0
  38 000c 04108DE2 		add	r1, sp, #4
  39 0010 0000A0E3 		mov	r0, #0
  40 0014 FEFFFFEB 		bl	chHeapStatus
  41              	.LVL1:
  42              		.loc 1 85 0
  43 0018 1010A0E3 		mov	r1, #16
  44 001c 0000A0E3 		mov	r0, #0
  45 0020 FEFFFFEB 		bl	chHeapAlloc
  46              	.LVL2:
  47              		.loc 1 86 0
  48 0024 001090E2 		adds	r1, r0, #0
  49 0028 0110A013 		movne	r1, #1
  50 002c 0040A0E1 		mov	r4, r0
  51 0030 0100A0E3 		mov	r0, #1
  52              	.LVL3:
  53 0034 FEFFFFEB 		bl	_test_assert
  54              	.LVL4:
  55 0038 005050E2 		subs	r5, r0, #0
  56 003c 0100000A 		beq	.L8
  57              	.LVL5:
ARM GAS  /tmp/ccXo09QA.s 			page 2


  58              	.L1:
  59              		.loc 1 144 0
  60 0040 08D08DE2 		add	sp, sp, #8
  61              		.cfi_remember_state
  62              		.cfi_def_cfa_offset 16
  63              		@ sp needed
  64 0044 7080BDE8 		ldmfd	sp!, {r4, r5, r6, pc}
  65              	.LVL6:
  66              	.L8:
  67              		.cfi_restore_state
  68              		.loc 1 87 0
  69 0048 0400A0E1 		mov	r0, r4
  70 004c FEFFFFEB 		bl	chHeapFree
  71              	.LVL7:
  72              		.loc 1 88 0
  73 0050 FF10E0E3 		mvn	r1, #255
  74 0054 0500A0E1 		mov	r0, r5
  75 0058 FEFFFFEB 		bl	chHeapAlloc
  76              	.LVL8:
  77              		.loc 1 89 0
  78 005c 101F6FE1 		clz	r1, r0
  79 0060 0200A0E3 		mov	r0, #2
  80              	.LVL9:
  81 0064 A112A0E1 		mov	r1, r1, lsr #5
  82 0068 FEFFFFEB 		bl	_test_assert
  83              	.LVL10:
  84 006c 000050E3 		cmp	r0, #0
  85 0070 F2FFFF1A 		bne	.L1
  86              		.loc 1 92 0
  87 0074 04108DE2 		add	r1, sp, #4
  88 0078 CC029FE5 		ldr	r0, .L9
  89 007c FEFFFFEB 		bl	chHeapStatus
  90              	.LVL11:
  91              		.loc 1 95 0
  92 0080 1010A0E3 		mov	r1, #16
  93 0084 C0029FE5 		ldr	r0, .L9
  94 0088 FEFFFFEB 		bl	chHeapAlloc
  95              	.LVL12:
  96              		.loc 1 96 0
  97 008c 1010A0E3 		mov	r1, #16
  98              		.loc 1 95 0
  99 0090 0060A0E1 		mov	r6, r0
 100              	.LVL13:
 101              		.loc 1 96 0
 102 0094 B0029FE5 		ldr	r0, .L9
 103              	.LVL14:
 104 0098 FEFFFFEB 		bl	chHeapAlloc
 105              	.LVL15:
 106              		.loc 1 97 0
 107 009c 1010A0E3 		mov	r1, #16
 108              		.loc 1 96 0
 109 00a0 0050A0E1 		mov	r5, r0
 110              	.LVL16:
 111              		.loc 1 97 0
 112 00a4 A0029FE5 		ldr	r0, .L9
 113              	.LVL17:
 114 00a8 FEFFFFEB 		bl	chHeapAlloc
ARM GAS  /tmp/ccXo09QA.s 			page 3


 115              	.LVL18:
 116 00ac 0040A0E1 		mov	r4, r0
 117              	.LVL19:
 118              		.loc 1 98 0
 119 00b0 0600A0E1 		mov	r0, r6
 120              	.LVL20:
 121 00b4 FEFFFFEB 		bl	chHeapFree
 122              	.LVL21:
 123              		.loc 1 99 0
 124 00b8 0500A0E1 		mov	r0, r5
 125 00bc FEFFFFEB 		bl	chHeapFree
 126              	.LVL22:
 127              		.loc 1 100 0
 128 00c0 0400A0E1 		mov	r0, r4
 129 00c4 FEFFFFEB 		bl	chHeapFree
 130              	.LVL23:
 131              		.loc 1 101 0
 132 00c8 0D10A0E1 		mov	r1, sp
 133 00cc 78029FE5 		ldr	r0, .L9
 134 00d0 FEFFFFEB 		bl	chHeapStatus
 135              	.LVL24:
 136 00d4 011040E2 		sub	r1, r0, #1
 137 00d8 111F6FE1 		clz	r1, r1
 138 00dc 0300A0E3 		mov	r0, #3
 139 00e0 A112A0E1 		mov	r1, r1, lsr #5
 140 00e4 FEFFFFEB 		bl	_test_assert
 141              	.LVL25:
 142 00e8 000050E3 		cmp	r0, #0
 143 00ec D3FFFF1A 		bne	.L1
 144              		.loc 1 104 0
 145 00f0 1010A0E3 		mov	r1, #16
 146 00f4 50029FE5 		ldr	r0, .L9
 147 00f8 FEFFFFEB 		bl	chHeapAlloc
 148              	.LVL26:
 149              		.loc 1 105 0
 150 00fc 1010A0E3 		mov	r1, #16
 151              		.loc 1 104 0
 152 0100 0040A0E1 		mov	r4, r0
 153              	.LVL27:
 154              		.loc 1 105 0
 155 0104 40029FE5 		ldr	r0, .L9
 156              	.LVL28:
 157 0108 FEFFFFEB 		bl	chHeapAlloc
 158              	.LVL29:
 159 010c 0050A0E1 		mov	r5, r0
 160              	.LVL30:
 161              		.loc 1 106 0
 162 0110 1010A0E3 		mov	r1, #16
 163 0114 30029FE5 		ldr	r0, .L9
 164              	.LVL31:
 165 0118 FEFFFFEB 		bl	chHeapAlloc
 166              	.LVL32:
 167              		.loc 1 107 0
 168 011c FEFFFFEB 		bl	chHeapFree
 169              	.LVL33:
 170              		.loc 1 108 0
 171 0120 0500A0E1 		mov	r0, r5
ARM GAS  /tmp/ccXo09QA.s 			page 4


 172 0124 FEFFFFEB 		bl	chHeapFree
 173              	.LVL34:
 174              		.loc 1 109 0
 175 0128 0400A0E1 		mov	r0, r4
 176 012c FEFFFFEB 		bl	chHeapFree
 177              	.LVL35:
 178              		.loc 1 110 0
 179 0130 0D10A0E1 		mov	r1, sp
 180 0134 10029FE5 		ldr	r0, .L9
 181 0138 FEFFFFEB 		bl	chHeapStatus
 182              	.LVL36:
 183 013c 011040E2 		sub	r1, r0, #1
 184 0140 111F6FE1 		clz	r1, r1
 185 0144 0400A0E3 		mov	r0, #4
 186 0148 A112A0E1 		mov	r1, r1, lsr #5
 187 014c FEFFFFEB 		bl	_test_assert
 188              	.LVL37:
 189 0150 000050E3 		cmp	r0, #0
 190 0154 B9FFFF1A 		bne	.L1
 191              		.loc 1 113 0
 192 0158 1110A0E3 		mov	r1, #17
 193 015c E8019FE5 		ldr	r0, .L9
 194 0160 FEFFFFEB 		bl	chHeapAlloc
 195              	.LVL38:
 196              		.loc 1 114 0
 197 0164 1010A0E3 		mov	r1, #16
 198              		.loc 1 113 0
 199 0168 0040A0E1 		mov	r4, r0
 200              	.LVL39:
 201              		.loc 1 114 0
 202 016c D8019FE5 		ldr	r0, .L9
 203              	.LVL40:
 204 0170 FEFFFFEB 		bl	chHeapAlloc
 205              	.LVL41:
 206 0174 0050A0E1 		mov	r5, r0
 207              	.LVL42:
 208              		.loc 1 115 0
 209 0178 0400A0E1 		mov	r0, r4
 210              	.LVL43:
 211 017c FEFFFFEB 		bl	chHeapFree
 212              	.LVL44:
 213              		.loc 1 116 0
 214 0180 0D10A0E1 		mov	r1, sp
 215 0184 C0019FE5 		ldr	r0, .L9
 216 0188 FEFFFFEB 		bl	chHeapStatus
 217              	.LVL45:
 218 018c 021040E2 		sub	r1, r0, #2
 219 0190 111F6FE1 		clz	r1, r1
 220 0194 0500A0E3 		mov	r0, #5
 221 0198 A112A0E1 		mov	r1, r1, lsr #5
 222 019c FEFFFFEB 		bl	_test_assert
 223              	.LVL46:
 224 01a0 000050E3 		cmp	r0, #0
 225 01a4 A5FFFF1A 		bne	.L1
 226              		.loc 1 117 0
 227 01a8 1010A0E3 		mov	r1, #16
 228 01ac 98019FE5 		ldr	r0, .L9
ARM GAS  /tmp/ccXo09QA.s 			page 5


 229 01b0 FEFFFFEB 		bl	chHeapAlloc
 230              	.LVL47:
 231              		.loc 1 120 0
 232 01b4 0D10A0E1 		mov	r1, sp
 233              		.loc 1 117 0
 234 01b8 0040A0E1 		mov	r4, r0
 235              	.LVL48:
 236              		.loc 1 120 0
 237 01bc 88019FE5 		ldr	r0, .L9
 238              	.LVL49:
 239 01c0 FEFFFFEB 		bl	chHeapStatus
 240              	.LVL50:
 241 01c4 010050E3 		cmp	r0, #1
 242 01c8 0010A001 		moveq	r1, r0
 243 01cc 0500000A 		beq	.L3
 244              		.loc 1 120 0 is_stmt 0 discriminator 2
 245 01d0 0D10A0E1 		mov	r1, sp
 246 01d4 70019FE5 		ldr	r0, .L9
 247 01d8 FEFFFFEB 		bl	chHeapStatus
 248              	.LVL51:
 249 01dc 021040E2 		sub	r1, r0, #2
 250 01e0 111F6FE1 		clz	r1, r1
 251 01e4 A112A0E1 		mov	r1, r1, lsr #5
 252              	.L3:
 253              		.loc 1 120 0 discriminator 6
 254 01e8 0600A0E3 		mov	r0, #6
 255 01ec FEFFFFEB 		bl	_test_assert
 256              	.LVL52:
 257 01f0 000050E3 		cmp	r0, #0
 258 01f4 91FFFF1A 		bne	.L1
 259              		.loc 1 122 0 is_stmt 1
 260 01f8 0500A0E1 		mov	r0, r5
 261 01fc FEFFFFEB 		bl	chHeapFree
 262              	.LVL53:
 263              		.loc 1 123 0
 264 0200 0400A0E1 		mov	r0, r4
 265 0204 FEFFFFEB 		bl	chHeapFree
 266              	.LVL54:
 267              		.loc 1 124 0
 268 0208 0D10A0E1 		mov	r1, sp
 269 020c 38019FE5 		ldr	r0, .L9
 270 0210 FEFFFFEB 		bl	chHeapStatus
 271              	.LVL55:
 272 0214 011040E2 		sub	r1, r0, #1
 273 0218 111F6FE1 		clz	r1, r1
 274 021c 0700A0E3 		mov	r0, #7
 275 0220 A112A0E1 		mov	r1, r1, lsr #5
 276 0224 FEFFFFEB 		bl	_test_assert
 277              	.LVL56:
 278 0228 000050E3 		cmp	r0, #0
 279 022c 83FFFF1A 		bne	.L1
 280              		.loc 1 127 0
 281 0230 1010A0E3 		mov	r1, #16
 282 0234 10019FE5 		ldr	r0, .L9
 283 0238 FEFFFFEB 		bl	chHeapAlloc
 284              	.LVL57:
 285              		.loc 1 128 0
ARM GAS  /tmp/ccXo09QA.s 			page 6


 286 023c 1010A0E3 		mov	r1, #16
 287              		.loc 1 127 0
 288 0240 0050A0E1 		mov	r5, r0
 289              	.LVL58:
 290              		.loc 1 128 0
 291 0244 00019FE5 		ldr	r0, .L9
 292              	.LVL59:
 293 0248 FEFFFFEB 		bl	chHeapAlloc
 294              	.LVL60:
 295 024c 0040A0E1 		mov	r4, r0
 296              	.LVL61:
 297              		.loc 1 129 0
 298 0250 0500A0E1 		mov	r0, r5
 299              	.LVL62:
 300 0254 FEFFFFEB 		bl	chHeapFree
 301              	.LVL63:
 302              		.loc 1 130 0
 303 0258 0D10A0E1 		mov	r1, sp
 304 025c E8009FE5 		ldr	r0, .L9
 305 0260 FEFFFFEB 		bl	chHeapStatus
 306              	.LVL64:
 307 0264 021040E2 		sub	r1, r0, #2
 308 0268 111F6FE1 		clz	r1, r1
 309 026c 0800A0E3 		mov	r0, #8
 310 0270 A112A0E1 		mov	r1, r1, lsr #5
 311 0274 FEFFFFEB 		bl	_test_assert
 312              	.LVL65:
 313 0278 000050E3 		cmp	r0, #0
 314 027c 6FFFFF1A 		bne	.L1
 315              		.loc 1 131 0
 316 0280 2010A0E3 		mov	r1, #32
 317 0284 C0009FE5 		ldr	r0, .L9
 318 0288 FEFFFFEB 		bl	chHeapAlloc
 319              	.LVL66:
 320              		.loc 1 132 0
 321 028c FEFFFFEB 		bl	chHeapFree
 322              	.LVL67:
 323              		.loc 1 133 0
 324 0290 0400A0E1 		mov	r0, r4
 325 0294 FEFFFFEB 		bl	chHeapFree
 326              	.LVL68:
 327              		.loc 1 134 0
 328 0298 0D10A0E1 		mov	r1, sp
 329 029c A8009FE5 		ldr	r0, .L9
 330 02a0 FEFFFFEB 		bl	chHeapStatus
 331              	.LVL69:
 332 02a4 011040E2 		sub	r1, r0, #1
 333 02a8 111F6FE1 		clz	r1, r1
 334 02ac 0900A0E3 		mov	r0, #9
 335 02b0 A112A0E1 		mov	r1, r1, lsr #5
 336 02b4 FEFFFFEB 		bl	_test_assert
 337              	.LVL70:
 338 02b8 000050E3 		cmp	r0, #0
 339 02bc 5FFFFF1A 		bne	.L1
 340              		.loc 1 137 0
 341 02c0 0D10A0E1 		mov	r1, sp
 342 02c4 80009FE5 		ldr	r0, .L9
ARM GAS  /tmp/ccXo09QA.s 			page 7


 343 02c8 FEFFFFEB 		bl	chHeapStatus
 344              	.LVL71:
 345              		.loc 1 138 0
 346 02cc 00109DE5 		ldr	r1, [sp]
 347 02d0 74009FE5 		ldr	r0, .L9
 348 02d4 FEFFFFEB 		bl	chHeapAlloc
 349              	.LVL72:
 350              		.loc 1 139 0
 351 02d8 0D10A0E1 		mov	r1, sp
 352              		.loc 1 138 0
 353 02dc 0040A0E1 		mov	r4, r0
 354              	.LVL73:
 355              		.loc 1 139 0
 356 02e0 64009FE5 		ldr	r0, .L9
 357              	.LVL74:
 358 02e4 FEFFFFEB 		bl	chHeapStatus
 359              	.LVL75:
 360 02e8 101F6FE1 		clz	r1, r0
 361 02ec 0A00A0E3 		mov	r0, #10
 362 02f0 A112A0E1 		mov	r1, r1, lsr #5
 363 02f4 FEFFFFEB 		bl	_test_assert
 364              	.LVL76:
 365 02f8 000050E3 		cmp	r0, #0
 366 02fc 4FFFFF1A 		bne	.L1
 367              		.loc 1 140 0
 368 0300 0400A0E1 		mov	r0, r4
 369 0304 FEFFFFEB 		bl	chHeapFree
 370              	.LVL77:
 371              		.loc 1 142 0
 372 0308 0D10A0E1 		mov	r1, sp
 373 030c 38009FE5 		ldr	r0, .L9
 374 0310 FEFFFFEB 		bl	chHeapStatus
 375              	.LVL78:
 376 0314 011040E2 		sub	r1, r0, #1
 377 0318 111F6FE1 		clz	r1, r1
 378 031c 0B00A0E3 		mov	r0, #11
 379 0320 A112A0E1 		mov	r1, r1, lsr #5
 380 0324 FEFFFFEB 		bl	_test_assert
 381              	.LVL79:
 382 0328 000050E3 		cmp	r0, #0
 383 032c 43FFFF1A 		bne	.L1
 384              		.loc 1 143 0
 385 0330 0A009DE8 		ldmia	sp, {r1, r3}
 386 0334 011063E0 		rsb	r1, r3, r1
 387 0338 111F6FE1 		clz	r1, r1
 388 033c 0C00A0E3 		mov	r0, #12
 389 0340 A112A0E1 		mov	r1, r1, lsr #5
 390 0344 FEFFFFEB 		bl	_test_assert
 391              	.LVL80:
 392 0348 3CFFFFEA 		b	.L1
 393              	.L10:
 394              		.align	2
 395              	.L9:
 396 034c 00000000 		.word	.LANCHOR0
 397              		.cfi_endproc
 398              	.LFE8:
 399              		.size	heap1_execute, .-heap1_execute
ARM GAS  /tmp/ccXo09QA.s 			page 8


 400              		.section	.text.heap1_setup,"ax",%progbits
 401              		.align	2
 402              		.type	heap1_setup, %function
 403              	heap1_setup:
 404              	.LFB7:
 405              		.loc 1 68 0
 406              		.cfi_startproc
 407              		@ args = 0, pretend = 0, frame = 0
 408              		@ frame_needed = 0, uses_anonymous_args = 0
 409              		@ link register save eliminated.
 410              		.loc 1 70 0
 411 0000 08009FE5 		ldr	r0, .L12
 412 0004 08109FE5 		ldr	r1, .L12+4
 413 0008 08209FE5 		ldr	r2, .L12+8
 414 000c FEFFFFEA 		b	chHeapInit
 415              	.LVL81:
 416              	.L13:
 417              		.align	2
 418              	.L12:
 419 0010 00000000 		.word	.LANCHOR0
 420 0014 00000000 		.word	test
 421 0018 78050000 		.word	1400
 422              		.cfi_endproc
 423              	.LFE7:
 424              		.size	heap1_setup, .-heap1_setup
 425              		.global	patternheap
 426              		.global	testheap1
 427              		.section	.rodata.patternheap,"a",%progbits
 428              		.align	2
 429              		.type	patternheap, %object
 430              		.size	patternheap, 8
 431              	patternheap:
 432 0000 00000000 		.word	testheap1
 433 0004 00000000 		.word	0
 434              		.section	.rodata.str1.4,"aMS",%progbits,1
 435              		.align	2
 436              	.LC0:
 437 0000 48656170 		.ascii	"Heap, allocation and fragmentation test\000"
 437      2C20616C 
 437      6C6F6361 
 437      74696F6E 
 437      20616E64 
 438              		.section	.rodata.testheap1,"a",%progbits
 439              		.align	2
 440              		.type	testheap1, %object
 441              		.size	testheap1, 16
 442              	testheap1:
 443 0000 00000000 		.word	.LC0
 444 0004 00000000 		.word	heap1_setup
 445 0008 00000000 		.word	0
 446 000c 00000000 		.word	heap1_execute
 447              		.section	.bss.test_heap,"aw",%nobits
 448              		.align	2
 449              		.set	.LANCHOR0,. + 0
 450              		.type	test_heap, %object
 451              		.size	test_heap, 28
 452              	test_heap:
ARM GAS  /tmp/ccXo09QA.s 			page 9


 453 0000 00000000 		.space	28
 453      00000000 
 453      00000000 
 453      00000000 
 453      00000000 
 454              		.text
 455              	.Letext0:
 456              		.file 2 "/usr/lib/gcc/arm-none-eabi/4.9.3/include/stddef.h"
 457              		.file 3 "/usr/include/newlib/machine/_default_types.h"
 458              		.file 4 "/usr/include/newlib/sys/_stdint.h"
 459              		.file 5 "../../os/ports/GCC/ARM/chtypes.h"
 460              		.file 6 "../../os/kernel/include/chlists.h"
 461              		.file 7 "../../os/kernel/include/chthreads.h"
 462              		.file 8 "../../os/ports/GCC/ARM/chcore.h"
 463              		.file 9 "../../os/kernel/include/chmtx.h"
 464              		.file 10 "../../os/kernel/include/chmemcore.h"
 465              		.file 11 "../../os/kernel/include/chheap.h"
 466              		.file 12 "../../test/test.h"