ARM GAS  /tmp/ccRXM1uJ.s 			page 1


   1              		.cpu arm1176jz-s
   2              		.fpu softvfp
   3              		.eabi_attribute 20, 1
   4              		.eabi_attribute 21, 1
   5              		.eabi_attribute 23, 3
   6              		.eabi_attribute 24, 1
   7              		.eabi_attribute 25, 1
   8              		.eabi_attribute 26, 1
   9              		.eabi_attribute 30, 2
  10              		.eabi_attribute 34, 1
  11              		.eabi_attribute 18, 4
  12              		.file	"testdyn.c"
  13              		.text
  14              	.Ltext0:
  15              		.cfi_sections	.debug_frame
  16              		.section	.text.dyn1_execute,"ax",%progbits
  17              		.align	2
  18              		.type	dyn1_execute, %function
  19              	dyn1_execute:
  20              	.LFB9:
  21              		.file 1 "../../test/testdyn.c"
  22              		.loc 1 87 0
  23              		.cfi_startproc
  24              		@ args = 0, pretend = 0, frame = 8
  25              		@ frame_needed = 0, uses_anonymous_args = 0
  26 0000 70402DE9 		stmfd	sp!, {r4, r5, r6, lr}
  27              		.cfi_def_cfa_offset 16
  28              		.cfi_offset 4, -16
  29              		.cfi_offset 5, -12
  30              		.cfi_offset 6, -8
  31              		.cfi_offset 14, -4
  32              		.loc 1 90 0
  33 0004 54319FE5 		ldr	r3, .L13
  34              		.loc 1 87 0
  35 0008 10D04DE2 		sub	sp, sp, #16
  36              		.cfi_def_cfa_offset 32
  37              		.loc 1 90 0
  38 000c 183093E5 		ldr	r3, [r3, #24]
  39              		.loc 1 92 0
  40 0010 0C108DE2 		add	r1, sp, #12
  41 0014 48019FE5 		ldr	r0, .L13+4
  42              		.loc 1 90 0
  43 0018 085093E5 		ldr	r5, [r3, #8]
  44              	.LVL0:
  45              		.loc 1 92 0
  46 001c FEFFFFEB 		bl	chHeapStatus
  47              	.LVL1:
  48              		.loc 1 94 0
  49 0020 40319FE5 		ldr	r3, .L13+8
  50 0024 012045E2 		sub	r2, r5, #1
  51 0028 00308DE5 		str	r3, [sp]
  52 002c 461FA0E3 		mov	r1, #280
  53 0030 34319FE5 		ldr	r3, .L13+12
  54 0034 28019FE5 		ldr	r0, .L13+4
  55 0038 FEFFFFEB 		bl	chThdCreateFromHeap
  56              	.LVL2:
  57 003c 2C419FE5 		ldr	r4, .L13+16
ARM GAS  /tmp/ccRXM1uJ.s 			page 2


  58              		.loc 1 96 0
  59 0040 2C319FE5 		ldr	r3, .L13+20
  60 0044 022045E2 		sub	r2, r5, #2
  61              		.loc 1 94 0
  62 0048 000084E5 		str	r0, [r4]
  63              		.loc 1 96 0
  64 004c 00308DE5 		str	r3, [sp]
  65 0050 461FA0E3 		mov	r1, #280
  66 0054 10319FE5 		ldr	r3, .L13+12
  67 0058 04019FE5 		ldr	r0, .L13+4
  68 005c FEFFFFEB 		bl	chThdCreateFromHeap
  69              	.LVL3:
  70              		.loc 1 99 0
  71 0060 08108DE2 		add	r1, sp, #8
  72              		.loc 1 96 0
  73 0064 040084E5 		str	r0, [r4, #4]
  74              		.loc 1 99 0
  75 0068 F4009FE5 		ldr	r0, .L13+4
  76 006c FEFFFFEB 		bl	chHeapStatus
  77              	.LVL4:
  78              		.loc 1 100 0
  79 0070 08109DE5 		ldr	r1, [sp, #8]
  80 0074 E8009FE5 		ldr	r0, .L13+4
  81 0078 FEFFFFEB 		bl	chHeapAlloc
  82              	.LVL5:
  83              		.loc 1 101 0
  84 007c F4309FE5 		ldr	r3, .L13+24
  85 0080 461FA0E3 		mov	r1, #280
  86              		.loc 1 100 0
  87 0084 0060A0E1 		mov	r6, r0
  88              	.LVL6:
  89              		.loc 1 101 0
  90 0088 032045E2 		sub	r2, r5, #3
  91 008c 00308DE5 		str	r3, [sp]
  92 0090 CC009FE5 		ldr	r0, .L13+4
  93              	.LVL7:
  94 0094 D0309FE5 		ldr	r3, .L13+12
  95 0098 FEFFFFEB 		bl	chThdCreateFromHeap
  96              	.LVL8:
  97 009c 080084E5 		str	r0, [r4, #8]
  98              		.loc 1 103 0
  99 00a0 0600A0E1 		mov	r0, r6
 100 00a4 FEFFFFEB 		bl	chHeapFree
 101              	.LVL9:
 102              		.loc 1 105 0
 103 00a8 001094E5 		ldr	r1, [r4]
 104 00ac 000051E3 		cmp	r1, #0
 105 00b0 0600000A 		beq	.L2
 106              		.loc 1 105 0 is_stmt 0 discriminator 1
 107 00b4 041094E5 		ldr	r1, [r4, #4]
 108 00b8 000051E3 		cmp	r1, #0
 109 00bc 0300000A 		beq	.L2
 110              		.loc 1 105 0 discriminator 3
 111 00c0 081094E5 		ldr	r1, [r4, #8]
 112 00c4 000051E3 		cmp	r1, #0
 113 00c8 0010A013 		movne	r1, #0
 114 00cc 1D00000A 		beq	.L11
ARM GAS  /tmp/ccRXM1uJ.s 			page 3


 115              	.L2:
 116              		.loc 1 105 0 discriminator 12
 117 00d0 0100A0E3 		mov	r0, #1
 118 00d4 FEFFFFEB 		bl	_test_assert
 119              	.LVL10:
 120 00d8 000050E3 		cmp	r0, #0
 121 00dc 0100000A 		beq	.L12
 122              	.L1:
 123              		.loc 1 119 0 is_stmt 1
 124 00e0 10D08DE2 		add	sp, sp, #16
 125              		.cfi_remember_state
 126              		.cfi_def_cfa_offset 16
 127              		@ sp needed
 128 00e4 7080BDE8 		ldmfd	sp!, {r4, r5, r6, pc}
 129              	.LVL11:
 130              	.L12:
 131              		.cfi_restore_state
 132              		.loc 1 113 0
 133 00e8 FEFFFFEB 		bl	test_wait_threads
 134              	.LVL12:
 135              		.loc 1 114 0
 136 00ec 0200A0E3 		mov	r0, #2
 137 00f0 84109FE5 		ldr	r1, .L13+28
 138 00f4 FEFFFFEB 		bl	_test_assert_sequence
 139              	.LVL13:
 140 00f8 000050E3 		cmp	r0, #0
 141 00fc F7FFFF1A 		bne	.L1
 142              		.loc 1 117 0
 143 0100 08108DE2 		add	r1, sp, #8
 144 0104 58009FE5 		ldr	r0, .L13+4
 145 0108 FEFFFFEB 		bl	chHeapStatus
 146              	.LVL14:
 147 010c 011040E2 		sub	r1, r0, #1
 148 0110 111F6FE1 		clz	r1, r1
 149 0114 0300A0E3 		mov	r0, #3
 150 0118 A112A0E1 		mov	r1, r1, lsr #5
 151 011c FEFFFFEB 		bl	_test_assert
 152              	.LVL15:
 153 0120 000050E3 		cmp	r0, #0
 154 0124 EDFFFF1A 		bne	.L1
 155              		.loc 1 118 0
 156 0128 08109DE5 		ldr	r1, [sp, #8]
 157 012c 0C309DE5 		ldr	r3, [sp, #12]
 158 0130 0400A0E3 		mov	r0, #4
 159 0134 011063E0 		rsb	r1, r3, r1
 160 0138 111F6FE1 		clz	r1, r1
 161 013c A112A0E1 		mov	r1, r1, lsr #5
 162 0140 FEFFFFEB 		bl	_test_assert
 163              	.LVL16:
 164 0144 E5FFFFEA 		b	.L1
 165              	.L11:
 166              		.loc 1 105 0 discriminator 5
 167 0148 0C3094E5 		ldr	r3, [r4, #12]
 168 014c 000053E3 		cmp	r3, #0
 169 0150 10109405 		ldreq	r1, [r4, #16]
 170 0154 111F6F01 		clzeq	r1, r1
 171 0158 A112A001 		moveq	r1, r1, lsr #5
ARM GAS  /tmp/ccRXM1uJ.s 			page 4


 172 015c DBFFFFEA 		b	.L2
 173              	.L14:
 174              		.align	2
 175              	.L13:
 176 0160 00000000 		.word	rlist
 177 0164 00000000 		.word	.LANCHOR0
 178 0168 00000000 		.word	.LC0
 179 016c 00000000 		.word	thread
 180 0170 00000000 		.word	threads
 181 0174 04000000 		.word	.LC1
 182 0178 08000000 		.word	.LC2
 183 017c 0C000000 		.word	.LC3
 184              		.cfi_endproc
 185              	.LFE9:
 186              		.size	dyn1_execute, .-dyn1_execute
 187              		.section	.text.thread,"ax",%progbits
 188              		.align	2
 189              		.type	thread, %function
 190              	thread:
 191              	.LFB7:
 192              		.loc 1 75 0
 193              		.cfi_startproc
 194              		@ args = 0, pretend = 0, frame = 0
 195              		@ frame_needed = 0, uses_anonymous_args = 0
 196              	.LVL17:
 197 0000 08402DE9 		stmfd	sp!, {r3, lr}
 198              		.cfi_def_cfa_offset 8
 199              		.cfi_offset 3, -8
 200              		.cfi_offset 14, -4
 201              		.loc 1 77 0
 202 0004 0000D0E5 		ldrb	r0, [r0]	@ zero_extendqisi2
 203              	.LVL18:
 204 0008 FEFFFFEB 		bl	test_emit_token
 205              	.LVL19:
 206              		.loc 1 79 0
 207 000c 0000A0E3 		mov	r0, #0
 208 0010 0880BDE8 		ldmfd	sp!, {r3, pc}
 209              		.cfi_endproc
 210              	.LFE7:
 211              		.size	thread, .-thread
 212              		.section	.text.dyn1_setup,"ax",%progbits
 213              		.align	2
 214              		.type	dyn1_setup, %function
 215              	dyn1_setup:
 216              	.LFB8:
 217              		.loc 1 82 0
 218              		.cfi_startproc
 219              		@ args = 0, pretend = 0, frame = 0
 220              		@ frame_needed = 0, uses_anonymous_args = 0
 221              		@ link register save eliminated.
 222              		.loc 1 84 0
 223 0000 08009FE5 		ldr	r0, .L18
 224 0004 08109FE5 		ldr	r1, .L18+4
 225 0008 08209FE5 		ldr	r2, .L18+8
 226 000c FEFFFFEA 		b	chHeapInit
 227              	.LVL20:
 228              	.L19:
ARM GAS  /tmp/ccRXM1uJ.s 			page 5


 229              		.align	2
 230              	.L18:
 231 0010 00000000 		.word	.LANCHOR0
 232 0014 00000000 		.word	test
 233 0018 78050000 		.word	1400
 234              		.cfi_endproc
 235              	.LFE8:
 236              		.size	dyn1_setup, .-dyn1_setup
 237              		.section	.text.dyn3_setup,"ax",%progbits
 238              		.align	2
 239              		.type	dyn3_setup, %function
 240              	dyn3_setup:
 241              	.LFB11:
 242              		.loc 1 207 0
 243              		.cfi_startproc
 244              		@ args = 0, pretend = 0, frame = 0
 245              		@ frame_needed = 0, uses_anonymous_args = 0
 246              		@ link register save eliminated.
 247              		.loc 1 209 0
 248 0000 08009FE5 		ldr	r0, .L21
 249 0004 08109FE5 		ldr	r1, .L21+4
 250 0008 08209FE5 		ldr	r2, .L21+8
 251 000c FEFFFFEA 		b	chHeapInit
 252              	.LVL21:
 253              	.L22:
 254              		.align	2
 255              	.L21:
 256 0010 00000000 		.word	.LANCHOR0
 257 0014 00000000 		.word	test
 258 0018 78050000 		.word	1400
 259              		.cfi_endproc
 260              	.LFE11:
 261              		.size	dyn3_setup, .-dyn3_setup
 262              		.section	.text.regfind,"ax",%progbits
 263              		.align	2
 264              		.type	regfind, %function
 265              	regfind:
 266              	.LFB10:
 267              		.loc 1 195 0
 268              		.cfi_startproc
 269              		@ args = 0, pretend = 0, frame = 0
 270              		@ frame_needed = 0, uses_anonymous_args = 0
 271              	.LVL22:
 272 0000 38402DE9 		stmfd	sp!, {r3, r4, r5, lr}
 273              		.cfi_def_cfa_offset 16
 274              		.cfi_offset 3, -16
 275              		.cfi_offset 4, -12
 276              		.cfi_offset 5, -8
 277              		.cfi_offset 14, -4
 278              		.loc 1 195 0
 279 0004 0050A0E1 		mov	r5, r0
 280              		.loc 1 199 0
 281 0008 FEFFFFEB 		bl	chRegFirstThread
 282              	.LVL23:
 283              		.loc 1 197 0
 284 000c 0040A0E3 		mov	r4, #0
 285              		.loc 1 199 0
ARM GAS  /tmp/ccRXM1uJ.s 			page 6


 286 0010 0030A0E1 		mov	r3, r0
 287              	.LVL24:
 288              	.L24:
 289              		.loc 1 202 0 discriminator 1
 290 0014 0300A0E1 		mov	r0, r3
 291              		.loc 1 201 0 discriminator 1
 292 0018 050053E1 		cmp	r3, r5
 293 001c 01408403 		orreq	r4, r4, #1
 294              	.LVL25:
 295              		.loc 1 202 0 discriminator 1
 296 0020 FEFFFFEB 		bl	chRegNextThread
 297              	.LVL26:
 298              		.loc 1 203 0 discriminator 1
 299 0024 003050E2 		subs	r3, r0, #0
 300 0028 F9FFFF1A 		bne	.L24
 301              		.loc 1 205 0
 302 002c 0400A0E1 		mov	r0, r4
 303              	.LVL27:
 304 0030 3880BDE8 		ldmfd	sp!, {r3, r4, r5, pc}
 305              		.cfi_endproc
 306              	.LFE10:
 307              		.size	regfind, .-regfind
 308              		.section	.text.dyn3_execute,"ax",%progbits
 309              		.align	2
 310              		.type	dyn3_execute, %function
 311              	dyn3_execute:
 312              	.LFB12:
 313              		.loc 1 212 0
 314              		.cfi_startproc
 315              		@ args = 0, pretend = 0, frame = 0
 316              		@ frame_needed = 0, uses_anonymous_args = 0
 317              	.LVL28:
 318 0000 10402DE9 		stmfd	sp!, {r4, lr}
 319              		.cfi_def_cfa_offset 8
 320              		.cfi_offset 4, -8
 321              		.cfi_offset 14, -4
 322              		.loc 1 214 0
 323 0004 B4219FE5 		ldr	r2, .L33
 324              		.loc 1 217 0
 325 0008 B4319FE5 		ldr	r3, .L33+4
 326              		.loc 1 214 0
 327 000c 182092E5 		ldr	r2, [r2, #24]
 328              		.loc 1 212 0
 329 0010 08D04DE2 		sub	sp, sp, #8
 330              		.cfi_def_cfa_offset 16
 331              		.loc 1 217 0
 332 0014 082092E5 		ldr	r2, [r2, #8]
 333 0018 461FA0E3 		mov	r1, #280
 334 001c 012042E2 		sub	r2, r2, #1
 335 0020 00308DE5 		str	r3, [sp]
 336              	.LVL29:
 337 0024 9C019FE5 		ldr	r0, .L33+8
 338 0028 9C319FE5 		ldr	r3, .L33+12
 339 002c FEFFFFEB 		bl	chThdCreateFromHeap
 340              	.LVL30:
 341              		.loc 1 218 0
 342 0030 1E10D0E5 		ldrb	r1, [r0, #30]	@ zero_extendqisi2
ARM GAS  /tmp/ccRXM1uJ.s 			page 7


 343              		.loc 1 217 0
 344 0034 0040A0E1 		mov	r4, r0
 345              	.LVL31:
 346              		.loc 1 218 0
 347 0038 0100A0E3 		mov	r0, #1
 348              	.LVL32:
 349 003c 011060E0 		rsb	r1, r0, r1
 350 0040 111F6FE1 		clz	r1, r1
 351 0044 A112A0E1 		mov	r1, r1, lsr #5
 352 0048 FEFFFFEB 		bl	_test_assert
 353              	.LVL33:
 354 004c 000050E3 		cmp	r0, #0
 355 0050 0100000A 		beq	.L32
 356              	.L27:
 357              		.loc 1 240 0
 358 0054 08D08DE2 		add	sp, sp, #8
 359              		.cfi_remember_state
 360              		.cfi_def_cfa_offset 8
 361              		@ sp needed
 362 0058 1080BDE8 		ldmfd	sp!, {r4, pc}
 363              	.LVL34:
 364              	.L32:
 365              		.cfi_restore_state
 366              		.loc 1 219 0
 367 005c 0400A0E1 		mov	r0, r4
 368 0060 FEFFFFEB 		bl	chThdAddRef
 369              	.LVL35:
 370              		.loc 1 220 0
 371 0064 0200A0E3 		mov	r0, #2
 372 0068 1E10D4E5 		ldrb	r1, [r4, #30]	@ zero_extendqisi2
 373 006c 011060E0 		rsb	r1, r0, r1
 374 0070 111F6FE1 		clz	r1, r1
 375 0074 A112A0E1 		mov	r1, r1, lsr #5
 376 0078 FEFFFFEB 		bl	_test_assert
 377              	.LVL36:
 378 007c 000050E3 		cmp	r0, #0
 379 0080 F3FFFF1A 		bne	.L27
 380              		.loc 1 221 0
 381 0084 0400A0E1 		mov	r0, r4
 382 0088 FEFFFFEB 		bl	chThdRelease
 383              	.LVL37:
 384              		.loc 1 222 0
 385 008c 1E10D4E5 		ldrb	r1, [r4, #30]	@ zero_extendqisi2
 386 0090 0300A0E3 		mov	r0, #3
 387 0094 011041E2 		sub	r1, r1, #1
 388 0098 111F6FE1 		clz	r1, r1
 389 009c A112A0E1 		mov	r1, r1, lsr #5
 390 00a0 FEFFFFEB 		bl	_test_assert
 391              	.LVL38:
 392 00a4 000050E3 		cmp	r0, #0
 393 00a8 E9FFFF1A 		bne	.L27
 394              		.loc 1 225 0
 395 00ac 0400A0E1 		mov	r0, r4
 396 00b0 FEFFFFEB 		bl	regfind
 397              	.LVL39:
 398 00b4 0010A0E1 		mov	r1, r0
 399 00b8 0400A0E3 		mov	r0, #4
ARM GAS  /tmp/ccRXM1uJ.s 			page 8


 400 00bc FEFFFFEB 		bl	_test_assert
 401              	.LVL40:
 402 00c0 000050E3 		cmp	r0, #0
 403 00c4 E2FFFF1A 		bne	.L27
 404              		.loc 1 226 0
 405 00c8 0400A0E1 		mov	r0, r4
 406 00cc FEFFFFEB 		bl	regfind
 407              	.LVL41:
 408 00d0 0010A0E1 		mov	r1, r0
 409 00d4 0500A0E3 		mov	r0, #5
 410 00d8 FEFFFFEB 		bl	_test_assert
 411              	.LVL42:
 412 00dc 000050E3 		cmp	r0, #0
 413 00e0 DBFFFF1A 		bne	.L27
 414              		.loc 1 229 0
 415 00e4 0400A0E1 		mov	r0, r4
 416 00e8 FEFFFFEB 		bl	chThdRelease
 417              	.LVL43:
 418              		.loc 1 230 0
 419 00ec 1E10D4E5 		ldrb	r1, [r4, #30]	@ zero_extendqisi2
 420 00f0 0600A0E3 		mov	r0, #6
 421 00f4 111F6FE1 		clz	r1, r1
 422 00f8 A112A0E1 		mov	r1, r1, lsr #5
 423 00fc FEFFFFEB 		bl	_test_assert
 424              	.LVL44:
 425 0100 000050E3 		cmp	r0, #0
 426 0104 D2FFFF1A 		bne	.L27
 427              		.loc 1 231 0
 428 0108 1C10D4E5 		ldrb	r1, [r4, #28]	@ zero_extendqisi2
 429 010c 0700A0E3 		mov	r0, #7
 430 0110 111F6FE1 		clz	r1, r1
 431 0114 A112A0E1 		mov	r1, r1, lsr #5
 432 0118 FEFFFFEB 		bl	_test_assert
 433              	.LVL45:
 434 011c 000050E3 		cmp	r0, #0
 435 0120 CBFFFF1A 		bne	.L27
 436              		.loc 1 232 0
 437 0124 0400A0E1 		mov	r0, r4
 438 0128 FEFFFFEB 		bl	regfind
 439              	.LVL46:
 440 012c 0010A0E1 		mov	r1, r0
 441 0130 0800A0E3 		mov	r0, #8
 442 0134 FEFFFFEB 		bl	_test_assert
 443              	.LVL47:
 444 0138 000050E3 		cmp	r0, #0
 445 013c C4FFFF1A 		bne	.L27
 446              		.loc 1 233 0
 447 0140 0400A0E1 		mov	r0, r4
 448 0144 FEFFFFEB 		bl	regfind
 449              	.LVL48:
 450 0148 0010A0E1 		mov	r1, r0
 451 014c 0900A0E3 		mov	r0, #9
 452 0150 FEFFFFEB 		bl	_test_assert
 453              	.LVL49:
 454 0154 000050E3 		cmp	r0, #0
 455 0158 BDFFFF1A 		bne	.L27
 456              		.loc 1 234 0
ARM GAS  /tmp/ccRXM1uJ.s 			page 9


 457 015c 3200A0E3 		mov	r0, #50
 458 0160 FEFFFFEB 		bl	chThdSleep
 459              	.LVL50:
 460              		.loc 1 235 0
 461 0164 1C10D4E5 		ldrb	r1, [r4, #28]	@ zero_extendqisi2
 462 0168 0A00A0E3 		mov	r0, #10
 463 016c 0E1041E2 		sub	r1, r1, #14
 464 0170 111F6FE1 		clz	r1, r1
 465 0174 A112A0E1 		mov	r1, r1, lsr #5
 466 0178 FEFFFFEB 		bl	_test_assert
 467              	.LVL51:
 468 017c 000050E3 		cmp	r0, #0
 469 0180 B3FFFF1A 		bne	.L27
 470              		.loc 1 238 0
 471 0184 0400A0E1 		mov	r0, r4
 472 0188 FEFFFFEB 		bl	regfind
 473              	.LVL52:
 474 018c 0010A0E1 		mov	r1, r0
 475 0190 0B00A0E3 		mov	r0, #11
 476 0194 FEFFFFEB 		bl	_test_assert
 477              	.LVL53:
 478 0198 000050E3 		cmp	r0, #0
 479 019c ACFFFF1A 		bne	.L27
 480              		.loc 1 239 0
 481 01a0 0400A0E1 		mov	r0, r4
 482 01a4 FEFFFFEB 		bl	regfind
 483              	.LVL54:
 484 01a8 101F6FE1 		clz	r1, r0
 485 01ac 0C00A0E3 		mov	r0, #12
 486 01b0 A112A0E1 		mov	r1, r1, lsr #5
 487              		.loc 1 240 0
 488 01b4 08D08DE2 		add	sp, sp, #8
 489              		.cfi_def_cfa_offset 8
 490              		@ sp needed
 491 01b8 1040BDE8 		ldmfd	sp!, {r4, lr}
 492              		.cfi_restore 14
 493              		.cfi_restore 4
 494              		.cfi_def_cfa_offset 0
 495              	.LVL55:
 496              		.loc 1 239 0
 497 01bc FEFFFFEA 		b	_test_assert
 498              	.LVL56:
 499              	.L34:
 500              		.align	2
 501              	.L33:
 502 01c0 00000000 		.word	rlist
 503 01c4 00000000 		.word	.LC0
 504 01c8 00000000 		.word	.LANCHOR0
 505 01cc 00000000 		.word	thread
 506              		.cfi_endproc
 507              	.LFE12:
 508              		.size	dyn3_execute, .-dyn3_execute
 509              		.global	patterndyn
 510              		.global	testdyn3
 511              		.global	testdyn1
 512              		.section	.rodata.testdyn1,"a",%progbits
 513              		.align	2
ARM GAS  /tmp/ccRXM1uJ.s 			page 10


 514              		.type	testdyn1, %object
 515              		.size	testdyn1, 16
 516              	testdyn1:
 517 0000 38000000 		.word	.LC5
 518 0004 00000000 		.word	dyn1_setup
 519 0008 00000000 		.word	0
 520 000c 00000000 		.word	dyn1_execute
 521              		.section	.rodata.testdyn3,"a",%progbits
 522              		.align	2
 523              		.type	testdyn3, %object
 524              		.size	testdyn3, 16
 525              	testdyn3:
 526 0000 10000000 		.word	.LC4
 527 0004 00000000 		.word	dyn3_setup
 528 0008 00000000 		.word	0
 529 000c 00000000 		.word	dyn3_execute
 530              		.section	.rodata.str1.4,"aMS",%progbits,1
 531              		.align	2
 532              	.LC0:
 533 0000 4100     		.ascii	"A\000"
 534 0002 0000     		.space	2
 535              	.LC1:
 536 0004 4200     		.ascii	"B\000"
 537 0006 0000     		.space	2
 538              	.LC2:
 539 0008 4300     		.ascii	"C\000"
 540 000a 0000     		.space	2
 541              	.LC3:
 542 000c 414200   		.ascii	"AB\000"
 543 000f 00       		.space	1
 544              	.LC4:
 545 0010 44796E61 		.ascii	"Dynamic APIs, registry and references\000"
 545      6D696320 
 545      41504973 
 545      2C207265 
 545      67697374 
 546 0036 0000     		.space	2
 547              	.LC5:
 548 0038 44796E61 		.ascii	"Dynamic APIs, threads creation from heap\000"
 548      6D696320 
 548      41504973 
 548      2C207468 
 548      72656164 
 549              		.section	.rodata.patterndyn,"a",%progbits
 550              		.align	2
 551              		.type	patterndyn, %object
 552              		.size	patterndyn, 12
 553              	patterndyn:
 554 0000 00000000 		.word	testdyn1
 555 0004 00000000 		.word	testdyn3
 556 0008 00000000 		.word	0
 557              		.section	.bss.heap1,"aw",%nobits
 558              		.align	2
 559              		.set	.LANCHOR0,. + 0
 560              		.type	heap1, %object
 561              		.size	heap1, 28
 562              	heap1:
ARM GAS  /tmp/ccRXM1uJ.s 			page 11


 563 0000 00000000 		.space	28
 563      00000000 
 563      00000000 
 563      00000000 
 563      00000000 
 564              		.text
 565              	.Letext0:
 566              		.file 2 "/usr/lib/gcc/arm-none-eabi/4.9.3/include/stddef.h"
 567              		.file 3 "/usr/include/newlib/machine/_default_types.h"
 568              		.file 4 "/usr/include/newlib/sys/_stdint.h"
 569              		.file 5 "../../os/ports/GCC/ARM/chtypes.h"
 570              		.file 6 "../../os/kernel/include/chlists.h"
 571              		.file 7 "../../os/kernel/include/chthreads.h"
 572              		.file 8 "../../os/ports/GCC/ARM/chcore.h"
 573              		.file 9 "../../os/kernel/include/chschd.h"
 574              		.file 10 "../../os/kernel/include/chmtx.h"
 575              		.file 11 "../../os/kernel/include/chmemcore.h"
 576              		.file 12 "../../os/kernel/include/chheap.h"
 577              		.file 13 "../../test/test.h"
 578              		.file 14 "../../os/kernel/include/chdynamic.h"
 579              		.file 15 "../../os/kernel/include/chregistry.h"