ARM GAS  /tmp/ccIAyMaf.s 			page 1


   1              		.cpu arm1176jz-s
   2              		.fpu softvfp
   3              		.eabi_attribute 20, 1
   4              		.eabi_attribute 21, 1
   5              		.eabi_attribute 23, 3
   6              		.eabi_attribute 24, 1
   7              		.eabi_attribute 25, 1
   8              		.eabi_attribute 26, 1
   9              		.eabi_attribute 30, 2
  10              		.eabi_attribute 34, 1
  11              		.eabi_attribute 18, 4
  12              		.file	"testsem.c"
  13              		.text
  14              	.Ltext0:
  15              		.cfi_sections	.debug_frame
  16              		.section	.text.sem1_execute,"ax",%progbits
  17              		.align	2
  18              		.type	sem1_execute, %function
  19              	sem1_execute:
  20              	.LFB9:
  21              		.file 1 "../../test/testsem.c"
  22              		.loc 1 88 0
  23              		.cfi_startproc
  24              		@ args = 0, pretend = 0, frame = 0
  25              		@ frame_needed = 0, uses_anonymous_args = 0
  26 0000 F0412DE9 		stmfd	sp!, {r4, r5, r6, r7, r8, lr}
  27              		.cfi_def_cfa_offset 24
  28              		.cfi_offset 4, -24
  29              		.cfi_offset 5, -20
  30              		.cfi_offset 6, -16
  31              		.cfi_offset 7, -12
  32              		.cfi_offset 8, -8
  33              		.cfi_offset 14, -4
  34              		.loc 1 90 0
  35 0004 8C619FE5 		ldr	r6, .L6
  36 0008 8C419FE5 		ldr	r4, .L6+4
  37 000c 183096E5 		ldr	r3, [r6, #24]
  38 0010 008094E5 		ldr	r8, [r4]
  39 0014 082093E5 		ldr	r2, [r3, #8]
  40 0018 80719FE5 		ldr	r7, .L6+8
  41              		.loc 1 88 0
  42 001c 08D04DE2 		sub	sp, sp, #8
  43              		.cfi_def_cfa_offset 32
  44              		.loc 1 90 0
  45 0020 052082E2 		add	r2, r2, #5
  46 0024 461FA0E3 		mov	r1, #280
  47 0028 74319FE5 		ldr	r3, .L6+12
  48 002c 0800A0E1 		mov	r0, r8
  49 0030 00708DE5 		str	r7, [sp]
  50 0034 FEFFFFEB 		bl	chThdCreateStatic
  51              	.LVL0:
  52              		.loc 1 91 0
  53 0038 183096E5 		ldr	r3, [r6, #24]
  54              		.loc 1 90 0
  55 003c 64519FE5 		ldr	r5, .L6+16
  56              		.loc 1 91 0
  57 0040 082093E5 		ldr	r2, [r3, #8]
ARM GAS  /tmp/ccIAyMaf.s 			page 2


  58 0044 041094E5 		ldr	r1, [r4, #4]
  59 0048 5C319FE5 		ldr	r3, .L6+20
  60              		.loc 1 90 0
  61 004c 000085E5 		str	r0, [r5]
  62              		.loc 1 91 0
  63 0050 012082E2 		add	r2, r2, #1
  64 0054 0100A0E1 		mov	r0, r1
  65 0058 00308DE5 		str	r3, [sp]
  66 005c 461FA0E3 		mov	r1, #280
  67 0060 3C319FE5 		ldr	r3, .L6+12
  68 0064 FEFFFFEB 		bl	chThdCreateStatic
  69              	.LVL1:
  70              		.loc 1 92 0
  71 0068 183096E5 		ldr	r3, [r6, #24]
  72 006c 081094E5 		ldr	r1, [r4, #8]
  73 0070 082093E5 		ldr	r2, [r3, #8]
  74 0074 34319FE5 		ldr	r3, .L6+24
  75              		.loc 1 91 0
  76 0078 040085E5 		str	r0, [r5, #4]
  77              		.loc 1 92 0
  78 007c 032082E2 		add	r2, r2, #3
  79 0080 0100A0E1 		mov	r0, r1
  80 0084 00308DE5 		str	r3, [sp]
  81 0088 461FA0E3 		mov	r1, #280
  82 008c 10319FE5 		ldr	r3, .L6+12
  83 0090 FEFFFFEB 		bl	chThdCreateStatic
  84              	.LVL2:
  85              		.loc 1 93 0
  86 0094 183096E5 		ldr	r3, [r6, #24]
  87 0098 0C1094E5 		ldr	r1, [r4, #12]
  88 009c 082093E5 		ldr	r2, [r3, #8]
  89 00a0 0C319FE5 		ldr	r3, .L6+28
  90              		.loc 1 92 0
  91 00a4 080085E5 		str	r0, [r5, #8]
  92              		.loc 1 93 0
  93 00a8 042082E2 		add	r2, r2, #4
  94 00ac 0100A0E1 		mov	r0, r1
  95 00b0 00308DE5 		str	r3, [sp]
  96 00b4 461FA0E3 		mov	r1, #280
  97 00b8 E4309FE5 		ldr	r3, .L6+12
  98 00bc FEFFFFEB 		bl	chThdCreateStatic
  99              	.LVL3:
 100              		.loc 1 94 0
 101 00c0 183096E5 		ldr	r3, [r6, #24]
 102 00c4 101094E5 		ldr	r1, [r4, #16]
 103 00c8 082093E5 		ldr	r2, [r3, #8]
 104 00cc E4309FE5 		ldr	r3, .L6+32
 105 00d0 022082E2 		add	r2, r2, #2
 106              		.loc 1 93 0
 107 00d4 0C0085E5 		str	r0, [r5, #12]
 108              		.loc 1 94 0
 109 00d8 00308DE5 		str	r3, [sp]
 110 00dc 0100A0E1 		mov	r0, r1
 111 00e0 BC309FE5 		ldr	r3, .L6+12
 112 00e4 461FA0E3 		mov	r1, #280
 113 00e8 FEFFFFEB 		bl	chThdCreateStatic
 114              	.LVL4:
ARM GAS  /tmp/ccIAyMaf.s 			page 3


 115              		.loc 1 95 0
 116 00ec C8409FE5 		ldr	r4, .L6+36
 117              		.loc 1 94 0
 118 00f0 100085E5 		str	r0, [r5, #16]
 119              		.loc 1 95 0
 120 00f4 0400A0E1 		mov	r0, r4
 121 00f8 FEFFFFEB 		bl	chSemSignal
 122              	.LVL5:
 123              		.loc 1 96 0
 124 00fc 0400A0E1 		mov	r0, r4
 125 0100 FEFFFFEB 		bl	chSemSignal
 126              	.LVL6:
 127              		.loc 1 97 0
 128 0104 0400A0E1 		mov	r0, r4
 129 0108 FEFFFFEB 		bl	chSemSignal
 130              	.LVL7:
 131              		.loc 1 98 0
 132 010c 0400A0E1 		mov	r0, r4
 133 0110 FEFFFFEB 		bl	chSemSignal
 134              	.LVL8:
 135              		.loc 1 99 0
 136 0114 0400A0E1 		mov	r0, r4
 137 0118 FEFFFFEB 		bl	chSemSignal
 138              	.LVL9:
 139              		.loc 1 100 0
 140 011c FEFFFFEB 		bl	test_wait_threads
 141              	.LVL10:
 142              		.loc 1 104 0
 143 0120 0100A0E3 		mov	r0, #1
 144 0124 94109FE5 		ldr	r1, .L6+40
 145 0128 FEFFFFEB 		bl	_test_assert_sequence
 146              	.LVL11:
 147 012c 000050E3 		cmp	r0, #0
 148 0130 0100000A 		beq	.L5
 149              		.loc 1 112 0
 150 0134 08D08DE2 		add	sp, sp, #8
 151              		.cfi_remember_state
 152              		.cfi_def_cfa_offset 24
 153              		@ sp needed
 154 0138 F081BDE8 		ldmfd	sp!, {r4, r5, r6, r7, r8, pc}
 155              	.L5:
 156              		.cfi_restore_state
 157              		.loc 1 106 0
 158 013c 183096E5 		ldr	r3, [r6, #24]
 159 0140 0800A0E1 		mov	r0, r8
 160 0144 082093E5 		ldr	r2, [r3, #8]
 161 0148 461FA0E3 		mov	r1, #280
 162 014c 052082E2 		add	r2, r2, #5
 163 0150 00708DE5 		str	r7, [sp]
 164 0154 48309FE5 		ldr	r3, .L6+12
 165 0158 FEFFFFEB 		bl	chThdCreateStatic
 166              	.LVL12:
 167 015c 000085E5 		str	r0, [r5]
 168              		.loc 1 107 0
 169              	@ 107 "../../test/testsem.c" 1
 170 0160 9FF021E3 		msr     CPSR_c, #0x9F
 171              	@ 0 "" 2
ARM GAS  /tmp/ccIAyMaf.s 			page 4


 172              		.loc 1 108 0
 173 0164 0210A0E3 		mov	r1, #2
 174 0168 0400A0E1 		mov	r0, r4
 175 016c FEFFFFEB 		bl	chSemAddCounterI
 176              	.LVL13:
 177              		.loc 1 109 0
 178              	@ 109 "../../test/testsem.c" 1
 179 0170 1FF021E3 		msr     CPSR_c, #0x1F
 180              	@ 0 "" 2
 181              		.loc 1 110 0
 182 0174 FEFFFFEB 		bl	test_wait_threads
 183              	.LVL14:
 184              		.loc 1 111 0
 185 0178 081094E5 		ldr	r1, [r4, #8]
 186 017c 0200A0E3 		mov	r0, #2
 187 0180 011041E2 		sub	r1, r1, #1
 188 0184 111F6FE1 		clz	r1, r1
 189 0188 A112A0E1 		mov	r1, r1, lsr #5
 190              		.loc 1 112 0
 191 018c 08D08DE2 		add	sp, sp, #8
 192              		.cfi_def_cfa_offset 24
 193              		@ sp needed
 194 0190 F041BDE8 		ldmfd	sp!, {r4, r5, r6, r7, r8, lr}
 195              		.cfi_restore 14
 196              		.cfi_restore 8
 197              		.cfi_restore 7
 198              		.cfi_restore 6
 199              		.cfi_restore 5
 200              		.cfi_restore 4
 201              		.cfi_def_cfa_offset 0
 202              		.loc 1 111 0
 203 0194 FEFFFFEA 		b	_test_assert
 204              	.LVL15:
 205              	.L7:
 206              		.align	2
 207              	.L6:
 208 0198 00000000 		.word	rlist
 209 019c 00000000 		.word	wa
 210 01a0 00000000 		.word	.LC0
 211 01a4 00000000 		.word	thread1
 212 01a8 00000000 		.word	threads
 213 01ac 04000000 		.word	.LC1
 214 01b0 08000000 		.word	.LC2
 215 01b4 0C000000 		.word	.LC3
 216 01b8 10000000 		.word	.LC4
 217 01bc 00000000 		.word	.LANCHOR0
 218 01c0 14000000 		.word	.LC5
 219              		.cfi_endproc
 220              	.LFE9:
 221              		.size	sem1_execute, .-sem1_execute
 222              		.section	.text.thread3,"ax",%progbits
 223              		.align	2
 224              		.type	thread3, %function
 225              	thread3:
 226              	.LFB14:
 227              		.loc 1 213 0
 228              		.cfi_startproc
ARM GAS  /tmp/ccIAyMaf.s 			page 5


 229              		@ args = 0, pretend = 0, frame = 0
 230              		@ frame_needed = 0, uses_anonymous_args = 0
 231              	.LVL16:
 232 0000 10402DE9 		stmfd	sp!, {r4, lr}
 233              		.cfi_def_cfa_offset 8
 234              		.cfi_offset 4, -8
 235              		.cfi_offset 14, -4
 236              		.loc 1 216 0
 237 0004 14409FE5 		ldr	r4, .L10
 238 0008 0400A0E1 		mov	r0, r4
 239              	.LVL17:
 240 000c FEFFFFEB 		bl	chSemWait
 241              	.LVL18:
 242              		.loc 1 217 0
 243 0010 0400A0E1 		mov	r0, r4
 244 0014 FEFFFFEB 		bl	chSemSignal
 245              	.LVL19:
 246              		.loc 1 219 0
 247 0018 0000A0E3 		mov	r0, #0
 248 001c 1080BDE8 		ldmfd	sp!, {r4, pc}
 249              	.L11:
 250              		.align	2
 251              	.L10:
 252 0020 00000000 		.word	.LANCHOR0
 253              		.cfi_endproc
 254              	.LFE14:
 255              		.size	thread3, .-thread3
 256              		.section	.text.thread1,"ax",%progbits
 257              		.align	2
 258              		.type	thread1, %function
 259              	thread1:
 260              	.LFB8:
 261              		.loc 1 81 0
 262              		.cfi_startproc
 263              		@ args = 0, pretend = 0, frame = 0
 264              		@ frame_needed = 0, uses_anonymous_args = 0
 265              	.LVL20:
 266 0000 10402DE9 		stmfd	sp!, {r4, lr}
 267              		.cfi_def_cfa_offset 8
 268              		.cfi_offset 4, -8
 269              		.cfi_offset 14, -4
 270              		.loc 1 81 0
 271 0004 0040A0E1 		mov	r4, r0
 272              		.loc 1 83 0
 273 0008 10009FE5 		ldr	r0, .L14
 274              	.LVL21:
 275 000c FEFFFFEB 		bl	chSemWait
 276              	.LVL22:
 277              		.loc 1 84 0
 278 0010 0000D4E5 		ldrb	r0, [r4]	@ zero_extendqisi2
 279 0014 FEFFFFEB 		bl	test_emit_token
 280              	.LVL23:
 281              		.loc 1 86 0
 282 0018 0000A0E3 		mov	r0, #0
 283 001c 1080BDE8 		ldmfd	sp!, {r4, pc}
 284              	.L15:
 285              		.align	2
ARM GAS  /tmp/ccIAyMaf.s 			page 6


 286              	.L14:
 287 0020 00000000 		.word	.LANCHOR0
 288              		.cfi_endproc
 289              	.LFE8:
 290              		.size	thread1, .-thread1
 291              		.section	.text.sem1_setup,"ax",%progbits
 292              		.align	2
 293              		.type	sem1_setup, %function
 294              	sem1_setup:
 295              	.LFB7:
 296              		.loc 1 76 0
 297              		.cfi_startproc
 298              		@ args = 0, pretend = 0, frame = 0
 299              		@ frame_needed = 0, uses_anonymous_args = 0
 300              		@ link register save eliminated.
 301              		.loc 1 78 0
 302 0000 04009FE5 		ldr	r0, .L17
 303 0004 0010A0E3 		mov	r1, #0
 304 0008 FEFFFFEA 		b	chSemInit
 305              	.LVL24:
 306              	.L18:
 307              		.align	2
 308              	.L17:
 309 000c 00000000 		.word	.LANCHOR0
 310              		.cfi_endproc
 311              	.LFE7:
 312              		.size	sem1_setup, .-sem1_setup
 313              		.section	.text.sem2_setup,"ax",%progbits
 314              		.align	2
 315              		.type	sem2_setup, %function
 316              	sem2_setup:
 317              	.LFB10:
 318              		.loc 1 132 0
 319              		.cfi_startproc
 320              		@ args = 0, pretend = 0, frame = 0
 321              		@ frame_needed = 0, uses_anonymous_args = 0
 322              		@ link register save eliminated.
 323              		.loc 1 134 0
 324 0000 04009FE5 		ldr	r0, .L20
 325 0004 0010A0E3 		mov	r1, #0
 326 0008 FEFFFFEA 		b	chSemInit
 327              	.LVL25:
 328              	.L21:
 329              		.align	2
 330              	.L20:
 331 000c 00000000 		.word	.LANCHOR0
 332              		.cfi_endproc
 333              	.LFE10:
 334              		.size	sem2_setup, .-sem2_setup
 335              		.section	.text.sem3_setup,"ax",%progbits
 336              		.align	2
 337              		.type	sem3_setup, %function
 338              	sem3_setup:
 339              	.LFB13:
 340              		.loc 1 208 0
 341              		.cfi_startproc
 342              		@ args = 0, pretend = 0, frame = 0
ARM GAS  /tmp/ccIAyMaf.s 			page 7


 343              		@ frame_needed = 0, uses_anonymous_args = 0
 344              		@ link register save eliminated.
 345              		.loc 1 210 0
 346 0000 04009FE5 		ldr	r0, .L23
 347 0004 0010A0E3 		mov	r1, #0
 348 0008 FEFFFFEA 		b	chSemInit
 349              	.LVL26:
 350              	.L24:
 351              		.align	2
 352              	.L23:
 353 000c 00000000 		.word	.LANCHOR0
 354              		.cfi_endproc
 355              	.LFE13:
 356              		.size	sem3_setup, .-sem3_setup
 357              		.section	.text.thread2,"ax",%progbits
 358              		.align	2
 359              		.type	thread2, %function
 360              	thread2:
 361              	.LFB11:
 362              		.loc 1 137 0
 363              		.cfi_startproc
 364              		@ args = 0, pretend = 0, frame = 0
 365              		@ frame_needed = 0, uses_anonymous_args = 0
 366              	.LVL27:
 367 0000 08402DE9 		stmfd	sp!, {r3, lr}
 368              		.cfi_def_cfa_offset 8
 369              		.cfi_offset 3, -8
 370              		.cfi_offset 14, -4
 371              		.loc 1 140 0
 372 0004 3200A0E3 		mov	r0, #50
 373              	.LVL28:
 374 0008 FEFFFFEB 		bl	chThdSleep
 375              	.LVL29:
 376              		.loc 1 141 0
 377              	@ 141 "../../test/testsem.c" 1
 378 000c 9FF021E3 		msr     CPSR_c, #0x9F
 379              	@ 0 "" 2
 380              		.loc 1 142 0
 381 0010 10009FE5 		ldr	r0, .L27
 382 0014 FEFFFFEB 		bl	chSemSignalI
 383              	.LVL30:
 384              		.loc 1 143 0
 385 0018 FEFFFFEB 		bl	chSchRescheduleS
 386              	.LVL31:
 387              		.loc 1 144 0
 388              	@ 144 "../../test/testsem.c" 1
 389 001c 1FF021E3 		msr     CPSR_c, #0x1F
 390              	@ 0 "" 2
 391              		.loc 1 146 0
 392 0020 0000A0E3 		mov	r0, #0
 393 0024 0880BDE8 		ldmfd	sp!, {r3, pc}
 394              	.L28:
 395              		.align	2
 396              	.L27:
 397 0028 00000000 		.word	.LANCHOR0
 398              		.cfi_endproc
 399              	.LFE11:
ARM GAS  /tmp/ccIAyMaf.s 			page 8


 400              		.size	thread2, .-thread2
 401              		.section	.text.thread4,"ax",%progbits
 402              		.align	2
 403              		.type	thread4, %function
 404              	thread4:
 405              	.LFB16:
 406              		.loc 1 249 0
 407              		.cfi_startproc
 408              		@ args = 0, pretend = 0, frame = 0
 409              		@ frame_needed = 0, uses_anonymous_args = 0
 410              	.LVL32:
 411 0000 08402DE9 		stmfd	sp!, {r3, lr}
 412              		.cfi_def_cfa_offset 8
 413              		.cfi_offset 3, -8
 414              		.cfi_offset 14, -4
 415              		.loc 1 251 0
 416              	@ 251 "../../test/testsem.c" 1
 417 0004 9FF021E3 		msr     CPSR_c, #0x9F
 418              	@ 0 "" 2
 419 0008 083090E5 		ldr	r3, [r0, #8]
 420 000c 000053E3 		cmp	r3, #0
 421 0010 030000DA 		ble	.L32
 422              	.LVL33:
 423              	.L30:
 424              		.loc 1 251 0 is_stmt 0 discriminator 3
 425 0014 FEFFFFEB 		bl	chSchRescheduleS
 426              	.LVL34:
 427              	@ 251 "../../test/testsem.c" 1
 428 0018 1FF021E3 		msr     CPSR_c, #0x1F
 429              	@ 0 "" 2
 430              		.loc 1 253 0 is_stmt 1 discriminator 3
 431 001c 0000A0E3 		mov	r0, #0
 432 0020 0880BDE8 		ldmfd	sp!, {r3, pc}
 433              	.LVL35:
 434              	.L32:
 435              		.loc 1 251 0 discriminator 1
 436 0024 FEFFFFEB 		bl	chSemSignalI
 437              	.LVL36:
 438 0028 F9FFFFEA 		b	.L30
 439              		.cfi_endproc
 440              	.LFE16:
 441              		.size	thread4, .-thread4
 442              		.section	.text.sem4_execute,"ax",%progbits
 443              		.align	2
 444              		.type	sem4_execute, %function
 445              	sem4_execute:
 446              	.LFB17:
 447              		.loc 1 255 0
 448              		.cfi_startproc
 449              		@ args = 0, pretend = 0, frame = 16
 450              		@ frame_needed = 0, uses_anonymous_args = 0
 451 0000 04E02DE5 		str	lr, [sp, #-4]!
 452              		.cfi_def_cfa_offset 4
 453              		.cfi_offset 14, -4
 454 0004 1CD04DE2 		sub	sp, sp, #28
 455              		.cfi_def_cfa_offset 32
 456              		.loc 1 259 0
ARM GAS  /tmp/ccIAyMaf.s 			page 9


 457 0008 0C008DE2 		add	r0, sp, #12
 458 000c 0010A0E3 		mov	r1, #0
 459 0010 FEFFFFEB 		bl	chSemInit
 460              	.LVL37:
 461              		.loc 1 260 0
 462 0014 0C008DE2 		add	r0, sp, #12
 463 0018 0010A0E3 		mov	r1, #0
 464 001c FEFFFFEB 		bl	chSemReset
 465              	.LVL38:
 466              		.loc 1 261 0
 467 0020 14109DE5 		ldr	r1, [sp, #20]
 468 0024 0100A0E3 		mov	r0, #1
 469 0028 000051E3 		cmp	r1, #0
 470 002c 0010A0C3 		movgt	r1, #0
 471 0030 0110A0D3 		movle	r1, #1
 472 0034 FEFFFFEB 		bl	_test_assert
 473              	.LVL39:
 474 0038 000050E3 		cmp	r0, #0
 475 003c 0100000A 		beq	.L39
 476              	.L33:
 477              		.loc 1 283 0
 478 0040 1CD08DE2 		add	sp, sp, #28
 479              		.cfi_remember_state
 480              		.cfi_def_cfa_offset 4
 481              		@ sp needed
 482 0044 04F09DE4 		ldr	pc, [sp], #4
 483              	.L39:
 484              		.cfi_restore_state
 485              		.loc 1 265 0
 486 0048 18319FE5 		ldr	r3, .L42
 487              		.loc 1 264 0
 488 004c 18219FE5 		ldr	r2, .L42+4
 489              		.loc 1 265 0
 490 0050 183093E5 		ldr	r3, [r3, #24]
 491              		.loc 1 264 0
 492 0054 000092E5 		ldr	r0, [r2]
 493 0058 082093E5 		ldr	r2, [r3, #8]
 494 005c 0C308DE2 		add	r3, sp, #12
 495 0060 012042E2 		sub	r2, r2, #1
 496 0064 461FA0E3 		mov	r1, #280
 497 0068 00308DE5 		str	r3, [sp]
 498 006c FC309FE5 		ldr	r3, .L42+8
 499 0070 FEFFFFEB 		bl	chThdCreateStatic
 500              	.LVL40:
 501 0074 F8309FE5 		ldr	r3, .L42+12
 502 0078 000083E5 		str	r0, [r3]
 503              		.loc 1 268 0
 504 007c 0C008DE2 		add	r0, sp, #12
 505 0080 FEFFFFEB 		bl	chSemWait
 506              	.LVL41:
 507              		.loc 1 271 0
 508 0084 14109DE5 		ldr	r1, [sp, #20]
 509 0088 0200A0E3 		mov	r0, #2
 510 008c 000051E3 		cmp	r1, #0
 511 0090 0010A0C3 		movgt	r1, #0
 512 0094 0110A0D3 		movle	r1, #1
 513 0098 FEFFFFEB 		bl	_test_assert
ARM GAS  /tmp/ccIAyMaf.s 			page 10


 514              	.LVL42:
 515 009c 000050E3 		cmp	r0, #0
 516 00a0 E6FFFF1A 		bne	.L33
 517              		.loc 1 275 0
 518              	@ 275 "../../test/testsem.c" 1
 519 00a4 9FF021E3 		msr     CPSR_c, #0x9F
 520              	@ 0 "" 2
 521 00a8 14309DE5 		ldr	r3, [sp, #20]
 522 00ac 000053E3 		cmp	r3, #0
 523 00b0 260000DA 		ble	.L40
 524              	.L35:
 525              		.loc 1 275 0 is_stmt 0 discriminator 3
 526 00b4 FEFFFFEB 		bl	chSchRescheduleS
 527              	.LVL43:
 528              	@ 275 "../../test/testsem.c" 1
 529 00b8 1FF021E3 		msr     CPSR_c, #0x1F
 530              	@ 0 "" 2
 531              		.loc 1 276 0 is_stmt 1 discriminator 3
 532 00bc 14109DE5 		ldr	r1, [sp, #20]
 533 00c0 0300A0E3 		mov	r0, #3
 534 00c4 000051E3 		cmp	r1, #0
 535 00c8 0010A0D3 		movle	r1, #0
 536 00cc 0110A0C3 		movgt	r1, #1
 537 00d0 FEFFFFEB 		bl	_test_assert
 538              	.LVL44:
 539 00d4 000050E3 		cmp	r0, #0
 540 00d8 D8FFFF1A 		bne	.L33
 541              		.loc 1 277 0
 542 00dc 14109DE5 		ldr	r1, [sp, #20]
 543 00e0 0400A0E3 		mov	r0, #4
 544 00e4 011041E2 		sub	r1, r1, #1
 545 00e8 111F6FE1 		clz	r1, r1
 546 00ec A112A0E1 		mov	r1, r1, lsr #5
 547 00f0 FEFFFFEB 		bl	_test_assert
 548              	.LVL45:
 549 00f4 000050E3 		cmp	r0, #0
 550 00f8 D0FFFF1A 		bne	.L33
 551              		.loc 1 280 0
 552              	@ 280 "../../test/testsem.c" 1
 553 00fc 9FF021E3 		msr     CPSR_c, #0x9F
 554              	@ 0 "" 2
 555 0100 14309DE5 		ldr	r3, [sp, #20]
 556 0104 000053E3 		cmp	r3, #0
 557 0108 130000DA 		ble	.L41
 558              	.L36:
 559              		.loc 1 280 0 is_stmt 0 discriminator 3
 560 010c FEFFFFEB 		bl	chSchRescheduleS
 561              	.LVL46:
 562              	@ 280 "../../test/testsem.c" 1
 563 0110 1FF021E3 		msr     CPSR_c, #0x1F
 564              	@ 0 "" 2
 565              		.loc 1 281 0 is_stmt 1 discriminator 3
 566 0114 14109DE5 		ldr	r1, [sp, #20]
 567 0118 0300A0E3 		mov	r0, #3
 568 011c 000051E3 		cmp	r1, #0
 569 0120 0010A0D3 		movle	r1, #0
 570 0124 0110A0C3 		movgt	r1, #1
ARM GAS  /tmp/ccIAyMaf.s 			page 11


 571 0128 FEFFFFEB 		bl	_test_assert
 572              	.LVL47:
 573 012c 000050E3 		cmp	r0, #0
 574 0130 C2FFFF1A 		bne	.L33
 575              		.loc 1 282 0
 576 0134 14109DE5 		ldr	r1, [sp, #20]
 577 0138 0500A0E3 		mov	r0, #5
 578 013c 011041E2 		sub	r1, r1, #1
 579 0140 111F6FE1 		clz	r1, r1
 580 0144 A112A0E1 		mov	r1, r1, lsr #5
 581 0148 FEFFFFEB 		bl	_test_assert
 582              	.LVL48:
 583 014c BBFFFFEA 		b	.L33
 584              	.L40:
 585              		.loc 1 275 0 discriminator 1
 586 0150 0C008DE2 		add	r0, sp, #12
 587 0154 FEFFFFEB 		bl	chSemSignalI
 588              	.LVL49:
 589 0158 D5FFFFEA 		b	.L35
 590              	.L41:
 591              		.loc 1 280 0 discriminator 1
 592 015c 0C008DE2 		add	r0, sp, #12
 593 0160 FEFFFFEB 		bl	chSemSignalI
 594              	.LVL50:
 595 0164 E8FFFFEA 		b	.L36
 596              	.L43:
 597              		.align	2
 598              	.L42:
 599 0168 00000000 		.word	rlist
 600 016c 00000000 		.word	wa
 601 0170 00000000 		.word	thread4
 602 0174 00000000 		.word	threads
 603              		.cfi_endproc
 604              	.LFE17:
 605              		.size	sem4_execute, .-sem4_execute
 606              		.section	.text.sem2_execute,"ax",%progbits
 607              		.align	2
 608              		.type	sem2_execute, %function
 609              	sem2_execute:
 610              	.LFB12:
 611              		.loc 1 148 0
 612              		.cfi_startproc
 613              		@ args = 0, pretend = 0, frame = 0
 614              		@ frame_needed = 0, uses_anonymous_args = 0
 615 0000 70402DE9 		stmfd	sp!, {r4, r5, r6, lr}
 616              		.cfi_def_cfa_offset 16
 617              		.cfi_offset 4, -16
 618              		.cfi_offset 5, -12
 619              		.cfi_offset 6, -8
 620              		.cfi_offset 14, -4
 621              		.loc 1 156 0
 622 0004 C0419FE5 		ldr	r4, .L52
 623 0008 0010A0E3 		mov	r1, #0
 624              		.loc 1 148 0
 625 000c 08D04DE2 		sub	sp, sp, #8
 626              		.cfi_def_cfa_offset 24
 627              		.loc 1 156 0
ARM GAS  /tmp/ccIAyMaf.s 			page 12


 628 0010 0400A0E1 		mov	r0, r4
 629 0014 FEFFFFEB 		bl	chSemWaitTimeout
 630              	.LVL51:
 631              		.loc 1 157 0
 632 0018 010070E3 		cmn	r0, #1
 633 001c 0010A013 		movne	r1, #0
 634 0020 0110A003 		moveq	r1, #1
 635 0024 0100A0E3 		mov	r0, #1
 636              	.LVL52:
 637 0028 FEFFFFEB 		bl	_test_assert
 638              	.LVL53:
 639 002c 000050E3 		cmp	r0, #0
 640 0030 0100000A 		beq	.L51
 641              	.L44:
 642              		.loc 1 186 0
 643 0034 08D08DE2 		add	sp, sp, #8
 644              		.cfi_remember_state
 645              		.cfi_def_cfa_offset 16
 646              		@ sp needed
 647 0038 7080BDE8 		ldmfd	sp!, {r4, r5, r6, pc}
 648              	.L51:
 649              		.cfi_restore_state
 650              		.loc 1 158 0
 651 003c 001094E5 		ldr	r1, [r4]
 652 0040 0200A0E3 		mov	r0, #2
 653 0044 011064E0 		rsb	r1, r4, r1
 654 0048 111F6FE1 		clz	r1, r1
 655 004c A112A0E1 		mov	r1, r1, lsr #5
 656 0050 FEFFFFEB 		bl	_test_assert
 657              	.LVL54:
 658 0054 000050E3 		cmp	r0, #0
 659 0058 F5FFFF1A 		bne	.L44
 660              		.loc 1 159 0
 661 005c 081094E5 		ldr	r1, [r4, #8]
 662 0060 0300A0E3 		mov	r0, #3
 663 0064 111F6FE1 		clz	r1, r1
 664 0068 A112A0E1 		mov	r1, r1, lsr #5
 665 006c FEFFFFEB 		bl	_test_assert
 666              	.LVL55:
 667 0070 003050E2 		subs	r3, r0, #0
 668 0074 EEFFFF1A 		bne	.L44
 669              	.LBB4:
 670              	.LBB5:
 671              		.loc 1 164 0
 672 0078 50219FE5 		ldr	r2, .L52+4
 673 007c 50119FE5 		ldr	r1, .L52+8
 674 0080 182092E5 		ldr	r2, [r2, #24]
 675 0084 000091E5 		ldr	r0, [r1]
 676 0088 082092E5 		ldr	r2, [r2, #8]
 677 008c 461FA0E3 		mov	r1, #280
 678 0090 012042E2 		sub	r2, r2, #1
 679 0094 00308DE5 		str	r3, [sp]
 680 0098 38319FE5 		ldr	r3, .L52+12
 681 009c FEFFFFEB 		bl	chThdCreateStatic
 682              	.LVL56:
 683 00a0 34319FE5 		ldr	r3, .L52+16
 684              		.loc 1 166 0
ARM GAS  /tmp/ccIAyMaf.s 			page 13


 685 00a4 7D1FA0E3 		mov	r1, #500
 686              		.loc 1 164 0
 687 00a8 000083E5 		str	r0, [r3]
 688              		.loc 1 166 0
 689 00ac 0400A0E1 		mov	r0, r4
 690 00b0 FEFFFFEB 		bl	chSemWaitTimeout
 691              	.LVL57:
 692 00b4 0050A0E1 		mov	r5, r0
 693              	.LVL58:
 694              		.loc 1 167 0
 695 00b8 FEFFFFEB 		bl	test_wait_threads
 696              	.LVL59:
 697              		.loc 1 168 0
 698 00bc 151F6FE1 		clz	r1, r5
 699 00c0 0400A0E3 		mov	r0, #4
 700 00c4 A112A0E1 		mov	r1, r1, lsr #5
 701 00c8 FEFFFFEB 		bl	_test_assert
 702              	.LVL60:
 703 00cc 000050E3 		cmp	r0, #0
 704 00d0 D7FFFF1A 		bne	.L44
 705              		.loc 1 169 0
 706 00d4 001094E5 		ldr	r1, [r4]
 707 00d8 0500A0E3 		mov	r0, #5
 708 00dc 011064E0 		rsb	r1, r4, r1
 709 00e0 111F6FE1 		clz	r1, r1
 710 00e4 A112A0E1 		mov	r1, r1, lsr #5
 711 00e8 FEFFFFEB 		bl	_test_assert
 712              	.LVL61:
 713 00ec 000050E3 		cmp	r0, #0
 714 00f0 CFFFFF1A 		bne	.L44
 715              		.loc 1 170 0
 716 00f4 081094E5 		ldr	r1, [r4, #8]
 717 00f8 0600A0E3 		mov	r0, #6
 718 00fc 111F6FE1 		clz	r1, r1
 719 0100 A112A0E1 		mov	r1, r1, lsr #5
 720 0104 FEFFFFEB 		bl	_test_assert
 721              	.LVL62:
 722 0108 000050E3 		cmp	r0, #0
 723 010c C8FFFF1A 		bne	.L44
 724              		.loc 1 176 0
 725 0110 4150A0E3 		mov	r5, #65
 726              	.LVL63:
 727              		.loc 1 175 0
 728 0114 FEFFFFEB 		bl	test_wait_tick
 729              	.LVL64:
 730              		.loc 1 176 0
 731 0118 C0309FE5 		ldr	r3, .L52+20
 732 011c 0C6093E5 		ldr	r6, [r3, #12]
 733              	.LVL65:
 734              	.L48:
 735              		.loc 1 178 0
 736 0120 0500A0E1 		mov	r0, r5
 737 0124 FEFFFFEB 		bl	test_emit_token
 738              	.LVL66:
 739              		.loc 1 179 0
 740 0128 7D1FA0E3 		mov	r1, #500
 741 012c 98009FE5 		ldr	r0, .L52
ARM GAS  /tmp/ccIAyMaf.s 			page 14


 742 0130 FEFFFFEB 		bl	chSemWaitTimeout
 743              	.LVL67:
 744              		.loc 1 180 0
 745 0134 010070E3 		cmn	r0, #1
 746 0138 0010A013 		movne	r1, #0
 747 013c 0110A003 		moveq	r1, #1
 748 0140 0700A0E3 		mov	r0, #7
 749              	.LVL68:
 750 0144 FEFFFFEB 		bl	_test_assert
 751              	.LVL69:
 752 0148 000050E3 		cmp	r0, #0
 753 014c B8FFFF1A 		bne	.L44
 754              		.loc 1 181 0
 755 0150 001094E5 		ldr	r1, [r4]
 756 0154 0800A0E3 		mov	r0, #8
 757 0158 011064E0 		rsb	r1, r4, r1
 758 015c 111F6FE1 		clz	r1, r1
 759 0160 A112A0E1 		mov	r1, r1, lsr #5
 760 0164 FEFFFFEB 		bl	_test_assert
 761              	.LVL70:
 762 0168 000050E3 		cmp	r0, #0
 763 016c B0FFFF1A 		bne	.L44
 764              		.loc 1 182 0
 765 0170 081094E5 		ldr	r1, [r4, #8]
 766 0174 0900A0E3 		mov	r0, #9
 767 0178 111F6FE1 		clz	r1, r1
 768 017c A112A0E1 		mov	r1, r1, lsr #5
 769 0180 FEFFFFEB 		bl	_test_assert
 770              	.LVL71:
 771 0184 015085E2 		add	r5, r5, #1
 772 0188 000050E3 		cmp	r0, #0
 773 018c 7550EFE6 		uxtb	r5, r5
 774 0190 A7FFFF1A 		bne	.L44
 775              		.loc 1 177 0
 776 0194 460055E3 		cmp	r5, #70
 777 0198 E0FFFF1A 		bne	.L48
 778              		.loc 1 184 0
 779 019c 0A00A0E3 		mov	r0, #10
 780 01a0 3C109FE5 		ldr	r1, .L52+24
 781 01a4 FEFFFFEB 		bl	_test_assert_sequence
 782              	.LVL72:
 783 01a8 000050E3 		cmp	r0, #0
 784 01ac A0FFFF1A 		bne	.L44
 785              		.loc 1 185 0
 786 01b0 0B00A0E3 		mov	r0, #11
 787              		.loc 1 176 0
 788 01b4 272D86E2 		add	r2, r6, #2496
 789              		.loc 1 185 0
 790 01b8 041082E2 		add	r1, r2, #4
 791 01bc 092082E2 		add	r2, r2, #9
 792              	.LBE5:
 793              	.LBE4:
 794              		.loc 1 186 0
 795 01c0 08D08DE2 		add	sp, sp, #8
 796              		.cfi_def_cfa_offset 16
 797              		@ sp needed
 798 01c4 7040BDE8 		ldmfd	sp!, {r4, r5, r6, lr}
ARM GAS  /tmp/ccIAyMaf.s 			page 15


 799              		.cfi_restore 14
 800              		.cfi_restore 6
 801              		.cfi_restore 5
 802              		.cfi_restore 4
 803              		.cfi_def_cfa_offset 0
 804              	.LVL73:
 805              	.LBB7:
 806              	.LBB6:
 807              		.loc 1 185 0
 808 01c8 FEFFFFEA 		b	_test_assert_time_window
 809              	.LVL74:
 810              	.L53:
 811              		.align	2
 812              	.L52:
 813 01cc 00000000 		.word	.LANCHOR0
 814 01d0 00000000 		.word	rlist
 815 01d4 00000000 		.word	wa
 816 01d8 00000000 		.word	thread2
 817 01dc 00000000 		.word	threads
 818 01e0 00000000 		.word	vtlist
 819 01e4 14000000 		.word	.LC5
 820              	.LBE6:
 821              	.LBE7:
 822              		.cfi_endproc
 823              	.LFE12:
 824              		.size	sem2_execute, .-sem2_execute
 825              		.section	.text.sem3_execute,"ax",%progbits
 826              		.align	2
 827              		.type	sem3_execute, %function
 828              	sem3_execute:
 829              	.LFB15:
 830              		.loc 1 221 0
 831              		.cfi_startproc
 832              		@ args = 0, pretend = 0, frame = 0
 833              		@ frame_needed = 0, uses_anonymous_args = 0
 834              		.loc 1 223 0
 835 0000 0030A0E3 		mov	r3, #0
 836              		.loc 1 221 0
 837 0004 10402DE9 		stmfd	sp!, {r4, lr}
 838              		.cfi_def_cfa_offset 8
 839              		.cfi_offset 4, -8
 840              		.cfi_offset 14, -4
 841              		.loc 1 223 0
 842 0008 C8209FE5 		ldr	r2, .L60
 843 000c C8109FE5 		ldr	r1, .L60+4
 844 0010 182092E5 		ldr	r2, [r2, #24]
 845              		.loc 1 221 0
 846 0014 08D04DE2 		sub	sp, sp, #8
 847              		.cfi_def_cfa_offset 16
 848              		.loc 1 223 0
 849 0018 082092E5 		ldr	r2, [r2, #8]
 850 001c 000091E5 		ldr	r0, [r1]
 851 0020 012082E2 		add	r2, r2, #1
 852 0024 00308DE5 		str	r3, [sp]
 853 0028 461FA0E3 		mov	r1, #280
 854 002c AC309FE5 		ldr	r3, .L60+8
 855 0030 FEFFFFEB 		bl	chThdCreateStatic
ARM GAS  /tmp/ccIAyMaf.s 			page 16


 856              	.LVL75:
 857              		.loc 1 224 0
 858 0034 A8409FE5 		ldr	r4, .L60+12
 859              		.loc 1 223 0
 860 0038 A8309FE5 		ldr	r3, .L60+16
 861              		.loc 1 224 0
 862 003c 0410A0E1 		mov	r1, r4
 863              		.loc 1 223 0
 864 0040 000083E5 		str	r0, [r3]
 865              		.loc 1 224 0
 866 0044 0400A0E1 		mov	r0, r4
 867 0048 FEFFFFEB 		bl	chSemSignalWait
 868              	.LVL76:
 869              		.loc 1 225 0
 870 004c 001094E5 		ldr	r1, [r4]
 871 0050 0100A0E3 		mov	r0, #1
 872 0054 011064E0 		rsb	r1, r4, r1
 873 0058 111F6FE1 		clz	r1, r1
 874 005c A112A0E1 		mov	r1, r1, lsr #5
 875 0060 FEFFFFEB 		bl	_test_assert
 876              	.LVL77:
 877 0064 000050E3 		cmp	r0, #0
 878 0068 0100000A 		beq	.L59
 879              	.L54:
 880              		.loc 1 231 0
 881 006c 08D08DE2 		add	sp, sp, #8
 882              		.cfi_remember_state
 883              		.cfi_def_cfa_offset 8
 884              		@ sp needed
 885 0070 1080BDE8 		ldmfd	sp!, {r4, pc}
 886              	.L59:
 887              		.cfi_restore_state
 888              		.loc 1 226 0
 889 0074 081094E5 		ldr	r1, [r4, #8]
 890 0078 0200A0E3 		mov	r0, #2
 891 007c 111F6FE1 		clz	r1, r1
 892 0080 A112A0E1 		mov	r1, r1, lsr #5
 893 0084 FEFFFFEB 		bl	_test_assert
 894              	.LVL78:
 895 0088 000050E3 		cmp	r0, #0
 896 008c F6FFFF1A 		bne	.L54
 897              	.LBB10:
 898              	.LBB11:
 899              		.loc 1 228 0
 900 0090 0410A0E1 		mov	r1, r4
 901 0094 0400A0E1 		mov	r0, r4
 902 0098 FEFFFFEB 		bl	chSemSignalWait
 903              	.LVL79:
 904              		.loc 1 229 0
 905 009c 001094E5 		ldr	r1, [r4]
 906 00a0 0300A0E3 		mov	r0, #3
 907 00a4 011064E0 		rsb	r1, r4, r1
 908 00a8 111F6FE1 		clz	r1, r1
 909 00ac A112A0E1 		mov	r1, r1, lsr #5
 910 00b0 FEFFFFEB 		bl	_test_assert
 911              	.LVL80:
 912 00b4 000050E3 		cmp	r0, #0
ARM GAS  /tmp/ccIAyMaf.s 			page 17


 913 00b8 EBFFFF1A 		bne	.L54
 914              		.loc 1 230 0
 915 00bc 081094E5 		ldr	r1, [r4, #8]
 916 00c0 0400A0E3 		mov	r0, #4
 917 00c4 111F6FE1 		clz	r1, r1
 918 00c8 A112A0E1 		mov	r1, r1, lsr #5
 919              	.LBE11:
 920              	.LBE10:
 921              		.loc 1 231 0
 922 00cc 08D08DE2 		add	sp, sp, #8
 923              		.cfi_def_cfa_offset 8
 924              		@ sp needed
 925 00d0 1040BDE8 		ldmfd	sp!, {r4, lr}
 926              		.cfi_restore 14
 927              		.cfi_restore 4
 928              		.cfi_def_cfa_offset 0
 929              	.LBB13:
 930              	.LBB12:
 931              		.loc 1 230 0
 932 00d4 FEFFFFEA 		b	_test_assert
 933              	.LVL81:
 934              	.L61:
 935              		.align	2
 936              	.L60:
 937 00d8 00000000 		.word	rlist
 938 00dc 00000000 		.word	wa
 939 00e0 00000000 		.word	thread3
 940 00e4 00000000 		.word	.LANCHOR0
 941 00e8 00000000 		.word	threads
 942              	.LBE12:
 943              	.LBE13:
 944              		.cfi_endproc
 945              	.LFE15:
 946              		.size	sem3_execute, .-sem3_execute
 947              		.global	patternsem
 948              		.global	testsem4
 949              		.global	testsem3
 950              		.global	testsem2
 951              		.global	testsem1
 952              		.section	.rodata.testsem1,"a",%progbits
 953              		.align	2
 954              		.type	testsem1, %object
 955              		.size	testsem1, 16
 956              	testsem1:
 957 0000 74000000 		.word	.LC9
 958 0004 00000000 		.word	sem1_setup
 959 0008 00000000 		.word	0
 960 000c 00000000 		.word	sem1_execute
 961              		.section	.rodata.testsem2,"a",%progbits
 962              		.align	2
 963              		.type	testsem2, %object
 964              		.size	testsem2, 16
 965              	testsem2:
 966 0000 60000000 		.word	.LC8
 967 0004 00000000 		.word	sem2_setup
 968 0008 00000000 		.word	0
 969 000c 00000000 		.word	sem2_execute
ARM GAS  /tmp/ccIAyMaf.s 			page 18


 970              		.section	.rodata.testsem3,"a",%progbits
 971              		.align	2
 972              		.type	testsem3, %object
 973              		.size	testsem3, 16
 974              	testsem3:
 975 0000 40000000 		.word	.LC7
 976 0004 00000000 		.word	sem3_setup
 977 0008 00000000 		.word	0
 978 000c 00000000 		.word	sem3_execute
 979              		.section	.rodata.testsem4,"a",%progbits
 980              		.align	2
 981              		.type	testsem4, %object
 982              		.size	testsem4, 16
 983              	testsem4:
 984 0000 1C000000 		.word	.LC6
 985 0004 00000000 		.word	0
 986 0008 00000000 		.word	0
 987 000c 00000000 		.word	sem4_execute
 988              		.section	.data.sem1,"aw",%progbits
 989              		.align	2
 990              		.set	.LANCHOR0,. + 0
 991              		.type	sem1, %object
 992              		.size	sem1, 12
 993              	sem1:
 994 0000 00000000 		.word	sem1
 995 0004 00000000 		.word	sem1
 996 0008 00000000 		.word	0
 997              		.section	.rodata.patternsem,"a",%progbits
 998              		.align	2
 999              		.type	patternsem, %object
 1000              		.size	patternsem, 20
 1001              	patternsem:
 1002 0000 00000000 		.word	testsem1
 1003 0004 00000000 		.word	testsem2
 1004 0008 00000000 		.word	testsem3
 1005 000c 00000000 		.word	testsem4
 1006 0010 00000000 		.word	0
 1007              		.section	.rodata.str1.4,"aMS",%progbits,1
 1008              		.align	2
 1009              	.LC0:
 1010 0000 4100     		.ascii	"A\000"
 1011 0002 0000     		.space	2
 1012              	.LC1:
 1013 0004 4200     		.ascii	"B\000"
 1014 0006 0000     		.space	2
 1015              	.LC2:
 1016 0008 4300     		.ascii	"C\000"
 1017 000a 0000     		.space	2
 1018              	.LC3:
 1019 000c 4400     		.ascii	"D\000"
 1020 000e 0000     		.space	2
 1021              	.LC4:
 1022 0010 4500     		.ascii	"E\000"
 1023 0012 0000     		.space	2
 1024              	.LC5:
 1025 0014 41424344 		.ascii	"ABCDE\000"
 1025      4500
ARM GAS  /tmp/ccIAyMaf.s 			page 19


 1026 001a 0000     		.space	2
 1027              	.LC6:
 1028 001c 42696E61 		.ascii	"Binary Semaphores, functionality\000"
 1028      72792053 
 1028      656D6170 
 1028      686F7265 
 1028      732C2066 
 1029 003d 000000   		.space	3
 1030              	.LC7:
 1031 0040 53656D61 		.ascii	"Semaphores, atomic signal-wait\000"
 1031      70686F72 
 1031      65732C20 
 1031      61746F6D 
 1031      69632073 
 1032 005f 00       		.space	1
 1033              	.LC8:
 1034 0060 53656D61 		.ascii	"Semaphores, timeout\000"
 1034      70686F72 
 1034      65732C20 
 1034      74696D65 
 1034      6F757400 
 1035              	.LC9:
 1036 0074 53656D61 		.ascii	"Semaphores, enqueuing\000"
 1036      70686F72 
 1036      65732C20 
 1036      656E7175 
 1036      6575696E 
 1037              		.text
 1038              	.Letext0:
 1039              		.file 2 "/usr/lib/gcc/arm-none-eabi/4.9.3/include/stddef.h"
 1040              		.file 3 "/usr/include/newlib/machine/_default_types.h"
 1041              		.file 4 "/usr/include/newlib/sys/_stdint.h"
 1042              		.file 5 "../../os/ports/GCC/ARM/chtypes.h"
 1043              		.file 6 "../../os/kernel/include/chlists.h"
 1044              		.file 7 "../../os/kernel/include/chthreads.h"
 1045              		.file 8 "../../os/ports/GCC/ARM/chcore.h"
 1046              		.file 9 "../../os/kernel/include/chvt.h"
 1047              		.file 10 "../../os/kernel/include/chschd.h"
 1048              		.file 11 "../../os/kernel/include/chsem.h"
 1049              		.file 12 "../../os/kernel/include/chbsem.h"
 1050              		.file 13 "../../os/kernel/include/chmtx.h"
 1051              		.file 14 "../../test/test.h"