ARM GAS  /tmp/ccfVcRHv.s 			page 1


   1              		.cpu arm1176jz-s
   2              		.fpu softvfp
   3              		.eabi_attribute 20, 1
   4              		.eabi_attribute 21, 1
   5              		.eabi_attribute 23, 3
   6              		.eabi_attribute 24, 1
   7              		.eabi_attribute 25, 1
   8              		.eabi_attribute 26, 1
   9              		.eabi_attribute 30, 2
  10              		.eabi_attribute 34, 1
  11              		.eabi_attribute 18, 4
  12              		.file	"testevt.c"
  13              		.text
  14              	.Ltext0:
  15              		.cfi_sections	.debug_frame
  16              		.section	.text.evt1_execute,"ax",%progbits
  17              		.align	2
  18              		.type	evt1_execute, %function
  19              	evt1_execute:
  20              	.LFB11:
  21              		.file 1 "../../test/testevt.c"
  22              		.loc 1 89 0
  23              		.cfi_startproc
  24              		@ args = 0, pretend = 0, frame = 32
  25              		@ frame_needed = 0, uses_anonymous_args = 0
  26 0000 10402DE9 		stmfd	sp!, {r4, lr}
  27              		.cfi_def_cfa_offset 8
  28              		.cfi_offset 4, -8
  29              		.cfi_offset 14, -4
  30              		.loc 1 95 0
  31 0004 B8409FE5 		ldr	r4, .L7
  32              		.loc 1 89 0
  33 0008 20D04DE2 		sub	sp, sp, #32
  34              		.cfi_def_cfa_offset 40
  35              		.loc 1 96 0
  36 000c 0400A0E1 		mov	r0, r4
  37 0010 0D10A0E1 		mov	r1, sp
  38 0014 0120A0E3 		mov	r2, #1
  39              		.loc 1 95 0
  40 0018 004084E5 		str	r4, [r4]
  41              		.loc 1 96 0
  42 001c FEFFFFEB 		bl	chEvtRegisterMask
  43              	.LVL0:
  44              		.loc 1 97 0
  45 0020 0400A0E1 		mov	r0, r4
  46 0024 10108DE2 		add	r1, sp, #16
  47 0028 0220A0E3 		mov	r2, #2
  48 002c FEFFFFEB 		bl	chEvtRegisterMask
  49              	.LVL1:
  50              		.loc 1 98 0
  51 0030 001094E5 		ldr	r1, [r4]
  52 0034 0100A0E3 		mov	r0, #1
  53 0038 041051E0 		subs	r1, r1, r4
  54 003c 0110A013 		movne	r1, #1
  55 0040 FEFFFFEB 		bl	_test_assert
  56              	.LVL2:
  57 0044 000050E3 		cmp	r0, #0
ARM GAS  /tmp/ccfVcRHv.s 			page 2


  58 0048 0100000A 		beq	.L6
  59              	.L1:
  60              		.loc 1 109 0
  61 004c 20D08DE2 		add	sp, sp, #32
  62              		.cfi_remember_state
  63              		.cfi_def_cfa_offset 8
  64              		@ sp needed
  65 0050 1080BDE8 		ldmfd	sp!, {r4, pc}
  66              	.L6:
  67              		.cfi_restore_state
  68              		.loc 1 99 0
  69 0054 0D10A0E1 		mov	r1, sp
  70 0058 0400A0E1 		mov	r0, r4
  71 005c FEFFFFEB 		bl	chEvtUnregister
  72              	.LVL3:
  73              		.loc 1 100 0
  74 0060 001094E5 		ldr	r1, [r4]
  75 0064 0200A0E3 		mov	r0, #2
  76 0068 041051E0 		subs	r1, r1, r4
  77 006c 0110A013 		movne	r1, #1
  78 0070 FEFFFFEB 		bl	_test_assert
  79              	.LVL4:
  80 0074 000050E3 		cmp	r0, #0
  81 0078 F3FFFF1A 		bne	.L1
  82              		.loc 1 101 0
  83 007c 10108DE2 		add	r1, sp, #16
  84 0080 0400A0E1 		mov	r0, r4
  85 0084 FEFFFFEB 		bl	chEvtUnregister
  86              	.LVL5:
  87              		.loc 1 102 0
  88 0088 001094E5 		ldr	r1, [r4]
  89 008c 0300A0E3 		mov	r0, #3
  90 0090 011064E0 		rsb	r1, r4, r1
  91 0094 111F6FE1 		clz	r1, r1
  92 0098 A112A0E1 		mov	r1, r1, lsr #5
  93 009c FEFFFFEB 		bl	_test_assert
  94              	.LVL6:
  95 00a0 000050E3 		cmp	r0, #0
  96 00a4 E8FFFF1A 		bne	.L1
  97              		.loc 1 107 0
  98 00a8 18009FE5 		ldr	r0, .L7+4
  99 00ac 0710A0E3 		mov	r1, #7
 100 00b0 FEFFFFEB 		bl	chEvtDispatch
 101              	.LVL7:
 102              		.loc 1 108 0
 103 00b4 10109FE5 		ldr	r1, .L7+8
 104 00b8 0400A0E3 		mov	r0, #4
 105 00bc FEFFFFEB 		bl	_test_assert_sequence
 106              	.LVL8:
 107 00c0 E1FFFFEA 		b	.L1
 108              	.L8:
 109              		.align	2
 110              	.L7:
 111 00c4 00000000 		.word	.LANCHOR0
 112 00c8 00000000 		.word	.LANCHOR1
 113 00cc 00000000 		.word	.LC0
 114              		.cfi_endproc
ARM GAS  /tmp/ccfVcRHv.s 			page 3


 115              	.LFE11:
 116              		.size	evt1_execute, .-evt1_execute
 117              		.section	.text.h3,"ax",%progbits
 118              		.align	2
 119              		.type	h3, %function
 120              	h3:
 121              	.LFB10:
 122              		.loc 1 86 0
 123              		.cfi_startproc
 124              		@ args = 0, pretend = 0, frame = 0
 125              		@ frame_needed = 0, uses_anonymous_args = 0
 126              		@ link register save eliminated.
 127              	.LVL9:
 128              		.loc 1 86 0
 129 0000 4300A0E3 		mov	r0, #67
 130              	.LVL10:
 131 0004 FEFFFFEA 		b	test_emit_token
 132              	.LVL11:
 133              		.cfi_endproc
 134              	.LFE10:
 135              		.size	h3, .-h3
 136              		.section	.text.h2,"ax",%progbits
 137              		.align	2
 138              		.type	h2, %function
 139              	h2:
 140              	.LFB9:
 141              		.loc 1 85 0
 142              		.cfi_startproc
 143              		@ args = 0, pretend = 0, frame = 0
 144              		@ frame_needed = 0, uses_anonymous_args = 0
 145              		@ link register save eliminated.
 146              	.LVL12:
 147              		.loc 1 85 0
 148 0000 4200A0E3 		mov	r0, #66
 149              	.LVL13:
 150 0004 FEFFFFEA 		b	test_emit_token
 151              	.LVL14:
 152              		.cfi_endproc
 153              	.LFE9:
 154              		.size	h2, .-h2
 155              		.section	.text.h1,"ax",%progbits
 156              		.align	2
 157              		.type	h1, %function
 158              	h1:
 159              	.LFB8:
 160              		.loc 1 84 0
 161              		.cfi_startproc
 162              		@ args = 0, pretend = 0, frame = 0
 163              		@ frame_needed = 0, uses_anonymous_args = 0
 164              		@ link register save eliminated.
 165              	.LVL15:
 166              		.loc 1 84 0
 167 0000 4100A0E3 		mov	r0, #65
 168              	.LVL16:
 169 0004 FEFFFFEA 		b	test_emit_token
 170              	.LVL17:
 171              		.cfi_endproc
ARM GAS  /tmp/ccfVcRHv.s 			page 4


 172              	.LFE8:
 173              		.size	h1, .-h1
 174              		.section	.text.evt1_setup,"ax",%progbits
 175              		.align	2
 176              		.type	evt1_setup, %function
 177              	evt1_setup:
 178              	.LFB7:
 179              		.loc 1 79 0
 180              		.cfi_startproc
 181              		@ args = 0, pretend = 0, frame = 0
 182              		@ frame_needed = 0, uses_anonymous_args = 0
 183              		@ link register save eliminated.
 184              		.loc 1 81 0
 185 0000 0000E0E3 		mvn	r0, #0
 186 0004 FEFFFFEA 		b	chEvtGetAndClearEvents
 187              	.LVL18:
 188              		.cfi_endproc
 189              	.LFE7:
 190              		.size	evt1_setup, .-evt1_setup
 191              		.section	.text.evt2_setup,"ax",%progbits
 192              		.align	2
 193              		.type	evt2_setup, %function
 194              	evt2_setup:
 195              	.LFB12:
 196              		.loc 1 132 0
 197              		.cfi_startproc
 198              		@ args = 0, pretend = 0, frame = 0
 199              		@ frame_needed = 0, uses_anonymous_args = 0
 200              		@ link register save eliminated.
 201              		.loc 1 134 0
 202 0000 0000E0E3 		mvn	r0, #0
 203 0004 FEFFFFEA 		b	chEvtGetAndClearEvents
 204              	.LVL19:
 205              		.cfi_endproc
 206              	.LFE12:
 207              		.size	evt2_setup, .-evt2_setup
 208              		.section	.text.evt3_setup,"ax",%progbits
 209              		.align	2
 210              		.type	evt3_setup, %function
 211              	evt3_setup:
 212              	.LFB16:
 213              		.loc 1 251 0
 214              		.cfi_startproc
 215              		@ args = 0, pretend = 0, frame = 0
 216              		@ frame_needed = 0, uses_anonymous_args = 0
 217              		@ link register save eliminated.
 218              		.loc 1 253 0
 219 0000 0000E0E3 		mvn	r0, #0
 220 0004 FEFFFFEA 		b	chEvtGetAndClearEvents
 221              	.LVL20:
 222              		.cfi_endproc
 223              	.LFE16:
 224              		.size	evt3_setup, .-evt3_setup
 225              		.section	.text.evt2_execute,"ax",%progbits
 226              		.align	2
 227              		.type	evt2_execute, %function
 228              	evt2_execute:
ARM GAS  /tmp/ccfVcRHv.s 			page 5


 229              	.LFB15:
 230              		.loc 1 153 0
 231              		.cfi_startproc
 232              		@ args = 0, pretend = 0, frame = 32
 233              		@ frame_needed = 0, uses_anonymous_args = 0
 234 0000 F0432DE9 		stmfd	sp!, {r4, r5, r6, r7, r8, r9, lr}
 235              		.cfi_def_cfa_offset 28
 236              		.cfi_offset 4, -28
 237              		.cfi_offset 5, -24
 238              		.cfi_offset 6, -20
 239              		.cfi_offset 7, -16
 240              		.cfi_offset 8, -12
 241              		.cfi_offset 9, -8
 242              		.cfi_offset 14, -4
 243              		.loc 1 161 0
 244 0004 0500A0E3 		mov	r0, #5
 245              		.loc 1 153 0
 246 0008 2CD04DE2 		sub	sp, sp, #44
 247              		.cfi_def_cfa_offset 72
 248              		.loc 1 161 0
 249 000c FEFFFFEB 		bl	chEvtAddEvents
 250              	.LVL21:
 251              		.loc 1 162 0
 252 0010 0000E0E3 		mvn	r0, #0
 253 0014 FEFFFFEB 		bl	chEvtWaitOne
 254              	.LVL22:
 255              		.loc 1 163 0
 256 0018 011040E2 		sub	r1, r0, #1
 257 001c 111F6FE1 		clz	r1, r1
 258 0020 0100A0E3 		mov	r0, #1
 259              	.LVL23:
 260 0024 A112A0E1 		mov	r1, r1, lsr #5
 261 0028 FEFFFFEB 		bl	_test_assert
 262              	.LVL24:
 263 002c 000050E3 		cmp	r0, #0
 264 0030 0100000A 		beq	.L19
 265              	.L15:
 266              		.loc 1 226 0
 267 0034 2CD08DE2 		add	sp, sp, #44
 268              		.cfi_remember_state
 269              		.cfi_def_cfa_offset 28
 270              		@ sp needed
 271 0038 F083BDE8 		ldmfd	sp!, {r4, r5, r6, r7, r8, r9, pc}
 272              	.L19:
 273              		.cfi_restore_state
 274              		.loc 1 164 0
 275 003c 0000E0E3 		mvn	r0, #0
 276 0040 FEFFFFEB 		bl	chEvtWaitOne
 277              	.LVL25:
 278              		.loc 1 165 0
 279 0044 041040E2 		sub	r1, r0, #4
 280 0048 111F6FE1 		clz	r1, r1
 281 004c 0200A0E3 		mov	r0, #2
 282              	.LVL26:
 283 0050 A112A0E1 		mov	r1, r1, lsr #5
 284 0054 FEFFFFEB 		bl	_test_assert
 285              	.LVL27:
ARM GAS  /tmp/ccfVcRHv.s 			page 6


 286 0058 000050E3 		cmp	r0, #0
 287 005c F4FFFF1A 		bne	.L15
 288              		.loc 1 166 0
 289 0060 0000E0E3 		mvn	r0, #0
 290 0064 FEFFFFEB 		bl	chEvtGetAndClearEvents
 291              	.LVL28:
 292              		.loc 1 167 0
 293 0068 101F6FE1 		clz	r1, r0
 294 006c 0300A0E3 		mov	r0, #3
 295              	.LVL29:
 296 0070 A112A0E1 		mov	r1, r1, lsr #5
 297 0074 FEFFFFEB 		bl	_test_assert
 298              	.LVL30:
 299 0078 000050E3 		cmp	r0, #0
 300 007c ECFFFF1A 		bne	.L15
 301              		.loc 1 174 0
 302 0080 70829FE5 		ldr	r8, .L20
 303              		.loc 1 172 0
 304 0084 FEFFFFEB 		bl	test_wait_tick
 305              	.LVL31:
 306              		.loc 1 174 0
 307 0088 183098E5 		ldr	r3, [r8, #24]
 308 008c 68129FE5 		ldr	r1, .L20+4
 309 0090 082093E5 		ldr	r2, [r3, #8]
 310 0094 007091E5 		ldr	r7, [r1]
 311              		.loc 1 173 0
 312 0098 60629FE5 		ldr	r6, .L20+8
 313              		.loc 1 174 0
 314 009c 012042E2 		sub	r2, r2, #1
 315 00a0 00308DE5 		str	r3, [sp]
 316 00a4 461FA0E3 		mov	r1, #280
 317 00a8 54329FE5 		ldr	r3, .L20+12
 318 00ac 0700A0E1 		mov	r0, r7
 319              		.loc 1 173 0
 320 00b0 0C4096E5 		ldr	r4, [r6, #12]
 321              	.LVL32:
 322              		.loc 1 174 0
 323 00b4 FEFFFFEB 		bl	chThdCreateStatic
 324              	.LVL33:
 325 00b8 48529FE5 		ldr	r5, .L20+16
 326 00bc 000085E5 		str	r0, [r5]
 327              		.loc 1 176 0
 328 00c0 0000E0E3 		mvn	r0, #0
 329 00c4 FEFFFFEB 		bl	chEvtWaitOne
 330              	.LVL34:
 331              		.loc 1 177 0
 332 00c8 321084E2 		add	r1, r4, #50
 333              	.LVL35:
 334              		.loc 1 176 0
 335 00cc 0090A0E1 		mov	r9, r0
 336              	.LVL36:
 337              		.loc 1 177 0
 338 00d0 372084E2 		add	r2, r4, #55
 339 00d4 0400A0E3 		mov	r0, #4
 340              	.LVL37:
 341 00d8 FEFFFFEB 		bl	_test_assert_time_window
 342              	.LVL38:
ARM GAS  /tmp/ccfVcRHv.s 			page 7


 343 00dc 000050E3 		cmp	r0, #0
 344 00e0 D3FFFF1A 		bne	.L15
 345              		.loc 1 178 0
 346 00e4 011049E2 		sub	r1, r9, #1
 347 00e8 111F6FE1 		clz	r1, r1
 348 00ec 0500A0E3 		mov	r0, #5
 349 00f0 A112A0E1 		mov	r1, r1, lsr #5
 350 00f4 FEFFFFEB 		bl	_test_assert
 351              	.LVL39:
 352 00f8 000050E3 		cmp	r0, #0
 353 00fc CCFFFF1A 		bne	.L15
 354              		.loc 1 179 0
 355 0100 0000E0E3 		mvn	r0, #0
 356 0104 FEFFFFEB 		bl	chEvtGetAndClearEvents
 357              	.LVL40:
 358              		.loc 1 180 0
 359 0108 101F6FE1 		clz	r1, r0
 360 010c 0600A0E3 		mov	r0, #6
 361              	.LVL41:
 362 0110 A112A0E1 		mov	r1, r1, lsr #5
 363 0114 FEFFFFEB 		bl	_test_assert
 364              	.LVL42:
 365 0118 000050E3 		cmp	r0, #0
 366 011c C4FFFF1A 		bne	.L15
 367              		.loc 1 181 0
 368 0120 FEFFFFEB 		bl	test_wait_threads
 369              	.LVL43:
 370              		.loc 1 186 0
 371 0124 0500A0E3 		mov	r0, #5
 372 0128 FEFFFFEB 		bl	chEvtAddEvents
 373              	.LVL44:
 374              		.loc 1 187 0
 375 012c 0000E0E3 		mvn	r0, #0
 376 0130 FEFFFFEB 		bl	chEvtWaitAny
 377              	.LVL45:
 378              		.loc 1 188 0
 379 0134 051040E2 		sub	r1, r0, #5
 380 0138 111F6FE1 		clz	r1, r1
 381 013c 0700A0E3 		mov	r0, #7
 382              	.LVL46:
 383 0140 A112A0E1 		mov	r1, r1, lsr #5
 384 0144 FEFFFFEB 		bl	_test_assert
 385              	.LVL47:
 386 0148 000050E3 		cmp	r0, #0
 387 014c B8FFFF1A 		bne	.L15
 388              		.loc 1 189 0
 389 0150 0000E0E3 		mvn	r0, #0
 390 0154 FEFFFFEB 		bl	chEvtGetAndClearEvents
 391              	.LVL48:
 392              		.loc 1 190 0
 393 0158 101F6FE1 		clz	r1, r0
 394 015c 0800A0E3 		mov	r0, #8
 395              	.LVL49:
 396 0160 A112A0E1 		mov	r1, r1, lsr #5
 397 0164 FEFFFFEB 		bl	_test_assert
 398              	.LVL50:
 399 0168 000050E3 		cmp	r0, #0
ARM GAS  /tmp/ccfVcRHv.s 			page 8


 400 016c B0FFFF1A 		bne	.L15
 401              		.loc 1 195 0
 402 0170 FEFFFFEB 		bl	test_wait_tick
 403              	.LVL51:
 404              		.loc 1 197 0
 405 0174 183098E5 		ldr	r3, [r8, #24]
 406 0178 461FA0E3 		mov	r1, #280
 407 017c 082093E5 		ldr	r2, [r3, #8]
 408 0180 0700A0E1 		mov	r0, r7
 409 0184 012042E2 		sub	r2, r2, #1
 410 0188 00308DE5 		str	r3, [sp]
 411 018c 70319FE5 		ldr	r3, .L20+12
 412              		.loc 1 196 0
 413 0190 0C4096E5 		ldr	r4, [r6, #12]
 414              	.LVL52:
 415              		.loc 1 197 0
 416 0194 FEFFFFEB 		bl	chThdCreateStatic
 417              	.LVL53:
 418 0198 000085E5 		str	r0, [r5]
 419              		.loc 1 199 0
 420 019c 0000E0E3 		mvn	r0, #0
 421 01a0 FEFFFFEB 		bl	chEvtWaitAny
 422              	.LVL54:
 423              		.loc 1 200 0
 424 01a4 321084E2 		add	r1, r4, #50
 425              	.LVL55:
 426              		.loc 1 199 0
 427 01a8 0090A0E1 		mov	r9, r0
 428              	.LVL56:
 429              		.loc 1 200 0
 430 01ac 372084E2 		add	r2, r4, #55
 431 01b0 0900A0E3 		mov	r0, #9
 432              	.LVL57:
 433 01b4 FEFFFFEB 		bl	_test_assert_time_window
 434              	.LVL58:
 435 01b8 000050E3 		cmp	r0, #0
 436 01bc 9CFFFF1A 		bne	.L15
 437              		.loc 1 201 0
 438 01c0 011049E2 		sub	r1, r9, #1
 439 01c4 111F6FE1 		clz	r1, r1
 440 01c8 0A00A0E3 		mov	r0, #10
 441 01cc A112A0E1 		mov	r1, r1, lsr #5
 442 01d0 FEFFFFEB 		bl	_test_assert
 443              	.LVL59:
 444 01d4 000050E3 		cmp	r0, #0
 445 01d8 95FFFF1A 		bne	.L15
 446              		.loc 1 202 0
 447 01dc 0000E0E3 		mvn	r0, #0
 448 01e0 FEFFFFEB 		bl	chEvtGetAndClearEvents
 449              	.LVL60:
 450              		.loc 1 203 0
 451 01e4 101F6FE1 		clz	r1, r0
 452 01e8 0B00A0E3 		mov	r0, #11
 453              	.LVL61:
 454 01ec A112A0E1 		mov	r1, r1, lsr #5
 455 01f0 FEFFFFEB 		bl	_test_assert
 456              	.LVL62:
ARM GAS  /tmp/ccfVcRHv.s 			page 9


 457 01f4 000050E3 		cmp	r0, #0
 458 01f8 8DFFFF1A 		bne	.L15
 459              		.loc 1 209 0
 460 01fc 08919FE5 		ldr	r9, .L20+20
 461              		.loc 1 210 0
 462 0200 08419FE5 		ldr	r4, .L20+24
 463              	.LVL63:
 464              		.loc 1 204 0
 465 0204 FEFFFFEB 		bl	test_wait_threads
 466              	.LVL64:
 467              		.loc 1 211 0
 468 0208 0900A0E1 		mov	r0, r9
 469 020c 08108DE2 		add	r1, sp, #8
 470 0210 0120A0E3 		mov	r2, #1
 471              		.loc 1 209 0
 472 0214 009089E5 		str	r9, [r9]
 473              		.loc 1 210 0
 474 0218 004084E5 		str	r4, [r4]
 475              		.loc 1 211 0
 476 021c FEFFFFEB 		bl	chEvtRegisterMask
 477              	.LVL65:
 478              		.loc 1 212 0
 479 0220 18108DE2 		add	r1, sp, #24
 480 0224 0420A0E3 		mov	r2, #4
 481 0228 0400A0E1 		mov	r0, r4
 482 022c FEFFFFEB 		bl	chEvtRegisterMask
 483              	.LVL66:
 484              		.loc 1 213 0
 485 0230 FEFFFFEB 		bl	test_wait_tick
 486              	.LVL67:
 487              		.loc 1 215 0
 488 0234 182098E5 		ldr	r2, [r8, #24]
 489 0238 D4309FE5 		ldr	r3, .L20+28
 490 023c 082092E5 		ldr	r2, [r2, #8]
 491 0240 461FA0E3 		mov	r1, #280
 492 0244 012042E2 		sub	r2, r2, #1
 493 0248 00308DE5 		str	r3, [sp]
 494 024c 0700A0E1 		mov	r0, r7
 495 0250 C0309FE5 		ldr	r3, .L20+32
 496              		.loc 1 214 0
 497 0254 0C6096E5 		ldr	r6, [r6, #12]
 498              	.LVL68:
 499              		.loc 1 215 0
 500 0258 FEFFFFEB 		bl	chThdCreateStatic
 501              	.LVL69:
 502 025c 000085E5 		str	r0, [r5]
 503              		.loc 1 217 0
 504 0260 0500A0E3 		mov	r0, #5
 505 0264 FEFFFFEB 		bl	chEvtWaitAll
 506              	.LVL70:
 507              		.loc 1 218 0
 508 0268 321086E2 		add	r1, r6, #50
 509              	.LVL71:
 510 026c 372086E2 		add	r2, r6, #55
 511 0270 0C00A0E3 		mov	r0, #12
 512 0274 FEFFFFEB 		bl	_test_assert_time_window
 513              	.LVL72:
ARM GAS  /tmp/ccfVcRHv.s 			page 10


 514 0278 000050E3 		cmp	r0, #0
 515 027c 6CFFFF1A 		bne	.L15
 516              		.loc 1 219 0
 517 0280 0000E0E3 		mvn	r0, #0
 518 0284 FEFFFFEB 		bl	chEvtGetAndClearEvents
 519              	.LVL73:
 520              		.loc 1 220 0
 521 0288 101F6FE1 		clz	r1, r0
 522 028c 0D00A0E3 		mov	r0, #13
 523              	.LVL74:
 524 0290 A112A0E1 		mov	r1, r1, lsr #5
 525 0294 FEFFFFEB 		bl	_test_assert
 526              	.LVL75:
 527 0298 000050E3 		cmp	r0, #0
 528 029c 64FFFF1A 		bne	.L15
 529              		.loc 1 221 0
 530 02a0 FEFFFFEB 		bl	test_wait_threads
 531              	.LVL76:
 532              		.loc 1 222 0
 533 02a4 0900A0E1 		mov	r0, r9
 534 02a8 08108DE2 		add	r1, sp, #8
 535 02ac FEFFFFEB 		bl	chEvtUnregister
 536              	.LVL77:
 537              		.loc 1 223 0
 538 02b0 0400A0E1 		mov	r0, r4
 539 02b4 18108DE2 		add	r1, sp, #24
 540 02b8 FEFFFFEB 		bl	chEvtUnregister
 541              	.LVL78:
 542              		.loc 1 224 0
 543 02bc 001099E5 		ldr	r1, [r9]
 544 02c0 0E00A0E3 		mov	r0, #14
 545 02c4 011069E0 		rsb	r1, r9, r1
 546 02c8 111F6FE1 		clz	r1, r1
 547 02cc A112A0E1 		mov	r1, r1, lsr #5
 548 02d0 FEFFFFEB 		bl	_test_assert
 549              	.LVL79:
 550 02d4 000050E3 		cmp	r0, #0
 551 02d8 55FFFF1A 		bne	.L15
 552              		.loc 1 225 0
 553 02dc 001094E5 		ldr	r1, [r4]
 554 02e0 0F00A0E3 		mov	r0, #15
 555 02e4 011064E0 		rsb	r1, r4, r1
 556 02e8 111F6FE1 		clz	r1, r1
 557 02ec A112A0E1 		mov	r1, r1, lsr #5
 558 02f0 FEFFFFEB 		bl	_test_assert
 559              	.LVL80:
 560 02f4 4EFFFFEA 		b	.L15
 561              	.L21:
 562              		.align	2
 563              	.L20:
 564 02f8 00000000 		.word	rlist
 565 02fc 00000000 		.word	wa
 566 0300 00000000 		.word	vtlist
 567 0304 00000000 		.word	thread1
 568 0308 00000000 		.word	threads
 569 030c 00000000 		.word	.LANCHOR0
 570 0310 00000000 		.word	.LANCHOR2
ARM GAS  /tmp/ccfVcRHv.s 			page 11


 571 0314 04000000 		.word	.LC1
 572 0318 00000000 		.word	thread2
 573              		.cfi_endproc
 574              	.LFE15:
 575              		.size	evt2_execute, .-evt2_execute
 576              		.section	.text.thread2,"ax",%progbits
 577              		.align	2
 578              		.type	thread2, %function
 579              	thread2:
 580              	.LFB14:
 581              		.loc 1 144 0
 582              		.cfi_startproc
 583              		@ args = 0, pretend = 0, frame = 0
 584              		@ frame_needed = 0, uses_anonymous_args = 0
 585              	.LVL81:
 586 0000 08402DE9 		stmfd	sp!, {r3, lr}
 587              		.cfi_def_cfa_offset 8
 588              		.cfi_offset 3, -8
 589              		.cfi_offset 14, -4
 590              		.loc 1 147 0
 591 0004 0010A0E3 		mov	r1, #0
 592 0008 1C009FE5 		ldr	r0, .L24
 593              	.LVL82:
 594 000c FEFFFFEB 		bl	chEvtBroadcastFlags
 595              	.LVL83:
 596              		.loc 1 148 0
 597 0010 3200A0E3 		mov	r0, #50
 598 0014 FEFFFFEB 		bl	chThdSleep
 599              	.LVL84:
 600              		.loc 1 149 0
 601 0018 10009FE5 		ldr	r0, .L24+4
 602 001c 0010A0E3 		mov	r1, #0
 603 0020 FEFFFFEB 		bl	chEvtBroadcastFlags
 604              	.LVL85:
 605              		.loc 1 151 0
 606 0024 0000A0E3 		mov	r0, #0
 607 0028 0880BDE8 		ldmfd	sp!, {r3, pc}
 608              	.L25:
 609              		.align	2
 610              	.L24:
 611 002c 00000000 		.word	.LANCHOR0
 612 0030 00000000 		.word	.LANCHOR2
 613              		.cfi_endproc
 614              	.LFE14:
 615              		.size	thread2, .-thread2
 616              		.section	.text.thread1,"ax",%progbits
 617              		.align	2
 618              		.type	thread1, %function
 619              	thread1:
 620              	.LFB13:
 621              		.loc 1 137 0
 622              		.cfi_startproc
 623              		@ args = 0, pretend = 0, frame = 0
 624              		@ frame_needed = 0, uses_anonymous_args = 0
 625              	.LVL86:
 626 0000 10402DE9 		stmfd	sp!, {r4, lr}
 627              		.cfi_def_cfa_offset 8
ARM GAS  /tmp/ccfVcRHv.s 			page 12


 628              		.cfi_offset 4, -8
 629              		.cfi_offset 14, -4
 630              		.loc 1 137 0
 631 0004 0040A0E1 		mov	r4, r0
 632              		.loc 1 139 0
 633 0008 3200A0E3 		mov	r0, #50
 634              	.LVL87:
 635 000c FEFFFFEB 		bl	chThdSleep
 636              	.LVL88:
 637              		.loc 1 140 0
 638 0010 0400A0E1 		mov	r0, r4
 639 0014 0110A0E3 		mov	r1, #1
 640 0018 FEFFFFEB 		bl	chEvtSignal
 641              	.LVL89:
 642              		.loc 1 142 0
 643 001c 0000A0E3 		mov	r0, #0
 644 0020 1080BDE8 		ldmfd	sp!, {r4, pc}
 645              		.cfi_endproc
 646              	.LFE13:
 647              		.size	thread1, .-thread1
 648              		.section	.text.evt3_execute,"ax",%progbits
 649              		.align	2
 650              		.type	evt3_execute, %function
 651              	evt3_execute:
 652              	.LFB17:
 653              		.loc 1 256 0
 654              		.cfi_startproc
 655              		@ args = 0, pretend = 0, frame = 0
 656              		@ frame_needed = 0, uses_anonymous_args = 0
 657 0000 08402DE9 		stmfd	sp!, {r3, lr}
 658              		.cfi_def_cfa_offset 8
 659              		.cfi_offset 3, -8
 660              		.cfi_offset 14, -4
 661              		.loc 1 262 0
 662 0004 0010A0E3 		mov	r1, #0
 663 0008 0000E0E3 		mvn	r0, #0
 664 000c FEFFFFEB 		bl	chEvtWaitOneTimeout
 665              	.LVL90:
 666              		.loc 1 263 0
 667 0010 101F6FE1 		clz	r1, r0
 668 0014 0100A0E3 		mov	r0, #1
 669              	.LVL91:
 670 0018 A112A0E1 		mov	r1, r1, lsr #5
 671 001c FEFFFFEB 		bl	_test_assert
 672              	.LVL92:
 673 0020 001050E2 		subs	r1, r0, #0
 674 0024 0880BD18 		ldmnefd	sp!, {r3, pc}
 675              		.loc 1 264 0
 676 0028 0000E0E3 		mvn	r0, #0
 677 002c FEFFFFEB 		bl	chEvtWaitAnyTimeout
 678              	.LVL93:
 679              		.loc 1 265 0
 680 0030 101F6FE1 		clz	r1, r0
 681 0034 0200A0E3 		mov	r0, #2
 682              	.LVL94:
 683 0038 A112A0E1 		mov	r1, r1, lsr #5
 684 003c FEFFFFEB 		bl	_test_assert
ARM GAS  /tmp/ccfVcRHv.s 			page 13


 685              	.LVL95:
 686 0040 001050E2 		subs	r1, r0, #0
 687 0044 0880BD18 		ldmnefd	sp!, {r3, pc}
 688              		.loc 1 266 0
 689 0048 0000E0E3 		mvn	r0, #0
 690 004c FEFFFFEB 		bl	chEvtWaitAllTimeout
 691              	.LVL96:
 692              		.loc 1 267 0
 693 0050 101F6FE1 		clz	r1, r0
 694 0054 0300A0E3 		mov	r0, #3
 695              	.LVL97:
 696 0058 A112A0E1 		mov	r1, r1, lsr #5
 697 005c FEFFFFEB 		bl	_test_assert
 698              	.LVL98:
 699 0060 000050E3 		cmp	r0, #0
 700 0064 0880BD18 		ldmnefd	sp!, {r3, pc}
 701              	.LBB4:
 702              	.LBB5:
 703              		.loc 1 268 0
 704 0068 0A10A0E3 		mov	r1, #10
 705 006c 0000E0E3 		mvn	r0, #0
 706 0070 FEFFFFEB 		bl	chEvtWaitOneTimeout
 707              	.LVL99:
 708              		.loc 1 269 0
 709 0074 101F6FE1 		clz	r1, r0
 710 0078 0400A0E3 		mov	r0, #4
 711              	.LVL100:
 712 007c A112A0E1 		mov	r1, r1, lsr #5
 713 0080 FEFFFFEB 		bl	_test_assert
 714              	.LVL101:
 715 0084 000050E3 		cmp	r0, #0
 716 0088 0880BD18 		ldmnefd	sp!, {r3, pc}
 717              		.loc 1 270 0
 718 008c 0A10A0E3 		mov	r1, #10
 719 0090 0000E0E3 		mvn	r0, #0
 720 0094 FEFFFFEB 		bl	chEvtWaitAnyTimeout
 721              	.LVL102:
 722              		.loc 1 271 0
 723 0098 101F6FE1 		clz	r1, r0
 724 009c 0500A0E3 		mov	r0, #5
 725              	.LVL103:
 726 00a0 A112A0E1 		mov	r1, r1, lsr #5
 727 00a4 FEFFFFEB 		bl	_test_assert
 728              	.LVL104:
 729 00a8 000050E3 		cmp	r0, #0
 730 00ac 0880BD18 		ldmnefd	sp!, {r3, pc}
 731              		.loc 1 272 0
 732 00b0 0A10A0E3 		mov	r1, #10
 733 00b4 0000E0E3 		mvn	r0, #0
 734 00b8 FEFFFFEB 		bl	chEvtWaitAllTimeout
 735              	.LVL105:
 736              	.LBE5:
 737              	.LBE4:
 738              		.loc 1 274 0
 739 00bc 0840BDE8 		ldmfd	sp!, {r3, lr}
 740              		.cfi_restore 14
 741              		.cfi_restore 3
ARM GAS  /tmp/ccfVcRHv.s 			page 14


 742              		.cfi_def_cfa_offset 0
 743              	.LBB7:
 744              	.LBB6:
 745              		.loc 1 273 0
 746 00c0 101F6FE1 		clz	r1, r0
 747 00c4 0600A0E3 		mov	r0, #6
 748              	.LVL106:
 749 00c8 A112A0E1 		mov	r1, r1, lsr #5
 750 00cc FEFFFFEA 		b	_test_assert
 751              	.LVL107:
 752              	.LBE6:
 753              	.LBE7:
 754              		.cfi_endproc
 755              	.LFE17:
 756              		.size	evt3_execute, .-evt3_execute
 757              		.global	patternevt
 758              		.global	testevt3
 759              		.global	testevt2
 760              		.global	testevt1
 761              		.section	.rodata.patternevt,"a",%progbits
 762              		.align	2
 763              		.type	patternevt, %object
 764              		.size	patternevt, 16
 765              	patternevt:
 766 0000 00000000 		.word	testevt1
 767 0004 00000000 		.word	testevt2
 768 0008 00000000 		.word	testevt3
 769 000c 00000000 		.word	0
 770              		.section	.rodata.testevt2,"a",%progbits
 771              		.align	2
 772              		.type	testevt2, %object
 773              		.size	testevt2, 16
 774              	testevt2:
 775 0000 1C000000 		.word	.LC3
 776 0004 00000000 		.word	evt2_setup
 777 0008 00000000 		.word	0
 778 000c 00000000 		.word	evt2_execute
 779              		.section	.rodata.str1.4,"aMS",%progbits,1
 780              		.align	2
 781              	.LC0:
 782 0000 41424300 		.ascii	"ABC\000"
 783              	.LC1:
 784 0004 4100     		.ascii	"A\000"
 785 0006 0000     		.space	2
 786              	.LC2:
 787 0008 4576656E 		.ascii	"Events, timeouts\000"
 787      74732C20 
 787      74696D65 
 787      6F757473 
 787      00
 788 0019 000000   		.space	3
 789              	.LC3:
 790 001c 4576656E 		.ascii	"Events, wait and broadcast\000"
 790      74732C20 
 790      77616974 
 790      20616E64 
 790      2062726F 
ARM GAS  /tmp/ccfVcRHv.s 			page 15


 791 0037 00       		.space	1
 792              	.LC4:
 793 0038 4576656E 		.ascii	"Events, registration and dispatch\000"
 793      74732C20 
 793      72656769 
 793      73747261 
 793      74696F6E 
 794              		.section	.rodata.testevt1,"a",%progbits
 795              		.align	2
 796              		.type	testevt1, %object
 797              		.size	testevt1, 16
 798              	testevt1:
 799 0000 38000000 		.word	.LC4
 800 0004 00000000 		.word	evt1_setup
 801 0008 00000000 		.word	0
 802 000c 00000000 		.word	evt1_execute
 803              		.section	.rodata.evhndl,"a",%progbits
 804              		.align	2
 805              		.set	.LANCHOR1,. + 0
 806              		.type	evhndl, %object
 807              		.size	evhndl, 12
 808              	evhndl:
 809 0000 00000000 		.word	h1
 810 0004 00000000 		.word	h2
 811 0008 00000000 		.word	h3
 812              		.section	.rodata.testevt3,"a",%progbits
 813              		.align	2
 814              		.type	testevt3, %object
 815              		.size	testevt3, 16
 816              	testevt3:
 817 0000 08000000 		.word	.LC2
 818 0004 00000000 		.word	evt3_setup
 819 0008 00000000 		.word	0
 820 000c 00000000 		.word	evt3_execute
 821              		.section	.data.es1,"aw",%progbits
 822              		.align	2
 823              		.set	.LANCHOR0,. + 0
 824              		.type	es1, %object
 825              		.size	es1, 4
 826              	es1:
 827 0000 00000000 		.word	es1
 828              		.section	.data.es2,"aw",%progbits
 829              		.align	2
 830              		.set	.LANCHOR2,. + 0
 831              		.type	es2, %object
 832              		.size	es2, 4
 833              	es2:
 834 0000 00000000 		.word	es2
 835              		.text
 836              	.Letext0:
 837              		.file 2 "/usr/lib/gcc/arm-none-eabi/4.9.3/include/stddef.h"
 838              		.file 3 "/usr/include/newlib/machine/_default_types.h"
 839              		.file 4 "/usr/include/newlib/sys/_stdint.h"
 840              		.file 5 "../../os/ports/GCC/ARM/chtypes.h"
 841              		.file 6 "../../os/kernel/include/chlists.h"
 842              		.file 7 "../../os/kernel/include/chthreads.h"
 843              		.file 8 "../../os/ports/GCC/ARM/chcore.h"
ARM GAS  /tmp/ccfVcRHv.s 			page 16


 844              		.file 9 "../../os/kernel/include/chvt.h"
 845              		.file 10 "../../os/kernel/include/chschd.h"
 846              		.file 11 "../../os/kernel/include/chmtx.h"
 847              		.file 12 "../../os/kernel/include/chevents.h"
 848              		.file 13 "../../test/test.h"
 849              		.section	.debug_info,"",%progbits
 850              	.Ldebug_info0:
 851 0000 7A100000 		.4byte	0x107a
 852 0004 0400     		.2byte	0x4
 853 0006 00000000 		.4byte	.Ldebug_abbrev0
 854 000a 04       		.byte	0x4
 855 000b 01       		.uleb128 0x1
 856 000c 4B050000 		.4byte	.LASF126
 857 0010 01       		.byte	0x1
 858 0011 14040000 		.4byte	.LASF127
 859 0015 A2040000 		.4byte	.LASF128
 860 0019 18000000 		.4byte	.Ldebug_ranges0+0x18
 861 001d 00000000 		.4byte	0
 862 0021 00000000 		.4byte	.Ldebug_line0
 863 0025 02       		.uleb128 0x2
 864 0026 04       		.byte	0x4
 865 0027 05       		.byte	0x5
 866 0028 696E7400 		.ascii	"int\000"
 867 002c 03       		.uleb128 0x3
 868 002d 19000000 		.4byte	.LASF2
 869 0031 02       		.byte	0x2
 870 0032 D4       		.byte	0xd4
 871 0033 37000000 		.4byte	0x37
 872 0037 04       		.uleb128 0x4
 873 0038 04       		.byte	0x4
 874 0039 07       		.byte	0x7
 875 003a A2010000 		.4byte	.LASF0
 876 003e 04       		.uleb128 0x4
 877 003f 01       		.byte	0x1
 878 0040 06       		.byte	0x6
 879 0041 A9000000 		.4byte	.LASF1
 880 0045 03       		.uleb128 0x3
 881 0046 27000000 		.4byte	.LASF3
 882 004a 03       		.byte	0x3
 883 004b 1D       		.byte	0x1d
 884 004c 50000000 		.4byte	0x50
 885 0050 04       		.uleb128 0x4
 886 0051 01       		.byte	0x1
 887 0052 08       		.byte	0x8
 888 0053 71030000 		.4byte	.LASF4
 889 0057 04       		.uleb128 0x4
 890 0058 02       		.byte	0x2
 891 0059 05       		.byte	0x5
 892 005a B8030000 		.4byte	.LASF5
 893 005e 04       		.uleb128 0x4
 894 005f 02       		.byte	0x2
 895 0060 07       		.byte	0x7
 896 0061 0A020000 		.4byte	.LASF6
 897 0065 03       		.uleb128 0x3
 898 0066 78040000 		.4byte	.LASF7
 899 006a 03       		.byte	0x3
 900 006b 3F       		.byte	0x3f
ARM GAS  /tmp/ccfVcRHv.s 			page 17


 901 006c 70000000 		.4byte	0x70
 902 0070 04       		.uleb128 0x4
 903 0071 04       		.byte	0x4
 904 0072 05       		.byte	0x5
 905 0073 F2000000 		.4byte	.LASF8
 906 0077 03       		.uleb128 0x3
 907 0078 50010000 		.4byte	.LASF9
 908 007c 03       		.byte	0x3
 909 007d 41       		.byte	0x41
 910 007e 82000000 		.4byte	0x82
 911 0082 04       		.uleb128 0x4
 912 0083 04       		.byte	0x4
 913 0084 07       		.byte	0x7
 914 0085 B7010000 		.4byte	.LASF10
 915 0089 04       		.uleb128 0x4
 916 008a 08       		.byte	0x8
 917 008b 05       		.byte	0x5
 918 008c 9B000000 		.4byte	.LASF11
 919 0090 04       		.uleb128 0x4
 920 0091 08       		.byte	0x8
 921 0092 07       		.byte	0x7
 922 0093 44000000 		.4byte	.LASF12
 923 0097 03       		.uleb128 0x3
 924 0098 13050000 		.4byte	.LASF13
 925 009c 04       		.byte	0x4
 926 009d 14       		.byte	0x14
 927 009e 45000000 		.4byte	0x45
 928 00a2 03       		.uleb128 0x3
 929 00a3 69030000 		.4byte	.LASF14
 930 00a7 04       		.byte	0x4
 931 00a8 1F       		.byte	0x1f
 932 00a9 65000000 		.4byte	0x65
 933 00ad 03       		.uleb128 0x3
 934 00ae 39040000 		.4byte	.LASF15
 935 00b2 04       		.byte	0x4
 936 00b3 20       		.byte	0x20
 937 00b4 77000000 		.4byte	0x77
 938 00b8 03       		.uleb128 0x3
 939 00b9 C9000000 		.4byte	.LASF16
 940 00bd 05       		.byte	0x5
 941 00be 29       		.byte	0x29
 942 00bf A2000000 		.4byte	0xa2
 943 00c3 03       		.uleb128 0x3
 944 00c4 55020000 		.4byte	.LASF17
 945 00c8 05       		.byte	0x5
 946 00c9 2A       		.byte	0x2a
 947 00ca 97000000 		.4byte	0x97
 948 00ce 03       		.uleb128 0x3
 949 00cf 07010000 		.4byte	.LASF18
 950 00d3 05       		.byte	0x5
 951 00d4 2B       		.byte	0x2b
 952 00d5 97000000 		.4byte	0x97
 953 00d9 03       		.uleb128 0x3
 954 00da 4A030000 		.4byte	.LASF19
 955 00de 05       		.byte	0x5
 956 00df 2C       		.byte	0x2c
 957 00e0 97000000 		.4byte	0x97
ARM GAS  /tmp/ccfVcRHv.s 			page 18


 958 00e4 03       		.uleb128 0x3
 959 00e5 E8000000 		.4byte	.LASF20
 960 00e9 05       		.byte	0x5
 961 00ea 2D       		.byte	0x2d
 962 00eb 97000000 		.4byte	0x97
 963 00ef 03       		.uleb128 0x3
 964 00f0 61030000 		.4byte	.LASF21
 965 00f4 05       		.byte	0x5
 966 00f5 2E       		.byte	0x2e
 967 00f6 AD000000 		.4byte	0xad
 968 00fa 03       		.uleb128 0x3
 969 00fb 2F020000 		.4byte	.LASF22
 970 00ff 05       		.byte	0x5
 971 0100 2F       		.byte	0x2f
 972 0101 A2000000 		.4byte	0xa2
 973 0105 03       		.uleb128 0x3
 974 0106 80010000 		.4byte	.LASF23
 975 010a 05       		.byte	0x5
 976 010b 30       		.byte	0x30
 977 010c A2000000 		.4byte	0xa2
 978 0110 03       		.uleb128 0x3
 979 0111 69020000 		.4byte	.LASF24
 980 0115 05       		.byte	0x5
 981 0116 31       		.byte	0x31
 982 0117 AD000000 		.4byte	0xad
 983 011b 03       		.uleb128 0x3
 984 011c E5040000 		.4byte	.LASF25
 985 0120 05       		.byte	0x5
 986 0121 32       		.byte	0x32
 987 0122 AD000000 		.4byte	0xad
 988 0126 03       		.uleb128 0x3
 989 0127 63040000 		.4byte	.LASF26
 990 012b 05       		.byte	0x5
 991 012c 33       		.byte	0x33
 992 012d AD000000 		.4byte	0xad
 993 0131 03       		.uleb128 0x3
 994 0132 F9030000 		.4byte	.LASF27
 995 0136 06       		.byte	0x6
 996 0137 23       		.byte	0x23
 997 0138 3C010000 		.4byte	0x13c
 998 013c 05       		.uleb128 0x5
 999 013d F9030000 		.4byte	.LASF27
 1000 0141 44       		.byte	0x44
 1001 0142 07       		.byte	0x7
 1002 0143 57       		.byte	0x57
 1003 0144 2D020000 		.4byte	0x22d
 1004 0148 06       		.uleb128 0x6
 1005 0149 EA030000 		.4byte	.LASF28
 1006 014d 07       		.byte	0x7
 1007 014e 58       		.byte	0x58
 1008 014f 4E020000 		.4byte	0x24e
 1009 0153 00       		.byte	0
 1010 0154 06       		.uleb128 0x6
 1011 0155 52030000 		.4byte	.LASF29
 1012 0159 07       		.byte	0x7
 1013 015a 5A       		.byte	0x5a
 1014 015b 4E020000 		.4byte	0x24e
ARM GAS  /tmp/ccfVcRHv.s 			page 19


 1015 015f 04       		.byte	0x4
 1016 0160 06       		.uleb128 0x6
 1017 0161 87000000 		.4byte	.LASF30
 1018 0165 07       		.byte	0x7
 1019 0166 5C       		.byte	0x5c
 1020 0167 EF000000 		.4byte	0xef
 1021 016b 08       		.byte	0x8
 1022 016c 06       		.uleb128 0x6
 1023 016d 22060000 		.4byte	.LASF31
 1024 0171 07       		.byte	0x7
 1025 0172 5D       		.byte	0x5d
 1026 0173 FE020000 		.4byte	0x2fe
 1027 0177 0C       		.byte	0xc
 1028 0178 06       		.uleb128 0x6
 1029 0179 48010000 		.4byte	.LASF32
 1030 017d 07       		.byte	0x7
 1031 017e 5F       		.byte	0x5f
 1032 017f 4E020000 		.4byte	0x24e
 1033 0183 10       		.byte	0x10
 1034 0184 06       		.uleb128 0x6
 1035 0185 DC020000 		.4byte	.LASF33
 1036 0189 07       		.byte	0x7
 1037 018a 60       		.byte	0x60
 1038 018b 4E020000 		.4byte	0x24e
 1039 018f 14       		.byte	0x14
 1040 0190 06       		.uleb128 0x6
 1041 0191 44050000 		.4byte	.LASF34
 1042 0195 07       		.byte	0x7
 1043 0196 67       		.byte	0x67
 1044 0197 3D050000 		.4byte	0x53d
 1045 019b 18       		.byte	0x18
 1046 019c 06       		.uleb128 0x6
 1047 019d C2030000 		.4byte	.LASF35
 1048 01a1 07       		.byte	0x7
 1049 01a2 72       		.byte	0x72
 1050 01a3 CE000000 		.4byte	0xce
 1051 01a7 1C       		.byte	0x1c
 1052 01a8 06       		.uleb128 0x6
 1053 01a9 F1030000 		.4byte	.LASF36
 1054 01ad 07       		.byte	0x7
 1055 01ae 76       		.byte	0x76
 1056 01af C3000000 		.4byte	0xc3
 1057 01b3 1D       		.byte	0x1d
 1058 01b4 06       		.uleb128 0x6
 1059 01b5 FC040000 		.4byte	.LASF37
 1060 01b9 07       		.byte	0x7
 1061 01ba 7B       		.byte	0x7b
 1062 01bb D9000000 		.4byte	0xd9
 1063 01bf 1E       		.byte	0x1e
 1064 01c0 06       		.uleb128 0x6
 1065 01c1 CA030000 		.4byte	.LASF38
 1066 01c5 07       		.byte	0x7
 1067 01c6 81       		.byte	0x81
 1068 01c7 E4000000 		.4byte	0xe4
 1069 01cb 1F       		.byte	0x1f
 1070 01cc 06       		.uleb128 0x6
 1071 01cd 82040000 		.4byte	.LASF39
ARM GAS  /tmp/ccfVcRHv.s 			page 20


 1072 01d1 07       		.byte	0x7
 1073 01d2 88       		.byte	0x88
 1074 01d3 CC030000 		.4byte	0x3cc
 1075 01d7 20       		.byte	0x20
 1076 01d8 07       		.uleb128 0x7
 1077 01d9 705F7500 		.ascii	"p_u\000"
 1078 01dd 07       		.byte	0x7
 1079 01de AD       		.byte	0xad
 1080 01df 08050000 		.4byte	0x508
 1081 01e3 24       		.byte	0x24
 1082 01e4 06       		.uleb128 0x6
 1083 01e5 28060000 		.4byte	.LASF40
 1084 01e9 07       		.byte	0x7
 1085 01ea B2       		.byte	0xb2
 1086 01eb 74020000 		.4byte	0x274
 1087 01ef 28       		.byte	0x28
 1088 01f0 06       		.uleb128 0x6
 1089 01f1 90040000 		.4byte	.LASF41
 1090 01f5 07       		.byte	0x7
 1091 01f6 B8       		.byte	0xb8
 1092 01f7 54020000 		.4byte	0x254
 1093 01fb 2C       		.byte	0x2c
 1094 01fc 06       		.uleb128 0x6
 1095 01fd 13000000 		.4byte	.LASF42
 1096 0201 07       		.byte	0x7
 1097 0202 BC       		.byte	0xbc
 1098 0203 FA000000 		.4byte	0xfa
 1099 0207 34       		.byte	0x34
 1100 0208 06       		.uleb128 0x6
 1101 0209 09040000 		.4byte	.LASF43
 1102 020d 07       		.byte	0x7
 1103 020e C2       		.byte	0xc2
 1104 020f 10010000 		.4byte	0x110
 1105 0213 38       		.byte	0x38
 1106 0214 06       		.uleb128 0x6
 1107 0215 AE030000 		.4byte	.LASF44
 1108 0219 07       		.byte	0x7
 1109 021a C9       		.byte	0xc9
 1110 021b 4F050000 		.4byte	0x54f
 1111 021f 3C       		.byte	0x3c
 1112 0220 06       		.uleb128 0x6
 1113 0221 6D040000 		.4byte	.LASF45
 1114 0225 07       		.byte	0x7
 1115 0226 CD       		.byte	0xcd
 1116 0227 EF000000 		.4byte	0xef
 1117 022b 40       		.byte	0x40
 1118 022c 00       		.byte	0
 1119 022d 08       		.uleb128 0x8
 1120 022e 08       		.byte	0x8
 1121 022f 06       		.byte	0x6
 1122 0230 5A       		.byte	0x5a
 1123 0231 4E020000 		.4byte	0x24e
 1124 0235 06       		.uleb128 0x6
 1125 0236 EA030000 		.4byte	.LASF28
 1126 023a 06       		.byte	0x6
 1127 023b 5B       		.byte	0x5b
 1128 023c 4E020000 		.4byte	0x24e
ARM GAS  /tmp/ccfVcRHv.s 			page 21


 1129 0240 00       		.byte	0
 1130 0241 06       		.uleb128 0x6
 1131 0242 52030000 		.4byte	.LASF29
 1132 0246 06       		.byte	0x6
 1133 0247 5D       		.byte	0x5d
 1134 0248 4E020000 		.4byte	0x24e
 1135 024c 04       		.byte	0x4
 1136 024d 00       		.byte	0
 1137 024e 09       		.uleb128 0x9
 1138 024f 04       		.byte	0x4
 1139 0250 31010000 		.4byte	0x131
 1140 0254 03       		.uleb128 0x3
 1141 0255 FA020000 		.4byte	.LASF46
 1142 0259 06       		.byte	0x6
 1143 025a 5F       		.byte	0x5f
 1144 025b 2D020000 		.4byte	0x22d
 1145 025f 08       		.uleb128 0x8
 1146 0260 04       		.byte	0x4
 1147 0261 06       		.byte	0x6
 1148 0262 64       		.byte	0x64
 1149 0263 74020000 		.4byte	0x274
 1150 0267 06       		.uleb128 0x6
 1151 0268 EA030000 		.4byte	.LASF28
 1152 026c 06       		.byte	0x6
 1153 026d 66       		.byte	0x66
 1154 026e 4E020000 		.4byte	0x24e
 1155 0272 00       		.byte	0
 1156 0273 00       		.byte	0
 1157 0274 03       		.uleb128 0x3
 1158 0275 5D020000 		.4byte	.LASF47
 1159 0279 06       		.byte	0x6
 1160 027a 69       		.byte	0x69
 1161 027b 5F020000 		.4byte	0x25f
 1162 027f 03       		.uleb128 0x3
 1163 0280 5B010000 		.4byte	.LASF48
 1164 0284 08       		.byte	0x8
 1165 0285 A2       		.byte	0xa2
 1166 0286 8A020000 		.4byte	0x28a
 1167 028a 0A       		.uleb128 0xa
 1168 028b 04       		.byte	0x4
 1169 028c 05       		.uleb128 0x5
 1170 028d 89040000 		.4byte	.LASF49
 1171 0291 24       		.byte	0x24
 1172 0292 08       		.byte	0x8
 1173 0293 B9       		.byte	0xb9
 1174 0294 FE020000 		.4byte	0x2fe
 1175 0298 07       		.uleb128 0x7
 1176 0299 723400   		.ascii	"r4\000"
 1177 029c 08       		.byte	0x8
 1178 029d BA       		.byte	0xba
 1179 029e 7F020000 		.4byte	0x27f
 1180 02a2 00       		.byte	0
 1181 02a3 07       		.uleb128 0x7
 1182 02a4 723500   		.ascii	"r5\000"
 1183 02a7 08       		.byte	0x8
 1184 02a8 BB       		.byte	0xbb
 1185 02a9 7F020000 		.4byte	0x27f
ARM GAS  /tmp/ccfVcRHv.s 			page 22


 1186 02ad 04       		.byte	0x4
 1187 02ae 07       		.uleb128 0x7
 1188 02af 723600   		.ascii	"r6\000"
 1189 02b2 08       		.byte	0x8
 1190 02b3 BC       		.byte	0xbc
 1191 02b4 7F020000 		.4byte	0x27f
 1192 02b8 08       		.byte	0x8
 1193 02b9 07       		.uleb128 0x7
 1194 02ba 723700   		.ascii	"r7\000"
 1195 02bd 08       		.byte	0x8
 1196 02be BD       		.byte	0xbd
 1197 02bf 7F020000 		.4byte	0x27f
 1198 02c3 0C       		.byte	0xc
 1199 02c4 07       		.uleb128 0x7
 1200 02c5 723800   		.ascii	"r8\000"
 1201 02c8 08       		.byte	0x8
 1202 02c9 BE       		.byte	0xbe
 1203 02ca 7F020000 		.4byte	0x27f
 1204 02ce 10       		.byte	0x10
 1205 02cf 07       		.uleb128 0x7
 1206 02d0 723900   		.ascii	"r9\000"
 1207 02d3 08       		.byte	0x8
 1208 02d4 BF       		.byte	0xbf
 1209 02d5 7F020000 		.4byte	0x27f
 1210 02d9 14       		.byte	0x14
 1211 02da 07       		.uleb128 0x7
 1212 02db 72313000 		.ascii	"r10\000"
 1213 02df 08       		.byte	0x8
 1214 02e0 C0       		.byte	0xc0
 1215 02e1 7F020000 		.4byte	0x27f
 1216 02e5 18       		.byte	0x18
 1217 02e6 07       		.uleb128 0x7
 1218 02e7 72313100 		.ascii	"r11\000"
 1219 02eb 08       		.byte	0x8
 1220 02ec C1       		.byte	0xc1
 1221 02ed 7F020000 		.4byte	0x27f
 1222 02f1 1C       		.byte	0x1c
 1223 02f2 07       		.uleb128 0x7
 1224 02f3 6C7200   		.ascii	"lr\000"
 1225 02f6 08       		.byte	0x8
 1226 02f7 C2       		.byte	0xc2
 1227 02f8 7F020000 		.4byte	0x27f
 1228 02fc 20       		.byte	0x20
 1229 02fd 00       		.byte	0
 1230 02fe 05       		.uleb128 0x5
 1231 02ff 02020000 		.4byte	.LASF50
 1232 0303 04       		.byte	0x4
 1233 0304 08       		.byte	0x8
 1234 0305 CA       		.byte	0xca
 1235 0306 17030000 		.4byte	0x317
 1236 030a 07       		.uleb128 0x7
 1237 030b 72313300 		.ascii	"r13\000"
 1238 030f 08       		.byte	0x8
 1239 0310 CB       		.byte	0xcb
 1240 0311 17030000 		.4byte	0x317
 1241 0315 00       		.byte	0
 1242 0316 00       		.byte	0
ARM GAS  /tmp/ccfVcRHv.s 			page 23


 1243 0317 09       		.uleb128 0x9
 1244 0318 04       		.byte	0x4
 1245 0319 8C020000 		.4byte	0x28c
 1246 031d 03       		.uleb128 0x3
 1247 031e F4010000 		.4byte	.LASF51
 1248 0322 09       		.byte	0x9
 1249 0323 4E       		.byte	0x4e
 1250 0324 28030000 		.4byte	0x328
 1251 0328 09       		.uleb128 0x9
 1252 0329 04       		.byte	0x4
 1253 032a 2E030000 		.4byte	0x32e
 1254 032e 0B       		.uleb128 0xb
 1255 032f 39030000 		.4byte	0x339
 1256 0333 0C       		.uleb128 0xc
 1257 0334 8A020000 		.4byte	0x28a
 1258 0338 00       		.byte	0
 1259 0339 03       		.uleb128 0x3
 1260 033a 4A040000 		.4byte	.LASF52
 1261 033e 09       		.byte	0x9
 1262 033f 53       		.byte	0x53
 1263 0340 44030000 		.4byte	0x344
 1264 0344 05       		.uleb128 0x5
 1265 0345 4A040000 		.4byte	.LASF52
 1266 0349 14       		.byte	0x14
 1267 034a 09       		.byte	0x9
 1268 034b 5A       		.byte	0x5a
 1269 034c 8D030000 		.4byte	0x38d
 1270 0350 06       		.uleb128 0x6
 1271 0351 AF010000 		.4byte	.LASF53
 1272 0355 09       		.byte	0x9
 1273 0356 5B       		.byte	0x5b
 1274 0357 8D030000 		.4byte	0x38d
 1275 035b 00       		.byte	0
 1276 035c 06       		.uleb128 0x6
 1277 035d 64010000 		.4byte	.LASF54
 1278 0361 09       		.byte	0x9
 1279 0362 5D       		.byte	0x5d
 1280 0363 8D030000 		.4byte	0x38d
 1281 0367 04       		.byte	0x4
 1282 0368 06       		.uleb128 0x6
 1283 0369 8D020000 		.4byte	.LASF55
 1284 036d 09       		.byte	0x9
 1285 036e 5F       		.byte	0x5f
 1286 036f 26010000 		.4byte	0x126
 1287 0373 08       		.byte	0x8
 1288 0374 06       		.uleb128 0x6
 1289 0375 A9020000 		.4byte	.LASF56
 1290 0379 09       		.byte	0x9
 1291 037a 60       		.byte	0x60
 1292 037b 1D030000 		.4byte	0x31d
 1293 037f 0C       		.byte	0xc
 1294 0380 06       		.uleb128 0x6
 1295 0381 9B040000 		.4byte	.LASF57
 1296 0385 09       		.byte	0x9
 1297 0386 62       		.byte	0x62
 1298 0387 8A020000 		.4byte	0x28a
 1299 038b 10       		.byte	0x10
ARM GAS  /tmp/ccfVcRHv.s 			page 24


 1300 038c 00       		.byte	0
 1301 038d 09       		.uleb128 0x9
 1302 038e 04       		.byte	0x4
 1303 038f 39030000 		.4byte	0x339
 1304 0393 08       		.uleb128 0x8
 1305 0394 10       		.byte	0x10
 1306 0395 09       		.byte	0x9
 1307 0396 6C       		.byte	0x6c
 1308 0397 CC030000 		.4byte	0x3cc
 1309 039b 06       		.uleb128 0x6
 1310 039c AF010000 		.4byte	.LASF53
 1311 03a0 09       		.byte	0x9
 1312 03a1 6D       		.byte	0x6d
 1313 03a2 8D030000 		.4byte	0x38d
 1314 03a6 00       		.byte	0
 1315 03a7 06       		.uleb128 0x6
 1316 03a8 64010000 		.4byte	.LASF54
 1317 03ac 09       		.byte	0x9
 1318 03ad 6F       		.byte	0x6f
 1319 03ae 8D030000 		.4byte	0x38d
 1320 03b2 04       		.byte	0x4
 1321 03b3 06       		.uleb128 0x6
 1322 03b4 8D020000 		.4byte	.LASF55
 1323 03b8 09       		.byte	0x9
 1324 03b9 71       		.byte	0x71
 1325 03ba 26010000 		.4byte	0x126
 1326 03be 08       		.byte	0x8
 1327 03bf 06       		.uleb128 0x6
 1328 03c0 E4050000 		.4byte	.LASF58
 1329 03c4 09       		.byte	0x9
 1330 03c5 72       		.byte	0x72
 1331 03c6 CC030000 		.4byte	0x3cc
 1332 03ca 0C       		.byte	0xc
 1333 03cb 00       		.byte	0
 1334 03cc 0D       		.uleb128 0xd
 1335 03cd 26010000 		.4byte	0x126
 1336 03d1 03       		.uleb128 0x3
 1337 03d2 F7050000 		.4byte	.LASF59
 1338 03d6 09       		.byte	0x9
 1339 03d7 73       		.byte	0x73
 1340 03d8 93030000 		.4byte	0x393
 1341 03dc 08       		.uleb128 0x8
 1342 03dd 1C       		.byte	0x1c
 1343 03de 0A       		.byte	0xa
 1344 03df 57       		.byte	0x57
 1345 03e0 2D040000 		.4byte	0x42d
 1346 03e4 06       		.uleb128 0x6
 1347 03e5 42040000 		.4byte	.LASF60
 1348 03e9 0A       		.byte	0xa
 1349 03ea 58       		.byte	0x58
 1350 03eb 54020000 		.4byte	0x254
 1351 03ef 00       		.byte	0
 1352 03f0 06       		.uleb128 0x6
 1353 03f1 DC030000 		.4byte	.LASF61
 1354 03f5 0A       		.byte	0xa
 1355 03f6 59       		.byte	0x59
 1356 03f7 EF000000 		.4byte	0xef
ARM GAS  /tmp/ccfVcRHv.s 			page 25


 1357 03fb 08       		.byte	0x8
 1358 03fc 06       		.uleb128 0x6
 1359 03fd F4020000 		.4byte	.LASF62
 1360 0401 0A       		.byte	0xa
 1361 0402 5B       		.byte	0x5b
 1362 0403 FE020000 		.4byte	0x2fe
 1363 0407 0C       		.byte	0xc
 1364 0408 06       		.uleb128 0x6
 1365 0409 35020000 		.4byte	.LASF63
 1366 040d 0A       		.byte	0xa
 1367 040e 5E       		.byte	0x5e
 1368 040f 4E020000 		.4byte	0x24e
 1369 0413 10       		.byte	0x10
 1370 0414 06       		.uleb128 0x6
 1371 0415 3A030000 		.4byte	.LASF64
 1372 0419 0A       		.byte	0xa
 1373 041a 5F       		.byte	0x5f
 1374 041b 4E020000 		.4byte	0x24e
 1375 041f 14       		.byte	0x14
 1376 0420 06       		.uleb128 0x6
 1377 0421 30030000 		.4byte	.LASF65
 1378 0425 0A       		.byte	0xa
 1379 0426 62       		.byte	0x62
 1380 0427 4E020000 		.4byte	0x24e
 1381 042b 18       		.byte	0x18
 1382 042c 00       		.byte	0
 1383 042d 03       		.uleb128 0x3
 1384 042e 03050000 		.4byte	.LASF66
 1385 0432 0A       		.byte	0xa
 1386 0433 64       		.byte	0x64
 1387 0434 DC030000 		.4byte	0x3dc
 1388 0438 05       		.uleb128 0x5
 1389 0439 75020000 		.4byte	.LASF67
 1390 043d 10       		.byte	0x10
 1391 043e 0B       		.byte	0xb
 1392 043f 25       		.byte	0x25
 1393 0440 69040000 		.4byte	0x469
 1394 0444 06       		.uleb128 0x6
 1395 0445 D0000000 		.4byte	.LASF68
 1396 0449 0B       		.byte	0xb
 1397 044a 26       		.byte	0x26
 1398 044b 54020000 		.4byte	0x254
 1399 044f 00       		.byte	0
 1400 0450 06       		.uleb128 0x6
 1401 0451 FE050000 		.4byte	.LASF69
 1402 0455 0B       		.byte	0xb
 1403 0456 28       		.byte	0x28
 1404 0457 4E020000 		.4byte	0x24e
 1405 045b 08       		.byte	0x8
 1406 045c 06       		.uleb128 0x6
 1407 045d 5C040000 		.4byte	.LASF70
 1408 0461 0B       		.byte	0xb
 1409 0462 2A       		.byte	0x2a
 1410 0463 69040000 		.4byte	0x469
 1411 0467 0C       		.byte	0xc
 1412 0468 00       		.byte	0
 1413 0469 09       		.uleb128 0x9
ARM GAS  /tmp/ccfVcRHv.s 			page 26


 1414 046a 04       		.byte	0x4
 1415 046b 38040000 		.4byte	0x438
 1416 046f 03       		.uleb128 0x3
 1417 0470 75020000 		.4byte	.LASF67
 1418 0474 0B       		.byte	0xb
 1419 0475 2C       		.byte	0x2c
 1420 0476 38040000 		.4byte	0x438
 1421 047a 03       		.uleb128 0x3
 1422 047b 1B050000 		.4byte	.LASF71
 1423 047f 0C       		.byte	0xc
 1424 0480 25       		.byte	0x25
 1425 0481 85040000 		.4byte	0x485
 1426 0485 05       		.uleb128 0x5
 1427 0486 1B050000 		.4byte	.LASF71
 1428 048a 10       		.byte	0x10
 1429 048b 0C       		.byte	0xc
 1430 048c 2A       		.byte	0x2a
 1431 048d C2040000 		.4byte	0x4c2
 1432 0491 06       		.uleb128 0x6
 1433 0492 3D020000 		.4byte	.LASF72
 1434 0496 0C       		.byte	0xc
 1435 0497 2B       		.byte	0x2b
 1436 0498 C2040000 		.4byte	0x4c2
 1437 049c 00       		.byte	0
 1438 049d 06       		.uleb128 0x6
 1439 049e 8C030000 		.4byte	.LASF73
 1440 04a2 0C       		.byte	0xc
 1441 04a3 2E       		.byte	0x2e
 1442 04a4 4E020000 		.4byte	0x24e
 1443 04a8 04       		.byte	0x4
 1444 04a9 06       		.uleb128 0x6
 1445 04aa 42030000 		.4byte	.LASF74
 1446 04ae 0C       		.byte	0xc
 1447 04af 30       		.byte	0x30
 1448 04b0 10010000 		.4byte	0x110
 1449 04b4 08       		.byte	0x8
 1450 04b5 06       		.uleb128 0x6
 1451 04b6 A5030000 		.4byte	.LASF75
 1452 04ba 0C       		.byte	0xc
 1453 04bb 33       		.byte	0x33
 1454 04bc 1B010000 		.4byte	0x11b
 1455 04c0 0C       		.byte	0xc
 1456 04c1 00       		.byte	0
 1457 04c2 09       		.uleb128 0x9
 1458 04c3 04       		.byte	0x4
 1459 04c4 7A040000 		.4byte	0x47a
 1460 04c8 05       		.uleb128 0x5
 1461 04c9 8A010000 		.4byte	.LASF76
 1462 04cd 04       		.byte	0x4
 1463 04ce 0C       		.byte	0xc
 1464 04cf 3A       		.byte	0x3a
 1465 04d0 E1040000 		.4byte	0x4e1
 1466 04d4 06       		.uleb128 0x6
 1467 04d5 EF050000 		.4byte	.LASF77
 1468 04d9 0C       		.byte	0xc
 1469 04da 3B       		.byte	0x3b
 1470 04db C2040000 		.4byte	0x4c2
ARM GAS  /tmp/ccfVcRHv.s 			page 27


 1471 04df 00       		.byte	0
 1472 04e0 00       		.byte	0
 1473 04e1 03       		.uleb128 0x3
 1474 04e2 8A010000 		.4byte	.LASF76
 1475 04e6 0C       		.byte	0xc
 1476 04e7 3E       		.byte	0x3e
 1477 04e8 C8040000 		.4byte	0x4c8
 1478 04ec 03       		.uleb128 0x3
 1479 04ed 96010000 		.4byte	.LASF78
 1480 04f1 0C       		.byte	0xc
 1481 04f2 43       		.byte	0x43
 1482 04f3 F7040000 		.4byte	0x4f7
 1483 04f7 09       		.uleb128 0x9
 1484 04f8 04       		.byte	0x4
 1485 04f9 FD040000 		.4byte	0x4fd
 1486 04fd 0B       		.uleb128 0xb
 1487 04fe 08050000 		.4byte	0x508
 1488 0502 0C       		.uleb128 0xc
 1489 0503 05010000 		.4byte	0x105
 1490 0507 00       		.byte	0
 1491 0508 0E       		.uleb128 0xe
 1492 0509 04       		.byte	0x4
 1493 050a 07       		.byte	0x7
 1494 050b 8F       		.byte	0x8f
 1495 050c 3D050000 		.4byte	0x53d
 1496 0510 0F       		.uleb128 0xf
 1497 0511 20000000 		.4byte	.LASF79
 1498 0515 07       		.byte	0x7
 1499 0516 96       		.byte	0x96
 1500 0517 FA000000 		.4byte	0xfa
 1501 051b 0F       		.uleb128 0xf
 1502 051c 6A000000 		.4byte	.LASF80
 1503 0520 07       		.byte	0x7
 1504 0521 9D       		.byte	0x9d
 1505 0522 FA000000 		.4byte	0xfa
 1506 0526 0F       		.uleb128 0xf
 1507 0527 3D050000 		.4byte	.LASF81
 1508 052b 07       		.byte	0x7
 1509 052c A4       		.byte	0xa4
 1510 052d 8A020000 		.4byte	0x28a
 1511 0531 0F       		.uleb128 0xf
 1512 0532 E3030000 		.4byte	.LASF82
 1513 0536 07       		.byte	0x7
 1514 0537 AB       		.byte	0xab
 1515 0538 10010000 		.4byte	0x110
 1516 053c 00       		.byte	0
 1517 053d 09       		.uleb128 0x9
 1518 053e 04       		.byte	0x4
 1519 053f 43050000 		.4byte	0x543
 1520 0543 10       		.uleb128 0x10
 1521 0544 48050000 		.4byte	0x548
 1522 0548 04       		.uleb128 0x4
 1523 0549 01       		.byte	0x1
 1524 054a 08       		.byte	0x8
 1525 054b 57040000 		.4byte	.LASF83
 1526 054f 09       		.uleb128 0x9
 1527 0550 04       		.byte	0x4
ARM GAS  /tmp/ccfVcRHv.s 			page 28


 1528 0551 6F040000 		.4byte	0x46f
 1529 0555 03       		.uleb128 0x3
 1530 0556 00000000 		.4byte	.LASF84
 1531 055a 07       		.byte	0x7
 1532 055b DE       		.byte	0xde
 1533 055c 60050000 		.4byte	0x560
 1534 0560 09       		.uleb128 0x9
 1535 0561 04       		.byte	0x4
 1536 0562 66050000 		.4byte	0x566
 1537 0566 11       		.uleb128 0x11
 1538 0567 FA000000 		.4byte	0xfa
 1539 056b 75050000 		.4byte	0x575
 1540 056f 0C       		.uleb128 0xc
 1541 0570 8A020000 		.4byte	0x28a
 1542 0574 00       		.byte	0
 1543 0575 04       		.uleb128 0x4
 1544 0576 04       		.byte	0x4
 1545 0577 07       		.byte	0x7
 1546 0578 A0020000 		.4byte	.LASF85
 1547 057c 05       		.uleb128 0x5
 1548 057d 00040000 		.4byte	.LASF86
 1549 0581 10       		.byte	0x10
 1550 0582 0D       		.byte	0xd
 1551 0583 3F       		.byte	0x3f
 1552 0584 B9050000 		.4byte	0x5b9
 1553 0588 06       		.uleb128 0x6
 1554 0589 FD010000 		.4byte	.LASF87
 1555 058d 0D       		.byte	0xd
 1556 058e 40       		.byte	0x40
 1557 058f 3D050000 		.4byte	0x53d
 1558 0593 00       		.byte	0
 1559 0594 06       		.uleb128 0x6
 1560 0595 07030000 		.4byte	.LASF88
 1561 0599 0D       		.byte	0xd
 1562 059a 41       		.byte	0x41
 1563 059b BA050000 		.4byte	0x5ba
 1564 059f 04       		.byte	0x4
 1565 05a0 06       		.uleb128 0x6
 1566 05a1 E0010000 		.4byte	.LASF89
 1567 05a5 0D       		.byte	0xd
 1568 05a6 42       		.byte	0x42
 1569 05a7 BA050000 		.4byte	0x5ba
 1570 05ab 08       		.byte	0x8
 1571 05ac 06       		.uleb128 0x6
 1572 05ad 59030000 		.4byte	.LASF90
 1573 05b1 0D       		.byte	0xd
 1574 05b2 43       		.byte	0x43
 1575 05b3 BA050000 		.4byte	0x5ba
 1576 05b7 0C       		.byte	0xc
 1577 05b8 00       		.byte	0
 1578 05b9 12       		.uleb128 0x12
 1579 05ba 09       		.uleb128 0x9
 1580 05bb 04       		.byte	0x4
 1581 05bc B9050000 		.4byte	0x5b9
 1582 05c0 13       		.uleb128 0x13
 1583 05c1 98030000 		.4byte	.LASF129
 1584 05c5 01       		.byte	0x1
ARM GAS  /tmp/ccfVcRHv.s 			page 29


 1585 05c6 0001     		.2byte	0x100
 1586 05c8 01       		.byte	0x1
 1587 05c9 D8050000 		.4byte	0x5d8
 1588 05cd 14       		.uleb128 0x14
 1589 05ce 6D00     		.ascii	"m\000"
 1590 05d0 01       		.byte	0x1
 1591 05d1 0101     		.2byte	0x101
 1592 05d3 10010000 		.4byte	0x110
 1593 05d7 00       		.byte	0
 1594 05d8 15       		.uleb128 0x15
 1595 05d9 15060000 		.4byte	.LASF91
 1596 05dd 01       		.byte	0x1
 1597 05de 59       		.byte	0x59
 1598 05df 00000000 		.4byte	.LFB11
 1599 05e3 D0000000 		.4byte	.LFE11-.LFB11
 1600 05e7 01       		.uleb128 0x1
 1601 05e8 9C       		.byte	0x9c
 1602 05e9 E9060000 		.4byte	0x6e9
 1603 05ed 16       		.uleb128 0x16
 1604 05ee 656C3100 		.ascii	"el1\000"
 1605 05f2 01       		.byte	0x1
 1606 05f3 5A       		.byte	0x5a
 1607 05f4 7A040000 		.4byte	0x47a
 1608 05f8 02       		.uleb128 0x2
 1609 05f9 91       		.byte	0x91
 1610 05fa 58       		.sleb128 -40
 1611 05fb 16       		.uleb128 0x16
 1612 05fc 656C3200 		.ascii	"el2\000"
 1613 0600 01       		.byte	0x1
 1614 0601 5A       		.byte	0x5a
 1615 0602 7A040000 		.4byte	0x47a
 1616 0606 02       		.uleb128 0x2
 1617 0607 91       		.byte	0x91
 1618 0608 68       		.sleb128 -24
 1619 0609 17       		.uleb128 0x17
 1620 060a 20000000 		.4byte	.LVL0
 1621 060e 8E0E0000 		.4byte	0xe8e
 1622 0612 28060000 		.4byte	0x628
 1623 0616 18       		.uleb128 0x18
 1624 0617 01       		.uleb128 0x1
 1625 0618 52       		.byte	0x52
 1626 0619 01       		.uleb128 0x1
 1627 061a 31       		.byte	0x31
 1628 061b 18       		.uleb128 0x18
 1629 061c 01       		.uleb128 0x1
 1630 061d 51       		.byte	0x51
 1631 061e 02       		.uleb128 0x2
 1632 061f 7D       		.byte	0x7d
 1633 0620 00       		.sleb128 0
 1634 0621 18       		.uleb128 0x18
 1635 0622 01       		.uleb128 0x1
 1636 0623 50       		.byte	0x50
 1637 0624 02       		.uleb128 0x2
 1638 0625 74       		.byte	0x74
 1639 0626 00       		.sleb128 0
 1640 0627 00       		.byte	0
 1641 0628 17       		.uleb128 0x17
ARM GAS  /tmp/ccfVcRHv.s 			page 30


 1642 0629 30000000 		.4byte	.LVL1
 1643 062d 8E0E0000 		.4byte	0xe8e
 1644 0631 47060000 		.4byte	0x647
 1645 0635 18       		.uleb128 0x18
 1646 0636 01       		.uleb128 0x1
 1647 0637 52       		.byte	0x52
 1648 0638 01       		.uleb128 0x1
 1649 0639 32       		.byte	0x32
 1650 063a 18       		.uleb128 0x18
 1651 063b 01       		.uleb128 0x1
 1652 063c 51       		.byte	0x51
 1653 063d 02       		.uleb128 0x2
 1654 063e 91       		.byte	0x91
 1655 063f 60       		.sleb128 -32
 1656 0640 18       		.uleb128 0x18
 1657 0641 01       		.uleb128 0x1
 1658 0642 50       		.byte	0x50
 1659 0643 02       		.uleb128 0x2
 1660 0644 74       		.byte	0x74
 1661 0645 00       		.sleb128 0
 1662 0646 00       		.byte	0
 1663 0647 17       		.uleb128 0x17
 1664 0648 44000000 		.4byte	.LVL2
 1665 064c AF0E0000 		.4byte	0xeaf
 1666 0650 5A060000 		.4byte	0x65a
 1667 0654 18       		.uleb128 0x18
 1668 0655 01       		.uleb128 0x1
 1669 0656 50       		.byte	0x50
 1670 0657 01       		.uleb128 0x1
 1671 0658 31       		.byte	0x31
 1672 0659 00       		.byte	0
 1673 065a 17       		.uleb128 0x17
 1674 065b 60000000 		.4byte	.LVL3
 1675 065f C90E0000 		.4byte	0xec9
 1676 0663 74060000 		.4byte	0x674
 1677 0667 18       		.uleb128 0x18
 1678 0668 01       		.uleb128 0x1
 1679 0669 51       		.byte	0x51
 1680 066a 02       		.uleb128 0x2
 1681 066b 7D       		.byte	0x7d
 1682 066c 00       		.sleb128 0
 1683 066d 18       		.uleb128 0x18
 1684 066e 01       		.uleb128 0x1
 1685 066f 50       		.byte	0x50
 1686 0670 02       		.uleb128 0x2
 1687 0671 74       		.byte	0x74
 1688 0672 00       		.sleb128 0
 1689 0673 00       		.byte	0
 1690 0674 17       		.uleb128 0x17
 1691 0675 74000000 		.4byte	.LVL4
 1692 0679 AF0E0000 		.4byte	0xeaf
 1693 067d 87060000 		.4byte	0x687
 1694 0681 18       		.uleb128 0x18
 1695 0682 01       		.uleb128 0x1
 1696 0683 50       		.byte	0x50
 1697 0684 01       		.uleb128 0x1
 1698 0685 32       		.byte	0x32
ARM GAS  /tmp/ccfVcRHv.s 			page 31


 1699 0686 00       		.byte	0
 1700 0687 17       		.uleb128 0x17
 1701 0688 88000000 		.4byte	.LVL5
 1702 068c C90E0000 		.4byte	0xec9
 1703 0690 A1060000 		.4byte	0x6a1
 1704 0694 18       		.uleb128 0x18
 1705 0695 01       		.uleb128 0x1
 1706 0696 51       		.byte	0x51
 1707 0697 02       		.uleb128 0x2
 1708 0698 91       		.byte	0x91
 1709 0699 60       		.sleb128 -32
 1710 069a 18       		.uleb128 0x18
 1711 069b 01       		.uleb128 0x1
 1712 069c 50       		.byte	0x50
 1713 069d 02       		.uleb128 0x2
 1714 069e 74       		.byte	0x74
 1715 069f 00       		.sleb128 0
 1716 06a0 00       		.byte	0
 1717 06a1 17       		.uleb128 0x17
 1718 06a2 A0000000 		.4byte	.LVL6
 1719 06a6 AF0E0000 		.4byte	0xeaf
 1720 06aa B4060000 		.4byte	0x6b4
 1721 06ae 18       		.uleb128 0x18
 1722 06af 01       		.uleb128 0x1
 1723 06b0 50       		.byte	0x50
 1724 06b1 01       		.uleb128 0x1
 1725 06b2 33       		.byte	0x33
 1726 06b3 00       		.byte	0
 1727 06b4 17       		.uleb128 0x17
 1728 06b5 B4000000 		.4byte	.LVL7
 1729 06b9 DF0E0000 		.4byte	0xedf
 1730 06bd D0060000 		.4byte	0x6d0
 1731 06c1 18       		.uleb128 0x18
 1732 06c2 01       		.uleb128 0x1
 1733 06c3 51       		.byte	0x51
 1734 06c4 01       		.uleb128 0x1
 1735 06c5 37       		.byte	0x37
 1736 06c6 18       		.uleb128 0x18
 1737 06c7 01       		.uleb128 0x1
 1738 06c8 50       		.byte	0x50
 1739 06c9 05       		.uleb128 0x5
 1740 06ca 03       		.byte	0x3
 1741 06cb 00000000 		.4byte	.LANCHOR1
 1742 06cf 00       		.byte	0
 1743 06d0 19       		.uleb128 0x19
 1744 06d1 C0000000 		.4byte	.LVL8
 1745 06d5 000F0000 		.4byte	0xf00
 1746 06d9 18       		.uleb128 0x18
 1747 06da 01       		.uleb128 0x1
 1748 06db 51       		.byte	0x51
 1749 06dc 05       		.uleb128 0x5
 1750 06dd 03       		.byte	0x3
 1751 06de 00000000 		.4byte	.LC0
 1752 06e2 18       		.uleb128 0x18
 1753 06e3 01       		.uleb128 0x1
 1754 06e4 50       		.byte	0x50
 1755 06e5 01       		.uleb128 0x1
ARM GAS  /tmp/ccfVcRHv.s 			page 32


 1756 06e6 34       		.byte	0x34
 1757 06e7 00       		.byte	0
 1758 06e8 00       		.byte	0
 1759 06e9 1A       		.uleb128 0x1a
 1760 06ea 683300   		.ascii	"h3\000"
 1761 06ed 01       		.byte	0x1
 1762 06ee 56       		.byte	0x56
 1763 06ef 00000000 		.4byte	.LFB10
 1764 06f3 08000000 		.4byte	.LFE10-.LFB10
 1765 06f7 01       		.uleb128 0x1
 1766 06f8 9C       		.byte	0x9c
 1767 06f9 1C070000 		.4byte	0x71c
 1768 06fd 1B       		.uleb128 0x1b
 1769 06fe 696400   		.ascii	"id\000"
 1770 0701 01       		.byte	0x1
 1771 0702 56       		.byte	0x56
 1772 0703 05010000 		.4byte	0x105
 1773 0707 00000000 		.4byte	.LLST0
 1774 070b 1C       		.uleb128 0x1c
 1775 070c 08000000 		.4byte	.LVL11
 1776 0710 200F0000 		.4byte	0xf20
 1777 0714 18       		.uleb128 0x18
 1778 0715 01       		.uleb128 0x1
 1779 0716 50       		.byte	0x50
 1780 0717 02       		.uleb128 0x2
 1781 0718 08       		.byte	0x8
 1782 0719 43       		.byte	0x43
 1783 071a 00       		.byte	0
 1784 071b 00       		.byte	0
 1785 071c 1A       		.uleb128 0x1a
 1786 071d 683200   		.ascii	"h2\000"
 1787 0720 01       		.byte	0x1
 1788 0721 55       		.byte	0x55
 1789 0722 00000000 		.4byte	.LFB9
 1790 0726 08000000 		.4byte	.LFE9-.LFB9
 1791 072a 01       		.uleb128 0x1
 1792 072b 9C       		.byte	0x9c
 1793 072c 4F070000 		.4byte	0x74f
 1794 0730 1B       		.uleb128 0x1b
 1795 0731 696400   		.ascii	"id\000"
 1796 0734 01       		.byte	0x1
 1797 0735 55       		.byte	0x55
 1798 0736 05010000 		.4byte	0x105
 1799 073a 21000000 		.4byte	.LLST1
 1800 073e 1C       		.uleb128 0x1c
 1801 073f 08000000 		.4byte	.LVL14
 1802 0743 200F0000 		.4byte	0xf20
 1803 0747 18       		.uleb128 0x18
 1804 0748 01       		.uleb128 0x1
 1805 0749 50       		.byte	0x50
 1806 074a 02       		.uleb128 0x2
 1807 074b 08       		.byte	0x8
 1808 074c 42       		.byte	0x42
 1809 074d 00       		.byte	0
 1810 074e 00       		.byte	0
 1811 074f 1A       		.uleb128 0x1a
 1812 0750 683100   		.ascii	"h1\000"
ARM GAS  /tmp/ccfVcRHv.s 			page 33


 1813 0753 01       		.byte	0x1
 1814 0754 54       		.byte	0x54
 1815 0755 00000000 		.4byte	.LFB8
 1816 0759 08000000 		.4byte	.LFE8-.LFB8
 1817 075d 01       		.uleb128 0x1
 1818 075e 9C       		.byte	0x9c
 1819 075f 82070000 		.4byte	0x782
 1820 0763 1B       		.uleb128 0x1b
 1821 0764 696400   		.ascii	"id\000"
 1822 0767 01       		.byte	0x1
 1823 0768 54       		.byte	0x54
 1824 0769 05010000 		.4byte	0x105
 1825 076d 42000000 		.4byte	.LLST2
 1826 0771 1C       		.uleb128 0x1c
 1827 0772 08000000 		.4byte	.LVL17
 1828 0776 200F0000 		.4byte	0xf20
 1829 077a 18       		.uleb128 0x18
 1830 077b 01       		.uleb128 0x1
 1831 077c 50       		.byte	0x50
 1832 077d 02       		.uleb128 0x2
 1833 077e 08       		.byte	0x8
 1834 077f 41       		.byte	0x41
 1835 0780 00       		.byte	0
 1836 0781 00       		.byte	0
 1837 0782 15       		.uleb128 0x15
 1838 0783 95020000 		.4byte	.LASF92
 1839 0787 01       		.byte	0x1
 1840 0788 4F       		.byte	0x4f
 1841 0789 00000000 		.4byte	.LFB7
 1842 078d 08000000 		.4byte	.LFE7-.LFB7
 1843 0791 01       		.uleb128 0x1
 1844 0792 9C       		.byte	0x9c
 1845 0793 A8070000 		.4byte	0x7a8
 1846 0797 1C       		.uleb128 0x1c
 1847 0798 08000000 		.4byte	.LVL18
 1848 079c 310F0000 		.4byte	0xf31
 1849 07a0 18       		.uleb128 0x18
 1850 07a1 01       		.uleb128 0x1
 1851 07a2 50       		.byte	0x50
 1852 07a3 02       		.uleb128 0x2
 1853 07a4 09       		.byte	0x9
 1854 07a5 FF       		.byte	0xff
 1855 07a6 00       		.byte	0
 1856 07a7 00       		.byte	0
 1857 07a8 15       		.uleb128 0x15
 1858 07a9 08000000 		.4byte	.LASF93
 1859 07ad 01       		.byte	0x1
 1860 07ae 84       		.byte	0x84
 1861 07af 00000000 		.4byte	.LFB12
 1862 07b3 08000000 		.4byte	.LFE12-.LFB12
 1863 07b7 01       		.uleb128 0x1
 1864 07b8 9C       		.byte	0x9c
 1865 07b9 CE070000 		.4byte	0x7ce
 1866 07bd 1C       		.uleb128 0x1c
 1867 07be 08000000 		.4byte	.LVL19
 1868 07c2 310F0000 		.4byte	0xf31
 1869 07c6 18       		.uleb128 0x18
ARM GAS  /tmp/ccfVcRHv.s 			page 34


 1870 07c7 01       		.uleb128 0x1
 1871 07c8 50       		.byte	0x50
 1872 07c9 02       		.uleb128 0x2
 1873 07ca 09       		.byte	0x9
 1874 07cb FF       		.byte	0xff
 1875 07cc 00       		.byte	0
 1876 07cd 00       		.byte	0
 1877 07ce 15       		.uleb128 0x15
 1878 07cf BF020000 		.4byte	.LASF94
 1879 07d3 01       		.byte	0x1
 1880 07d4 FB       		.byte	0xfb
 1881 07d5 00000000 		.4byte	.LFB16
 1882 07d9 08000000 		.4byte	.LFE16-.LFB16
 1883 07dd 01       		.uleb128 0x1
 1884 07de 9C       		.byte	0x9c
 1885 07df F4070000 		.4byte	0x7f4
 1886 07e3 1C       		.uleb128 0x1c
 1887 07e4 08000000 		.4byte	.LVL20
 1888 07e8 310F0000 		.4byte	0xf31
 1889 07ec 18       		.uleb128 0x18
 1890 07ed 01       		.uleb128 0x1
 1891 07ee 50       		.byte	0x50
 1892 07ef 02       		.uleb128 0x2
 1893 07f0 09       		.byte	0x9
 1894 07f1 FF       		.byte	0xff
 1895 07f2 00       		.byte	0
 1896 07f3 00       		.byte	0
 1897 07f4 15       		.uleb128 0x15
 1898 07f5 8E000000 		.4byte	.LASF95
 1899 07f9 01       		.byte	0x1
 1900 07fa 99       		.byte	0x99
 1901 07fb 00000000 		.4byte	.LFB15
 1902 07ff 1C030000 		.4byte	.LFE15-.LFB15
 1903 0803 01       		.uleb128 0x1
 1904 0804 9C       		.byte	0x9c
 1905 0805 B00B0000 		.4byte	0xbb0
 1906 0809 1D       		.uleb128 0x1d
 1907 080a 6D00     		.ascii	"m\000"
 1908 080c 01       		.byte	0x1
 1909 080d 9A       		.byte	0x9a
 1910 080e 10010000 		.4byte	0x110
 1911 0812 63000000 		.4byte	.LLST3
 1912 0816 16       		.uleb128 0x16
 1913 0817 656C3100 		.ascii	"el1\000"
 1914 081b 01       		.byte	0x1
 1915 081c 9B       		.byte	0x9b
 1916 081d 7A040000 		.4byte	0x47a
 1917 0821 02       		.uleb128 0x2
 1918 0822 91       		.byte	0x91
 1919 0823 40       		.sleb128 -64
 1920 0824 16       		.uleb128 0x16
 1921 0825 656C3200 		.ascii	"el2\000"
 1922 0829 01       		.byte	0x1
 1923 082a 9B       		.byte	0x9b
 1924 082b 7A040000 		.4byte	0x47a
 1925 082f 02       		.uleb128 0x2
 1926 0830 91       		.byte	0x91
ARM GAS  /tmp/ccfVcRHv.s 			page 35


 1927 0831 50       		.sleb128 -48
 1928 0832 1E       		.uleb128 0x1e
 1929 0833 FB000000 		.4byte	.LASF96
 1930 0837 01       		.byte	0x1
 1931 0838 9C       		.byte	0x9c
 1932 0839 26010000 		.4byte	0x126
 1933 083d EF000000 		.4byte	.LLST4
 1934 0841 17       		.uleb128 0x17
 1935 0842 10000000 		.4byte	.LVL21
 1936 0846 460F0000 		.4byte	0xf46
 1937 084a 54080000 		.4byte	0x854
 1938 084e 18       		.uleb128 0x18
 1939 084f 01       		.uleb128 0x1
 1940 0850 50       		.byte	0x50
 1941 0851 01       		.uleb128 0x1
 1942 0852 35       		.byte	0x35
 1943 0853 00       		.byte	0
 1944 0854 17       		.uleb128 0x17
 1945 0855 18000000 		.4byte	.LVL22
 1946 0859 5B0F0000 		.4byte	0xf5b
 1947 085d 68080000 		.4byte	0x868
 1948 0861 18       		.uleb128 0x18
 1949 0862 01       		.uleb128 0x1
 1950 0863 50       		.byte	0x50
 1951 0864 02       		.uleb128 0x2
 1952 0865 09       		.byte	0x9
 1953 0866 FF       		.byte	0xff
 1954 0867 00       		.byte	0
 1955 0868 17       		.uleb128 0x17
 1956 0869 2C000000 		.4byte	.LVL24
 1957 086d AF0E0000 		.4byte	0xeaf
 1958 0871 7B080000 		.4byte	0x87b
 1959 0875 18       		.uleb128 0x18
 1960 0876 01       		.uleb128 0x1
 1961 0877 50       		.byte	0x50
 1962 0878 01       		.uleb128 0x1
 1963 0879 31       		.byte	0x31
 1964 087a 00       		.byte	0
 1965 087b 17       		.uleb128 0x17
 1966 087c 44000000 		.4byte	.LVL25
 1967 0880 5B0F0000 		.4byte	0xf5b
 1968 0884 8F080000 		.4byte	0x88f
 1969 0888 18       		.uleb128 0x18
 1970 0889 01       		.uleb128 0x1
 1971 088a 50       		.byte	0x50
 1972 088b 02       		.uleb128 0x2
 1973 088c 09       		.byte	0x9
 1974 088d FF       		.byte	0xff
 1975 088e 00       		.byte	0
 1976 088f 17       		.uleb128 0x17
 1977 0890 58000000 		.4byte	.LVL27
 1978 0894 AF0E0000 		.4byte	0xeaf
 1979 0898 A2080000 		.4byte	0x8a2
 1980 089c 18       		.uleb128 0x18
 1981 089d 01       		.uleb128 0x1
 1982 089e 50       		.byte	0x50
 1983 089f 01       		.uleb128 0x1
ARM GAS  /tmp/ccfVcRHv.s 			page 36


 1984 08a0 32       		.byte	0x32
 1985 08a1 00       		.byte	0
 1986 08a2 17       		.uleb128 0x17
 1987 08a3 68000000 		.4byte	.LVL28
 1988 08a7 310F0000 		.4byte	0xf31
 1989 08ab B6080000 		.4byte	0x8b6
 1990 08af 18       		.uleb128 0x18
 1991 08b0 01       		.uleb128 0x1
 1992 08b1 50       		.byte	0x50
 1993 08b2 02       		.uleb128 0x2
 1994 08b3 09       		.byte	0x9
 1995 08b4 FF       		.byte	0xff
 1996 08b5 00       		.byte	0
 1997 08b6 17       		.uleb128 0x17
 1998 08b7 78000000 		.4byte	.LVL30
 1999 08bb AF0E0000 		.4byte	0xeaf
 2000 08bf C9080000 		.4byte	0x8c9
 2001 08c3 18       		.uleb128 0x18
 2002 08c4 01       		.uleb128 0x1
 2003 08c5 50       		.byte	0x50
 2004 08c6 01       		.uleb128 0x1
 2005 08c7 33       		.byte	0x33
 2006 08c8 00       		.byte	0
 2007 08c9 1F       		.uleb128 0x1f
 2008 08ca 88000000 		.4byte	.LVL31
 2009 08ce 700F0000 		.4byte	0xf70
 2010 08d2 17       		.uleb128 0x17
 2011 08d3 B8000000 		.4byte	.LVL33
 2012 08d7 7B0F0000 		.4byte	0xf7b
 2013 08db F6080000 		.4byte	0x8f6
 2014 08df 18       		.uleb128 0x18
 2015 08e0 01       		.uleb128 0x1
 2016 08e1 53       		.byte	0x53
 2017 08e2 05       		.uleb128 0x5
 2018 08e3 03       		.byte	0x3
 2019 08e4 00000000 		.4byte	thread1
 2020 08e8 18       		.uleb128 0x18
 2021 08e9 01       		.uleb128 0x1
 2022 08ea 51       		.byte	0x51
 2023 08eb 03       		.uleb128 0x3
 2024 08ec 0A       		.byte	0xa
 2025 08ed 1801     		.2byte	0x118
 2026 08ef 18       		.uleb128 0x18
 2027 08f0 01       		.uleb128 0x1
 2028 08f1 50       		.byte	0x50
 2029 08f2 02       		.uleb128 0x2
 2030 08f3 77       		.byte	0x77
 2031 08f4 00       		.sleb128 0
 2032 08f5 00       		.byte	0
 2033 08f6 17       		.uleb128 0x17
 2034 08f7 C8000000 		.4byte	.LVL34
 2035 08fb 5B0F0000 		.4byte	0xf5b
 2036 08ff 0A090000 		.4byte	0x90a
 2037 0903 18       		.uleb128 0x18
 2038 0904 01       		.uleb128 0x1
 2039 0905 50       		.byte	0x50
 2040 0906 02       		.uleb128 0x2
ARM GAS  /tmp/ccfVcRHv.s 			page 37


 2041 0907 09       		.byte	0x9
 2042 0908 FF       		.byte	0xff
 2043 0909 00       		.byte	0
 2044 090a 17       		.uleb128 0x17
 2045 090b DC000000 		.4byte	.LVL38
 2046 090f A50F0000 		.4byte	0xfa5
 2047 0913 29090000 		.4byte	0x929
 2048 0917 18       		.uleb128 0x18
 2049 0918 01       		.uleb128 0x1
 2050 0919 52       		.byte	0x52
 2051 091a 02       		.uleb128 0x2
 2052 091b 74       		.byte	0x74
 2053 091c 37       		.sleb128 55
 2054 091d 18       		.uleb128 0x18
 2055 091e 01       		.uleb128 0x1
 2056 091f 51       		.byte	0x51
 2057 0920 02       		.uleb128 0x2
 2058 0921 74       		.byte	0x74
 2059 0922 32       		.sleb128 50
 2060 0923 18       		.uleb128 0x18
 2061 0924 01       		.uleb128 0x1
 2062 0925 50       		.byte	0x50
 2063 0926 01       		.uleb128 0x1
 2064 0927 34       		.byte	0x34
 2065 0928 00       		.byte	0
 2066 0929 17       		.uleb128 0x17
 2067 092a F8000000 		.4byte	.LVL39
 2068 092e AF0E0000 		.4byte	0xeaf
 2069 0932 44090000 		.4byte	0x944
 2070 0936 18       		.uleb128 0x18
 2071 0937 01       		.uleb128 0x1
 2072 0938 51       		.byte	0x51
 2073 0939 04       		.uleb128 0x4
 2074 093a 79       		.byte	0x79
 2075 093b 00       		.sleb128 0
 2076 093c 31       		.byte	0x31
 2077 093d 29       		.byte	0x29
 2078 093e 18       		.uleb128 0x18
 2079 093f 01       		.uleb128 0x1
 2080 0940 50       		.byte	0x50
 2081 0941 01       		.uleb128 0x1
 2082 0942 35       		.byte	0x35
 2083 0943 00       		.byte	0
 2084 0944 17       		.uleb128 0x17
 2085 0945 08010000 		.4byte	.LVL40
 2086 0949 310F0000 		.4byte	0xf31
 2087 094d 58090000 		.4byte	0x958
 2088 0951 18       		.uleb128 0x18
 2089 0952 01       		.uleb128 0x1
 2090 0953 50       		.byte	0x50
 2091 0954 02       		.uleb128 0x2
 2092 0955 09       		.byte	0x9
 2093 0956 FF       		.byte	0xff
 2094 0957 00       		.byte	0
 2095 0958 17       		.uleb128 0x17
 2096 0959 18010000 		.4byte	.LVL42
 2097 095d AF0E0000 		.4byte	0xeaf
ARM GAS  /tmp/ccfVcRHv.s 			page 38


 2098 0961 6B090000 		.4byte	0x96b
 2099 0965 18       		.uleb128 0x18
 2100 0966 01       		.uleb128 0x1
 2101 0967 50       		.byte	0x50
 2102 0968 01       		.uleb128 0x1
 2103 0969 36       		.byte	0x36
 2104 096a 00       		.byte	0
 2105 096b 1F       		.uleb128 0x1f
 2106 096c 24010000 		.4byte	.LVL43
 2107 0970 C40F0000 		.4byte	0xfc4
 2108 0974 17       		.uleb128 0x17
 2109 0975 2C010000 		.4byte	.LVL44
 2110 0979 460F0000 		.4byte	0xf46
 2111 097d 87090000 		.4byte	0x987
 2112 0981 18       		.uleb128 0x18
 2113 0982 01       		.uleb128 0x1
 2114 0983 50       		.byte	0x50
 2115 0984 01       		.uleb128 0x1
 2116 0985 35       		.byte	0x35
 2117 0986 00       		.byte	0
 2118 0987 17       		.uleb128 0x17
 2119 0988 34010000 		.4byte	.LVL45
 2120 098c CB0F0000 		.4byte	0xfcb
 2121 0990 9B090000 		.4byte	0x99b
 2122 0994 18       		.uleb128 0x18
 2123 0995 01       		.uleb128 0x1
 2124 0996 50       		.byte	0x50
 2125 0997 02       		.uleb128 0x2
 2126 0998 09       		.byte	0x9
 2127 0999 FF       		.byte	0xff
 2128 099a 00       		.byte	0
 2129 099b 17       		.uleb128 0x17
 2130 099c 48010000 		.4byte	.LVL47
 2131 09a0 AF0E0000 		.4byte	0xeaf
 2132 09a4 AE090000 		.4byte	0x9ae
 2133 09a8 18       		.uleb128 0x18
 2134 09a9 01       		.uleb128 0x1
 2135 09aa 50       		.byte	0x50
 2136 09ab 01       		.uleb128 0x1
 2137 09ac 37       		.byte	0x37
 2138 09ad 00       		.byte	0
 2139 09ae 17       		.uleb128 0x17
 2140 09af 58010000 		.4byte	.LVL48
 2141 09b3 310F0000 		.4byte	0xf31
 2142 09b7 C2090000 		.4byte	0x9c2
 2143 09bb 18       		.uleb128 0x18
 2144 09bc 01       		.uleb128 0x1
 2145 09bd 50       		.byte	0x50
 2146 09be 02       		.uleb128 0x2
 2147 09bf 09       		.byte	0x9
 2148 09c0 FF       		.byte	0xff
 2149 09c1 00       		.byte	0
 2150 09c2 17       		.uleb128 0x17
 2151 09c3 68010000 		.4byte	.LVL50
 2152 09c7 AF0E0000 		.4byte	0xeaf
 2153 09cb D5090000 		.4byte	0x9d5
 2154 09cf 18       		.uleb128 0x18
ARM GAS  /tmp/ccfVcRHv.s 			page 39


 2155 09d0 01       		.uleb128 0x1
 2156 09d1 50       		.byte	0x50
 2157 09d2 01       		.uleb128 0x1
 2158 09d3 38       		.byte	0x38
 2159 09d4 00       		.byte	0
 2160 09d5 1F       		.uleb128 0x1f
 2161 09d6 74010000 		.4byte	.LVL51
 2162 09da 700F0000 		.4byte	0xf70
 2163 09de 17       		.uleb128 0x17
 2164 09df 98010000 		.4byte	.LVL53
 2165 09e3 7B0F0000 		.4byte	0xf7b
 2166 09e7 020A0000 		.4byte	0xa02
 2167 09eb 18       		.uleb128 0x18
 2168 09ec 01       		.uleb128 0x1
 2169 09ed 53       		.byte	0x53
 2170 09ee 05       		.uleb128 0x5
 2171 09ef 03       		.byte	0x3
 2172 09f0 00000000 		.4byte	thread1
 2173 09f4 18       		.uleb128 0x18
 2174 09f5 01       		.uleb128 0x1
 2175 09f6 51       		.byte	0x51
 2176 09f7 03       		.uleb128 0x3
 2177 09f8 0A       		.byte	0xa
 2178 09f9 1801     		.2byte	0x118
 2179 09fb 18       		.uleb128 0x18
 2180 09fc 01       		.uleb128 0x1
 2181 09fd 50       		.byte	0x50
 2182 09fe 02       		.uleb128 0x2
 2183 09ff 77       		.byte	0x77
 2184 0a00 00       		.sleb128 0
 2185 0a01 00       		.byte	0
 2186 0a02 17       		.uleb128 0x17
 2187 0a03 A4010000 		.4byte	.LVL54
 2188 0a07 CB0F0000 		.4byte	0xfcb
 2189 0a0b 160A0000 		.4byte	0xa16
 2190 0a0f 18       		.uleb128 0x18
 2191 0a10 01       		.uleb128 0x1
 2192 0a11 50       		.byte	0x50
 2193 0a12 02       		.uleb128 0x2
 2194 0a13 09       		.byte	0x9
 2195 0a14 FF       		.byte	0xff
 2196 0a15 00       		.byte	0
 2197 0a16 17       		.uleb128 0x17
 2198 0a17 B8010000 		.4byte	.LVL58
 2199 0a1b A50F0000 		.4byte	0xfa5
 2200 0a1f 350A0000 		.4byte	0xa35
 2201 0a23 18       		.uleb128 0x18
 2202 0a24 01       		.uleb128 0x1
 2203 0a25 52       		.byte	0x52
 2204 0a26 02       		.uleb128 0x2
 2205 0a27 74       		.byte	0x74
 2206 0a28 37       		.sleb128 55
 2207 0a29 18       		.uleb128 0x18
 2208 0a2a 01       		.uleb128 0x1
 2209 0a2b 51       		.byte	0x51
 2210 0a2c 02       		.uleb128 0x2
 2211 0a2d 74       		.byte	0x74
ARM GAS  /tmp/ccfVcRHv.s 			page 40


 2212 0a2e 32       		.sleb128 50
 2213 0a2f 18       		.uleb128 0x18
 2214 0a30 01       		.uleb128 0x1
 2215 0a31 50       		.byte	0x50
 2216 0a32 01       		.uleb128 0x1
 2217 0a33 39       		.byte	0x39
 2218 0a34 00       		.byte	0
 2219 0a35 17       		.uleb128 0x17
 2220 0a36 D4010000 		.4byte	.LVL59
 2221 0a3a AF0E0000 		.4byte	0xeaf
 2222 0a3e 500A0000 		.4byte	0xa50
 2223 0a42 18       		.uleb128 0x18
 2224 0a43 01       		.uleb128 0x1
 2225 0a44 51       		.byte	0x51
 2226 0a45 04       		.uleb128 0x4
 2227 0a46 79       		.byte	0x79
 2228 0a47 00       		.sleb128 0
 2229 0a48 31       		.byte	0x31
 2230 0a49 29       		.byte	0x29
 2231 0a4a 18       		.uleb128 0x18
 2232 0a4b 01       		.uleb128 0x1
 2233 0a4c 50       		.byte	0x50
 2234 0a4d 01       		.uleb128 0x1
 2235 0a4e 3A       		.byte	0x3a
 2236 0a4f 00       		.byte	0
 2237 0a50 17       		.uleb128 0x17
 2238 0a51 E4010000 		.4byte	.LVL60
 2239 0a55 310F0000 		.4byte	0xf31
 2240 0a59 640A0000 		.4byte	0xa64
 2241 0a5d 18       		.uleb128 0x18
 2242 0a5e 01       		.uleb128 0x1
 2243 0a5f 50       		.byte	0x50
 2244 0a60 02       		.uleb128 0x2
 2245 0a61 09       		.byte	0x9
 2246 0a62 FF       		.byte	0xff
 2247 0a63 00       		.byte	0
 2248 0a64 17       		.uleb128 0x17
 2249 0a65 F4010000 		.4byte	.LVL62
 2250 0a69 AF0E0000 		.4byte	0xeaf
 2251 0a6d 770A0000 		.4byte	0xa77
 2252 0a71 18       		.uleb128 0x18
 2253 0a72 01       		.uleb128 0x1
 2254 0a73 50       		.byte	0x50
 2255 0a74 01       		.uleb128 0x1
 2256 0a75 3B       		.byte	0x3b
 2257 0a76 00       		.byte	0
 2258 0a77 1F       		.uleb128 0x1f
 2259 0a78 08020000 		.4byte	.LVL64
 2260 0a7c C40F0000 		.4byte	0xfc4
 2261 0a80 17       		.uleb128 0x17
 2262 0a81 20020000 		.4byte	.LVL65
 2263 0a85 8E0E0000 		.4byte	0xe8e
 2264 0a89 A00A0000 		.4byte	0xaa0
 2265 0a8d 18       		.uleb128 0x18
 2266 0a8e 01       		.uleb128 0x1
 2267 0a8f 52       		.byte	0x52
 2268 0a90 01       		.uleb128 0x1
ARM GAS  /tmp/ccfVcRHv.s 			page 41


 2269 0a91 31       		.byte	0x31
 2270 0a92 18       		.uleb128 0x18
 2271 0a93 01       		.uleb128 0x1
 2272 0a94 51       		.byte	0x51
 2273 0a95 03       		.uleb128 0x3
 2274 0a96 91       		.byte	0x91
 2275 0a97 B87F     		.sleb128 -72
 2276 0a99 18       		.uleb128 0x18
 2277 0a9a 01       		.uleb128 0x1
 2278 0a9b 50       		.byte	0x50
 2279 0a9c 02       		.uleb128 0x2
 2280 0a9d 79       		.byte	0x79
 2281 0a9e 00       		.sleb128 0
 2282 0a9f 00       		.byte	0
 2283 0aa0 17       		.uleb128 0x17
 2284 0aa1 30020000 		.4byte	.LVL66
 2285 0aa5 8E0E0000 		.4byte	0xe8e
 2286 0aa9 BF0A0000 		.4byte	0xabf
 2287 0aad 18       		.uleb128 0x18
 2288 0aae 01       		.uleb128 0x1
 2289 0aaf 52       		.byte	0x52
 2290 0ab0 01       		.uleb128 0x1
 2291 0ab1 34       		.byte	0x34
 2292 0ab2 18       		.uleb128 0x18
 2293 0ab3 01       		.uleb128 0x1
 2294 0ab4 51       		.byte	0x51
 2295 0ab5 02       		.uleb128 0x2
 2296 0ab6 91       		.byte	0x91
 2297 0ab7 48       		.sleb128 -56
 2298 0ab8 18       		.uleb128 0x18
 2299 0ab9 01       		.uleb128 0x1
 2300 0aba 50       		.byte	0x50
 2301 0abb 02       		.uleb128 0x2
 2302 0abc 74       		.byte	0x74
 2303 0abd 00       		.sleb128 0
 2304 0abe 00       		.byte	0
 2305 0abf 1F       		.uleb128 0x1f
 2306 0ac0 34020000 		.4byte	.LVL67
 2307 0ac4 700F0000 		.4byte	0xf70
 2308 0ac8 17       		.uleb128 0x17
 2309 0ac9 5C020000 		.4byte	.LVL69
 2310 0acd 7B0F0000 		.4byte	0xf7b
 2311 0ad1 F60A0000 		.4byte	0xaf6
 2312 0ad5 18       		.uleb128 0x18
 2313 0ad6 01       		.uleb128 0x1
 2314 0ad7 53       		.byte	0x53
 2315 0ad8 05       		.uleb128 0x5
 2316 0ad9 03       		.byte	0x3
 2317 0ada 00000000 		.4byte	thread2
 2318 0ade 18       		.uleb128 0x18
 2319 0adf 01       		.uleb128 0x1
 2320 0ae0 51       		.byte	0x51
 2321 0ae1 03       		.uleb128 0x3
 2322 0ae2 0A       		.byte	0xa
 2323 0ae3 1801     		.2byte	0x118
 2324 0ae5 18       		.uleb128 0x18
 2325 0ae6 01       		.uleb128 0x1
ARM GAS  /tmp/ccfVcRHv.s 			page 42


 2326 0ae7 50       		.byte	0x50
 2327 0ae8 02       		.uleb128 0x2
 2328 0ae9 77       		.byte	0x77
 2329 0aea 00       		.sleb128 0
 2330 0aeb 18       		.uleb128 0x18
 2331 0aec 02       		.uleb128 0x2
 2332 0aed 7D       		.byte	0x7d
 2333 0aee 00       		.sleb128 0
 2334 0aef 05       		.uleb128 0x5
 2335 0af0 03       		.byte	0x3
 2336 0af1 04000000 		.4byte	.LC1
 2337 0af5 00       		.byte	0
 2338 0af6 17       		.uleb128 0x17
 2339 0af7 68020000 		.4byte	.LVL70
 2340 0afb E00F0000 		.4byte	0xfe0
 2341 0aff 090B0000 		.4byte	0xb09
 2342 0b03 18       		.uleb128 0x18
 2343 0b04 01       		.uleb128 0x1
 2344 0b05 50       		.byte	0x50
 2345 0b06 01       		.uleb128 0x1
 2346 0b07 35       		.byte	0x35
 2347 0b08 00       		.byte	0
 2348 0b09 17       		.uleb128 0x17
 2349 0b0a 78020000 		.4byte	.LVL72
 2350 0b0e A50F0000 		.4byte	0xfa5
 2351 0b12 280B0000 		.4byte	0xb28
 2352 0b16 18       		.uleb128 0x18
 2353 0b17 01       		.uleb128 0x1
 2354 0b18 52       		.byte	0x52
 2355 0b19 02       		.uleb128 0x2
 2356 0b1a 76       		.byte	0x76
 2357 0b1b 37       		.sleb128 55
 2358 0b1c 18       		.uleb128 0x18
 2359 0b1d 01       		.uleb128 0x1
 2360 0b1e 51       		.byte	0x51
 2361 0b1f 02       		.uleb128 0x2
 2362 0b20 76       		.byte	0x76
 2363 0b21 32       		.sleb128 50
 2364 0b22 18       		.uleb128 0x18
 2365 0b23 01       		.uleb128 0x1
 2366 0b24 50       		.byte	0x50
 2367 0b25 01       		.uleb128 0x1
 2368 0b26 3C       		.byte	0x3c
 2369 0b27 00       		.byte	0
 2370 0b28 17       		.uleb128 0x17
 2371 0b29 88020000 		.4byte	.LVL73
 2372 0b2d 310F0000 		.4byte	0xf31
 2373 0b31 3C0B0000 		.4byte	0xb3c
 2374 0b35 18       		.uleb128 0x18
 2375 0b36 01       		.uleb128 0x1
 2376 0b37 50       		.byte	0x50
 2377 0b38 02       		.uleb128 0x2
 2378 0b39 09       		.byte	0x9
 2379 0b3a FF       		.byte	0xff
 2380 0b3b 00       		.byte	0
 2381 0b3c 17       		.uleb128 0x17
 2382 0b3d 98020000 		.4byte	.LVL75
ARM GAS  /tmp/ccfVcRHv.s 			page 43


 2383 0b41 AF0E0000 		.4byte	0xeaf
 2384 0b45 4F0B0000 		.4byte	0xb4f
 2385 0b49 18       		.uleb128 0x18
 2386 0b4a 01       		.uleb128 0x1
 2387 0b4b 50       		.byte	0x50
 2388 0b4c 01       		.uleb128 0x1
 2389 0b4d 3D       		.byte	0x3d
 2390 0b4e 00       		.byte	0
 2391 0b4f 1F       		.uleb128 0x1f
 2392 0b50 A4020000 		.4byte	.LVL76
 2393 0b54 C40F0000 		.4byte	0xfc4
 2394 0b58 17       		.uleb128 0x17
 2395 0b59 B0020000 		.4byte	.LVL77
 2396 0b5d C90E0000 		.4byte	0xec9
 2397 0b61 730B0000 		.4byte	0xb73
 2398 0b65 18       		.uleb128 0x18
 2399 0b66 01       		.uleb128 0x1
 2400 0b67 51       		.byte	0x51
 2401 0b68 03       		.uleb128 0x3
 2402 0b69 91       		.byte	0x91
 2403 0b6a B87F     		.sleb128 -72
 2404 0b6c 18       		.uleb128 0x18
 2405 0b6d 01       		.uleb128 0x1
 2406 0b6e 50       		.byte	0x50
 2407 0b6f 02       		.uleb128 0x2
 2408 0b70 79       		.byte	0x79
 2409 0b71 00       		.sleb128 0
 2410 0b72 00       		.byte	0
 2411 0b73 17       		.uleb128 0x17
 2412 0b74 BC020000 		.4byte	.LVL78
 2413 0b78 C90E0000 		.4byte	0xec9
 2414 0b7c 8D0B0000 		.4byte	0xb8d
 2415 0b80 18       		.uleb128 0x18
 2416 0b81 01       		.uleb128 0x1
 2417 0b82 51       		.byte	0x51
 2418 0b83 02       		.uleb128 0x2
 2419 0b84 91       		.byte	0x91
 2420 0b85 48       		.sleb128 -56
 2421 0b86 18       		.uleb128 0x18
 2422 0b87 01       		.uleb128 0x1
 2423 0b88 50       		.byte	0x50
 2424 0b89 02       		.uleb128 0x2
 2425 0b8a 74       		.byte	0x74
 2426 0b8b 00       		.sleb128 0
 2427 0b8c 00       		.byte	0
 2428 0b8d 17       		.uleb128 0x17
 2429 0b8e D4020000 		.4byte	.LVL79
 2430 0b92 AF0E0000 		.4byte	0xeaf
 2431 0b96 A00B0000 		.4byte	0xba0
 2432 0b9a 18       		.uleb128 0x18
 2433 0b9b 01       		.uleb128 0x1
 2434 0b9c 50       		.byte	0x50
 2435 0b9d 01       		.uleb128 0x1
 2436 0b9e 3E       		.byte	0x3e
 2437 0b9f 00       		.byte	0
 2438 0ba0 19       		.uleb128 0x19
 2439 0ba1 F4020000 		.4byte	.LVL80
ARM GAS  /tmp/ccfVcRHv.s 			page 44


 2440 0ba5 AF0E0000 		.4byte	0xeaf
 2441 0ba9 18       		.uleb128 0x18
 2442 0baa 01       		.uleb128 0x1
 2443 0bab 50       		.byte	0x50
 2444 0bac 01       		.uleb128 0x1
 2445 0bad 3F       		.byte	0x3f
 2446 0bae 00       		.byte	0
 2447 0baf 00       		.byte	0
 2448 0bb0 20       		.uleb128 0x20
 2449 0bb1 EC020000 		.4byte	.LASF97
 2450 0bb5 01       		.byte	0x1
 2451 0bb6 90       		.byte	0x90
 2452 0bb7 FA000000 		.4byte	0xfa
 2453 0bbb 00000000 		.4byte	.LFB14
 2454 0bbf 34000000 		.4byte	.LFE14-.LFB14
 2455 0bc3 01       		.uleb128 0x1
 2456 0bc4 9C       		.byte	0x9c
 2457 0bc5 1F0C0000 		.4byte	0xc1f
 2458 0bc9 1B       		.uleb128 0x1b
 2459 0bca 7000     		.ascii	"p\000"
 2460 0bcc 01       		.byte	0x1
 2461 0bcd 90       		.byte	0x90
 2462 0bce 8A020000 		.4byte	0x28a
 2463 0bd2 59010000 		.4byte	.LLST5
 2464 0bd6 17       		.uleb128 0x17
 2465 0bd7 10000000 		.4byte	.LVL83
 2466 0bdb F50F0000 		.4byte	0xff5
 2467 0bdf F20B0000 		.4byte	0xbf2
 2468 0be3 18       		.uleb128 0x18
 2469 0be4 01       		.uleb128 0x1
 2470 0be5 51       		.byte	0x51
 2471 0be6 01       		.uleb128 0x1
 2472 0be7 30       		.byte	0x30
 2473 0be8 18       		.uleb128 0x18
 2474 0be9 01       		.uleb128 0x1
 2475 0bea 50       		.byte	0x50
 2476 0beb 05       		.uleb128 0x5
 2477 0bec 03       		.byte	0x3
 2478 0bed 00000000 		.4byte	.LANCHOR0
 2479 0bf1 00       		.byte	0
 2480 0bf2 17       		.uleb128 0x17
 2481 0bf3 18000000 		.4byte	.LVL84
 2482 0bf7 0B100000 		.4byte	0x100b
 2483 0bfb 060C0000 		.4byte	0xc06
 2484 0bff 18       		.uleb128 0x18
 2485 0c00 01       		.uleb128 0x1
 2486 0c01 50       		.byte	0x50
 2487 0c02 02       		.uleb128 0x2
 2488 0c03 08       		.byte	0x8
 2489 0c04 32       		.byte	0x32
 2490 0c05 00       		.byte	0
 2491 0c06 19       		.uleb128 0x19
 2492 0c07 24000000 		.4byte	.LVL85
 2493 0c0b F50F0000 		.4byte	0xff5
 2494 0c0f 18       		.uleb128 0x18
 2495 0c10 01       		.uleb128 0x1
 2496 0c11 51       		.byte	0x51
ARM GAS  /tmp/ccfVcRHv.s 			page 45


 2497 0c12 01       		.uleb128 0x1
 2498 0c13 30       		.byte	0x30
 2499 0c14 18       		.uleb128 0x18
 2500 0c15 01       		.uleb128 0x1
 2501 0c16 50       		.byte	0x50
 2502 0c17 05       		.uleb128 0x5
 2503 0c18 03       		.byte	0x3
 2504 0c19 00000000 		.4byte	.LANCHOR2
 2505 0c1d 00       		.byte	0
 2506 0c1e 00       		.byte	0
 2507 0c1f 20       		.uleb128 0x20
 2508 0c20 E4020000 		.4byte	.LASF98
 2509 0c24 01       		.byte	0x1
 2510 0c25 89       		.byte	0x89
 2511 0c26 FA000000 		.4byte	0xfa
 2512 0c2a 00000000 		.4byte	.LFB13
 2513 0c2e 24000000 		.4byte	.LFE13-.LFB13
 2514 0c32 01       		.uleb128 0x1
 2515 0c33 9C       		.byte	0x9c
 2516 0c34 6F0C0000 		.4byte	0xc6f
 2517 0c38 1B       		.uleb128 0x1b
 2518 0c39 7000     		.ascii	"p\000"
 2519 0c3b 01       		.byte	0x1
 2520 0c3c 89       		.byte	0x89
 2521 0c3d 8A020000 		.4byte	0x28a
 2522 0c41 7A010000 		.4byte	.LLST6
 2523 0c45 17       		.uleb128 0x17
 2524 0c46 10000000 		.4byte	.LVL88
 2525 0c4a 0B100000 		.4byte	0x100b
 2526 0c4e 590C0000 		.4byte	0xc59
 2527 0c52 18       		.uleb128 0x18
 2528 0c53 01       		.uleb128 0x1
 2529 0c54 50       		.byte	0x50
 2530 0c55 02       		.uleb128 0x2
 2531 0c56 08       		.byte	0x8
 2532 0c57 32       		.byte	0x32
 2533 0c58 00       		.byte	0
 2534 0c59 19       		.uleb128 0x19
 2535 0c5a 1C000000 		.4byte	.LVL89
 2536 0c5e 1D100000 		.4byte	0x101d
 2537 0c62 18       		.uleb128 0x18
 2538 0c63 01       		.uleb128 0x1
 2539 0c64 51       		.byte	0x51
 2540 0c65 01       		.uleb128 0x1
 2541 0c66 31       		.byte	0x31
 2542 0c67 18       		.uleb128 0x18
 2543 0c68 01       		.uleb128 0x1
 2544 0c69 50       		.byte	0x50
 2545 0c6a 02       		.uleb128 0x2
 2546 0c6b 74       		.byte	0x74
 2547 0c6c 00       		.sleb128 0
 2548 0c6d 00       		.byte	0
 2549 0c6e 00       		.byte	0
 2550 0c6f 21       		.uleb128 0x21
 2551 0c70 C0050000 		.4byte	0x5c0
 2552 0c74 00000000 		.4byte	.LFB17
 2553 0c78 D0000000 		.4byte	.LFE17-.LFB17
ARM GAS  /tmp/ccfVcRHv.s 			page 46


 2554 0c7c 01       		.uleb128 0x1
 2555 0c7d 9C       		.byte	0x9c
 2556 0c7e 950D0000 		.4byte	0xd95
 2557 0c82 22       		.uleb128 0x22
 2558 0c83 CD050000 		.4byte	0x5cd
 2559 0c87 98010000 		.4byte	.LLST7
 2560 0c8b 23       		.uleb128 0x23
 2561 0c8c 00000000 		.4byte	.Ldebug_ranges0+0
 2562 0c90 1E0D0000 		.4byte	0xd1e
 2563 0c94 22       		.uleb128 0x22
 2564 0c95 CD050000 		.4byte	0x5cd
 2565 0c99 C1010000 		.4byte	.LLST8
 2566 0c9d 17       		.uleb128 0x17
 2567 0c9e 74000000 		.4byte	.LVL99
 2568 0ca2 33100000 		.4byte	0x1033
 2569 0ca6 B60C0000 		.4byte	0xcb6
 2570 0caa 18       		.uleb128 0x18
 2571 0cab 01       		.uleb128 0x1
 2572 0cac 51       		.byte	0x51
 2573 0cad 01       		.uleb128 0x1
 2574 0cae 3A       		.byte	0x3a
 2575 0caf 18       		.uleb128 0x18
 2576 0cb0 01       		.uleb128 0x1
 2577 0cb1 50       		.byte	0x50
 2578 0cb2 02       		.uleb128 0x2
 2579 0cb3 09       		.byte	0x9
 2580 0cb4 FF       		.byte	0xff
 2581 0cb5 00       		.byte	0
 2582 0cb6 17       		.uleb128 0x17
 2583 0cb7 84000000 		.4byte	.LVL101
 2584 0cbb AF0E0000 		.4byte	0xeaf
 2585 0cbf C90C0000 		.4byte	0xcc9
 2586 0cc3 18       		.uleb128 0x18
 2587 0cc4 01       		.uleb128 0x1
 2588 0cc5 50       		.byte	0x50
 2589 0cc6 01       		.uleb128 0x1
 2590 0cc7 34       		.byte	0x34
 2591 0cc8 00       		.byte	0
 2592 0cc9 17       		.uleb128 0x17
 2593 0cca 98000000 		.4byte	.LVL102
 2594 0cce 4D100000 		.4byte	0x104d
 2595 0cd2 E20C0000 		.4byte	0xce2
 2596 0cd6 18       		.uleb128 0x18
 2597 0cd7 01       		.uleb128 0x1
 2598 0cd8 51       		.byte	0x51
 2599 0cd9 01       		.uleb128 0x1
 2600 0cda 3A       		.byte	0x3a
 2601 0cdb 18       		.uleb128 0x18
 2602 0cdc 01       		.uleb128 0x1
 2603 0cdd 50       		.byte	0x50
 2604 0cde 02       		.uleb128 0x2
 2605 0cdf 09       		.byte	0x9
 2606 0ce0 FF       		.byte	0xff
 2607 0ce1 00       		.byte	0
 2608 0ce2 17       		.uleb128 0x17
 2609 0ce3 A8000000 		.4byte	.LVL104
 2610 0ce7 AF0E0000 		.4byte	0xeaf
ARM GAS  /tmp/ccfVcRHv.s 			page 47


 2611 0ceb F50C0000 		.4byte	0xcf5
 2612 0cef 18       		.uleb128 0x18
 2613 0cf0 01       		.uleb128 0x1
 2614 0cf1 50       		.byte	0x50
 2615 0cf2 01       		.uleb128 0x1
 2616 0cf3 35       		.byte	0x35
 2617 0cf4 00       		.byte	0
 2618 0cf5 17       		.uleb128 0x17
 2619 0cf6 BC000000 		.4byte	.LVL105
 2620 0cfa 67100000 		.4byte	0x1067
 2621 0cfe 0E0D0000 		.4byte	0xd0e
 2622 0d02 18       		.uleb128 0x18
 2623 0d03 01       		.uleb128 0x1
 2624 0d04 51       		.byte	0x51
 2625 0d05 01       		.uleb128 0x1
 2626 0d06 3A       		.byte	0x3a
 2627 0d07 18       		.uleb128 0x18
 2628 0d08 01       		.uleb128 0x1
 2629 0d09 50       		.byte	0x50
 2630 0d0a 02       		.uleb128 0x2
 2631 0d0b 09       		.byte	0x9
 2632 0d0c FF       		.byte	0xff
 2633 0d0d 00       		.byte	0
 2634 0d0e 1C       		.uleb128 0x1c
 2635 0d0f D0000000 		.4byte	.LVL107
 2636 0d13 AF0E0000 		.4byte	0xeaf
 2637 0d17 18       		.uleb128 0x18
 2638 0d18 01       		.uleb128 0x1
 2639 0d19 50       		.byte	0x50
 2640 0d1a 01       		.uleb128 0x1
 2641 0d1b 36       		.byte	0x36
 2642 0d1c 00       		.byte	0
 2643 0d1d 00       		.byte	0
 2644 0d1e 17       		.uleb128 0x17
 2645 0d1f 10000000 		.4byte	.LVL90
 2646 0d23 33100000 		.4byte	0x1033
 2647 0d27 370D0000 		.4byte	0xd37
 2648 0d2b 18       		.uleb128 0x18
 2649 0d2c 01       		.uleb128 0x1
 2650 0d2d 51       		.byte	0x51
 2651 0d2e 01       		.uleb128 0x1
 2652 0d2f 30       		.byte	0x30
 2653 0d30 18       		.uleb128 0x18
 2654 0d31 01       		.uleb128 0x1
 2655 0d32 50       		.byte	0x50
 2656 0d33 02       		.uleb128 0x2
 2657 0d34 09       		.byte	0x9
 2658 0d35 FF       		.byte	0xff
 2659 0d36 00       		.byte	0
 2660 0d37 17       		.uleb128 0x17
 2661 0d38 20000000 		.4byte	.LVL92
 2662 0d3c AF0E0000 		.4byte	0xeaf
 2663 0d40 4A0D0000 		.4byte	0xd4a
 2664 0d44 18       		.uleb128 0x18
 2665 0d45 01       		.uleb128 0x1
 2666 0d46 50       		.byte	0x50
 2667 0d47 01       		.uleb128 0x1
ARM GAS  /tmp/ccfVcRHv.s 			page 48


 2668 0d48 31       		.byte	0x31
 2669 0d49 00       		.byte	0
 2670 0d4a 17       		.uleb128 0x17
 2671 0d4b 30000000 		.4byte	.LVL93
 2672 0d4f 4D100000 		.4byte	0x104d
 2673 0d53 5E0D0000 		.4byte	0xd5e
 2674 0d57 18       		.uleb128 0x18
 2675 0d58 01       		.uleb128 0x1
 2676 0d59 50       		.byte	0x50
 2677 0d5a 02       		.uleb128 0x2
 2678 0d5b 09       		.byte	0x9
 2679 0d5c FF       		.byte	0xff
 2680 0d5d 00       		.byte	0
 2681 0d5e 17       		.uleb128 0x17
 2682 0d5f 40000000 		.4byte	.LVL95
 2683 0d63 AF0E0000 		.4byte	0xeaf
 2684 0d67 710D0000 		.4byte	0xd71
 2685 0d6b 18       		.uleb128 0x18
 2686 0d6c 01       		.uleb128 0x1
 2687 0d6d 50       		.byte	0x50
 2688 0d6e 01       		.uleb128 0x1
 2689 0d6f 32       		.byte	0x32
 2690 0d70 00       		.byte	0
 2691 0d71 17       		.uleb128 0x17
 2692 0d72 50000000 		.4byte	.LVL96
 2693 0d76 67100000 		.4byte	0x1067
 2694 0d7a 850D0000 		.4byte	0xd85
 2695 0d7e 18       		.uleb128 0x18
 2696 0d7f 01       		.uleb128 0x1
 2697 0d80 50       		.byte	0x50
 2698 0d81 02       		.uleb128 0x2
 2699 0d82 09       		.byte	0x9
 2700 0d83 FF       		.byte	0xff
 2701 0d84 00       		.byte	0
 2702 0d85 19       		.uleb128 0x19
 2703 0d86 60000000 		.4byte	.LVL98
 2704 0d8a AF0E0000 		.4byte	0xeaf
 2705 0d8e 18       		.uleb128 0x18
 2706 0d8f 01       		.uleb128 0x1
 2707 0d90 50       		.byte	0x50
 2708 0d91 01       		.uleb128 0x1
 2709 0d92 33       		.byte	0x33
 2710 0d93 00       		.byte	0
 2711 0d94 00       		.byte	0
 2712 0d95 16       		.uleb128 0x16
 2713 0d96 65733100 		.ascii	"es1\000"
 2714 0d9a 01       		.byte	0x1
 2715 0d9b 3F       		.byte	0x3f
 2716 0d9c E1040000 		.4byte	0x4e1
 2717 0da0 05       		.uleb128 0x5
 2718 0da1 03       		.byte	0x3
 2719 0da2 00000000 		.4byte	es1
 2720 0da6 16       		.uleb128 0x16
 2721 0da7 65733200 		.ascii	"es2\000"
 2722 0dab 01       		.byte	0x1
 2723 0dac 40       		.byte	0x40
 2724 0dad E1040000 		.4byte	0x4e1
ARM GAS  /tmp/ccfVcRHv.s 			page 49


 2725 0db1 05       		.uleb128 0x5
 2726 0db2 03       		.byte	0x3
 2727 0db3 00000000 		.4byte	es2
 2728 0db7 24       		.uleb128 0x24
 2729 0db8 EC040000 		.4byte	0x4ec
 2730 0dbc C70D0000 		.4byte	0xdc7
 2731 0dc0 25       		.uleb128 0x25
 2732 0dc1 75050000 		.4byte	0x575
 2733 0dc5 02       		.byte	0x2
 2734 0dc6 00       		.byte	0
 2735 0dc7 26       		.uleb128 0x26
 2736 0dc8 32040000 		.4byte	.LASF99
 2737 0dcc 01       		.byte	0x1
 2738 0dcd 57       		.byte	0x57
 2739 0dce D80D0000 		.4byte	0xdd8
 2740 0dd2 05       		.uleb128 0x5
 2741 0dd3 03       		.byte	0x3
 2742 0dd4 00000000 		.4byte	evhndl
 2743 0dd8 10       		.uleb128 0x10
 2744 0dd9 B70D0000 		.4byte	0xdb7
 2745 0ddd 27       		.uleb128 0x27
 2746 0dde 31000000 		.4byte	.LASF100
 2747 0de2 09       		.byte	0x9
 2748 0de3 D1       		.byte	0xd1
 2749 0de4 D1030000 		.4byte	0x3d1
 2750 0de8 27       		.uleb128 0x27
 2751 0de9 0D050000 		.4byte	.LASF101
 2752 0ded 0A       		.byte	0xa
 2753 0dee 68       		.byte	0x68
 2754 0def 2D040000 		.4byte	0x42d
 2755 0df3 24       		.uleb128 0x24
 2756 0df4 4E020000 		.4byte	0x24e
 2757 0df8 030E0000 		.4byte	0xe03
 2758 0dfc 25       		.uleb128 0x25
 2759 0dfd 75050000 		.4byte	0x575
 2760 0e01 04       		.byte	0x4
 2761 0e02 00       		.byte	0
 2762 0e03 27       		.uleb128 0x27
 2763 0e04 D4030000 		.4byte	.LASF102
 2764 0e08 0D       		.byte	0xd
 2765 0e09 A9       		.byte	0xa9
 2766 0e0a F30D0000 		.4byte	0xdf3
 2767 0e0e 24       		.uleb128 0x24
 2768 0e0f 8A020000 		.4byte	0x28a
 2769 0e13 190E0000 		.4byte	0xe19
 2770 0e17 28       		.uleb128 0x28
 2771 0e18 00       		.byte	0
 2772 0e19 29       		.uleb128 0x29
 2773 0e1a 776100   		.ascii	"wa\000"
 2774 0e1d 0D       		.byte	0xd
 2775 0e1e AB       		.byte	0xab
 2776 0e1f 230E0000 		.4byte	0xe23
 2777 0e23 10       		.uleb128 0x10
 2778 0e24 0E0E0000 		.4byte	0xe0e
 2779 0e28 2A       		.uleb128 0x2a
 2780 0e29 29040000 		.4byte	.LASF103
 2781 0e2d 01       		.byte	0x1
ARM GAS  /tmp/ccfVcRHv.s 			page 50


 2782 0e2e 6F       		.byte	0x6f
 2783 0e2f 390E0000 		.4byte	0xe39
 2784 0e33 05       		.uleb128 0x5
 2785 0e34 03       		.byte	0x3
 2786 0e35 00000000 		.4byte	testevt1
 2787 0e39 10       		.uleb128 0x10
 2788 0e3a 7C050000 		.4byte	0x57c
 2789 0e3e 2A       		.uleb128 0x2a
 2790 0e3f 29010000 		.4byte	.LASF104
 2791 0e43 01       		.byte	0x1
 2792 0e44 E4       		.byte	0xe4
 2793 0e45 390E0000 		.4byte	0xe39
 2794 0e49 05       		.uleb128 0x5
 2795 0e4a 03       		.byte	0x3
 2796 0e4b 00000000 		.4byte	testevt2
 2797 0e4f 2B       		.uleb128 0x2b
 2798 0e50 3F010000 		.4byte	.LASF105
 2799 0e54 01       		.byte	0x1
 2800 0e55 1401     		.2byte	0x114
 2801 0e57 390E0000 		.4byte	0xe39
 2802 0e5b 05       		.uleb128 0x5
 2803 0e5c 03       		.byte	0x3
 2804 0e5d 00000000 		.4byte	testevt3
 2805 0e61 24       		.uleb128 0x24
 2806 0e62 710E0000 		.4byte	0xe71
 2807 0e66 710E0000 		.4byte	0xe71
 2808 0e6a 25       		.uleb128 0x25
 2809 0e6b 75050000 		.4byte	0x575
 2810 0e6f 03       		.byte	0x3
 2811 0e70 00       		.byte	0
 2812 0e71 09       		.uleb128 0x9
 2813 0e72 04       		.byte	0x4
 2814 0e73 390E0000 		.4byte	0xe39
 2815 0e77 2B       		.uleb128 0x2b
 2816 0e78 E9010000 		.4byte	.LASF106
 2817 0e7c 01       		.byte	0x1
 2818 0e7d 1F01     		.2byte	0x11f
 2819 0e7f 890E0000 		.4byte	0xe89
 2820 0e83 05       		.uleb128 0x5
 2821 0e84 03       		.byte	0x3
 2822 0e85 00000000 		.4byte	patternevt
 2823 0e89 10       		.uleb128 0x10
 2824 0e8a 610E0000 		.4byte	0xe61
 2825 0e8e 2C       		.uleb128 0x2c
 2826 0e8f 1D020000 		.4byte	.LASF107
 2827 0e93 0C       		.byte	0xc
 2828 0e94 A8       		.byte	0xa8
 2829 0e95 A90E0000 		.4byte	0xea9
 2830 0e99 0C       		.uleb128 0xc
 2831 0e9a A90E0000 		.4byte	0xea9
 2832 0e9e 0C       		.uleb128 0xc
 2833 0e9f C2040000 		.4byte	0x4c2
 2834 0ea3 0C       		.uleb128 0xc
 2835 0ea4 10010000 		.4byte	0x110
 2836 0ea8 00       		.byte	0
 2837 0ea9 09       		.uleb128 0x9
 2838 0eaa 04       		.byte	0x4
ARM GAS  /tmp/ccfVcRHv.s 			page 51


 2839 0eab E1040000 		.4byte	0x4e1
 2840 0eaf 2D       		.uleb128 0x2d
 2841 0eb0 D7050000 		.4byte	.LASF110
 2842 0eb4 0D       		.byte	0xd
 2843 0eb5 5C       		.byte	0x5c
 2844 0eb6 B8000000 		.4byte	0xb8
 2845 0eba C90E0000 		.4byte	0xec9
 2846 0ebe 0C       		.uleb128 0xc
 2847 0ebf 37000000 		.4byte	0x37
 2848 0ec3 0C       		.uleb128 0xc
 2849 0ec4 B8000000 		.4byte	0xb8
 2850 0ec8 00       		.byte	0
 2851 0ec9 2C       		.uleb128 0x2c
 2852 0eca 45020000 		.4byte	.LASF108
 2853 0ece 0C       		.byte	0xc
 2854 0ecf AB       		.byte	0xab
 2855 0ed0 DF0E0000 		.4byte	0xedf
 2856 0ed4 0C       		.uleb128 0xc
 2857 0ed5 A90E0000 		.4byte	0xea9
 2858 0ed9 0C       		.uleb128 0xc
 2859 0eda C2040000 		.4byte	0x4c2
 2860 0ede 00       		.byte	0
 2861 0edf 2C       		.uleb128 0x2c
 2862 0ee0 B1020000 		.4byte	.LASF109
 2863 0ee4 0C       		.byte	0xc
 2864 0ee5 B4       		.byte	0xb4
 2865 0ee6 F50E0000 		.4byte	0xef5
 2866 0eea 0C       		.uleb128 0xc
 2867 0eeb F50E0000 		.4byte	0xef5
 2868 0eef 0C       		.uleb128 0xc
 2869 0ef0 10010000 		.4byte	0x110
 2870 0ef4 00       		.byte	0
 2871 0ef5 09       		.uleb128 0x9
 2872 0ef6 04       		.byte	0x4
 2873 0ef7 FB0E0000 		.4byte	0xefb
 2874 0efb 10       		.uleb128 0x10
 2875 0efc EC040000 		.4byte	0x4ec
 2876 0f00 2D       		.uleb128 0x2d
 2877 0f01 0D030000 		.4byte	.LASF111
 2878 0f05 0D       		.byte	0xd
 2879 0f06 5D       		.byte	0x5d
 2880 0f07 B8000000 		.4byte	0xb8
 2881 0f0b 1A0F0000 		.4byte	0xf1a
 2882 0f0f 0C       		.uleb128 0xc
 2883 0f10 37000000 		.4byte	0x37
 2884 0f14 0C       		.uleb128 0xc
 2885 0f15 1A0F0000 		.4byte	0xf1a
 2886 0f19 00       		.byte	0
 2887 0f1a 09       		.uleb128 0x9
 2888 0f1b 04       		.byte	0x4
 2889 0f1c 48050000 		.4byte	0x548
 2890 0f20 2C       		.uleb128 0x2c
 2891 0f21 D8000000 		.4byte	.LASF112
 2892 0f25 0D       		.byte	0xd
 2893 0f26 5A       		.byte	0x5a
 2894 0f27 310F0000 		.4byte	0xf31
 2895 0f2b 0C       		.uleb128 0xc
ARM GAS  /tmp/ccfVcRHv.s 			page 52


 2896 0f2c 48050000 		.4byte	0x548
 2897 0f30 00       		.byte	0
 2898 0f31 2D       		.uleb128 0x2d
 2899 0f32 C9010000 		.4byte	.LASF113
 2900 0f36 0C       		.byte	0xc
 2901 0f37 AC       		.byte	0xac
 2902 0f38 10010000 		.4byte	0x110
 2903 0f3c 460F0000 		.4byte	0xf46
 2904 0f40 0C       		.uleb128 0xc
 2905 0f41 10010000 		.4byte	0x110
 2906 0f45 00       		.byte	0
 2907 0f46 2D       		.uleb128 0x2d
 2908 0f47 5B000000 		.4byte	.LASF114
 2909 0f4b 0C       		.byte	0xc
 2910 0f4c AD       		.byte	0xad
 2911 0f4d 10010000 		.4byte	0x110
 2912 0f51 5B0F0000 		.4byte	0xf5b
 2913 0f55 0C       		.uleb128 0xc
 2914 0f56 10010000 		.4byte	0x110
 2915 0f5a 00       		.byte	0
 2916 0f5b 2D       		.uleb128 0x2d
 2917 0f5c 7F030000 		.4byte	.LASF115
 2918 0f60 0C       		.byte	0xc
 2919 0f61 B6       		.byte	0xb6
 2920 0f62 10010000 		.4byte	0x110
 2921 0f66 700F0000 		.4byte	0xf70
 2922 0f6a 0C       		.uleb128 0xc
 2923 0f6b 10010000 		.4byte	0x110
 2924 0f6f 00       		.byte	0
 2925 0f70 2E       		.uleb128 0x2e
 2926 0f71 06060000 		.4byte	.LASF130
 2927 0f75 0D       		.byte	0xd
 2928 0f76 61       		.byte	0x61
 2929 0f77 26010000 		.4byte	0x126
 2930 0f7b 2F       		.uleb128 0x2f
 2931 0f7c 7B020000 		.4byte	.LASF116
 2932 0f80 07       		.byte	0x7
 2933 0f81 6401     		.2byte	0x164
 2934 0f83 4E020000 		.4byte	0x24e
 2935 0f87 A50F0000 		.4byte	0xfa5
 2936 0f8b 0C       		.uleb128 0xc
 2937 0f8c 8A020000 		.4byte	0x28a
 2938 0f90 0C       		.uleb128 0xc
 2939 0f91 2C000000 		.4byte	0x2c
 2940 0f95 0C       		.uleb128 0xc
 2941 0f96 EF000000 		.4byte	0xef
 2942 0f9a 0C       		.uleb128 0xc
 2943 0f9b 55050000 		.4byte	0x555
 2944 0f9f 0C       		.uleb128 0xc
 2945 0fa0 8A020000 		.4byte	0x28a
 2946 0fa4 00       		.byte	0
 2947 0fa5 2D       		.uleb128 0x2d
 2948 0fa6 10010000 		.4byte	.LASF117
 2949 0faa 0D       		.byte	0xd
 2950 0fab 5E       		.byte	0x5e
 2951 0fac B8000000 		.4byte	0xb8
 2952 0fb0 C40F0000 		.4byte	0xfc4
ARM GAS  /tmp/ccfVcRHv.s 			page 53


 2953 0fb4 0C       		.uleb128 0xc
 2954 0fb5 37000000 		.4byte	0x37
 2955 0fb9 0C       		.uleb128 0xc
 2956 0fba 26010000 		.4byte	0x126
 2957 0fbe 0C       		.uleb128 0xc
 2958 0fbf 26010000 		.4byte	0x126
 2959 0fc3 00       		.byte	0
 2960 0fc4 30       		.uleb128 0x30
 2961 0fc5 CA020000 		.4byte	.LASF131
 2962 0fc9 0D       		.byte	0xd
 2963 0fca 60       		.byte	0x60
 2964 0fcb 2D       		.uleb128 0x2d
 2965 0fcc 32010000 		.4byte	.LASF118
 2966 0fd0 0C       		.byte	0xc
 2967 0fd1 B7       		.byte	0xb7
 2968 0fd2 10010000 		.4byte	0x110
 2969 0fd6 E00F0000 		.4byte	0xfe0
 2970 0fda 0C       		.uleb128 0xc
 2971 0fdb 10010000 		.4byte	0x110
 2972 0fdf 00       		.byte	0
 2973 0fe0 2D       		.uleb128 0x2d
 2974 0fe1 23030000 		.4byte	.LASF119
 2975 0fe5 0C       		.byte	0xc
 2976 0fe6 B8       		.byte	0xb8
 2977 0fe7 10010000 		.4byte	0x110
 2978 0feb F50F0000 		.4byte	0xff5
 2979 0fef 0C       		.uleb128 0xc
 2980 0ff0 10010000 		.4byte	0x110
 2981 0ff4 00       		.byte	0
 2982 0ff5 2C       		.uleb128 0x2c
 2983 0ff6 6C010000 		.4byte	.LASF120
 2984 0ffa 0C       		.byte	0xc
 2985 0ffb B2       		.byte	0xb2
 2986 0ffc 0B100000 		.4byte	0x100b
 2987 1000 0C       		.uleb128 0xc
 2988 1001 A90E0000 		.4byte	0xea9
 2989 1005 0C       		.uleb128 0xc
 2990 1006 1B010000 		.4byte	0x11b
 2991 100a 00       		.byte	0
 2992 100b 31       		.uleb128 0x31
 2993 100c F1040000 		.4byte	.LASF121
 2994 1010 07       		.byte	0x7
 2995 1011 6901     		.2byte	0x169
 2996 1013 1D100000 		.4byte	0x101d
 2997 1017 0C       		.uleb128 0xc
 2998 1018 26010000 		.4byte	0x126
 2999 101c 00       		.byte	0
 3000 101d 2C       		.uleb128 0x2c
 3001 101e 38000000 		.4byte	.LASF122
 3002 1022 0C       		.byte	0xc
 3003 1023 B0       		.byte	0xb0
 3004 1024 33100000 		.4byte	0x1033
 3005 1028 0C       		.uleb128 0xc
 3006 1029 4E020000 		.4byte	0x24e
 3007 102d 0C       		.uleb128 0xc
 3008 102e 10010000 		.4byte	0x110
 3009 1032 00       		.byte	0
ARM GAS  /tmp/ccfVcRHv.s 			page 54


 3010 1033 2D       		.uleb128 0x2d
 3011 1034 29050000 		.4byte	.LASF123
 3012 1038 0C       		.byte	0xc
 3013 1039 BB       		.byte	0xbb
 3014 103a 10010000 		.4byte	0x110
 3015 103e 4D100000 		.4byte	0x104d
 3016 1042 0C       		.uleb128 0xc
 3017 1043 10010000 		.4byte	0x110
 3018 1047 0C       		.uleb128 0xc
 3019 1048 26010000 		.4byte	0x126
 3020 104c 00       		.byte	0
 3021 104d 2D       		.uleb128 0x2d
 3022 104e 73000000 		.4byte	.LASF124
 3023 1052 0C       		.byte	0xc
 3024 1053 BC       		.byte	0xbc
 3025 1054 10010000 		.4byte	0x110
 3026 1058 67100000 		.4byte	0x1067
 3027 105c 0C       		.uleb128 0xc
 3028 105d 10010000 		.4byte	0x110
 3029 1061 0C       		.uleb128 0xc
 3030 1062 26010000 		.4byte	0x126
 3031 1066 00       		.byte	0
 3032 1067 32       		.uleb128 0x32
 3033 1068 B5000000 		.4byte	.LASF125
 3034 106c 0C       		.byte	0xc
 3035 106d BD       		.byte	0xbd
 3036 106e 10010000 		.4byte	0x110
 3037 1072 0C       		.uleb128 0xc
 3038 1073 10010000 		.4byte	0x110
 3039 1077 0C       		.uleb128 0xc
 3040 1078 26010000 		.4byte	0x126
 3041 107c 00       		.byte	0
 3042 107d 00       		.byte	0
 3043              		.section	.debug_abbrev,"",%progbits
 3044              	.Ldebug_abbrev0:
 3045 0000 01       		.uleb128 0x1
 3046 0001 11       		.uleb128 0x11
 3047 0002 01       		.byte	0x1
 3048 0003 25       		.uleb128 0x25
 3049 0004 0E       		.uleb128 0xe
 3050 0005 13       		.uleb128 0x13
 3051 0006 0B       		.uleb128 0xb
 3052 0007 03       		.uleb128 0x3
 3053 0008 0E       		.uleb128 0xe
 3054 0009 1B       		.uleb128 0x1b
 3055 000a 0E       		.uleb128 0xe
 3056 000b 55       		.uleb128 0x55
 3057 000c 17       		.uleb128 0x17
 3058 000d 11       		.uleb128 0x11
 3059 000e 01       		.uleb128 0x1
 3060 000f 10       		.uleb128 0x10
 3061 0010 17       		.uleb128 0x17
 3062 0011 00       		.byte	0
 3063 0012 00       		.byte	0
 3064 0013 02       		.uleb128 0x2
 3065 0014 24       		.uleb128 0x24
 3066 0015 00       		.byte	0
ARM GAS  /tmp/ccfVcRHv.s 			page 55


 3067 0016 0B       		.uleb128 0xb
 3068 0017 0B       		.uleb128 0xb
 3069 0018 3E       		.uleb128 0x3e
 3070 0019 0B       		.uleb128 0xb
 3071 001a 03       		.uleb128 0x3
 3072 001b 08       		.uleb128 0x8
 3073 001c 00       		.byte	0
 3074 001d 00       		.byte	0
 3075 001e 03       		.uleb128 0x3
 3076 001f 16       		.uleb128 0x16
 3077 0020 00       		.byte	0
 3078 0021 03       		.uleb128 0x3
 3079 0022 0E       		.uleb128 0xe
 3080 0023 3A       		.uleb128 0x3a
 3081 0024 0B       		.uleb128 0xb
 3082 0025 3B       		.uleb128 0x3b
 3083 0026 0B       		.uleb128 0xb
 3084 0027 49       		.uleb128 0x49
 3085 0028 13       		.uleb128 0x13
 3086 0029 00       		.byte	0
 3087 002a 00       		.byte	0
 3088 002b 04       		.uleb128 0x4
 3089 002c 24       		.uleb128 0x24
 3090 002d 00       		.byte	0
 3091 002e 0B       		.uleb128 0xb
 3092 002f 0B       		.uleb128 0xb
 3093 0030 3E       		.uleb128 0x3e
 3094 0031 0B       		.uleb128 0xb
 3095 0032 03       		.uleb128 0x3
 3096 0033 0E       		.uleb128 0xe
 3097 0034 00       		.byte	0
 3098 0035 00       		.byte	0
 3099 0036 05       		.uleb128 0x5
 3100 0037 13       		.uleb128 0x13
 3101 0038 01       		.byte	0x1
 3102 0039 03       		.uleb128 0x3
 3103 003a 0E       		.uleb128 0xe
 3104 003b 0B       		.uleb128 0xb
 3105 003c 0B       		.uleb128 0xb
 3106 003d 3A       		.uleb128 0x3a
 3107 003e 0B       		.uleb128 0xb
 3108 003f 3B       		.uleb128 0x3b
 3109 0040 0B       		.uleb128 0xb
 3110 0041 01       		.uleb128 0x1
 3111 0042 13       		.uleb128 0x13
 3112 0043 00       		.byte	0
 3113 0044 00       		.byte	0
 3114 0045 06       		.uleb128 0x6
 3115 0046 0D       		.uleb128 0xd
 3116 0047 00       		.byte	0
 3117 0048 03       		.uleb128 0x3
 3118 0049 0E       		.uleb128 0xe
 3119 004a 3A       		.uleb128 0x3a
 3120 004b 0B       		.uleb128 0xb
 3121 004c 3B       		.uleb128 0x3b
 3122 004d 0B       		.uleb128 0xb
 3123 004e 49       		.uleb128 0x49
ARM GAS  /tmp/ccfVcRHv.s 			page 56


 3124 004f 13       		.uleb128 0x13
 3125 0050 38       		.uleb128 0x38
 3126 0051 0B       		.uleb128 0xb
 3127 0052 00       		.byte	0
 3128 0053 00       		.byte	0
 3129 0054 07       		.uleb128 0x7
 3130 0055 0D       		.uleb128 0xd
 3131 0056 00       		.byte	0
 3132 0057 03       		.uleb128 0x3
 3133 0058 08       		.uleb128 0x8
 3134 0059 3A       		.uleb128 0x3a
 3135 005a 0B       		.uleb128 0xb
 3136 005b 3B       		.uleb128 0x3b
 3137 005c 0B       		.uleb128 0xb
 3138 005d 49       		.uleb128 0x49
 3139 005e 13       		.uleb128 0x13
 3140 005f 38       		.uleb128 0x38
 3141 0060 0B       		.uleb128 0xb
 3142 0061 00       		.byte	0
 3143 0062 00       		.byte	0
 3144 0063 08       		.uleb128 0x8
 3145 0064 13       		.uleb128 0x13
 3146 0065 01       		.byte	0x1
 3147 0066 0B       		.uleb128 0xb
 3148 0067 0B       		.uleb128 0xb
 3149 0068 3A       		.uleb128 0x3a
 3150 0069 0B       		.uleb128 0xb
 3151 006a 3B       		.uleb128 0x3b
 3152 006b 0B       		.uleb128 0xb
 3153 006c 01       		.uleb128 0x1
 3154 006d 13       		.uleb128 0x13
 3155 006e 00       		.byte	0
 3156 006f 00       		.byte	0
 3157 0070 09       		.uleb128 0x9
 3158 0071 0F       		.uleb128 0xf
 3159 0072 00       		.byte	0
 3160 0073 0B       		.uleb128 0xb
 3161 0074 0B       		.uleb128 0xb
 3162 0075 49       		.uleb128 0x49
 3163 0076 13       		.uleb128 0x13
 3164 0077 00       		.byte	0
 3165 0078 00       		.byte	0
 3166 0079 0A       		.uleb128 0xa
 3167 007a 0F       		.uleb128 0xf
 3168 007b 00       		.byte	0
 3169 007c 0B       		.uleb128 0xb
 3170 007d 0B       		.uleb128 0xb
 3171 007e 00       		.byte	0
 3172 007f 00       		.byte	0
 3173 0080 0B       		.uleb128 0xb
 3174 0081 15       		.uleb128 0x15
 3175 0082 01       		.byte	0x1
 3176 0083 27       		.uleb128 0x27
 3177 0084 19       		.uleb128 0x19
 3178 0085 01       		.uleb128 0x1
 3179 0086 13       		.uleb128 0x13
 3180 0087 00       		.byte	0
ARM GAS  /tmp/ccfVcRHv.s 			page 57


 3181 0088 00       		.byte	0
 3182 0089 0C       		.uleb128 0xc
 3183 008a 05       		.uleb128 0x5
 3184 008b 00       		.byte	0
 3185 008c 49       		.uleb128 0x49
 3186 008d 13       		.uleb128 0x13
 3187 008e 00       		.byte	0
 3188 008f 00       		.byte	0
 3189 0090 0D       		.uleb128 0xd
 3190 0091 35       		.uleb128 0x35
 3191 0092 00       		.byte	0
 3192 0093 49       		.uleb128 0x49
 3193 0094 13       		.uleb128 0x13
 3194 0095 00       		.byte	0
 3195 0096 00       		.byte	0
 3196 0097 0E       		.uleb128 0xe
 3197 0098 17       		.uleb128 0x17
 3198 0099 01       		.byte	0x1
 3199 009a 0B       		.uleb128 0xb
 3200 009b 0B       		.uleb128 0xb
 3201 009c 3A       		.uleb128 0x3a
 3202 009d 0B       		.uleb128 0xb
 3203 009e 3B       		.uleb128 0x3b
 3204 009f 0B       		.uleb128 0xb
 3205 00a0 01       		.uleb128 0x1
 3206 00a1 13       		.uleb128 0x13
 3207 00a2 00       		.byte	0
 3208 00a3 00       		.byte	0
 3209 00a4 0F       		.uleb128 0xf
 3210 00a5 0D       		.uleb128 0xd
 3211 00a6 00       		.byte	0
 3212 00a7 03       		.uleb128 0x3
 3213 00a8 0E       		.uleb128 0xe
 3214 00a9 3A       		.uleb128 0x3a
 3215 00aa 0B       		.uleb128 0xb
 3216 00ab 3B       		.uleb128 0x3b
 3217 00ac 0B       		.uleb128 0xb
 3218 00ad 49       		.uleb128 0x49
 3219 00ae 13       		.uleb128 0x13
 3220 00af 00       		.byte	0
 3221 00b0 00       		.byte	0
 3222 00b1 10       		.uleb128 0x10
 3223 00b2 26       		.uleb128 0x26
 3224 00b3 00       		.byte	0
 3225 00b4 49       		.uleb128 0x49
 3226 00b5 13       		.uleb128 0x13
 3227 00b6 00       		.byte	0
 3228 00b7 00       		.byte	0
 3229 00b8 11       		.uleb128 0x11
 3230 00b9 15       		.uleb128 0x15
 3231 00ba 01       		.byte	0x1
 3232 00bb 27       		.uleb128 0x27
 3233 00bc 19       		.uleb128 0x19
 3234 00bd 49       		.uleb128 0x49
 3235 00be 13       		.uleb128 0x13
 3236 00bf 01       		.uleb128 0x1
 3237 00c0 13       		.uleb128 0x13
ARM GAS  /tmp/ccfVcRHv.s 			page 58


 3238 00c1 00       		.byte	0
 3239 00c2 00       		.byte	0
 3240 00c3 12       		.uleb128 0x12
 3241 00c4 15       		.uleb128 0x15
 3242 00c5 00       		.byte	0
 3243 00c6 27       		.uleb128 0x27
 3244 00c7 19       		.uleb128 0x19
 3245 00c8 00       		.byte	0
 3246 00c9 00       		.byte	0
 3247 00ca 13       		.uleb128 0x13
 3248 00cb 2E       		.uleb128 0x2e
 3249 00cc 01       		.byte	0x1
 3250 00cd 03       		.uleb128 0x3
 3251 00ce 0E       		.uleb128 0xe
 3252 00cf 3A       		.uleb128 0x3a
 3253 00d0 0B       		.uleb128 0xb
 3254 00d1 3B       		.uleb128 0x3b
 3255 00d2 05       		.uleb128 0x5
 3256 00d3 27       		.uleb128 0x27
 3257 00d4 19       		.uleb128 0x19
 3258 00d5 20       		.uleb128 0x20
 3259 00d6 0B       		.uleb128 0xb
 3260 00d7 01       		.uleb128 0x1
 3261 00d8 13       		.uleb128 0x13
 3262 00d9 00       		.byte	0
 3263 00da 00       		.byte	0
 3264 00db 14       		.uleb128 0x14
 3265 00dc 34       		.uleb128 0x34
 3266 00dd 00       		.byte	0
 3267 00de 03       		.uleb128 0x3
 3268 00df 08       		.uleb128 0x8
 3269 00e0 3A       		.uleb128 0x3a
 3270 00e1 0B       		.uleb128 0xb
 3271 00e2 3B       		.uleb128 0x3b
 3272 00e3 05       		.uleb128 0x5
 3273 00e4 49       		.uleb128 0x49
 3274 00e5 13       		.uleb128 0x13
 3275 00e6 00       		.byte	0
 3276 00e7 00       		.byte	0
 3277 00e8 15       		.uleb128 0x15
 3278 00e9 2E       		.uleb128 0x2e
 3279 00ea 01       		.byte	0x1
 3280 00eb 03       		.uleb128 0x3
 3281 00ec 0E       		.uleb128 0xe
 3282 00ed 3A       		.uleb128 0x3a
 3283 00ee 0B       		.uleb128 0xb
 3284 00ef 3B       		.uleb128 0x3b
 3285 00f0 0B       		.uleb128 0xb
 3286 00f1 27       		.uleb128 0x27
 3287 00f2 19       		.uleb128 0x19
 3288 00f3 11       		.uleb128 0x11
 3289 00f4 01       		.uleb128 0x1
 3290 00f5 12       		.uleb128 0x12
 3291 00f6 06       		.uleb128 0x6
 3292 00f7 40       		.uleb128 0x40
 3293 00f8 18       		.uleb128 0x18
 3294 00f9 9742     		.uleb128 0x2117
ARM GAS  /tmp/ccfVcRHv.s 			page 59


 3295 00fb 19       		.uleb128 0x19
 3296 00fc 01       		.uleb128 0x1
 3297 00fd 13       		.uleb128 0x13
 3298 00fe 00       		.byte	0
 3299 00ff 00       		.byte	0
 3300 0100 16       		.uleb128 0x16
 3301 0101 34       		.uleb128 0x34
 3302 0102 00       		.byte	0
 3303 0103 03       		.uleb128 0x3
 3304 0104 08       		.uleb128 0x8
 3305 0105 3A       		.uleb128 0x3a
 3306 0106 0B       		.uleb128 0xb
 3307 0107 3B       		.uleb128 0x3b
 3308 0108 0B       		.uleb128 0xb
 3309 0109 49       		.uleb128 0x49
 3310 010a 13       		.uleb128 0x13
 3311 010b 02       		.uleb128 0x2
 3312 010c 18       		.uleb128 0x18
 3313 010d 00       		.byte	0
 3314 010e 00       		.byte	0
 3315 010f 17       		.uleb128 0x17
 3316 0110 898201   		.uleb128 0x4109
 3317 0113 01       		.byte	0x1
 3318 0114 11       		.uleb128 0x11
 3319 0115 01       		.uleb128 0x1
 3320 0116 31       		.uleb128 0x31
 3321 0117 13       		.uleb128 0x13
 3322 0118 01       		.uleb128 0x1
 3323 0119 13       		.uleb128 0x13
 3324 011a 00       		.byte	0
 3325 011b 00       		.byte	0
 3326 011c 18       		.uleb128 0x18
 3327 011d 8A8201   		.uleb128 0x410a
 3328 0120 00       		.byte	0
 3329 0121 02       		.uleb128 0x2
 3330 0122 18       		.uleb128 0x18
 3331 0123 9142     		.uleb128 0x2111
 3332 0125 18       		.uleb128 0x18
 3333 0126 00       		.byte	0
 3334 0127 00       		.byte	0
 3335 0128 19       		.uleb128 0x19
 3336 0129 898201   		.uleb128 0x4109
 3337 012c 01       		.byte	0x1
 3338 012d 11       		.uleb128 0x11
 3339 012e 01       		.uleb128 0x1
 3340 012f 31       		.uleb128 0x31
 3341 0130 13       		.uleb128 0x13
 3342 0131 00       		.byte	0
 3343 0132 00       		.byte	0
 3344 0133 1A       		.uleb128 0x1a
 3345 0134 2E       		.uleb128 0x2e
 3346 0135 01       		.byte	0x1
 3347 0136 03       		.uleb128 0x3
 3348 0137 08       		.uleb128 0x8
 3349 0138 3A       		.uleb128 0x3a
 3350 0139 0B       		.uleb128 0xb
 3351 013a 3B       		.uleb128 0x3b
ARM GAS  /tmp/ccfVcRHv.s 			page 60


 3352 013b 0B       		.uleb128 0xb
 3353 013c 27       		.uleb128 0x27
 3354 013d 19       		.uleb128 0x19
 3355 013e 11       		.uleb128 0x11
 3356 013f 01       		.uleb128 0x1
 3357 0140 12       		.uleb128 0x12
 3358 0141 06       		.uleb128 0x6
 3359 0142 40       		.uleb128 0x40
 3360 0143 18       		.uleb128 0x18
 3361 0144 9742     		.uleb128 0x2117
 3362 0146 19       		.uleb128 0x19
 3363 0147 01       		.uleb128 0x1
 3364 0148 13       		.uleb128 0x13
 3365 0149 00       		.byte	0
 3366 014a 00       		.byte	0
 3367 014b 1B       		.uleb128 0x1b
 3368 014c 05       		.uleb128 0x5
 3369 014d 00       		.byte	0
 3370 014e 03       		.uleb128 0x3
 3371 014f 08       		.uleb128 0x8
 3372 0150 3A       		.uleb128 0x3a
 3373 0151 0B       		.uleb128 0xb
 3374 0152 3B       		.uleb128 0x3b
 3375 0153 0B       		.uleb128 0xb
 3376 0154 49       		.uleb128 0x49
 3377 0155 13       		.uleb128 0x13
 3378 0156 02       		.uleb128 0x2
 3379 0157 17       		.uleb128 0x17
 3380 0158 00       		.byte	0
 3381 0159 00       		.byte	0
 3382 015a 1C       		.uleb128 0x1c
 3383 015b 898201   		.uleb128 0x4109
 3384 015e 01       		.byte	0x1
 3385 015f 11       		.uleb128 0x11
 3386 0160 01       		.uleb128 0x1
 3387 0161 9542     		.uleb128 0x2115
 3388 0163 19       		.uleb128 0x19
 3389 0164 31       		.uleb128 0x31
 3390 0165 13       		.uleb128 0x13
 3391 0166 00       		.byte	0
 3392 0167 00       		.byte	0
 3393 0168 1D       		.uleb128 0x1d
 3394 0169 34       		.uleb128 0x34
 3395 016a 00       		.byte	0
 3396 016b 03       		.uleb128 0x3
 3397 016c 08       		.uleb128 0x8
 3398 016d 3A       		.uleb128 0x3a
 3399 016e 0B       		.uleb128 0xb
 3400 016f 3B       		.uleb128 0x3b
 3401 0170 0B       		.uleb128 0xb
 3402 0171 49       		.uleb128 0x49
 3403 0172 13       		.uleb128 0x13
 3404 0173 02       		.uleb128 0x2
 3405 0174 17       		.uleb128 0x17
 3406 0175 00       		.byte	0
 3407 0176 00       		.byte	0
 3408 0177 1E       		.uleb128 0x1e
ARM GAS  /tmp/ccfVcRHv.s 			page 61


 3409 0178 34       		.uleb128 0x34
 3410 0179 00       		.byte	0
 3411 017a 03       		.uleb128 0x3
 3412 017b 0E       		.uleb128 0xe
 3413 017c 3A       		.uleb128 0x3a
 3414 017d 0B       		.uleb128 0xb
 3415 017e 3B       		.uleb128 0x3b
 3416 017f 0B       		.uleb128 0xb
 3417 0180 49       		.uleb128 0x49
 3418 0181 13       		.uleb128 0x13
 3419 0182 02       		.uleb128 0x2
 3420 0183 17       		.uleb128 0x17
 3421 0184 00       		.byte	0
 3422 0185 00       		.byte	0
 3423 0186 1F       		.uleb128 0x1f
 3424 0187 898201   		.uleb128 0x4109
 3425 018a 00       		.byte	0
 3426 018b 11       		.uleb128 0x11
 3427 018c 01       		.uleb128 0x1
 3428 018d 31       		.uleb128 0x31
 3429 018e 13       		.uleb128 0x13
 3430 018f 00       		.byte	0
 3431 0190 00       		.byte	0
 3432 0191 20       		.uleb128 0x20
 3433 0192 2E       		.uleb128 0x2e
 3434 0193 01       		.byte	0x1
 3435 0194 03       		.uleb128 0x3
 3436 0195 0E       		.uleb128 0xe
 3437 0196 3A       		.uleb128 0x3a
 3438 0197 0B       		.uleb128 0xb
 3439 0198 3B       		.uleb128 0x3b
 3440 0199 0B       		.uleb128 0xb
 3441 019a 27       		.uleb128 0x27
 3442 019b 19       		.uleb128 0x19
 3443 019c 49       		.uleb128 0x49
 3444 019d 13       		.uleb128 0x13
 3445 019e 11       		.uleb128 0x11
 3446 019f 01       		.uleb128 0x1
 3447 01a0 12       		.uleb128 0x12
 3448 01a1 06       		.uleb128 0x6
 3449 01a2 40       		.uleb128 0x40
 3450 01a3 18       		.uleb128 0x18
 3451 01a4 9742     		.uleb128 0x2117
 3452 01a6 19       		.uleb128 0x19
 3453 01a7 01       		.uleb128 0x1
 3454 01a8 13       		.uleb128 0x13
 3455 01a9 00       		.byte	0
 3456 01aa 00       		.byte	0
 3457 01ab 21       		.uleb128 0x21
 3458 01ac 2E       		.uleb128 0x2e
 3459 01ad 01       		.byte	0x1
 3460 01ae 31       		.uleb128 0x31
 3461 01af 13       		.uleb128 0x13
 3462 01b0 11       		.uleb128 0x11
 3463 01b1 01       		.uleb128 0x1
 3464 01b2 12       		.uleb128 0x12
 3465 01b3 06       		.uleb128 0x6
ARM GAS  /tmp/ccfVcRHv.s 			page 62


 3466 01b4 40       		.uleb128 0x40
 3467 01b5 18       		.uleb128 0x18
 3468 01b6 9742     		.uleb128 0x2117
 3469 01b8 19       		.uleb128 0x19
 3470 01b9 01       		.uleb128 0x1
 3471 01ba 13       		.uleb128 0x13
 3472 01bb 00       		.byte	0
 3473 01bc 00       		.byte	0
 3474 01bd 22       		.uleb128 0x22
 3475 01be 34       		.uleb128 0x34
 3476 01bf 00       		.byte	0
 3477 01c0 31       		.uleb128 0x31
 3478 01c1 13       		.uleb128 0x13
 3479 01c2 02       		.uleb128 0x2
 3480 01c3 17       		.uleb128 0x17
 3481 01c4 00       		.byte	0
 3482 01c5 00       		.byte	0
 3483 01c6 23       		.uleb128 0x23
 3484 01c7 0B       		.uleb128 0xb
 3485 01c8 01       		.byte	0x1
 3486 01c9 55       		.uleb128 0x55
 3487 01ca 17       		.uleb128 0x17
 3488 01cb 01       		.uleb128 0x1
 3489 01cc 13       		.uleb128 0x13
 3490 01cd 00       		.byte	0
 3491 01ce 00       		.byte	0
 3492 01cf 24       		.uleb128 0x24
 3493 01d0 01       		.uleb128 0x1
 3494 01d1 01       		.byte	0x1
 3495 01d2 49       		.uleb128 0x49
 3496 01d3 13       		.uleb128 0x13
 3497 01d4 01       		.uleb128 0x1
 3498 01d5 13       		.uleb128 0x13
 3499 01d6 00       		.byte	0
 3500 01d7 00       		.byte	0
 3501 01d8 25       		.uleb128 0x25
 3502 01d9 21       		.uleb128 0x21
 3503 01da 00       		.byte	0
 3504 01db 49       		.uleb128 0x49
 3505 01dc 13       		.uleb128 0x13
 3506 01dd 2F       		.uleb128 0x2f
 3507 01de 0B       		.uleb128 0xb
 3508 01df 00       		.byte	0
 3509 01e0 00       		.byte	0
 3510 01e1 26       		.uleb128 0x26
 3511 01e2 34       		.uleb128 0x34
 3512 01e3 00       		.byte	0
 3513 01e4 03       		.uleb128 0x3
 3514 01e5 0E       		.uleb128 0xe
 3515 01e6 3A       		.uleb128 0x3a
 3516 01e7 0B       		.uleb128 0xb
 3517 01e8 3B       		.uleb128 0x3b
 3518 01e9 0B       		.uleb128 0xb
 3519 01ea 49       		.uleb128 0x49
 3520 01eb 13       		.uleb128 0x13
 3521 01ec 02       		.uleb128 0x2
 3522 01ed 18       		.uleb128 0x18
ARM GAS  /tmp/ccfVcRHv.s 			page 63


 3523 01ee 00       		.byte	0
 3524 01ef 00       		.byte	0
 3525 01f0 27       		.uleb128 0x27
 3526 01f1 34       		.uleb128 0x34
 3527 01f2 00       		.byte	0
 3528 01f3 03       		.uleb128 0x3
 3529 01f4 0E       		.uleb128 0xe
 3530 01f5 3A       		.uleb128 0x3a
 3531 01f6 0B       		.uleb128 0xb
 3532 01f7 3B       		.uleb128 0x3b
 3533 01f8 0B       		.uleb128 0xb
 3534 01f9 49       		.uleb128 0x49
 3535 01fa 13       		.uleb128 0x13
 3536 01fb 3F       		.uleb128 0x3f
 3537 01fc 19       		.uleb128 0x19
 3538 01fd 3C       		.uleb128 0x3c
 3539 01fe 19       		.uleb128 0x19
 3540 01ff 00       		.byte	0
 3541 0200 00       		.byte	0
 3542 0201 28       		.uleb128 0x28
 3543 0202 21       		.uleb128 0x21
 3544 0203 00       		.byte	0
 3545 0204 00       		.byte	0
 3546 0205 00       		.byte	0
 3547 0206 29       		.uleb128 0x29
 3548 0207 34       		.uleb128 0x34
 3549 0208 00       		.byte	0
 3550 0209 03       		.uleb128 0x3
 3551 020a 08       		.uleb128 0x8
 3552 020b 3A       		.uleb128 0x3a
 3553 020c 0B       		.uleb128 0xb
 3554 020d 3B       		.uleb128 0x3b
 3555 020e 0B       		.uleb128 0xb
 3556 020f 49       		.uleb128 0x49
 3557 0210 13       		.uleb128 0x13
 3558 0211 3F       		.uleb128 0x3f
 3559 0212 19       		.uleb128 0x19
 3560 0213 3C       		.uleb128 0x3c
 3561 0214 19       		.uleb128 0x19
 3562 0215 00       		.byte	0
 3563 0216 00       		.byte	0
 3564 0217 2A       		.uleb128 0x2a
 3565 0218 34       		.uleb128 0x34
 3566 0219 00       		.byte	0
 3567 021a 03       		.uleb128 0x3
 3568 021b 0E       		.uleb128 0xe
 3569 021c 3A       		.uleb128 0x3a
 3570 021d 0B       		.uleb128 0xb
 3571 021e 3B       		.uleb128 0x3b
 3572 021f 0B       		.uleb128 0xb
 3573 0220 49       		.uleb128 0x49
 3574 0221 13       		.uleb128 0x13
 3575 0222 3F       		.uleb128 0x3f
 3576 0223 19       		.uleb128 0x19
 3577 0224 02       		.uleb128 0x2
 3578 0225 18       		.uleb128 0x18
 3579 0226 00       		.byte	0
ARM GAS  /tmp/ccfVcRHv.s 			page 64


 3580 0227 00       		.byte	0
 3581 0228 2B       		.uleb128 0x2b
 3582 0229 34       		.uleb128 0x34
 3583 022a 00       		.byte	0
 3584 022b 03       		.uleb128 0x3
 3585 022c 0E       		.uleb128 0xe
 3586 022d 3A       		.uleb128 0x3a
 3587 022e 0B       		.uleb128 0xb
 3588 022f 3B       		.uleb128 0x3b
 3589 0230 05       		.uleb128 0x5
 3590 0231 49       		.uleb128 0x49
 3591 0232 13       		.uleb128 0x13
 3592 0233 3F       		.uleb128 0x3f
 3593 0234 19       		.uleb128 0x19
 3594 0235 02       		.uleb128 0x2
 3595 0236 18       		.uleb128 0x18
 3596 0237 00       		.byte	0
 3597 0238 00       		.byte	0
 3598 0239 2C       		.uleb128 0x2c
 3599 023a 2E       		.uleb128 0x2e
 3600 023b 01       		.byte	0x1
 3601 023c 3F       		.uleb128 0x3f
 3602 023d 19       		.uleb128 0x19
 3603 023e 03       		.uleb128 0x3
 3604 023f 0E       		.uleb128 0xe
 3605 0240 3A       		.uleb128 0x3a
 3606 0241 0B       		.uleb128 0xb
 3607 0242 3B       		.uleb128 0x3b
 3608 0243 0B       		.uleb128 0xb
 3609 0244 27       		.uleb128 0x27
 3610 0245 19       		.uleb128 0x19
 3611 0246 3C       		.uleb128 0x3c
 3612 0247 19       		.uleb128 0x19
 3613 0248 01       		.uleb128 0x1
 3614 0249 13       		.uleb128 0x13
 3615 024a 00       		.byte	0
 3616 024b 00       		.byte	0
 3617 024c 2D       		.uleb128 0x2d
 3618 024d 2E       		.uleb128 0x2e
 3619 024e 01       		.byte	0x1
 3620 024f 3F       		.uleb128 0x3f
 3621 0250 19       		.uleb128 0x19
 3622 0251 03       		.uleb128 0x3
 3623 0252 0E       		.uleb128 0xe
 3624 0253 3A       		.uleb128 0x3a
 3625 0254 0B       		.uleb128 0xb
 3626 0255 3B       		.uleb128 0x3b
 3627 0256 0B       		.uleb128 0xb
 3628 0257 27       		.uleb128 0x27
 3629 0258 19       		.uleb128 0x19
 3630 0259 49       		.uleb128 0x49
 3631 025a 13       		.uleb128 0x13
 3632 025b 3C       		.uleb128 0x3c
 3633 025c 19       		.uleb128 0x19
 3634 025d 01       		.uleb128 0x1
 3635 025e 13       		.uleb128 0x13
 3636 025f 00       		.byte	0
ARM GAS  /tmp/ccfVcRHv.s 			page 65


 3637 0260 00       		.byte	0
 3638 0261 2E       		.uleb128 0x2e
 3639 0262 2E       		.uleb128 0x2e
 3640 0263 00       		.byte	0
 3641 0264 3F       		.uleb128 0x3f
 3642 0265 19       		.uleb128 0x19
 3643 0266 03       		.uleb128 0x3
 3644 0267 0E       		.uleb128 0xe
 3645 0268 3A       		.uleb128 0x3a
 3646 0269 0B       		.uleb128 0xb
 3647 026a 3B       		.uleb128 0x3b
 3648 026b 0B       		.uleb128 0xb
 3649 026c 27       		.uleb128 0x27
 3650 026d 19       		.uleb128 0x19
 3651 026e 49       		.uleb128 0x49
 3652 026f 13       		.uleb128 0x13
 3653 0270 3C       		.uleb128 0x3c
 3654 0271 19       		.uleb128 0x19
 3655 0272 00       		.byte	0
 3656 0273 00       		.byte	0
 3657 0274 2F       		.uleb128 0x2f
 3658 0275 2E       		.uleb128 0x2e
 3659 0276 01       		.byte	0x1
 3660 0277 3F       		.uleb128 0x3f
 3661 0278 19       		.uleb128 0x19
 3662 0279 03       		.uleb128 0x3
 3663 027a 0E       		.uleb128 0xe
 3664 027b 3A       		.uleb128 0x3a
 3665 027c 0B       		.uleb128 0xb
 3666 027d 3B       		.uleb128 0x3b
 3667 027e 05       		.uleb128 0x5
 3668 027f 27       		.uleb128 0x27
 3669 0280 19       		.uleb128 0x19
 3670 0281 49       		.uleb128 0x49
 3671 0282 13       		.uleb128 0x13
 3672 0283 3C       		.uleb128 0x3c
 3673 0284 19       		.uleb128 0x19
 3674 0285 01       		.uleb128 0x1
 3675 0286 13       		.uleb128 0x13
 3676 0287 00       		.byte	0
 3677 0288 00       		.byte	0
 3678 0289 30       		.uleb128 0x30
 3679 028a 2E       		.uleb128 0x2e
 3680 028b 00       		.byte	0
 3681 028c 3F       		.uleb128 0x3f
 3682 028d 19       		.uleb128 0x19
 3683 028e 03       		.uleb128 0x3
 3684 028f 0E       		.uleb128 0xe
 3685 0290 3A       		.uleb128 0x3a
 3686 0291 0B       		.uleb128 0xb
 3687 0292 3B       		.uleb128 0x3b
 3688 0293 0B       		.uleb128 0xb
 3689 0294 27       		.uleb128 0x27
 3690 0295 19       		.uleb128 0x19
 3691 0296 3C       		.uleb128 0x3c
 3692 0297 19       		.uleb128 0x19
 3693 0298 00       		.byte	0
ARM GAS  /tmp/ccfVcRHv.s 			page 66


 3694 0299 00       		.byte	0
 3695 029a 31       		.uleb128 0x31
 3696 029b 2E       		.uleb128 0x2e
 3697 029c 01       		.byte	0x1
 3698 029d 3F       		.uleb128 0x3f
 3699 029e 19       		.uleb128 0x19
 3700 029f 03       		.uleb128 0x3
 3701 02a0 0E       		.uleb128 0xe
 3702 02a1 3A       		.uleb128 0x3a
 3703 02a2 0B       		.uleb128 0xb
 3704 02a3 3B       		.uleb128 0x3b
 3705 02a4 05       		.uleb128 0x5
 3706 02a5 27       		.uleb128 0x27
 3707 02a6 19       		.uleb128 0x19
 3708 02a7 3C       		.uleb128 0x3c
 3709 02a8 19       		.uleb128 0x19
 3710 02a9 01       		.uleb128 0x1
 3711 02aa 13       		.uleb128 0x13
 3712 02ab 00       		.byte	0
 3713 02ac 00       		.byte	0
 3714 02ad 32       		.uleb128 0x32
 3715 02ae 2E       		.uleb128 0x2e
 3716 02af 01       		.byte	0x1
 3717 02b0 3F       		.uleb128 0x3f
 3718 02b1 19       		.uleb128 0x19
 3719 02b2 03       		.uleb128 0x3
 3720 02b3 0E       		.uleb128 0xe
 3721 02b4 3A       		.uleb128 0x3a
 3722 02b5 0B       		.uleb128 0xb
 3723 02b6 3B       		.uleb128 0x3b
 3724 02b7 0B       		.uleb128 0xb
 3725 02b8 27       		.uleb128 0x27
 3726 02b9 19       		.uleb128 0x19
 3727 02ba 49       		.uleb128 0x49
 3728 02bb 13       		.uleb128 0x13
 3729 02bc 3C       		.uleb128 0x3c
 3730 02bd 19       		.uleb128 0x19
 3731 02be 00       		.byte	0
 3732 02bf 00       		.byte	0
 3733 02c0 00       		.byte	0
 3734              		.section	.debug_loc,"",%progbits
 3735              	.Ldebug_loc0:
 3736              	.LLST0:
 3737 0000 00000000 		.4byte	.LVL9
 3738 0004 04000000 		.4byte	.LVL10
 3739 0008 0100     		.2byte	0x1
 3740 000a 50       		.byte	0x50
 3741 000b 04000000 		.4byte	.LVL10
 3742 000f 08000000 		.4byte	.LFE10
 3743 0013 0400     		.2byte	0x4
 3744 0015 F3       		.byte	0xf3
 3745 0016 01       		.uleb128 0x1
 3746 0017 50       		.byte	0x50
 3747 0018 9F       		.byte	0x9f
 3748 0019 00000000 		.4byte	0
 3749 001d 00000000 		.4byte	0
 3750              	.LLST1:
ARM GAS  /tmp/ccfVcRHv.s 			page 67


 3751 0021 00000000 		.4byte	.LVL12
 3752 0025 04000000 		.4byte	.LVL13
 3753 0029 0100     		.2byte	0x1
 3754 002b 50       		.byte	0x50
 3755 002c 04000000 		.4byte	.LVL13
 3756 0030 08000000 		.4byte	.LFE9
 3757 0034 0400     		.2byte	0x4
 3758 0036 F3       		.byte	0xf3
 3759 0037 01       		.uleb128 0x1
 3760 0038 50       		.byte	0x50
 3761 0039 9F       		.byte	0x9f
 3762 003a 00000000 		.4byte	0
 3763 003e 00000000 		.4byte	0
 3764              	.LLST2:
 3765 0042 00000000 		.4byte	.LVL15
 3766 0046 04000000 		.4byte	.LVL16
 3767 004a 0100     		.2byte	0x1
 3768 004c 50       		.byte	0x50
 3769 004d 04000000 		.4byte	.LVL16
 3770 0051 08000000 		.4byte	.LFE8
 3771 0055 0400     		.2byte	0x4
 3772 0057 F3       		.byte	0xf3
 3773 0058 01       		.uleb128 0x1
 3774 0059 50       		.byte	0x50
 3775 005a 9F       		.byte	0x9f
 3776 005b 00000000 		.4byte	0
 3777 005f 00000000 		.4byte	0
 3778              	.LLST3:
 3779 0063 18000000 		.4byte	.LVL22
 3780 0067 24000000 		.4byte	.LVL23
 3781 006b 0100     		.2byte	0x1
 3782 006d 50       		.byte	0x50
 3783 006e 44000000 		.4byte	.LVL25
 3784 0072 50000000 		.4byte	.LVL26
 3785 0076 0100     		.2byte	0x1
 3786 0078 50       		.byte	0x50
 3787 0079 68000000 		.4byte	.LVL28
 3788 007d 70000000 		.4byte	.LVL29
 3789 0081 0100     		.2byte	0x1
 3790 0083 50       		.byte	0x50
 3791 0084 D0000000 		.4byte	.LVL36
 3792 0088 D8000000 		.4byte	.LVL37
 3793 008c 0100     		.2byte	0x1
 3794 008e 50       		.byte	0x50
 3795 008f D8000000 		.4byte	.LVL37
 3796 0093 08010000 		.4byte	.LVL40
 3797 0097 0100     		.2byte	0x1
 3798 0099 59       		.byte	0x59
 3799 009a 08010000 		.4byte	.LVL40
 3800 009e 10010000 		.4byte	.LVL41
 3801 00a2 0100     		.2byte	0x1
 3802 00a4 50       		.byte	0x50
 3803 00a5 34010000 		.4byte	.LVL45
 3804 00a9 40010000 		.4byte	.LVL46
 3805 00ad 0100     		.2byte	0x1
 3806 00af 50       		.byte	0x50
 3807 00b0 58010000 		.4byte	.LVL48
ARM GAS  /tmp/ccfVcRHv.s 			page 68


 3808 00b4 60010000 		.4byte	.LVL49
 3809 00b8 0100     		.2byte	0x1
 3810 00ba 50       		.byte	0x50
 3811 00bb AC010000 		.4byte	.LVL56
 3812 00bf B4010000 		.4byte	.LVL57
 3813 00c3 0100     		.2byte	0x1
 3814 00c5 50       		.byte	0x50
 3815 00c6 B4010000 		.4byte	.LVL57
 3816 00ca E4010000 		.4byte	.LVL60
 3817 00ce 0100     		.2byte	0x1
 3818 00d0 59       		.byte	0x59
 3819 00d1 E4010000 		.4byte	.LVL60
 3820 00d5 EC010000 		.4byte	.LVL61
 3821 00d9 0100     		.2byte	0x1
 3822 00db 50       		.byte	0x50
 3823 00dc 88020000 		.4byte	.LVL73
 3824 00e0 90020000 		.4byte	.LVL74
 3825 00e4 0100     		.2byte	0x1
 3826 00e6 50       		.byte	0x50
 3827 00e7 00000000 		.4byte	0
 3828 00eb 00000000 		.4byte	0
 3829              	.LLST4:
 3830 00ef B4000000 		.4byte	.LVL32
 3831 00f3 CC000000 		.4byte	.LVL35
 3832 00f7 0300     		.2byte	0x3
 3833 00f9 74       		.byte	0x74
 3834 00fa 32       		.sleb128 50
 3835 00fb 9F       		.byte	0x9f
 3836 00fc CC000000 		.4byte	.LVL35
 3837 0100 DB000000 		.4byte	.LVL38-1
 3838 0104 0100     		.2byte	0x1
 3839 0106 51       		.byte	0x51
 3840 0107 DB000000 		.4byte	.LVL38-1
 3841 010b A8010000 		.4byte	.LVL55
 3842 010f 0300     		.2byte	0x3
 3843 0111 74       		.byte	0x74
 3844 0112 32       		.sleb128 50
 3845 0113 9F       		.byte	0x9f
 3846 0114 A8010000 		.4byte	.LVL55
 3847 0118 B7010000 		.4byte	.LVL58-1
 3848 011c 0100     		.2byte	0x1
 3849 011e 51       		.byte	0x51
 3850 011f B7010000 		.4byte	.LVL58-1
 3851 0123 04020000 		.4byte	.LVL63
 3852 0127 0300     		.2byte	0x3
 3853 0129 74       		.byte	0x74
 3854 012a 32       		.sleb128 50
 3855 012b 9F       		.byte	0x9f
 3856 012c 58020000 		.4byte	.LVL68
 3857 0130 6C020000 		.4byte	.LVL71
 3858 0134 0300     		.2byte	0x3
 3859 0136 76       		.byte	0x76
 3860 0137 32       		.sleb128 50
 3861 0138 9F       		.byte	0x9f
 3862 0139 6C020000 		.4byte	.LVL71
 3863 013d 77020000 		.4byte	.LVL72-1
 3864 0141 0100     		.2byte	0x1
ARM GAS  /tmp/ccfVcRHv.s 			page 69


 3865 0143 51       		.byte	0x51
 3866 0144 77020000 		.4byte	.LVL72-1
 3867 0148 1C030000 		.4byte	.LFE15
 3868 014c 0300     		.2byte	0x3
 3869 014e 76       		.byte	0x76
 3870 014f 32       		.sleb128 50
 3871 0150 9F       		.byte	0x9f
 3872 0151 00000000 		.4byte	0
 3873 0155 00000000 		.4byte	0
 3874              	.LLST5:
 3875 0159 00000000 		.4byte	.LVL81
 3876 015d 0C000000 		.4byte	.LVL82
 3877 0161 0100     		.2byte	0x1
 3878 0163 50       		.byte	0x50
 3879 0164 0C000000 		.4byte	.LVL82
 3880 0168 34000000 		.4byte	.LFE14
 3881 016c 0400     		.2byte	0x4
 3882 016e F3       		.byte	0xf3
 3883 016f 01       		.uleb128 0x1
 3884 0170 50       		.byte	0x50
 3885 0171 9F       		.byte	0x9f
 3886 0172 00000000 		.4byte	0
 3887 0176 00000000 		.4byte	0
 3888              	.LLST6:
 3889 017a 00000000 		.4byte	.LVL86
 3890 017e 0C000000 		.4byte	.LVL87
 3891 0182 0100     		.2byte	0x1
 3892 0184 50       		.byte	0x50
 3893 0185 0C000000 		.4byte	.LVL87
 3894 0189 24000000 		.4byte	.LFE13
 3895 018d 0100     		.2byte	0x1
 3896 018f 54       		.byte	0x54
 3897 0190 00000000 		.4byte	0
 3898 0194 00000000 		.4byte	0
 3899              	.LLST7:
 3900 0198 10000000 		.4byte	.LVL90
 3901 019c 18000000 		.4byte	.LVL91
 3902 01a0 0100     		.2byte	0x1
 3903 01a2 50       		.byte	0x50
 3904 01a3 30000000 		.4byte	.LVL93
 3905 01a7 38000000 		.4byte	.LVL94
 3906 01ab 0100     		.2byte	0x1
 3907 01ad 50       		.byte	0x50
 3908 01ae 50000000 		.4byte	.LVL96
 3909 01b2 58000000 		.4byte	.LVL97
 3910 01b6 0100     		.2byte	0x1
 3911 01b8 50       		.byte	0x50
 3912 01b9 00000000 		.4byte	0
 3913 01bd 00000000 		.4byte	0
 3914              	.LLST8:
 3915 01c1 74000000 		.4byte	.LVL99
 3916 01c5 7C000000 		.4byte	.LVL100
 3917 01c9 0100     		.2byte	0x1
 3918 01cb 50       		.byte	0x50
 3919 01cc 98000000 		.4byte	.LVL102
 3920 01d0 A0000000 		.4byte	.LVL103
 3921 01d4 0100     		.2byte	0x1
ARM GAS  /tmp/ccfVcRHv.s 			page 70


 3922 01d6 50       		.byte	0x50
 3923 01d7 BC000000 		.4byte	.LVL105
 3924 01db C8000000 		.4byte	.LVL106
 3925 01df 0100     		.2byte	0x1
 3926 01e1 50       		.byte	0x50
 3927 01e2 00000000 		.4byte	0
 3928 01e6 00000000 		.4byte	0
 3929              		.section	.debug_aranges,"",%progbits
 3930 0000 6C000000 		.4byte	0x6c
 3931 0004 0200     		.2byte	0x2
 3932 0006 00000000 		.4byte	.Ldebug_info0
 3933 000a 04       		.byte	0x4
 3934 000b 00       		.byte	0
 3935 000c 0000     		.2byte	0
 3936 000e 0000     		.2byte	0
 3937 0010 00000000 		.4byte	.LFB11
 3938 0014 D0000000 		.4byte	.LFE11-.LFB11
 3939 0018 00000000 		.4byte	.LFB10
 3940 001c 08000000 		.4byte	.LFE10-.LFB10
 3941 0020 00000000 		.4byte	.LFB9
 3942 0024 08000000 		.4byte	.LFE9-.LFB9
 3943 0028 00000000 		.4byte	.LFB8
 3944 002c 08000000 		.4byte	.LFE8-.LFB8
 3945 0030 00000000 		.4byte	.LFB7
 3946 0034 08000000 		.4byte	.LFE7-.LFB7
 3947 0038 00000000 		.4byte	.LFB12
 3948 003c 08000000 		.4byte	.LFE12-.LFB12
 3949 0040 00000000 		.4byte	.LFB16
 3950 0044 08000000 		.4byte	.LFE16-.LFB16
 3951 0048 00000000 		.4byte	.LFB15
 3952 004c 1C030000 		.4byte	.LFE15-.LFB15
 3953 0050 00000000 		.4byte	.LFB14
 3954 0054 34000000 		.4byte	.LFE14-.LFB14
 3955 0058 00000000 		.4byte	.LFB13
 3956 005c 24000000 		.4byte	.LFE13-.LFB13
 3957 0060 00000000 		.4byte	.LFB17
 3958 0064 D0000000 		.4byte	.LFE17-.LFB17
 3959 0068 00000000 		.4byte	0
 3960 006c 00000000 		.4byte	0
 3961              		.section	.debug_ranges,"",%progbits
 3962              	.Ldebug_ranges0:
 3963 0000 68000000 		.4byte	.LBB5
 3964 0004 BC000000 		.4byte	.LBE5
 3965 0008 C0000000 		.4byte	.LBB6
 3966 000c D0000000 		.4byte	.LBE6
 3967 0010 00000000 		.4byte	0
 3968 0014 00000000 		.4byte	0
 3969 0018 00000000 		.4byte	.LFB11
 3970 001c D0000000 		.4byte	.LFE11
 3971 0020 00000000 		.4byte	.LFB10
 3972 0024 08000000 		.4byte	.LFE10
 3973 0028 00000000 		.4byte	.LFB9
 3974 002c 08000000 		.4byte	.LFE9
 3975 0030 00000000 		.4byte	.LFB8
 3976 0034 08000000 		.4byte	.LFE8
 3977 0038 00000000 		.4byte	.LFB7
 3978 003c 08000000 		.4byte	.LFE7
ARM GAS  /tmp/ccfVcRHv.s 			page 71


 3979 0040 00000000 		.4byte	.LFB12
 3980 0044 08000000 		.4byte	.LFE12
 3981 0048 00000000 		.4byte	.LFB16
 3982 004c 08000000 		.4byte	.LFE16
 3983 0050 00000000 		.4byte	.LFB15
 3984 0054 1C030000 		.4byte	.LFE15
 3985 0058 00000000 		.4byte	.LFB14
 3986 005c 34000000 		.4byte	.LFE14
 3987 0060 00000000 		.4byte	.LFB13
 3988 0064 24000000 		.4byte	.LFE13
 3989 0068 00000000 		.4byte	.LFB17
 3990 006c D0000000 		.4byte	.LFE17
 3991 0070 00000000 		.4byte	0
 3992 0074 00000000 		.4byte	0
 3993              		.section	.debug_line,"",%progbits
 3994              	.Ldebug_line0:
 3995 0000 7D020000 		.section	.debug_str,"MS",%progbits,1
 3995      02005201 
 3995      00000201 
 3995      FB0E0D00 
 3995      01010101 
 3996              	.LASF84:
 3997 0000 7466756E 		.ascii	"tfunc_t\000"
 3997      635F7400 
 3998              	.LASF93:
 3999 0008 65767432 		.ascii	"evt2_setup\000"
 3999      5F736574 
 3999      757000
 4000              	.LASF42:
 4001 0013 705F6D73 		.ascii	"p_msg\000"
 4001      6700
 4002              	.LASF2:
 4003 0019 73697A65 		.ascii	"size_t\000"
 4003      5F7400
 4004              	.LASF79:
 4005 0020 7264796D 		.ascii	"rdymsg\000"
 4005      736700
 4006              	.LASF3:
 4007 0027 5F5F7569 		.ascii	"__uint8_t\000"
 4007      6E74385F 
 4007      7400
 4008              	.LASF100:
 4009 0031 76746C69 		.ascii	"vtlist\000"
 4009      737400
 4010              	.LASF122:
 4011 0038 63684576 		.ascii	"chEvtSignal\000"
 4011      74536967 
 4011      6E616C00 
 4012              	.LASF12:
 4013 0044 6C6F6E67 		.ascii	"long long unsigned int\000"
 4013      206C6F6E 
 4013      6720756E 
 4013      7369676E 
 4013      65642069 
 4014              	.LASF114:
 4015 005b 63684576 		.ascii	"chEvtAddEvents\000"
 4015      74416464 
ARM GAS  /tmp/ccfVcRHv.s 			page 72


 4015      4576656E 
 4015      747300
 4016              	.LASF80:
 4017 006a 65786974 		.ascii	"exitcode\000"
 4017      636F6465 
 4017      00
 4018              	.LASF124:
 4019 0073 63684576 		.ascii	"chEvtWaitAnyTimeout\000"
 4019      74576169 
 4019      74416E79 
 4019      54696D65 
 4019      6F757400 
 4020              	.LASF30:
 4021 0087 705F7072 		.ascii	"p_prio\000"
 4021      696F00
 4022              	.LASF95:
 4023 008e 65767432 		.ascii	"evt2_execute\000"
 4023      5F657865 
 4023      63757465 
 4023      00
 4024              	.LASF11:
 4025 009b 6C6F6E67 		.ascii	"long long int\000"
 4025      206C6F6E 
 4025      6720696E 
 4025      7400
 4026              	.LASF1:
 4027 00a9 7369676E 		.ascii	"signed char\000"
 4027      65642063 
 4027      68617200 
 4028              	.LASF125:
 4029 00b5 63684576 		.ascii	"chEvtWaitAllTimeout\000"
 4029      74576169 
 4029      74416C6C 
 4029      54696D65 
 4029      6F757400 
 4030              	.LASF16:
 4031 00c9 626F6F6C 		.ascii	"bool_t\000"
 4031      5F7400
 4032              	.LASF68:
 4033 00d0 6D5F7175 		.ascii	"m_queue\000"
 4033      65756500 
 4034              	.LASF112:
 4035 00d8 74657374 		.ascii	"test_emit_token\000"
 4035      5F656D69 
 4035      745F746F 
 4035      6B656E00 
 4036              	.LASF20:
 4037 00e8 74736C69 		.ascii	"tslices_t\000"
 4037      6365735F 
 4037      7400
 4038              	.LASF8:
 4039 00f2 6C6F6E67 		.ascii	"long int\000"
 4039      20696E74 
 4039      00
 4040              	.LASF96:
 4041 00fb 74617267 		.ascii	"target_time\000"
 4041      65745F74 
ARM GAS  /tmp/ccfVcRHv.s 			page 73


 4041      696D6500 
 4042              	.LASF18:
 4043 0107 74737461 		.ascii	"tstate_t\000"
 4043      74655F74 
 4043      00
 4044              	.LASF117:
 4045 0110 5F746573 		.ascii	"_test_assert_time_window\000"
 4045      745F6173 
 4045      73657274 
 4045      5F74696D 
 4045      655F7769 
 4046              	.LASF104:
 4047 0129 74657374 		.ascii	"testevt2\000"
 4047      65767432 
 4047      00
 4048              	.LASF118:
 4049 0132 63684576 		.ascii	"chEvtWaitAny\000"
 4049      74576169 
 4049      74416E79 
 4049      00
 4050              	.LASF105:
 4051 013f 74657374 		.ascii	"testevt3\000"
 4051      65767433 
 4051      00
 4052              	.LASF32:
 4053 0148 705F6E65 		.ascii	"p_newer\000"
 4053      77657200 
 4054              	.LASF9:
 4055 0150 5F5F7569 		.ascii	"__uint32_t\000"
 4055      6E743332 
 4055      5F7400
 4056              	.LASF48:
 4057 015b 72656761 		.ascii	"regarm_t\000"
 4057      726D5F74 
 4057      00
 4058              	.LASF54:
 4059 0164 76745F70 		.ascii	"vt_prev\000"
 4059      72657600 
 4060              	.LASF120:
 4061 016c 63684576 		.ascii	"chEvtBroadcastFlags\000"
 4061      7442726F 
 4061      61646361 
 4061      7374466C 
 4061      61677300 
 4062              	.LASF23:
 4063 0180 6576656E 		.ascii	"eventid_t\000"
 4063      7469645F 
 4063      7400
 4064              	.LASF76:
 4065 018a 4576656E 		.ascii	"EventSource\000"
 4065      74536F75 
 4065      72636500 
 4066              	.LASF78:
 4067 0196 65766861 		.ascii	"evhandler_t\000"
 4067      6E646C65 
 4067      725F7400 
 4068              	.LASF0:
ARM GAS  /tmp/ccfVcRHv.s 			page 74


 4069 01a2 756E7369 		.ascii	"unsigned int\000"
 4069      676E6564 
 4069      20696E74 
 4069      00
 4070              	.LASF53:
 4071 01af 76745F6E 		.ascii	"vt_next\000"
 4071      65787400 
 4072              	.LASF10:
 4073 01b7 6C6F6E67 		.ascii	"long unsigned int\000"
 4073      20756E73 
 4073      69676E65 
 4073      6420696E 
 4073      7400
 4074              	.LASF113:
 4075 01c9 63684576 		.ascii	"chEvtGetAndClearEvents\000"
 4075      74476574 
 4075      416E6443 
 4075      6C656172 
 4075      4576656E 
 4076              	.LASF89:
 4077 01e0 74656172 		.ascii	"teardown\000"
 4077      646F776E 
 4077      00
 4078              	.LASF106:
 4079 01e9 70617474 		.ascii	"patternevt\000"
 4079      65726E65 
 4079      767400
 4080              	.LASF51:
 4081 01f4 76746675 		.ascii	"vtfunc_t\000"
 4081      6E635F74 
 4081      00
 4082              	.LASF87:
 4083 01fd 6E616D65 		.ascii	"name\000"
 4083      00
 4084              	.LASF50:
 4085 0202 636F6E74 		.ascii	"context\000"
 4085      65787400 
 4086              	.LASF6:
 4087 020a 73686F72 		.ascii	"short unsigned int\000"
 4087      7420756E 
 4087      7369676E 
 4087      65642069 
 4087      6E7400
 4088              	.LASF107:
 4089 021d 63684576 		.ascii	"chEvtRegisterMask\000"
 4089      74526567 
 4089      69737465 
 4089      724D6173 
 4089      6B00
 4090              	.LASF22:
 4091 022f 6D73675F 		.ascii	"msg_t\000"
 4091      7400
 4092              	.LASF63:
 4093 0235 725F6E65 		.ascii	"r_newer\000"
 4093      77657200 
 4094              	.LASF72:
 4095 023d 656C5F6E 		.ascii	"el_next\000"
ARM GAS  /tmp/ccfVcRHv.s 			page 75


 4095      65787400 
 4096              	.LASF108:
 4097 0245 63684576 		.ascii	"chEvtUnregister\000"
 4097      74556E72 
 4097      65676973 
 4097      74657200 
 4098              	.LASF17:
 4099 0255 746D6F64 		.ascii	"tmode_t\000"
 4099      655F7400 
 4100              	.LASF47:
 4101 025d 54687265 		.ascii	"ThreadsList\000"
 4101      6164734C 
 4101      69737400 
 4102              	.LASF24:
 4103 0269 6576656E 		.ascii	"eventmask_t\000"
 4103      746D6173 
 4103      6B5F7400 
 4104              	.LASF67:
 4105 0275 4D757465 		.ascii	"Mutex\000"
 4105      7800
 4106              	.LASF116:
 4107 027b 63685468 		.ascii	"chThdCreateStatic\000"
 4107      64437265 
 4107      61746553 
 4107      74617469 
 4107      6300
 4108              	.LASF55:
 4109 028d 76745F74 		.ascii	"vt_time\000"
 4109      696D6500 
 4110              	.LASF92:
 4111 0295 65767431 		.ascii	"evt1_setup\000"
 4111      5F736574 
 4111      757000
 4112              	.LASF85:
 4113 02a0 73697A65 		.ascii	"sizetype\000"
 4113      74797065 
 4113      00
 4114              	.LASF56:
 4115 02a9 76745F66 		.ascii	"vt_func\000"
 4115      756E6300 
 4116              	.LASF109:
 4117 02b1 63684576 		.ascii	"chEvtDispatch\000"
 4117      74446973 
 4117      70617463 
 4117      6800
 4118              	.LASF94:
 4119 02bf 65767433 		.ascii	"evt3_setup\000"
 4119      5F736574 
 4119      757000
 4120              	.LASF131:
 4121 02ca 74657374 		.ascii	"test_wait_threads\000"
 4121      5F776169 
 4121      745F7468 
 4121      72656164 
 4121      7300
 4122              	.LASF33:
 4123 02dc 705F6F6C 		.ascii	"p_older\000"
ARM GAS  /tmp/ccfVcRHv.s 			page 76


 4123      64657200 
 4124              	.LASF98:
 4125 02e4 74687265 		.ascii	"thread1\000"
 4125      61643100 
 4126              	.LASF97:
 4127 02ec 74687265 		.ascii	"thread2\000"
 4127      61643200 
 4128              	.LASF62:
 4129 02f4 725F6374 		.ascii	"r_ctx\000"
 4129      7800
 4130              	.LASF46:
 4131 02fa 54687265 		.ascii	"ThreadsQueue\000"
 4131      61647351 
 4131      75657565 
 4131      00
 4132              	.LASF88:
 4133 0307 73657475 		.ascii	"setup\000"
 4133      7000
 4134              	.LASF111:
 4135 030d 5F746573 		.ascii	"_test_assert_sequence\000"
 4135      745F6173 
 4135      73657274 
 4135      5F736571 
 4135      75656E63 
 4136              	.LASF119:
 4137 0323 63684576 		.ascii	"chEvtWaitAll\000"
 4137      74576169 
 4137      74416C6C 
 4137      00
 4138              	.LASF65:
 4139 0330 725F6375 		.ascii	"r_current\000"
 4139      7272656E 
 4139      7400
 4140              	.LASF64:
 4141 033a 725F6F6C 		.ascii	"r_older\000"
 4141      64657200 
 4142              	.LASF74:
 4143 0342 656C5F6D 		.ascii	"el_mask\000"
 4143      61736B00 
 4144              	.LASF19:
 4145 034a 74726566 		.ascii	"trefs_t\000"
 4145      735F7400 
 4146              	.LASF29:
 4147 0352 705F7072 		.ascii	"p_prev\000"
 4147      657600
 4148              	.LASF90:
 4149 0359 65786563 		.ascii	"execute\000"
 4149      75746500 
 4150              	.LASF21:
 4151 0361 74707269 		.ascii	"tprio_t\000"
 4151      6F5F7400 
 4152              	.LASF14:
 4153 0369 696E7433 		.ascii	"int32_t\000"
 4153      325F7400 
 4154              	.LASF4:
 4155 0371 756E7369 		.ascii	"unsigned char\000"
 4155      676E6564 
ARM GAS  /tmp/ccfVcRHv.s 			page 77


 4155      20636861 
 4155      7200
 4156              	.LASF115:
 4157 037f 63684576 		.ascii	"chEvtWaitOne\000"
 4157      74576169 
 4157      744F6E65 
 4157      00
 4158              	.LASF73:
 4159 038c 656C5F6C 		.ascii	"el_listener\000"
 4159      69737465 
 4159      6E657200 
 4160              	.LASF129:
 4161 0398 65767433 		.ascii	"evt3_execute\000"
 4161      5F657865 
 4161      63757465 
 4161      00
 4162              	.LASF75:
 4163 03a5 656C5F66 		.ascii	"el_flags\000"
 4163      6C616773 
 4163      00
 4164              	.LASF44:
 4165 03ae 705F6D74 		.ascii	"p_mtxlist\000"
 4165      786C6973 
 4165      7400
 4166              	.LASF5:
 4167 03b8 73686F72 		.ascii	"short int\000"
 4167      7420696E 
 4167      7400
 4168              	.LASF35:
 4169 03c2 705F7374 		.ascii	"p_state\000"
 4169      61746500 
 4170              	.LASF38:
 4171 03ca 705F7072 		.ascii	"p_preempt\000"
 4171      65656D70 
 4171      7400
 4172              	.LASF102:
 4173 03d4 74687265 		.ascii	"threads\000"
 4173      61647300 
 4174              	.LASF61:
 4175 03dc 725F7072 		.ascii	"r_prio\000"
 4175      696F00
 4176              	.LASF82:
 4177 03e3 65776D61 		.ascii	"ewmask\000"
 4177      736B00
 4178              	.LASF28:
 4179 03ea 705F6E65 		.ascii	"p_next\000"
 4179      787400
 4180              	.LASF36:
 4181 03f1 705F666C 		.ascii	"p_flags\000"
 4181      61677300 
 4182              	.LASF27:
 4183 03f9 54687265 		.ascii	"Thread\000"
 4183      616400
 4184              	.LASF86:
 4185 0400 74657374 		.ascii	"testcase\000"
 4185      63617365 
 4185      00
ARM GAS  /tmp/ccfVcRHv.s 			page 78


 4186              	.LASF43:
 4187 0409 705F6570 		.ascii	"p_epending\000"
 4187      656E6469 
 4187      6E6700
 4188              	.LASF127:
 4189 0414 2E2E2F2E 		.ascii	"../../test/testevt.c\000"
 4189      2E2F7465 
 4189      73742F74 
 4189      65737465 
 4189      76742E63 
 4190              	.LASF103:
 4191 0429 74657374 		.ascii	"testevt1\000"
 4191      65767431 
 4191      00
 4192              	.LASF99:
 4193 0432 6576686E 		.ascii	"evhndl\000"
 4193      646C00
 4194              	.LASF15:
 4195 0439 75696E74 		.ascii	"uint32_t\000"
 4195      33325F74 
 4195      00
 4196              	.LASF60:
 4197 0442 725F7175 		.ascii	"r_queue\000"
 4197      65756500 
 4198              	.LASF52:
 4199 044a 56697274 		.ascii	"VirtualTimer\000"
 4199      75616C54 
 4199      696D6572 
 4199      00
 4200              	.LASF83:
 4201 0457 63686172 		.ascii	"char\000"
 4201      00
 4202              	.LASF70:
 4203 045c 6D5F6E65 		.ascii	"m_next\000"
 4203      787400
 4204              	.LASF26:
 4205 0463 73797374 		.ascii	"systime_t\000"
 4205      696D655F 
 4205      7400
 4206              	.LASF45:
 4207 046d 705F7265 		.ascii	"p_realprio\000"
 4207      616C7072 
 4207      696F00
 4208              	.LASF7:
 4209 0478 5F5F696E 		.ascii	"__int32_t\000"
 4209      7433325F 
 4209      7400
 4210              	.LASF39:
 4211 0482 705F7469 		.ascii	"p_time\000"
 4211      6D6500
 4212              	.LASF49:
 4213 0489 696E7463 		.ascii	"intctx\000"
 4213      747800
 4214              	.LASF41:
 4215 0490 705F6D73 		.ascii	"p_msgqueue\000"
 4215      67717565 
 4215      756500
ARM GAS  /tmp/ccfVcRHv.s 			page 79


 4216              	.LASF57:
 4217 049b 76745F70 		.ascii	"vt_par\000"
 4217      617200
 4218              	.LASF128:
 4219 04a2 2F686F6D 		.ascii	"/home/hunter/development/chibi/ChibiOS-RPi/demos/AR"
 4219      652F6875 
 4219      6E746572 
 4219      2F646576 
 4219      656C6F70 
 4220 04d5 4D31312D 		.ascii	"M11-BCM2835-GCC\000"
 4220      42434D32 
 4220      3833352D 
 4220      47434300 
 4221              	.LASF25:
 4222 04e5 666C6167 		.ascii	"flagsmask_t\000"
 4222      736D6173 
 4222      6B5F7400 
 4223              	.LASF121:
 4224 04f1 63685468 		.ascii	"chThdSleep\000"
 4224      64536C65 
 4224      657000
 4225              	.LASF37:
 4226 04fc 705F7265 		.ascii	"p_refs\000"
 4226      667300
 4227              	.LASF66:
 4228 0503 52656164 		.ascii	"ReadyList\000"
 4228      794C6973 
 4228      7400
 4229              	.LASF101:
 4230 050d 726C6973 		.ascii	"rlist\000"
 4230      7400
 4231              	.LASF13:
 4232 0513 75696E74 		.ascii	"uint8_t\000"
 4232      385F7400 
 4233              	.LASF71:
 4234 051b 4576656E 		.ascii	"EventListener\000"
 4234      744C6973 
 4234      74656E65 
 4234      7200
 4235              	.LASF123:
 4236 0529 63684576 		.ascii	"chEvtWaitOneTimeout\000"
 4236      74576169 
 4236      744F6E65 
 4236      54696D65 
 4236      6F757400 
 4237              	.LASF81:
 4238 053d 77746F62 		.ascii	"wtobjp\000"
 4238      6A7000
 4239              	.LASF34:
 4240 0544 705F6E61 		.ascii	"p_name\000"
 4240      6D6500
 4241              	.LASF126:
 4242 054b 474E5520 		.ascii	"GNU C 4.9.3 20150529 (prerelease) -mcpu=arm1176jz-s"
 4242      4320342E 
 4242      392E3320 
 4242      32303135 
 4242      30353239 
ARM GAS  /tmp/ccfVcRHv.s 			page 80


 4243 057e 202D6D6E 		.ascii	" -mno-thumb-interwork -ggdb -O2 -fomit-frame-pointe"
 4243      6F2D7468 
 4243      756D622D 
 4243      696E7465 
 4243      72776F72 
 4244 05b1 72202D66 		.ascii	"r -ffunction-sections -fdata-sections\000"
 4244      66756E63 
 4244      74696F6E 
 4244      2D736563 
 4244      74696F6E 
 4245              	.LASF110:
 4246 05d7 5F746573 		.ascii	"_test_assert\000"
 4246      745F6173 
 4246      73657274 
 4246      00
 4247              	.LASF58:
 4248 05e4 76745F73 		.ascii	"vt_systime\000"
 4248      79737469 
 4248      6D6500
 4249              	.LASF77:
 4250 05ef 65735F6E 		.ascii	"es_next\000"
 4250      65787400 
 4251              	.LASF59:
 4252 05f7 56544C69 		.ascii	"VTList\000"
 4252      737400
 4253              	.LASF69:
 4254 05fe 6D5F6F77 		.ascii	"m_owner\000"
 4254      6E657200 
 4255              	.LASF130:
 4256 0606 74657374 		.ascii	"test_wait_tick\000"
 4256      5F776169 
 4256      745F7469 
 4256      636B00
 4257              	.LASF91:
 4258 0615 65767431 		.ascii	"evt1_execute\000"
 4258      5F657865 
 4258      63757465 
 4258      00
 4259              	.LASF31:
 4260 0622 705F6374 		.ascii	"p_ctx\000"
 4260      7800
 4261              	.LASF40:
 4262 0628 705F7761 		.ascii	"p_waiting\000"
 4262      6974696E 
 4262      6700
 4263              		.ident	"GCC: (15:4.9.3+svn231177-1) 4.9.3 20150529 (prerelease)"
ARM GAS  /tmp/ccfVcRHv.s 			page 81


DEFINED SYMBOLS
                            *ABS*:0000000000000000 testevt.c
     /tmp/ccfVcRHv.s:17     .text.evt1_execute:0000000000000000 $a
     /tmp/ccfVcRHv.s:19     .text.evt1_execute:0000000000000000 evt1_execute
     /tmp/ccfVcRHv.s:111    .text.evt1_execute:00000000000000c4 $d
     /tmp/ccfVcRHv.s:118    .text.h3:0000000000000000 $a
     /tmp/ccfVcRHv.s:120    .text.h3:0000000000000000 h3
     /tmp/ccfVcRHv.s:137    .text.h2:0000000000000000 $a
     /tmp/ccfVcRHv.s:139    .text.h2:0000000000000000 h2
     /tmp/ccfVcRHv.s:156    .text.h1:0000000000000000 $a
     /tmp/ccfVcRHv.s:158    .text.h1:0000000000000000 h1
     /tmp/ccfVcRHv.s:175    .text.evt1_setup:0000000000000000 $a
     /tmp/ccfVcRHv.s:177    .text.evt1_setup:0000000000000000 evt1_setup
     /tmp/ccfVcRHv.s:192    .text.evt2_setup:0000000000000000 $a
     /tmp/ccfVcRHv.s:194    .text.evt2_setup:0000000000000000 evt2_setup
     /tmp/ccfVcRHv.s:209    .text.evt3_setup:0000000000000000 $a
     /tmp/ccfVcRHv.s:211    .text.evt3_setup:0000000000000000 evt3_setup
     /tmp/ccfVcRHv.s:226    .text.evt2_execute:0000000000000000 $a
     /tmp/ccfVcRHv.s:228    .text.evt2_execute:0000000000000000 evt2_execute
     /tmp/ccfVcRHv.s:564    .text.evt2_execute:00000000000002f8 $d
     /tmp/ccfVcRHv.s:619    .text.thread1:0000000000000000 thread1
     /tmp/ccfVcRHv.s:579    .text.thread2:0000000000000000 thread2
     /tmp/ccfVcRHv.s:577    .text.thread2:0000000000000000 $a
     /tmp/ccfVcRHv.s:611    .text.thread2:000000000000002c $d
     /tmp/ccfVcRHv.s:617    .text.thread1:0000000000000000 $a
     /tmp/ccfVcRHv.s:649    .text.evt3_execute:0000000000000000 $a
     /tmp/ccfVcRHv.s:651    .text.evt3_execute:0000000000000000 evt3_execute
     /tmp/ccfVcRHv.s:765    .rodata.patternevt:0000000000000000 patternevt
     /tmp/ccfVcRHv.s:816    .rodata.testevt3:0000000000000000 testevt3
     /tmp/ccfVcRHv.s:774    .rodata.testevt2:0000000000000000 testevt2
     /tmp/ccfVcRHv.s:798    .rodata.testevt1:0000000000000000 testevt1
     /tmp/ccfVcRHv.s:762    .rodata.patternevt:0000000000000000 $d
     /tmp/ccfVcRHv.s:771    .rodata.testevt2:0000000000000000 $d
     /tmp/ccfVcRHv.s:780    .rodata.str1.4:0000000000000000 $d
     /tmp/ccfVcRHv.s:795    .rodata.testevt1:0000000000000000 $d
     /tmp/ccfVcRHv.s:804    .rodata.evhndl:0000000000000000 $d
     /tmp/ccfVcRHv.s:808    .rodata.evhndl:0000000000000000 evhndl
     /tmp/ccfVcRHv.s:813    .rodata.testevt3:0000000000000000 $d
     /tmp/ccfVcRHv.s:822    .data.es1:0000000000000000 $d
     /tmp/ccfVcRHv.s:826    .data.es1:0000000000000000 es1
     /tmp/ccfVcRHv.s:829    .data.es2:0000000000000000 $d
     /tmp/ccfVcRHv.s:833    .data.es2:0000000000000000 es2
                     .debug_frame:0000000000000010 $d

UNDEFINED SYMBOLS
chEvtRegisterMask
_test_assert
chEvtUnregister
chEvtDispatch
_test_assert_sequence
test_emit_token
chEvtGetAndClearEvents
chEvtAddEvents
chEvtWaitOne
test_wait_tick
chThdCreateStatic
_test_assert_time_window
ARM GAS  /tmp/ccfVcRHv.s 			page 82


test_wait_threads
chEvtWaitAny
chEvtWaitAll
rlist
wa
vtlist
threads
chEvtBroadcastFlags
chThdSleep
chEvtSignal
chEvtWaitOneTimeout
chEvtWaitAnyTimeout
chEvtWaitAllTimeout
