ARM GAS  /tmp/cc7R3euN.s 			page 1


   1              		.cpu arm1176jz-s
   2              		.fpu softvfp
   3              		.eabi_attribute 20, 1
   4              		.eabi_attribute 21, 1
   5              		.eabi_attribute 23, 3
   6              		.eabi_attribute 24, 1
   7              		.eabi_attribute 25, 1
   8              		.eabi_attribute 26, 1
   9              		.eabi_attribute 30, 2
  10              		.eabi_attribute 34, 1
  11              		.eabi_attribute 18, 4
  12              		.file	"testqueues.c"
  13              		.text
  14              	.Ltext0:
  15              		.cfi_sections	.debug_frame
  16              		.section	.text.notify,"ax",%progbits
  17              		.align	2
  18              		.type	notify, %function
  19              	notify:
  20              	.LFB7:
  21              		.file 1 "../../test/testqueues.c"
  22              		.loc 1 61 0
  23              		.cfi_startproc
  24              		@ args = 0, pretend = 0, frame = 0
  25              		@ frame_needed = 0, uses_anonymous_args = 0
  26              		@ link register save eliminated.
  27              	.LVL0:
  28 0000 1EFF2FE1 		bx	lr
  29              		.cfi_endproc
  30              	.LFE7:
  31              		.size	notify, .-notify
  32              		.section	.text.thread1,"ax",%progbits
  33              		.align	2
  34              		.type	thread1, %function
  35              	thread1:
  36              	.LFB9:
  37              		.loc 1 87 0
  38              		.cfi_startproc
  39              		@ args = 0, pretend = 0, frame = 0
  40              		@ frame_needed = 0, uses_anonymous_args = 0
  41              	.LVL1:
  42              		.loc 1 87 0
  43 0000 08402DE9 		stmfd	sp!, {r3, lr}
  44              		.cfi_def_cfa_offset 8
  45              		.cfi_offset 3, -8
  46              		.cfi_offset 14, -4
  47              		.loc 1 90 0
  48 0004 C810A0E3 		mov	r1, #200
  49 0008 08009FE5 		ldr	r0, .L4
  50              	.LVL2:
  51 000c FEFFFFEB 		bl	chIQGetTimeout
  52              	.LVL3:
  53              		.loc 1 92 0
  54 0010 0000A0E3 		mov	r0, #0
  55 0014 0880BDE8 		ldmfd	sp!, {r3, pc}
  56              	.L5:
  57              		.align	2
ARM GAS  /tmp/cc7R3euN.s 			page 2


  58              	.L4:
  59 0018 00000000 		.word	.LANCHOR0
  60              		.cfi_endproc
  61              	.LFE9:
  62              		.size	thread1, .-thread1
  63              		.section	.text.queues1_setup,"ax",%progbits
  64              		.align	2
  65              		.type	queues1_setup, %function
  66              	queues1_setup:
  67              	.LFB8:
  68              		.loc 1 82 0
  69              		.cfi_startproc
  70              		@ args = 0, pretend = 0, frame = 0
  71              		@ frame_needed = 0, uses_anonymous_args = 0
  72              		.loc 1 84 0
  73 0000 0020A0E3 		mov	r2, #0
  74              		.loc 1 82 0
  75 0004 04E02DE5 		str	lr, [sp, #-4]!
  76              		.cfi_def_cfa_offset 4
  77              		.cfi_offset 14, -4
  78              		.loc 1 84 0
  79 0008 20309FE5 		ldr	r3, .L8
  80              		.loc 1 82 0
  81 000c 0CD04DE2 		sub	sp, sp, #12
  82              		.cfi_def_cfa_offset 16
  83              		.loc 1 84 0
  84 0010 00208DE5 		str	r2, [sp]
  85 0014 001093E5 		ldr	r1, [r3]
  86 0018 14009FE5 		ldr	r0, .L8+4
  87 001c 0420A0E3 		mov	r2, #4
  88 0020 10309FE5 		ldr	r3, .L8+8
  89 0024 FEFFFFEB 		bl	chIQInit
  90              	.LVL4:
  91              		.loc 1 85 0
  92 0028 0CD08DE2 		add	sp, sp, #12
  93              		.cfi_def_cfa_offset 4
  94              		@ sp needed
  95 002c 04F09DE4 		ldr	pc, [sp], #4
  96              	.L9:
  97              		.align	2
  98              	.L8:
  99 0030 00000000 		.word	wa
 100 0034 00000000 		.word	.LANCHOR0
 101 0038 00000000 		.word	notify
 102              		.cfi_endproc
 103              	.LFE8:
 104              		.size	queues1_setup, .-queues1_setup
 105              		.section	.text.thread2,"ax",%progbits
 106              		.align	2
 107              		.type	thread2, %function
 108              	thread2:
 109              	.LFB12:
 110              		.loc 1 174 0
 111              		.cfi_startproc
 112              		@ args = 0, pretend = 0, frame = 0
 113              		@ frame_needed = 0, uses_anonymous_args = 0
 114              	.LVL5:
ARM GAS  /tmp/cc7R3euN.s 			page 3


 115 0000 08402DE9 		stmfd	sp!, {r3, lr}
 116              		.cfi_def_cfa_offset 8
 117              		.cfi_offset 3, -8
 118              		.cfi_offset 14, -4
 119              		.loc 1 177 0
 120 0004 0010A0E3 		mov	r1, #0
 121 0008 C820A0E3 		mov	r2, #200
 122 000c 08009FE5 		ldr	r0, .L12
 123              	.LVL6:
 124 0010 FEFFFFEB 		bl	chOQPutTimeout
 125              	.LVL7:
 126              		.loc 1 179 0
 127 0014 0000A0E3 		mov	r0, #0
 128 0018 0880BDE8 		ldmfd	sp!, {r3, pc}
 129              	.L13:
 130              		.align	2
 131              	.L12:
 132 001c 00000000 		.word	.LANCHOR1
 133              		.cfi_endproc
 134              	.LFE12:
 135              		.size	thread2, .-thread2
 136              		.section	.text.queues2_setup,"ax",%progbits
 137              		.align	2
 138              		.type	queues2_setup, %function
 139              	queues2_setup:
 140              	.LFB11:
 141              		.loc 1 169 0
 142              		.cfi_startproc
 143              		@ args = 0, pretend = 0, frame = 0
 144              		@ frame_needed = 0, uses_anonymous_args = 0
 145              		.loc 1 171 0
 146 0000 0020A0E3 		mov	r2, #0
 147              		.loc 1 169 0
 148 0004 04E02DE5 		str	lr, [sp, #-4]!
 149              		.cfi_def_cfa_offset 4
 150              		.cfi_offset 14, -4
 151              		.loc 1 171 0
 152 0008 20309FE5 		ldr	r3, .L16
 153              		.loc 1 169 0
 154 000c 0CD04DE2 		sub	sp, sp, #12
 155              		.cfi_def_cfa_offset 16
 156              		.loc 1 171 0
 157 0010 00208DE5 		str	r2, [sp]
 158 0014 001093E5 		ldr	r1, [r3]
 159 0018 14009FE5 		ldr	r0, .L16+4
 160 001c 0420A0E3 		mov	r2, #4
 161 0020 10309FE5 		ldr	r3, .L16+8
 162 0024 FEFFFFEB 		bl	chOQInit
 163              	.LVL8:
 164              		.loc 1 172 0
 165 0028 0CD08DE2 		add	sp, sp, #12
 166              		.cfi_def_cfa_offset 4
 167              		@ sp needed
 168 002c 04F09DE4 		ldr	pc, [sp], #4
 169              	.L17:
 170              		.align	2
 171              	.L16:
ARM GAS  /tmp/cc7R3euN.s 			page 4


 172 0030 00000000 		.word	wa
 173 0034 00000000 		.word	.LANCHOR1
 174 0038 00000000 		.word	notify
 175              		.cfi_endproc
 176              	.LFE11:
 177              		.size	queues2_setup, .-queues2_setup
 178              		.section	.text.queues1_execute,"ax",%progbits
 179              		.align	2
 180              		.type	queues1_execute, %function
 181              	queues1_execute:
 182              	.LFB10:
 183              		.loc 1 94 0
 184              		.cfi_startproc
 185              		@ args = 0, pretend = 0, frame = 0
 186              		@ frame_needed = 0, uses_anonymous_args = 0
 187 0000 70402DE9 		stmfd	sp!, {r4, r5, r6, lr}
 188              		.cfi_def_cfa_offset 16
 189              		.cfi_offset 4, -16
 190              		.cfi_offset 5, -12
 191              		.cfi_offset 6, -8
 192              		.cfi_offset 14, -4
 193 0004 08D04DE2 		sub	sp, sp, #8
 194              		.cfi_def_cfa_offset 24
 195              		.loc 1 99 0
 196              	@ 99 "../../test/testqueues.c" 1
 197 0008 9FF021E3 		msr     CPSR_c, #0x9F
 198              	@ 0 "" 2
 199 000c 08339FE5 		ldr	r3, .L45
 200 0010 0100A0E3 		mov	r0, #1
 201 0014 081093E5 		ldr	r1, [r3, #8]
 202 0018 111F6FE1 		clz	r1, r1
 203 001c A112A0E1 		mov	r1, r1, lsr #5
 204 0020 FEFFFFEB 		bl	_test_assert
 205              	.LVL9:
 206 0024 000050E3 		cmp	r0, #0
 207 0028 1500001A 		bne	.L41
 208              		.loc 1 99 0 is_stmt 0 discriminator 2
 209              	@ 99 "../../test/testqueues.c" 1
 210 002c 1FF021E3 		msr     CPSR_c, #0x1F
 211              	@ 0 "" 2
 212              		.loc 1 102 0 is_stmt 1 discriminator 2
 213              	@ 102 "../../test/testqueues.c" 1
 214 0030 9FF021E3 		msr     CPSR_c, #0x9F
 215              	@ 0 "" 2
 216              	.LVL10:
 217 0034 4140A0E3 		mov	r4, #65
 218              	.LVL11:
 219              	.L21:
 220              		.loc 1 104 0 discriminator 3
 221 0038 DC529FE5 		ldr	r5, .L45
 222 003c 0410A0E1 		mov	r1, r4
 223 0040 014084E2 		add	r4, r4, #1
 224 0044 0500A0E1 		mov	r0, r5
 225 0048 7440EFE6 		uxtb	r4, r4
 226 004c FEFFFFEB 		bl	chIQPutI
 227              	.LVL12:
 228              		.loc 1 103 0 discriminator 3
ARM GAS  /tmp/cc7R3euN.s 			page 5


 229 0050 450054E3 		cmp	r4, #69
 230 0054 F7FFFF1A 		bne	.L21
 231              		.loc 1 105 0
 232              	@ 105 "../../test/testqueues.c" 1
 233 0058 1FF021E3 		msr     CPSR_c, #0x1F
 234              	@ 0 "" 2
 235              		.loc 1 106 0
 236              	@ 106 "../../test/testqueues.c" 1
 237 005c 9FF021E3 		msr     CPSR_c, #0x9F
 238              	@ 0 "" 2
 239 0060 142095E5 		ldr	r2, [r5, #20]
 240 0064 183095E5 		ldr	r3, [r5, #24]
 241 0068 030052E1 		cmp	r2, r3
 242 006c 0010A013 		movne	r1, #0
 243 0070 A500000A 		beq	.L43
 244              	.L22:
 245              		.loc 1 106 0 is_stmt 0 discriminator 6
 246 0074 0200A0E3 		mov	r0, #2
 247 0078 FEFFFFEB 		bl	_test_assert
 248              	.LVL13:
 249 007c 001050E2 		subs	r1, r0, #0
 250 0080 0200000A 		beq	.L44
 251              	.L41:
 252              	.LBB5:
 253              	.LBB6:
 254              		.loc 1 146 0 is_stmt 1
 255              	@ 146 "../../test/testqueues.c" 1
 256 0084 1FF021E3 		msr     CPSR_c, #0x1F
 257              	@ 0 "" 2
 258              	.L18:
 259              	.LBE6:
 260              	.LBE5:
 261              		.loc 1 151 0
 262 0088 08D08DE2 		add	sp, sp, #8
 263              		.cfi_remember_state
 264              		.cfi_def_cfa_offset 16
 265              		@ sp needed
 266 008c 7080BDE8 		ldmfd	sp!, {r4, r5, r6, pc}
 267              	.L44:
 268              		.cfi_restore_state
 269              	.LBB9:
 270              	.LBB7:
 271              		.loc 1 106 0
 272              	@ 106 "../../test/testqueues.c" 1
 273 0090 1FF021E3 		msr     CPSR_c, #0x1F
 274              	@ 0 "" 2
 275              		.loc 1 107 0
 276              	@ 107 "../../test/testqueues.c" 1
 277 0094 9FF021E3 		msr     CPSR_c, #0x9F
 278              	@ 0 "" 2
 279 0098 7C029FE5 		ldr	r0, .L45
 280 009c FEFFFFEB 		bl	chIQPutI
 281              	.LVL14:
 282 00a0 040070E3 		cmn	r0, #4
 283 00a4 0010A013 		movne	r1, #0
 284 00a8 0110A003 		moveq	r1, #1
 285 00ac 0300A0E3 		mov	r0, #3
ARM GAS  /tmp/cc7R3euN.s 			page 6


 286 00b0 FEFFFFEB 		bl	_test_assert
 287              	.LVL15:
 288 00b4 000050E3 		cmp	r0, #0
 289 00b8 F1FFFF1A 		bne	.L41
 290              	@ 107 "../../test/testqueues.c" 1
 291 00bc 1FF021E3 		msr     CPSR_c, #0x1F
 292              	@ 0 "" 2
 293              	.LVL16:
 294 00c0 0440A0E3 		mov	r4, #4
 295              	.LVL17:
 296              	.L25:
 297              		.loc 1 111 0
 298 00c4 50529FE5 		ldr	r5, .L45
 299 00c8 0010E0E3 		mvn	r1, #0
 300 00cc 0500A0E1 		mov	r0, r5
 301 00d0 FEFFFFEB 		bl	chIQGetTimeout
 302              	.LVL18:
 303 00d4 7000EFE6 		uxtb	r0, r0
 304 00d8 FEFFFFEB 		bl	test_emit_token
 305              	.LVL19:
 306              		.loc 1 110 0
 307 00dc 014054E2 		subs	r4, r4, #1
 308              	.LVL20:
 309 00e0 F7FFFF1A 		bne	.L25
 310              		.loc 1 112 0
 311              	@ 112 "../../test/testqueues.c" 1
 312 00e4 9FF021E3 		msr     CPSR_c, #0x9F
 313              	@ 0 "" 2
 314 00e8 081095E5 		ldr	r1, [r5, #8]
 315 00ec 0400A0E3 		mov	r0, #4
 316 00f0 111F6FE1 		clz	r1, r1
 317 00f4 A112A0E1 		mov	r1, r1, lsr #5
 318 00f8 FEFFFFEB 		bl	_test_assert
 319              	.LVL21:
 320 00fc 000050E3 		cmp	r0, #0
 321 0100 DFFFFF1A 		bne	.L41
 322              	@ 112 "../../test/testqueues.c" 1
 323 0104 1FF021E3 		msr     CPSR_c, #0x1F
 324              	@ 0 "" 2
 325              		.loc 1 113 0
 326 0108 0500A0E3 		mov	r0, #5
 327 010c 0C129FE5 		ldr	r1, .L45+4
 328 0110 FEFFFFEB 		bl	_test_assert_sequence
 329              	.LVL22:
 330 0114 000050E3 		cmp	r0, #0
 331 0118 DAFFFF1A 		bne	.L18
 332              		.loc 1 116 0
 333              	@ 116 "../../test/testqueues.c" 1
 334 011c 9FF021E3 		msr     CPSR_c, #0x9F
 335              	@ 0 "" 2
 336              	.LVL23:
 337 0120 4140A0E3 		mov	r4, #65
 338              	.LVL24:
 339              	.L28:
 340              		.loc 1 118 0
 341 0124 F0519FE5 		ldr	r5, .L45
 342 0128 0410A0E1 		mov	r1, r4
ARM GAS  /tmp/cc7R3euN.s 			page 7


 343 012c 014084E2 		add	r4, r4, #1
 344 0130 0500A0E1 		mov	r0, r5
 345 0134 7440EFE6 		uxtb	r4, r4
 346 0138 FEFFFFEB 		bl	chIQPutI
 347              	.LVL25:
 348              		.loc 1 117 0
 349 013c 450054E3 		cmp	r4, #69
 350 0140 F7FFFF1A 		bne	.L28
 351              		.loc 1 119 0
 352              	@ 119 "../../test/testqueues.c" 1
 353 0144 1FF021E3 		msr     CPSR_c, #0x1F
 354              	@ 0 "" 2
 355              		.loc 1 122 0
 356 0148 D4619FE5 		ldr	r6, .L45+8
 357 014c 0820A0E3 		mov	r2, #8
 358 0150 041096E5 		ldr	r1, [r6, #4]
 359 0154 0030A0E3 		mov	r3, #0
 360 0158 0500A0E1 		mov	r0, r5
 361 015c FEFFFFEB 		bl	chIQReadTimeout
 362              	.LVL26:
 363              		.loc 1 123 0
 364 0160 041040E2 		sub	r1, r0, #4
 365 0164 111F6FE1 		clz	r1, r1
 366 0168 0600A0E3 		mov	r0, #6
 367              	.LVL27:
 368 016c A112A0E1 		mov	r1, r1, lsr #5
 369 0170 FEFFFFEB 		bl	_test_assert
 370              	.LVL28:
 371 0174 000050E3 		cmp	r0, #0
 372 0178 C2FFFF1A 		bne	.L18
 373              		.loc 1 124 0
 374              	@ 124 "../../test/testqueues.c" 1
 375 017c 9FF021E3 		msr     CPSR_c, #0x9F
 376              	@ 0 "" 2
 377 0180 081095E5 		ldr	r1, [r5, #8]
 378 0184 0700A0E3 		mov	r0, #7
 379 0188 111F6FE1 		clz	r1, r1
 380 018c A112A0E1 		mov	r1, r1, lsr #5
 381 0190 FEFFFFEB 		bl	_test_assert
 382              	.LVL29:
 383 0194 000050E3 		cmp	r0, #0
 384 0198 B9FFFF1A 		bne	.L41
 385              	@ 124 "../../test/testqueues.c" 1
 386 019c 1FF021E3 		msr     CPSR_c, #0x1F
 387              	@ 0 "" 2
 388              		.loc 1 127 0
 389              	@ 127 "../../test/testqueues.c" 1
 390 01a0 9FF021E3 		msr     CPSR_c, #0x9F
 391              	@ 0 "" 2
 392              	.LVL30:
 393 01a4 4140A0E3 		mov	r4, #65
 394              	.LVL31:
 395              	.L31:
 396              		.loc 1 129 0
 397 01a8 6C519FE5 		ldr	r5, .L45
 398 01ac 0410A0E1 		mov	r1, r4
 399 01b0 014084E2 		add	r4, r4, #1
ARM GAS  /tmp/cc7R3euN.s 			page 8


 400 01b4 0500A0E1 		mov	r0, r5
 401 01b8 7440EFE6 		uxtb	r4, r4
 402 01bc FEFFFFEB 		bl	chIQPutI
 403              	.LVL32:
 404              		.loc 1 128 0
 405 01c0 450054E3 		cmp	r4, #69
 406 01c4 F7FFFF1A 		bne	.L31
 407              		.loc 1 130 0
 408              	@ 130 "../../test/testqueues.c" 1
 409 01c8 1FF021E3 		msr     CPSR_c, #0x1F
 410              	@ 0 "" 2
 411              		.loc 1 133 0
 412 01cc 044096E5 		ldr	r4, [r6, #4]
 413 01d0 0030A0E3 		mov	r3, #0
 414 01d4 0410A0E1 		mov	r1, r4
 415 01d8 0220A0E3 		mov	r2, #2
 416 01dc 0500A0E1 		mov	r0, r5
 417 01e0 FEFFFFEB 		bl	chIQReadTimeout
 418              	.LVL33:
 419              		.loc 1 134 0
 420 01e4 021040E2 		sub	r1, r0, #2
 421 01e8 111F6FE1 		clz	r1, r1
 422 01ec 0800A0E3 		mov	r0, #8
 423              	.LVL34:
 424 01f0 A112A0E1 		mov	r1, r1, lsr #5
 425 01f4 FEFFFFEB 		bl	_test_assert
 426              	.LVL35:
 427 01f8 003050E2 		subs	r3, r0, #0
 428              		.loc 1 133 0
 429 01fc 20619FE5 		ldr	r6, .L45+8
 430              		.loc 1 134 0
 431 0200 A0FFFF1A 		bne	.L18
 432              		.loc 1 135 0
 433 0204 0410A0E1 		mov	r1, r4
 434 0208 0220A0E3 		mov	r2, #2
 435 020c 0500A0E1 		mov	r0, r5
 436 0210 FEFFFFEB 		bl	chIQReadTimeout
 437              	.LVL36:
 438              		.loc 1 136 0
 439 0214 021040E2 		sub	r1, r0, #2
 440 0218 111F6FE1 		clz	r1, r1
 441 021c 0900A0E3 		mov	r0, #9
 442              	.LVL37:
 443 0220 A112A0E1 		mov	r1, r1, lsr #5
 444 0224 FEFFFFEB 		bl	_test_assert
 445              	.LVL38:
 446 0228 000050E3 		cmp	r0, #0
 447 022c 95FFFF1A 		bne	.L18
 448              		.loc 1 137 0
 449              	@ 137 "../../test/testqueues.c" 1
 450 0230 9FF021E3 		msr     CPSR_c, #0x9F
 451              	@ 0 "" 2
 452 0234 081095E5 		ldr	r1, [r5, #8]
 453 0238 0A00A0E3 		mov	r0, #10
 454 023c 111F6FE1 		clz	r1, r1
 455 0240 A112A0E1 		mov	r1, r1, lsr #5
 456 0244 FEFFFFEB 		bl	_test_assert
ARM GAS  /tmp/cc7R3euN.s 			page 9


 457              	.LVL39:
 458 0248 001050E2 		subs	r1, r0, #0
 459 024c 8CFFFF1A 		bne	.L41
 460              	@ 137 "../../test/testqueues.c" 1
 461 0250 1FF021E3 		msr     CPSR_c, #0x1F
 462              	@ 0 "" 2
 463              		.loc 1 140 0
 464              	@ 140 "../../test/testqueues.c" 1
 465 0254 9FF021E3 		msr     CPSR_c, #0x9F
 466              	@ 0 "" 2
 467              		.loc 1 141 0
 468 0258 0500A0E1 		mov	r0, r5
 469 025c FEFFFFEB 		bl	chIQPutI
 470              	.LVL40:
 471              		.loc 1 142 0
 472 0260 0500A0E1 		mov	r0, r5
 473 0264 FEFFFFEB 		bl	chIQResetI
 474              	.LVL41:
 475              		.loc 1 143 0
 476              	@ 143 "../../test/testqueues.c" 1
 477 0268 1FF021E3 		msr     CPSR_c, #0x1F
 478              	@ 0 "" 2
 479              		.loc 1 144 0
 480              	@ 144 "../../test/testqueues.c" 1
 481 026c 9FF021E3 		msr     CPSR_c, #0x9F
 482              	@ 0 "" 2
 483 0270 081095E5 		ldr	r1, [r5, #8]
 484 0274 0B00A0E3 		mov	r0, #11
 485 0278 111F6FE1 		clz	r1, r1
 486 027c A112A0E1 		mov	r1, r1, lsr #5
 487 0280 FEFFFFEB 		bl	_test_assert
 488              	.LVL42:
 489 0284 00C050E2 		subs	ip, r0, #0
 490 0288 7DFFFF1A 		bne	.L41
 491              	@ 144 "../../test/testqueues.c" 1
 492 028c 1FF021E3 		msr     CPSR_c, #0x1F
 493              	@ 0 "" 2
 494              		.loc 1 145 0
 495 0290 90309FE5 		ldr	r3, .L45+12
 496 0294 000096E5 		ldr	r0, [r6]
 497 0298 183093E5 		ldr	r3, [r3, #24]
 498 029c 461FA0E3 		mov	r1, #280
 499 02a0 082093E5 		ldr	r2, [r3, #8]
 500 02a4 80309FE5 		ldr	r3, .L45+16
 501 02a8 00C08DE5 		str	ip, [sp]
 502 02ac 012082E2 		add	r2, r2, #1
 503 02b0 FEFFFFEB 		bl	chThdCreateStatic
 504              	.LVL43:
 505 02b4 74309FE5 		ldr	r3, .L45+20
 506 02b8 000083E5 		str	r0, [r3]
 507              		.loc 1 146 0
 508              	@ 146 "../../test/testqueues.c" 1
 509 02bc 9FF021E3 		msr     CPSR_c, #0x9F
 510              	@ 0 "" 2
 511 02c0 081095E5 		ldr	r1, [r5, #8]
 512 02c4 0C00A0E3 		mov	r0, #12
 513 02c8 111F6FE1 		clz	r1, r1
ARM GAS  /tmp/cc7R3euN.s 			page 10


 514 02cc A112A0E1 		mov	r1, r1, lsr #5
 515 02d0 FEFFFFEB 		bl	_test_assert
 516              	.LVL44:
 517 02d4 000050E3 		cmp	r0, #0
 518 02d8 69FFFF1A 		bne	.L41
 519              	@ 146 "../../test/testqueues.c" 1
 520 02dc 1FF021E3 		msr     CPSR_c, #0x1F
 521              	@ 0 "" 2
 522              		.loc 1 147 0
 523 02e0 FEFFFFEB 		bl	test_wait_threads
 524              	.LVL45:
 525              		.loc 1 150 0
 526 02e4 0A10A0E3 		mov	r1, #10
 527 02e8 0500A0E1 		mov	r0, r5
 528 02ec FEFFFFEB 		bl	chIQGetTimeout
 529              	.LVL46:
 530 02f0 010070E3 		cmn	r0, #1
 531 02f4 0010A013 		movne	r1, #0
 532 02f8 0110A003 		moveq	r1, #1
 533 02fc 0D00A0E3 		mov	r0, #13
 534              	.LBE7:
 535              	.LBE9:
 536              		.loc 1 151 0
 537 0300 08D08DE2 		add	sp, sp, #8
 538              		.cfi_remember_state
 539              		.cfi_def_cfa_offset 16
 540              		@ sp needed
 541 0304 7040BDE8 		ldmfd	sp!, {r4, r5, r6, lr}
 542              		.cfi_restore 14
 543              		.cfi_restore 6
 544              		.cfi_restore 5
 545              		.cfi_restore 4
 546              		.cfi_def_cfa_offset 0
 547              	.LBB10:
 548              	.LBB8:
 549              		.loc 1 150 0
 550 0308 FEFFFFEA 		b	_test_assert
 551              	.LVL47:
 552              	.L43:
 553              		.cfi_restore_state
 554              	.LBE8:
 555              	.LBE10:
 556              		.loc 1 106 0 discriminator 1
 557 030c 081095E5 		ldr	r1, [r5, #8]
 558 0310 001091E2 		adds	r1, r1, #0
 559 0314 0110A013 		movne	r1, #1
 560 0318 55FFFFEA 		b	.L22
 561              	.L46:
 562              		.align	2
 563              	.L45:
 564 031c 00000000 		.word	.LANCHOR0
 565 0320 00000000 		.word	.LC0
 566 0324 00000000 		.word	wa
 567 0328 00000000 		.word	rlist
 568 032c 00000000 		.word	thread1
 569 0330 00000000 		.word	threads
 570              		.cfi_endproc
ARM GAS  /tmp/cc7R3euN.s 			page 11


 571              	.LFE10:
 572              		.size	queues1_execute, .-queues1_execute
 573              		.section	.text.queues2_execute,"ax",%progbits
 574              		.align	2
 575              		.type	queues2_execute, %function
 576              	queues2_execute:
 577              	.LFB13:
 578              		.loc 1 181 0
 579              		.cfi_startproc
 580              		@ args = 0, pretend = 0, frame = 0
 581              		@ frame_needed = 0, uses_anonymous_args = 0
 582 0000 70402DE9 		stmfd	sp!, {r4, r5, r6, lr}
 583              		.cfi_def_cfa_offset 16
 584              		.cfi_offset 4, -16
 585              		.cfi_offset 5, -12
 586              		.cfi_offset 6, -8
 587              		.cfi_offset 14, -4
 588 0004 08D04DE2 		sub	sp, sp, #8
 589              		.cfi_def_cfa_offset 24
 590              		.loc 1 186 0
 591              	@ 186 "../../test/testqueues.c" 1
 592 0008 9FF021E3 		msr     CPSR_c, #0x9F
 593              	@ 0 "" 2
 594 000c DC329FE5 		ldr	r3, .L72
 595 0010 141093E5 		ldr	r1, [r3, #20]
 596 0014 182093E5 		ldr	r2, [r3, #24]
 597 0018 020051E1 		cmp	r1, r2
 598 001c 0010A013 		movne	r1, #0
 599 0020 AA00000A 		beq	.L69
 600              	.L48:
 601              		.loc 1 186 0 is_stmt 0 discriminator 6
 602 0024 0100A0E3 		mov	r0, #1
 603 0028 FEFFFFEB 		bl	_test_assert
 604              	.LVL48:
 605 002c 000050E3 		cmp	r0, #0
 606 0030 2700001A 		bne	.L68
 607              		.loc 1 186 0 discriminator 8
 608              	@ 186 "../../test/testqueues.c" 1
 609 0034 1FF021E3 		msr     CPSR_c, #0x1F
 610              	@ 0 "" 2
 611              	.LVL49:
 612 0038 4140A0E3 		mov	r4, #65
 613              	.LVL50:
 614              	.L51:
 615              		.loc 1 190 0 is_stmt 1 discriminator 3
 616 003c AC529FE5 		ldr	r5, .L72
 617 0040 0410A0E1 		mov	r1, r4
 618 0044 014084E2 		add	r4, r4, #1
 619 0048 0500A0E1 		mov	r0, r5
 620 004c 0020E0E3 		mvn	r2, #0
 621 0050 7440EFE6 		uxtb	r4, r4
 622 0054 FEFFFFEB 		bl	chOQPutTimeout
 623              	.LVL51:
 624              		.loc 1 189 0 discriminator 3
 625 0058 450054E3 		cmp	r4, #69
 626 005c F6FFFF1A 		bne	.L51
 627              		.loc 1 191 0
ARM GAS  /tmp/cc7R3euN.s 			page 12


 628              	@ 191 "../../test/testqueues.c" 1
 629 0060 9FF021E3 		msr     CPSR_c, #0x9F
 630              	@ 0 "" 2
 631 0064 081095E5 		ldr	r1, [r5, #8]
 632 0068 0200A0E3 		mov	r0, #2
 633 006c 111F6FE1 		clz	r1, r1
 634 0070 A112A0E1 		mov	r1, r1, lsr #5
 635 0074 FEFFFFEB 		bl	_test_assert
 636              	.LVL52:
 637 0078 000050E3 		cmp	r0, #0
 638 007c 1400001A 		bne	.L68
 639              	.LBB14:
 640              	.LBB15:
 641              	@ 191 "../../test/testqueues.c" 1
 642 0080 1FF021E3 		msr     CPSR_c, #0x1F
 643              	@ 0 "" 2
 644              	.LVL53:
 645 0084 0440A0E3 		mov	r4, #4
 646              	.LVL54:
 647              	.L53:
 648              	.LBB16:
 649              		.loc 1 197 0
 650              	@ 197 "../../test/testqueues.c" 1
 651 0088 9FF021E3 		msr     CPSR_c, #0x9F
 652              	@ 0 "" 2
 653              		.loc 1 198 0
 654 008c 5C529FE5 		ldr	r5, .L72
 655 0090 0500A0E1 		mov	r0, r5
 656 0094 FEFFFFEB 		bl	chOQGetI
 657              	.LVL55:
 658              		.loc 1 199 0
 659              	@ 199 "../../test/testqueues.c" 1
 660 0098 1FF021E3 		msr     CPSR_c, #0x1F
 661              	@ 0 "" 2
 662              		.loc 1 200 0
 663 009c 7000EFE6 		uxtb	r0, r0
 664 00a0 FEFFFFEB 		bl	test_emit_token
 665              	.LVL56:
 666              	.LBE16:
 667              		.loc 1 194 0
 668 00a4 014054E2 		subs	r4, r4, #1
 669              	.LVL57:
 670 00a8 F6FFFF1A 		bne	.L53
 671              		.loc 1 202 0
 672              	@ 202 "../../test/testqueues.c" 1
 673 00ac 9FF021E3 		msr     CPSR_c, #0x9F
 674              	@ 0 "" 2
 675 00b0 142095E5 		ldr	r2, [r5, #20]
 676 00b4 183095E5 		ldr	r3, [r5, #24]
 677 00b8 030052E1 		cmp	r2, r3
 678 00bc 0410A011 		movne	r1, r4
 679 00c0 8600000A 		beq	.L70
 680              	.L54:
 681 00c4 0300A0E3 		mov	r0, #3
 682 00c8 FEFFFFEB 		bl	_test_assert
 683              	.LVL58:
 684 00cc 000050E3 		cmp	r0, #0
ARM GAS  /tmp/cc7R3euN.s 			page 13


 685 00d0 0200000A 		beq	.L71
 686              	.LVL59:
 687              	.L68:
 688              		.loc 1 225 0
 689              	@ 225 "../../test/testqueues.c" 1
 690 00d4 1FF021E3 		msr     CPSR_c, #0x1F
 691              	@ 0 "" 2
 692              	.L47:
 693              	.LBE15:
 694              	.LBE14:
 695              		.loc 1 229 0
 696 00d8 08D08DE2 		add	sp, sp, #8
 697              		.cfi_remember_state
 698              		.cfi_def_cfa_offset 16
 699              		@ sp needed
 700 00dc 7080BDE8 		ldmfd	sp!, {r4, r5, r6, pc}
 701              	.LVL60:
 702              	.L71:
 703              		.cfi_restore_state
 704              	.LBB20:
 705              	.LBB17:
 706              		.loc 1 202 0
 707              	@ 202 "../../test/testqueues.c" 1
 708 00e0 1FF021E3 		msr     CPSR_c, #0x1F
 709              	@ 0 "" 2
 710              		.loc 1 203 0
 711 00e4 0400A0E3 		mov	r0, #4
 712 00e8 04129FE5 		ldr	r1, .L72+4
 713 00ec FEFFFFEB 		bl	_test_assert_sequence
 714              	.LVL61:
 715 00f0 000050E3 		cmp	r0, #0
 716 00f4 F7FFFF1A 		bne	.L47
 717              		.loc 1 204 0
 718              	@ 204 "../../test/testqueues.c" 1
 719 00f8 9FF021E3 		msr     CPSR_c, #0x9F
 720              	@ 0 "" 2
 721 00fc EC419FE5 		ldr	r4, .L72
 722              	.LVL62:
 723 0100 0400A0E1 		mov	r0, r4
 724 0104 FEFFFFEB 		bl	chOQGetI
 725              	.LVL63:
 726 0108 030070E3 		cmn	r0, #3
 727 010c 0010A013 		movne	r1, #0
 728 0110 0110A003 		moveq	r1, #1
 729 0114 0500A0E3 		mov	r0, #5
 730 0118 FEFFFFEB 		bl	_test_assert
 731              	.LVL64:
 732 011c 003050E2 		subs	r3, r0, #0
 733 0120 EBFFFF1A 		bne	.L68
 734              	@ 204 "../../test/testqueues.c" 1
 735 0124 1FF021E3 		msr     CPSR_c, #0x1F
 736              	@ 0 "" 2
 737              		.loc 1 207 0
 738 0128 C8619FE5 		ldr	r6, .L72+8
 739 012c 0820A0E3 		mov	r2, #8
 740 0130 045096E5 		ldr	r5, [r6, #4]
 741 0134 0400A0E1 		mov	r0, r4
ARM GAS  /tmp/cc7R3euN.s 			page 14


 742 0138 0510A0E1 		mov	r1, r5
 743 013c FEFFFFEB 		bl	chOQWriteTimeout
 744              	.LVL65:
 745              		.loc 1 208 0
 746 0140 041040E2 		sub	r1, r0, #4
 747 0144 111F6FE1 		clz	r1, r1
 748 0148 0600A0E3 		mov	r0, #6
 749              	.LVL66:
 750 014c A112A0E1 		mov	r1, r1, lsr #5
 751 0150 FEFFFFEB 		bl	_test_assert
 752              	.LVL67:
 753 0154 000050E3 		cmp	r0, #0
 754 0158 DEFFFF1A 		bne	.L47
 755              		.loc 1 209 0
 756              	@ 209 "../../test/testqueues.c" 1
 757 015c 9FF021E3 		msr     CPSR_c, #0x9F
 758              	@ 0 "" 2
 759 0160 081094E5 		ldr	r1, [r4, #8]
 760 0164 0700A0E3 		mov	r0, #7
 761 0168 111F6FE1 		clz	r1, r1
 762 016c A112A0E1 		mov	r1, r1, lsr #5
 763 0170 FEFFFFEB 		bl	_test_assert
 764              	.LVL68:
 765 0174 003050E2 		subs	r3, r0, #0
 766 0178 D5FFFF1A 		bne	.L68
 767              	@ 209 "../../test/testqueues.c" 1
 768 017c 1FF021E3 		msr     CPSR_c, #0x1F
 769              	@ 0 "" 2
 770              		.loc 1 210 0
 771 0180 74219FE5 		ldr	r2, .L72+12
 772 0184 000096E5 		ldr	r0, [r6]
 773 0188 182092E5 		ldr	r2, [r2, #24]
 774 018c 461FA0E3 		mov	r1, #280
 775 0190 082092E5 		ldr	r2, [r2, #8]
 776 0194 00308DE5 		str	r3, [sp]
 777 0198 012082E2 		add	r2, r2, #1
 778 019c 5C319FE5 		ldr	r3, .L72+16
 779 01a0 FEFFFFEB 		bl	chThdCreateStatic
 780              	.LVL69:
 781 01a4 58319FE5 		ldr	r3, .L72+20
 782 01a8 000083E5 		str	r0, [r3]
 783              		.loc 1 211 0
 784              	@ 211 "../../test/testqueues.c" 1
 785 01ac 9FF021E3 		msr     CPSR_c, #0x9F
 786              	@ 0 "" 2
 787 01b0 0C1094E5 		ldr	r1, [r4, #12]
 788 01b4 103094E5 		ldr	r3, [r4, #16]
 789 01b8 082094E5 		ldr	r2, [r4, #8]
 790 01bc 033061E0 		rsb	r3, r1, r3
 791 01c0 031062E0 		rsb	r1, r2, r3
 792 01c4 041041E2 		sub	r1, r1, #4
 793 01c8 111F6FE1 		clz	r1, r1
 794 01cc 0800A0E3 		mov	r0, #8
 795 01d0 A112A0E1 		mov	r1, r1, lsr #5
 796 01d4 FEFFFFEB 		bl	_test_assert
 797              	.LVL70:
 798 01d8 000050E3 		cmp	r0, #0
ARM GAS  /tmp/cc7R3euN.s 			page 15


 799 01dc BCFFFF1A 		bne	.L68
 800              	@ 211 "../../test/testqueues.c" 1
 801 01e0 1FF021E3 		msr     CPSR_c, #0x1F
 802              	@ 0 "" 2
 803              		.loc 1 212 0
 804 01e4 FEFFFFEB 		bl	test_wait_threads
 805              	.LVL71:
 806              		.loc 1 215 0
 807              	@ 215 "../../test/testqueues.c" 1
 808 01e8 9FF021E3 		msr     CPSR_c, #0x9F
 809              	@ 0 "" 2
 810              		.loc 1 216 0
 811 01ec 0400A0E1 		mov	r0, r4
 812 01f0 FEFFFFEB 		bl	chOQResetI
 813              	.LVL72:
 814              		.loc 1 217 0
 815              	@ 217 "../../test/testqueues.c" 1
 816 01f4 1FF021E3 		msr     CPSR_c, #0x1F
 817              	@ 0 "" 2
 818              		.loc 1 218 0
 819              	@ 218 "../../test/testqueues.c" 1
 820 01f8 9FF021E3 		msr     CPSR_c, #0x9F
 821              	@ 0 "" 2
 822 01fc 081084E2 		add	r1, r4, #8
 823 0200 0E0091E8 		ldmia	r1, {r1, r2, r3}
 824 0204 033062E0 		rsb	r3, r2, r3
 825 0208 031061E0 		rsb	r1, r1, r3
 826 020c 111F6FE1 		clz	r1, r1
 827 0210 0900A0E3 		mov	r0, #9
 828 0214 A112A0E1 		mov	r1, r1, lsr #5
 829 0218 FEFFFFEB 		bl	_test_assert
 830              	.LVL73:
 831 021c 003050E2 		subs	r3, r0, #0
 832 0220 ABFFFF1A 		bne	.L68
 833              	@ 218 "../../test/testqueues.c" 1
 834 0224 1FF021E3 		msr     CPSR_c, #0x1F
 835              	@ 0 "" 2
 836              		.loc 1 221 0
 837 0228 0220A0E3 		mov	r2, #2
 838 022c 0510A0E1 		mov	r1, r5
 839 0230 0400A0E1 		mov	r0, r4
 840 0234 FEFFFFEB 		bl	chOQWriteTimeout
 841              	.LVL74:
 842              		.loc 1 222 0
 843 0238 021040E2 		sub	r1, r0, #2
 844 023c 111F6FE1 		clz	r1, r1
 845 0240 0A00A0E3 		mov	r0, #10
 846              	.LVL75:
 847 0244 A112A0E1 		mov	r1, r1, lsr #5
 848 0248 FEFFFFEB 		bl	_test_assert
 849              	.LVL76:
 850 024c 003050E2 		subs	r3, r0, #0
 851 0250 A0FFFF1A 		bne	.L47
 852              		.loc 1 223 0
 853 0254 0510A0E1 		mov	r1, r5
 854 0258 0220A0E3 		mov	r2, #2
 855 025c 0400A0E1 		mov	r0, r4
ARM GAS  /tmp/cc7R3euN.s 			page 16


 856 0260 FEFFFFEB 		bl	chOQWriteTimeout
 857              	.LVL77:
 858              		.loc 1 224 0
 859 0264 021040E2 		sub	r1, r0, #2
 860 0268 111F6FE1 		clz	r1, r1
 861 026c 0B00A0E3 		mov	r0, #11
 862              	.LVL78:
 863 0270 A112A0E1 		mov	r1, r1, lsr #5
 864 0274 FEFFFFEB 		bl	_test_assert
 865              	.LVL79:
 866 0278 000050E3 		cmp	r0, #0
 867 027c 95FFFF1A 		bne	.L47
 868              		.loc 1 225 0
 869              	@ 225 "../../test/testqueues.c" 1
 870 0280 9FF021E3 		msr     CPSR_c, #0x9F
 871              	@ 0 "" 2
 872 0284 081094E5 		ldr	r1, [r4, #8]
 873 0288 0C00A0E3 		mov	r0, #12
 874 028c 111F6FE1 		clz	r1, r1
 875 0290 A112A0E1 		mov	r1, r1, lsr #5
 876 0294 FEFFFFEB 		bl	_test_assert
 877              	.LVL80:
 878 0298 000050E3 		cmp	r0, #0
 879 029c 8CFFFF1A 		bne	.L68
 880              	@ 225 "../../test/testqueues.c" 1
 881 02a0 1FF021E3 		msr     CPSR_c, #0x1F
 882              	@ 0 "" 2
 883              		.loc 1 228 0
 884 02a4 0010A0E3 		mov	r1, #0
 885 02a8 0A20A0E3 		mov	r2, #10
 886 02ac 3C009FE5 		ldr	r0, .L72
 887 02b0 FEFFFFEB 		bl	chOQPutTimeout
 888              	.LVL81:
 889 02b4 010070E3 		cmn	r0, #1
 890 02b8 0010A013 		movne	r1, #0
 891 02bc 0110A003 		moveq	r1, #1
 892 02c0 0D00A0E3 		mov	r0, #13
 893              	.LBE17:
 894              	.LBE20:
 895              		.loc 1 229 0
 896 02c4 08D08DE2 		add	sp, sp, #8
 897              		.cfi_remember_state
 898              		.cfi_def_cfa_offset 16
 899              		@ sp needed
 900 02c8 7040BDE8 		ldmfd	sp!, {r4, r5, r6, lr}
 901              		.cfi_restore 14
 902              		.cfi_restore 6
 903              		.cfi_restore 5
 904              		.cfi_restore 4
 905              		.cfi_def_cfa_offset 0
 906              	.LBB21:
 907              	.LBB18:
 908              		.loc 1 228 0
 909 02cc FEFFFFEA 		b	_test_assert
 910              	.LVL82:
 911              	.L69:
 912              		.cfi_restore_state
ARM GAS  /tmp/cc7R3euN.s 			page 17


 913              	.LBE18:
 914              	.LBE21:
 915              		.loc 1 186 0 discriminator 1
 916 02d0 081093E5 		ldr	r1, [r3, #8]
 917 02d4 001091E2 		adds	r1, r1, #0
 918 02d8 0110A013 		movne	r1, #1
 919 02dc 50FFFFEA 		b	.L48
 920              	.LVL83:
 921              	.L70:
 922              	.LBB22:
 923              	.LBB19:
 924              		.loc 1 202 0
 925 02e0 081095E5 		ldr	r1, [r5, #8]
 926 02e4 001091E2 		adds	r1, r1, #0
 927 02e8 0110A013 		movne	r1, #1
 928 02ec 74FFFFEA 		b	.L54
 929              	.L73:
 930              		.align	2
 931              	.L72:
 932 02f0 00000000 		.word	.LANCHOR1
 933 02f4 00000000 		.word	.LC0
 934 02f8 00000000 		.word	wa
 935 02fc 00000000 		.word	rlist
 936 0300 00000000 		.word	thread2
 937 0304 00000000 		.word	threads
 938              	.LBE19:
 939              	.LBE22:
 940              		.cfi_endproc
 941              	.LFE13:
 942              		.size	queues2_execute, .-queues2_execute
 943              		.global	patternqueues
 944              		.global	testqueues2
 945              		.global	testqueues1
 946              		.section	.rodata.testqueues1,"a",%progbits
 947              		.align	2
 948              		.type	testqueues1, %object
 949              		.size	testqueues1, 16
 950              	testqueues1:
 951 0000 20000000 		.word	.LC2
 952 0004 00000000 		.word	queues1_setup
 953 0008 00000000 		.word	0
 954 000c 00000000 		.word	queues1_execute
 955              		.section	.rodata.testqueues2,"a",%progbits
 956              		.align	2
 957              		.type	testqueues2, %object
 958              		.size	testqueues2, 16
 959              	testqueues2:
 960 0000 08000000 		.word	.LC1
 961 0004 00000000 		.word	queues2_setup
 962 0008 00000000 		.word	0
 963 000c 00000000 		.word	queues2_execute
 964              		.section	.rodata.str1.4,"aMS",%progbits,1
 965              		.align	2
 966              	.LC0:
 967 0000 41424344 		.ascii	"ABCD\000"
 967      00
 968 0005 000000   		.space	3
ARM GAS  /tmp/cc7R3euN.s 			page 18


 969              	.LC1:
 970 0008 51756575 		.ascii	"Queues, output queues\000"
 970      65732C20 
 970      6F757470 
 970      75742071 
 970      75657565 
 971 001e 0000     		.space	2
 972              	.LC2:
 973 0020 51756575 		.ascii	"Queues, input queues\000"
 973      65732C20 
 973      696E7075 
 973      74207175 
 973      65756573 
 974              		.section	.rodata.patternqueues,"a",%progbits
 975              		.align	2
 976              		.type	patternqueues, %object
 977              		.size	patternqueues, 12
 978              	patternqueues:
 979 0000 00000000 		.word	testqueues1
 980 0004 00000000 		.word	testqueues2
 981 0008 00000000 		.word	0
 982              		.section	.data.oq,"aw",%progbits
 983              		.align	2
 984              		.set	.LANCHOR1,. + 0
 985              		.type	oq, %object
 986              		.size	oq, 36
 987              	oq:
 988 0000 00000000 		.word	oq
 989 0004 00000000 		.word	oq
 990 0008 04000000 		.word	4
 991 000c 18010000 		.word	test+280
 992 0010 1C010000 		.word	test+284
 993 0014 18010000 		.word	test+280
 994 0018 18010000 		.word	test+280
 995 001c 00000000 		.word	notify
 996 0020 00000000 		.word	0
 997              		.section	.data.iq,"aw",%progbits
 998              		.align	2
 999              		.set	.LANCHOR0,. + 0
 1000              		.type	iq, %object
 1001              		.size	iq, 36
 1002              	iq:
 1003 0000 00000000 		.word	iq
 1004 0004 00000000 		.word	iq
 1005 0008 00000000 		.word	0
 1006 000c 00000000 		.word	test
 1007 0010 04000000 		.word	test+4
 1008 0014 00000000 		.word	test
 1009 0018 00000000 		.word	test
 1010 001c 00000000 		.word	notify
 1011 0020 00000000 		.word	0
 1012              		.text
 1013              	.Letext0:
 1014              		.file 2 "/usr/lib/gcc/arm-none-eabi/4.9.3/include/stddef.h"
 1015              		.file 3 "/usr/include/newlib/machine/_default_types.h"
 1016              		.file 4 "/usr/include/newlib/sys/_stdint.h"
 1017              		.file 5 "../../os/ports/GCC/ARM/chtypes.h"
ARM GAS  /tmp/cc7R3euN.s 			page 19


 1018              		.file 6 "../../os/kernel/include/chlists.h"
 1019              		.file 7 "../../os/kernel/include/chthreads.h"
 1020              		.file 8 "../../os/ports/GCC/ARM/chcore.h"
 1021              		.file 9 "../../os/kernel/include/chschd.h"
 1022              		.file 10 "../../os/kernel/include/chmtx.h"
 1023              		.file 11 "../../os/kernel/include/chqueues.h"
 1024              		.file 12 "../../test/test.h"