ARM GAS  /tmp/cclSMV53.s 			page 1


   1              		.file	"chevents.c"
   2              		.text
   3              	.Ltext0:
   4              		.cfi_sections	.debug_frame
   5              		.section	.text.chEvtRegisterMask,"ax",%progbits
   6              		.align	2
   7              		.global	chEvtRegisterMask
   8              		.type	chEvtRegisterMask, %function
   9              	chEvtRegisterMask:
  10              	.LFB7:
  11              		.file 1 "../../../os/kernel/src/chevents.c"
  12              		.loc 1 78 0
  13              		.cfi_startproc
  14              		@ args = 0, pretend = 0, frame = 0
  15              		@ frame_needed = 0, uses_anonymous_args = 0
  16              	.LVL0:
  17 0000 04E02DE5 		str	lr, [sp, #-4]!
  18              		.cfi_def_cfa_offset 4
  19              		.cfi_offset 14, -4
  20              		.loc 1 82 0
  21              	@ 82 "../../../os/kernel/src/chevents.c" 1
  22 0004 9FF021E3 		msr     CPSR_c, #0x9F
  23              	@ 0 "" 2
  24              		.loc 1 87 0
  25 0008 0030A0E3 		mov	r3, #0
  26              		.loc 1 85 0
  27 000c 20C09FE5 		ldr	ip, .L3
  28              		.loc 1 83 0
  29 0010 00E090E5 		ldr	lr, [r0]
  30              		.loc 1 85 0
  31 0014 10C09CE5 		ldr	ip, [ip, #16]
  32              		.loc 1 83 0
  33 0018 00E081E5 		str	lr, [r1]
  34              		.loc 1 84 0
  35 001c 001080E5 		str	r1, [r0]
  36              		.loc 1 85 0
  37 0020 04C081E5 		str	ip, [r1, #4]
  38              		.loc 1 86 0
  39 0024 082081E5 		str	r2, [r1, #8]
  40              		.loc 1 87 0
  41 0028 0C3081E5 		str	r3, [r1, #12]
  42              		.loc 1 88 0
  43              	@ 88 "../../../os/kernel/src/chevents.c" 1
  44 002c 1FF021E3 		msr     CPSR_c, #0x1F
  45              	@ 0 "" 2
  46 0030 04F09DE4 		ldr	pc, [sp], #4
  47              	.L4:
  48              		.align	2
  49              	.L3:
  50 0034 00000000 		.word	rlist
  51              		.cfi_endproc
  52              	.LFE7:
  53              		.size	chEvtRegisterMask, .-chEvtRegisterMask
  54              		.section	.text.chEvtUnregister,"ax",%progbits
  55              		.align	2
  56              		.global	chEvtUnregister
  57              		.type	chEvtUnregister, %function
ARM GAS  /tmp/cclSMV53.s 			page 2


  58              	chEvtUnregister:
  59              	.LFB8:
  60              		.loc 1 104 0
  61              		.cfi_startproc
  62              		@ args = 0, pretend = 0, frame = 0
  63              		@ frame_needed = 0, uses_anonymous_args = 0
  64              		@ link register save eliminated.
  65              	.LVL1:
  66              		.loc 1 110 0
  67              	@ 110 "../../../os/kernel/src/chevents.c" 1
  68 0000 9FF021E3 		msr     CPSR_c, #0x9F
  69              	@ 0 "" 2
  70              		.loc 1 109 0
  71 0004 0020A0E1 		mov	r2, r0
  72              		.loc 1 111 0
  73 0008 020000EA 		b	.L6
  74              	.LVL2:
  75              	.L8:
  76              		.loc 1 112 0
  77 000c 030051E1 		cmp	r1, r3
  78 0010 0500000A 		beq	.L11
  79 0014 0320A0E1 		mov	r2, r3
  80              	.LVL3:
  81              	.L6:
  82              		.loc 1 111 0
  83 0018 003092E5 		ldr	r3, [r2]
  84 001c 000053E1 		cmp	r3, r0
  85 0020 F9FFFF1A 		bne	.L8
  86              		.loc 1 118 0
  87              	@ 118 "../../../os/kernel/src/chevents.c" 1
  88 0024 1FF021E3 		msr     CPSR_c, #0x1F
  89              	@ 0 "" 2
  90 0028 1EFF2FE1 		bx	lr
  91              	.L11:
  92              		.loc 1 113 0
  93 002c 003091E5 		ldr	r3, [r1]
  94 0030 003082E5 		str	r3, [r2]
  95              		.loc 1 118 0
  96              	@ 118 "../../../os/kernel/src/chevents.c" 1
  97 0034 1FF021E3 		msr     CPSR_c, #0x1F
  98              	@ 0 "" 2
  99 0038 1EFF2FE1 		bx	lr
 100              		.cfi_endproc
 101              	.LFE8:
 102              		.size	chEvtUnregister, .-chEvtUnregister
 103              		.section	.text.chEvtGetAndClearEvents,"ax",%progbits
 104              		.align	2
 105              		.global	chEvtGetAndClearEvents
 106              		.type	chEvtGetAndClearEvents, %function
 107              	chEvtGetAndClearEvents:
 108              	.LFB9:
 109              		.loc 1 129 0
 110              		.cfi_startproc
 111              		@ args = 0, pretend = 0, frame = 0
 112              		@ frame_needed = 0, uses_anonymous_args = 0
 113              		@ link register save eliminated.
 114              	.LVL4:
ARM GAS  /tmp/cclSMV53.s 			page 3


 115              		.loc 1 132 0
 116              	@ 132 "../../../os/kernel/src/chevents.c" 1
 117 0000 9FF021E3 		msr     CPSR_c, #0x9F
 118              	@ 0 "" 2
 119              		.loc 1 134 0
 120 0004 18309FE5 		ldr	r3, .L13
 121 0008 102093E5 		ldr	r2, [r3, #16]
 122 000c 1C3092E5 		ldr	r3, [r2, #28]
 123              	.LVL5:
 124              		.loc 1 135 0
 125 0010 0010C3E1 		bic	r1, r3, r0
 126 0014 1C1082E5 		str	r1, [r2, #28]
 127              		.loc 1 137 0
 128              	@ 137 "../../../os/kernel/src/chevents.c" 1
 129 0018 1FF021E3 		msr     CPSR_c, #0x1F
 130              	@ 0 "" 2
 131              		.loc 1 139 0
 132 001c 030000E0 		and	r0, r0, r3
 133              	.LVL6:
 134 0020 1EFF2FE1 		bx	lr
 135              	.L14:
 136              		.align	2
 137              	.L13:
 138 0024 00000000 		.word	rlist
 139              		.cfi_endproc
 140              	.LFE9:
 141              		.size	chEvtGetAndClearEvents, .-chEvtGetAndClearEvents
 142              		.section	.text.chEvtAddEvents,"ax",%progbits
 143              		.align	2
 144              		.global	chEvtAddEvents
 145              		.type	chEvtAddEvents, %function
 146              	chEvtAddEvents:
 147              	.LFB10:
 148              		.loc 1 150 0
 149              		.cfi_startproc
 150              		@ args = 0, pretend = 0, frame = 0
 151              		@ frame_needed = 0, uses_anonymous_args = 0
 152              		@ link register save eliminated.
 153              	.LVL7:
 154              		.loc 1 152 0
 155              	@ 152 "../../../os/kernel/src/chevents.c" 1
 156 0000 9FF021E3 		msr     CPSR_c, #0x9F
 157              	@ 0 "" 2
 158              		.loc 1 154 0
 159 0004 14309FE5 		ldr	r3, .L16
 160 0008 102093E5 		ldr	r2, [r3, #16]
 161 000c 1C3092E5 		ldr	r3, [r2, #28]
 162 0010 030080E1 		orr	r0, r0, r3
 163              	.LVL8:
 164 0014 1C0082E5 		str	r0, [r2, #28]
 165              	.LVL9:
 166              		.loc 1 156 0
 167              	@ 156 "../../../os/kernel/src/chevents.c" 1
 168 0018 1FF021E3 		msr     CPSR_c, #0x1F
 169              	@ 0 "" 2
 170              		.loc 1 158 0
 171 001c 1EFF2FE1 		bx	lr
ARM GAS  /tmp/cclSMV53.s 			page 4


 172              	.L17:
 173              		.align	2
 174              	.L16:
 175 0020 00000000 		.word	rlist
 176              		.cfi_endproc
 177              	.LFE10:
 178              		.size	chEvtAddEvents, .-chEvtAddEvents
 179              		.section	.text.chEvtGetAndClearFlags,"ax",%progbits
 180              		.align	2
 181              		.global	chEvtGetAndClearFlags
 182              		.type	chEvtGetAndClearFlags, %function
 183              	chEvtGetAndClearFlags:
 184              	.LFB12:
 185              		.loc 1 202 0
 186              		.cfi_startproc
 187              		@ args = 0, pretend = 0, frame = 0
 188              		@ frame_needed = 0, uses_anonymous_args = 0
 189              		@ link register save eliminated.
 190              	.LVL10:
 191              		.loc 1 202 0
 192 0000 0030A0E1 		mov	r3, r0
 193              		.loc 1 205 0
 194              	@ 205 "../../../os/kernel/src/chevents.c" 1
 195 0004 9FF021E3 		msr     CPSR_c, #0x9F
 196              	@ 0 "" 2
 197              		.loc 1 208 0
 198 0008 0020A0E3 		mov	r2, #0
 199              		.loc 1 207 0
 200 000c 0C0090E5 		ldr	r0, [r0, #12]
 201              	.LVL11:
 202              		.loc 1 208 0
 203 0010 0C2083E5 		str	r2, [r3, #12]
 204              		.loc 1 210 0
 205              	@ 210 "../../../os/kernel/src/chevents.c" 1
 206 0014 1FF021E3 		msr     CPSR_c, #0x1F
 207              	@ 0 "" 2
 208              		.loc 1 212 0
 209 0018 1EFF2FE1 		bx	lr
 210              		.cfi_endproc
 211              	.LFE12:
 212              		.size	chEvtGetAndClearFlags, .-chEvtGetAndClearFlags
 213              		.section	.text.chEvtSignalI,"ax",%progbits
 214              		.align	2
 215              		.global	chEvtSignalI
 216              		.type	chEvtSignalI, %function
 217              	chEvtSignalI:
 218              	.LFB14:
 219              		.loc 1 244 0
 220              		.cfi_startproc
 221              		@ args = 0, pretend = 0, frame = 0
 222              		@ frame_needed = 0, uses_anonymous_args = 0
 223              	.LVL12:
 224 0000 04E02DE5 		str	lr, [sp, #-4]!
 225              		.cfi_def_cfa_offset 4
 226              		.cfi_offset 14, -4
 227              		.loc 1 249 0
 228 0004 1C3090E5 		ldr	r3, [r0, #28]
ARM GAS  /tmp/cclSMV53.s 			page 5


 229              		.loc 1 251 0
 230 0008 1020D0E5 		ldrb	r2, [r0, #16]	@ zero_extendqisi2
 231              		.loc 1 249 0
 232 000c 031081E1 		orr	r1, r1, r3
 233              	.LVL13:
 234              		.loc 1 251 0
 235 0010 080052E3 		cmp	r2, #8
 236              		.loc 1 249 0
 237 0014 1C1080E5 		str	r1, [r0, #28]
 238              		.loc 1 251 0
 239 0018 0900000A 		beq	.L24
 240              		.loc 1 252 0
 241 001c 090052E3 		cmp	r2, #9
 242 0020 04F09D14 		ldrne	pc, [sp], #4
 243              		.loc 1 254 0
 244 0024 143090E5 		ldr	r3, [r0, #20]
 245 0028 031001E0 		and	r1, r1, r3
 246              		.loc 1 253 0
 247 002c 010053E1 		cmp	r3, r1
 248 0030 04F09D14 		ldrne	pc, [sp], #4
 249              	.L21:
 250              	.LVL14:
 251              	.LBB4:
 252              	.LBB5:
 253              		.loc 1 255 0
 254 0034 FEFFFFEB 		bl	chSchReadyI
 255              	.LVL15:
 256 0038 0030A0E3 		mov	r3, #0
 257 003c 143080E5 		str	r3, [r0, #20]
 258 0040 04F09DE4 		ldr	pc, [sp], #4
 259              	.LVL16:
 260              	.L24:
 261              	.LBE5:
 262              	.LBE4:
 263              		.loc 1 252 0 discriminator 1
 264 0044 143090E5 		ldr	r3, [r0, #20]
 265              		.loc 1 251 0 discriminator 1
 266 0048 030011E1 		tst	r1, r3
 267 004c 04F09D04 		ldreq	pc, [sp], #4
 268 0050 F7FFFFEA 		b	.L21
 269              		.cfi_endproc
 270              	.LFE14:
 271              		.size	chEvtSignalI, .-chEvtSignalI
 272              		.section	.text.chEvtBroadcastFlagsI,"ax",%progbits
 273              		.align	2
 274              		.global	chEvtBroadcastFlagsI
 275              		.type	chEvtBroadcastFlagsI, %function
 276              	chEvtBroadcastFlagsI:
 277              	.LFB11:
 278              		.loc 1 177 0
 279              		.cfi_startproc
 280              		@ args = 0, pretend = 0, frame = 0
 281              		@ frame_needed = 0, uses_anonymous_args = 0
 282              	.LVL17:
 283 0000 70402DE9 		stmfd	sp!, {r4, r5, r6, lr}
 284              		.cfi_def_cfa_offset 16
 285              		.cfi_offset 4, -16
ARM GAS  /tmp/cclSMV53.s 			page 6


 286              		.cfi_offset 5, -12
 287              		.cfi_offset 6, -8
 288              		.cfi_offset 14, -4
 289              		.loc 1 183 0
 290 0004 004090E5 		ldr	r4, [r0]
 291              	.LVL18:
 292              		.loc 1 177 0
 293 0008 0050A0E1 		mov	r5, r0
 294              		.loc 1 184 0
 295 000c 040050E1 		cmp	r0, r4
 296              		.loc 1 177 0
 297 0010 0160A0E1 		mov	r6, r1
 298              		.loc 1 184 0
 299 0014 7080BD08 		ldmeqfd	sp!, {r4, r5, r6, pc}
 300              	.LVL19:
 301              	.L27:
 302              		.loc 1 185 0
 303 0018 0C3094E5 		ldr	r3, [r4, #12]
 304              		.loc 1 186 0
 305 001c 040094E5 		ldr	r0, [r4, #4]
 306              		.loc 1 185 0
 307 0020 063083E1 		orr	r3, r3, r6
 308 0024 0C3084E5 		str	r3, [r4, #12]
 309              		.loc 1 186 0
 310 0028 081094E5 		ldr	r1, [r4, #8]
 311 002c FEFFFFEB 		bl	chEvtSignalI
 312              	.LVL20:
 313              		.loc 1 187 0
 314 0030 004094E5 		ldr	r4, [r4]
 315              	.LVL21:
 316              		.loc 1 184 0
 317 0034 040055E1 		cmp	r5, r4
 318 0038 F6FFFF1A 		bne	.L27
 319 003c 7080BDE8 		ldmfd	sp!, {r4, r5, r6, pc}
 320              		.cfi_endproc
 321              	.LFE11:
 322              		.size	chEvtBroadcastFlagsI, .-chEvtBroadcastFlagsI
 323              		.section	.text.chEvtSignal,"ax",%progbits
 324              		.align	2
 325              		.global	chEvtSignal
 326              		.type	chEvtSignal, %function
 327              	chEvtSignal:
 328              	.LFB13:
 329              		.loc 1 222 0
 330              		.cfi_startproc
 331              		@ args = 0, pretend = 0, frame = 0
 332              		@ frame_needed = 0, uses_anonymous_args = 0
 333              	.LVL22:
 334 0000 04E02DE5 		str	lr, [sp, #-4]!
 335              		.cfi_def_cfa_offset 4
 336              		.cfi_offset 14, -4
 337              		.loc 1 226 0
 338              	@ 226 "../../../os/kernel/src/chevents.c" 1
 339 0004 9FF021E3 		msr     CPSR_c, #0x9F
 340              	@ 0 "" 2
 341              		.loc 1 227 0
 342 0008 FEFFFFEB 		bl	chEvtSignalI
ARM GAS  /tmp/cclSMV53.s 			page 7


 343              	.LVL23:
 344              		.loc 1 228 0
 345 000c FEFFFFEB 		bl	chSchRescheduleS
 346              	.LVL24:
 347              		.loc 1 229 0
 348              	@ 229 "../../../os/kernel/src/chevents.c" 1
 349 0010 1FF021E3 		msr     CPSR_c, #0x1F
 350              	@ 0 "" 2
 351 0014 04F09DE4 		ldr	pc, [sp], #4
 352              		.cfi_endproc
 353              	.LFE13:
 354              		.size	chEvtSignal, .-chEvtSignal
 355              		.section	.text.chEvtBroadcastFlags,"ax",%progbits
 356              		.align	2
 357              		.global	chEvtBroadcastFlags
 358              		.type	chEvtBroadcastFlags, %function
 359              	chEvtBroadcastFlags:
 360              	.LFB15:
 361              		.loc 1 271 0
 362              		.cfi_startproc
 363              		@ args = 0, pretend = 0, frame = 0
 364              		@ frame_needed = 0, uses_anonymous_args = 0
 365              	.LVL25:
 366 0000 04E02DE5 		str	lr, [sp, #-4]!
 367              		.cfi_def_cfa_offset 4
 368              		.cfi_offset 14, -4
 369              		.loc 1 273 0
 370              	@ 273 "../../../os/kernel/src/chevents.c" 1
 371 0004 9FF021E3 		msr     CPSR_c, #0x9F
 372              	@ 0 "" 2
 373              		.loc 1 274 0
 374 0008 FEFFFFEB 		bl	chEvtBroadcastFlagsI
 375              	.LVL26:
 376              		.loc 1 275 0
 377 000c FEFFFFEB 		bl	chSchRescheduleS
 378              	.LVL27:
 379              		.loc 1 276 0
 380              	@ 276 "../../../os/kernel/src/chevents.c" 1
 381 0010 1FF021E3 		msr     CPSR_c, #0x1F
 382              	@ 0 "" 2
 383 0014 04F09DE4 		ldr	pc, [sp], #4
 384              		.cfi_endproc
 385              	.LFE15:
 386              		.size	chEvtBroadcastFlags, .-chEvtBroadcastFlags
 387              		.section	.text.chEvtGetAndClearFlagsI,"ax",%progbits
 388              		.align	2
 389              		.global	chEvtGetAndClearFlagsI
 390              		.type	chEvtGetAndClearFlagsI, %function
 391              	chEvtGetAndClearFlagsI:
 392              	.LFB16:
 393              		.loc 1 290 0
 394              		.cfi_startproc
 395              		@ args = 0, pretend = 0, frame = 0
 396              		@ frame_needed = 0, uses_anonymous_args = 0
 397              		@ link register save eliminated.
 398              	.LVL28:
 399              		.loc 1 290 0
ARM GAS  /tmp/cclSMV53.s 			page 8


 400 0000 0030A0E1 		mov	r3, r0
 401              		.loc 1 294 0
 402 0004 0020A0E3 		mov	r2, #0
 403              		.loc 1 293 0
 404 0008 0C0090E5 		ldr	r0, [r0, #12]
 405              	.LVL29:
 406              		.loc 1 294 0
 407 000c 0C2083E5 		str	r2, [r3, #12]
 408              		.loc 1 297 0
 409 0010 1EFF2FE1 		bx	lr
 410              		.cfi_endproc
 411              	.LFE16:
 412              		.size	chEvtGetAndClearFlagsI, .-chEvtGetAndClearFlagsI
 413              		.section	.text.chEvtDispatch,"ax",%progbits
 414              		.align	2
 415              		.global	chEvtDispatch
 416              		.type	chEvtDispatch, %function
 417              	chEvtDispatch:
 418              	.LFB17:
 419              		.loc 1 308 0
 420              		.cfi_startproc
 421              		@ args = 0, pretend = 0, frame = 0
 422              		@ frame_needed = 0, uses_anonymous_args = 0
 423              	.LVL30:
 424 0000 F0402DE9 		stmfd	sp!, {r4, r5, r6, r7, lr}
 425              		.cfi_def_cfa_offset 20
 426              		.cfi_offset 4, -20
 427              		.cfi_offset 5, -16
 428              		.cfi_offset 6, -12
 429              		.cfi_offset 7, -8
 430              		.cfi_offset 14, -4
 431              		.loc 1 314 0
 432 0004 005051E2 		subs	r5, r1, #0
 433 0008 F080BD08 		ldmeqfd	sp!, {r4, r5, r6, r7, pc}
 434 000c 0070A0E1 		mov	r7, r0
 435 0010 0040A0E3 		mov	r4, #0
 436              		.loc 1 315 0
 437 0014 0160A0E3 		mov	r6, #1
 438              	.LVL31:
 439              	.L38:
 440 0018 1634A0E1 		mov	r3, r6, asl r4
 441 001c 050013E1 		tst	r3, r5
 442              		.loc 1 322 0
 443 0020 01408402 		addeq	r4, r4, #1
 444              	.LVL32:
 445              		.loc 1 315 0
 446 0024 FBFFFF0A 		beq	.L38
 447              		.loc 1 319 0
 448 0028 0350C5E1 		bic	r5, r5, r3
 449              	.LVL33:
 450              		.loc 1 320 0
 451 002c 0400A0E1 		mov	r0, r4
 452 0030 043197E7 		ldr	r3, [r7, r4, asl #2]
 453 0034 33FF2FE1 		blx	r3
 454              	.LVL34:
 455              		.loc 1 314 0
 456 0038 000055E3 		cmp	r5, #0
ARM GAS  /tmp/cclSMV53.s 			page 9


 457              		.loc 1 322 0
 458 003c 014084E2 		add	r4, r4, #1
 459              	.LVL35:
 460              		.loc 1 314 0
 461 0040 F4FFFF1A 		bne	.L38
 462 0044 F080BDE8 		ldmfd	sp!, {r4, r5, r6, r7, pc}
 463              		.cfi_endproc
 464              	.LFE17:
 465              		.size	chEvtDispatch, .-chEvtDispatch
 466              		.section	.text.chEvtWaitOne,"ax",%progbits
 467              		.align	2
 468              		.global	chEvtWaitOne
 469              		.type	chEvtWaitOne, %function
 470              	chEvtWaitOne:
 471              	.LFB18:
 472              		.loc 1 343 0
 473              		.cfi_startproc
 474              		@ args = 0, pretend = 0, frame = 0
 475              		@ frame_needed = 0, uses_anonymous_args = 0
 476              	.LVL36:
 477              		.loc 1 344 0
 478 0000 44309FE5 		ldr	r3, .L46
 479              		.loc 1 343 0
 480 0004 30402DE9 		stmfd	sp!, {r4, r5, lr}
 481              		.cfi_def_cfa_offset 12
 482              		.cfi_offset 4, -12
 483              		.cfi_offset 5, -8
 484              		.cfi_offset 14, -4
 485              		.loc 1 344 0
 486 0008 105093E5 		ldr	r5, [r3, #16]
 487              	.LVL37:
 488              		.loc 1 347 0
 489              	@ 347 "../../../os/kernel/src/chevents.c" 1
 490 000c 9FF021E3 		msr     CPSR_c, #0x9F
 491              	@ 0 "" 2
 492              		.loc 1 349 0
 493 0010 1C3095E5 		ldr	r3, [r5, #28]
 494              	.LVL38:
 495 0014 032010E0 		ands	r2, r0, r3
 496              	.LVL39:
 497 0018 0500001A 		bne	.L44
 498 001c 0040A0E1 		mov	r4, r0
 499              		.loc 1 350 0
 500 0020 140085E5 		str	r0, [r5, #20]
 501              		.loc 1 351 0
 502 0024 0800A0E3 		mov	r0, #8
 503              	.LVL40:
 504 0028 FEFFFFEB 		bl	chSchGoSleepS
 505              	.LVL41:
 506              		.loc 1 352 0
 507 002c 1C3095E5 		ldr	r3, [r5, #28]
 508 0030 032004E0 		and	r2, r4, r3
 509              	.LVL42:
 510              	.L44:
 511              		.loc 1 354 0
 512 0034 000062E2 		rsb	r0, r2, #0
 513 0038 020000E0 		and	r0, r0, r2
ARM GAS  /tmp/cclSMV53.s 			page 10


 514              	.LVL43:
 515              		.loc 1 355 0
 516 003c 0030C3E1 		bic	r3, r3, r0
 517 0040 1C3085E5 		str	r3, [r5, #28]
 518              		.loc 1 357 0
 519              	@ 357 "../../../os/kernel/src/chevents.c" 1
 520 0044 1FF021E3 		msr     CPSR_c, #0x1F
 521              	@ 0 "" 2
 522              		.loc 1 359 0
 523 0048 3080BDE8 		ldmfd	sp!, {r4, r5, pc}
 524              	.L47:
 525              		.align	2
 526              	.L46:
 527 004c 00000000 		.word	rlist
 528              		.cfi_endproc
 529              	.LFE18:
 530              		.size	chEvtWaitOne, .-chEvtWaitOne
 531              		.section	.text.chEvtWaitAny,"ax",%progbits
 532              		.align	2
 533              		.global	chEvtWaitAny
 534              		.type	chEvtWaitAny, %function
 535              	chEvtWaitAny:
 536              	.LFB19:
 537              		.loc 1 372 0
 538              		.cfi_startproc
 539              		@ args = 0, pretend = 0, frame = 0
 540              		@ frame_needed = 0, uses_anonymous_args = 0
 541              	.LVL44:
 542              		.loc 1 373 0
 543 0000 40309FE5 		ldr	r3, .L51
 544              		.loc 1 372 0
 545 0004 30402DE9 		stmfd	sp!, {r4, r5, lr}
 546              		.cfi_def_cfa_offset 12
 547              		.cfi_offset 4, -12
 548              		.cfi_offset 5, -8
 549              		.cfi_offset 14, -4
 550              		.loc 1 373 0
 551 0008 105093E5 		ldr	r5, [r3, #16]
 552              	.LVL45:
 553              		.loc 1 376 0
 554              	@ 376 "../../../os/kernel/src/chevents.c" 1
 555 000c 9FF021E3 		msr     CPSR_c, #0x9F
 556              	@ 0 "" 2
 557              		.loc 1 378 0
 558 0010 1C3095E5 		ldr	r3, [r5, #28]
 559              	.LVL46:
 560 0014 034010E0 		ands	r4, r0, r3
 561              	.LVL47:
 562 0018 0500001A 		bne	.L49
 563 001c 0040A0E1 		mov	r4, r0
 564              	.LVL48:
 565              		.loc 1 379 0
 566 0020 140085E5 		str	r0, [r5, #20]
 567              		.loc 1 380 0
 568 0024 0800A0E3 		mov	r0, #8
 569              	.LVL49:
 570 0028 FEFFFFEB 		bl	chSchGoSleepS
ARM GAS  /tmp/cclSMV53.s 			page 11


 571              	.LVL50:
 572              		.loc 1 381 0
 573 002c 1C3095E5 		ldr	r3, [r5, #28]
 574 0030 034004E0 		and	r4, r4, r3
 575              	.LVL51:
 576              	.L49:
 577              		.loc 1 383 0
 578 0034 0430C3E1 		bic	r3, r3, r4
 579 0038 1C3085E5 		str	r3, [r5, #28]
 580              		.loc 1 385 0
 581              	@ 385 "../../../os/kernel/src/chevents.c" 1
 582 003c 1FF021E3 		msr     CPSR_c, #0x1F
 583              	@ 0 "" 2
 584              		.loc 1 387 0
 585 0040 0400A0E1 		mov	r0, r4
 586 0044 3080BDE8 		ldmfd	sp!, {r4, r5, pc}
 587              	.L52:
 588              		.align	2
 589              	.L51:
 590 0048 00000000 		.word	rlist
 591              		.cfi_endproc
 592              	.LFE19:
 593              		.size	chEvtWaitAny, .-chEvtWaitAny
 594              		.section	.text.chEvtWaitAll,"ax",%progbits
 595              		.align	2
 596              		.global	chEvtWaitAll
 597              		.type	chEvtWaitAll, %function
 598              	chEvtWaitAll:
 599              	.LFB20:
 600              		.loc 1 400 0
 601              		.cfi_startproc
 602              		@ args = 0, pretend = 0, frame = 0
 603              		@ frame_needed = 0, uses_anonymous_args = 0
 604              	.LVL52:
 605              		.loc 1 401 0
 606 0000 40309FE5 		ldr	r3, .L56
 607              		.loc 1 400 0
 608 0004 30402DE9 		stmfd	sp!, {r4, r5, lr}
 609              		.cfi_def_cfa_offset 12
 610              		.cfi_offset 4, -12
 611              		.cfi_offset 5, -8
 612              		.cfi_offset 14, -4
 613              		.loc 1 400 0
 614 0008 0040A0E1 		mov	r4, r0
 615              		.loc 1 401 0
 616 000c 105093E5 		ldr	r5, [r3, #16]
 617              	.LVL53:
 618              		.loc 1 403 0
 619              	@ 403 "../../../os/kernel/src/chevents.c" 1
 620 0010 9FF021E3 		msr     CPSR_c, #0x9F
 621              	@ 0 "" 2
 622              		.loc 1 405 0
 623 0014 1C3095E5 		ldr	r3, [r5, #28]
 624 0018 032000E0 		and	r2, r0, r3
 625 001c 000052E1 		cmp	r2, r0
 626 0020 0300000A 		beq	.L54
 627              		.loc 1 406 0
ARM GAS  /tmp/cclSMV53.s 			page 12


 628 0024 140085E5 		str	r0, [r5, #20]
 629              		.loc 1 407 0
 630 0028 0900A0E3 		mov	r0, #9
 631              	.LVL54:
 632 002c FEFFFFEB 		bl	chSchGoSleepS
 633              	.LVL55:
 634 0030 1C3095E5 		ldr	r3, [r5, #28]
 635              	.L54:
 636              		.loc 1 409 0
 637 0034 0430C3E1 		bic	r3, r3, r4
 638 0038 1C3085E5 		str	r3, [r5, #28]
 639              		.loc 1 411 0
 640              	@ 411 "../../../os/kernel/src/chevents.c" 1
 641 003c 1FF021E3 		msr     CPSR_c, #0x1F
 642              	@ 0 "" 2
 643              		.loc 1 413 0
 644 0040 0400A0E1 		mov	r0, r4
 645 0044 3080BDE8 		ldmfd	sp!, {r4, r5, pc}
 646              	.L57:
 647              		.align	2
 648              	.L56:
 649 0048 00000000 		.word	rlist
 650              		.cfi_endproc
 651              	.LFE20:
 652              		.size	chEvtWaitAll, .-chEvtWaitAll
 653              		.text
 654              	.Letext0:
 655              		.file 2 "/usr/include/newlib/machine/_default_types.h"
 656              		.file 3 "/usr/include/newlib/sys/_stdint.h"
 657              		.file 4 "../../../os/ports/GCC/ARM/chtypes.h"
 658              		.file 5 "../../../os/kernel/include/chlists.h"
 659              		.file 6 "../../../os/kernel/include/chthreads.h"
 660              		.file 7 "../../../os/ports/GCC/ARM/chcore.h"
 661              		.file 8 "../../../os/kernel/include/chschd.h"
 662              		.file 9 "../../../os/kernel/include/chmtx.h"
 663              		.file 10 "../../../os/kernel/include/chevents.h"