ARM GAS  /tmp/ccEpMqtQ.s 			page 1


   1              		.file	"chmtx.c"
   2              		.text
   3              	.Ltext0:
   4              		.cfi_sections	.debug_frame
   5              		.section	.text.chMtxInit,"ax",%progbits
   6              		.align	2
   7              		.global	chMtxInit
   8              		.type	chMtxInit, %function
   9              	chMtxInit:
  10              	.LFB7:
  11              		.file 1 "../../../os/kernel/src/chmtx.c"
  12              		.loc 1 79 0
  13              		.cfi_startproc
  14              		@ args = 0, pretend = 0, frame = 0
  15              		@ frame_needed = 0, uses_anonymous_args = 0
  16              		@ link register save eliminated.
  17              	.LVL0:
  18              		.loc 1 84 0
  19 0000 0030A0E3 		mov	r3, #0
  20              		.loc 1 83 0
  21 0004 040080E5 		str	r0, [r0, #4]
  22 0008 000080E5 		str	r0, [r0]
  23              		.loc 1 84 0
  24 000c 083080E5 		str	r3, [r0, #8]
  25 0010 1EFF2FE1 		bx	lr
  26              		.cfi_endproc
  27              	.LFE7:
  28              		.size	chMtxInit, .-chMtxInit
  29              		.section	.text.chMtxLockS,"ax",%progbits
  30              		.align	2
  31              		.global	chMtxLockS
  32              		.type	chMtxLockS, %function
  33              	chMtxLockS:
  34              	.LFB9:
  35              		.loc 1 114 0
  36              		.cfi_startproc
  37              		@ args = 0, pretend = 0, frame = 0
  38              		@ frame_needed = 0, uses_anonymous_args = 0
  39              	.LVL1:
  40              		.loc 1 121 0
  41 0000 082090E5 		ldr	r2, [r0, #8]
  42              		.loc 1 115 0
  43 0004 10319FE5 		ldr	r3, .L21
  44              		.loc 1 121 0
  45 0008 000052E3 		cmp	r2, #0
  46              		.loc 1 114 0
  47 000c 30402DE9 		stmfd	sp!, {r4, r5, lr}
  48              		.cfi_def_cfa_offset 12
  49              		.cfi_offset 4, -12
  50              		.cfi_offset 5, -8
  51              		.cfi_offset 14, -4
  52              		.loc 1 115 0
  53 0010 104093E5 		ldr	r4, [r3, #16]
  54              	.LVL2:
  55              		.loc 1 121 0
  56 0014 3B00000A 		beq	.L3
  57 0018 0050A0E1 		mov	r5, r0
ARM GAS  /tmp/ccEpMqtQ.s 			page 2


  58              	.LVL3:
  59              	.LBB23:
  60              		.loc 1 128 0
  61 001c 083092E5 		ldr	r3, [r2, #8]
  62 0020 080094E5 		ldr	r0, [r4, #8]
  63              	.LVL4:
  64 0024 030050E1 		cmp	r0, r3
  65 0028 1D00009A 		bls	.L5
  66              	.L9:
  67              		.loc 1 132 0
  68 002c 1030D2E5 		ldrb	r3, [r2, #16]	@ zero_extendqisi2
  69              		.loc 1 130 0
  70 0030 080082E5 		str	r0, [r2, #8]
  71              		.loc 1 132 0
  72 0034 000053E3 		cmp	r3, #0
  73 0038 2B00000A 		beq	.L6
  74 003c 040053E3 		cmp	r3, #4
  75 0040 1700001A 		bne	.L5
  76              	.LVL5:
  77              	.LBB24:
  78              	.LBB25:
  79              		.file 2 "../../../os/kernel/include/chinline.h"
  80              		.loc 2 68 0
  81 0044 00E092E5 		ldr	lr, [r2]
  82 0048 041092E5 		ldr	r1, [r2, #4]
  83              	.LBE25:
  84              	.LBE24:
  85              		.loc 1 135 0
  86 004c 14C092E5 		ldr	ip, [r2, #20]
  87              	.LVL6:
  88              	.LBB28:
  89              	.LBB26:
  90              		.loc 2 68 0
  91 0050 00E081E5 		str	lr, [r1]
  92              		.loc 2 69 0
  93 0054 00E092E5 		ldr	lr, [r2]
  94              	.LBE26:
  95              	.LBE28:
  96              		.loc 1 135 0
  97 0058 0C30A0E1 		mov	r3, ip
  98              	.LBB29:
  99              	.LBB27:
 100              		.loc 2 69 0
 101 005c 04108EE5 		str	r1, [lr, #4]
 102 0060 020000EA 		b	.L11
 103              	.LVL7:
 104              	.L8:
 105              	.LBE27:
 106              	.LBE29:
 107              	.LBB30:
 108              	.LBB31:
 109              		.loc 2 39 0
 110 0064 081093E5 		ldr	r1, [r3, #8]
 111 0068 000051E1 		cmp	r1, r0
 112 006c 0200003A 		bcc	.L12
 113              	.L11:
 114              		.loc 2 38 0
ARM GAS  /tmp/ccEpMqtQ.s 			page 3


 115 0070 003093E5 		ldr	r3, [r3]
 116              	.LVL8:
 117              		.loc 2 39 0
 118 0074 03005CE1 		cmp	ip, r3
 119 0078 F9FFFF1A 		bne	.L8
 120              	.L12:
 121              		.loc 2 41 0
 122 007c 041093E5 		ldr	r1, [r3, #4]
 123              		.loc 2 40 0
 124 0080 003082E5 		str	r3, [r2]
 125              		.loc 2 41 0
 126 0084 041082E5 		str	r1, [r2, #4]
 127              		.loc 2 42 0
 128 0088 042083E5 		str	r2, [r3, #4]
 129 008c 002081E5 		str	r2, [r1]
 130              	.LBE31:
 131              	.LBE30:
 132              		.loc 1 136 0
 133 0090 08209CE5 		ldr	r2, [ip, #8]
 134              	.LVL9:
 135              		.loc 1 128 0
 136 0094 080094E5 		ldr	r0, [r4, #8]
 137 0098 083092E5 		ldr	r3, [r2, #8]
 138              	.LVL10:
 139 009c 000053E1 		cmp	r3, r0
 140 00a0 E1FFFF3A 		bcc	.L9
 141              	.LVL11:
 142              	.L5:
 143              	.LBB32:
 144              	.LBB33:
 145              		.loc 2 36 0
 146 00a4 0530A0E1 		mov	r3, r5
 147 00a8 030000EA 		b	.L14
 148              	.LVL12:
 149              	.L13:
 150              		.loc 2 39 0
 151 00ac 081093E5 		ldr	r1, [r3, #8]
 152 00b0 082094E5 		ldr	r2, [r4, #8]
 153 00b4 020051E1 		cmp	r1, r2
 154 00b8 0200003A 		bcc	.L15
 155              	.L14:
 156              		.loc 2 38 0
 157 00bc 003093E5 		ldr	r3, [r3]
 158              	.LVL13:
 159              		.loc 2 39 0
 160 00c0 030055E1 		cmp	r5, r3
 161 00c4 F8FFFF1A 		bne	.L13
 162              	.L15:
 163              		.loc 2 41 0
 164 00c8 042093E5 		ldr	r2, [r3, #4]
 165              		.loc 2 40 0
 166 00cc 003084E5 		str	r3, [r4]
 167              		.loc 2 41 0
 168 00d0 042084E5 		str	r2, [r4, #4]
 169              		.loc 2 42 0
 170 00d4 044083E5 		str	r4, [r3, #4]
 171 00d8 004082E5 		str	r4, [r2]
ARM GAS  /tmp/ccEpMqtQ.s 			page 4


 172              	.LBE33:
 173              	.LBE32:
 174              		.loc 1 167 0
 175 00dc 145084E5 		str	r5, [r4, #20]
 176              		.loc 1 168 0
 177 00e0 0400A0E3 		mov	r0, #4
 178              	.LBE23:
 179              		.loc 1 180 0
 180 00e4 3040BDE8 		ldmfd	sp!, {r4, r5, lr}
 181              		.cfi_remember_state
 182              		.cfi_restore 14
 183              		.cfi_restore 5
 184              		.cfi_restore 4
 185              		.cfi_def_cfa_offset 0
 186              	.LVL14:
 187              	.LBB38:
 188              		.loc 1 168 0
 189 00e8 FEFFFFEA 		b	chSchGoSleepS
 190              	.LVL15:
 191              	.L6:
 192              		.cfi_restore_state
 193              	.LBB34:
 194              	.LBB35:
 195              		.loc 2 68 0
 196 00ec 0A0092E8 		ldmia	r2, {r1, r3}
 197 00f0 001083E5 		str	r1, [r3]
 198              	.LBE35:
 199              	.LBE34:
 200              		.loc 1 160 0
 201 00f4 0200A0E1 		mov	r0, r2
 202              	.LBB37:
 203              	.LBB36:
 204              		.loc 2 69 0
 205 00f8 002092E5 		ldr	r2, [r2]
 206              	.LVL16:
 207 00fc 043082E5 		str	r3, [r2, #4]
 208              	.LBE36:
 209              	.LBE37:
 210              		.loc 1 160 0
 211 0100 FEFFFFEB 		bl	chSchReadyI
 212              	.LVL17:
 213              		.loc 1 161 0
 214 0104 E6FFFFEA 		b	.L5
 215              	.LVL18:
 216              	.L3:
 217              	.LBE38:
 218              		.loc 1 177 0
 219 0108 203094E5 		ldr	r3, [r4, #32]
 220              		.loc 1 176 0
 221 010c 084080E5 		str	r4, [r0, #8]
 222              		.loc 1 177 0
 223 0110 0C3080E5 		str	r3, [r0, #12]
 224              		.loc 1 178 0
 225 0114 200084E5 		str	r0, [r4, #32]
 226 0118 3080BDE8 		ldmfd	sp!, {r4, r5, pc}
 227              	.L22:
 228              		.align	2
ARM GAS  /tmp/ccEpMqtQ.s 			page 5


 229              	.L21:
 230 011c 00000000 		.word	rlist
 231              		.cfi_endproc
 232              	.LFE9:
 233              		.size	chMtxLockS, .-chMtxLockS
 234              		.section	.text.chMtxLock,"ax",%progbits
 235              		.align	2
 236              		.global	chMtxLock
 237              		.type	chMtxLock, %function
 238              	chMtxLock:
 239              	.LFB8:
 240              		.loc 1 96 0
 241              		.cfi_startproc
 242              		@ args = 0, pretend = 0, frame = 0
 243              		@ frame_needed = 0, uses_anonymous_args = 0
 244              	.LVL19:
 245 0000 04E02DE5 		str	lr, [sp, #-4]!
 246              		.cfi_def_cfa_offset 4
 247              		.cfi_offset 14, -4
 248              		.loc 1 98 0
 249              	@ 98 "../../../os/kernel/src/chmtx.c" 1
 250 0004 9FF021E3 		msr     CPSR_c, #0x9F
 251              	@ 0 "" 2
 252              		.loc 1 100 0
 253 0008 FEFFFFEB 		bl	chMtxLockS
 254              	.LVL20:
 255              		.loc 1 102 0
 256              	@ 102 "../../../os/kernel/src/chmtx.c" 1
 257 000c 1FF021E3 		msr     CPSR_c, #0x1F
 258              	@ 0 "" 2
 259 0010 04F09DE4 		ldr	pc, [sp], #4
 260              		.cfi_endproc
 261              	.LFE8:
 262              		.size	chMtxLock, .-chMtxLock
 263              		.section	.text.chMtxTryLock,"ax",%progbits
 264              		.align	2
 265              		.global	chMtxTryLock
 266              		.type	chMtxTryLock, %function
 267              	chMtxTryLock:
 268              	.LFB10:
 269              		.loc 1 199 0
 270              		.cfi_startproc
 271              		@ args = 0, pretend = 0, frame = 0
 272              		@ frame_needed = 0, uses_anonymous_args = 0
 273              		@ link register save eliminated.
 274              	.LVL21:
 275              		.loc 1 199 0
 276 0000 0030A0E1 		mov	r3, r0
 277              		.loc 1 202 0
 278              	@ 202 "../../../os/kernel/src/chmtx.c" 1
 279 0004 9FF021E3 		msr     CPSR_c, #0x9F
 280              	@ 0 "" 2
 281              	.LVL22:
 282              	.LBB43:
 283              	.LBB44:
 284              		.loc 1 232 0
 285 0008 082090E5 		ldr	r2, [r0, #8]
ARM GAS  /tmp/ccEpMqtQ.s 			page 6


 286 000c 000052E3 		cmp	r2, #0
 287              	.LVL23:
 288              	.LBB45:
 289              	.LBB46:
 290              		.loc 1 234 0
 291 0010 20209F05 		ldreq	r2, .L28
 292              		.loc 1 236 0
 293 0014 0100A003 		moveq	r0, #1
 294              	.LVL24:
 295              		.loc 1 234 0
 296 0018 10209205 		ldreq	r2, [r2, #16]
 297              	.LBE46:
 298              	.LBE45:
 299              		.loc 1 233 0
 300 001c 0000A013 		movne	r0, #0
 301              	.LBB48:
 302              	.LBB47:
 303              		.loc 1 235 0
 304 0020 20109205 		ldreq	r1, [r2, #32]
 305              		.loc 1 234 0
 306 0024 08208305 		streq	r2, [r3, #8]
 307              		.loc 1 235 0
 308 0028 0C108305 		streq	r1, [r3, #12]
 309              		.loc 1 236 0
 310 002c 20308205 		streq	r3, [r2, #32]
 311              	.LBE47:
 312              	.LBE48:
 313              	.LBE44:
 314              	.LBE43:
 315              		.loc 1 206 0
 316              	@ 206 "../../../os/kernel/src/chmtx.c" 1
 317 0030 1FF021E3 		msr     CPSR_c, #0x1F
 318              	@ 0 "" 2
 319              		.loc 1 208 0
 320 0034 1EFF2FE1 		bx	lr
 321              	.L29:
 322              		.align	2
 323              	.L28:
 324 0038 00000000 		.word	rlist
 325              		.cfi_endproc
 326              	.LFE10:
 327              		.size	chMtxTryLock, .-chMtxTryLock
 328              		.section	.text.chMtxTryLockS,"ax",%progbits
 329              		.align	2
 330              		.global	chMtxTryLockS
 331              		.type	chMtxTryLockS, %function
 332              	chMtxTryLockS:
 333              	.LFB11:
 334              		.loc 1 227 0
 335              		.cfi_startproc
 336              		@ args = 0, pretend = 0, frame = 0
 337              		@ frame_needed = 0, uses_anonymous_args = 0
 338              		@ link register save eliminated.
 339              	.LVL25:
 340              		.loc 1 227 0
 341 0000 0030A0E1 		mov	r3, r0
 342              		.loc 1 232 0
ARM GAS  /tmp/ccEpMqtQ.s 			page 7


 343 0004 082090E5 		ldr	r2, [r0, #8]
 344 0008 000052E3 		cmp	r2, #0
 345              	.LVL26:
 346              	.LBB51:
 347              	.LBB52:
 348              		.loc 1 234 0
 349 000c 1C209F05 		ldreq	r2, .L33
 350              		.loc 1 236 0
 351 0010 0100A003 		moveq	r0, #1
 352              	.LVL27:
 353              		.loc 1 234 0
 354 0014 10209205 		ldreq	r2, [r2, #16]
 355              	.LBE52:
 356              	.LBE51:
 357              		.loc 1 233 0
 358 0018 0000A013 		movne	r0, #0
 359              	.LBB54:
 360              	.LBB53:
 361              		.loc 1 235 0
 362 001c 20109205 		ldreq	r1, [r2, #32]
 363              		.loc 1 234 0
 364 0020 08208305 		streq	r2, [r3, #8]
 365              		.loc 1 235 0
 366 0024 0C108305 		streq	r1, [r3, #12]
 367              		.loc 1 236 0
 368 0028 20308205 		streq	r3, [r2, #32]
 369              	.LBE53:
 370              	.LBE54:
 371              		.loc 1 238 0
 372 002c 1EFF2FE1 		bx	lr
 373              	.L34:
 374              		.align	2
 375              	.L33:
 376 0030 00000000 		.word	rlist
 377              		.cfi_endproc
 378              	.LFE11:
 379              		.size	chMtxTryLockS, .-chMtxTryLockS
 380              		.section	.text.chMtxUnlock,"ax",%progbits
 381              		.align	2
 382              		.global	chMtxUnlock
 383              		.type	chMtxUnlock, %function
 384              	chMtxUnlock:
 385              	.LFB12:
 386              		.loc 1 250 0
 387              		.cfi_startproc
 388              		@ args = 0, pretend = 0, frame = 0
 389              		@ frame_needed = 0, uses_anonymous_args = 0
 390              		.loc 1 251 0
 391 0000 94309FE5 		ldr	r3, .L46
 392              		.loc 1 250 0
 393 0004 10402DE9 		stmfd	sp!, {r4, lr}
 394              		.cfi_def_cfa_offset 8
 395              		.cfi_offset 4, -8
 396              		.cfi_offset 14, -4
 397              		.loc 1 251 0
 398 0008 100093E5 		ldr	r0, [r3, #16]
 399              	.LVL28:
ARM GAS  /tmp/ccEpMqtQ.s 			page 8


 400              		.loc 1 254 0
 401              	@ 254 "../../../os/kernel/src/chmtx.c" 1
 402 000c 9FF021E3 		msr     CPSR_c, #0x9F
 403              	@ 0 "" 2
 404              		.loc 1 263 0
 405 0010 204090E5 		ldr	r4, [r0, #32]
 406              	.LVL29:
 407              		.loc 1 266 0
 408 0014 00C094E5 		ldr	ip, [r4]
 409              		.loc 1 264 0
 410 0018 0C3094E5 		ldr	r3, [r4, #12]
 411              		.loc 1 266 0
 412 001c 04005CE1 		cmp	ip, r4
 413              		.loc 1 264 0
 414 0020 203080E5 		str	r3, [r0, #32]
 415              		.loc 1 266 0
 416 0024 1900000A 		beq	.L36
 417              	.LBB55:
 418              		.loc 1 273 0
 419 0028 000053E3 		cmp	r3, #0
 420              		.loc 1 271 0
 421 002c 241090E5 		ldr	r1, [r0, #36]
 422              	.LVL30:
 423              		.loc 1 273 0
 424 0030 0800000A 		beq	.L37
 425              	.L39:
 426              		.loc 1 277 0
 427 0034 002093E5 		ldr	r2, [r3]
 428 0038 030052E1 		cmp	r2, r3
 429 003c 0200000A 		beq	.L38
 430              		.loc 1 277 0 is_stmt 0 discriminator 1
 431 0040 082092E5 		ldr	r2, [r2, #8]
 432 0044 020051E1 		cmp	r1, r2
 433 0048 0210A031 		movcc	r1, r2
 434              	.LVL31:
 435              	.L38:
 436              		.loc 1 279 0 is_stmt 1
 437 004c 0C3093E5 		ldr	r3, [r3, #12]
 438              	.LVL32:
 439              		.loc 1 273 0
 440 0050 000053E3 		cmp	r3, #0
 441 0054 F6FFFF1A 		bne	.L39
 442              	.L37:
 443              		.loc 1 288 0
 444 0058 20209CE5 		ldr	r2, [ip, #32]
 445              	.LBB56:
 446              	.LBB57:
 447              		.loc 2 55 0
 448 005c 00309CE5 		ldr	r3, [ip]
 449              	.LVL33:
 450              	.LBE57:
 451              	.LBE56:
 452              		.loc 1 283 0
 453 0060 081080E5 		str	r1, [r0, #8]
 454              	.LVL34:
 455              	.LBB60:
 456              	.LBB58:
ARM GAS  /tmp/ccEpMqtQ.s 			page 9


 457              		.loc 2 55 0
 458 0064 003084E5 		str	r3, [r4]
 459              	.LBE58:
 460              	.LBE60:
 461              		.loc 1 290 0
 462 0068 0C00A0E1 		mov	r0, ip
 463              	.LVL35:
 464              	.LBB61:
 465              	.LBB59:
 466              		.loc 2 55 0
 467 006c 044083E5 		str	r4, [r3, #4]
 468              	.LBE59:
 469              	.LBE61:
 470              		.loc 1 290 0
 471 0070 0010A0E3 		mov	r1, #0
 472              	.LVL36:
 473              		.loc 1 287 0
 474 0074 08C084E5 		str	ip, [r4, #8]
 475              		.loc 1 288 0
 476 0078 0C2084E5 		str	r2, [r4, #12]
 477              		.loc 1 289 0
 478 007c 20408CE5 		str	r4, [ip, #32]
 479              		.loc 1 290 0
 480 0080 FEFFFFEB 		bl	chSchWakeupS
 481              	.LVL37:
 482              	.L40:
 483              	.LBE55:
 484              		.loc 1 294 0
 485              	@ 294 "../../../os/kernel/src/chmtx.c" 1
 486 0084 1FF021E3 		msr     CPSR_c, #0x1F
 487              	@ 0 "" 2
 488              		.loc 1 296 0
 489 0088 0400A0E1 		mov	r0, r4
 490 008c 1080BDE8 		ldmfd	sp!, {r4, pc}
 491              	.LVL38:
 492              	.L36:
 493              		.loc 1 293 0
 494 0090 0030A0E3 		mov	r3, #0
 495 0094 083084E5 		str	r3, [r4, #8]
 496 0098 F9FFFFEA 		b	.L40
 497              	.L47:
 498              		.align	2
 499              	.L46:
 500 009c 00000000 		.word	rlist
 501              		.cfi_endproc
 502              	.LFE12:
 503              		.size	chMtxUnlock, .-chMtxUnlock
 504              		.section	.text.chMtxUnlockS,"ax",%progbits
 505              		.align	2
 506              		.global	chMtxUnlockS
 507              		.type	chMtxUnlockS, %function
 508              	chMtxUnlockS:
 509              	.LFB13:
 510              		.loc 1 310 0
 511              		.cfi_startproc
 512              		@ args = 0, pretend = 0, frame = 0
 513              		@ frame_needed = 0, uses_anonymous_args = 0
ARM GAS  /tmp/ccEpMqtQ.s 			page 10


 514              		.loc 1 311 0
 515 0000 8C309FE5 		ldr	r3, .L59
 516              		.loc 1 310 0
 517 0004 10402DE9 		stmfd	sp!, {r4, lr}
 518              		.cfi_def_cfa_offset 8
 519              		.cfi_offset 4, -8
 520              		.cfi_offset 14, -4
 521              		.loc 1 311 0
 522 0008 100093E5 		ldr	r0, [r3, #16]
 523              	.LVL39:
 524              		.loc 1 324 0
 525 000c 204090E5 		ldr	r4, [r0, #32]
 526              	.LVL40:
 527              		.loc 1 327 0
 528 0010 00C094E5 		ldr	ip, [r4]
 529              		.loc 1 325 0
 530 0014 0C3094E5 		ldr	r3, [r4, #12]
 531              		.loc 1 327 0
 532 0018 04005CE1 		cmp	ip, r4
 533              		.loc 1 325 0
 534 001c 203080E5 		str	r3, [r0, #32]
 535              		.loc 1 327 0
 536 0020 1700000A 		beq	.L49
 537              	.LBB62:
 538              		.loc 1 334 0
 539 0024 000053E3 		cmp	r3, #0
 540              		.loc 1 332 0
 541 0028 241090E5 		ldr	r1, [r0, #36]
 542              	.LVL41:
 543              		.loc 1 334 0
 544 002c 0800000A 		beq	.L50
 545              	.L52:
 546              		.loc 1 338 0
 547 0030 002093E5 		ldr	r2, [r3]
 548 0034 030052E1 		cmp	r2, r3
 549 0038 0200000A 		beq	.L51
 550              		.loc 1 338 0 is_stmt 0 discriminator 1
 551 003c 082092E5 		ldr	r2, [r2, #8]
 552 0040 020051E1 		cmp	r1, r2
 553 0044 0210A031 		movcc	r1, r2
 554              	.LVL42:
 555              	.L51:
 556              		.loc 1 340 0 is_stmt 1
 557 0048 0C3093E5 		ldr	r3, [r3, #12]
 558              	.LVL43:
 559              		.loc 1 334 0
 560 004c 000053E3 		cmp	r3, #0
 561 0050 F6FFFF1A 		bne	.L52
 562              	.L50:
 563              		.loc 1 347 0
 564 0054 20209CE5 		ldr	r2, [ip, #32]
 565              	.LBB63:
 566              	.LBB64:
 567              		.loc 2 55 0
 568 0058 00309CE5 		ldr	r3, [ip]
 569              	.LVL44:
 570              	.LBE64:
ARM GAS  /tmp/ccEpMqtQ.s 			page 11


 571              	.LBE63:
 572              		.loc 1 342 0
 573 005c 081080E5 		str	r1, [r0, #8]
 574              	.LVL45:
 575              	.LBB67:
 576              	.LBB65:
 577              		.loc 2 55 0
 578 0060 003084E5 		str	r3, [r4]
 579              	.LBE65:
 580              	.LBE67:
 581              		.loc 1 349 0
 582 0064 0C00A0E1 		mov	r0, ip
 583              	.LVL46:
 584              	.LBB68:
 585              	.LBB66:
 586              		.loc 2 55 0
 587 0068 044083E5 		str	r4, [r3, #4]
 588              	.LBE66:
 589              	.LBE68:
 590              		.loc 1 346 0
 591 006c 08C084E5 		str	ip, [r4, #8]
 592              		.loc 1 347 0
 593 0070 0C2084E5 		str	r2, [r4, #12]
 594              		.loc 1 348 0
 595 0074 20408CE5 		str	r4, [ip, #32]
 596              		.loc 1 349 0
 597 0078 FEFFFFEB 		bl	chSchReadyI
 598              	.LVL47:
 599              	.LBE62:
 600              		.loc 1 354 0
 601 007c 0400A0E1 		mov	r0, r4
 602 0080 1080BDE8 		ldmfd	sp!, {r4, pc}
 603              	.LVL48:
 604              	.L49:
 605              		.loc 1 352 0
 606 0084 0030A0E3 		mov	r3, #0
 607              		.loc 1 354 0
 608 0088 0400A0E1 		mov	r0, r4
 609              	.LVL49:
 610              		.loc 1 352 0
 611 008c 083084E5 		str	r3, [r4, #8]
 612              		.loc 1 354 0
 613 0090 1080BDE8 		ldmfd	sp!, {r4, pc}
 614              	.L60:
 615              		.align	2
 616              	.L59:
 617 0094 00000000 		.word	rlist
 618              		.cfi_endproc
 619              	.LFE13:
 620              		.size	chMtxUnlockS, .-chMtxUnlockS
 621              		.section	.text.chMtxUnlockAll,"ax",%progbits
 622              		.align	2
 623              		.global	chMtxUnlockAll
 624              		.type	chMtxUnlockAll, %function
 625              	chMtxUnlockAll:
 626              	.LFB14:
 627              		.loc 1 367 0
ARM GAS  /tmp/ccEpMqtQ.s 			page 12


 628              		.cfi_startproc
 629              		@ args = 0, pretend = 0, frame = 0
 630              		@ frame_needed = 0, uses_anonymous_args = 0
 631              		.loc 1 368 0
 632 0000 74309FE5 		ldr	r3, .L71
 633              		.loc 1 367 0
 634 0004 30402DE9 		stmfd	sp!, {r4, r5, lr}
 635              		.cfi_def_cfa_offset 12
 636              		.cfi_offset 4, -12
 637              		.cfi_offset 5, -8
 638              		.cfi_offset 14, -4
 639              		.loc 1 368 0
 640 0008 104093E5 		ldr	r4, [r3, #16]
 641              	.LVL50:
 642              		.loc 1 370 0
 643              	@ 370 "../../../os/kernel/src/chmtx.c" 1
 644 000c 9FF021E3 		msr     CPSR_c, #0x9F
 645              	@ 0 "" 2
 646              		.loc 1 371 0
 647 0010 203094E5 		ldr	r3, [r4, #32]
 648 0014 000053E3 		cmp	r3, #0
 649 0018 1500000A 		beq	.L62
 650              	.LBB69:
 651              		.loc 1 383 0
 652 001c 0050A0E3 		mov	r5, #0
 653              	.L65:
 654              	.LVL51:
 655              		.loc 1 375 0
 656 0020 002093E5 		ldr	r2, [r3]
 657              	.LVL52:
 658              		.loc 1 374 0
 659 0024 0C1093E5 		ldr	r1, [r3, #12]
 660              		.loc 1 375 0
 661 0028 030052E1 		cmp	r2, r3
 662              		.loc 1 374 0
 663 002c 201084E5 		str	r1, [r4, #32]
 664              		.loc 1 383 0
 665 0030 08508305 		streq	r5, [r3, #8]
 666              		.loc 1 375 0
 667 0034 0800000A 		beq	.L64
 668              	.LBB70:
 669              		.loc 1 378 0
 670 0038 20C092E5 		ldr	ip, [r2, #32]
 671              	.LBB71:
 672              	.LBB72:
 673              		.loc 2 55 0
 674 003c 001092E5 		ldr	r1, [r2]
 675              	.LBE72:
 676              	.LBE71:
 677              		.loc 1 380 0
 678 0040 0200A0E1 		mov	r0, r2
 679              	.LBB74:
 680              	.LBB73:
 681              		.loc 2 55 0
 682 0044 001083E5 		str	r1, [r3]
 683 0048 043081E5 		str	r3, [r1, #4]
 684              	.LBE73:
ARM GAS  /tmp/ccEpMqtQ.s 			page 13


 685              	.LBE74:
 686              		.loc 1 377 0
 687 004c 082083E5 		str	r2, [r3, #8]
 688              		.loc 1 378 0
 689 0050 0CC083E5 		str	ip, [r3, #12]
 690              		.loc 1 379 0
 691 0054 203082E5 		str	r3, [r2, #32]
 692              		.loc 1 380 0
 693 0058 FEFFFFEB 		bl	chSchReadyI
 694              	.LVL53:
 695              	.L64:
 696              	.LBE70:
 697              	.LBE69:
 698              		.loc 1 384 0
 699 005c 203094E5 		ldr	r3, [r4, #32]
 700 0060 000053E3 		cmp	r3, #0
 701 0064 EDFFFF1A 		bne	.L65
 702              		.loc 1 385 0
 703 0068 243094E5 		ldr	r3, [r4, #36]
 704 006c 083084E5 		str	r3, [r4, #8]
 705              		.loc 1 386 0
 706 0070 FEFFFFEB 		bl	chSchRescheduleS
 707              	.LVL54:
 708              	.L62:
 709              		.loc 1 388 0
 710              	@ 388 "../../../os/kernel/src/chmtx.c" 1
 711 0074 1FF021E3 		msr     CPSR_c, #0x1F
 712              	@ 0 "" 2
 713 0078 3080BDE8 		ldmfd	sp!, {r4, r5, pc}
 714              	.L72:
 715              		.align	2
 716              	.L71:
 717 007c 00000000 		.word	rlist
 718              		.cfi_endproc
 719              	.LFE14:
 720              		.size	chMtxUnlockAll, .-chMtxUnlockAll
 721              		.text
 722              	.Letext0:
 723              		.file 3 "/usr/include/newlib/machine/_default_types.h"
 724              		.file 4 "/usr/include/newlib/sys/_stdint.h"
 725              		.file 5 "../../../os/ports/GCC/ARM/chtypes.h"
 726              		.file 6 "../../../os/kernel/include/chlists.h"
 727              		.file 7 "../../../os/kernel/include/chthreads.h"
 728              		.file 8 "../../../os/ports/GCC/ARM/chcore.h"
 729              		.file 9 "../../../os/kernel/include/chschd.h"
 730              		.file 10 "../../../os/kernel/include/chmtx.h"