ARM GAS  /tmp/ccEpMqtQ.s 			page 1


   1              		.file	"chmtx.c"
   2              		.text
   3              	.Ltext0:
   4              		.cfi_sections	.debug_frame
   5              		.section	.text.chMtxInit,"ax",%progbits
   6              		.align	2
   7              		.global	chMtxInit
   8              		.type	chMtxInit, %function
   9              	chMtxInit:
  10              	.LFB7:
  11              		.file 1 "../../../os/kernel/src/chmtx.c"
  12              		.loc 1 79 0
  13              		.cfi_startproc
  14              		@ args = 0, pretend = 0, frame = 0
  15              		@ frame_needed = 0, uses_anonymous_args = 0
  16              		@ link register save eliminated.
  17              	.LVL0:
  18              		.loc 1 84 0
  19 0000 0030A0E3 		mov	r3, #0
  20              		.loc 1 83 0
  21 0004 040080E5 		str	r0, [r0, #4]
  22 0008 000080E5 		str	r0, [r0]
  23              		.loc 1 84 0
  24 000c 083080E5 		str	r3, [r0, #8]
  25 0010 1EFF2FE1 		bx	lr
  26              		.cfi_endproc
  27              	.LFE7:
  28              		.size	chMtxInit, .-chMtxInit
  29              		.section	.text.chMtxLockS,"ax",%progbits
  30              		.align	2
  31              		.global	chMtxLockS
  32              		.type	chMtxLockS, %function
  33              	chMtxLockS:
  34              	.LFB9:
  35              		.loc 1 114 0
  36              		.cfi_startproc
  37              		@ args = 0, pretend = 0, frame = 0
  38              		@ frame_needed = 0, uses_anonymous_args = 0
  39              	.LVL1:
  40              		.loc 1 121 0
  41 0000 082090E5 		ldr	r2, [r0, #8]
  42              		.loc 1 115 0
  43 0004 10319FE5 		ldr	r3, .L21
  44              		.loc 1 121 0
  45 0008 000052E3 		cmp	r2, #0
  46              		.loc 1 114 0
  47 000c 30402DE9 		stmfd	sp!, {r4, r5, lr}
  48              		.cfi_def_cfa_offset 12
  49              		.cfi_offset 4, -12
  50              		.cfi_offset 5, -8
  51              		.cfi_offset 14, -4
  52              		.loc 1 115 0
  53 0010 104093E5 		ldr	r4, [r3, #16]
  54              	.LVL2:
  55              		.loc 1 121 0
  56 0014 3B00000A 		beq	.L3
  57 0018 0050A0E1 		mov	r5, r0
ARM GAS  /tmp/ccEpMqtQ.s 			page 2


  58              	.LVL3:
  59              	.LBB23:
  60              		.loc 1 128 0
  61 001c 083092E5 		ldr	r3, [r2, #8]
  62 0020 080094E5 		ldr	r0, [r4, #8]
  63              	.LVL4:
  64 0024 030050E1 		cmp	r0, r3
  65 0028 1D00009A 		bls	.L5
  66              	.L9:
  67              		.loc 1 132 0
  68 002c 1030D2E5 		ldrb	r3, [r2, #16]	@ zero_extendqisi2
  69              		.loc 1 130 0
  70 0030 080082E5 		str	r0, [r2, #8]
  71              		.loc 1 132 0
  72 0034 000053E3 		cmp	r3, #0
  73 0038 2B00000A 		beq	.L6
  74 003c 040053E3 		cmp	r3, #4
  75 0040 1700001A 		bne	.L5
  76              	.LVL5:
  77              	.LBB24:
  78              	.LBB25:
  79              		.file 2 "../../../os/kernel/include/chinline.h"
  80              		.loc 2 68 0
  81 0044 00E092E5 		ldr	lr, [r2]
  82 0048 041092E5 		ldr	r1, [r2, #4]
  83              	.LBE25:
  84              	.LBE24:
  85              		.loc 1 135 0
  86 004c 14C092E5 		ldr	ip, [r2, #20]
  87              	.LVL6:
  88              	.LBB28:
  89              	.LBB26:
  90              		.loc 2 68 0
  91 0050 00E081E5 		str	lr, [r1]
  92              		.loc 2 69 0
  93 0054 00E092E5 		ldr	lr, [r2]
  94              	.LBE26:
  95              	.LBE28:
  96              		.loc 1 135 0
  97 0058 0C30A0E1 		mov	r3, ip
  98              	.LBB29:
  99              	.LBB27:
 100              		.loc 2 69 0
 101 005c 04108EE5 		str	r1, [lr, #4]
 102 0060 020000EA 		b	.L11
 103              	.LVL7:
 104              	.L8:
 105              	.LBE27:
 106              	.LBE29:
 107              	.LBB30:
 108              	.LBB31:
 109              		.loc 2 39 0
 110 0064 081093E5 		ldr	r1, [r3, #8]
 111 0068 000051E1 		cmp	r1, r0
 112 006c 0200003A 		bcc	.L12
 113              	.L11:
 114              		.loc 2 38 0
ARM GAS  /tmp/ccEpMqtQ.s 			page 3


 115 0070 003093E5 		ldr	r3, [r3]
 116              	.LVL8:
 117              		.loc 2 39 0
 118 0074 03005CE1 		cmp	ip, r3
 119 0078 F9FFFF1A 		bne	.L8
 120              	.L12:
 121              		.loc 2 41 0
 122 007c 041093E5 		ldr	r1, [r3, #4]
 123              		.loc 2 40 0
 124 0080 003082E5 		str	r3, [r2]
 125              		.loc 2 41 0
 126 0084 041082E5 		str	r1, [r2, #4]
 127              		.loc 2 42 0
 128 0088 042083E5 		str	r2, [r3, #4]
 129 008c 002081E5 		str	r2, [r1]
 130              	.LBE31:
 131              	.LBE30:
 132              		.loc 1 136 0
 133 0090 08209CE5 		ldr	r2, [ip, #8]
 134              	.LVL9:
 135              		.loc 1 128 0
 136 0094 080094E5 		ldr	r0, [r4, #8]
 137 0098 083092E5 		ldr	r3, [r2, #8]
 138              	.LVL10:
 139 009c 000053E1 		cmp	r3, r0
 140 00a0 E1FFFF3A 		bcc	.L9
 141              	.LVL11:
 142              	.L5:
 143              	.LBB32:
 144              	.LBB33:
 145              		.loc 2 36 0
 146 00a4 0530A0E1 		mov	r3, r5
 147 00a8 030000EA 		b	.L14
 148              	.LVL12:
 149              	.L13:
 150              		.loc 2 39 0
 151 00ac 081093E5 		ldr	r1, [r3, #8]
 152 00b0 082094E5 		ldr	r2, [r4, #8]
 153 00b4 020051E1 		cmp	r1, r2
 154 00b8 0200003A 		bcc	.L15
 155              	.L14:
 156              		.loc 2 38 0
 157 00bc 003093E5 		ldr	r3, [r3]
 158              	.LVL13:
 159              		.loc 2 39 0
 160 00c0 030055E1 		cmp	r5, r3
 161 00c4 F8FFFF1A 		bne	.L13
 162              	.L15:
 163              		.loc 2 41 0
 164 00c8 042093E5 		ldr	r2, [r3, #4]
 165              		.loc 2 40 0
 166 00cc 003084E5 		str	r3, [r4]
 167              		.loc 2 41 0
 168 00d0 042084E5 		str	r2, [r4, #4]
 169              		.loc 2 42 0
 170 00d4 044083E5 		str	r4, [r3, #4]
 171 00d8 004082E5 		str	r4, [r2]
ARM GAS  /tmp/ccEpMqtQ.s 			page 4


 172              	.LBE33:
 173              	.LBE32:
 174              		.loc 1 167 0
 175 00dc 145084E5 		str	r5, [r4, #20]
 176              		.loc 1 168 0
 177 00e0 0400A0E3 		mov	r0, #4
 178              	.LBE23:
 179              		.loc 1 180 0
 180 00e4 3040BDE8 		ldmfd	sp!, {r4, r5, lr}
 181              		.cfi_remember_state
 182              		.cfi_restore 14
 183              		.cfi_restore 5
 184              		.cfi_restore 4
 185              		.cfi_def_cfa_offset 0
 186              	.LVL14:
 187              	.LBB38:
 188              		.loc 1 168 0
 189 00e8 FEFFFFEA 		b	chSchGoSleepS
 190              	.LVL15:
 191              	.L6:
 192              		.cfi_restore_state
 193              	.LBB34:
 194              	.LBB35:
 195              		.loc 2 68 0
 196 00ec 0A0092E8 		ldmia	r2, {r1, r3}
 197 00f0 001083E5 		str	r1, [r3]
 198              	.LBE35:
 199              	.LBE34:
 200              		.loc 1 160 0
 201 00f4 0200A0E1 		mov	r0, r2
 202              	.LBB37:
 203              	.LBB36:
 204              		.loc 2 69 0
 205 00f8 002092E5 		ldr	r2, [r2]
 206              	.LVL16:
 207 00fc 043082E5 		str	r3, [r2, #4]
 208              	.LBE36:
 209              	.LBE37:
 210              		.loc 1 160 0
 211 0100 FEFFFFEB 		bl	chSchReadyI
 212              	.LVL17:
 213              		.loc 1 161 0
 214 0104 E6FFFFEA 		b	.L5
 215              	.LVL18:
 216              	.L3:
 217              	.LBE38:
 218              		.loc 1 177 0
 219 0108 203094E5 		ldr	r3, [r4, #32]
 220              		.loc 1 176 0
 221 010c 084080E5 		str	r4, [r0, #8]
 222              		.loc 1 177 0
 223 0110 0C3080E5 		str	r3, [r0, #12]
 224              		.loc 1 178 0
 225 0114 200084E5 		str	r0, [r4, #32]
 226 0118 3080BDE8 		ldmfd	sp!, {r4, r5, pc}
 227              	.L22:
 228              		.align	2
ARM GAS  /tmp/ccEpMqtQ.s 			page 5


 229              	.L21:
 230 011c 00000000 		.word	rlist
 231              		.cfi_endproc
 232              	.LFE9:
 233              		.size	chMtxLockS, .-chMtxLockS
 234              		.section	.text.chMtxLock,"ax",%progbits
 235              		.align	2
 236              		.global	chMtxLock
 237              		.type	chMtxLock, %function
 238              	chMtxLock:
 239              	.LFB8:
 240              		.loc 1 96 0
 241              		.cfi_startproc
 242              		@ args = 0, pretend = 0, frame = 0
 243              		@ frame_needed = 0, uses_anonymous_args = 0
 244              	.LVL19:
 245 0000 04E02DE5 		str	lr, [sp, #-4]!
 246              		.cfi_def_cfa_offset 4
 247              		.cfi_offset 14, -4
 248              		.loc 1 98 0
 249              	@ 98 "../../../os/kernel/src/chmtx.c" 1
 250 0004 9FF021E3 		msr     CPSR_c, #0x9F
 251              	@ 0 "" 2
 252              		.loc 1 100 0
 253 0008 FEFFFFEB 		bl	chMtxLockS
 254              	.LVL20:
 255              		.loc 1 102 0
 256              	@ 102 "../../../os/kernel/src/chmtx.c" 1
 257 000c 1FF021E3 		msr     CPSR_c, #0x1F
 258              	@ 0 "" 2
 259 0010 04F09DE4 		ldr	pc, [sp], #4
 260              		.cfi_endproc
 261              	.LFE8:
 262              		.size	chMtxLock, .-chMtxLock
 263              		.section	.text.chMtxTryLock,"ax",%progbits
 264              		.align	2
 265              		.global	chMtxTryLock
 266              		.type	chMtxTryLock, %function
 267              	chMtxTryLock:
 268              	.LFB10:
 269              		.loc 1 199 0
 270              		.cfi_startproc
 271              		@ args = 0, pretend = 0, frame = 0
 272              		@ frame_needed = 0, uses_anonymous_args = 0
 273              		@ link register save eliminated.
 274              	.LVL21:
 275              		.loc 1 199 0
 276 0000 0030A0E1 		mov	r3, r0
 277              		.loc 1 202 0
 278              	@ 202 "../../../os/kernel/src/chmtx.c" 1
 279 0004 9FF021E3 		msr     CPSR_c, #0x9F
 280              	@ 0 "" 2
 281              	.LVL22:
 282              	.LBB43:
 283              	.LBB44:
 284              		.loc 1 232 0
 285 0008 082090E5 		ldr	r2, [r0, #8]
ARM GAS  /tmp/ccEpMqtQ.s 			page 6


 286 000c 000052E3 		cmp	r2, #0
 287              	.LVL23:
 288              	.LBB45:
 289              	.LBB46:
 290              		.loc 1 234 0
 291 0010 20209F05 		ldreq	r2, .L28
 292              		.loc 1 236 0
 293 0014 0100A003 		moveq	r0, #1
 294              	.LVL24:
 295              		.loc 1 234 0
 296 0018 10209205 		ldreq	r2, [r2, #16]
 297              	.LBE46:
 298              	.LBE45:
 299              		.loc 1 233 0
 300 001c 0000A013 		movne	r0, #0
 301              	.LBB48:
 302              	.LBB47:
 303              		.loc 1 235 0
 304 0020 20109205 		ldreq	r1, [r2, #32]
 305              		.loc 1 234 0
 306 0024 08208305 		streq	r2, [r3, #8]
 307              		.loc 1 235 0
 308 0028 0C108305 		streq	r1, [r3, #12]
 309              		.loc 1 236 0
 310 002c 20308205 		streq	r3, [r2, #32]
 311              	.LBE47:
 312              	.LBE48:
 313              	.LBE44:
 314              	.LBE43:
 315              		.loc 1 206 0
 316              	@ 206 "../../../os/kernel/src/chmtx.c" 1
 317 0030 1FF021E3 		msr     CPSR_c, #0x1F
 318              	@ 0 "" 2
 319              		.loc 1 208 0
 320 0034 1EFF2FE1 		bx	lr
 321              	.L29:
 322              		.align	2
 323              	.L28:
 324 0038 00000000 		.word	rlist
 325              		.cfi_endproc
 326              	.LFE10:
 327              		.size	chMtxTryLock, .-chMtxTryLock
 328              		.section	.text.chMtxTryLockS,"ax",%progbits
 329              		.align	2
 330              		.global	chMtxTryLockS
 331              		.type	chMtxTryLockS, %function
 332              	chMtxTryLockS:
 333              	.LFB11:
 334              		.loc 1 227 0
 335              		.cfi_startproc
 336              		@ args = 0, pretend = 0, frame = 0
 337              		@ frame_needed = 0, uses_anonymous_args = 0
 338              		@ link register save eliminated.
 339              	.LVL25:
 340              		.loc 1 227 0
 341 0000 0030A0E1 		mov	r3, r0
 342              		.loc 1 232 0
ARM GAS  /tmp/ccEpMqtQ.s 			page 7


 343 0004 082090E5 		ldr	r2, [r0, #8]
 344 0008 000052E3 		cmp	r2, #0
 345              	.LVL26:
 346              	.LBB51:
 347              	.LBB52:
 348              		.loc 1 234 0
 349 000c 1C209F05 		ldreq	r2, .L33
 350              		.loc 1 236 0
 351 0010 0100A003 		moveq	r0, #1
 352              	.LVL27:
 353              		.loc 1 234 0
 354 0014 10209205 		ldreq	r2, [r2, #16]
 355              	.LBE52:
 356              	.LBE51:
 357              		.loc 1 233 0
 358 0018 0000A013 		movne	r0, #0
 359              	.LBB54:
 360              	.LBB53:
 361              		.loc 1 235 0
 362 001c 20109205 		ldreq	r1, [r2, #32]
 363              		.loc 1 234 0
 364 0020 08208305 		streq	r2, [r3, #8]
 365              		.loc 1 235 0
 366 0024 0C108305 		streq	r1, [r3, #12]
 367              		.loc 1 236 0
 368 0028 20308205 		streq	r3, [r2, #32]
 369              	.LBE53:
 370              	.LBE54:
 371              		.loc 1 238 0
 372 002c 1EFF2FE1 		bx	lr
 373              	.L34:
 374              		.align	2
 375              	.L33:
 376 0030 00000000 		.word	rlist
 377              		.cfi_endproc
 378              	.LFE11:
 379              		.size	chMtxTryLockS, .-chMtxTryLockS
 380              		.section	.text.chMtxUnlock,"ax",%progbits
 381              		.align	2
 382              		.global	chMtxUnlock
 383              		.type	chMtxUnlock, %function
 384              	chMtxUnlock:
 385              	.LFB12:
 386              		.loc 1 250 0
 387              		.cfi_startproc
 388              		@ args = 0, pretend = 0, frame = 0
 389              		@ frame_needed = 0, uses_anonymous_args = 0
 390              		.loc 1 251 0
 391 0000 94309FE5 		ldr	r3, .L46
 392              		.loc 1 250 0
 393 0004 10402DE9 		stmfd	sp!, {r4, lr}
 394              		.cfi_def_cfa_offset 8
 395              		.cfi_offset 4, -8
 396              		.cfi_offset 14, -4
 397              		.loc 1 251 0
 398 0008 100093E5 		ldr	r0, [r3, #16]
 399              	.LVL28:
ARM GAS  /tmp/ccEpMqtQ.s 			page 8


 400              		.loc 1 254 0
 401              	@ 254 "../../../os/kernel/src/chmtx.c" 1
 402 000c 9FF021E3 		msr     CPSR_c, #0x9F
 403              	@ 0 "" 2
 404              		.loc 1 263 0
 405 0010 204090E5 		ldr	r4, [r0, #32]
 406              	.LVL29:
 407              		.loc 1 266 0
 408 0014 00C094E5 		ldr	ip, [r4]
 409              		.loc 1 264 0
 410 0018 0C3094E5 		ldr	r3, [r4, #12]
 411              		.loc 1 266 0
 412 001c 04005CE1 		cmp	ip, r4
 413              		.loc 1 264 0
 414 0020 203080E5 		str	r3, [r0, #32]
 415              		.loc 1 266 0
 416 0024 1900000A 		beq	.L36
 417              	.LBB55:
 418              		.loc 1 273 0
 419 0028 000053E3 		cmp	r3, #0
 420              		.loc 1 271 0
 421 002c 241090E5 		ldr	r1, [r0, #36]
 422              	.LVL30:
 423              		.loc 1 273 0
 424 0030 0800000A 		beq	.L37
 425              	.L39:
 426              		.loc 1 277 0
 427 0034 002093E5 		ldr	r2, [r3]
 428 0038 030052E1 		cmp	r2, r3
 429 003c 0200000A 		beq	.L38
 430              		.loc 1 277 0 is_stmt 0 discriminator 1
 431 0040 082092E5 		ldr	r2, [r2, #8]
 432 0044 020051E1 		cmp	r1, r2
 433 0048 0210A031 		movcc	r1, r2
 434              	.LVL31:
 435              	.L38:
 436              		.loc 1 279 0 is_stmt 1
 437 004c 0C3093E5 		ldr	r3, [r3, #12]
 438              	.LVL32:
 439              		.loc 1 273 0
 440 0050 000053E3 		cmp	r3, #0
 441 0054 F6FFFF1A 		bne	.L39
 442              	.L37:
 443              		.loc 1 288 0
 444 0058 20209CE5 		ldr	r2, [ip, #32]
 445              	.LBB56:
 446              	.LBB57:
 447              		.loc 2 55 0
 448 005c 00309CE5 		ldr	r3, [ip]
 449              	.LVL33:
 450              	.LBE57:
 451              	.LBE56:
 452              		.loc 1 283 0
 453 0060 081080E5 		str	r1, [r0, #8]
 454              	.LVL34:
 455              	.LBB60:
 456              	.LBB58:
ARM GAS  /tmp/ccEpMqtQ.s 			page 9


 457              		.loc 2 55 0
 458 0064 003084E5 		str	r3, [r4]
 459              	.LBE58:
 460              	.LBE60:
 461              		.loc 1 290 0
 462 0068 0C00A0E1 		mov	r0, ip
 463              	.LVL35:
 464              	.LBB61:
 465              	.LBB59:
 466              		.loc 2 55 0
 467 006c 044083E5 		str	r4, [r3, #4]
 468              	.LBE59:
 469              	.LBE61:
 470              		.loc 1 290 0
 471 0070 0010A0E3 		mov	r1, #0
 472              	.LVL36:
 473              		.loc 1 287 0
 474 0074 08C084E5 		str	ip, [r4, #8]
 475              		.loc 1 288 0
 476 0078 0C2084E5 		str	r2, [r4, #12]
 477              		.loc 1 289 0
 478 007c 20408CE5 		str	r4, [ip, #32]
 479              		.loc 1 290 0
 480 0080 FEFFFFEB 		bl	chSchWakeupS
 481              	.LVL37:
 482              	.L40:
 483              	.LBE55:
 484              		.loc 1 294 0
 485              	@ 294 "../../../os/kernel/src/chmtx.c" 1
 486 0084 1FF021E3 		msr     CPSR_c, #0x1F
 487              	@ 0 "" 2
 488              		.loc 1 296 0
 489 0088 0400A0E1 		mov	r0, r4
 490 008c 1080BDE8 		ldmfd	sp!, {r4, pc}
 491              	.LVL38:
 492              	.L36:
 493              		.loc 1 293 0
 494 0090 0030A0E3 		mov	r3, #0
 495 0094 083084E5 		str	r3, [r4, #8]
 496 0098 F9FFFFEA 		b	.L40
 497              	.L47:
 498              		.align	2
 499              	.L46:
 500 009c 00000000 		.word	rlist
 501              		.cfi_endproc
 502              	.LFE12:
 503              		.size	chMtxUnlock, .-chMtxUnlock
 504              		.section	.text.chMtxUnlockS,"ax",%progbits
 505              		.align	2
 506              		.global	chMtxUnlockS
 507              		.type	chMtxUnlockS, %function
 508              	chMtxUnlockS:
 509              	.LFB13:
 510              		.loc 1 310 0
 511              		.cfi_startproc
 512              		@ args = 0, pretend = 0, frame = 0
 513              		@ frame_needed = 0, uses_anonymous_args = 0
ARM GAS  /tmp/ccEpMqtQ.s 			page 10


 514              		.loc 1 311 0
 515 0000 8C309FE5 		ldr	r3, .L59
 516              		.loc 1 310 0
 517 0004 10402DE9 		stmfd	sp!, {r4, lr}
 518              		.cfi_def_cfa_offset 8
 519              		.cfi_offset 4, -8
 520              		.cfi_offset 14, -4
 521              		.loc 1 311 0
 522 0008 100093E5 		ldr	r0, [r3, #16]
 523              	.LVL39:
 524              		.loc 1 324 0
 525 000c 204090E5 		ldr	r4, [r0, #32]
 526              	.LVL40:
 527              		.loc 1 327 0
 528 0010 00C094E5 		ldr	ip, [r4]
 529              		.loc 1 325 0
 530 0014 0C3094E5 		ldr	r3, [r4, #12]
 531              		.loc 1 327 0
 532 0018 04005CE1 		cmp	ip, r4
 533              		.loc 1 325 0
 534 001c 203080E5 		str	r3, [r0, #32]
 535              		.loc 1 327 0
 536 0020 1700000A 		beq	.L49
 537              	.LBB62:
 538              		.loc 1 334 0
 539 0024 000053E3 		cmp	r3, #0
 540              		.loc 1 332 0
 541 0028 241090E5 		ldr	r1, [r0, #36]
 542              	.LVL41:
 543              		.loc 1 334 0
 544 002c 0800000A 		beq	.L50
 545              	.L52:
 546              		.loc 1 338 0
 547 0030 002093E5 		ldr	r2, [r3]
 548 0034 030052E1 		cmp	r2, r3
 549 0038 0200000A 		beq	.L51
 550              		.loc 1 338 0 is_stmt 0 discriminator 1
 551 003c 082092E5 		ldr	r2, [r2, #8]
 552 0040 020051E1 		cmp	r1, r2
 553 0044 0210A031 		movcc	r1, r2
 554              	.LVL42:
 555              	.L51:
 556              		.loc 1 340 0 is_stmt 1
 557 0048 0C3093E5 		ldr	r3, [r3, #12]
 558              	.LVL43:
 559              		.loc 1 334 0
 560 004c 000053E3 		cmp	r3, #0
 561 0050 F6FFFF1A 		bne	.L52
 562              	.L50:
 563              		.loc 1 347 0
 564 0054 20209CE5 		ldr	r2, [ip, #32]
 565              	.LBB63:
 566              	.LBB64:
 567              		.loc 2 55 0
 568 0058 00309CE5 		ldr	r3, [ip]
 569              	.LVL44:
 570              	.LBE64:
ARM GAS  /tmp/ccEpMqtQ.s 			page 11


 571              	.LBE63:
 572              		.loc 1 342 0
 573 005c 081080E5 		str	r1, [r0, #8]
 574              	.LVL45:
 575              	.LBB67:
 576              	.LBB65:
 577              		.loc 2 55 0
 578 0060 003084E5 		str	r3, [r4]
 579              	.LBE65:
 580              	.LBE67:
 581              		.loc 1 349 0
 582 0064 0C00A0E1 		mov	r0, ip
 583              	.LVL46:
 584              	.LBB68:
 585              	.LBB66:
 586              		.loc 2 55 0
 587 0068 044083E5 		str	r4, [r3, #4]
 588              	.LBE66:
 589              	.LBE68:
 590              		.loc 1 346 0
 591 006c 08C084E5 		str	ip, [r4, #8]
 592              		.loc 1 347 0
 593 0070 0C2084E5 		str	r2, [r4, #12]
 594              		.loc 1 348 0
 595 0074 20408CE5 		str	r4, [ip, #32]
 596              		.loc 1 349 0
 597 0078 FEFFFFEB 		bl	chSchReadyI
 598              	.LVL47:
 599              	.LBE62:
 600              		.loc 1 354 0
 601 007c 0400A0E1 		mov	r0, r4
 602 0080 1080BDE8 		ldmfd	sp!, {r4, pc}
 603              	.LVL48:
 604              	.L49:
 605              		.loc 1 352 0
 606 0084 0030A0E3 		mov	r3, #0
 607              		.loc 1 354 0
 608 0088 0400A0E1 		mov	r0, r4
 609              	.LVL49:
 610              		.loc 1 352 0
 611 008c 083084E5 		str	r3, [r4, #8]
 612              		.loc 1 354 0
 613 0090 1080BDE8 		ldmfd	sp!, {r4, pc}
 614              	.L60:
 615              		.align	2
 616              	.L59:
 617 0094 00000000 		.word	rlist
 618              		.cfi_endproc
 619              	.LFE13:
 620              		.size	chMtxUnlockS, .-chMtxUnlockS
 621              		.section	.text.chMtxUnlockAll,"ax",%progbits
 622              		.align	2
 623              		.global	chMtxUnlockAll
 624              		.type	chMtxUnlockAll, %function
 625              	chMtxUnlockAll:
 626              	.LFB14:
 627              		.loc 1 367 0
ARM GAS  /tmp/ccEpMqtQ.s 			page 12


 628              		.cfi_startproc
 629              		@ args = 0, pretend = 0, frame = 0
 630              		@ frame_needed = 0, uses_anonymous_args = 0
 631              		.loc 1 368 0
 632 0000 74309FE5 		ldr	r3, .L71
 633              		.loc 1 367 0
 634 0004 30402DE9 		stmfd	sp!, {r4, r5, lr}
 635              		.cfi_def_cfa_offset 12
 636              		.cfi_offset 4, -12
 637              		.cfi_offset 5, -8
 638              		.cfi_offset 14, -4
 639              		.loc 1 368 0
 640 0008 104093E5 		ldr	r4, [r3, #16]
 641              	.LVL50:
 642              		.loc 1 370 0
 643              	@ 370 "../../../os/kernel/src/chmtx.c" 1
 644 000c 9FF021E3 		msr     CPSR_c, #0x9F
 645              	@ 0 "" 2
 646              		.loc 1 371 0
 647 0010 203094E5 		ldr	r3, [r4, #32]
 648 0014 000053E3 		cmp	r3, #0
 649 0018 1500000A 		beq	.L62
 650              	.LBB69:
 651              		.loc 1 383 0
 652 001c 0050A0E3 		mov	r5, #0
 653              	.L65:
 654              	.LVL51:
 655              		.loc 1 375 0
 656 0020 002093E5 		ldr	r2, [r3]
 657              	.LVL52:
 658              		.loc 1 374 0
 659 0024 0C1093E5 		ldr	r1, [r3, #12]
 660              		.loc 1 375 0
 661 0028 030052E1 		cmp	r2, r3
 662              		.loc 1 374 0
 663 002c 201084E5 		str	r1, [r4, #32]
 664              		.loc 1 383 0
 665 0030 08508305 		streq	r5, [r3, #8]
 666              		.loc 1 375 0
 667 0034 0800000A 		beq	.L64
 668              	.LBB70:
 669              		.loc 1 378 0
 670 0038 20C092E5 		ldr	ip, [r2, #32]
 671              	.LBB71:
 672              	.LBB72:
 673              		.loc 2 55 0
 674 003c 001092E5 		ldr	r1, [r2]
 675              	.LBE72:
 676              	.LBE71:
 677              		.loc 1 380 0
 678 0040 0200A0E1 		mov	r0, r2
 679              	.LBB74:
 680              	.LBB73:
 681              		.loc 2 55 0
 682 0044 001083E5 		str	r1, [r3]
 683 0048 043081E5 		str	r3, [r1, #4]
 684              	.LBE73:
ARM GAS  /tmp/ccEpMqtQ.s 			page 13


 685              	.LBE74:
 686              		.loc 1 377 0
 687 004c 082083E5 		str	r2, [r3, #8]
 688              		.loc 1 378 0
 689 0050 0CC083E5 		str	ip, [r3, #12]
 690              		.loc 1 379 0
 691 0054 203082E5 		str	r3, [r2, #32]
 692              		.loc 1 380 0
 693 0058 FEFFFFEB 		bl	chSchReadyI
 694              	.LVL53:
 695              	.L64:
 696              	.LBE70:
 697              	.LBE69:
 698              		.loc 1 384 0
 699 005c 203094E5 		ldr	r3, [r4, #32]
 700 0060 000053E3 		cmp	r3, #0
 701 0064 EDFFFF1A 		bne	.L65
 702              		.loc 1 385 0
 703 0068 243094E5 		ldr	r3, [r4, #36]
 704 006c 083084E5 		str	r3, [r4, #8]
 705              		.loc 1 386 0
 706 0070 FEFFFFEB 		bl	chSchRescheduleS
 707              	.LVL54:
 708              	.L62:
 709              		.loc 1 388 0
 710              	@ 388 "../../../os/kernel/src/chmtx.c" 1
 711 0074 1FF021E3 		msr     CPSR_c, #0x1F
 712              	@ 0 "" 2
 713 0078 3080BDE8 		ldmfd	sp!, {r4, r5, pc}
 714              	.L72:
 715              		.align	2
 716              	.L71:
 717 007c 00000000 		.word	rlist
 718              		.cfi_endproc
 719              	.LFE14:
 720              		.size	chMtxUnlockAll, .-chMtxUnlockAll
 721              		.text
 722              	.Letext0:
 723              		.file 3 "/usr/include/newlib/machine/_default_types.h"
 724              		.file 4 "/usr/include/newlib/sys/_stdint.h"
 725              		.file 5 "../../../os/ports/GCC/ARM/chtypes.h"
 726              		.file 6 "../../../os/kernel/include/chlists.h"
 727              		.file 7 "../../../os/kernel/include/chthreads.h"
 728              		.file 8 "../../../os/ports/GCC/ARM/chcore.h"
 729              		.file 9 "../../../os/kernel/include/chschd.h"
 730              		.file 10 "../../../os/kernel/include/chmtx.h"
 731              		.section	.debug_info,"",%progbits
 732              	.Ldebug_info0:
 733 0000 F6070000 		.4byte	0x7f6
 734 0004 0400     		.2byte	0x4
 735 0006 00000000 		.4byte	.Ldebug_abbrev0
 736 000a 04       		.byte	0x4
 737 000b 01       		.uleb128 0x1
 738 000c C1010000 		.4byte	.LASF66
 739 0010 01       		.byte	0x1
 740 0011 40000000 		.4byte	.LASF67
 741 0015 00000000 		.4byte	.LASF68
ARM GAS  /tmp/ccEpMqtQ.s 			page 14


 742 0019 D8000000 		.4byte	.Ldebug_ranges0+0xd8
 743 001d 00000000 		.4byte	0
 744 0021 00000000 		.4byte	.Ldebug_line0
 745 0025 02       		.uleb128 0x2
 746 0026 04       		.byte	0x4
 747 0027 05       		.byte	0x5
 748 0028 D6000000 		.4byte	.LASF0
 749 002c 02       		.uleb128 0x2
 750 002d 04       		.byte	0x4
 751 002e 07       		.byte	0x7
 752 002f 40010000 		.4byte	.LASF1
 753 0033 02       		.uleb128 0x2
 754 0034 01       		.byte	0x1
 755 0035 06       		.byte	0x6
 756 0036 B1000000 		.4byte	.LASF2
 757 003a 03       		.uleb128 0x3
 758 003b 66000000 		.4byte	.LASF6
 759 003f 03       		.byte	0x3
 760 0040 1D       		.byte	0x1d
 761 0041 45000000 		.4byte	0x45
 762 0045 02       		.uleb128 0x2
 763 0046 01       		.byte	0x1
 764 0047 08       		.byte	0x8
 765 0048 AE020000 		.4byte	.LASF3
 766 004c 02       		.uleb128 0x2
 767 004d 02       		.byte	0x2
 768 004e 05       		.byte	0x5
 769 004f C6020000 		.4byte	.LASF4
 770 0053 02       		.uleb128 0x2
 771 0054 02       		.byte	0x2
 772 0055 07       		.byte	0x7
 773 0056 52010000 		.4byte	.LASF5
 774 005a 03       		.uleb128 0x3
 775 005b 4E030000 		.4byte	.LASF7
 776 005f 03       		.byte	0x3
 777 0060 3F       		.byte	0x3f
 778 0061 25000000 		.4byte	0x25
 779 0065 03       		.uleb128 0x3
 780 0066 12010000 		.4byte	.LASF8
 781 006a 03       		.byte	0x3
 782 006b 41       		.byte	0x41
 783 006c 2C000000 		.4byte	0x2c
 784 0070 02       		.uleb128 0x2
 785 0071 08       		.byte	0x8
 786 0072 05       		.byte	0x5
 787 0073 A3000000 		.4byte	.LASF9
 788 0077 02       		.uleb128 0x2
 789 0078 08       		.byte	0x8
 790 0079 07       		.byte	0x7
 791 007a 70000000 		.4byte	.LASF10
 792 007e 03       		.uleb128 0x3
 793 007f 8E030000 		.4byte	.LASF11
 794 0083 04       		.byte	0x4
 795 0084 14       		.byte	0x14
 796 0085 3A000000 		.4byte	0x3a
 797 0089 03       		.uleb128 0x3
 798 008a A6020000 		.4byte	.LASF12
ARM GAS  /tmp/ccEpMqtQ.s 			page 15


 799 008e 04       		.byte	0x4
 800 008f 1F       		.byte	0x1f
 801 0090 5A000000 		.4byte	0x5a
 802 0094 03       		.uleb128 0x3
 803 0095 1F030000 		.4byte	.LASF13
 804 0099 04       		.byte	0x4
 805 009a 20       		.byte	0x20
 806 009b 65000000 		.4byte	0x65
 807 009f 04       		.uleb128 0x4
 808 00a0 04       		.byte	0x4
 809 00a1 05       		.byte	0x5
 810 00a2 696E7400 		.ascii	"int\000"
 811 00a6 02       		.uleb128 0x2
 812 00a7 04       		.byte	0x4
 813 00a8 07       		.byte	0x7
 814 00a9 33010000 		.4byte	.LASF14
 815 00ad 03       		.uleb128 0x3
 816 00ae BD000000 		.4byte	.LASF15
 817 00b2 05       		.byte	0x5
 818 00b3 29       		.byte	0x29
 819 00b4 89000000 		.4byte	0x89
 820 00b8 03       		.uleb128 0x3
 821 00b9 8E010000 		.4byte	.LASF16
 822 00bd 05       		.byte	0x5
 823 00be 2A       		.byte	0x2a
 824 00bf 7E000000 		.4byte	0x7e
 825 00c3 03       		.uleb128 0x3
 826 00c4 DF000000 		.4byte	.LASF17
 827 00c8 05       		.byte	0x5
 828 00c9 2B       		.byte	0x2b
 829 00ca 7E000000 		.4byte	0x7e
 830 00ce 03       		.uleb128 0x3
 831 00cf CC000000 		.4byte	.LASF18
 832 00d3 05       		.byte	0x5
 833 00d4 2D       		.byte	0x2d
 834 00d5 7E000000 		.4byte	0x7e
 835 00d9 03       		.uleb128 0x3
 836 00da 9E020000 		.4byte	.LASF19
 837 00de 05       		.byte	0x5
 838 00df 2E       		.byte	0x2e
 839 00e0 94000000 		.4byte	0x94
 840 00e4 03       		.uleb128 0x3
 841 00e5 65010000 		.4byte	.LASF20
 842 00e9 05       		.byte	0x5
 843 00ea 2F       		.byte	0x2f
 844 00eb 89000000 		.4byte	0x89
 845 00ef 03       		.uleb128 0x3
 846 00f0 A2010000 		.4byte	.LASF21
 847 00f4 05       		.byte	0x5
 848 00f5 31       		.byte	0x31
 849 00f6 94000000 		.4byte	0x94
 850 00fa 03       		.uleb128 0x3
 851 00fb FF020000 		.4byte	.LASF22
 852 00ff 06       		.byte	0x6
 853 0100 23       		.byte	0x23
 854 0101 05010000 		.4byte	0x105
 855 0105 05       		.uleb128 0x5
ARM GAS  /tmp/ccEpMqtQ.s 			page 16


 856 0106 FF020000 		.4byte	.LASF22
 857 010a 28       		.byte	0x28
 858 010b 07       		.byte	0x7
 859 010c 57       		.byte	0x57
 860 010d A2010000 		.4byte	0x1a2
 861 0111 06       		.uleb128 0x6
 862 0112 F0020000 		.4byte	.LASF23
 863 0116 07       		.byte	0x7
 864 0117 58       		.byte	0x58
 865 0118 C3010000 		.4byte	0x1c3
 866 011c 00       		.byte	0
 867 011d 06       		.uleb128 0x6
 868 011e 97020000 		.4byte	.LASF24
 869 0122 07       		.byte	0x7
 870 0123 5A       		.byte	0x5a
 871 0124 C3010000 		.4byte	0x1c3
 872 0128 04       		.byte	0x4
 873 0129 06       		.uleb128 0x6
 874 012a 9C000000 		.4byte	.LASF25
 875 012e 07       		.byte	0x7
 876 012f 5C       		.byte	0x5c
 877 0130 D9000000 		.4byte	0xd9
 878 0134 08       		.byte	0x8
 879 0135 06       		.uleb128 0x6
 880 0136 A5030000 		.4byte	.LASF26
 881 013a 07       		.byte	0x7
 882 013b 5D       		.byte	0x5d
 883 013c 73020000 		.4byte	0x273
 884 0140 0C       		.byte	0xc
 885 0141 06       		.uleb128 0x6
 886 0142 D0020000 		.4byte	.LASF27
 887 0146 07       		.byte	0x7
 888 0147 72       		.byte	0x72
 889 0148 C3000000 		.4byte	0xc3
 890 014c 10       		.byte	0x10
 891 014d 06       		.uleb128 0x6
 892 014e F7020000 		.4byte	.LASF28
 893 0152 07       		.byte	0x7
 894 0153 76       		.byte	0x76
 895 0154 B8000000 		.4byte	0xb8
 896 0158 11       		.byte	0x11
 897 0159 06       		.uleb128 0x6
 898 015a D8020000 		.4byte	.LASF29
 899 015e 07       		.byte	0x7
 900 015f 81       		.byte	0x81
 901 0160 CE000000 		.4byte	0xce
 902 0164 12       		.byte	0x12
 903 0165 07       		.uleb128 0x7
 904 0166 705F7500 		.ascii	"p_u\000"
 905 016a 07       		.byte	0x7
 906 016b AD       		.byte	0xad
 907 016c 18030000 		.4byte	0x318
 908 0170 14       		.byte	0x14
 909 0171 06       		.uleb128 0x6
 910 0172 AB030000 		.4byte	.LASF30
 911 0176 07       		.byte	0x7
 912 0177 B2       		.byte	0xb2
ARM GAS  /tmp/ccEpMqtQ.s 			page 17


 913 0178 E9010000 		.4byte	0x1e9
 914 017c 18       		.byte	0x18
 915 017d 06       		.uleb128 0x6
 916 017e 14030000 		.4byte	.LASF31
 917 0182 07       		.byte	0x7
 918 0183 C2       		.byte	0xc2
 919 0184 EF000000 		.4byte	0xef
 920 0188 1C       		.byte	0x1c
 921 0189 06       		.uleb128 0x6
 922 018a BC020000 		.4byte	.LASF32
 923 018e 07       		.byte	0x7
 924 018f C9       		.byte	0xc9
 925 0190 4D030000 		.4byte	0x34d
 926 0194 20       		.byte	0x20
 927 0195 06       		.uleb128 0x6
 928 0196 43030000 		.4byte	.LASF33
 929 019a 07       		.byte	0x7
 930 019b CD       		.byte	0xcd
 931 019c D9000000 		.4byte	0xd9
 932 01a0 24       		.byte	0x24
 933 01a1 00       		.byte	0
 934 01a2 08       		.uleb128 0x8
 935 01a3 08       		.byte	0x8
 936 01a4 06       		.byte	0x6
 937 01a5 5A       		.byte	0x5a
 938 01a6 C3010000 		.4byte	0x1c3
 939 01aa 06       		.uleb128 0x6
 940 01ab F0020000 		.4byte	.LASF23
 941 01af 06       		.byte	0x6
 942 01b0 5B       		.byte	0x5b
 943 01b1 C3010000 		.4byte	0x1c3
 944 01b5 00       		.byte	0
 945 01b6 06       		.uleb128 0x6
 946 01b7 97020000 		.4byte	.LASF24
 947 01bb 06       		.byte	0x6
 948 01bc 5D       		.byte	0x5d
 949 01bd C3010000 		.4byte	0x1c3
 950 01c1 04       		.byte	0x4
 951 01c2 00       		.byte	0
 952 01c3 09       		.uleb128 0x9
 953 01c4 04       		.byte	0x4
 954 01c5 FA000000 		.4byte	0xfa
 955 01c9 03       		.uleb128 0x3
 956 01ca 78020000 		.4byte	.LASF34
 957 01ce 06       		.byte	0x6
 958 01cf 5F       		.byte	0x5f
 959 01d0 A2010000 		.4byte	0x1a2
 960 01d4 08       		.uleb128 0x8
 961 01d5 04       		.byte	0x4
 962 01d6 06       		.byte	0x6
 963 01d7 64       		.byte	0x64
 964 01d8 E9010000 		.4byte	0x1e9
 965 01dc 06       		.uleb128 0x6
 966 01dd F0020000 		.4byte	.LASF23
 967 01e1 06       		.byte	0x6
 968 01e2 66       		.byte	0x66
 969 01e3 C3010000 		.4byte	0x1c3
ARM GAS  /tmp/ccEpMqtQ.s 			page 18


 970 01e7 00       		.byte	0
 971 01e8 00       		.byte	0
 972 01e9 03       		.uleb128 0x3
 973 01ea 96010000 		.4byte	.LASF35
 974 01ee 06       		.byte	0x6
 975 01ef 69       		.byte	0x69
 976 01f0 D4010000 		.4byte	0x1d4
 977 01f4 03       		.uleb128 0x3
 978 01f5 1D010000 		.4byte	.LASF36
 979 01f9 08       		.byte	0x8
 980 01fa A2       		.byte	0xa2
 981 01fb FF010000 		.4byte	0x1ff
 982 01ff 0A       		.uleb128 0xa
 983 0200 04       		.byte	0x4
 984 0201 05       		.uleb128 0x5
 985 0202 60030000 		.4byte	.LASF37
 986 0206 24       		.byte	0x24
 987 0207 08       		.byte	0x8
 988 0208 B9       		.byte	0xb9
 989 0209 73020000 		.4byte	0x273
 990 020d 07       		.uleb128 0x7
 991 020e 723400   		.ascii	"r4\000"
 992 0211 08       		.byte	0x8
 993 0212 BA       		.byte	0xba
 994 0213 F4010000 		.4byte	0x1f4
 995 0217 00       		.byte	0
 996 0218 07       		.uleb128 0x7
 997 0219 723500   		.ascii	"r5\000"
 998 021c 08       		.byte	0x8
 999 021d BB       		.byte	0xbb
 1000 021e F4010000 		.4byte	0x1f4
 1001 0222 04       		.byte	0x4
 1002 0223 07       		.uleb128 0x7
 1003 0224 723600   		.ascii	"r6\000"
 1004 0227 08       		.byte	0x8
 1005 0228 BC       		.byte	0xbc
 1006 0229 F4010000 		.4byte	0x1f4
 1007 022d 08       		.byte	0x8
 1008 022e 07       		.uleb128 0x7
 1009 022f 723700   		.ascii	"r7\000"
 1010 0232 08       		.byte	0x8
 1011 0233 BD       		.byte	0xbd
 1012 0234 F4010000 		.4byte	0x1f4
 1013 0238 0C       		.byte	0xc
 1014 0239 07       		.uleb128 0x7
 1015 023a 723800   		.ascii	"r8\000"
 1016 023d 08       		.byte	0x8
 1017 023e BE       		.byte	0xbe
 1018 023f F4010000 		.4byte	0x1f4
 1019 0243 10       		.byte	0x10
 1020 0244 07       		.uleb128 0x7
 1021 0245 723900   		.ascii	"r9\000"
 1022 0248 08       		.byte	0x8
 1023 0249 BF       		.byte	0xbf
 1024 024a F4010000 		.4byte	0x1f4
 1025 024e 14       		.byte	0x14
 1026 024f 07       		.uleb128 0x7
ARM GAS  /tmp/ccEpMqtQ.s 			page 19


 1027 0250 72313000 		.ascii	"r10\000"
 1028 0254 08       		.byte	0x8
 1029 0255 C0       		.byte	0xc0
 1030 0256 F4010000 		.4byte	0x1f4
 1031 025a 18       		.byte	0x18
 1032 025b 07       		.uleb128 0x7
 1033 025c 72313100 		.ascii	"r11\000"
 1034 0260 08       		.byte	0x8
 1035 0261 C1       		.byte	0xc1
 1036 0262 F4010000 		.4byte	0x1f4
 1037 0266 1C       		.byte	0x1c
 1038 0267 07       		.uleb128 0x7
 1039 0268 6C7200   		.ascii	"lr\000"
 1040 026b 08       		.byte	0x8
 1041 026c C2       		.byte	0xc2
 1042 026d F4010000 		.4byte	0x1f4
 1043 0271 20       		.byte	0x20
 1044 0272 00       		.byte	0
 1045 0273 05       		.uleb128 0x5
 1046 0274 58030000 		.4byte	.LASF38
 1047 0278 04       		.byte	0x4
 1048 0279 08       		.byte	0x8
 1049 027a CA       		.byte	0xca
 1050 027b 8C020000 		.4byte	0x28c
 1051 027f 07       		.uleb128 0x7
 1052 0280 72313300 		.ascii	"r13\000"
 1053 0284 08       		.byte	0x8
 1054 0285 CB       		.byte	0xcb
 1055 0286 8C020000 		.4byte	0x28c
 1056 028a 00       		.byte	0
 1057 028b 00       		.byte	0
 1058 028c 09       		.uleb128 0x9
 1059 028d 04       		.byte	0x4
 1060 028e 01020000 		.4byte	0x201
 1061 0292 08       		.uleb128 0x8
 1062 0293 14       		.byte	0x14
 1063 0294 09       		.byte	0x9
 1064 0295 57       		.byte	0x57
 1065 0296 CB020000 		.4byte	0x2cb
 1066 029a 06       		.uleb128 0x6
 1067 029b 28030000 		.4byte	.LASF39
 1068 029f 09       		.byte	0x9
 1069 02a0 58       		.byte	0x58
 1070 02a1 C9010000 		.4byte	0x1c9
 1071 02a5 00       		.byte	0
 1072 02a6 06       		.uleb128 0x6
 1073 02a7 E2020000 		.4byte	.LASF40
 1074 02ab 09       		.byte	0x9
 1075 02ac 59       		.byte	0x59
 1076 02ad D9000000 		.4byte	0xd9
 1077 02b1 08       		.byte	0x8
 1078 02b2 06       		.uleb128 0x6
 1079 02b3 72020000 		.4byte	.LASF41
 1080 02b7 09       		.byte	0x9
 1081 02b8 5B       		.byte	0x5b
 1082 02b9 73020000 		.4byte	0x273
 1083 02bd 0C       		.byte	0xc
ARM GAS  /tmp/ccEpMqtQ.s 			page 20


 1084 02be 06       		.uleb128 0x6
 1085 02bf 8D020000 		.4byte	.LASF42
 1086 02c3 09       		.byte	0x9
 1087 02c4 62       		.byte	0x62
 1088 02c5 C3010000 		.4byte	0x1c3
 1089 02c9 10       		.byte	0x10
 1090 02ca 00       		.byte	0
 1091 02cb 03       		.uleb128 0x3
 1092 02cc 7E030000 		.4byte	.LASF43
 1093 02d0 09       		.byte	0x9
 1094 02d1 64       		.byte	0x64
 1095 02d2 92020000 		.4byte	0x292
 1096 02d6 05       		.uleb128 0x5
 1097 02d7 BB010000 		.4byte	.LASF44
 1098 02db 10       		.byte	0x10
 1099 02dc 0A       		.byte	0xa
 1100 02dd 25       		.byte	0x25
 1101 02de 07030000 		.4byte	0x307
 1102 02e2 06       		.uleb128 0x6
 1103 02e3 C4000000 		.4byte	.LASF45
 1104 02e7 0A       		.byte	0xa
 1105 02e8 26       		.byte	0x26
 1106 02e9 C9010000 		.4byte	0x1c9
 1107 02ed 00       		.byte	0
 1108 02ee 06       		.uleb128 0x6
 1109 02ef 9D030000 		.4byte	.LASF46
 1110 02f3 0A       		.byte	0xa
 1111 02f4 28       		.byte	0x28
 1112 02f5 C3010000 		.4byte	0x1c3
 1113 02f9 08       		.byte	0x8
 1114 02fa 06       		.uleb128 0x6
 1115 02fb 3C030000 		.4byte	.LASF47
 1116 02ff 0A       		.byte	0xa
 1117 0300 2A       		.byte	0x2a
 1118 0301 07030000 		.4byte	0x307
 1119 0305 0C       		.byte	0xc
 1120 0306 00       		.byte	0
 1121 0307 09       		.uleb128 0x9
 1122 0308 04       		.byte	0x4
 1123 0309 D6020000 		.4byte	0x2d6
 1124 030d 03       		.uleb128 0x3
 1125 030e BB010000 		.4byte	.LASF44
 1126 0312 0A       		.byte	0xa
 1127 0313 2C       		.byte	0x2c
 1128 0314 D6020000 		.4byte	0x2d6
 1129 0318 0B       		.uleb128 0xb
 1130 0319 04       		.byte	0x4
 1131 031a 07       		.byte	0x7
 1132 031b 8F       		.byte	0x8f
 1133 031c 4D030000 		.4byte	0x34d
 1134 0320 0C       		.uleb128 0xc
 1135 0321 5F000000 		.4byte	.LASF48
 1136 0325 07       		.byte	0x7
 1137 0326 96       		.byte	0x96
 1138 0327 E4000000 		.4byte	0xe4
 1139 032b 0C       		.uleb128 0xc
 1140 032c 87000000 		.4byte	.LASF49
ARM GAS  /tmp/ccEpMqtQ.s 			page 21


 1141 0330 07       		.byte	0x7
 1142 0331 9D       		.byte	0x9d
 1143 0332 E4000000 		.4byte	0xe4
 1144 0336 0C       		.uleb128 0xc
 1145 0337 96030000 		.4byte	.LASF50
 1146 033b 07       		.byte	0x7
 1147 033c A4       		.byte	0xa4
 1148 033d FF010000 		.4byte	0x1ff
 1149 0341 0C       		.uleb128 0xc
 1150 0342 E9020000 		.4byte	.LASF51
 1151 0346 07       		.byte	0x7
 1152 0347 AB       		.byte	0xab
 1153 0348 EF000000 		.4byte	0xef
 1154 034c 00       		.byte	0
 1155 034d 09       		.uleb128 0x9
 1156 034e 04       		.byte	0x4
 1157 034f 0D030000 		.4byte	0x30d
 1158 0353 0D       		.uleb128 0xd
 1159 0354 85020000 		.4byte	.LASF52
 1160 0358 02       		.byte	0x2
 1161 0359 42       		.byte	0x42
 1162 035a C3010000 		.4byte	0x1c3
 1163 035e 03       		.byte	0x3
 1164 035f 6E030000 		.4byte	0x36e
 1165 0363 0E       		.uleb128 0xe
 1166 0364 747000   		.ascii	"tp\000"
 1167 0367 02       		.byte	0x2
 1168 0368 42       		.byte	0x42
 1169 0369 C3010000 		.4byte	0x1c3
 1170 036d 00       		.byte	0
 1171 036e 0F       		.uleb128 0xf
 1172 036f 6B010000 		.4byte	.LASF69
 1173 0373 02       		.byte	0x2
 1174 0374 22       		.byte	0x22
 1175 0375 03       		.byte	0x3
 1176 0376 9A030000 		.4byte	0x39a
 1177 037a 0E       		.uleb128 0xe
 1178 037b 747000   		.ascii	"tp\000"
 1179 037e 02       		.byte	0x2
 1180 037f 22       		.byte	0x22
 1181 0380 C3010000 		.4byte	0x1c3
 1182 0384 0E       		.uleb128 0xe
 1183 0385 74717000 		.ascii	"tqp\000"
 1184 0389 02       		.byte	0x2
 1185 038a 22       		.byte	0x22
 1186 038b 9A030000 		.4byte	0x39a
 1187 038f 10       		.uleb128 0x10
 1188 0390 637000   		.ascii	"cp\000"
 1189 0393 02       		.byte	0x2
 1190 0394 24       		.byte	0x24
 1191 0395 C3010000 		.4byte	0x1c3
 1192 0399 00       		.byte	0
 1193 039a 09       		.uleb128 0x9
 1194 039b 04       		.byte	0x4
 1195 039c C9010000 		.4byte	0x1c9
 1196 03a0 11       		.uleb128 0x11
 1197 03a1 F3000000 		.4byte	.LASF62
ARM GAS  /tmp/ccEpMqtQ.s 			page 22


 1198 03a5 01       		.byte	0x1
 1199 03a6 E3       		.byte	0xe3
 1200 03a7 AD000000 		.4byte	0xad
 1201 03ab 01       		.byte	0x1
 1202 03ac BB030000 		.4byte	0x3bb
 1203 03b0 0E       		.uleb128 0xe
 1204 03b1 6D7000   		.ascii	"mp\000"
 1205 03b4 01       		.byte	0x1
 1206 03b5 E3       		.byte	0xe3
 1207 03b6 4D030000 		.4byte	0x34d
 1208 03ba 00       		.byte	0
 1209 03bb 0D       		.uleb128 0xd
 1210 03bc 66020000 		.4byte	.LASF53
 1211 03c0 02       		.byte	0x2
 1212 03c1 34       		.byte	0x34
 1213 03c2 C3010000 		.4byte	0x1c3
 1214 03c6 03       		.byte	0x3
 1215 03c7 E1030000 		.4byte	0x3e1
 1216 03cb 0E       		.uleb128 0xe
 1217 03cc 74717000 		.ascii	"tqp\000"
 1218 03d0 02       		.byte	0x2
 1219 03d1 34       		.byte	0x34
 1220 03d2 9A030000 		.4byte	0x39a
 1221 03d6 10       		.uleb128 0x10
 1222 03d7 747000   		.ascii	"tp\000"
 1223 03da 02       		.byte	0x2
 1224 03db 35       		.byte	0x35
 1225 03dc C3010000 		.4byte	0x1c3
 1226 03e0 00       		.byte	0
 1227 03e1 12       		.uleb128 0x12
 1228 03e2 74030000 		.4byte	.LASF54
 1229 03e6 01       		.byte	0x1
 1230 03e7 4F       		.byte	0x4f
 1231 03e8 00000000 		.4byte	.LFB7
 1232 03ec 14000000 		.4byte	.LFE7-.LFB7
 1233 03f0 01       		.uleb128 0x1
 1234 03f1 9C       		.byte	0x9c
 1235 03f2 03040000 		.4byte	0x403
 1236 03f6 13       		.uleb128 0x13
 1237 03f7 6D7000   		.ascii	"mp\000"
 1238 03fa 01       		.byte	0x1
 1239 03fb 4F       		.byte	0x4f
 1240 03fc 4D030000 		.4byte	0x34d
 1241 0400 01       		.uleb128 0x1
 1242 0401 50       		.byte	0x50
 1243 0402 00       		.byte	0
 1244 0403 12       		.uleb128 0x12
 1245 0404 E8000000 		.4byte	.LASF55
 1246 0408 01       		.byte	0x1
 1247 0409 72       		.byte	0x72
 1248 040a 00000000 		.4byte	.LFB9
 1249 040e 20010000 		.4byte	.LFE9-.LFB9
 1250 0412 01       		.uleb128 0x1
 1251 0413 9C       		.byte	0x9c
 1252 0414 12050000 		.4byte	0x512
 1253 0418 14       		.uleb128 0x14
 1254 0419 6D7000   		.ascii	"mp\000"
ARM GAS  /tmp/ccEpMqtQ.s 			page 23


 1255 041c 01       		.byte	0x1
 1256 041d 72       		.byte	0x72
 1257 041e 4D030000 		.4byte	0x34d
 1258 0422 00000000 		.4byte	.LLST0
 1259 0426 15       		.uleb128 0x15
 1260 0427 63747000 		.ascii	"ctp\000"
 1261 042b 01       		.byte	0x1
 1262 042c 73       		.byte	0x73
 1263 042d C3010000 		.4byte	0x1c3
 1264 0431 51000000 		.4byte	.LLST1
 1265 0435 16       		.uleb128 0x16
 1266 0436 00000000 		.4byte	.Ldebug_ranges0+0
 1267 043a 15       		.uleb128 0x15
 1268 043b 747000   		.ascii	"tp\000"
 1269 043e 01       		.byte	0x1
 1270 043f 7D       		.byte	0x7d
 1271 0440 C3010000 		.4byte	0x1c3
 1272 0444 7B000000 		.4byte	.LLST2
 1273 0448 17       		.uleb128 0x17
 1274 0449 53030000 		.4byte	0x353
 1275 044d 44000000 		.4byte	.LBB24
 1276 0451 18000000 		.4byte	.Ldebug_ranges0+0x18
 1277 0455 01       		.byte	0x1
 1278 0456 87       		.byte	0x87
 1279 0457 65040000 		.4byte	0x465
 1280 045b 18       		.uleb128 0x18
 1281 045c 63030000 		.4byte	0x363
 1282 0460 A4000000 		.4byte	.LLST3
 1283 0464 00       		.byte	0
 1284 0465 19       		.uleb128 0x19
 1285 0466 6E030000 		.4byte	0x36e
 1286 046a 64000000 		.4byte	.LBB30
 1287 046e 2C000000 		.4byte	.LBE30-.LBB30
 1288 0472 01       		.byte	0x1
 1289 0473 87       		.byte	0x87
 1290 0474 9E040000 		.4byte	0x49e
 1291 0478 18       		.uleb128 0x18
 1292 0479 84030000 		.4byte	0x384
 1293 047d CF000000 		.4byte	.LLST4
 1294 0481 18       		.uleb128 0x18
 1295 0482 7A030000 		.4byte	0x37a
 1296 0486 E2000000 		.4byte	.LLST5
 1297 048a 1A       		.uleb128 0x1a
 1298 048b 64000000 		.4byte	.LBB31
 1299 048f 2C000000 		.4byte	.LBE31-.LBB31
 1300 0493 1B       		.uleb128 0x1b
 1301 0494 8F030000 		.4byte	0x38f
 1302 0498 0D010000 		.4byte	.LLST6
 1303 049c 00       		.byte	0
 1304 049d 00       		.byte	0
 1305 049e 19       		.uleb128 0x19
 1306 049f 6E030000 		.4byte	0x36e
 1307 04a3 A4000000 		.4byte	.LBB32
 1308 04a7 38000000 		.4byte	.LBE32-.LBB32
 1309 04ab 01       		.byte	0x1
 1310 04ac A6       		.byte	0xa6
 1311 04ad D7040000 		.4byte	0x4d7
ARM GAS  /tmp/ccEpMqtQ.s 			page 24


 1312 04b1 18       		.uleb128 0x18
 1313 04b2 84030000 		.4byte	0x384
 1314 04b6 2B010000 		.4byte	.LLST7
 1315 04ba 18       		.uleb128 0x18
 1316 04bb 7A030000 		.4byte	0x37a
 1317 04bf 5B010000 		.4byte	.LLST8
 1318 04c3 1A       		.uleb128 0x1a
 1319 04c4 A4000000 		.4byte	.LBB33
 1320 04c8 38000000 		.4byte	.LBE33-.LBB33
 1321 04cc 1B       		.uleb128 0x1b
 1322 04cd 8F030000 		.4byte	0x38f
 1323 04d1 7A010000 		.4byte	.LLST9
 1324 04d5 00       		.byte	0
 1325 04d6 00       		.byte	0
 1326 04d7 17       		.uleb128 0x17
 1327 04d8 53030000 		.4byte	0x353
 1328 04dc EC000000 		.4byte	.LBB34
 1329 04e0 38000000 		.4byte	.Ldebug_ranges0+0x38
 1330 04e4 01       		.byte	0x1
 1331 04e5 A0       		.byte	0xa0
 1332 04e6 F4040000 		.4byte	0x4f4
 1333 04ea 18       		.uleb128 0x18
 1334 04eb 63030000 		.4byte	0x363
 1335 04ef 98010000 		.4byte	.LLST10
 1336 04f3 00       		.byte	0
 1337 04f4 1C       		.uleb128 0x1c
 1338 04f5 EC000000 		.4byte	.LVL15
 1339 04f9 B6070000 		.4byte	0x7b6
 1340 04fd 07050000 		.4byte	0x507
 1341 0501 1D       		.uleb128 0x1d
 1342 0502 01       		.uleb128 0x1
 1343 0503 50       		.byte	0x50
 1344 0504 01       		.uleb128 0x1
 1345 0505 34       		.byte	0x34
 1346 0506 00       		.byte	0
 1347 0507 1E       		.uleb128 0x1e
 1348 0508 04010000 		.4byte	.LVL17
 1349 050c C7070000 		.4byte	0x7c7
 1350 0510 00       		.byte	0
 1351 0511 00       		.byte	0
 1352 0512 12       		.uleb128 0x12
 1353 0513 5C020000 		.4byte	.LASF56
 1354 0517 01       		.byte	0x1
 1355 0518 60       		.byte	0x60
 1356 0519 00000000 		.4byte	.LFB8
 1357 051d 14000000 		.4byte	.LFE8-.LFB8
 1358 0521 01       		.uleb128 0x1
 1359 0522 9C       		.byte	0x9c
 1360 0523 47050000 		.4byte	0x547
 1361 0527 14       		.uleb128 0x14
 1362 0528 6D7000   		.ascii	"mp\000"
 1363 052b 01       		.byte	0x1
 1364 052c 60       		.byte	0x60
 1365 052d 4D030000 		.4byte	0x34d
 1366 0531 B6010000 		.4byte	.LLST11
 1367 0535 1F       		.uleb128 0x1f
 1368 0536 0C000000 		.4byte	.LVL20
ARM GAS  /tmp/ccEpMqtQ.s 			page 25


 1369 053a 03040000 		.4byte	0x403
 1370 053e 1D       		.uleb128 0x1d
 1371 053f 01       		.uleb128 0x1
 1372 0540 50       		.byte	0x50
 1373 0541 03       		.uleb128 0x3
 1374 0542 F3       		.byte	0xf3
 1375 0543 01       		.uleb128 0x1
 1376 0544 50       		.byte	0x50
 1377 0545 00       		.byte	0
 1378 0546 00       		.byte	0
 1379 0547 20       		.uleb128 0x20
 1380 0548 AE010000 		.4byte	.LASF57
 1381 054c 01       		.byte	0x1
 1382 054d C7       		.byte	0xc7
 1383 054e AD000000 		.4byte	0xad
 1384 0552 00000000 		.4byte	.LFB10
 1385 0556 3C000000 		.4byte	.LFE10-.LFB10
 1386 055a 01       		.uleb128 0x1
 1387 055b 9C       		.byte	0x9c
 1388 055c A0050000 		.4byte	0x5a0
 1389 0560 14       		.uleb128 0x14
 1390 0561 6D7000   		.ascii	"mp\000"
 1391 0564 01       		.byte	0x1
 1392 0565 C7       		.byte	0xc7
 1393 0566 4D030000 		.4byte	0x34d
 1394 056a D7010000 		.4byte	.LLST12
 1395 056e 10       		.uleb128 0x10
 1396 056f 6200     		.ascii	"b\000"
 1397 0571 01       		.byte	0x1
 1398 0572 C8       		.byte	0xc8
 1399 0573 AD000000 		.4byte	0xad
 1400 0577 21       		.uleb128 0x21
 1401 0578 A0030000 		.4byte	0x3a0
 1402 057c 08000000 		.4byte	.LBB43
 1403 0580 28000000 		.4byte	.LBE43-.LBB43
 1404 0584 01       		.byte	0x1
 1405 0585 CC       		.byte	0xcc
 1406 0586 18       		.uleb128 0x18
 1407 0587 B0030000 		.4byte	0x3b0
 1408 058b F5010000 		.4byte	.LLST13
 1409 058f 16       		.uleb128 0x16
 1410 0590 50000000 		.4byte	.Ldebug_ranges0+0x50
 1411 0594 18       		.uleb128 0x18
 1412 0595 B0030000 		.4byte	0x3b0
 1413 0599 13020000 		.4byte	.LLST14
 1414 059d 00       		.byte	0
 1415 059e 00       		.byte	0
 1416 059f 00       		.byte	0
 1417 05a0 22       		.uleb128 0x22
 1418 05a1 A0030000 		.4byte	0x3a0
 1419 05a5 00000000 		.4byte	.LFB11
 1420 05a9 34000000 		.4byte	.LFE11-.LFB11
 1421 05ad 01       		.uleb128 0x1
 1422 05ae 9C       		.byte	0x9c
 1423 05af CC050000 		.4byte	0x5cc
 1424 05b3 18       		.uleb128 0x18
 1425 05b4 B0030000 		.4byte	0x3b0
ARM GAS  /tmp/ccEpMqtQ.s 			page 26


 1426 05b8 31020000 		.4byte	.LLST15
 1427 05bc 16       		.uleb128 0x16
 1428 05bd 68000000 		.4byte	.Ldebug_ranges0+0x68
 1429 05c1 18       		.uleb128 0x18
 1430 05c2 B0030000 		.4byte	0x3b0
 1431 05c6 4F020000 		.4byte	.LLST16
 1432 05ca 00       		.byte	0
 1433 05cb 00       		.byte	0
 1434 05cc 20       		.uleb128 0x20
 1435 05cd 90000000 		.4byte	.LASF58
 1436 05d1 01       		.byte	0x1
 1437 05d2 FA       		.byte	0xfa
 1438 05d3 4D030000 		.4byte	0x34d
 1439 05d7 00000000 		.4byte	.LFB12
 1440 05db A0000000 		.4byte	.LFE12-.LFB12
 1441 05df 01       		.uleb128 0x1
 1442 05e0 9C       		.byte	0x9c
 1443 05e1 71060000 		.4byte	0x671
 1444 05e5 15       		.uleb128 0x15
 1445 05e6 63747000 		.ascii	"ctp\000"
 1446 05ea 01       		.byte	0x1
 1447 05eb FB       		.byte	0xfb
 1448 05ec C3010000 		.4byte	0x1c3
 1449 05f0 6D020000 		.4byte	.LLST17
 1450 05f4 23       		.uleb128 0x23
 1451 05f5 756D7000 		.ascii	"ump\000"
 1452 05f9 01       		.byte	0x1
 1453 05fa FC       		.byte	0xfc
 1454 05fb 4D030000 		.4byte	0x34d
 1455 05ff 01       		.uleb128 0x1
 1456 0600 54       		.byte	0x54
 1457 0601 15       		.uleb128 0x15
 1458 0602 6D7000   		.ascii	"mp\000"
 1459 0605 01       		.byte	0x1
 1460 0606 FC       		.byte	0xfc
 1461 0607 4D030000 		.4byte	0x34d
 1462 060b 8B020000 		.4byte	.LLST18
 1463 060f 1A       		.uleb128 0x1a
 1464 0610 28000000 		.4byte	.LBB55
 1465 0614 5C000000 		.4byte	.LBE55-.LBB55
 1466 0618 24       		.uleb128 0x24
 1467 0619 747000   		.ascii	"tp\000"
 1468 061c 01       		.byte	0x1
 1469 061d 0B01     		.2byte	0x10b
 1470 061f C3010000 		.4byte	0x1c3
 1471 0623 25       		.uleb128 0x25
 1472 0624 86010000 		.4byte	.LASF59
 1473 0628 01       		.byte	0x1
 1474 0629 0F01     		.2byte	0x10f
 1475 062b D9000000 		.4byte	0xd9
 1476 062f 9E020000 		.4byte	.LLST19
 1477 0633 26       		.uleb128 0x26
 1478 0634 BB030000 		.4byte	0x3bb
 1479 0638 5C000000 		.4byte	.LBB56
 1480 063c 80000000 		.4byte	.Ldebug_ranges0+0x80
 1481 0640 01       		.byte	0x1
 1482 0641 1E01     		.2byte	0x11e
ARM GAS  /tmp/ccEpMqtQ.s 			page 27


 1483 0643 60060000 		.4byte	0x660
 1484 0647 18       		.uleb128 0x18
 1485 0648 CB030000 		.4byte	0x3cb
 1486 064c B1020000 		.4byte	.LLST20
 1487 0650 16       		.uleb128 0x16
 1488 0651 80000000 		.4byte	.Ldebug_ranges0+0x80
 1489 0655 1B       		.uleb128 0x1b
 1490 0656 D6030000 		.4byte	0x3d6
 1491 065a C4020000 		.4byte	.LLST21
 1492 065e 00       		.byte	0
 1493 065f 00       		.byte	0
 1494 0660 1F       		.uleb128 0x1f
 1495 0661 84000000 		.4byte	.LVL37
 1496 0665 DC070000 		.4byte	0x7dc
 1497 0669 1D       		.uleb128 0x1d
 1498 066a 01       		.uleb128 0x1
 1499 066b 51       		.byte	0x51
 1500 066c 01       		.uleb128 0x1
 1501 066d 30       		.byte	0x30
 1502 066e 00       		.byte	0
 1503 066f 00       		.byte	0
 1504 0670 00       		.byte	0
 1505 0671 27       		.uleb128 0x27
 1506 0672 26010000 		.4byte	.LASF60
 1507 0676 01       		.byte	0x1
 1508 0677 3601     		.2byte	0x136
 1509 0679 4D030000 		.4byte	0x34d
 1510 067d 00000000 		.4byte	.LFB13
 1511 0681 98000000 		.4byte	.LFE13-.LFB13
 1512 0685 01       		.uleb128 0x1
 1513 0686 9C       		.byte	0x9c
 1514 0687 14070000 		.4byte	0x714
 1515 068b 28       		.uleb128 0x28
 1516 068c 63747000 		.ascii	"ctp\000"
 1517 0690 01       		.byte	0x1
 1518 0691 3701     		.2byte	0x137
 1519 0693 C3010000 		.4byte	0x1c3
 1520 0697 D7020000 		.4byte	.LLST22
 1521 069b 29       		.uleb128 0x29
 1522 069c 756D7000 		.ascii	"ump\000"
 1523 06a0 01       		.byte	0x1
 1524 06a1 3801     		.2byte	0x138
 1525 06a3 4D030000 		.4byte	0x34d
 1526 06a7 01       		.uleb128 0x1
 1527 06a8 54       		.byte	0x54
 1528 06a9 28       		.uleb128 0x28
 1529 06aa 6D7000   		.ascii	"mp\000"
 1530 06ad 01       		.byte	0x1
 1531 06ae 3801     		.2byte	0x138
 1532 06b0 4D030000 		.4byte	0x34d
 1533 06b4 F5020000 		.4byte	.LLST23
 1534 06b8 1A       		.uleb128 0x1a
 1535 06b9 24000000 		.4byte	.LBB62
 1536 06bd 58000000 		.4byte	.LBE62-.LBB62
 1537 06c1 24       		.uleb128 0x24
 1538 06c2 747000   		.ascii	"tp\000"
 1539 06c5 01       		.byte	0x1
ARM GAS  /tmp/ccEpMqtQ.s 			page 28


 1540 06c6 4801     		.2byte	0x148
 1541 06c8 C3010000 		.4byte	0x1c3
 1542 06cc 25       		.uleb128 0x25
 1543 06cd 86010000 		.4byte	.LASF59
 1544 06d1 01       		.byte	0x1
 1545 06d2 4C01     		.2byte	0x14c
 1546 06d4 D9000000 		.4byte	0xd9
 1547 06d8 08030000 		.4byte	.LLST24
 1548 06dc 26       		.uleb128 0x26
 1549 06dd BB030000 		.4byte	0x3bb
 1550 06e1 58000000 		.4byte	.LBB63
 1551 06e5 A0000000 		.4byte	.Ldebug_ranges0+0xa0
 1552 06e9 01       		.byte	0x1
 1553 06ea 5901     		.2byte	0x159
 1554 06ec 09070000 		.4byte	0x709
 1555 06f0 18       		.uleb128 0x18
 1556 06f1 CB030000 		.4byte	0x3cb
 1557 06f5 1B030000 		.4byte	.LLST25
 1558 06f9 16       		.uleb128 0x16
 1559 06fa A0000000 		.4byte	.Ldebug_ranges0+0xa0
 1560 06fe 1B       		.uleb128 0x1b
 1561 06ff D6030000 		.4byte	0x3d6
 1562 0703 2E030000 		.4byte	.LLST26
 1563 0707 00       		.byte	0
 1564 0708 00       		.byte	0
 1565 0709 1E       		.uleb128 0x1e
 1566 070a 7C000000 		.4byte	.LVL47
 1567 070e C7070000 		.4byte	0x7c7
 1568 0712 00       		.byte	0
 1569 0713 00       		.byte	0
 1570 0714 2A       		.uleb128 0x2a
 1571 0715 77010000 		.4byte	.LASF61
 1572 0719 01       		.byte	0x1
 1573 071a 6F01     		.2byte	0x16f
 1574 071c 00000000 		.4byte	.LFB14
 1575 0720 80000000 		.4byte	.LFE14-.LFB14
 1576 0724 01       		.uleb128 0x1
 1577 0725 9C       		.byte	0x9c
 1578 0726 AB070000 		.4byte	0x7ab
 1579 072a 29       		.uleb128 0x29
 1580 072b 63747000 		.ascii	"ctp\000"
 1581 072f 01       		.byte	0x1
 1582 0730 7001     		.2byte	0x170
 1583 0732 C3010000 		.4byte	0x1c3
 1584 0736 01       		.uleb128 0x1
 1585 0737 54       		.byte	0x54
 1586 0738 2B       		.uleb128 0x2b
 1587 0739 1C000000 		.4byte	.LBB69
 1588 073d 40000000 		.4byte	.LBE69-.LBB69
 1589 0741 A1070000 		.4byte	0x7a1
 1590 0745 28       		.uleb128 0x28
 1591 0746 756D7000 		.ascii	"ump\000"
 1592 074a 01       		.byte	0x1
 1593 074b 7501     		.2byte	0x175
 1594 074d 4D030000 		.4byte	0x34d
 1595 0751 41030000 		.4byte	.LLST27
 1596 0755 1A       		.uleb128 0x1a
ARM GAS  /tmp/ccEpMqtQ.s 			page 29


 1597 0756 38000000 		.4byte	.LBB70
 1598 075a 24000000 		.4byte	.LBE70-.LBB70
 1599 075e 24       		.uleb128 0x24
 1600 075f 747000   		.ascii	"tp\000"
 1601 0762 01       		.byte	0x1
 1602 0763 7801     		.2byte	0x178
 1603 0765 C3010000 		.4byte	0x1c3
 1604 0769 26       		.uleb128 0x26
 1605 076a BB030000 		.4byte	0x3bb
 1606 076e 3C000000 		.4byte	.LBB71
 1607 0772 C0000000 		.4byte	.Ldebug_ranges0+0xc0
 1608 0776 01       		.byte	0x1
 1609 0777 7801     		.2byte	0x178
 1610 0779 96070000 		.4byte	0x796
 1611 077d 18       		.uleb128 0x18
 1612 077e CB030000 		.4byte	0x3cb
 1613 0782 41030000 		.4byte	.LLST27
 1614 0786 16       		.uleb128 0x16
 1615 0787 C0000000 		.4byte	.Ldebug_ranges0+0xc0
 1616 078b 1B       		.uleb128 0x1b
 1617 078c D6030000 		.4byte	0x3d6
 1618 0790 54030000 		.4byte	.LLST29
 1619 0794 00       		.byte	0
 1620 0795 00       		.byte	0
 1621 0796 1E       		.uleb128 0x1e
 1622 0797 5C000000 		.4byte	.LVL53
 1623 079b C7070000 		.4byte	0x7c7
 1624 079f 00       		.byte	0
 1625 07a0 00       		.byte	0
 1626 07a1 1E       		.uleb128 0x1e
 1627 07a2 74000000 		.4byte	.LVL54
 1628 07a6 F2070000 		.4byte	0x7f2
 1629 07aa 00       		.byte	0
 1630 07ab 2C       		.uleb128 0x2c
 1631 07ac 88030000 		.4byte	.LASF70
 1632 07b0 09       		.byte	0x9
 1633 07b1 68       		.byte	0x68
 1634 07b2 CB020000 		.4byte	0x2cb
 1635 07b6 2D       		.uleb128 0x2d
 1636 07b7 06030000 		.4byte	.LASF64
 1637 07bb 09       		.byte	0x9
 1638 07bc 8C       		.byte	0x8c
 1639 07bd C7070000 		.4byte	0x7c7
 1640 07c1 2E       		.uleb128 0x2e
 1641 07c2 C3000000 		.4byte	0xc3
 1642 07c6 00       		.byte	0
 1643 07c7 2F       		.uleb128 0x2f
 1644 07c8 30030000 		.4byte	.LASF63
 1645 07cc 09       		.byte	0x9
 1646 07cd 89       		.byte	0x89
 1647 07ce C3010000 		.4byte	0x1c3
 1648 07d2 DC070000 		.4byte	0x7dc
 1649 07d6 2E       		.uleb128 0x2e
 1650 07d7 C3010000 		.4byte	0x1c3
 1651 07db 00       		.byte	0
 1652 07dc 2D       		.uleb128 0x2d
 1653 07dd 67030000 		.4byte	.LASF65
ARM GAS  /tmp/ccEpMqtQ.s 			page 30


 1654 07e1 09       		.byte	0x9
 1655 07e2 92       		.byte	0x92
 1656 07e3 F2070000 		.4byte	0x7f2
 1657 07e7 2E       		.uleb128 0x2e
 1658 07e8 C3010000 		.4byte	0x1c3
 1659 07ec 2E       		.uleb128 0x2e
 1660 07ed E4000000 		.4byte	0xe4
 1661 07f1 00       		.byte	0
 1662 07f2 30       		.uleb128 0x30
 1663 07f3 01010000 		.4byte	.LASF71
 1664 07f7 09       		.byte	0x9
 1665 07f8 95       		.byte	0x95
 1666 07f9 00       		.byte	0
 1667              		.section	.debug_abbrev,"",%progbits
 1668              	.Ldebug_abbrev0:
 1669 0000 01       		.uleb128 0x1
 1670 0001 11       		.uleb128 0x11
 1671 0002 01       		.byte	0x1
 1672 0003 25       		.uleb128 0x25
 1673 0004 0E       		.uleb128 0xe
 1674 0005 13       		.uleb128 0x13
 1675 0006 0B       		.uleb128 0xb
 1676 0007 03       		.uleb128 0x3
 1677 0008 0E       		.uleb128 0xe
 1678 0009 1B       		.uleb128 0x1b
 1679 000a 0E       		.uleb128 0xe
 1680 000b 55       		.uleb128 0x55
 1681 000c 17       		.uleb128 0x17
 1682 000d 11       		.uleb128 0x11
 1683 000e 01       		.uleb128 0x1
 1684 000f 10       		.uleb128 0x10
 1685 0010 17       		.uleb128 0x17
 1686 0011 00       		.byte	0
 1687 0012 00       		.byte	0
 1688 0013 02       		.uleb128 0x2
 1689 0014 24       		.uleb128 0x24
 1690 0015 00       		.byte	0
 1691 0016 0B       		.uleb128 0xb
 1692 0017 0B       		.uleb128 0xb
 1693 0018 3E       		.uleb128 0x3e
 1694 0019 0B       		.uleb128 0xb
 1695 001a 03       		.uleb128 0x3
 1696 001b 0E       		.uleb128 0xe
 1697 001c 00       		.byte	0
 1698 001d 00       		.byte	0
 1699 001e 03       		.uleb128 0x3
 1700 001f 16       		.uleb128 0x16
 1701 0020 00       		.byte	0
 1702 0021 03       		.uleb128 0x3
 1703 0022 0E       		.uleb128 0xe
 1704 0023 3A       		.uleb128 0x3a
 1705 0024 0B       		.uleb128 0xb
 1706 0025 3B       		.uleb128 0x3b
 1707 0026 0B       		.uleb128 0xb
 1708 0027 49       		.uleb128 0x49
 1709 0028 13       		.uleb128 0x13
 1710 0029 00       		.byte	0
ARM GAS  /tmp/ccEpMqtQ.s 			page 31


 1711 002a 00       		.byte	0
 1712 002b 04       		.uleb128 0x4
 1713 002c 24       		.uleb128 0x24
 1714 002d 00       		.byte	0
 1715 002e 0B       		.uleb128 0xb
 1716 002f 0B       		.uleb128 0xb
 1717 0030 3E       		.uleb128 0x3e
 1718 0031 0B       		.uleb128 0xb
 1719 0032 03       		.uleb128 0x3
 1720 0033 08       		.uleb128 0x8
 1721 0034 00       		.byte	0
 1722 0035 00       		.byte	0
 1723 0036 05       		.uleb128 0x5
 1724 0037 13       		.uleb128 0x13
 1725 0038 01       		.byte	0x1
 1726 0039 03       		.uleb128 0x3
 1727 003a 0E       		.uleb128 0xe
 1728 003b 0B       		.uleb128 0xb
 1729 003c 0B       		.uleb128 0xb
 1730 003d 3A       		.uleb128 0x3a
 1731 003e 0B       		.uleb128 0xb
 1732 003f 3B       		.uleb128 0x3b
 1733 0040 0B       		.uleb128 0xb
 1734 0041 01       		.uleb128 0x1
 1735 0042 13       		.uleb128 0x13
 1736 0043 00       		.byte	0
 1737 0044 00       		.byte	0
 1738 0045 06       		.uleb128 0x6
 1739 0046 0D       		.uleb128 0xd
 1740 0047 00       		.byte	0
 1741 0048 03       		.uleb128 0x3
 1742 0049 0E       		.uleb128 0xe
 1743 004a 3A       		.uleb128 0x3a
 1744 004b 0B       		.uleb128 0xb
 1745 004c 3B       		.uleb128 0x3b
 1746 004d 0B       		.uleb128 0xb
 1747 004e 49       		.uleb128 0x49
 1748 004f 13       		.uleb128 0x13
 1749 0050 38       		.uleb128 0x38
 1750 0051 0B       		.uleb128 0xb
 1751 0052 00       		.byte	0
 1752 0053 00       		.byte	0
 1753 0054 07       		.uleb128 0x7
 1754 0055 0D       		.uleb128 0xd
 1755 0056 00       		.byte	0
 1756 0057 03       		.uleb128 0x3
 1757 0058 08       		.uleb128 0x8
 1758 0059 3A       		.uleb128 0x3a
 1759 005a 0B       		.uleb128 0xb
 1760 005b 3B       		.uleb128 0x3b
 1761 005c 0B       		.uleb128 0xb
 1762 005d 49       		.uleb128 0x49
 1763 005e 13       		.uleb128 0x13
 1764 005f 38       		.uleb128 0x38
 1765 0060 0B       		.uleb128 0xb
 1766 0061 00       		.byte	0
 1767 0062 00       		.byte	0
ARM GAS  /tmp/ccEpMqtQ.s 			page 32


 1768 0063 08       		.uleb128 0x8
 1769 0064 13       		.uleb128 0x13
 1770 0065 01       		.byte	0x1
 1771 0066 0B       		.uleb128 0xb
 1772 0067 0B       		.uleb128 0xb
 1773 0068 3A       		.uleb128 0x3a
 1774 0069 0B       		.uleb128 0xb
 1775 006a 3B       		.uleb128 0x3b
 1776 006b 0B       		.uleb128 0xb
 1777 006c 01       		.uleb128 0x1
 1778 006d 13       		.uleb128 0x13
 1779 006e 00       		.byte	0
 1780 006f 00       		.byte	0
 1781 0070 09       		.uleb128 0x9
 1782 0071 0F       		.uleb128 0xf
 1783 0072 00       		.byte	0
 1784 0073 0B       		.uleb128 0xb
 1785 0074 0B       		.uleb128 0xb
 1786 0075 49       		.uleb128 0x49
 1787 0076 13       		.uleb128 0x13
 1788 0077 00       		.byte	0
 1789 0078 00       		.byte	0
 1790 0079 0A       		.uleb128 0xa
 1791 007a 0F       		.uleb128 0xf
 1792 007b 00       		.byte	0
 1793 007c 0B       		.uleb128 0xb
 1794 007d 0B       		.uleb128 0xb
 1795 007e 00       		.byte	0
 1796 007f 00       		.byte	0
 1797 0080 0B       		.uleb128 0xb
 1798 0081 17       		.uleb128 0x17
 1799 0082 01       		.byte	0x1
 1800 0083 0B       		.uleb128 0xb
 1801 0084 0B       		.uleb128 0xb
 1802 0085 3A       		.uleb128 0x3a
 1803 0086 0B       		.uleb128 0xb
 1804 0087 3B       		.uleb128 0x3b
 1805 0088 0B       		.uleb128 0xb
 1806 0089 01       		.uleb128 0x1
 1807 008a 13       		.uleb128 0x13
 1808 008b 00       		.byte	0
 1809 008c 00       		.byte	0
 1810 008d 0C       		.uleb128 0xc
 1811 008e 0D       		.uleb128 0xd
 1812 008f 00       		.byte	0
 1813 0090 03       		.uleb128 0x3
 1814 0091 0E       		.uleb128 0xe
 1815 0092 3A       		.uleb128 0x3a
 1816 0093 0B       		.uleb128 0xb
 1817 0094 3B       		.uleb128 0x3b
 1818 0095 0B       		.uleb128 0xb
 1819 0096 49       		.uleb128 0x49
 1820 0097 13       		.uleb128 0x13
 1821 0098 00       		.byte	0
 1822 0099 00       		.byte	0
 1823 009a 0D       		.uleb128 0xd
 1824 009b 2E       		.uleb128 0x2e
ARM GAS  /tmp/ccEpMqtQ.s 			page 33


 1825 009c 01       		.byte	0x1
 1826 009d 03       		.uleb128 0x3
 1827 009e 0E       		.uleb128 0xe
 1828 009f 3A       		.uleb128 0x3a
 1829 00a0 0B       		.uleb128 0xb
 1830 00a1 3B       		.uleb128 0x3b
 1831 00a2 0B       		.uleb128 0xb
 1832 00a3 27       		.uleb128 0x27
 1833 00a4 19       		.uleb128 0x19
 1834 00a5 49       		.uleb128 0x49
 1835 00a6 13       		.uleb128 0x13
 1836 00a7 20       		.uleb128 0x20
 1837 00a8 0B       		.uleb128 0xb
 1838 00a9 01       		.uleb128 0x1
 1839 00aa 13       		.uleb128 0x13
 1840 00ab 00       		.byte	0
 1841 00ac 00       		.byte	0
 1842 00ad 0E       		.uleb128 0xe
 1843 00ae 05       		.uleb128 0x5
 1844 00af 00       		.byte	0
 1845 00b0 03       		.uleb128 0x3
 1846 00b1 08       		.uleb128 0x8
 1847 00b2 3A       		.uleb128 0x3a
 1848 00b3 0B       		.uleb128 0xb
 1849 00b4 3B       		.uleb128 0x3b
 1850 00b5 0B       		.uleb128 0xb
 1851 00b6 49       		.uleb128 0x49
 1852 00b7 13       		.uleb128 0x13
 1853 00b8 00       		.byte	0
 1854 00b9 00       		.byte	0
 1855 00ba 0F       		.uleb128 0xf
 1856 00bb 2E       		.uleb128 0x2e
 1857 00bc 01       		.byte	0x1
 1858 00bd 03       		.uleb128 0x3
 1859 00be 0E       		.uleb128 0xe
 1860 00bf 3A       		.uleb128 0x3a
 1861 00c0 0B       		.uleb128 0xb
 1862 00c1 3B       		.uleb128 0x3b
 1863 00c2 0B       		.uleb128 0xb
 1864 00c3 27       		.uleb128 0x27
 1865 00c4 19       		.uleb128 0x19
 1866 00c5 20       		.uleb128 0x20
 1867 00c6 0B       		.uleb128 0xb
 1868 00c7 01       		.uleb128 0x1
 1869 00c8 13       		.uleb128 0x13
 1870 00c9 00       		.byte	0
 1871 00ca 00       		.byte	0
 1872 00cb 10       		.uleb128 0x10
 1873 00cc 34       		.uleb128 0x34
 1874 00cd 00       		.byte	0
 1875 00ce 03       		.uleb128 0x3
 1876 00cf 08       		.uleb128 0x8
 1877 00d0 3A       		.uleb128 0x3a
 1878 00d1 0B       		.uleb128 0xb
 1879 00d2 3B       		.uleb128 0x3b
 1880 00d3 0B       		.uleb128 0xb
 1881 00d4 49       		.uleb128 0x49
ARM GAS  /tmp/ccEpMqtQ.s 			page 34


 1882 00d5 13       		.uleb128 0x13
 1883 00d6 00       		.byte	0
 1884 00d7 00       		.byte	0
 1885 00d8 11       		.uleb128 0x11
 1886 00d9 2E       		.uleb128 0x2e
 1887 00da 01       		.byte	0x1
 1888 00db 3F       		.uleb128 0x3f
 1889 00dc 19       		.uleb128 0x19
 1890 00dd 03       		.uleb128 0x3
 1891 00de 0E       		.uleb128 0xe
 1892 00df 3A       		.uleb128 0x3a
 1893 00e0 0B       		.uleb128 0xb
 1894 00e1 3B       		.uleb128 0x3b
 1895 00e2 0B       		.uleb128 0xb
 1896 00e3 27       		.uleb128 0x27
 1897 00e4 19       		.uleb128 0x19
 1898 00e5 49       		.uleb128 0x49
 1899 00e6 13       		.uleb128 0x13
 1900 00e7 20       		.uleb128 0x20
 1901 00e8 0B       		.uleb128 0xb
 1902 00e9 01       		.uleb128 0x1
 1903 00ea 13       		.uleb128 0x13
 1904 00eb 00       		.byte	0
 1905 00ec 00       		.byte	0
 1906 00ed 12       		.uleb128 0x12
 1907 00ee 2E       		.uleb128 0x2e
 1908 00ef 01       		.byte	0x1
 1909 00f0 3F       		.uleb128 0x3f
 1910 00f1 19       		.uleb128 0x19
 1911 00f2 03       		.uleb128 0x3
 1912 00f3 0E       		.uleb128 0xe
 1913 00f4 3A       		.uleb128 0x3a
 1914 00f5 0B       		.uleb128 0xb
 1915 00f6 3B       		.uleb128 0x3b
 1916 00f7 0B       		.uleb128 0xb
 1917 00f8 27       		.uleb128 0x27
 1918 00f9 19       		.uleb128 0x19
 1919 00fa 11       		.uleb128 0x11
 1920 00fb 01       		.uleb128 0x1
 1921 00fc 12       		.uleb128 0x12
 1922 00fd 06       		.uleb128 0x6
 1923 00fe 40       		.uleb128 0x40
 1924 00ff 18       		.uleb128 0x18
 1925 0100 9742     		.uleb128 0x2117
 1926 0102 19       		.uleb128 0x19
 1927 0103 01       		.uleb128 0x1
 1928 0104 13       		.uleb128 0x13
 1929 0105 00       		.byte	0
 1930 0106 00       		.byte	0
 1931 0107 13       		.uleb128 0x13
 1932 0108 05       		.uleb128 0x5
 1933 0109 00       		.byte	0
 1934 010a 03       		.uleb128 0x3
 1935 010b 08       		.uleb128 0x8
 1936 010c 3A       		.uleb128 0x3a
 1937 010d 0B       		.uleb128 0xb
 1938 010e 3B       		.uleb128 0x3b
ARM GAS  /tmp/ccEpMqtQ.s 			page 35


 1939 010f 0B       		.uleb128 0xb
 1940 0110 49       		.uleb128 0x49
 1941 0111 13       		.uleb128 0x13
 1942 0112 02       		.uleb128 0x2
 1943 0113 18       		.uleb128 0x18
 1944 0114 00       		.byte	0
 1945 0115 00       		.byte	0
 1946 0116 14       		.uleb128 0x14
 1947 0117 05       		.uleb128 0x5
 1948 0118 00       		.byte	0
 1949 0119 03       		.uleb128 0x3
 1950 011a 08       		.uleb128 0x8
 1951 011b 3A       		.uleb128 0x3a
 1952 011c 0B       		.uleb128 0xb
 1953 011d 3B       		.uleb128 0x3b
 1954 011e 0B       		.uleb128 0xb
 1955 011f 49       		.uleb128 0x49
 1956 0120 13       		.uleb128 0x13
 1957 0121 02       		.uleb128 0x2
 1958 0122 17       		.uleb128 0x17
 1959 0123 00       		.byte	0
 1960 0124 00       		.byte	0
 1961 0125 15       		.uleb128 0x15
 1962 0126 34       		.uleb128 0x34
 1963 0127 00       		.byte	0
 1964 0128 03       		.uleb128 0x3
 1965 0129 08       		.uleb128 0x8
 1966 012a 3A       		.uleb128 0x3a
 1967 012b 0B       		.uleb128 0xb
 1968 012c 3B       		.uleb128 0x3b
 1969 012d 0B       		.uleb128 0xb
 1970 012e 49       		.uleb128 0x49
 1971 012f 13       		.uleb128 0x13
 1972 0130 02       		.uleb128 0x2
 1973 0131 17       		.uleb128 0x17
 1974 0132 00       		.byte	0
 1975 0133 00       		.byte	0
 1976 0134 16       		.uleb128 0x16
 1977 0135 0B       		.uleb128 0xb
 1978 0136 01       		.byte	0x1
 1979 0137 55       		.uleb128 0x55
 1980 0138 17       		.uleb128 0x17
 1981 0139 00       		.byte	0
 1982 013a 00       		.byte	0
 1983 013b 17       		.uleb128 0x17
 1984 013c 1D       		.uleb128 0x1d
 1985 013d 01       		.byte	0x1
 1986 013e 31       		.uleb128 0x31
 1987 013f 13       		.uleb128 0x13
 1988 0140 52       		.uleb128 0x52
 1989 0141 01       		.uleb128 0x1
 1990 0142 55       		.uleb128 0x55
 1991 0143 17       		.uleb128 0x17
 1992 0144 58       		.uleb128 0x58
 1993 0145 0B       		.uleb128 0xb
 1994 0146 59       		.uleb128 0x59
 1995 0147 0B       		.uleb128 0xb
ARM GAS  /tmp/ccEpMqtQ.s 			page 36


 1996 0148 01       		.uleb128 0x1
 1997 0149 13       		.uleb128 0x13
 1998 014a 00       		.byte	0
 1999 014b 00       		.byte	0
 2000 014c 18       		.uleb128 0x18
 2001 014d 05       		.uleb128 0x5
 2002 014e 00       		.byte	0
 2003 014f 31       		.uleb128 0x31
 2004 0150 13       		.uleb128 0x13
 2005 0151 02       		.uleb128 0x2
 2006 0152 17       		.uleb128 0x17
 2007 0153 00       		.byte	0
 2008 0154 00       		.byte	0
 2009 0155 19       		.uleb128 0x19
 2010 0156 1D       		.uleb128 0x1d
 2011 0157 01       		.byte	0x1
 2012 0158 31       		.uleb128 0x31
 2013 0159 13       		.uleb128 0x13
 2014 015a 11       		.uleb128 0x11
 2015 015b 01       		.uleb128 0x1
 2016 015c 12       		.uleb128 0x12
 2017 015d 06       		.uleb128 0x6
 2018 015e 58       		.uleb128 0x58
 2019 015f 0B       		.uleb128 0xb
 2020 0160 59       		.uleb128 0x59
 2021 0161 0B       		.uleb128 0xb
 2022 0162 01       		.uleb128 0x1
 2023 0163 13       		.uleb128 0x13
 2024 0164 00       		.byte	0
 2025 0165 00       		.byte	0
 2026 0166 1A       		.uleb128 0x1a
 2027 0167 0B       		.uleb128 0xb
 2028 0168 01       		.byte	0x1
 2029 0169 11       		.uleb128 0x11
 2030 016a 01       		.uleb128 0x1
 2031 016b 12       		.uleb128 0x12
 2032 016c 06       		.uleb128 0x6
 2033 016d 00       		.byte	0
 2034 016e 00       		.byte	0
 2035 016f 1B       		.uleb128 0x1b
 2036 0170 34       		.uleb128 0x34
 2037 0171 00       		.byte	0
 2038 0172 31       		.uleb128 0x31
 2039 0173 13       		.uleb128 0x13
 2040 0174 02       		.uleb128 0x2
 2041 0175 17       		.uleb128 0x17
 2042 0176 00       		.byte	0
 2043 0177 00       		.byte	0
 2044 0178 1C       		.uleb128 0x1c
 2045 0179 898201   		.uleb128 0x4109
 2046 017c 01       		.byte	0x1
 2047 017d 11       		.uleb128 0x11
 2048 017e 01       		.uleb128 0x1
 2049 017f 9542     		.uleb128 0x2115
 2050 0181 19       		.uleb128 0x19
 2051 0182 31       		.uleb128 0x31
 2052 0183 13       		.uleb128 0x13
ARM GAS  /tmp/ccEpMqtQ.s 			page 37


 2053 0184 01       		.uleb128 0x1
 2054 0185 13       		.uleb128 0x13
 2055 0186 00       		.byte	0
 2056 0187 00       		.byte	0
 2057 0188 1D       		.uleb128 0x1d
 2058 0189 8A8201   		.uleb128 0x410a
 2059 018c 00       		.byte	0
 2060 018d 02       		.uleb128 0x2
 2061 018e 18       		.uleb128 0x18
 2062 018f 9142     		.uleb128 0x2111
 2063 0191 18       		.uleb128 0x18
 2064 0192 00       		.byte	0
 2065 0193 00       		.byte	0
 2066 0194 1E       		.uleb128 0x1e
 2067 0195 898201   		.uleb128 0x4109
 2068 0198 00       		.byte	0
 2069 0199 11       		.uleb128 0x11
 2070 019a 01       		.uleb128 0x1
 2071 019b 31       		.uleb128 0x31
 2072 019c 13       		.uleb128 0x13
 2073 019d 00       		.byte	0
 2074 019e 00       		.byte	0
 2075 019f 1F       		.uleb128 0x1f
 2076 01a0 898201   		.uleb128 0x4109
 2077 01a3 01       		.byte	0x1
 2078 01a4 11       		.uleb128 0x11
 2079 01a5 01       		.uleb128 0x1
 2080 01a6 31       		.uleb128 0x31
 2081 01a7 13       		.uleb128 0x13
 2082 01a8 00       		.byte	0
 2083 01a9 00       		.byte	0
 2084 01aa 20       		.uleb128 0x20
 2085 01ab 2E       		.uleb128 0x2e
 2086 01ac 01       		.byte	0x1
 2087 01ad 3F       		.uleb128 0x3f
 2088 01ae 19       		.uleb128 0x19
 2089 01af 03       		.uleb128 0x3
 2090 01b0 0E       		.uleb128 0xe
 2091 01b1 3A       		.uleb128 0x3a
 2092 01b2 0B       		.uleb128 0xb
 2093 01b3 3B       		.uleb128 0x3b
 2094 01b4 0B       		.uleb128 0xb
 2095 01b5 27       		.uleb128 0x27
 2096 01b6 19       		.uleb128 0x19
 2097 01b7 49       		.uleb128 0x49
 2098 01b8 13       		.uleb128 0x13
 2099 01b9 11       		.uleb128 0x11
 2100 01ba 01       		.uleb128 0x1
 2101 01bb 12       		.uleb128 0x12
 2102 01bc 06       		.uleb128 0x6
 2103 01bd 40       		.uleb128 0x40
 2104 01be 18       		.uleb128 0x18
 2105 01bf 9742     		.uleb128 0x2117
 2106 01c1 19       		.uleb128 0x19
 2107 01c2 01       		.uleb128 0x1
 2108 01c3 13       		.uleb128 0x13
 2109 01c4 00       		.byte	0
ARM GAS  /tmp/ccEpMqtQ.s 			page 38


 2110 01c5 00       		.byte	0
 2111 01c6 21       		.uleb128 0x21
 2112 01c7 1D       		.uleb128 0x1d
 2113 01c8 01       		.byte	0x1
 2114 01c9 31       		.uleb128 0x31
 2115 01ca 13       		.uleb128 0x13
 2116 01cb 11       		.uleb128 0x11
 2117 01cc 01       		.uleb128 0x1
 2118 01cd 12       		.uleb128 0x12
 2119 01ce 06       		.uleb128 0x6
 2120 01cf 58       		.uleb128 0x58
 2121 01d0 0B       		.uleb128 0xb
 2122 01d1 59       		.uleb128 0x59
 2123 01d2 0B       		.uleb128 0xb
 2124 01d3 00       		.byte	0
 2125 01d4 00       		.byte	0
 2126 01d5 22       		.uleb128 0x22
 2127 01d6 2E       		.uleb128 0x2e
 2128 01d7 01       		.byte	0x1
 2129 01d8 31       		.uleb128 0x31
 2130 01d9 13       		.uleb128 0x13
 2131 01da 11       		.uleb128 0x11
 2132 01db 01       		.uleb128 0x1
 2133 01dc 12       		.uleb128 0x12
 2134 01dd 06       		.uleb128 0x6
 2135 01de 40       		.uleb128 0x40
 2136 01df 18       		.uleb128 0x18
 2137 01e0 9742     		.uleb128 0x2117
 2138 01e2 19       		.uleb128 0x19
 2139 01e3 01       		.uleb128 0x1
 2140 01e4 13       		.uleb128 0x13
 2141 01e5 00       		.byte	0
 2142 01e6 00       		.byte	0
 2143 01e7 23       		.uleb128 0x23
 2144 01e8 34       		.uleb128 0x34
 2145 01e9 00       		.byte	0
 2146 01ea 03       		.uleb128 0x3
 2147 01eb 08       		.uleb128 0x8
 2148 01ec 3A       		.uleb128 0x3a
 2149 01ed 0B       		.uleb128 0xb
 2150 01ee 3B       		.uleb128 0x3b
 2151 01ef 0B       		.uleb128 0xb
 2152 01f0 49       		.uleb128 0x49
 2153 01f1 13       		.uleb128 0x13
 2154 01f2 02       		.uleb128 0x2
 2155 01f3 18       		.uleb128 0x18
 2156 01f4 00       		.byte	0
 2157 01f5 00       		.byte	0
 2158 01f6 24       		.uleb128 0x24
 2159 01f7 34       		.uleb128 0x34
 2160 01f8 00       		.byte	0
 2161 01f9 03       		.uleb128 0x3
 2162 01fa 08       		.uleb128 0x8
 2163 01fb 3A       		.uleb128 0x3a
 2164 01fc 0B       		.uleb128 0xb
 2165 01fd 3B       		.uleb128 0x3b
 2166 01fe 05       		.uleb128 0x5
ARM GAS  /tmp/ccEpMqtQ.s 			page 39


 2167 01ff 49       		.uleb128 0x49
 2168 0200 13       		.uleb128 0x13
 2169 0201 00       		.byte	0
 2170 0202 00       		.byte	0
 2171 0203 25       		.uleb128 0x25
 2172 0204 34       		.uleb128 0x34
 2173 0205 00       		.byte	0
 2174 0206 03       		.uleb128 0x3
 2175 0207 0E       		.uleb128 0xe
 2176 0208 3A       		.uleb128 0x3a
 2177 0209 0B       		.uleb128 0xb
 2178 020a 3B       		.uleb128 0x3b
 2179 020b 05       		.uleb128 0x5
 2180 020c 49       		.uleb128 0x49
 2181 020d 13       		.uleb128 0x13
 2182 020e 02       		.uleb128 0x2
 2183 020f 17       		.uleb128 0x17
 2184 0210 00       		.byte	0
 2185 0211 00       		.byte	0
 2186 0212 26       		.uleb128 0x26
 2187 0213 1D       		.uleb128 0x1d
 2188 0214 01       		.byte	0x1
 2189 0215 31       		.uleb128 0x31
 2190 0216 13       		.uleb128 0x13
 2191 0217 52       		.uleb128 0x52
 2192 0218 01       		.uleb128 0x1
 2193 0219 55       		.uleb128 0x55
 2194 021a 17       		.uleb128 0x17
 2195 021b 58       		.uleb128 0x58
 2196 021c 0B       		.uleb128 0xb
 2197 021d 59       		.uleb128 0x59
 2198 021e 05       		.uleb128 0x5
 2199 021f 01       		.uleb128 0x1
 2200 0220 13       		.uleb128 0x13
 2201 0221 00       		.byte	0
 2202 0222 00       		.byte	0
 2203 0223 27       		.uleb128 0x27
 2204 0224 2E       		.uleb128 0x2e
 2205 0225 01       		.byte	0x1
 2206 0226 3F       		.uleb128 0x3f
 2207 0227 19       		.uleb128 0x19
 2208 0228 03       		.uleb128 0x3
 2209 0229 0E       		.uleb128 0xe
 2210 022a 3A       		.uleb128 0x3a
 2211 022b 0B       		.uleb128 0xb
 2212 022c 3B       		.uleb128 0x3b
 2213 022d 05       		.uleb128 0x5
 2214 022e 27       		.uleb128 0x27
 2215 022f 19       		.uleb128 0x19
 2216 0230 49       		.uleb128 0x49
 2217 0231 13       		.uleb128 0x13
 2218 0232 11       		.uleb128 0x11
 2219 0233 01       		.uleb128 0x1
 2220 0234 12       		.uleb128 0x12
 2221 0235 06       		.uleb128 0x6
 2222 0236 40       		.uleb128 0x40
 2223 0237 18       		.uleb128 0x18
ARM GAS  /tmp/ccEpMqtQ.s 			page 40


 2224 0238 9742     		.uleb128 0x2117
 2225 023a 19       		.uleb128 0x19
 2226 023b 01       		.uleb128 0x1
 2227 023c 13       		.uleb128 0x13
 2228 023d 00       		.byte	0
 2229 023e 00       		.byte	0
 2230 023f 28       		.uleb128 0x28
 2231 0240 34       		.uleb128 0x34
 2232 0241 00       		.byte	0
 2233 0242 03       		.uleb128 0x3
 2234 0243 08       		.uleb128 0x8
 2235 0244 3A       		.uleb128 0x3a
 2236 0245 0B       		.uleb128 0xb
 2237 0246 3B       		.uleb128 0x3b
 2238 0247 05       		.uleb128 0x5
 2239 0248 49       		.uleb128 0x49
 2240 0249 13       		.uleb128 0x13
 2241 024a 02       		.uleb128 0x2
 2242 024b 17       		.uleb128 0x17
 2243 024c 00       		.byte	0
 2244 024d 00       		.byte	0
 2245 024e 29       		.uleb128 0x29
 2246 024f 34       		.uleb128 0x34
 2247 0250 00       		.byte	0
 2248 0251 03       		.uleb128 0x3
 2249 0252 08       		.uleb128 0x8
 2250 0253 3A       		.uleb128 0x3a
 2251 0254 0B       		.uleb128 0xb
 2252 0255 3B       		.uleb128 0x3b
 2253 0256 05       		.uleb128 0x5
 2254 0257 49       		.uleb128 0x49
 2255 0258 13       		.uleb128 0x13
 2256 0259 02       		.uleb128 0x2
 2257 025a 18       		.uleb128 0x18
 2258 025b 00       		.byte	0
 2259 025c 00       		.byte	0
 2260 025d 2A       		.uleb128 0x2a
 2261 025e 2E       		.uleb128 0x2e
 2262 025f 01       		.byte	0x1
 2263 0260 3F       		.uleb128 0x3f
 2264 0261 19       		.uleb128 0x19
 2265 0262 03       		.uleb128 0x3
 2266 0263 0E       		.uleb128 0xe
 2267 0264 3A       		.uleb128 0x3a
 2268 0265 0B       		.uleb128 0xb
 2269 0266 3B       		.uleb128 0x3b
 2270 0267 05       		.uleb128 0x5
 2271 0268 27       		.uleb128 0x27
 2272 0269 19       		.uleb128 0x19
 2273 026a 11       		.uleb128 0x11
 2274 026b 01       		.uleb128 0x1
 2275 026c 12       		.uleb128 0x12
 2276 026d 06       		.uleb128 0x6
 2277 026e 40       		.uleb128 0x40
 2278 026f 18       		.uleb128 0x18
 2279 0270 9742     		.uleb128 0x2117
 2280 0272 19       		.uleb128 0x19
ARM GAS  /tmp/ccEpMqtQ.s 			page 41


 2281 0273 01       		.uleb128 0x1
 2282 0274 13       		.uleb128 0x13
 2283 0275 00       		.byte	0
 2284 0276 00       		.byte	0
 2285 0277 2B       		.uleb128 0x2b
 2286 0278 0B       		.uleb128 0xb
 2287 0279 01       		.byte	0x1
 2288 027a 11       		.uleb128 0x11
 2289 027b 01       		.uleb128 0x1
 2290 027c 12       		.uleb128 0x12
 2291 027d 06       		.uleb128 0x6
 2292 027e 01       		.uleb128 0x1
 2293 027f 13       		.uleb128 0x13
 2294 0280 00       		.byte	0
 2295 0281 00       		.byte	0
 2296 0282 2C       		.uleb128 0x2c
 2297 0283 34       		.uleb128 0x34
 2298 0284 00       		.byte	0
 2299 0285 03       		.uleb128 0x3
 2300 0286 0E       		.uleb128 0xe
 2301 0287 3A       		.uleb128 0x3a
 2302 0288 0B       		.uleb128 0xb
 2303 0289 3B       		.uleb128 0x3b
 2304 028a 0B       		.uleb128 0xb
 2305 028b 49       		.uleb128 0x49
 2306 028c 13       		.uleb128 0x13
 2307 028d 3F       		.uleb128 0x3f
 2308 028e 19       		.uleb128 0x19
 2309 028f 3C       		.uleb128 0x3c
 2310 0290 19       		.uleb128 0x19
 2311 0291 00       		.byte	0
 2312 0292 00       		.byte	0
 2313 0293 2D       		.uleb128 0x2d
 2314 0294 2E       		.uleb128 0x2e
 2315 0295 01       		.byte	0x1
 2316 0296 3F       		.uleb128 0x3f
 2317 0297 19       		.uleb128 0x19
 2318 0298 03       		.uleb128 0x3
 2319 0299 0E       		.uleb128 0xe
 2320 029a 3A       		.uleb128 0x3a
 2321 029b 0B       		.uleb128 0xb
 2322 029c 3B       		.uleb128 0x3b
 2323 029d 0B       		.uleb128 0xb
 2324 029e 27       		.uleb128 0x27
 2325 029f 19       		.uleb128 0x19
 2326 02a0 3C       		.uleb128 0x3c
 2327 02a1 19       		.uleb128 0x19
 2328 02a2 01       		.uleb128 0x1
 2329 02a3 13       		.uleb128 0x13
 2330 02a4 00       		.byte	0
 2331 02a5 00       		.byte	0
 2332 02a6 2E       		.uleb128 0x2e
 2333 02a7 05       		.uleb128 0x5
 2334 02a8 00       		.byte	0
 2335 02a9 49       		.uleb128 0x49
 2336 02aa 13       		.uleb128 0x13
 2337 02ab 00       		.byte	0
ARM GAS  /tmp/ccEpMqtQ.s 			page 42


 2338 02ac 00       		.byte	0
 2339 02ad 2F       		.uleb128 0x2f
 2340 02ae 2E       		.uleb128 0x2e
 2341 02af 01       		.byte	0x1
 2342 02b0 3F       		.uleb128 0x3f
 2343 02b1 19       		.uleb128 0x19
 2344 02b2 03       		.uleb128 0x3
 2345 02b3 0E       		.uleb128 0xe
 2346 02b4 3A       		.uleb128 0x3a
 2347 02b5 0B       		.uleb128 0xb
 2348 02b6 3B       		.uleb128 0x3b
 2349 02b7 0B       		.uleb128 0xb
 2350 02b8 27       		.uleb128 0x27
 2351 02b9 19       		.uleb128 0x19
 2352 02ba 49       		.uleb128 0x49
 2353 02bb 13       		.uleb128 0x13
 2354 02bc 3C       		.uleb128 0x3c
 2355 02bd 19       		.uleb128 0x19
 2356 02be 01       		.uleb128 0x1
 2357 02bf 13       		.uleb128 0x13
 2358 02c0 00       		.byte	0
 2359 02c1 00       		.byte	0
 2360 02c2 30       		.uleb128 0x30
 2361 02c3 2E       		.uleb128 0x2e
 2362 02c4 00       		.byte	0
 2363 02c5 3F       		.uleb128 0x3f
 2364 02c6 19       		.uleb128 0x19
 2365 02c7 03       		.uleb128 0x3
 2366 02c8 0E       		.uleb128 0xe
 2367 02c9 3A       		.uleb128 0x3a
 2368 02ca 0B       		.uleb128 0xb
 2369 02cb 3B       		.uleb128 0x3b
 2370 02cc 0B       		.uleb128 0xb
 2371 02cd 27       		.uleb128 0x27
 2372 02ce 19       		.uleb128 0x19
 2373 02cf 3C       		.uleb128 0x3c
 2374 02d0 19       		.uleb128 0x19
 2375 02d1 00       		.byte	0
 2376 02d2 00       		.byte	0
 2377 02d3 00       		.byte	0
 2378              		.section	.debug_loc,"",%progbits
 2379              	.Ldebug_loc0:
 2380              	.LLST0:
 2381 0000 00000000 		.4byte	.LVL1
 2382 0004 24000000 		.4byte	.LVL4
 2383 0008 0100     		.2byte	0x1
 2384 000a 50       		.byte	0x50
 2385 000b 24000000 		.4byte	.LVL4
 2386 000f E8000000 		.4byte	.LVL14
 2387 0013 0100     		.2byte	0x1
 2388 0015 55       		.byte	0x55
 2389 0016 E8000000 		.4byte	.LVL14
 2390 001a EB000000 		.4byte	.LVL15-1
 2391 001e 0500     		.2byte	0x5
 2392 0020 73       		.byte	0x73
 2393 0021 04       		.sleb128 4
 2394 0022 06       		.byte	0x6
ARM GAS  /tmp/ccEpMqtQ.s 			page 43


 2395 0023 23       		.byte	0x23
 2396 0024 14       		.uleb128 0x14
 2397 0025 EB000000 		.4byte	.LVL15-1
 2398 0029 EC000000 		.4byte	.LVL15
 2399 002d 0400     		.2byte	0x4
 2400 002f F3       		.byte	0xf3
 2401 0030 01       		.uleb128 0x1
 2402 0031 50       		.byte	0x50
 2403 0032 9F       		.byte	0x9f
 2404 0033 EC000000 		.4byte	.LVL15
 2405 0037 08010000 		.4byte	.LVL18
 2406 003b 0100     		.2byte	0x1
 2407 003d 55       		.byte	0x55
 2408 003e 08010000 		.4byte	.LVL18
 2409 0042 20010000 		.4byte	.LFE9
 2410 0046 0100     		.2byte	0x1
 2411 0048 50       		.byte	0x50
 2412 0049 00000000 		.4byte	0
 2413 004d 00000000 		.4byte	0
 2414              	.LLST1:
 2415 0051 14000000 		.4byte	.LVL2
 2416 0055 E8000000 		.4byte	.LVL14
 2417 0059 0100     		.2byte	0x1
 2418 005b 54       		.byte	0x54
 2419 005c E8000000 		.4byte	.LVL14
 2420 0060 EB000000 		.4byte	.LVL15-1
 2421 0064 0200     		.2byte	0x2
 2422 0066 73       		.byte	0x73
 2423 0067 04       		.sleb128 4
 2424 0068 EC000000 		.4byte	.LVL15
 2425 006c 20010000 		.4byte	.LFE9
 2426 0070 0100     		.2byte	0x1
 2427 0072 54       		.byte	0x54
 2428 0073 00000000 		.4byte	0
 2429 0077 00000000 		.4byte	0
 2430              	.LLST2:
 2431 007b 1C000000 		.4byte	.LVL3
 2432 007f A4000000 		.4byte	.LVL11
 2433 0083 0100     		.2byte	0x1
 2434 0085 52       		.byte	0x52
 2435 0086 EC000000 		.4byte	.LVL15
 2436 008a FC000000 		.4byte	.LVL16
 2437 008e 0100     		.2byte	0x1
 2438 0090 52       		.byte	0x52
 2439 0091 FC000000 		.4byte	.LVL16
 2440 0095 03010000 		.4byte	.LVL17-1
 2441 0099 0100     		.2byte	0x1
 2442 009b 50       		.byte	0x50
 2443 009c 00000000 		.4byte	0
 2444 00a0 00000000 		.4byte	0
 2445              	.LLST3:
 2446 00a4 44000000 		.4byte	.LVL5
 2447 00a8 94000000 		.4byte	.LVL9
 2448 00ac 0100     		.2byte	0x1
 2449 00ae 52       		.byte	0x52
 2450 00af 94000000 		.4byte	.LVL9
 2451 00b3 9C000000 		.4byte	.LVL10
ARM GAS  /tmp/ccEpMqtQ.s 			page 44


 2452 00b7 0200     		.2byte	0x2
 2453 00b9 73       		.byte	0x73
 2454 00ba 04       		.sleb128 4
 2455 00bb 9C000000 		.4byte	.LVL10
 2456 00bf A4000000 		.4byte	.LVL11
 2457 00c3 0200     		.2byte	0x2
 2458 00c5 71       		.byte	0x71
 2459 00c6 00       		.sleb128 0
 2460 00c7 00000000 		.4byte	0
 2461 00cb 00000000 		.4byte	0
 2462              	.LLST4:
 2463 00cf 50000000 		.4byte	.LVL6
 2464 00d3 A4000000 		.4byte	.LVL11
 2465 00d7 0100     		.2byte	0x1
 2466 00d9 5C       		.byte	0x5c
 2467 00da 00000000 		.4byte	0
 2468 00de 00000000 		.4byte	0
 2469              	.LLST5:
 2470 00e2 50000000 		.4byte	.LVL6
 2471 00e6 94000000 		.4byte	.LVL9
 2472 00ea 0100     		.2byte	0x1
 2473 00ec 52       		.byte	0x52
 2474 00ed 94000000 		.4byte	.LVL9
 2475 00f1 9C000000 		.4byte	.LVL10
 2476 00f5 0200     		.2byte	0x2
 2477 00f7 73       		.byte	0x73
 2478 00f8 04       		.sleb128 4
 2479 00f9 9C000000 		.4byte	.LVL10
 2480 00fd A4000000 		.4byte	.LVL11
 2481 0101 0200     		.2byte	0x2
 2482 0103 71       		.byte	0x71
 2483 0104 00       		.sleb128 0
 2484 0105 00000000 		.4byte	0
 2485 0109 00000000 		.4byte	0
 2486              	.LLST6:
 2487 010d 50000000 		.4byte	.LVL6
 2488 0111 64000000 		.4byte	.LVL7
 2489 0115 0100     		.2byte	0x1
 2490 0117 5C       		.byte	0x5c
 2491 0118 64000000 		.4byte	.LVL7
 2492 011c 9C000000 		.4byte	.LVL10
 2493 0120 0100     		.2byte	0x1
 2494 0122 53       		.byte	0x53
 2495 0123 00000000 		.4byte	0
 2496 0127 00000000 		.4byte	0
 2497              	.LLST7:
 2498 012b A4000000 		.4byte	.LVL11
 2499 012f E8000000 		.4byte	.LVL14
 2500 0133 0100     		.2byte	0x1
 2501 0135 55       		.byte	0x55
 2502 0136 E8000000 		.4byte	.LVL14
 2503 013a EB000000 		.4byte	.LVL15-1
 2504 013e 0500     		.2byte	0x5
 2505 0140 73       		.byte	0x73
 2506 0141 04       		.sleb128 4
 2507 0142 06       		.byte	0x6
 2508 0143 23       		.byte	0x23
ARM GAS  /tmp/ccEpMqtQ.s 			page 45


 2509 0144 14       		.uleb128 0x14
 2510 0145 EB000000 		.4byte	.LVL15-1
 2511 0149 EC000000 		.4byte	.LVL15
 2512 014d 0400     		.2byte	0x4
 2513 014f F3       		.byte	0xf3
 2514 0150 01       		.uleb128 0x1
 2515 0151 50       		.byte	0x50
 2516 0152 9F       		.byte	0x9f
 2517 0153 00000000 		.4byte	0
 2518 0157 00000000 		.4byte	0
 2519              	.LLST8:
 2520 015b A4000000 		.4byte	.LVL11
 2521 015f E8000000 		.4byte	.LVL14
 2522 0163 0100     		.2byte	0x1
 2523 0165 54       		.byte	0x54
 2524 0166 E8000000 		.4byte	.LVL14
 2525 016a EB000000 		.4byte	.LVL15-1
 2526 016e 0200     		.2byte	0x2
 2527 0170 73       		.byte	0x73
 2528 0171 04       		.sleb128 4
 2529 0172 00000000 		.4byte	0
 2530 0176 00000000 		.4byte	0
 2531              	.LLST9:
 2532 017a A4000000 		.4byte	.LVL11
 2533 017e AC000000 		.4byte	.LVL12
 2534 0182 0100     		.2byte	0x1
 2535 0184 55       		.byte	0x55
 2536 0185 AC000000 		.4byte	.LVL12
 2537 0189 EB000000 		.4byte	.LVL15-1
 2538 018d 0100     		.2byte	0x1
 2539 018f 53       		.byte	0x53
 2540 0190 00000000 		.4byte	0
 2541 0194 00000000 		.4byte	0
 2542              	.LLST10:
 2543 0198 EC000000 		.4byte	.LVL15
 2544 019c FC000000 		.4byte	.LVL16
 2545 01a0 0100     		.2byte	0x1
 2546 01a2 52       		.byte	0x52
 2547 01a3 FC000000 		.4byte	.LVL16
 2548 01a7 03010000 		.4byte	.LVL17-1
 2549 01ab 0100     		.2byte	0x1
 2550 01ad 50       		.byte	0x50
 2551 01ae 00000000 		.4byte	0
 2552 01b2 00000000 		.4byte	0
 2553              	.LLST11:
 2554 01b6 00000000 		.4byte	.LVL19
 2555 01ba 0B000000 		.4byte	.LVL20-1
 2556 01be 0100     		.2byte	0x1
 2557 01c0 50       		.byte	0x50
 2558 01c1 0B000000 		.4byte	.LVL20-1
 2559 01c5 14000000 		.4byte	.LFE8
 2560 01c9 0400     		.2byte	0x4
 2561 01cb F3       		.byte	0xf3
 2562 01cc 01       		.uleb128 0x1
 2563 01cd 50       		.byte	0x50
 2564 01ce 9F       		.byte	0x9f
 2565 01cf 00000000 		.4byte	0
ARM GAS  /tmp/ccEpMqtQ.s 			page 46


 2566 01d3 00000000 		.4byte	0
 2567              	.LLST12:
 2568 01d7 00000000 		.4byte	.LVL21
 2569 01db 18000000 		.4byte	.LVL24
 2570 01df 0100     		.2byte	0x1
 2571 01e1 50       		.byte	0x50
 2572 01e2 18000000 		.4byte	.LVL24
 2573 01e6 3C000000 		.4byte	.LFE10
 2574 01ea 0100     		.2byte	0x1
 2575 01ec 53       		.byte	0x53
 2576 01ed 00000000 		.4byte	0
 2577 01f1 00000000 		.4byte	0
 2578              	.LLST13:
 2579 01f5 08000000 		.4byte	.LVL22
 2580 01f9 18000000 		.4byte	.LVL24
 2581 01fd 0100     		.2byte	0x1
 2582 01ff 50       		.byte	0x50
 2583 0200 18000000 		.4byte	.LVL24
 2584 0204 3C000000 		.4byte	.LFE10
 2585 0208 0100     		.2byte	0x1
 2586 020a 53       		.byte	0x53
 2587 020b 00000000 		.4byte	0
 2588 020f 00000000 		.4byte	0
 2589              	.LLST14:
 2590 0213 10000000 		.4byte	.LVL23
 2591 0217 18000000 		.4byte	.LVL24
 2592 021b 0100     		.2byte	0x1
 2593 021d 50       		.byte	0x50
 2594 021e 18000000 		.4byte	.LVL24
 2595 0222 3C000000 		.4byte	.LFE10
 2596 0226 0100     		.2byte	0x1
 2597 0228 53       		.byte	0x53
 2598 0229 00000000 		.4byte	0
 2599 022d 00000000 		.4byte	0
 2600              	.LLST15:
 2601 0231 00000000 		.4byte	.LVL25
 2602 0235 14000000 		.4byte	.LVL27
 2603 0239 0100     		.2byte	0x1
 2604 023b 50       		.byte	0x50
 2605 023c 14000000 		.4byte	.LVL27
 2606 0240 34000000 		.4byte	.LFE11
 2607 0244 0100     		.2byte	0x1
 2608 0246 53       		.byte	0x53
 2609 0247 00000000 		.4byte	0
 2610 024b 00000000 		.4byte	0
 2611              	.LLST16:
 2612 024f 0C000000 		.4byte	.LVL26
 2613 0253 14000000 		.4byte	.LVL27
 2614 0257 0100     		.2byte	0x1
 2615 0259 50       		.byte	0x50
 2616 025a 14000000 		.4byte	.LVL27
 2617 025e 34000000 		.4byte	.LFE11
 2618 0262 0100     		.2byte	0x1
 2619 0264 53       		.byte	0x53
 2620 0265 00000000 		.4byte	0
 2621 0269 00000000 		.4byte	0
 2622              	.LLST17:
ARM GAS  /tmp/ccEpMqtQ.s 			page 47


 2623 026d 0C000000 		.4byte	.LVL28
 2624 0271 6C000000 		.4byte	.LVL35
 2625 0275 0100     		.2byte	0x1
 2626 0277 50       		.byte	0x50
 2627 0278 90000000 		.4byte	.LVL38
 2628 027c A0000000 		.4byte	.LFE12
 2629 0280 0100     		.2byte	0x1
 2630 0282 50       		.byte	0x50
 2631 0283 00000000 		.4byte	0
 2632 0287 00000000 		.4byte	0
 2633              	.LLST18:
 2634 028b 30000000 		.4byte	.LVL30
 2635 028f 60000000 		.4byte	.LVL33
 2636 0293 0100     		.2byte	0x1
 2637 0295 53       		.byte	0x53
 2638 0296 00000000 		.4byte	0
 2639 029a 00000000 		.4byte	0
 2640              	.LLST19:
 2641 029e 30000000 		.4byte	.LVL30
 2642 02a2 74000000 		.4byte	.LVL36
 2643 02a6 0100     		.2byte	0x1
 2644 02a8 51       		.byte	0x51
 2645 02a9 00000000 		.4byte	0
 2646 02ad 00000000 		.4byte	0
 2647              	.LLST20:
 2648 02b1 64000000 		.4byte	.LVL34
 2649 02b5 84000000 		.4byte	.LVL37
 2650 02b9 0100     		.2byte	0x1
 2651 02bb 54       		.byte	0x54
 2652 02bc 00000000 		.4byte	0
 2653 02c0 00000000 		.4byte	0
 2654              	.LLST21:
 2655 02c4 64000000 		.4byte	.LVL34
 2656 02c8 83000000 		.4byte	.LVL37-1
 2657 02cc 0100     		.2byte	0x1
 2658 02ce 5C       		.byte	0x5c
 2659 02cf 00000000 		.4byte	0
 2660 02d3 00000000 		.4byte	0
 2661              	.LLST22:
 2662 02d7 0C000000 		.4byte	.LVL39
 2663 02db 68000000 		.4byte	.LVL46
 2664 02df 0100     		.2byte	0x1
 2665 02e1 50       		.byte	0x50
 2666 02e2 84000000 		.4byte	.LVL48
 2667 02e6 8C000000 		.4byte	.LVL49
 2668 02ea 0100     		.2byte	0x1
 2669 02ec 50       		.byte	0x50
 2670 02ed 00000000 		.4byte	0
 2671 02f1 00000000 		.4byte	0
 2672              	.LLST23:
 2673 02f5 2C000000 		.4byte	.LVL41
 2674 02f9 5C000000 		.4byte	.LVL44
 2675 02fd 0100     		.2byte	0x1
 2676 02ff 53       		.byte	0x53
 2677 0300 00000000 		.4byte	0
 2678 0304 00000000 		.4byte	0
 2679              	.LLST24:
ARM GAS  /tmp/ccEpMqtQ.s 			page 48


 2680 0308 2C000000 		.4byte	.LVL41
 2681 030c 7B000000 		.4byte	.LVL47-1
 2682 0310 0100     		.2byte	0x1
 2683 0312 51       		.byte	0x51
 2684 0313 00000000 		.4byte	0
 2685 0317 00000000 		.4byte	0
 2686              	.LLST25:
 2687 031b 60000000 		.4byte	.LVL45
 2688 031f 84000000 		.4byte	.LVL48
 2689 0323 0100     		.2byte	0x1
 2690 0325 54       		.byte	0x54
 2691 0326 00000000 		.4byte	0
 2692 032a 00000000 		.4byte	0
 2693              	.LLST26:
 2694 032e 60000000 		.4byte	.LVL45
 2695 0332 7B000000 		.4byte	.LVL47-1
 2696 0336 0100     		.2byte	0x1
 2697 0338 5C       		.byte	0x5c
 2698 0339 00000000 		.4byte	0
 2699 033d 00000000 		.4byte	0
 2700              	.LLST27:
 2701 0341 20000000 		.4byte	.LVL51
 2702 0345 5B000000 		.4byte	.LVL53-1
 2703 0349 0100     		.2byte	0x1
 2704 034b 53       		.byte	0x53
 2705 034c 00000000 		.4byte	0
 2706 0350 00000000 		.4byte	0
 2707              	.LLST29:
 2708 0354 24000000 		.4byte	.LVL52
 2709 0358 5B000000 		.4byte	.LVL53-1
 2710 035c 0100     		.2byte	0x1
 2711 035e 52       		.byte	0x52
 2712 035f 00000000 		.4byte	0
 2713 0363 00000000 		.4byte	0
 2714              		.section	.debug_aranges,"",%progbits
 2715 0000 54000000 		.4byte	0x54
 2716 0004 0200     		.2byte	0x2
 2717 0006 00000000 		.4byte	.Ldebug_info0
 2718 000a 04       		.byte	0x4
 2719 000b 00       		.byte	0
 2720 000c 0000     		.2byte	0
 2721 000e 0000     		.2byte	0
 2722 0010 00000000 		.4byte	.LFB7
 2723 0014 14000000 		.4byte	.LFE7-.LFB7
 2724 0018 00000000 		.4byte	.LFB9
 2725 001c 20010000 		.4byte	.LFE9-.LFB9
 2726 0020 00000000 		.4byte	.LFB8
 2727 0024 14000000 		.4byte	.LFE8-.LFB8
 2728 0028 00000000 		.4byte	.LFB10
 2729 002c 3C000000 		.4byte	.LFE10-.LFB10
 2730 0030 00000000 		.4byte	.LFB11
 2731 0034 34000000 		.4byte	.LFE11-.LFB11
 2732 0038 00000000 		.4byte	.LFB12
 2733 003c A0000000 		.4byte	.LFE12-.LFB12
 2734 0040 00000000 		.4byte	.LFB13
 2735 0044 98000000 		.4byte	.LFE13-.LFB13
 2736 0048 00000000 		.4byte	.LFB14
ARM GAS  /tmp/ccEpMqtQ.s 			page 49


 2737 004c 80000000 		.4byte	.LFE14-.LFB14
 2738 0050 00000000 		.4byte	0
 2739 0054 00000000 		.4byte	0
 2740              		.section	.debug_ranges,"",%progbits
 2741              	.Ldebug_ranges0:
 2742 0000 1C000000 		.4byte	.LBB23
 2743 0004 E4000000 		.4byte	.LBE23
 2744 0008 E8000000 		.4byte	.LBB38
 2745 000c 08010000 		.4byte	.LBE38
 2746 0010 00000000 		.4byte	0
 2747 0014 00000000 		.4byte	0
 2748 0018 44000000 		.4byte	.LBB24
 2749 001c 4C000000 		.4byte	.LBE24
 2750 0020 50000000 		.4byte	.LBB28
 2751 0024 58000000 		.4byte	.LBE28
 2752 0028 5C000000 		.4byte	.LBB29
 2753 002c 64000000 		.4byte	.LBE29
 2754 0030 00000000 		.4byte	0
 2755 0034 00000000 		.4byte	0
 2756 0038 EC000000 		.4byte	.LBB34
 2757 003c F4000000 		.4byte	.LBE34
 2758 0040 F8000000 		.4byte	.LBB37
 2759 0044 00010000 		.4byte	.LBE37
 2760 0048 00000000 		.4byte	0
 2761 004c 00000000 		.4byte	0
 2762 0050 10000000 		.4byte	.LBB45
 2763 0054 1C000000 		.4byte	.LBE45
 2764 0058 20000000 		.4byte	.LBB48
 2765 005c 30000000 		.4byte	.LBE48
 2766 0060 00000000 		.4byte	0
 2767 0064 00000000 		.4byte	0
 2768 0068 0C000000 		.4byte	.LBB51
 2769 006c 18000000 		.4byte	.LBE51
 2770 0070 1C000000 		.4byte	.LBB54
 2771 0074 2C000000 		.4byte	.LBE54
 2772 0078 00000000 		.4byte	0
 2773 007c 00000000 		.4byte	0
 2774 0080 5C000000 		.4byte	.LBB56
 2775 0084 60000000 		.4byte	.LBE56
 2776 0088 64000000 		.4byte	.LBB60
 2777 008c 68000000 		.4byte	.LBE60
 2778 0090 6C000000 		.4byte	.LBB61
 2779 0094 70000000 		.4byte	.LBE61
 2780 0098 00000000 		.4byte	0
 2781 009c 00000000 		.4byte	0
 2782 00a0 58000000 		.4byte	.LBB63
 2783 00a4 5C000000 		.4byte	.LBE63
 2784 00a8 60000000 		.4byte	.LBB67
 2785 00ac 64000000 		.4byte	.LBE67
 2786 00b0 68000000 		.4byte	.LBB68
 2787 00b4 6C000000 		.4byte	.LBE68
 2788 00b8 00000000 		.4byte	0
 2789 00bc 00000000 		.4byte	0
 2790 00c0 3C000000 		.4byte	.LBB71
 2791 00c4 40000000 		.4byte	.LBE71
 2792 00c8 44000000 		.4byte	.LBB74
 2793 00cc 4C000000 		.4byte	.LBE74
ARM GAS  /tmp/ccEpMqtQ.s 			page 50


 2794 00d0 00000000 		.4byte	0
 2795 00d4 00000000 		.4byte	0
 2796 00d8 00000000 		.4byte	.LFB7
 2797 00dc 14000000 		.4byte	.LFE7
 2798 00e0 00000000 		.4byte	.LFB9
 2799 00e4 20010000 		.4byte	.LFE9
 2800 00e8 00000000 		.4byte	.LFB8
 2801 00ec 14000000 		.4byte	.LFE8
 2802 00f0 00000000 		.4byte	.LFB10
 2803 00f4 3C000000 		.4byte	.LFE10
 2804 00f8 00000000 		.4byte	.LFB11
 2805 00fc 34000000 		.4byte	.LFE11
 2806 0100 00000000 		.4byte	.LFB12
 2807 0104 A0000000 		.4byte	.LFE12
 2808 0108 00000000 		.4byte	.LFB13
 2809 010c 98000000 		.4byte	.LFE13
 2810 0110 00000000 		.4byte	.LFB14
 2811 0114 80000000 		.4byte	.LFE14
 2812 0118 00000000 		.4byte	0
 2813 011c 00000000 		.4byte	0
 2814              		.section	.debug_line,"",%progbits
 2815              	.Ldebug_line0:
 2816 0000 FE020000 		.section	.debug_str,"MS",%progbits,1
 2816      02001901 
 2816      00000201 
 2816      FB0E0D00 
 2816      01010101 
 2817              	.LASF68:
 2818 0000 2F686F6D 		.ascii	"/home/hunter/development/chibi/ChibiOS-RPi/testhal/"
 2818      652F6875 
 2818      6E746572 
 2818      2F646576 
 2818      656C6F70 
 2819 0033 42434D32 		.ascii	"BCM2835/GPIO\000"
 2819      3833352F 
 2819      4750494F 
 2819      00
 2820              	.LASF67:
 2821 0040 2E2E2F2E 		.ascii	"../../../os/kernel/src/chmtx.c\000"
 2821      2E2F2E2E 
 2821      2F6F732F 
 2821      6B65726E 
 2821      656C2F73 
 2822              	.LASF48:
 2823 005f 7264796D 		.ascii	"rdymsg\000"
 2823      736700
 2824              	.LASF6:
 2825 0066 5F5F7569 		.ascii	"__uint8_t\000"
 2825      6E74385F 
 2825      7400
 2826              	.LASF10:
 2827 0070 6C6F6E67 		.ascii	"long long unsigned int\000"
 2827      206C6F6E 
 2827      6720756E 
 2827      7369676E 
 2827      65642069 
 2828              	.LASF49:
ARM GAS  /tmp/ccEpMqtQ.s 			page 51


 2829 0087 65786974 		.ascii	"exitcode\000"
 2829      636F6465 
 2829      00
 2830              	.LASF58:
 2831 0090 63684D74 		.ascii	"chMtxUnlock\000"
 2831      78556E6C 
 2831      6F636B00 
 2832              	.LASF25:
 2833 009c 705F7072 		.ascii	"p_prio\000"
 2833      696F00
 2834              	.LASF9:
 2835 00a3 6C6F6E67 		.ascii	"long long int\000"
 2835      206C6F6E 
 2835      6720696E 
 2835      7400
 2836              	.LASF2:
 2837 00b1 7369676E 		.ascii	"signed char\000"
 2837      65642063 
 2837      68617200 
 2838              	.LASF15:
 2839 00bd 626F6F6C 		.ascii	"bool_t\000"
 2839      5F7400
 2840              	.LASF45:
 2841 00c4 6D5F7175 		.ascii	"m_queue\000"
 2841      65756500 
 2842              	.LASF18:
 2843 00cc 74736C69 		.ascii	"tslices_t\000"
 2843      6365735F 
 2843      7400
 2844              	.LASF0:
 2845 00d6 6C6F6E67 		.ascii	"long int\000"
 2845      20696E74 
 2845      00
 2846              	.LASF17:
 2847 00df 74737461 		.ascii	"tstate_t\000"
 2847      74655F74 
 2847      00
 2848              	.LASF55:
 2849 00e8 63684D74 		.ascii	"chMtxLockS\000"
 2849      784C6F63 
 2849      6B5300
 2850              	.LASF62:
 2851 00f3 63684D74 		.ascii	"chMtxTryLockS\000"
 2851      78547279 
 2851      4C6F636B 
 2851      5300
 2852              	.LASF71:
 2853 0101 63685363 		.ascii	"chSchRescheduleS\000"
 2853      68526573 
 2853      63686564 
 2853      756C6553 
 2853      00
 2854              	.LASF8:
 2855 0112 5F5F7569 		.ascii	"__uint32_t\000"
 2855      6E743332 
 2855      5F7400
 2856              	.LASF36:
ARM GAS  /tmp/ccEpMqtQ.s 			page 52


 2857 011d 72656761 		.ascii	"regarm_t\000"
 2857      726D5F74 
 2857      00
 2858              	.LASF60:
 2859 0126 63684D74 		.ascii	"chMtxUnlockS\000"
 2859      78556E6C 
 2859      6F636B53 
 2859      00
 2860              	.LASF14:
 2861 0133 756E7369 		.ascii	"unsigned int\000"
 2861      676E6564 
 2861      20696E74 
 2861      00
 2862              	.LASF1:
 2863 0140 6C6F6E67 		.ascii	"long unsigned int\000"
 2863      20756E73 
 2863      69676E65 
 2863      6420696E 
 2863      7400
 2864              	.LASF5:
 2865 0152 73686F72 		.ascii	"short unsigned int\000"
 2865      7420756E 
 2865      7369676E 
 2865      65642069 
 2865      6E7400
 2866              	.LASF20:
 2867 0165 6D73675F 		.ascii	"msg_t\000"
 2867      7400
 2868              	.LASF69:
 2869 016b 7072696F 		.ascii	"prio_insert\000"
 2869      5F696E73 
 2869      65727400 
 2870              	.LASF61:
 2871 0177 63684D74 		.ascii	"chMtxUnlockAll\000"
 2871      78556E6C 
 2871      6F636B41 
 2871      6C6C00
 2872              	.LASF59:
 2873 0186 6E657770 		.ascii	"newprio\000"
 2873      72696F00 
 2874              	.LASF16:
 2875 018e 746D6F64 		.ascii	"tmode_t\000"
 2875      655F7400 
 2876              	.LASF35:
 2877 0196 54687265 		.ascii	"ThreadsList\000"
 2877      6164734C 
 2877      69737400 
 2878              	.LASF21:
 2879 01a2 6576656E 		.ascii	"eventmask_t\000"
 2879      746D6173 
 2879      6B5F7400 
 2880              	.LASF57:
 2881 01ae 63684D74 		.ascii	"chMtxTryLock\000"
 2881      78547279 
 2881      4C6F636B 
 2881      00
 2882              	.LASF44:
ARM GAS  /tmp/ccEpMqtQ.s 			page 53


 2883 01bb 4D757465 		.ascii	"Mutex\000"
 2883      7800
 2884              	.LASF66:
 2885 01c1 474E5520 		.ascii	"GNU C 4.9.3 20150529 (prerelease) -mcpu=arm1176jz-s"
 2885      4320342E 
 2885      392E3320 
 2885      32303135 
 2885      30353239 
 2886 01f4 202D6D61 		.ascii	" -mabi=apcs-gnu -mno-thumb-interwork -ggdb -O2 -fom"
 2886      62693D61 
 2886      7063732D 
 2886      676E7520 
 2886      2D6D6E6F 
 2887 0227 69742D66 		.ascii	"it-frame-pointer -ffunction-sections -fdata-section"
 2887      72616D65 
 2887      2D706F69 
 2887      6E746572 
 2887      202D6666 
 2888 025a 7300     		.ascii	"s\000"
 2889              	.LASF56:
 2890 025c 63684D74 		.ascii	"chMtxLock\000"
 2890      784C6F63 
 2890      6B00
 2891              	.LASF53:
 2892 0266 6669666F 		.ascii	"fifo_remove\000"
 2892      5F72656D 
 2892      6F766500 
 2893              	.LASF41:
 2894 0272 725F6374 		.ascii	"r_ctx\000"
 2894      7800
 2895              	.LASF34:
 2896 0278 54687265 		.ascii	"ThreadsQueue\000"
 2896      61647351 
 2896      75657565 
 2896      00
 2897              	.LASF52:
 2898 0285 64657175 		.ascii	"dequeue\000"
 2898      65756500 
 2899              	.LASF42:
 2900 028d 725F6375 		.ascii	"r_current\000"
 2900      7272656E 
 2900      7400
 2901              	.LASF24:
 2902 0297 705F7072 		.ascii	"p_prev\000"
 2902      657600
 2903              	.LASF19:
 2904 029e 74707269 		.ascii	"tprio_t\000"
 2904      6F5F7400 
 2905              	.LASF12:
 2906 02a6 696E7433 		.ascii	"int32_t\000"
 2906      325F7400 
 2907              	.LASF3:
 2908 02ae 756E7369 		.ascii	"unsigned char\000"
 2908      676E6564 
 2908      20636861 
 2908      7200
 2909              	.LASF32:
ARM GAS  /tmp/ccEpMqtQ.s 			page 54


 2910 02bc 705F6D74 		.ascii	"p_mtxlist\000"
 2910      786C6973 
 2910      7400
 2911              	.LASF4:
 2912 02c6 73686F72 		.ascii	"short int\000"
 2912      7420696E 
 2912      7400
 2913              	.LASF27:
 2914 02d0 705F7374 		.ascii	"p_state\000"
 2914      61746500 
 2915              	.LASF29:
 2916 02d8 705F7072 		.ascii	"p_preempt\000"
 2916      65656D70 
 2916      7400
 2917              	.LASF40:
 2918 02e2 725F7072 		.ascii	"r_prio\000"
 2918      696F00
 2919              	.LASF51:
 2920 02e9 65776D61 		.ascii	"ewmask\000"
 2920      736B00
 2921              	.LASF23:
 2922 02f0 705F6E65 		.ascii	"p_next\000"
 2922      787400
 2923              	.LASF28:
 2924 02f7 705F666C 		.ascii	"p_flags\000"
 2924      61677300 
 2925              	.LASF22:
 2926 02ff 54687265 		.ascii	"Thread\000"
 2926      616400
 2927              	.LASF64:
 2928 0306 63685363 		.ascii	"chSchGoSleepS\000"
 2928      68476F53 
 2928      6C656570 
 2928      5300
 2929              	.LASF31:
 2930 0314 705F6570 		.ascii	"p_epending\000"
 2930      656E6469 
 2930      6E6700
 2931              	.LASF13:
 2932 031f 75696E74 		.ascii	"uint32_t\000"
 2932      33325F74 
 2932      00
 2933              	.LASF39:
 2934 0328 725F7175 		.ascii	"r_queue\000"
 2934      65756500 
 2935              	.LASF63:
 2936 0330 63685363 		.ascii	"chSchReadyI\000"
 2936      68526561 
 2936      64794900 
 2937              	.LASF47:
 2938 033c 6D5F6E65 		.ascii	"m_next\000"
 2938      787400
 2939              	.LASF33:
 2940 0343 705F7265 		.ascii	"p_realprio\000"
 2940      616C7072 
 2940      696F00
 2941              	.LASF7:
ARM GAS  /tmp/ccEpMqtQ.s 			page 55


 2942 034e 5F5F696E 		.ascii	"__int32_t\000"
 2942      7433325F 
 2942      7400
 2943              	.LASF38:
 2944 0358 636F6E74 		.ascii	"context\000"
 2944      65787400 
 2945              	.LASF37:
 2946 0360 696E7463 		.ascii	"intctx\000"
 2946      747800
 2947              	.LASF65:
 2948 0367 63685363 		.ascii	"chSchWakeupS\000"
 2948      6857616B 
 2948      65757053 
 2948      00
 2949              	.LASF54:
 2950 0374 63684D74 		.ascii	"chMtxInit\000"
 2950      78496E69 
 2950      7400
 2951              	.LASF43:
 2952 037e 52656164 		.ascii	"ReadyList\000"
 2952      794C6973 
 2952      7400
 2953              	.LASF70:
 2954 0388 726C6973 		.ascii	"rlist\000"
 2954      7400
 2955              	.LASF11:
 2956 038e 75696E74 		.ascii	"uint8_t\000"
 2956      385F7400 
 2957              	.LASF50:
 2958 0396 77746F62 		.ascii	"wtobjp\000"
 2958      6A7000
 2959              	.LASF46:
 2960 039d 6D5F6F77 		.ascii	"m_owner\000"
 2960      6E657200 
 2961              	.LASF26:
 2962 03a5 705F6374 		.ascii	"p_ctx\000"
 2962      7800
 2963              	.LASF30:
 2964 03ab 705F7761 		.ascii	"p_waiting\000"
 2964      6974696E 
 2964      6700
 2965              		.ident	"GCC: (15:4.9.3+svn231177-1) 4.9.3 20150529 (prerelease)"
ARM GAS  /tmp/ccEpMqtQ.s 			page 56


DEFINED SYMBOLS
                            *ABS*:0000000000000000 chmtx.c
     /tmp/ccEpMqtQ.s:6      .text.chMtxInit:0000000000000000 $a
     /tmp/ccEpMqtQ.s:9      .text.chMtxInit:0000000000000000 chMtxInit
     /tmp/ccEpMqtQ.s:30     .text.chMtxLockS:0000000000000000 $a
     /tmp/ccEpMqtQ.s:33     .text.chMtxLockS:0000000000000000 chMtxLockS
     /tmp/ccEpMqtQ.s:230    .text.chMtxLockS:000000000000011c $d
     /tmp/ccEpMqtQ.s:235    .text.chMtxLock:0000000000000000 $a
     /tmp/ccEpMqtQ.s:238    .text.chMtxLock:0000000000000000 chMtxLock
     /tmp/ccEpMqtQ.s:264    .text.chMtxTryLock:0000000000000000 $a
     /tmp/ccEpMqtQ.s:267    .text.chMtxTryLock:0000000000000000 chMtxTryLock
     /tmp/ccEpMqtQ.s:324    .text.chMtxTryLock:0000000000000038 $d
     /tmp/ccEpMqtQ.s:329    .text.chMtxTryLockS:0000000000000000 $a
     /tmp/ccEpMqtQ.s:332    .text.chMtxTryLockS:0000000000000000 chMtxTryLockS
     /tmp/ccEpMqtQ.s:376    .text.chMtxTryLockS:0000000000000030 $d
     /tmp/ccEpMqtQ.s:381    .text.chMtxUnlock:0000000000000000 $a
     /tmp/ccEpMqtQ.s:384    .text.chMtxUnlock:0000000000000000 chMtxUnlock
     /tmp/ccEpMqtQ.s:500    .text.chMtxUnlock:000000000000009c $d
     /tmp/ccEpMqtQ.s:505    .text.chMtxUnlockS:0000000000000000 $a
     /tmp/ccEpMqtQ.s:508    .text.chMtxUnlockS:0000000000000000 chMtxUnlockS
     /tmp/ccEpMqtQ.s:617    .text.chMtxUnlockS:0000000000000094 $d
     /tmp/ccEpMqtQ.s:622    .text.chMtxUnlockAll:0000000000000000 $a
     /tmp/ccEpMqtQ.s:625    .text.chMtxUnlockAll:0000000000000000 chMtxUnlockAll
     /tmp/ccEpMqtQ.s:717    .text.chMtxUnlockAll:000000000000007c $d
                     .debug_frame:0000000000000010 $d

UNDEFINED SYMBOLS
chSchGoSleepS
chSchReadyI
rlist
chSchWakeupS
chSchRescheduleS
