ARM GAS  /tmp/ccyFNOym.s 			page 1


   1              		.file	"chprintf.c"
   2              		.text
   3              	.Ltext0:
   4              		.cfi_sections	.debug_frame
   5              		.global	__umodsi3
   6              		.global	__udivsi3
   7              		.section	.text.long_to_string_with_divisor,"ax",%progbits
   8              		.align	2
   9              		.type	long_to_string_with_divisor, %function
  10              	long_to_string_with_divisor:
  11              	.LFB7:
  12              		.file 1 "../../../os/various/chprintf.c"
  13              		.loc 1 43 0
  14              		.cfi_startproc
  15              		@ args = 0, pretend = 0, frame = 0
  16              		@ frame_needed = 0, uses_anonymous_args = 0
  17              	.LVL0:
  18 0000 F0472DE9 		stmfd	sp!, {r4, r5, r6, r7, r8, r9, r10, lr}
  19              		.cfi_def_cfa_offset 32
  20              		.cfi_offset 4, -32
  21              		.cfi_offset 5, -28
  22              		.cfi_offset 6, -24
  23              		.cfi_offset 7, -20
  24              		.cfi_offset 8, -16
  25              		.cfi_offset 9, -12
  26              		.cfi_offset 10, -8
  27              		.cfi_offset 14, -4
  28              		.loc 1 49 0
  29 0004 000053E3 		cmp	r3, #0
  30              		.loc 1 55 0
  31 0008 0B9080E2 		add	r9, r0, #11
  32              		.loc 1 43 0
  33 000c 0060A0E1 		mov	r6, r0
  34 0010 0170A0E1 		mov	r7, r1
  35              	.LVL1:
  36              		.loc 1 49 0
  37 0014 03A0A011 		movne	r10, r3
  38 0018 01A0A001 		moveq	r10, r1
  39              	.LVL2:
  40              		.loc 1 43 0
  41 001c 0280A0E1 		mov	r8, r2
  42              		.loc 1 55 0
  43 0020 0950A0E1 		mov	r5, r9
  44              	.LVL3:
  45              	.L4:
  46              		.loc 1 57 0
  47 0024 0700A0E1 		mov	r0, r7
  48 0028 0810A0E1 		mov	r1, r8
  49 002c FEFFFFEB 		bl	__umodsi3
  50              	.LVL4:
  51 0030 0030A0E1 		mov	r3, r0
  52              	.LVL5:
  53              		.loc 1 58 0
  54 0034 304083E2 		add	r4, r3, #48
  55              	.LVL6:
  56              		.loc 1 59 0
  57 0038 390054E3 		cmp	r4, #57
ARM GAS  /tmp/ccyFNOym.s 			page 2


  58              		.loc 1 60 0
  59 003c 374083C2 		addgt	r4, r3, #55
  60              	.LVL7:
  61              		.loc 1 61 0
  62 0040 7440EFE6 		uxtb	r4, r4
  63              	.LVL8:
  64              		.loc 1 62 0
  65 0044 0810A0E1 		mov	r1, r8
  66 0048 0700A0E1 		mov	r0, r7
  67              	.LVL9:
  68              		.loc 1 61 0
  69 004c 014065E5 		strb	r4, [r5, #-1]!
  70              	.LVL10:
  71              		.loc 1 62 0
  72 0050 FEFFFFEB 		bl	__udivsi3
  73              	.LVL11:
  74              		.loc 1 63 0
  75 0054 0810A0E1 		mov	r1, r8
  76              		.loc 1 62 0
  77 0058 0070A0E1 		mov	r7, r0
  78              	.LVL12:
  79              		.loc 1 63 0
  80 005c 0A00A0E1 		mov	r0, r10
  81              	.LVL13:
  82 0060 FEFFFFEB 		bl	__udivsi3
  83              	.LVL14:
  84 0064 00A050E2 		subs	r10, r0, #0
  85 0068 EDFFFF1A 		bne	.L4
  86              	.LVL15:
  87              		.loc 1 65 0
  88 006c 099065E0 		rsb	r9, r5, r9
  89              	.LVL16:
  90 0070 099086E0 		add	r9, r6, r9
  91 0074 000000EA 		b	.L6
  92              	.LVL17:
  93              	.L12:
  94 0078 0140F5E5 		ldrb	r4, [r5, #1]!	@ zero_extendqisi2
  95              	.LVL18:
  96              	.L6:
  97              		.loc 1 67 0 discriminator 1
  98 007c 0140C6E4 		strb	r4, [r6], #1
  99              	.LVL19:
 100              		.loc 1 68 0 discriminator 1
 101 0080 090056E1 		cmp	r6, r9
 102 0084 FBFFFF1A 		bne	.L12
 103              		.loc 1 71 0
 104 0088 0600A0E1 		mov	r0, r6
 105              	.LVL20:
 106 008c F087BDE8 		ldmfd	sp!, {r4, r5, r6, r7, r8, r9, r10, pc}
 107              		.cfi_endproc
 108              	.LFE7:
 109              		.size	long_to_string_with_divisor, .-long_to_string_with_divisor
 110              		.global	__truncdfsf2
 111              		.global	__ltsf2
 112              		.global	__fixsfsi
 113              		.global	__extendsfdf2
 114              		.global	__floatsidf
ARM GAS  /tmp/ccyFNOym.s 			page 3


 115              		.global	__subdf3
 116              		.global	__muldf3
 117              		.global	__fixdfsi
 118              		.section	.text.chprintf,"ax",%progbits
 119              		.align	2
 120              		.global	chprintf
 121              		.type	chprintf, %function
 122              	chprintf:
 123              	.LFB10:
 124              		.loc 1 112 0
 125              		.cfi_startproc
 126              		@ args = 4, pretend = 12, frame = 44
 127              		@ frame_needed = 0, uses_anonymous_args = 1
 128              	.LVL21:
 129 0000 0E002DE9 		stmfd	sp!, {r1, r2, r3}
 130              		.cfi_def_cfa_offset 12
 131              		.cfi_offset 1, -12
 132              		.cfi_offset 2, -8
 133              		.cfi_offset 3, -4
 134 0004 F04F2DE9 		stmfd	sp!, {r4, r5, r6, r7, r8, r9, r10, fp, lr}
 135              		.cfi_def_cfa_offset 48
 136              		.cfi_offset 4, -48
 137              		.cfi_offset 5, -44
 138              		.cfi_offset 6, -40
 139              		.cfi_offset 7, -36
 140              		.cfi_offset 8, -32
 141              		.cfi_offset 9, -28
 142              		.cfi_offset 10, -24
 143              		.cfi_offset 11, -20
 144              		.cfi_offset 14, -16
 145 0008 0060A0E1 		mov	r6, r0
 146 000c 2CD04DE2 		sub	sp, sp, #44
 147              		.cfi_def_cfa_offset 92
 148              		.loc 1 125 0
 149 0010 54308DE2 		add	r3, sp, #84
 150 0014 14808DE2 		add	r8, sp, #20
 151 0018 10308DE5 		str	r3, [sp, #16]
 152              		.loc 1 112 0
 153 001c 50509DE5 		ldr	r5, [sp, #80]
 154 0020 15308DE2 		add	r3, sp, #21
 155 0024 03B068E0 		rsb	fp, r8, r3
 156              	.LVL22:
 157              	.L14:
 158              		.loc 1 127 0
 159 0028 0010D5E5 		ldrb	r1, [r5]	@ zero_extendqisi2
 160 002c 013085E2 		add	r3, r5, #1
 161              	.LVL23:
 162              		.loc 1 128 0
 163 0030 000051E3 		cmp	r1, #0
 164 0034 0A00000A 		beq	.L93
 165              	.L103:
 166              		.loc 1 132 0
 167 0038 250051E3 		cmp	r1, #37
 168 003c 0C00000A 		beq	.L16
 169              		.loc 1 127 0
 170 0040 0350A0E1 		mov	r5, r3
 171              		.loc 1 133 0
ARM GAS  /tmp/ccyFNOym.s 			page 4


 172 0044 002096E5 		ldr	r2, [r6]
 173 0048 0600A0E1 		mov	r0, r6
 174 004c 082092E5 		ldr	r2, [r2, #8]
 175 0050 32FF2FE1 		blx	r2
 176              	.LVL24:
 177              		.loc 1 127 0
 178 0054 0010D5E5 		ldrb	r1, [r5]	@ zero_extendqisi2
 179 0058 013085E2 		add	r3, r5, #1
 180              	.LVL25:
 181              		.loc 1 128 0
 182 005c 000051E3 		cmp	r1, #0
 183 0060 F4FFFF1A 		bne	.L103
 184              	.L93:
 185              		.loc 1 263 0
 186 0064 2CD08DE2 		add	sp, sp, #44
 187              		.cfi_remember_state
 188              		.cfi_def_cfa_offset 48
 189              		@ sp needed
 190 0068 F04FBDE8 		ldmfd	sp!, {r4, r5, r6, r7, r8, r9, r10, fp, lr}
 191              		.cfi_restore 14
 192              		.cfi_restore 11
 193              		.cfi_restore 10
 194              		.cfi_restore 9
 195              		.cfi_restore 8
 196              		.cfi_restore 7
 197              		.cfi_restore 6
 198              		.cfi_restore 5
 199              		.cfi_restore 4
 200              		.cfi_def_cfa_offset 12
 201              	.LVL26:
 202 006c 0CD08DE2 		add	sp, sp, #12
 203              		.cfi_restore 3
 204              		.cfi_restore 2
 205              		.cfi_restore 1
 206              		.cfi_def_cfa_offset 0
 207 0070 1EFF2FE1 		bx	lr
 208              	.LVL27:
 209              	.L16:
 210              		.cfi_restore_state
 211              		.loc 1 139 0
 212 0074 0120D5E5 		ldrb	r2, [r5, #1]	@ zero_extendqisi2
 213              		.loc 1 148 0
 214 0078 0040A0E3 		mov	r4, #0
 215              		.loc 1 139 0
 216 007c 2D0052E3 		cmp	r2, #45
 217 0080 0220D505 		ldreqb	r2, [r5, #2]	@ zero_extendqisi2
 218              		.loc 1 140 0
 219 0084 02308502 		addeq	r3, r5, #2
 220              	.LVL28:
 221              		.loc 1 141 0
 222 0088 0190A003 		moveq	r9, #1
 223              		.loc 1 138 0
 224 008c 0090A013 		movne	r9, #0
 225              	.LVL29:
 226              		.loc 1 144 0
 227 0090 2E0052E3 		cmp	r2, #46
 228 0094 0120D305 		ldreqb	r2, [r3, #1]	@ zero_extendqisi2
ARM GAS  /tmp/ccyFNOym.s 			page 5


 229              		.loc 1 145 0
 230 0098 01308302 		addeq	r3, r3, #1
 231              	.LVL30:
 232              		.loc 1 146 0
 233 009c 3070A003 		moveq	r7, #48
 234              		.loc 1 143 0
 235 00a0 2070A013 		movne	r7, #32
 236              	.LVL31:
 237 00a4 10C09DE5 		ldr	ip, [sp, #16]
 238 00a8 011083E2 		add	r1, r3, #1
 239              	.LVL32:
 240 00ac 040000EA 		b	.L22
 241              	.LVL33:
 242              	.L104:
 243              		.loc 1 154 0
 244 00b0 0030DCE5 		ldrb	r3, [ip]	@ zero_extendqisi2
 245              	.LVL34:
 246 00b4 04C08CE2 		add	ip, ip, #4
 247              	.LVL35:
 248              	.L20:
 249 00b8 0020D5E5 		ldrb	r2, [r5]	@ zero_extendqisi2
 250              		.loc 1 157 0
 251 00bc 804083E0 		add	r4, r3, r0, asl #1
 252              	.LVL36:
 253 00c0 011081E2 		add	r1, r1, #1
 254              	.LVL37:
 255              	.L22:
 256              		.loc 1 151 0
 257 00c4 303042E2 		sub	r3, r2, #48
 258 00c8 7330EFE6 		uxtb	r3, r3
 259 00cc 090053E3 		cmp	r3, #9
 260              		.loc 1 157 0
 261 00d0 040184E0 		add	r0, r4, r4, asl #2
 262              		.loc 1 150 0
 263 00d4 0150A0E1 		mov	r5, r1
 264              	.LVL38:
 265              		.loc 1 151 0
 266 00d8 F6FFFF9A 		bls	.L20
 267              		.loc 1 153 0
 268 00dc 2A0052E3 		cmp	r2, #42
 269 00e0 F2FFFF0A 		beq	.L104
 270              		.loc 1 160 0
 271 00e4 2E0052E3 		cmp	r2, #46
 272 00e8 0010A0E3 		mov	r1, #0
 273              	.LVL39:
 274 00ec 10C08DE5 		str	ip, [sp, #16]
 275              	.LVL40:
 276 00f0 4200000A 		beq	.L26
 277              	.LVL41:
 278              		.loc 1 174 0
 279 00f4 DF3002E2 		and	r3, r2, #223
 280 00f8 4C0053E3 		cmp	r3, #76
 281 00fc 4B00001A 		bne	.L27
 282              	.L105:
 283              	.LVL42:
 284              		.loc 1 176 0
 285 0100 0030D5E5 		ldrb	r3, [r5]	@ zero_extendqisi2
ARM GAS  /tmp/ccyFNOym.s 			page 6


 286 0104 000053E3 		cmp	r3, #0
 287              		.loc 1 177 0
 288 0108 0320A011 		movne	r2, r3
 289              	.LVL43:
 290              		.loc 1 183 0
 291 010c 443042E2 		sub	r3, r2, #68
 292              		.loc 1 177 0
 293 0110 01508512 		addne	r5, r5, #1
 294              	.LVL44:
 295              		.loc 1 183 0
 296 0114 340053E3 		cmp	r3, #52
 297 0118 03F19F97 		ldrls	pc, [pc, r3, asl #2]
 298 011c 060100EA 		b	.L29
 299              	.L60:
 300 0120 B8050000 		.word	.L45
 301 0124 3C050000 		.word	.L29
 302 0128 3C050000 		.word	.L29
 303 012c 3C050000 		.word	.L29
 304 0130 3C050000 		.word	.L29
 305 0134 3C050000 		.word	.L29
 306 0138 3C050000 		.word	.L29
 307 013c 3C050000 		.word	.L29
 308 0140 3C050000 		.word	.L29
 309 0144 3C050000 		.word	.L29
 310 0148 3C050000 		.word	.L29
 311 014c 8C050000 		.word	.L75
 312 0150 3C050000 		.word	.L29
 313 0154 3C050000 		.word	.L29
 314 0158 3C050000 		.word	.L29
 315 015c 3C050000 		.word	.L29
 316 0160 3C050000 		.word	.L29
 317 0164 50050000 		.word	.L76
 318 0168 3C050000 		.word	.L29
 319 016c 3C050000 		.word	.L29
 320 0170 FC050000 		.word	.L61
 321 0174 3C050000 		.word	.L29
 322 0178 3C050000 		.word	.L29
 323 017c 3C050000 		.word	.L29
 324 0180 3C050000 		.word	.L29
 325 0184 3C050000 		.word	.L29
 326 0188 3C050000 		.word	.L29
 327 018c 3C050000 		.word	.L29
 328 0190 3C050000 		.word	.L29
 329 0194 3C050000 		.word	.L29
 330 0198 3C050000 		.word	.L29
 331 019c 14050000 		.word	.L35
 332 01a0 B8050000 		.word	.L45
 333 01a4 3C050000 		.word	.L29
 334 01a8 CC030000 		.word	.L36
 335 01ac 3C050000 		.word	.L29
 336 01b0 3C050000 		.word	.L29
 337 01b4 3C050000 		.word	.L29
 338 01b8 3C050000 		.word	.L29
 339 01bc 3C050000 		.word	.L29
 340 01c0 3C050000 		.word	.L29
 341 01c4 3C050000 		.word	.L29
 342 01c8 3C050000 		.word	.L29
ARM GAS  /tmp/ccyFNOym.s 			page 7


 343 01cc 8C050000 		.word	.L75
 344 01d0 3C050000 		.word	.L29
 345 01d4 3C050000 		.word	.L29
 346 01d8 3C050000 		.word	.L29
 347 01dc 2C030000 		.word	.L37
 348 01e0 3C050000 		.word	.L29
 349 01e4 50050000 		.word	.L76
 350 01e8 3C050000 		.word	.L29
 351 01ec 3C050000 		.word	.L29
 352 01f0 FC050000 		.word	.L61
 353              	.LVL45:
 354              	.L25:
 355              		.loc 1 166 0
 356 01f4 0030DCE5 		ldrb	r3, [ip]	@ zero_extendqisi2
 357              	.LVL46:
 358 01f8 04C08CE2 		add	ip, ip, #4
 359              	.LVL47:
 360              	.L24:
 361              		.loc 1 170 0
 362 01fc 801083E0 		add	r1, r3, r0, asl #1
 363              	.LVL48:
 364              	.L26:
 365              		.loc 1 162 0
 366 0200 0120D5E4 		ldrb	r2, [r5], #1	@ zero_extendqisi2
 367              	.LVL49:
 368              		.loc 1 169 0
 369 0204 010181E0 		add	r0, r1, r1, asl #2
 370              		.loc 1 163 0
 371 0208 303042E2 		sub	r3, r2, #48
 372 020c 7330EFE6 		uxtb	r3, r3
 373 0210 090053E3 		cmp	r3, #9
 374 0214 F8FFFF9A 		bls	.L24
 375              		.loc 1 165 0
 376 0218 2A0052E3 		cmp	r2, #42
 377 021c F4FFFF0A 		beq	.L25
 378              		.loc 1 174 0
 379 0220 DF3002E2 		and	r3, r2, #223
 380 0224 4C0053E3 		cmp	r3, #76
 381 0228 10C08DE5 		str	ip, [sp, #16]
 382              	.LVL50:
 383 022c B3FFFF0A 		beq	.L105
 384              	.L27:
 385              		.loc 1 180 0
 386 0230 413042E2 		sub	r3, r2, #65
 387 0234 7330EFE6 		uxtb	r3, r3
 388 0238 190053E3 		cmp	r3, #25
 389 023c 0030A083 		movhi	r3, #0
 390 0240 0130A093 		movls	r3, #1
 391              		.loc 1 183 0
 392 0244 440042E2 		sub	r0, r2, #68
 393              		.loc 1 180 0
 394 0248 03C0A0E1 		mov	ip, r3
 395              	.LVL51:
 396              		.loc 1 183 0
 397 024c 340050E3 		cmp	r0, #52
 398 0250 00F19F97 		ldrls	pc, [pc, r0, asl #2]
 399 0254 B80000EA 		b	.L29
ARM GAS  /tmp/ccyFNOym.s 			page 8


 400              	.L31:
 401 0258 B0050000 		.word	.L30
 402 025c 3C050000 		.word	.L29
 403 0260 3C050000 		.word	.L29
 404 0264 3C050000 		.word	.L29
 405 0268 3C050000 		.word	.L29
 406 026c 3C050000 		.word	.L29
 407 0270 3C050000 		.word	.L29
 408 0274 3C050000 		.word	.L29
 409 0278 3C050000 		.word	.L29
 410 027c 3C050000 		.word	.L29
 411 0280 3C050000 		.word	.L29
 412 0284 90050000 		.word	.L32
 413 0288 3C050000 		.word	.L29
 414 028c 3C050000 		.word	.L29
 415 0290 3C050000 		.word	.L29
 416 0294 3C050000 		.word	.L29
 417 0298 3C050000 		.word	.L29
 418 029c 54050000 		.word	.L33
 419 02a0 3C050000 		.word	.L29
 420 02a4 3C050000 		.word	.L29
 421 02a8 F4050000 		.word	.L70
 422 02ac 3C050000 		.word	.L29
 423 02b0 3C050000 		.word	.L29
 424 02b4 3C050000 		.word	.L29
 425 02b8 3C050000 		.word	.L29
 426 02bc 3C050000 		.word	.L29
 427 02c0 3C050000 		.word	.L29
 428 02c4 3C050000 		.word	.L29
 429 02c8 3C050000 		.word	.L29
 430 02cc 3C050000 		.word	.L29
 431 02d0 3C050000 		.word	.L29
 432 02d4 14050000 		.word	.L35
 433 02d8 B0050000 		.word	.L30
 434 02dc 3C050000 		.word	.L29
 435 02e0 CC030000 		.word	.L36
 436 02e4 3C050000 		.word	.L29
 437 02e8 3C050000 		.word	.L29
 438 02ec 3C050000 		.word	.L29
 439 02f0 3C050000 		.word	.L29
 440 02f4 3C050000 		.word	.L29
 441 02f8 3C050000 		.word	.L29
 442 02fc 3C050000 		.word	.L29
 443 0300 3C050000 		.word	.L29
 444 0304 90050000 		.word	.L32
 445 0308 3C050000 		.word	.L29
 446 030c 3C050000 		.word	.L29
 447 0310 3C050000 		.word	.L29
 448 0314 2C030000 		.word	.L37
 449 0318 3C050000 		.word	.L29
 450 031c 54050000 		.word	.L33
 451 0320 3C050000 		.word	.L29
 452 0324 3C050000 		.word	.L29
 453 0328 F4050000 		.word	.L70
 454              	.LVL52:
 455              	.L37:
 456              		.loc 1 190 0
ARM GAS  /tmp/ccyFNOym.s 			page 9


 457 032c 10309DE5 		ldr	r3, [sp, #16]
 458              		.loc 1 191 0
 459 0330 44239FE5 		ldr	r2, .L109
 460              	.LVL53:
 461              		.loc 1 190 0
 462 0334 00A093E5 		ldr	r10, [r3]
 463              	.LVL54:
 464 0338 043083E2 		add	r3, r3, #4
 465              		.loc 1 191 0
 466 033c 00005AE3 		cmp	r10, #0
 467 0340 02A0A001 		moveq	r10, r2
 468              	.LVL55:
 469              		.loc 1 192 0
 470 0344 000051E3 		cmp	r1, #0
 471              		.loc 1 190 0
 472 0348 10308DE5 		str	r3, [sp, #16]
 473              		.loc 1 194 0
 474 034c 0030DAE5 		ldrb	r3, [r10]	@ zero_extendqisi2
 475              		.loc 1 192 0
 476 0350 B400000A 		beq	.L40
 477              	.LVL56:
 478              		.loc 1 194 0 discriminator 1
 479 0354 000053E3 		cmp	r3, #0
 480 0358 B500000A 		beq	.L41
 481              		.loc 1 194 0 is_stmt 0
 482 035c 011041E2 		sub	r1, r1, #1
 483              	.LVL57:
 484              	.L62:
 485              		.loc 1 194 0 discriminator 4
 486 0360 0A00A0E1 		mov	r0, r10
 487 0364 010000EA 		b	.L43
 488              	.LVL58:
 489              	.L106:
 490              		.loc 1 194 0 discriminator 3
 491 0368 010071E3 		cmn	r1, #1
 492 036c 0300000A 		beq	.L99
 493              	.LVL59:
 494              	.L43:
 495              		.loc 1 194 0 discriminator 4
 496 0370 0130F0E5 		ldrb	r3, [r0, #1]!	@ zero_extendqisi2
 497              	.LVL60:
 498 0374 011041E2 		sub	r1, r1, #1
 499              	.LVL61:
 500 0378 000053E3 		cmp	r3, #0
 501 037c F9FFFF1A 		bne	.L106
 502              	.L99:
 503 0380 00006AE0 		rsb	r0, r10, r0
 504              	.LVL62:
 505              		.loc 1 242 0 is_stmt 1
 506 0384 044060E0 		rsb	r4, r0, r4
 507              	.LVL63:
 508              		.loc 1 244 0
 509 0388 000059E3 		cmp	r9, #0
 510 038c 013040E2 		sub	r3, r0, #1
 511              		.loc 1 189 0
 512 0390 2070A0E3 		mov	r7, #32
 513              	.LVL64:
ARM GAS  /tmp/ccyFNOym.s 			page 10


 514 0394 C44FC4E1 		bic	r4, r4, r4, asr #31
 515              	.LVL65:
 516              		.loc 1 244 0
 517 0398 4300000A 		beq	.L107
 518              	.LVL66:
 519              	.L52:
 520              		.loc 1 255 0
 521 039c 009053E2 		subs	r9, r3, #0
 522              	.LVL67:
 523 03a0 520000AA 		bge	.L58
 524              	.LVL68:
 525              	.L57:
 526              		.loc 1 258 0
 527 03a4 000054E3 		cmp	r4, #0
 528 03a8 1EFFFF0A 		beq	.L14
 529              	.L59:
 530              		.loc 1 259 0
 531 03ac 003096E5 		ldr	r3, [r6]
 532 03b0 0600A0E1 		mov	r0, r6
 533 03b4 083093E5 		ldr	r3, [r3, #8]
 534 03b8 0710A0E1 		mov	r1, r7
 535 03bc 33FF2FE1 		blx	r3
 536              	.LVL69:
 537              		.loc 1 258 0
 538 03c0 014054E2 		subs	r4, r4, #1
 539              	.LVL70:
 540 03c4 F8FFFF1A 		bne	.L59
 541 03c8 16FFFFEA 		b	.L14
 542              	.LVL71:
 543              	.L36:
 544              		.loc 1 211 0
 545 03cc 10309DE5 		ldr	r3, [sp, #16]
 546 03d0 082083E2 		add	r2, r3, #8
 547              	.LVL72:
 548 03d4 030093E8 		ldmia	r3, {r0-r1}
 549 03d8 10208DE5 		str	r2, [sp, #16]
 550 03dc FEFFFFEB 		bl	__truncdfsf2
 551              	.LVL73:
 552              		.loc 1 212 0
 553 03e0 0010A0E3 		mov	r1, #0
 554              		.loc 1 211 0
 555 03e4 00A0A0E1 		mov	r10, r0
 556              	.LVL74:
 557              		.loc 1 212 0
 558 03e8 FEFFFFEB 		bl	__ltsf2
 559              	.LVL75:
 560 03ec 000050E3 		cmp	r0, #0
 561              	.LVL76:
 562              		.loc 1 213 0
 563 03f0 2D30A0B3 		movlt	r3, #45
 564              		.loc 1 136 0
 565 03f4 0830A0A1 		movge	r3, r8
 566              		.loc 1 214 0
 567 03f8 02A18AB2 		addlt	r10, r10, #-2147483648
 568              	.LVL77:
 569              		.loc 1 213 0
 570 03fc 1430CDB5 		strltb	r3, [sp, #20]
ARM GAS  /tmp/ccyFNOym.s 			page 11


 571              	.LBB12:
 572              	.LBB13:
 573              		.loc 1 83 0
 574 0400 0A00A0E1 		mov	r0, r10
 575              	.LBE13:
 576              	.LBE12:
 577              		.loc 1 213 0
 578 0404 15308DB2 		addlt	r3, sp, #21
 579 0408 00308DE5 		str	r3, [sp]
 580              	.LVL78:
 581              	.LBB17:
 582              	.LBB14:
 583              		.loc 1 83 0
 584 040c FEFFFFEB 		bl	__fixsfsi
 585              	.LVL79:
 586 0410 0020A0E1 		mov	r2, r0
 587              	.LVL80:
 588              		.loc 1 84 0
 589 0414 00309DE5 		ldr	r3, [sp]
 590 0418 0210A0E1 		mov	r1, r2
 591 041c 0300A0E1 		mov	r0, r3
 592              	.LVL81:
 593 0420 00208DE5 		str	r2, [sp]
 594 0424 0030A0E3 		mov	r3, #0
 595 0428 0A20A0E3 		mov	r2, #10
 596 042c FEFFFFEB 		bl	long_to_string_with_divisor
 597              	.LVL82:
 598              		.loc 1 85 0
 599 0430 2E30A0E3 		mov	r3, #46
 600 0434 00C0A0E1 		mov	ip, r0
 601              	.LBE14:
 602              	.LBE17:
 603              		.loc 1 216 0
 604 0438 0A00A0E1 		mov	r0, r10
 605              	.LVL83:
 606              	.LBB18:
 607              	.LBB15:
 608              		.loc 1 85 0
 609 043c 0130CCE4 		strb	r3, [ip], #1
 610              	.LVL84:
 611 0440 0CC08DE5 		str	ip, [sp, #12]
 612 0444 04C08DE5 		str	ip, [sp, #4]
 613              	.LBE15:
 614              	.LBE18:
 615              		.loc 1 216 0
 616 0448 FEFFFFEB 		bl	__extendsfdf2
 617              	.LVL85:
 618 044c 03008DE9 		stmib	sp, {r0-r1}
 619              	.LBB19:
 620              	.LBB16:
 621              		.loc 1 86 0
 622 0450 00009DE5 		ldr	r0, [sp]
 623 0454 FEFFFFEB 		bl	__floatsidf
 624              	.LVL86:
 625 0458 0020A0E1 		mov	r2, r0
 626 045c 0130A0E1 		mov	r3, r1
 627 0460 03009DE9 		ldmib	sp, {r0-r1}
ARM GAS  /tmp/ccyFNOym.s 			page 12


 628 0464 FEFFFFEB 		bl	__subdf3
 629              	.LVL87:
 630 0468 0020A0E3 		mov	r2, #0
 631 046c 0C329FE5 		ldr	r3, .L109+4
 632 0470 FEFFFFEB 		bl	__muldf3
 633              	.LVL88:
 634 0474 FEFFFFEB 		bl	__fixdfsi
 635              	.LVL89:
 636              		.loc 1 87 0
 637 0478 0CC09DE5 		ldr	ip, [sp, #12]
 638              		.loc 1 86 0
 639 047c 0010A0E1 		mov	r1, r0
 640              		.loc 1 87 0
 641 0480 FC319FE5 		ldr	r3, .L109+8
 642 0484 0C00A0E1 		mov	r0, ip
 643 0488 0A20A0E3 		mov	r2, #10
 644 048c FEFFFFEB 		bl	long_to_string_with_divisor
 645              	.LVL90:
 646              	.LBE16:
 647              	.LBE19:
 648              		.loc 1 137 0
 649 0490 08A0A0E1 		mov	r10, r8
 650              	.LVL91:
 651 0494 000068E0 		rsb	r0, r8, r0
 652 0498 013040E2 		sub	r3, r0, #1
 653              	.LVL92:
 654              	.L38:
 655              		.loc 1 242 0
 656 049c 044060E0 		rsb	r4, r0, r4
 657              	.LVL93:
 658              		.loc 1 244 0
 659 04a0 000059E3 		cmp	r9, #0
 660 04a4 C44FC4E1 		bic	r4, r4, r4, asr #31
 661              	.LVL94:
 662 04a8 BBFFFF1A 		bne	.L52
 663              	.LVL95:
 664              	.L107:
 665              		.loc 1 245 0
 666 04ac 004064E2 		rsb	r4, r4, #0
 667              	.LVL96:
 668              		.loc 1 246 0
 669 04b0 000054E3 		cmp	r4, #0
 670 04b4 4B00000A 		beq	.L73
 671              		.loc 1 247 0
 672 04b8 0020DAE5 		ldrb	r2, [r10]	@ zero_extendqisi2
 673 04bc 2D0052E3 		cmp	r2, #45
 674 04c0 30005703 		cmpeq	r7, #48
 675 04c4 0390A011 		movne	r9, r3
 676              	.LVL97:
 677 04c8 6300000A 		beq	.L108
 678              	.LVL98:
 679              	.L55:
 680              		.loc 1 252 0 discriminator 1
 681 04cc 003096E5 		ldr	r3, [r6]
 682 04d0 0600A0E1 		mov	r0, r6
 683 04d4 083093E5 		ldr	r3, [r3, #8]
 684 04d8 0710A0E1 		mov	r1, r7
ARM GAS  /tmp/ccyFNOym.s 			page 13


 685 04dc 33FF2FE1 		blx	r3
 686              	.LVL99:
 687              		.loc 1 253 0 discriminator 1
 688 04e0 014094E2 		adds	r4, r4, #1
 689              	.LVL100:
 690 04e4 F8FFFF1A 		bne	.L55
 691              	.LVL101:
 692              		.loc 1 255 0
 693 04e8 000059E3 		cmp	r9, #0
 694 04ec CDFEFFBA 		blt	.L14
 695              	.LVL102:
 696              	.L58:
 697              		.loc 1 256 0
 698 04f0 003096E5 		ldr	r3, [r6]
 699              		.loc 1 255 0
 700 04f4 019049E2 		sub	r9, r9, #1
 701              	.LVL103:
 702              		.loc 1 256 0
 703 04f8 083093E5 		ldr	r3, [r3, #8]
 704 04fc 0600A0E1 		mov	r0, r6
 705 0500 0110DAE4 		ldrb	r1, [r10], #1	@ zero_extendqisi2
 706              	.LVL104:
 707 0504 33FF2FE1 		blx	r3
 708              	.LVL105:
 709              		.loc 1 255 0
 710 0508 010079E3 		cmn	r9, #1
 711 050c F7FFFF1A 		bne	.L58
 712 0510 A3FFFFEA 		b	.L57
 713              	.LVL106:
 714              	.L35:
 715              		.loc 1 186 0
 716 0514 10309DE5 		ldr	r3, [sp, #16]
 717 0518 0B00A0E1 		mov	r0, fp
 718 051c 002093E5 		ldr	r2, [r3]
 719              	.LVL107:
 720 0520 043083E2 		add	r3, r3, #4
 721 0524 10308DE5 		str	r3, [sp, #16]
 722 0528 1420CDE5 		strb	r2, [sp, #20]
 723 052c 01304BE2 		sub	r3, fp, #1
 724              		.loc 1 185 0
 725 0530 2070A0E3 		mov	r7, #32
 726              		.loc 1 137 0
 727 0534 08A0A0E1 		mov	r10, r8
 728              		.loc 1 187 0
 729 0538 D7FFFFEA 		b	.L38
 730              	.LVL108:
 731              	.L29:
 732 053c 0B00A0E1 		mov	r0, fp
 733              		.loc 1 137 0
 734 0540 08A0A0E1 		mov	r10, r8
 735              		.loc 1 238 0
 736 0544 1420CDE5 		strb	r2, [sp, #20]
 737 0548 01304BE2 		sub	r3, fp, #1
 738              		.loc 1 239 0
 739 054c D2FFFFEA 		b	.L38
 740              	.LVL109:
 741              	.L76:
ARM GAS  /tmp/ccyFNOym.s 			page 14


 742              		.loc 1 183 0
 743 0550 01C0A0E3 		mov	ip, #1
 744              	.LVL110:
 745              	.L33:
 746              		.loc 1 226 0
 747 0554 0A20A0E3 		mov	r2, #10
 748              	.LVL111:
 749              	.L34:
 750              		.loc 1 231 0
 751 0558 00005CE3 		cmp	ip, #0
 752 055c 0E00001A 		bne	.L65
 753              	.L50:
 754              		.loc 1 234 0
 755 0560 10309DE5 		ldr	r3, [sp, #16]
 756 0564 040083E2 		add	r0, r3, #4
 757 0568 001093E5 		ldr	r1, [r3]
 758              	.LVL112:
 759 056c 10008DE5 		str	r0, [sp, #16]
 760              	.L51:
 761              	.LVL113:
 762              	.LBB20:
 763              	.LBB21:
 764              		.loc 1 75 0
 765 0570 0800A0E1 		mov	r0, r8
 766              	.LVL114:
 767              	.L100:
 768 0574 0030A0E3 		mov	r3, #0
 769 0578 FEFFFFEB 		bl	long_to_string_with_divisor
 770              	.LVL115:
 771 057c 000068E0 		rsb	r0, r8, r0
 772 0580 013040E2 		sub	r3, r0, #1
 773              	.LBE21:
 774              	.LBE20:
 775              		.loc 1 137 0
 776 0584 08A0A0E1 		mov	r10, r8
 777              		.loc 1 236 0
 778 0588 C3FFFFEA 		b	.L38
 779              	.LVL116:
 780              	.L75:
 781              		.loc 1 183 0
 782 058c 01C0A0E3 		mov	ip, #1
 783              	.LVL117:
 784              	.L32:
 785              		.loc 1 231 0
 786 0590 00005CE3 		cmp	ip, #0
 787 0594 0820A0E3 		mov	r2, #8
 788              	.LVL118:
 789 0598 F0FFFF0A 		beq	.L50
 790              	.L65:
 791              		.loc 1 232 0
 792 059c 10309DE5 		ldr	r3, [sp, #16]
 793 05a0 041083E2 		add	r1, r3, #4
 794              	.LVL119:
 795 05a4 10108DE5 		str	r1, [sp, #16]
 796 05a8 001093E5 		ldr	r1, [r3]
 797              	.LVL120:
 798 05ac EFFFFFEA 		b	.L51
ARM GAS  /tmp/ccyFNOym.s 			page 15


 799              	.LVL121:
 800              	.L30:
 801              		.loc 1 199 0
 802 05b0 000053E3 		cmp	r3, #0
 803 05b4 1600000A 		beq	.L44
 804              	.LVL122:
 805              	.L45:
 806              		.loc 1 200 0
 807 05b8 10309DE5 		ldr	r3, [sp, #16]
 808 05bc 042083E2 		add	r2, r3, #4
 809              	.LVL123:
 810 05c0 001093E5 		ldr	r1, [r3]
 811              	.LVL124:
 812 05c4 10208DE5 		str	r2, [sp, #16]
 813              	.L46:
 814              		.loc 1 203 0
 815 05c8 000051E3 		cmp	r1, #0
 816              	.LVL125:
 817              		.loc 1 204 0
 818 05cc 2D30A0B3 		movlt	r3, #45
 819              		.loc 1 205 0
 820 05d0 001061B2 		rsblt	r1, r1, #0
 821              	.LVL126:
 822              		.loc 1 204 0
 823 05d4 1430CDB5 		strltb	r3, [sp, #20]
 824 05d8 15008DB2 		addlt	r0, sp, #21
 825              		.loc 1 136 0
 826 05dc 0800A0A1 		movge	r0, r8
 827              	.LVL127:
 828              	.LBB22:
 829              	.LBB23:
 830              		.loc 1 75 0
 831 05e0 0A20A0E3 		mov	r2, #10
 832 05e4 E2FFFFEA 		b	.L100
 833              	.LVL128:
 834              	.L73:
 835              	.LBE23:
 836              	.LBE22:
 837              		.loc 1 255 0
 838 05e8 009053E2 		subs	r9, r3, #0
 839              	.LVL129:
 840 05ec BFFFFFAA 		bge	.L58
 841 05f0 8CFEFFEA 		b	.L14
 842              	.LVL130:
 843              	.L70:
 844              		.loc 1 183 0
 845 05f4 1020A0E3 		mov	r2, #16
 846              	.LVL131:
 847 05f8 D6FFFFEA 		b	.L34
 848              	.LVL132:
 849              	.L61:
 850              		.loc 1 232 0
 851 05fc 10309DE5 		ldr	r3, [sp, #16]
 852              		.loc 1 183 0
 853 0600 1020A0E3 		mov	r2, #16
 854              	.LVL133:
 855              		.loc 1 232 0
ARM GAS  /tmp/ccyFNOym.s 			page 16


 856 0604 041083E2 		add	r1, r3, #4
 857              	.LVL134:
 858 0608 10108DE5 		str	r1, [sp, #16]
 859 060c 001093E5 		ldr	r1, [r3]
 860              	.LVL135:
 861 0610 D6FFFFEA 		b	.L51
 862              	.LVL136:
 863              	.L44:
 864              		.loc 1 202 0
 865 0614 10309DE5 		ldr	r3, [sp, #16]
 866              	.LVL137:
 867 0618 042083E2 		add	r2, r3, #4
 868              	.LVL138:
 869 061c 001093E5 		ldr	r1, [r3]
 870              	.LVL139:
 871 0620 10208DE5 		str	r2, [sp, #16]
 872 0624 E7FFFFEA 		b	.L46
 873              	.LVL140:
 874              	.L40:
 875              		.loc 1 194 0
 876 0628 000053E3 		cmp	r3, #0
 877 062c 54109F15 		ldrne	r1, .L109+12
 878 0630 4AFFFF1A 		bne	.L62
 879              	.LVL141:
 880              	.L41:
 881              		.loc 1 244 0
 882 0634 000059E3 		cmp	r9, #0
 883 0638 C44FC4E1 		bic	r4, r4, r4, asr #31
 884              	.LVL142:
 885 063c 2070A013 		movne	r7, #32
 886 0640 57FFFF1A 		bne	.L57
 887              		.loc 1 245 0
 888 0644 004064E2 		rsb	r4, r4, #0
 889              	.LVL143:
 890              		.loc 1 246 0
 891 0648 000054E3 		cmp	r4, #0
 892              		.loc 1 244 0
 893 064c 2070A0E3 		mov	r7, #32
 894              		.loc 1 246 0
 895 0650 0090E013 		mvnne	r9, #0
 896              	.LVL144:
 897 0654 9CFFFF1A 		bne	.L55
 898 0658 72FEFFEA 		b	.L14
 899              	.LVL145:
 900              	.L108:
 901              		.loc 1 248 0
 902 065c 002096E5 		ldr	r2, [r6]
 903 0660 0600A0E1 		mov	r0, r6
 904              	.LVL146:
 905 0664 082092E5 		ldr	r2, [r2, #8]
 906 0668 2D10A0E3 		mov	r1, #45
 907 066c 01A08AE2 		add	r10, r10, #1
 908              	.LVL147:
 909 0670 019043E2 		sub	r9, r3, #1
 910 0674 32FF2FE1 		blx	r2
 911              	.LVL148:
 912 0678 93FFFFEA 		b	.L55
ARM GAS  /tmp/ccyFNOym.s 			page 17


 913              	.L110:
 914              		.align	2
 915              	.L109:
 916 067c 00000000 		.word	.LC0
 917 0680 006AF840 		.word	1090021888
 918 0684 10270000 		.word	10000
 919 0688 FE7F0000 		.word	32766
 920              		.cfi_endproc
 921              	.LFE10:
 922              		.size	chprintf, .-chprintf
 923              		.section	.rodata.str1.4,"aMS",%progbits,1
 924              		.align	2
 925              	.LC0:
 926 0000 286E756C 		.ascii	"(null)\000"
 926      6C2900
 927              		.text
 928              	.Letext0:
 929              		.file 2 "/usr/lib/gcc/arm-none-eabi/4.9.3/include/stdarg.h"
 930              		.file 3 "/usr/lib/gcc/arm-none-eabi/4.9.3/include/stddef.h"
 931              		.file 4 "/usr/include/newlib/machine/_default_types.h"
 932              		.file 5 "/usr/include/newlib/sys/_stdint.h"
 933              		.file 6 "../../../os/ports/GCC/ARM/chtypes.h"
 934              		.file 7 "../../../os/kernel/include/chstreams.h"
 935              		.section	.debug_info,"",%progbits
 936              	.Ldebug_info0:
 937 0000 2A050000 		.4byte	0x52a
 938 0004 0400     		.2byte	0x4
 939 0006 00000000 		.4byte	.Ldebug_abbrev0
 940 000a 04       		.byte	0x4
 941 000b 01       		.uleb128 0x1
 942 000c 23000000 		.4byte	.LASF35
 943 0010 01       		.byte	0x1
 944 0011 C5010000 		.4byte	.LASF36
 945 0015 E4010000 		.4byte	.LASF37
 946 0019 28000000 		.4byte	.Ldebug_ranges0+0x28
 947 001d 00000000 		.4byte	0
 948 0021 00000000 		.4byte	.Ldebug_line0
 949 0025 02       		.uleb128 0x2
 950 0026 08       		.byte	0x8
 951 0027 04       		.byte	0x4
 952 0028 6C010000 		.4byte	.LASF0
 953 002c 03       		.uleb128 0x3
 954 002d 04       		.byte	0x4
 955 002e 05       		.byte	0x5
 956 002f 696E7400 		.ascii	"int\000"
 957 0033 02       		.uleb128 0x2
 958 0034 04       		.byte	0x4
 959 0035 04       		.byte	0x4
 960 0036 01010000 		.4byte	.LASF1
 961 003a 04       		.uleb128 0x4
 962 003b 73010000 		.4byte	.LASF2
 963 003f 02       		.byte	0x2
 964 0040 28       		.byte	0x28
 965 0041 45000000 		.4byte	0x45
 966 0045 05       		.uleb128 0x5
 967 0046 04       		.byte	0x4
 968 0047 11000000 		.4byte	.LASF38
ARM GAS  /tmp/ccyFNOym.s 			page 18


 969 004b 04       		.uleb128 0x4
 970 004c 07010000 		.4byte	.LASF3
 971 0050 02       		.byte	0x2
 972 0051 62       		.byte	0x62
 973 0052 3A000000 		.4byte	0x3a
 974 0056 02       		.uleb128 0x2
 975 0057 04       		.byte	0x4
 976 0058 05       		.byte	0x5
 977 0059 7E020000 		.4byte	.LASF4
 978 005d 04       		.uleb128 0x4
 979 005e 0A000000 		.4byte	.LASF5
 980 0062 03       		.byte	0x3
 981 0063 D4       		.byte	0xd4
 982 0064 68000000 		.4byte	0x68
 983 0068 02       		.uleb128 0x2
 984 0069 04       		.byte	0x4
 985 006a 07       		.byte	0x7
 986 006b 32010000 		.4byte	.LASF6
 987 006f 02       		.uleb128 0x2
 988 0070 01       		.byte	0x1
 989 0071 06       		.byte	0x6
 990 0072 87020000 		.4byte	.LASF7
 991 0076 04       		.uleb128 0x4
 992 0077 00000000 		.4byte	.LASF8
 993 007b 04       		.byte	0x4
 994 007c 1D       		.byte	0x1d
 995 007d 81000000 		.4byte	0x81
 996 0081 02       		.uleb128 0x2
 997 0082 01       		.byte	0x1
 998 0083 08       		.byte	0x8
 999 0084 24010000 		.4byte	.LASF9
 1000 0088 02       		.uleb128 0x2
 1001 0089 02       		.byte	0x2
 1002 008a 05       		.byte	0x5
 1003 008b 64020000 		.4byte	.LASF10
 1004 008f 02       		.uleb128 0x2
 1005 0090 02       		.byte	0x2
 1006 0091 07       		.byte	0x7
 1007 0092 44010000 		.4byte	.LASF11
 1008 0096 04       		.uleb128 0x4
 1009 0097 BE000000 		.4byte	.LASF12
 1010 009b 04       		.byte	0x4
 1011 009c 3F       		.byte	0x3f
 1012 009d 56000000 		.4byte	0x56
 1013 00a1 02       		.uleb128 0x2
 1014 00a2 08       		.byte	0x8
 1015 00a3 05       		.byte	0x5
 1016 00a4 3C020000 		.4byte	.LASF13
 1017 00a8 02       		.uleb128 0x2
 1018 00a9 08       		.byte	0x8
 1019 00aa 07       		.byte	0x7
 1020 00ab 9B010000 		.4byte	.LASF14
 1021 00af 04       		.uleb128 0x4
 1022 00b0 34020000 		.4byte	.LASF15
 1023 00b4 05       		.byte	0x5
 1024 00b5 14       		.byte	0x14
 1025 00b6 76000000 		.4byte	0x76
ARM GAS  /tmp/ccyFNOym.s 			page 19


 1026 00ba 04       		.uleb128 0x4
 1027 00bb F9000000 		.4byte	.LASF16
 1028 00bf 05       		.byte	0x5
 1029 00c0 1F       		.byte	0x1f
 1030 00c1 96000000 		.4byte	0x96
 1031 00c5 02       		.uleb128 0x2
 1032 00c6 04       		.byte	0x4
 1033 00c7 07       		.byte	0x7
 1034 00c8 8E010000 		.4byte	.LASF17
 1035 00cc 04       		.uleb128 0x4
 1036 00cd D6000000 		.4byte	.LASF18
 1037 00d1 06       		.byte	0x6
 1038 00d2 29       		.byte	0x29
 1039 00d3 BA000000 		.4byte	0xba
 1040 00d7 04       		.uleb128 0x4
 1041 00d8 BA010000 		.4byte	.LASF19
 1042 00dc 06       		.byte	0x6
 1043 00dd 2F       		.byte	0x2f
 1044 00de BA000000 		.4byte	0xba
 1045 00e2 06       		.uleb128 0x6
 1046 00e3 04       		.byte	0x4
 1047 00e4 07       		.uleb128 0x7
 1048 00e5 04       		.byte	0x4
 1049 00e6 EA000000 		.4byte	0xea
 1050 00ea 08       		.uleb128 0x8
 1051 00eb D7000000 		.4byte	0xd7
 1052 00ef F9000000 		.4byte	0xf9
 1053 00f3 09       		.uleb128 0x9
 1054 00f4 E2000000 		.4byte	0xe2
 1055 00f8 00       		.byte	0
 1056 00f9 07       		.uleb128 0x7
 1057 00fa 04       		.byte	0x4
 1058 00fb AF000000 		.4byte	0xaf
 1059 00ff 0A       		.uleb128 0xa
 1060 0100 98020000 		.4byte	.LASF39
 1061 0104 10       		.byte	0x10
 1062 0105 07       		.byte	0x7
 1063 0106 41       		.byte	0x41
 1064 0107 3C010000 		.4byte	0x13c
 1065 010b 0B       		.uleb128 0xb
 1066 010c 57010000 		.4byte	.LASF20
 1067 0110 07       		.byte	0x7
 1068 0111 42       		.byte	0x42
 1069 0112 60010000 		.4byte	0x160
 1070 0116 00       		.byte	0
 1071 0117 0B       		.uleb128 0xb
 1072 0118 82010000 		.4byte	.LASF21
 1073 011c 07       		.byte	0x7
 1074 011d 42       		.byte	0x42
 1075 011e 7F010000 		.4byte	0x17f
 1076 0122 04       		.byte	0x4
 1077 0123 0C       		.uleb128 0xc
 1078 0124 70757400 		.ascii	"put\000"
 1079 0128 07       		.byte	0x7
 1080 0129 42       		.byte	0x42
 1081 012a 99010000 		.4byte	0x199
 1082 012e 08       		.byte	0x8
ARM GAS  /tmp/ccyFNOym.s 			page 20


 1083 012f 0C       		.uleb128 0xc
 1084 0130 67657400 		.ascii	"get\000"
 1085 0134 07       		.byte	0x7
 1086 0135 42       		.byte	0x42
 1087 0136 E4000000 		.4byte	0xe4
 1088 013a 0C       		.byte	0xc
 1089 013b 00       		.byte	0
 1090 013c 08       		.uleb128 0x8
 1091 013d 5D000000 		.4byte	0x5d
 1092 0141 55010000 		.4byte	0x155
 1093 0145 09       		.uleb128 0x9
 1094 0146 E2000000 		.4byte	0xe2
 1095 014a 09       		.uleb128 0x9
 1096 014b 55010000 		.4byte	0x155
 1097 014f 09       		.uleb128 0x9
 1098 0150 5D000000 		.4byte	0x5d
 1099 0154 00       		.byte	0
 1100 0155 07       		.uleb128 0x7
 1101 0156 04       		.byte	0x4
 1102 0157 5B010000 		.4byte	0x15b
 1103 015b 0D       		.uleb128 0xd
 1104 015c AF000000 		.4byte	0xaf
 1105 0160 07       		.uleb128 0x7
 1106 0161 04       		.byte	0x4
 1107 0162 3C010000 		.4byte	0x13c
 1108 0166 08       		.uleb128 0x8
 1109 0167 5D000000 		.4byte	0x5d
 1110 016b 7F010000 		.4byte	0x17f
 1111 016f 09       		.uleb128 0x9
 1112 0170 E2000000 		.4byte	0xe2
 1113 0174 09       		.uleb128 0x9
 1114 0175 F9000000 		.4byte	0xf9
 1115 0179 09       		.uleb128 0x9
 1116 017a 5D000000 		.4byte	0x5d
 1117 017e 00       		.byte	0
 1118 017f 07       		.uleb128 0x7
 1119 0180 04       		.byte	0x4
 1120 0181 66010000 		.4byte	0x166
 1121 0185 08       		.uleb128 0x8
 1122 0186 D7000000 		.4byte	0xd7
 1123 018a 99010000 		.4byte	0x199
 1124 018e 09       		.uleb128 0x9
 1125 018f E2000000 		.4byte	0xe2
 1126 0193 09       		.uleb128 0x9
 1127 0194 AF000000 		.4byte	0xaf
 1128 0198 00       		.byte	0
 1129 0199 07       		.uleb128 0x7
 1130 019a 04       		.byte	0x4
 1131 019b 85010000 		.4byte	0x185
 1132 019f 0E       		.uleb128 0xe
 1133 01a0 04       		.byte	0x4
 1134 01a1 07       		.byte	0x7
 1135 01a2 4A       		.byte	0x4a
 1136 01a3 B4010000 		.4byte	0x1b4
 1137 01a7 0C       		.uleb128 0xc
 1138 01a8 766D7400 		.ascii	"vmt\000"
 1139 01ac 07       		.byte	0x7
ARM GAS  /tmp/ccyFNOym.s 			page 21


 1140 01ad 4C       		.byte	0x4c
 1141 01ae B4010000 		.4byte	0x1b4
 1142 01b2 00       		.byte	0
 1143 01b3 00       		.byte	0
 1144 01b4 07       		.uleb128 0x7
 1145 01b5 04       		.byte	0x4
 1146 01b6 BA010000 		.4byte	0x1ba
 1147 01ba 0D       		.uleb128 0xd
 1148 01bb FF000000 		.4byte	0xff
 1149 01bf 04       		.uleb128 0x4
 1150 01c0 0F010000 		.4byte	.LASF22
 1151 01c4 07       		.byte	0x7
 1152 01c5 4E       		.byte	0x4e
 1153 01c6 9F010000 		.4byte	0x19f
 1154 01ca 0F       		.uleb128 0xf
 1155 01cb 93020000 		.4byte	.LASF26
 1156 01cf 01       		.byte	0x1
 1157 01d0 49       		.byte	0x49
 1158 01d1 FA010000 		.4byte	0x1fa
 1159 01d5 01       		.byte	0x1
 1160 01d6 FA010000 		.4byte	0x1fa
 1161 01da 10       		.uleb128 0x10
 1162 01db 7000     		.ascii	"p\000"
 1163 01dd 01       		.byte	0x1
 1164 01de 49       		.byte	0x49
 1165 01df FA010000 		.4byte	0x1fa
 1166 01e3 10       		.uleb128 0x10
 1167 01e4 6E756D00 		.ascii	"num\000"
 1168 01e8 01       		.byte	0x1
 1169 01e9 49       		.byte	0x49
 1170 01ea 56000000 		.4byte	0x56
 1171 01ee 11       		.uleb128 0x11
 1172 01ef D0000000 		.4byte	.LASF23
 1173 01f3 01       		.byte	0x1
 1174 01f4 49       		.byte	0x49
 1175 01f5 C5000000 		.4byte	0xc5
 1176 01f9 00       		.byte	0
 1177 01fa 07       		.uleb128 0x7
 1178 01fb 04       		.byte	0x4
 1179 01fc 00020000 		.4byte	0x200
 1180 0200 02       		.uleb128 0x2
 1181 0201 01       		.byte	0x1
 1182 0202 08       		.byte	0x8
 1183 0203 54020000 		.4byte	.LASF24
 1184 0207 12       		.uleb128 0x12
 1185 0208 DD000000 		.4byte	.LASF40
 1186 020c 01       		.byte	0x1
 1187 020d 28       		.byte	0x28
 1188 020e FA010000 		.4byte	0x1fa
 1189 0212 00000000 		.4byte	.LFB7
 1190 0216 90000000 		.4byte	.LFE7-.LFB7
 1191 021a 01       		.uleb128 0x1
 1192 021b 9C       		.byte	0x9c
 1193 021c 90020000 		.4byte	0x290
 1194 0220 13       		.uleb128 0x13
 1195 0221 7000     		.ascii	"p\000"
 1196 0223 01       		.byte	0x1
ARM GAS  /tmp/ccyFNOym.s 			page 22


 1197 0224 28       		.byte	0x28
 1198 0225 FA010000 		.4byte	0x1fa
 1199 0229 00000000 		.4byte	.LLST0
 1200 022d 13       		.uleb128 0x13
 1201 022e 6E756D00 		.ascii	"num\000"
 1202 0232 01       		.byte	0x1
 1203 0233 29       		.byte	0x29
 1204 0234 56000000 		.4byte	0x56
 1205 0238 43000000 		.4byte	.LLST1
 1206 023c 14       		.uleb128 0x14
 1207 023d D0000000 		.4byte	.LASF23
 1208 0241 01       		.byte	0x1
 1209 0242 2A       		.byte	0x2a
 1210 0243 C5000000 		.4byte	0xc5
 1211 0247 64000000 		.4byte	.LLST2
 1212 024b 14       		.uleb128 0x14
 1213 024c B2010000 		.4byte	.LASF25
 1214 0250 01       		.byte	0x1
 1215 0251 2B       		.byte	0x2b
 1216 0252 56000000 		.4byte	0x56
 1217 0256 82000000 		.4byte	.LLST3
 1218 025a 15       		.uleb128 0x15
 1219 025b 6900     		.ascii	"i\000"
 1220 025d 01       		.byte	0x1
 1221 025e 2C       		.byte	0x2c
 1222 025f 2C000000 		.4byte	0x2c
 1223 0263 A3000000 		.4byte	.LLST4
 1224 0267 15       		.uleb128 0x15
 1225 0268 7100     		.ascii	"q\000"
 1226 026a 01       		.byte	0x1
 1227 026b 2D       		.byte	0x2d
 1228 026c FA010000 		.4byte	0x1fa
 1229 0270 E3000000 		.4byte	.LLST5
 1230 0274 15       		.uleb128 0x15
 1231 0275 6C00     		.ascii	"l\000"
 1232 0277 01       		.byte	0x1
 1233 0278 2E       		.byte	0x2e
 1234 0279 56000000 		.4byte	0x56
 1235 027d 19010000 		.4byte	.LLST6
 1236 0281 15       		.uleb128 0x15
 1237 0282 6C6C00   		.ascii	"ll\000"
 1238 0285 01       		.byte	0x1
 1239 0286 2E       		.byte	0x2e
 1240 0287 56000000 		.4byte	0x56
 1241 028b 4D010000 		.4byte	.LLST7
 1242 028f 00       		.byte	0
 1243 0290 0F       		.uleb128 0xf
 1244 0291 C0010000 		.4byte	.LASF27
 1245 0295 01       		.byte	0x1
 1246 0296 4F       		.byte	0x4f
 1247 0297 FA010000 		.4byte	0x1fa
 1248 029b 01       		.byte	0x1
 1249 029c C9020000 		.4byte	0x2c9
 1250 02a0 10       		.uleb128 0x10
 1251 02a1 7000     		.ascii	"p\000"
 1252 02a3 01       		.byte	0x1
 1253 02a4 4F       		.byte	0x4f
ARM GAS  /tmp/ccyFNOym.s 			page 23


 1254 02a5 FA010000 		.4byte	0x1fa
 1255 02a9 10       		.uleb128 0x10
 1256 02aa 6E756D00 		.ascii	"num\000"
 1257 02ae 01       		.byte	0x1
 1258 02af 4F       		.byte	0x4f
 1259 02b0 25000000 		.4byte	0x25
 1260 02b4 16       		.uleb128 0x16
 1261 02b5 6C00     		.ascii	"l\000"
 1262 02b7 01       		.byte	0x1
 1263 02b8 50       		.byte	0x50
 1264 02b9 56000000 		.4byte	0x56
 1265 02bd 17       		.uleb128 0x17
 1266 02be 4A020000 		.4byte	.LASF28
 1267 02c2 01       		.byte	0x1
 1268 02c3 51       		.byte	0x51
 1269 02c4 68000000 		.4byte	0x68
 1270 02c8 00       		.byte	0
 1271 02c9 18       		.uleb128 0x18
 1272 02ca 63010000 		.4byte	.LASF41
 1273 02ce 01       		.byte	0x1
 1274 02cf 70       		.byte	0x70
 1275 02d0 00000000 		.4byte	.LFB10
 1276 02d4 8C060000 		.4byte	.LFE10-.LFB10
 1277 02d8 01       		.uleb128 0x1
 1278 02d9 9C       		.byte	0x9c
 1279 02da 05050000 		.4byte	0x505
 1280 02de 13       		.uleb128 0x13
 1281 02df 63687000 		.ascii	"chp\000"
 1282 02e3 01       		.byte	0x1
 1283 02e4 70       		.byte	0x70
 1284 02e5 05050000 		.4byte	0x505
 1285 02e9 76010000 		.4byte	.LLST8
 1286 02ed 13       		.uleb128 0x13
 1287 02ee 666D7400 		.ascii	"fmt\000"
 1288 02f2 01       		.byte	0x1
 1289 02f3 70       		.byte	0x70
 1290 02f4 0B050000 		.4byte	0x50b
 1291 02f8 AD010000 		.4byte	.LLST9
 1292 02fc 19       		.uleb128 0x19
 1293 02fd 1A       		.uleb128 0x1a
 1294 02fe 617000   		.ascii	"ap\000"
 1295 0301 01       		.byte	0x1
 1296 0302 71       		.byte	0x71
 1297 0303 4B000000 		.4byte	0x4b
 1298 0307 03       		.uleb128 0x3
 1299 0308 91       		.byte	0x91
 1300 0309 B47F     		.sleb128 -76
 1301 030b 15       		.uleb128 0x15
 1302 030c 7000     		.ascii	"p\000"
 1303 030e 01       		.byte	0x1
 1304 030f 72       		.byte	0x72
 1305 0310 FA010000 		.4byte	0x1fa
 1306 0314 63020000 		.4byte	.LLST10
 1307 0318 15       		.uleb128 0x15
 1308 0319 7300     		.ascii	"s\000"
 1309 031b 01       		.byte	0x1
 1310 031c 72       		.byte	0x72
ARM GAS  /tmp/ccyFNOym.s 			page 24


 1311 031d FA010000 		.4byte	0x1fa
 1312 0321 29030000 		.4byte	.LLST11
 1313 0325 15       		.uleb128 0x15
 1314 0326 6300     		.ascii	"c\000"
 1315 0328 01       		.byte	0x1
 1316 0329 72       		.byte	0x72
 1317 032a 00020000 		.4byte	0x200
 1318 032e AC030000 		.4byte	.LLST12
 1319 0332 1B       		.uleb128 0x1b
 1320 0333 87010000 		.4byte	.LASF29
 1321 0337 01       		.byte	0x1
 1322 0338 72       		.byte	0x72
 1323 0339 00020000 		.4byte	0x200
 1324 033d 98040000 		.4byte	.LLST13
 1325 0341 15       		.uleb128 0x15
 1326 0342 6900     		.ascii	"i\000"
 1327 0344 01       		.byte	0x1
 1328 0345 73       		.byte	0x73
 1329 0346 2C000000 		.4byte	0x2c
 1330 034a 0B050000 		.4byte	.LLST14
 1331 034e 1B       		.uleb128 0x1b
 1332 034f 4A020000 		.4byte	.LASF28
 1333 0353 01       		.byte	0x1
 1334 0354 73       		.byte	0x73
 1335 0355 2C000000 		.4byte	0x2c
 1336 0359 86050000 		.4byte	.LLST15
 1337 035d 1B       		.uleb128 0x1b
 1338 035e 5D010000 		.4byte	.LASF30
 1339 0362 01       		.byte	0x1
 1340 0363 73       		.byte	0x73
 1341 0364 2C000000 		.4byte	0x2c
 1342 0368 0F060000 		.4byte	.LLST16
 1343 036c 1B       		.uleb128 0x1b
 1344 036d C8000000 		.4byte	.LASF31
 1345 0371 01       		.byte	0x1
 1346 0372 74       		.byte	0x74
 1347 0373 CC000000 		.4byte	0xcc
 1348 0377 8B060000 		.4byte	.LLST17
 1349 037b 1B       		.uleb128 0x1b
 1350 037c 59020000 		.4byte	.LASF32
 1351 0380 01       		.byte	0x1
 1352 0381 74       		.byte	0x74
 1353 0382 CC000000 		.4byte	0xcc
 1354 0386 FA060000 		.4byte	.LLST18
 1355 038a 15       		.uleb128 0x15
 1356 038b 6C00     		.ascii	"l\000"
 1357 038d 01       		.byte	0x1
 1358 038e 75       		.byte	0x75
 1359 038f 56000000 		.4byte	0x56
 1360 0393 46070000 		.4byte	.LLST19
 1361 0397 15       		.uleb128 0x15
 1362 0398 6600     		.ascii	"f\000"
 1363 039a 01       		.byte	0x1
 1364 039b 77       		.byte	0x77
 1365 039c 33000000 		.4byte	0x33
 1366 03a0 85070000 		.4byte	.LLST20
 1367 03a4 1C       		.uleb128 0x1c
ARM GAS  /tmp/ccyFNOym.s 			page 25


 1368 03a5 2D020000 		.4byte	.LASF33
 1369 03a9 01       		.byte	0x1
 1370 03aa 78       		.byte	0x78
 1371 03ab 16050000 		.4byte	0x516
 1372 03af 03       		.uleb128 0x3
 1373 03b0 91       		.byte	0x91
 1374 03b1 B87F     		.sleb128 -72
 1375 03b3 1D       		.uleb128 0x1d
 1376 03b4 6E020000 		.4byte	.LASF42
 1377 03b8 01       		.byte	0x1
 1378 03b9 E6       		.byte	0xe6
 1379 03ba 58050000 		.4byte	.L34
 1380 03be 1E       		.uleb128 0x1e
 1381 03bf 90020000 		.4byte	0x290
 1382 03c3 00040000 		.4byte	.LBB12
 1383 03c7 00000000 		.4byte	.Ldebug_ranges0+0
 1384 03cb 01       		.byte	0x1
 1385 03cc D8       		.byte	0xd8
 1386 03cd 39040000 		.4byte	0x439
 1387 03d1 1F       		.uleb128 0x1f
 1388 03d2 A9020000 		.4byte	0x2a9
 1389 03d6 A3070000 		.4byte	.LLST21
 1390 03da 1F       		.uleb128 0x1f
 1391 03db A0020000 		.4byte	0x2a0
 1392 03df BB070000 		.4byte	.LLST22
 1393 03e3 20       		.uleb128 0x20
 1394 03e4 00000000 		.4byte	.Ldebug_ranges0+0
 1395 03e8 21       		.uleb128 0x21
 1396 03e9 B4020000 		.4byte	0x2b4
 1397 03ed 01080000 		.4byte	.LLST23
 1398 03f1 21       		.uleb128 0x21
 1399 03f2 BD020000 		.4byte	0x2bd
 1400 03f6 3D080000 		.4byte	.LLST24
 1401 03fa 22       		.uleb128 0x22
 1402 03fb 30040000 		.4byte	.LVL82
 1403 03ff 07020000 		.4byte	0x207
 1404 0403 19040000 		.4byte	0x419
 1405 0407 23       		.uleb128 0x23
 1406 0408 01       		.uleb128 0x1
 1407 0409 53       		.byte	0x53
 1408 040a 01       		.uleb128 0x1
 1409 040b 30       		.byte	0x30
 1410 040c 23       		.uleb128 0x23
 1411 040d 01       		.uleb128 0x1
 1412 040e 52       		.byte	0x52
 1413 040f 01       		.uleb128 0x1
 1414 0410 3A       		.byte	0x3a
 1415 0411 23       		.uleb128 0x23
 1416 0412 01       		.uleb128 0x1
 1417 0413 51       		.byte	0x51
 1418 0414 03       		.uleb128 0x3
 1419 0415 7D       		.byte	0x7d
 1420 0416 00       		.sleb128 0
 1421 0417 06       		.byte	0x6
 1422 0418 00       		.byte	0
 1423 0419 24       		.uleb128 0x24
 1424 041a 90040000 		.4byte	.LVL90
ARM GAS  /tmp/ccyFNOym.s 			page 26


 1425 041e 07020000 		.4byte	0x207
 1426 0422 23       		.uleb128 0x23
 1427 0423 01       		.uleb128 0x1
 1428 0424 53       		.byte	0x53
 1429 0425 03       		.uleb128 0x3
 1430 0426 0A       		.byte	0xa
 1431 0427 1027     		.2byte	0x2710
 1432 0429 23       		.uleb128 0x23
 1433 042a 01       		.uleb128 0x1
 1434 042b 52       		.byte	0x52
 1435 042c 01       		.uleb128 0x1
 1436 042d 3A       		.byte	0x3a
 1437 042e 23       		.uleb128 0x23
 1438 042f 01       		.uleb128 0x1
 1439 0430 50       		.byte	0x50
 1440 0431 04       		.uleb128 0x4
 1441 0432 91       		.byte	0x91
 1442 0433 907F     		.sleb128 -112
 1443 0435 06       		.byte	0x6
 1444 0436 00       		.byte	0
 1445 0437 00       		.byte	0
 1446 0438 00       		.byte	0
 1447 0439 25       		.uleb128 0x25
 1448 043a CA010000 		.4byte	0x1ca
 1449 043e 70050000 		.4byte	.LBB20
 1450 0442 14000000 		.4byte	.LBE20-.LBB20
 1451 0446 01       		.byte	0x1
 1452 0447 EB       		.byte	0xeb
 1453 0448 77040000 		.4byte	0x477
 1454 044c 1F       		.uleb128 0x1f
 1455 044d EE010000 		.4byte	0x1ee
 1456 0451 55080000 		.4byte	.LLST25
 1457 0455 1F       		.uleb128 0x1f
 1458 0456 E3010000 		.4byte	0x1e3
 1459 045a 68080000 		.4byte	.LLST26
 1460 045e 1F       		.uleb128 0x1f
 1461 045f DA010000 		.4byte	0x1da
 1462 0463 7B080000 		.4byte	.LLST27
 1463 0467 24       		.uleb128 0x24
 1464 0468 7C050000 		.4byte	.LVL115
 1465 046c 07020000 		.4byte	0x207
 1466 0470 23       		.uleb128 0x23
 1467 0471 01       		.uleb128 0x1
 1468 0472 53       		.byte	0x53
 1469 0473 01       		.uleb128 0x1
 1470 0474 30       		.byte	0x30
 1471 0475 00       		.byte	0
 1472 0476 00       		.byte	0
 1473 0477 25       		.uleb128 0x25
 1474 0478 CA010000 		.4byte	0x1ca
 1475 047c E0050000 		.4byte	.LBB22
 1476 0480 08000000 		.4byte	.LBE22-.LBB22
 1477 0484 01       		.byte	0x1
 1478 0485 CF       		.byte	0xcf
 1479 0486 A6040000 		.4byte	0x4a6
 1480 048a 1F       		.uleb128 0x1f
 1481 048b EE010000 		.4byte	0x1ee
ARM GAS  /tmp/ccyFNOym.s 			page 27


 1482 048f 8E080000 		.4byte	.LLST28
 1483 0493 1F       		.uleb128 0x1f
 1484 0494 E3010000 		.4byte	0x1e3
 1485 0498 A2080000 		.4byte	.LLST29
 1486 049c 1F       		.uleb128 0x1f
 1487 049d DA010000 		.4byte	0x1da
 1488 04a1 B5080000 		.4byte	.LLST30
 1489 04a5 00       		.byte	0
 1490 04a6 26       		.uleb128 0x26
 1491 04a7 54000000 		.4byte	.LVL24
 1492 04ab B6040000 		.4byte	0x4b6
 1493 04af 23       		.uleb128 0x23
 1494 04b0 01       		.uleb128 0x1
 1495 04b1 50       		.byte	0x50
 1496 04b2 02       		.uleb128 0x2
 1497 04b3 76       		.byte	0x76
 1498 04b4 00       		.sleb128 0
 1499 04b5 00       		.byte	0
 1500 04b6 26       		.uleb128 0x26
 1501 04b7 C0030000 		.4byte	.LVL69
 1502 04bb CC040000 		.4byte	0x4cc
 1503 04bf 23       		.uleb128 0x23
 1504 04c0 01       		.uleb128 0x1
 1505 04c1 51       		.byte	0x51
 1506 04c2 02       		.uleb128 0x2
 1507 04c3 77       		.byte	0x77
 1508 04c4 00       		.sleb128 0
 1509 04c5 23       		.uleb128 0x23
 1510 04c6 01       		.uleb128 0x1
 1511 04c7 50       		.byte	0x50
 1512 04c8 02       		.uleb128 0x2
 1513 04c9 76       		.byte	0x76
 1514 04ca 00       		.sleb128 0
 1515 04cb 00       		.byte	0
 1516 04cc 26       		.uleb128 0x26
 1517 04cd E0040000 		.4byte	.LVL99
 1518 04d1 E2040000 		.4byte	0x4e2
 1519 04d5 23       		.uleb128 0x23
 1520 04d6 01       		.uleb128 0x1
 1521 04d7 51       		.byte	0x51
 1522 04d8 02       		.uleb128 0x2
 1523 04d9 77       		.byte	0x77
 1524 04da 00       		.sleb128 0
 1525 04db 23       		.uleb128 0x23
 1526 04dc 01       		.uleb128 0x1
 1527 04dd 50       		.byte	0x50
 1528 04de 02       		.uleb128 0x2
 1529 04df 76       		.byte	0x76
 1530 04e0 00       		.sleb128 0
 1531 04e1 00       		.byte	0
 1532 04e2 26       		.uleb128 0x26
 1533 04e3 08050000 		.4byte	.LVL105
 1534 04e7 F2040000 		.4byte	0x4f2
 1535 04eb 23       		.uleb128 0x23
 1536 04ec 01       		.uleb128 0x1
 1537 04ed 50       		.byte	0x50
 1538 04ee 02       		.uleb128 0x2
ARM GAS  /tmp/ccyFNOym.s 			page 28


 1539 04ef 76       		.byte	0x76
 1540 04f0 00       		.sleb128 0
 1541 04f1 00       		.byte	0
 1542 04f2 27       		.uleb128 0x27
 1543 04f3 78060000 		.4byte	.LVL148
 1544 04f7 23       		.uleb128 0x23
 1545 04f8 01       		.uleb128 0x1
 1546 04f9 51       		.byte	0x51
 1547 04fa 02       		.uleb128 0x2
 1548 04fb 08       		.byte	0x8
 1549 04fc 2D       		.byte	0x2d
 1550 04fd 23       		.uleb128 0x23
 1551 04fe 01       		.uleb128 0x1
 1552 04ff 50       		.byte	0x50
 1553 0500 02       		.uleb128 0x2
 1554 0501 76       		.byte	0x76
 1555 0502 00       		.sleb128 0
 1556 0503 00       		.byte	0
 1557 0504 00       		.byte	0
 1558 0505 07       		.uleb128 0x7
 1559 0506 04       		.byte	0x4
 1560 0507 BF010000 		.4byte	0x1bf
 1561 050b 07       		.uleb128 0x7
 1562 050c 04       		.byte	0x4
 1563 050d 11050000 		.4byte	0x511
 1564 0511 0D       		.uleb128 0xd
 1565 0512 00020000 		.4byte	0x200
 1566 0516 28       		.uleb128 0x28
 1567 0517 00020000 		.4byte	0x200
 1568 051b 26050000 		.4byte	0x526
 1569 051f 29       		.uleb128 0x29
 1570 0520 26050000 		.4byte	0x526
 1571 0524 16       		.byte	0x16
 1572 0525 00       		.byte	0
 1573 0526 02       		.uleb128 0x2
 1574 0527 04       		.byte	0x4
 1575 0528 07       		.byte	0x7
 1576 0529 24020000 		.4byte	.LASF34
 1577 052d 00       		.byte	0
 1578              		.section	.debug_abbrev,"",%progbits
 1579              	.Ldebug_abbrev0:
 1580 0000 01       		.uleb128 0x1
 1581 0001 11       		.uleb128 0x11
 1582 0002 01       		.byte	0x1
 1583 0003 25       		.uleb128 0x25
 1584 0004 0E       		.uleb128 0xe
 1585 0005 13       		.uleb128 0x13
 1586 0006 0B       		.uleb128 0xb
 1587 0007 03       		.uleb128 0x3
 1588 0008 0E       		.uleb128 0xe
 1589 0009 1B       		.uleb128 0x1b
 1590 000a 0E       		.uleb128 0xe
 1591 000b 55       		.uleb128 0x55
 1592 000c 17       		.uleb128 0x17
 1593 000d 11       		.uleb128 0x11
 1594 000e 01       		.uleb128 0x1
 1595 000f 10       		.uleb128 0x10
ARM GAS  /tmp/ccyFNOym.s 			page 29


 1596 0010 17       		.uleb128 0x17
 1597 0011 00       		.byte	0
 1598 0012 00       		.byte	0
 1599 0013 02       		.uleb128 0x2
 1600 0014 24       		.uleb128 0x24
 1601 0015 00       		.byte	0
 1602 0016 0B       		.uleb128 0xb
 1603 0017 0B       		.uleb128 0xb
 1604 0018 3E       		.uleb128 0x3e
 1605 0019 0B       		.uleb128 0xb
 1606 001a 03       		.uleb128 0x3
 1607 001b 0E       		.uleb128 0xe
 1608 001c 00       		.byte	0
 1609 001d 00       		.byte	0
 1610 001e 03       		.uleb128 0x3
 1611 001f 24       		.uleb128 0x24
 1612 0020 00       		.byte	0
 1613 0021 0B       		.uleb128 0xb
 1614 0022 0B       		.uleb128 0xb
 1615 0023 3E       		.uleb128 0x3e
 1616 0024 0B       		.uleb128 0xb
 1617 0025 03       		.uleb128 0x3
 1618 0026 08       		.uleb128 0x8
 1619 0027 00       		.byte	0
 1620 0028 00       		.byte	0
 1621 0029 04       		.uleb128 0x4
 1622 002a 16       		.uleb128 0x16
 1623 002b 00       		.byte	0
 1624 002c 03       		.uleb128 0x3
 1625 002d 0E       		.uleb128 0xe
 1626 002e 3A       		.uleb128 0x3a
 1627 002f 0B       		.uleb128 0xb
 1628 0030 3B       		.uleb128 0x3b
 1629 0031 0B       		.uleb128 0xb
 1630 0032 49       		.uleb128 0x49
 1631 0033 13       		.uleb128 0x13
 1632 0034 00       		.byte	0
 1633 0035 00       		.byte	0
 1634 0036 05       		.uleb128 0x5
 1635 0037 0F       		.uleb128 0xf
 1636 0038 00       		.byte	0
 1637 0039 0B       		.uleb128 0xb
 1638 003a 0B       		.uleb128 0xb
 1639 003b 03       		.uleb128 0x3
 1640 003c 0E       		.uleb128 0xe
 1641 003d 00       		.byte	0
 1642 003e 00       		.byte	0
 1643 003f 06       		.uleb128 0x6
 1644 0040 0F       		.uleb128 0xf
 1645 0041 00       		.byte	0
 1646 0042 0B       		.uleb128 0xb
 1647 0043 0B       		.uleb128 0xb
 1648 0044 00       		.byte	0
 1649 0045 00       		.byte	0
 1650 0046 07       		.uleb128 0x7
 1651 0047 0F       		.uleb128 0xf
 1652 0048 00       		.byte	0
ARM GAS  /tmp/ccyFNOym.s 			page 30


 1653 0049 0B       		.uleb128 0xb
 1654 004a 0B       		.uleb128 0xb
 1655 004b 49       		.uleb128 0x49
 1656 004c 13       		.uleb128 0x13
 1657 004d 00       		.byte	0
 1658 004e 00       		.byte	0
 1659 004f 08       		.uleb128 0x8
 1660 0050 15       		.uleb128 0x15
 1661 0051 01       		.byte	0x1
 1662 0052 27       		.uleb128 0x27
 1663 0053 19       		.uleb128 0x19
 1664 0054 49       		.uleb128 0x49
 1665 0055 13       		.uleb128 0x13
 1666 0056 01       		.uleb128 0x1
 1667 0057 13       		.uleb128 0x13
 1668 0058 00       		.byte	0
 1669 0059 00       		.byte	0
 1670 005a 09       		.uleb128 0x9
 1671 005b 05       		.uleb128 0x5
 1672 005c 00       		.byte	0
 1673 005d 49       		.uleb128 0x49
 1674 005e 13       		.uleb128 0x13
 1675 005f 00       		.byte	0
 1676 0060 00       		.byte	0
 1677 0061 0A       		.uleb128 0xa
 1678 0062 13       		.uleb128 0x13
 1679 0063 01       		.byte	0x1
 1680 0064 03       		.uleb128 0x3
 1681 0065 0E       		.uleb128 0xe
 1682 0066 0B       		.uleb128 0xb
 1683 0067 0B       		.uleb128 0xb
 1684 0068 3A       		.uleb128 0x3a
 1685 0069 0B       		.uleb128 0xb
 1686 006a 3B       		.uleb128 0x3b
 1687 006b 0B       		.uleb128 0xb
 1688 006c 01       		.uleb128 0x1
 1689 006d 13       		.uleb128 0x13
 1690 006e 00       		.byte	0
 1691 006f 00       		.byte	0
 1692 0070 0B       		.uleb128 0xb
 1693 0071 0D       		.uleb128 0xd
 1694 0072 00       		.byte	0
 1695 0073 03       		.uleb128 0x3
 1696 0074 0E       		.uleb128 0xe
 1697 0075 3A       		.uleb128 0x3a
 1698 0076 0B       		.uleb128 0xb
 1699 0077 3B       		.uleb128 0x3b
 1700 0078 0B       		.uleb128 0xb
 1701 0079 49       		.uleb128 0x49
 1702 007a 13       		.uleb128 0x13
 1703 007b 38       		.uleb128 0x38
 1704 007c 0B       		.uleb128 0xb
 1705 007d 00       		.byte	0
 1706 007e 00       		.byte	0
 1707 007f 0C       		.uleb128 0xc
 1708 0080 0D       		.uleb128 0xd
 1709 0081 00       		.byte	0
ARM GAS  /tmp/ccyFNOym.s 			page 31


 1710 0082 03       		.uleb128 0x3
 1711 0083 08       		.uleb128 0x8
 1712 0084 3A       		.uleb128 0x3a
 1713 0085 0B       		.uleb128 0xb
 1714 0086 3B       		.uleb128 0x3b
 1715 0087 0B       		.uleb128 0xb
 1716 0088 49       		.uleb128 0x49
 1717 0089 13       		.uleb128 0x13
 1718 008a 38       		.uleb128 0x38
 1719 008b 0B       		.uleb128 0xb
 1720 008c 00       		.byte	0
 1721 008d 00       		.byte	0
 1722 008e 0D       		.uleb128 0xd
 1723 008f 26       		.uleb128 0x26
 1724 0090 00       		.byte	0
 1725 0091 49       		.uleb128 0x49
 1726 0092 13       		.uleb128 0x13
 1727 0093 00       		.byte	0
 1728 0094 00       		.byte	0
 1729 0095 0E       		.uleb128 0xe
 1730 0096 13       		.uleb128 0x13
 1731 0097 01       		.byte	0x1
 1732 0098 0B       		.uleb128 0xb
 1733 0099 0B       		.uleb128 0xb
 1734 009a 3A       		.uleb128 0x3a
 1735 009b 0B       		.uleb128 0xb
 1736 009c 3B       		.uleb128 0x3b
 1737 009d 0B       		.uleb128 0xb
 1738 009e 01       		.uleb128 0x1
 1739 009f 13       		.uleb128 0x13
 1740 00a0 00       		.byte	0
 1741 00a1 00       		.byte	0
 1742 00a2 0F       		.uleb128 0xf
 1743 00a3 2E       		.uleb128 0x2e
 1744 00a4 01       		.byte	0x1
 1745 00a5 03       		.uleb128 0x3
 1746 00a6 0E       		.uleb128 0xe
 1747 00a7 3A       		.uleb128 0x3a
 1748 00a8 0B       		.uleb128 0xb
 1749 00a9 3B       		.uleb128 0x3b
 1750 00aa 0B       		.uleb128 0xb
 1751 00ab 27       		.uleb128 0x27
 1752 00ac 19       		.uleb128 0x19
 1753 00ad 49       		.uleb128 0x49
 1754 00ae 13       		.uleb128 0x13
 1755 00af 20       		.uleb128 0x20
 1756 00b0 0B       		.uleb128 0xb
 1757 00b1 01       		.uleb128 0x1
 1758 00b2 13       		.uleb128 0x13
 1759 00b3 00       		.byte	0
 1760 00b4 00       		.byte	0
 1761 00b5 10       		.uleb128 0x10
 1762 00b6 05       		.uleb128 0x5
 1763 00b7 00       		.byte	0
 1764 00b8 03       		.uleb128 0x3
 1765 00b9 08       		.uleb128 0x8
 1766 00ba 3A       		.uleb128 0x3a
ARM GAS  /tmp/ccyFNOym.s 			page 32


 1767 00bb 0B       		.uleb128 0xb
 1768 00bc 3B       		.uleb128 0x3b
 1769 00bd 0B       		.uleb128 0xb
 1770 00be 49       		.uleb128 0x49
 1771 00bf 13       		.uleb128 0x13
 1772 00c0 00       		.byte	0
 1773 00c1 00       		.byte	0
 1774 00c2 11       		.uleb128 0x11
 1775 00c3 05       		.uleb128 0x5
 1776 00c4 00       		.byte	0
 1777 00c5 03       		.uleb128 0x3
 1778 00c6 0E       		.uleb128 0xe
 1779 00c7 3A       		.uleb128 0x3a
 1780 00c8 0B       		.uleb128 0xb
 1781 00c9 3B       		.uleb128 0x3b
 1782 00ca 0B       		.uleb128 0xb
 1783 00cb 49       		.uleb128 0x49
 1784 00cc 13       		.uleb128 0x13
 1785 00cd 00       		.byte	0
 1786 00ce 00       		.byte	0
 1787 00cf 12       		.uleb128 0x12
 1788 00d0 2E       		.uleb128 0x2e
 1789 00d1 01       		.byte	0x1
 1790 00d2 03       		.uleb128 0x3
 1791 00d3 0E       		.uleb128 0xe
 1792 00d4 3A       		.uleb128 0x3a
 1793 00d5 0B       		.uleb128 0xb
 1794 00d6 3B       		.uleb128 0x3b
 1795 00d7 0B       		.uleb128 0xb
 1796 00d8 27       		.uleb128 0x27
 1797 00d9 19       		.uleb128 0x19
 1798 00da 49       		.uleb128 0x49
 1799 00db 13       		.uleb128 0x13
 1800 00dc 11       		.uleb128 0x11
 1801 00dd 01       		.uleb128 0x1
 1802 00de 12       		.uleb128 0x12
 1803 00df 06       		.uleb128 0x6
 1804 00e0 40       		.uleb128 0x40
 1805 00e1 18       		.uleb128 0x18
 1806 00e2 9642     		.uleb128 0x2116
 1807 00e4 19       		.uleb128 0x19
 1808 00e5 01       		.uleb128 0x1
 1809 00e6 13       		.uleb128 0x13
 1810 00e7 00       		.byte	0
 1811 00e8 00       		.byte	0
 1812 00e9 13       		.uleb128 0x13
 1813 00ea 05       		.uleb128 0x5
 1814 00eb 00       		.byte	0
 1815 00ec 03       		.uleb128 0x3
 1816 00ed 08       		.uleb128 0x8
 1817 00ee 3A       		.uleb128 0x3a
 1818 00ef 0B       		.uleb128 0xb
 1819 00f0 3B       		.uleb128 0x3b
 1820 00f1 0B       		.uleb128 0xb
 1821 00f2 49       		.uleb128 0x49
 1822 00f3 13       		.uleb128 0x13
 1823 00f4 02       		.uleb128 0x2
ARM GAS  /tmp/ccyFNOym.s 			page 33


 1824 00f5 17       		.uleb128 0x17
 1825 00f6 00       		.byte	0
 1826 00f7 00       		.byte	0
 1827 00f8 14       		.uleb128 0x14
 1828 00f9 05       		.uleb128 0x5
 1829 00fa 00       		.byte	0
 1830 00fb 03       		.uleb128 0x3
 1831 00fc 0E       		.uleb128 0xe
 1832 00fd 3A       		.uleb128 0x3a
 1833 00fe 0B       		.uleb128 0xb
 1834 00ff 3B       		.uleb128 0x3b
 1835 0100 0B       		.uleb128 0xb
 1836 0101 49       		.uleb128 0x49
 1837 0102 13       		.uleb128 0x13
 1838 0103 02       		.uleb128 0x2
 1839 0104 17       		.uleb128 0x17
 1840 0105 00       		.byte	0
 1841 0106 00       		.byte	0
 1842 0107 15       		.uleb128 0x15
 1843 0108 34       		.uleb128 0x34
 1844 0109 00       		.byte	0
 1845 010a 03       		.uleb128 0x3
 1846 010b 08       		.uleb128 0x8
 1847 010c 3A       		.uleb128 0x3a
 1848 010d 0B       		.uleb128 0xb
 1849 010e 3B       		.uleb128 0x3b
 1850 010f 0B       		.uleb128 0xb
 1851 0110 49       		.uleb128 0x49
 1852 0111 13       		.uleb128 0x13
 1853 0112 02       		.uleb128 0x2
 1854 0113 17       		.uleb128 0x17
 1855 0114 00       		.byte	0
 1856 0115 00       		.byte	0
 1857 0116 16       		.uleb128 0x16
 1858 0117 34       		.uleb128 0x34
 1859 0118 00       		.byte	0
 1860 0119 03       		.uleb128 0x3
 1861 011a 08       		.uleb128 0x8
 1862 011b 3A       		.uleb128 0x3a
 1863 011c 0B       		.uleb128 0xb
 1864 011d 3B       		.uleb128 0x3b
 1865 011e 0B       		.uleb128 0xb
 1866 011f 49       		.uleb128 0x49
 1867 0120 13       		.uleb128 0x13
 1868 0121 00       		.byte	0
 1869 0122 00       		.byte	0
 1870 0123 17       		.uleb128 0x17
 1871 0124 34       		.uleb128 0x34
 1872 0125 00       		.byte	0
 1873 0126 03       		.uleb128 0x3
 1874 0127 0E       		.uleb128 0xe
 1875 0128 3A       		.uleb128 0x3a
 1876 0129 0B       		.uleb128 0xb
 1877 012a 3B       		.uleb128 0x3b
 1878 012b 0B       		.uleb128 0xb
 1879 012c 49       		.uleb128 0x49
 1880 012d 13       		.uleb128 0x13
ARM GAS  /tmp/ccyFNOym.s 			page 34


 1881 012e 00       		.byte	0
 1882 012f 00       		.byte	0
 1883 0130 18       		.uleb128 0x18
 1884 0131 2E       		.uleb128 0x2e
 1885 0132 01       		.byte	0x1
 1886 0133 3F       		.uleb128 0x3f
 1887 0134 19       		.uleb128 0x19
 1888 0135 03       		.uleb128 0x3
 1889 0136 0E       		.uleb128 0xe
 1890 0137 3A       		.uleb128 0x3a
 1891 0138 0B       		.uleb128 0xb
 1892 0139 3B       		.uleb128 0x3b
 1893 013a 0B       		.uleb128 0xb
 1894 013b 27       		.uleb128 0x27
 1895 013c 19       		.uleb128 0x19
 1896 013d 11       		.uleb128 0x11
 1897 013e 01       		.uleb128 0x1
 1898 013f 12       		.uleb128 0x12
 1899 0140 06       		.uleb128 0x6
 1900 0141 40       		.uleb128 0x40
 1901 0142 18       		.uleb128 0x18
 1902 0143 9642     		.uleb128 0x2116
 1903 0145 19       		.uleb128 0x19
 1904 0146 01       		.uleb128 0x1
 1905 0147 13       		.uleb128 0x13
 1906 0148 00       		.byte	0
 1907 0149 00       		.byte	0
 1908 014a 19       		.uleb128 0x19
 1909 014b 18       		.uleb128 0x18
 1910 014c 00       		.byte	0
 1911 014d 00       		.byte	0
 1912 014e 00       		.byte	0
 1913 014f 1A       		.uleb128 0x1a
 1914 0150 34       		.uleb128 0x34
 1915 0151 00       		.byte	0
 1916 0152 03       		.uleb128 0x3
 1917 0153 08       		.uleb128 0x8
 1918 0154 3A       		.uleb128 0x3a
 1919 0155 0B       		.uleb128 0xb
 1920 0156 3B       		.uleb128 0x3b
 1921 0157 0B       		.uleb128 0xb
 1922 0158 49       		.uleb128 0x49
 1923 0159 13       		.uleb128 0x13
 1924 015a 02       		.uleb128 0x2
 1925 015b 18       		.uleb128 0x18
 1926 015c 00       		.byte	0
 1927 015d 00       		.byte	0
 1928 015e 1B       		.uleb128 0x1b
 1929 015f 34       		.uleb128 0x34
 1930 0160 00       		.byte	0
 1931 0161 03       		.uleb128 0x3
 1932 0162 0E       		.uleb128 0xe
 1933 0163 3A       		.uleb128 0x3a
 1934 0164 0B       		.uleb128 0xb
 1935 0165 3B       		.uleb128 0x3b
 1936 0166 0B       		.uleb128 0xb
 1937 0167 49       		.uleb128 0x49
ARM GAS  /tmp/ccyFNOym.s 			page 35


 1938 0168 13       		.uleb128 0x13
 1939 0169 02       		.uleb128 0x2
 1940 016a 17       		.uleb128 0x17
 1941 016b 00       		.byte	0
 1942 016c 00       		.byte	0
 1943 016d 1C       		.uleb128 0x1c
 1944 016e 34       		.uleb128 0x34
 1945 016f 00       		.byte	0
 1946 0170 03       		.uleb128 0x3
 1947 0171 0E       		.uleb128 0xe
 1948 0172 3A       		.uleb128 0x3a
 1949 0173 0B       		.uleb128 0xb
 1950 0174 3B       		.uleb128 0x3b
 1951 0175 0B       		.uleb128 0xb
 1952 0176 49       		.uleb128 0x49
 1953 0177 13       		.uleb128 0x13
 1954 0178 02       		.uleb128 0x2
 1955 0179 18       		.uleb128 0x18
 1956 017a 00       		.byte	0
 1957 017b 00       		.byte	0
 1958 017c 1D       		.uleb128 0x1d
 1959 017d 0A       		.uleb128 0xa
 1960 017e 00       		.byte	0
 1961 017f 03       		.uleb128 0x3
 1962 0180 0E       		.uleb128 0xe
 1963 0181 3A       		.uleb128 0x3a
 1964 0182 0B       		.uleb128 0xb
 1965 0183 3B       		.uleb128 0x3b
 1966 0184 0B       		.uleb128 0xb
 1967 0185 11       		.uleb128 0x11
 1968 0186 01       		.uleb128 0x1
 1969 0187 00       		.byte	0
 1970 0188 00       		.byte	0
 1971 0189 1E       		.uleb128 0x1e
 1972 018a 1D       		.uleb128 0x1d
 1973 018b 01       		.byte	0x1
 1974 018c 31       		.uleb128 0x31
 1975 018d 13       		.uleb128 0x13
 1976 018e 52       		.uleb128 0x52
 1977 018f 01       		.uleb128 0x1
 1978 0190 55       		.uleb128 0x55
 1979 0191 17       		.uleb128 0x17
 1980 0192 58       		.uleb128 0x58
 1981 0193 0B       		.uleb128 0xb
 1982 0194 59       		.uleb128 0x59
 1983 0195 0B       		.uleb128 0xb
 1984 0196 01       		.uleb128 0x1
 1985 0197 13       		.uleb128 0x13
 1986 0198 00       		.byte	0
 1987 0199 00       		.byte	0
 1988 019a 1F       		.uleb128 0x1f
 1989 019b 05       		.uleb128 0x5
 1990 019c 00       		.byte	0
 1991 019d 31       		.uleb128 0x31
 1992 019e 13       		.uleb128 0x13
 1993 019f 02       		.uleb128 0x2
 1994 01a0 17       		.uleb128 0x17
ARM GAS  /tmp/ccyFNOym.s 			page 36


 1995 01a1 00       		.byte	0
 1996 01a2 00       		.byte	0
 1997 01a3 20       		.uleb128 0x20
 1998 01a4 0B       		.uleb128 0xb
 1999 01a5 01       		.byte	0x1
 2000 01a6 55       		.uleb128 0x55
 2001 01a7 17       		.uleb128 0x17
 2002 01a8 00       		.byte	0
 2003 01a9 00       		.byte	0
 2004 01aa 21       		.uleb128 0x21
 2005 01ab 34       		.uleb128 0x34
 2006 01ac 00       		.byte	0
 2007 01ad 31       		.uleb128 0x31
 2008 01ae 13       		.uleb128 0x13
 2009 01af 02       		.uleb128 0x2
 2010 01b0 17       		.uleb128 0x17
 2011 01b1 00       		.byte	0
 2012 01b2 00       		.byte	0
 2013 01b3 22       		.uleb128 0x22
 2014 01b4 898201   		.uleb128 0x4109
 2015 01b7 01       		.byte	0x1
 2016 01b8 11       		.uleb128 0x11
 2017 01b9 01       		.uleb128 0x1
 2018 01ba 31       		.uleb128 0x31
 2019 01bb 13       		.uleb128 0x13
 2020 01bc 01       		.uleb128 0x1
 2021 01bd 13       		.uleb128 0x13
 2022 01be 00       		.byte	0
 2023 01bf 00       		.byte	0
 2024 01c0 23       		.uleb128 0x23
 2025 01c1 8A8201   		.uleb128 0x410a
 2026 01c4 00       		.byte	0
 2027 01c5 02       		.uleb128 0x2
 2028 01c6 18       		.uleb128 0x18
 2029 01c7 9142     		.uleb128 0x2111
 2030 01c9 18       		.uleb128 0x18
 2031 01ca 00       		.byte	0
 2032 01cb 00       		.byte	0
 2033 01cc 24       		.uleb128 0x24
 2034 01cd 898201   		.uleb128 0x4109
 2035 01d0 01       		.byte	0x1
 2036 01d1 11       		.uleb128 0x11
 2037 01d2 01       		.uleb128 0x1
 2038 01d3 31       		.uleb128 0x31
 2039 01d4 13       		.uleb128 0x13
 2040 01d5 00       		.byte	0
 2041 01d6 00       		.byte	0
 2042 01d7 25       		.uleb128 0x25
 2043 01d8 1D       		.uleb128 0x1d
 2044 01d9 01       		.byte	0x1
 2045 01da 31       		.uleb128 0x31
 2046 01db 13       		.uleb128 0x13
 2047 01dc 11       		.uleb128 0x11
 2048 01dd 01       		.uleb128 0x1
 2049 01de 12       		.uleb128 0x12
 2050 01df 06       		.uleb128 0x6
 2051 01e0 58       		.uleb128 0x58
ARM GAS  /tmp/ccyFNOym.s 			page 37


 2052 01e1 0B       		.uleb128 0xb
 2053 01e2 59       		.uleb128 0x59
 2054 01e3 0B       		.uleb128 0xb
 2055 01e4 01       		.uleb128 0x1
 2056 01e5 13       		.uleb128 0x13
 2057 01e6 00       		.byte	0
 2058 01e7 00       		.byte	0
 2059 01e8 26       		.uleb128 0x26
 2060 01e9 898201   		.uleb128 0x4109
 2061 01ec 01       		.byte	0x1
 2062 01ed 11       		.uleb128 0x11
 2063 01ee 01       		.uleb128 0x1
 2064 01ef 01       		.uleb128 0x1
 2065 01f0 13       		.uleb128 0x13
 2066 01f1 00       		.byte	0
 2067 01f2 00       		.byte	0
 2068 01f3 27       		.uleb128 0x27
 2069 01f4 898201   		.uleb128 0x4109
 2070 01f7 01       		.byte	0x1
 2071 01f8 11       		.uleb128 0x11
 2072 01f9 01       		.uleb128 0x1
 2073 01fa 00       		.byte	0
 2074 01fb 00       		.byte	0
 2075 01fc 28       		.uleb128 0x28
 2076 01fd 01       		.uleb128 0x1
 2077 01fe 01       		.byte	0x1
 2078 01ff 49       		.uleb128 0x49
 2079 0200 13       		.uleb128 0x13
 2080 0201 01       		.uleb128 0x1
 2081 0202 13       		.uleb128 0x13
 2082 0203 00       		.byte	0
 2083 0204 00       		.byte	0
 2084 0205 29       		.uleb128 0x29
 2085 0206 21       		.uleb128 0x21
 2086 0207 00       		.byte	0
 2087 0208 49       		.uleb128 0x49
 2088 0209 13       		.uleb128 0x13
 2089 020a 2F       		.uleb128 0x2f
 2090 020b 0B       		.uleb128 0xb
 2091 020c 00       		.byte	0
 2092 020d 00       		.byte	0
 2093 020e 00       		.byte	0
 2094              		.section	.debug_loc,"",%progbits
 2095              	.Ldebug_loc0:
 2096              	.LLST0:
 2097 0000 00000000 		.4byte	.LVL0
 2098 0004 24000000 		.4byte	.LVL3
 2099 0008 0100     		.2byte	0x1
 2100 000a 50       		.byte	0x50
 2101 000b 24000000 		.4byte	.LVL3
 2102 000f 78000000 		.4byte	.LVL17
 2103 0013 0100     		.2byte	0x1
 2104 0015 56       		.byte	0x56
 2105 0016 78000000 		.4byte	.LVL17
 2106 001a 7C000000 		.4byte	.LVL18
 2107 001e 0300     		.2byte	0x3
 2108 0020 76       		.byte	0x76
ARM GAS  /tmp/ccyFNOym.s 			page 38


 2109 0021 7F       		.sleb128 -1
 2110 0022 9F       		.byte	0x9f
 2111 0023 7C000000 		.4byte	.LVL18
 2112 0027 80000000 		.4byte	.LVL19
 2113 002b 0100     		.2byte	0x1
 2114 002d 56       		.byte	0x56
 2115 002e 80000000 		.4byte	.LVL19
 2116 0032 90000000 		.4byte	.LFE7
 2117 0036 0300     		.2byte	0x3
 2118 0038 76       		.byte	0x76
 2119 0039 7F       		.sleb128 -1
 2120 003a 9F       		.byte	0x9f
 2121 003b 00000000 		.4byte	0
 2122 003f 00000000 		.4byte	0
 2123              	.LLST1:
 2124 0043 00000000 		.4byte	.LVL0
 2125 0047 24000000 		.4byte	.LVL3
 2126 004b 0100     		.2byte	0x1
 2127 004d 51       		.byte	0x51
 2128 004e 24000000 		.4byte	.LVL3
 2129 0052 90000000 		.4byte	.LFE7
 2130 0056 0400     		.2byte	0x4
 2131 0058 F3       		.byte	0xf3
 2132 0059 01       		.uleb128 0x1
 2133 005a 51       		.byte	0x51
 2134 005b 9F       		.byte	0x9f
 2135 005c 00000000 		.4byte	0
 2136 0060 00000000 		.4byte	0
 2137              	.LLST2:
 2138 0064 00000000 		.4byte	.LVL0
 2139 0068 24000000 		.4byte	.LVL3
 2140 006c 0100     		.2byte	0x1
 2141 006e 52       		.byte	0x52
 2142 006f 24000000 		.4byte	.LVL3
 2143 0073 90000000 		.4byte	.LFE7
 2144 0077 0100     		.2byte	0x1
 2145 0079 58       		.byte	0x58
 2146 007a 00000000 		.4byte	0
 2147 007e 00000000 		.4byte	0
 2148              	.LLST3:
 2149 0082 00000000 		.4byte	.LVL0
 2150 0086 24000000 		.4byte	.LVL3
 2151 008a 0100     		.2byte	0x1
 2152 008c 53       		.byte	0x53
 2153 008d 24000000 		.4byte	.LVL3
 2154 0091 90000000 		.4byte	.LFE7
 2155 0095 0400     		.2byte	0x4
 2156 0097 F3       		.byte	0xf3
 2157 0098 01       		.uleb128 0x1
 2158 0099 53       		.byte	0x53
 2159 009a 9F       		.byte	0x9f
 2160 009b 00000000 		.4byte	0
 2161 009f 00000000 		.4byte	0
 2162              	.LLST4:
 2163 00a3 34000000 		.4byte	.LVL5
 2164 00a7 38000000 		.4byte	.LVL6
 2165 00ab 0100     		.2byte	0x1
ARM GAS  /tmp/ccyFNOym.s 			page 39


 2166 00ad 50       		.byte	0x50
 2167 00ae 38000000 		.4byte	.LVL6
 2168 00b2 44000000 		.4byte	.LVL8
 2169 00b6 0100     		.2byte	0x1
 2170 00b8 54       		.byte	0x54
 2171 00b9 6C000000 		.4byte	.LVL15
 2172 00bd 70000000 		.4byte	.LVL16
 2173 00c1 0600     		.2byte	0x6
 2174 00c3 79       		.byte	0x79
 2175 00c4 00       		.sleb128 0
 2176 00c5 75       		.byte	0x75
 2177 00c6 00       		.sleb128 0
 2178 00c7 1C       		.byte	0x1c
 2179 00c8 9F       		.byte	0x9f
 2180 00c9 70000000 		.4byte	.LVL16
 2181 00cd 78000000 		.4byte	.LVL17
 2182 00d1 0800     		.2byte	0x8
 2183 00d3 76       		.byte	0x76
 2184 00d4 00       		.sleb128 0
 2185 00d5 75       		.byte	0x75
 2186 00d6 00       		.sleb128 0
 2187 00d7 1C       		.byte	0x1c
 2188 00d8 23       		.byte	0x23
 2189 00d9 0B       		.uleb128 0xb
 2190 00da 9F       		.byte	0x9f
 2191 00db 00000000 		.4byte	0
 2192 00df 00000000 		.4byte	0
 2193              	.LLST5:
 2194 00e3 1C000000 		.4byte	.LVL2
 2195 00e7 24000000 		.4byte	.LVL3
 2196 00eb 0100     		.2byte	0x1
 2197 00ed 59       		.byte	0x59
 2198 00ee 24000000 		.4byte	.LVL3
 2199 00f2 40000000 		.4byte	.LVL7
 2200 00f6 0100     		.2byte	0x1
 2201 00f8 55       		.byte	0x55
 2202 00f9 40000000 		.4byte	.LVL7
 2203 00fd 50000000 		.4byte	.LVL10
 2204 0101 0300     		.2byte	0x3
 2205 0103 75       		.byte	0x75
 2206 0104 7F       		.sleb128 -1
 2207 0105 9F       		.byte	0x9f
 2208 0106 50000000 		.4byte	.LVL10
 2209 010a 78000000 		.4byte	.LVL17
 2210 010e 0100     		.2byte	0x1
 2211 0110 55       		.byte	0x55
 2212 0111 00000000 		.4byte	0
 2213 0115 00000000 		.4byte	0
 2214              	.LLST6:
 2215 0119 14000000 		.4byte	.LVL1
 2216 011d 24000000 		.4byte	.LVL3
 2217 0121 0100     		.2byte	0x1
 2218 0123 51       		.byte	0x51
 2219 0124 24000000 		.4byte	.LVL3
 2220 0128 5C000000 		.4byte	.LVL12
 2221 012c 0100     		.2byte	0x1
 2222 012e 57       		.byte	0x57
ARM GAS  /tmp/ccyFNOym.s 			page 40


 2223 012f 5C000000 		.4byte	.LVL12
 2224 0133 60000000 		.4byte	.LVL13
 2225 0137 0100     		.2byte	0x1
 2226 0139 50       		.byte	0x50
 2227 013a 60000000 		.4byte	.LVL13
 2228 013e 90000000 		.4byte	.LFE7
 2229 0142 0100     		.2byte	0x1
 2230 0144 57       		.byte	0x57
 2231 0145 00000000 		.4byte	0
 2232 0149 00000000 		.4byte	0
 2233              	.LLST7:
 2234 014d 1C000000 		.4byte	.LVL2
 2235 0151 64000000 		.4byte	.LVL14
 2236 0155 0100     		.2byte	0x1
 2237 0157 5A       		.byte	0x5a
 2238 0158 64000000 		.4byte	.LVL14
 2239 015c 8C000000 		.4byte	.LVL20
 2240 0160 0100     		.2byte	0x1
 2241 0162 50       		.byte	0x50
 2242 0163 8C000000 		.4byte	.LVL20
 2243 0167 90000000 		.4byte	.LFE7
 2244 016b 0100     		.2byte	0x1
 2245 016d 5A       		.byte	0x5a
 2246 016e 00000000 		.4byte	0
 2247 0172 00000000 		.4byte	0
 2248              	.LLST8:
 2249 0176 00000000 		.4byte	.LVL21
 2250 017a 28000000 		.4byte	.LVL22
 2251 017e 0100     		.2byte	0x1
 2252 0180 50       		.byte	0x50
 2253 0181 28000000 		.4byte	.LVL22
 2254 0185 6C000000 		.4byte	.LVL26
 2255 0189 0100     		.2byte	0x1
 2256 018b 56       		.byte	0x56
 2257 018c 6C000000 		.4byte	.LVL26
 2258 0190 74000000 		.4byte	.LVL27
 2259 0194 0400     		.2byte	0x4
 2260 0196 F3       		.byte	0xf3
 2261 0197 01       		.uleb128 0x1
 2262 0198 50       		.byte	0x50
 2263 0199 9F       		.byte	0x9f
 2264 019a 74000000 		.4byte	.LVL27
 2265 019e 8C060000 		.4byte	.LFE10
 2266 01a2 0100     		.2byte	0x1
 2267 01a4 56       		.byte	0x56
 2268 01a5 00000000 		.4byte	0
 2269 01a9 00000000 		.4byte	0
 2270              	.LLST9:
 2271 01ad 00000000 		.4byte	.LVL21
 2272 01b1 28000000 		.4byte	.LVL22
 2273 01b5 0200     		.2byte	0x2
 2274 01b7 91       		.byte	0x91
 2275 01b8 74       		.sleb128 -12
 2276 01b9 28000000 		.4byte	.LVL22
 2277 01bd 30000000 		.4byte	.LVL23
 2278 01c1 0100     		.2byte	0x1
 2279 01c3 55       		.byte	0x55
ARM GAS  /tmp/ccyFNOym.s 			page 41


 2280 01c4 30000000 		.4byte	.LVL23
 2281 01c8 53000000 		.4byte	.LVL24-1
 2282 01cc 0100     		.2byte	0x1
 2283 01ce 53       		.byte	0x53
 2284 01cf 53000000 		.4byte	.LVL24-1
 2285 01d3 5C000000 		.4byte	.LVL25
 2286 01d7 0100     		.2byte	0x1
 2287 01d9 55       		.byte	0x55
 2288 01da 5C000000 		.4byte	.LVL25
 2289 01de 90000000 		.4byte	.LVL29
 2290 01e2 0100     		.2byte	0x1
 2291 01e4 53       		.byte	0x53
 2292 01e5 90000000 		.4byte	.LVL29
 2293 01e9 9C000000 		.4byte	.LVL30
 2294 01ed 0300     		.2byte	0x3
 2295 01ef 73       		.byte	0x73
 2296 01f0 01       		.sleb128 1
 2297 01f1 9F       		.byte	0x9f
 2298 01f2 A4000000 		.4byte	.LVL31
 2299 01f6 B0000000 		.4byte	.LVL33
 2300 01fa 0100     		.2byte	0x1
 2301 01fc 53       		.byte	0x53
 2302 01fd B0000000 		.4byte	.LVL33
 2303 0201 C4000000 		.4byte	.LVL37
 2304 0205 0100     		.2byte	0x1
 2305 0207 51       		.byte	0x51
 2306 0208 C4000000 		.4byte	.LVL37
 2307 020c D8000000 		.4byte	.LVL38
 2308 0210 0300     		.2byte	0x3
 2309 0212 71       		.byte	0x71
 2310 0213 7F       		.sleb128 -1
 2311 0214 9F       		.byte	0x9f
 2312 0215 D8000000 		.4byte	.LVL38
 2313 0219 EC000000 		.4byte	.LVL39
 2314 021d 0100     		.2byte	0x1
 2315 021f 51       		.byte	0x51
 2316 0220 EC000000 		.4byte	.LVL39
 2317 0224 F4010000 		.4byte	.LVL45
 2318 0228 0100     		.2byte	0x1
 2319 022a 55       		.byte	0x55
 2320 022b F4010000 		.4byte	.LVL45
 2321 022f 00020000 		.4byte	.LVL48
 2322 0233 0300     		.2byte	0x3
 2323 0235 75       		.byte	0x75
 2324 0236 7F       		.sleb128 -1
 2325 0237 9F       		.byte	0x9f
 2326 0238 00020000 		.4byte	.LVL48
 2327 023c 04020000 		.4byte	.LVL49
 2328 0240 0100     		.2byte	0x1
 2329 0242 55       		.byte	0x55
 2330 0243 04020000 		.4byte	.LVL49
 2331 0247 2C020000 		.4byte	.LVL50
 2332 024b 0300     		.2byte	0x3
 2333 024d 75       		.byte	0x75
 2334 024e 7F       		.sleb128 -1
 2335 024f 9F       		.byte	0x9f
 2336 0250 2C020000 		.4byte	.LVL50
ARM GAS  /tmp/ccyFNOym.s 			page 42


 2337 0254 8C060000 		.4byte	.LFE10
 2338 0258 0100     		.2byte	0x1
 2339 025a 55       		.byte	0x55
 2340 025b 00000000 		.4byte	0
 2341 025f 00000000 		.4byte	0
 2342              	.LLST10:
 2343 0263 74000000 		.4byte	.LVL27
 2344 0267 54030000 		.4byte	.LVL56
 2345 026b 0100     		.2byte	0x1
 2346 026d 58       		.byte	0x58
 2347 026e 54030000 		.4byte	.LVL56
 2348 0272 68030000 		.4byte	.LVL58
 2349 0276 0100     		.2byte	0x1
 2350 0278 5A       		.byte	0x5a
 2351 0279 68030000 		.4byte	.LVL58
 2352 027d 70030000 		.4byte	.LVL59
 2353 0281 0300     		.2byte	0x3
 2354 0283 70       		.byte	0x70
 2355 0284 7F       		.sleb128 -1
 2356 0285 9F       		.byte	0x9f
 2357 0286 70030000 		.4byte	.LVL59
 2358 028a 74030000 		.4byte	.LVL60
 2359 028e 0100     		.2byte	0x1
 2360 0290 50       		.byte	0x50
 2361 0291 74030000 		.4byte	.LVL60
 2362 0295 84030000 		.4byte	.LVL62
 2363 0299 0300     		.2byte	0x3
 2364 029b 70       		.byte	0x70
 2365 029c 7F       		.sleb128 -1
 2366 029d 9F       		.byte	0x9f
 2367 029e CC030000 		.4byte	.LVL71
 2368 02a2 F0030000 		.4byte	.LVL76
 2369 02a6 0100     		.2byte	0x1
 2370 02a8 58       		.byte	0x58
 2371 02a9 F0030000 		.4byte	.LVL76
 2372 02ad FC030000 		.4byte	.LVL77
 2373 02b1 0400     		.2byte	0x4
 2374 02b3 91       		.byte	0x91
 2375 02b4 997F     		.sleb128 -103
 2376 02b6 9F       		.byte	0x9f
 2377 02b7 FC030000 		.4byte	.LVL77
 2378 02bb 0C040000 		.4byte	.LVL78
 2379 02bf 0200     		.2byte	0x2
 2380 02c1 7D       		.byte	0x7d
 2381 02c2 00       		.sleb128 0
 2382 02c3 14050000 		.4byte	.LVL106
 2383 02c7 50050000 		.4byte	.LVL109
 2384 02cb 0400     		.2byte	0x4
 2385 02cd 91       		.byte	0x91
 2386 02ce 997F     		.sleb128 -103
 2387 02d0 9F       		.byte	0x9f
 2388 02d1 50050000 		.4byte	.LVL109
 2389 02d5 74050000 		.4byte	.LVL114
 2390 02d9 0100     		.2byte	0x1
 2391 02db 58       		.byte	0x58
 2392 02dc 74050000 		.4byte	.LVL114
 2393 02e0 7B050000 		.4byte	.LVL115-1
ARM GAS  /tmp/ccyFNOym.s 			page 43


 2394 02e4 0100     		.2byte	0x1
 2395 02e6 50       		.byte	0x50
 2396 02e7 8C050000 		.4byte	.LVL116
 2397 02eb CC050000 		.4byte	.LVL125
 2398 02ef 0100     		.2byte	0x1
 2399 02f1 58       		.byte	0x58
 2400 02f2 CC050000 		.4byte	.LVL125
 2401 02f6 E0050000 		.4byte	.LVL127
 2402 02fa 0400     		.2byte	0x4
 2403 02fc 91       		.byte	0x91
 2404 02fd 997F     		.sleb128 -103
 2405 02ff 9F       		.byte	0x9f
 2406 0300 E0050000 		.4byte	.LVL127
 2407 0304 E8050000 		.4byte	.LVL128
 2408 0308 0100     		.2byte	0x1
 2409 030a 50       		.byte	0x50
 2410 030b F4050000 		.4byte	.LVL130
 2411 030f 28060000 		.4byte	.LVL140
 2412 0313 0100     		.2byte	0x1
 2413 0315 58       		.byte	0x58
 2414 0316 28060000 		.4byte	.LVL140
 2415 031a 34060000 		.4byte	.LVL141
 2416 031e 0100     		.2byte	0x1
 2417 0320 5A       		.byte	0x5a
 2418 0321 00000000 		.4byte	0
 2419 0325 00000000 		.4byte	0
 2420              	.LLST11:
 2421 0329 74000000 		.4byte	.LVL27
 2422 032d 38030000 		.4byte	.LVL54
 2423 0331 0100     		.2byte	0x1
 2424 0333 58       		.byte	0x58
 2425 0334 38030000 		.4byte	.LVL54
 2426 0338 CC030000 		.4byte	.LVL71
 2427 033c 0100     		.2byte	0x1
 2428 033e 5A       		.byte	0x5a
 2429 033f CC030000 		.4byte	.LVL71
 2430 0343 AC040000 		.4byte	.LVL95
 2431 0347 0100     		.2byte	0x1
 2432 0349 58       		.byte	0x58
 2433 034a AC040000 		.4byte	.LVL95
 2434 034e CC040000 		.4byte	.LVL98
 2435 0352 0100     		.2byte	0x1
 2436 0354 5A       		.byte	0x5a
 2437 0355 E8040000 		.4byte	.LVL101
 2438 0359 04050000 		.4byte	.LVL104
 2439 035d 0100     		.2byte	0x1
 2440 035f 5A       		.byte	0x5a
 2441 0360 04050000 		.4byte	.LVL104
 2442 0364 08050000 		.4byte	.LVL105
 2443 0368 0300     		.2byte	0x3
 2444 036a 7A       		.byte	0x7a
 2445 036b 7F       		.sleb128 -1
 2446 036c 9F       		.byte	0x9f
 2447 036d 08050000 		.4byte	.LVL105
 2448 0371 14050000 		.4byte	.LVL106
 2449 0375 0100     		.2byte	0x1
 2450 0377 5A       		.byte	0x5a
ARM GAS  /tmp/ccyFNOym.s 			page 44


 2451 0378 14050000 		.4byte	.LVL106
 2452 037c E8050000 		.4byte	.LVL128
 2453 0380 0100     		.2byte	0x1
 2454 0382 58       		.byte	0x58
 2455 0383 E8050000 		.4byte	.LVL128
 2456 0387 F4050000 		.4byte	.LVL130
 2457 038b 0100     		.2byte	0x1
 2458 038d 5A       		.byte	0x5a
 2459 038e F4050000 		.4byte	.LVL130
 2460 0392 28060000 		.4byte	.LVL140
 2461 0396 0100     		.2byte	0x1
 2462 0398 58       		.byte	0x58
 2463 0399 28060000 		.4byte	.LVL140
 2464 039d 8C060000 		.4byte	.LFE10
 2465 03a1 0100     		.2byte	0x1
 2466 03a3 5A       		.byte	0x5a
 2467 03a4 00000000 		.4byte	0
 2468 03a8 00000000 		.4byte	0
 2469              	.LLST12:
 2470 03ac 30000000 		.4byte	.LVL23
 2471 03b0 53000000 		.4byte	.LVL24-1
 2472 03b4 0100     		.2byte	0x1
 2473 03b6 51       		.byte	0x51
 2474 03b7 5C000000 		.4byte	.LVL25
 2475 03bb AC000000 		.4byte	.LVL32
 2476 03bf 0100     		.2byte	0x1
 2477 03c1 51       		.byte	0x51
 2478 03c2 B0000000 		.4byte	.LVL33
 2479 03c6 B4000000 		.4byte	.LVL34
 2480 03ca 0100     		.2byte	0x1
 2481 03cc 52       		.byte	0x52
 2482 03cd B4000000 		.4byte	.LVL34
 2483 03d1 C4000000 		.4byte	.LVL37
 2484 03d5 0100     		.2byte	0x1
 2485 03d7 53       		.byte	0x53
 2486 03d8 D8000000 		.4byte	.LVL38
 2487 03dc 0C010000 		.4byte	.LVL43
 2488 03e0 0100     		.2byte	0x1
 2489 03e2 52       		.byte	0x52
 2490 03e3 14010000 		.4byte	.LVL44
 2491 03e7 F8010000 		.4byte	.LVL46
 2492 03eb 0100     		.2byte	0x1
 2493 03ed 52       		.byte	0x52
 2494 03ee F8010000 		.4byte	.LVL46
 2495 03f2 00020000 		.4byte	.LVL48
 2496 03f6 0100     		.2byte	0x1
 2497 03f8 53       		.byte	0x53
 2498 03f9 04020000 		.4byte	.LVL49
 2499 03fd 34030000 		.4byte	.LVL53
 2500 0401 0100     		.2byte	0x1
 2501 0403 52       		.byte	0x52
 2502 0404 CC030000 		.4byte	.LVL71
 2503 0408 D4030000 		.4byte	.LVL72
 2504 040c 0100     		.2byte	0x1
 2505 040e 52       		.byte	0x52
 2506 040f 14050000 		.4byte	.LVL106
 2507 0413 20050000 		.4byte	.LVL107
ARM GAS  /tmp/ccyFNOym.s 			page 45


 2508 0417 0100     		.2byte	0x1
 2509 0419 52       		.byte	0x52
 2510 041a 3C050000 		.4byte	.LVL108
 2511 041e 54050000 		.4byte	.LVL110
 2512 0422 0100     		.2byte	0x1
 2513 0424 52       		.byte	0x52
 2514 0425 54050000 		.4byte	.LVL110
 2515 0429 58050000 		.4byte	.LVL111
 2516 042d 0200     		.2byte	0x2
 2517 042f 3A       		.byte	0x3a
 2518 0430 9F       		.byte	0x9f
 2519 0431 8C050000 		.4byte	.LVL116
 2520 0435 90050000 		.4byte	.LVL117
 2521 0439 0100     		.2byte	0x1
 2522 043b 52       		.byte	0x52
 2523 043c 90050000 		.4byte	.LVL117
 2524 0440 98050000 		.4byte	.LVL118
 2525 0444 0200     		.2byte	0x2
 2526 0446 38       		.byte	0x38
 2527 0447 9F       		.byte	0x9f
 2528 0448 B0050000 		.4byte	.LVL121
 2529 044c C0050000 		.4byte	.LVL123
 2530 0450 0100     		.2byte	0x1
 2531 0452 52       		.byte	0x52
 2532 0453 F4050000 		.4byte	.LVL130
 2533 0457 F8050000 		.4byte	.LVL131
 2534 045b 0100     		.2byte	0x1
 2535 045d 52       		.byte	0x52
 2536 045e F8050000 		.4byte	.LVL131
 2537 0462 FC050000 		.4byte	.LVL132
 2538 0466 0400     		.2byte	0x4
 2539 0468 70       		.byte	0x70
 2540 0469 C400     		.sleb128 68
 2541 046b 9F       		.byte	0x9f
 2542 046c FC050000 		.4byte	.LVL132
 2543 0470 04060000 		.4byte	.LVL133
 2544 0474 0100     		.2byte	0x1
 2545 0476 52       		.byte	0x52
 2546 0477 14060000 		.4byte	.LVL136
 2547 047b 1C060000 		.4byte	.LVL138
 2548 047f 0100     		.2byte	0x1
 2549 0481 52       		.byte	0x52
 2550 0482 1C060000 		.4byte	.LVL138
 2551 0486 28060000 		.4byte	.LVL140
 2552 048a 0400     		.2byte	0x4
 2553 048c 70       		.byte	0x70
 2554 048d C400     		.sleb128 68
 2555 048f 9F       		.byte	0x9f
 2556 0490 00000000 		.4byte	0
 2557 0494 00000000 		.4byte	0
 2558              	.LLST13:
 2559 0498 90000000 		.4byte	.LVL29
 2560 049c A4000000 		.4byte	.LVL31
 2561 04a0 0300     		.2byte	0x3
 2562 04a2 08       		.byte	0x8
 2563 04a3 30       		.byte	0x30
 2564 04a4 9F       		.byte	0x9f
ARM GAS  /tmp/ccyFNOym.s 			page 46


 2565 04a5 A4000000 		.4byte	.LVL31
 2566 04a9 2C030000 		.4byte	.LVL52
 2567 04ad 0100     		.2byte	0x1
 2568 04af 57       		.byte	0x57
 2569 04b0 2C030000 		.4byte	.LVL52
 2570 04b4 94030000 		.4byte	.LVL64
 2571 04b8 0300     		.2byte	0x3
 2572 04ba 08       		.byte	0x8
 2573 04bb 20       		.byte	0x20
 2574 04bc 9F       		.byte	0x9f
 2575 04bd 94030000 		.4byte	.LVL64
 2576 04c1 A4030000 		.4byte	.LVL68
 2577 04c5 0100     		.2byte	0x1
 2578 04c7 57       		.byte	0x57
 2579 04c8 CC030000 		.4byte	.LVL71
 2580 04cc CC040000 		.4byte	.LVL98
 2581 04d0 0100     		.2byte	0x1
 2582 04d2 57       		.byte	0x57
 2583 04d3 14050000 		.4byte	.LVL106
 2584 04d7 3C050000 		.4byte	.LVL108
 2585 04db 0300     		.2byte	0x3
 2586 04dd 08       		.byte	0x8
 2587 04de 20       		.byte	0x20
 2588 04df 9F       		.byte	0x9f
 2589 04e0 3C050000 		.4byte	.LVL108
 2590 04e4 28060000 		.4byte	.LVL140
 2591 04e8 0100     		.2byte	0x1
 2592 04ea 57       		.byte	0x57
 2593 04eb 28060000 		.4byte	.LVL140
 2594 04ef 5C060000 		.4byte	.LVL145
 2595 04f3 0300     		.2byte	0x3
 2596 04f5 08       		.byte	0x8
 2597 04f6 20       		.byte	0x20
 2598 04f7 9F       		.byte	0x9f
 2599 04f8 5C060000 		.4byte	.LVL145
 2600 04fc 8C060000 		.4byte	.LFE10
 2601 0500 0100     		.2byte	0x1
 2602 0502 57       		.byte	0x57
 2603 0503 00000000 		.4byte	0
 2604 0507 00000000 		.4byte	0
 2605              	.LLST14:
 2606 050b 94030000 		.4byte	.LVL64
 2607 050f 9C030000 		.4byte	.LVL66
 2608 0513 0100     		.2byte	0x1
 2609 0515 50       		.byte	0x50
 2610 0516 9C030000 		.4byte	.LVL66
 2611 051a A4030000 		.4byte	.LVL68
 2612 051e 0100     		.2byte	0x1
 2613 0520 53       		.byte	0x53
 2614 0521 9C040000 		.4byte	.LVL92
 2615 0525 CC040000 		.4byte	.LVL98
 2616 0529 0100     		.2byte	0x1
 2617 052b 50       		.byte	0x50
 2618 052c E8040000 		.4byte	.LVL101
 2619 0530 F8040000 		.4byte	.LVL103
 2620 0534 0100     		.2byte	0x1
 2621 0536 59       		.byte	0x59
ARM GAS  /tmp/ccyFNOym.s 			page 47


 2622 0537 F8040000 		.4byte	.LVL103
 2623 053b 08050000 		.4byte	.LVL105
 2624 053f 0300     		.2byte	0x3
 2625 0541 79       		.byte	0x79
 2626 0542 01       		.sleb128 1
 2627 0543 9F       		.byte	0x9f
 2628 0544 08050000 		.4byte	.LVL105
 2629 0548 14050000 		.4byte	.LVL106
 2630 054c 0100     		.2byte	0x1
 2631 054e 59       		.byte	0x59
 2632 054f E8050000 		.4byte	.LVL128
 2633 0553 F4050000 		.4byte	.LVL130
 2634 0557 0100     		.2byte	0x1
 2635 0559 53       		.byte	0x53
 2636 055a 34060000 		.4byte	.LVL141
 2637 055e 5C060000 		.4byte	.LVL145
 2638 0562 0200     		.2byte	0x2
 2639 0564 30       		.byte	0x30
 2640 0565 9F       		.byte	0x9f
 2641 0566 5C060000 		.4byte	.LVL145
 2642 056a 64060000 		.4byte	.LVL146
 2643 056e 0100     		.2byte	0x1
 2644 0570 50       		.byte	0x50
 2645 0571 78060000 		.4byte	.LVL148
 2646 0575 8C060000 		.4byte	.LFE10
 2647 0579 0300     		.2byte	0x3
 2648 057b 79       		.byte	0x79
 2649 057c 01       		.sleb128 1
 2650 057d 9F       		.byte	0x9f
 2651 057e 00000000 		.4byte	0
 2652 0582 00000000 		.4byte	0
 2653              	.LLST15:
 2654 0586 F0000000 		.4byte	.LVL40
 2655 058a F4000000 		.4byte	.LVL41
 2656 058e 0200     		.2byte	0x2
 2657 0590 30       		.byte	0x30
 2658 0591 9F       		.byte	0x9f
 2659 0592 F4000000 		.4byte	.LVL41
 2660 0596 FC010000 		.4byte	.LVL47
 2661 059a 0100     		.2byte	0x1
 2662 059c 51       		.byte	0x51
 2663 059d FC010000 		.4byte	.LVL47
 2664 05a1 00020000 		.4byte	.LVL48
 2665 05a5 0500     		.2byte	0x5
 2666 05a7 70       		.byte	0x70
 2667 05a8 00       		.sleb128 0
 2668 05a9 31       		.byte	0x31
 2669 05aa 24       		.byte	0x24
 2670 05ab 9F       		.byte	0x9f
 2671 05ac 00020000 		.4byte	.LVL48
 2672 05b0 9C030000 		.4byte	.LVL66
 2673 05b4 0100     		.2byte	0x1
 2674 05b6 51       		.byte	0x51
 2675 05b7 CC030000 		.4byte	.LVL71
 2676 05bb DF030000 		.4byte	.LVL73-1
 2677 05bf 0100     		.2byte	0x1
 2678 05c1 51       		.byte	0x51
ARM GAS  /tmp/ccyFNOym.s 			page 48


 2679 05c2 14050000 		.4byte	.LVL106
 2680 05c6 6C050000 		.4byte	.LVL112
 2681 05ca 0100     		.2byte	0x1
 2682 05cc 51       		.byte	0x51
 2683 05cd 8C050000 		.4byte	.LVL116
 2684 05d1 A4050000 		.4byte	.LVL119
 2685 05d5 0100     		.2byte	0x1
 2686 05d7 51       		.byte	0x51
 2687 05d8 B0050000 		.4byte	.LVL121
 2688 05dc C4050000 		.4byte	.LVL124
 2689 05e0 0100     		.2byte	0x1
 2690 05e2 51       		.byte	0x51
 2691 05e3 F4050000 		.4byte	.LVL130
 2692 05e7 08060000 		.4byte	.LVL134
 2693 05eb 0100     		.2byte	0x1
 2694 05ed 51       		.byte	0x51
 2695 05ee 14060000 		.4byte	.LVL136
 2696 05f2 20060000 		.4byte	.LVL139
 2697 05f6 0100     		.2byte	0x1
 2698 05f8 51       		.byte	0x51
 2699 05f9 28060000 		.4byte	.LVL140
 2700 05fd 34060000 		.4byte	.LVL141
 2701 0601 0400     		.2byte	0x4
 2702 0603 0A       		.byte	0xa
 2703 0604 FF7F     		.2byte	0x7fff
 2704 0606 9F       		.byte	0x9f
 2705 0607 00000000 		.4byte	0
 2706 060b 00000000 		.4byte	0
 2707              	.LLST16:
 2708 060f A4000000 		.4byte	.LVL31
 2709 0613 B0000000 		.4byte	.LVL33
 2710 0617 0200     		.2byte	0x2
 2711 0619 30       		.byte	0x30
 2712 061a 9F       		.byte	0x9f
 2713 061b B0000000 		.4byte	.LVL33
 2714 061f 88030000 		.4byte	.LVL63
 2715 0623 0100     		.2byte	0x1
 2716 0625 54       		.byte	0x54
 2717 0626 94030000 		.4byte	.LVL64
 2718 062a C0030000 		.4byte	.LVL69
 2719 062e 0100     		.2byte	0x1
 2720 0630 54       		.byte	0x54
 2721 0631 C0030000 		.4byte	.LVL69
 2722 0635 C4030000 		.4byte	.LVL70
 2723 0639 0300     		.2byte	0x3
 2724 063b 74       		.byte	0x74
 2725 063c 7F       		.sleb128 -1
 2726 063d 9F       		.byte	0x9f
 2727 063e C4030000 		.4byte	.LVL70
 2728 0642 E0040000 		.4byte	.LVL99
 2729 0646 0100     		.2byte	0x1
 2730 0648 54       		.byte	0x54
 2731 0649 E0040000 		.4byte	.LVL99
 2732 064d E4040000 		.4byte	.LVL100
 2733 0651 0300     		.2byte	0x3
 2734 0653 74       		.byte	0x74
 2735 0654 01       		.sleb128 1
ARM GAS  /tmp/ccyFNOym.s 			page 49


 2736 0655 9F       		.byte	0x9f
 2737 0656 E4040000 		.4byte	.LVL100
 2738 065a E8040000 		.4byte	.LVL101
 2739 065e 0100     		.2byte	0x1
 2740 0660 54       		.byte	0x54
 2741 0661 E8040000 		.4byte	.LVL101
 2742 0665 F0040000 		.4byte	.LVL102
 2743 0669 0200     		.2byte	0x2
 2744 066b 30       		.byte	0x30
 2745 066c 9F       		.byte	0x9f
 2746 066d 14050000 		.4byte	.LVL106
 2747 0671 E8050000 		.4byte	.LVL128
 2748 0675 0100     		.2byte	0x1
 2749 0677 54       		.byte	0x54
 2750 0678 F4050000 		.4byte	.LVL130
 2751 067c 8C060000 		.4byte	.LFE10
 2752 0680 0100     		.2byte	0x1
 2753 0682 54       		.byte	0x54
 2754 0683 00000000 		.4byte	0
 2755 0687 00000000 		.4byte	0
 2756              	.LLST17:
 2757 068b 00010000 		.4byte	.LVL42
 2758 068f F4010000 		.4byte	.LVL45
 2759 0693 0200     		.2byte	0x2
 2760 0695 31       		.byte	0x31
 2761 0696 9F       		.byte	0x9f
 2762 0697 4C020000 		.4byte	.LVL51
 2763 069b 2C030000 		.4byte	.LVL52
 2764 069f 0100     		.2byte	0x1
 2765 06a1 53       		.byte	0x53
 2766 06a2 50050000 		.4byte	.LVL109
 2767 06a6 54050000 		.4byte	.LVL110
 2768 06aa 0200     		.2byte	0x2
 2769 06ac 31       		.byte	0x31
 2770 06ad 9F       		.byte	0x9f
 2771 06ae 8C050000 		.4byte	.LVL116
 2772 06b2 90050000 		.4byte	.LVL117
 2773 06b6 0200     		.2byte	0x2
 2774 06b8 31       		.byte	0x31
 2775 06b9 9F       		.byte	0x9f
 2776 06ba B0050000 		.4byte	.LVL121
 2777 06be B8050000 		.4byte	.LVL122
 2778 06c2 0100     		.2byte	0x1
 2779 06c4 53       		.byte	0x53
 2780 06c5 F4050000 		.4byte	.LVL130
 2781 06c9 FC050000 		.4byte	.LVL132
 2782 06cd 0100     		.2byte	0x1
 2783 06cf 53       		.byte	0x53
 2784 06d0 FC050000 		.4byte	.LVL132
 2785 06d4 14060000 		.4byte	.LVL136
 2786 06d8 0200     		.2byte	0x2
 2787 06da 31       		.byte	0x31
 2788 06db 9F       		.byte	0x9f
 2789 06dc 14060000 		.4byte	.LVL136
 2790 06e0 18060000 		.4byte	.LVL137
 2791 06e4 0100     		.2byte	0x1
 2792 06e6 53       		.byte	0x53
ARM GAS  /tmp/ccyFNOym.s 			page 50


 2793 06e7 18060000 		.4byte	.LVL137
 2794 06eb 28060000 		.4byte	.LVL140
 2795 06ef 0100     		.2byte	0x1
 2796 06f1 5C       		.byte	0x5c
 2797 06f2 00000000 		.4byte	0
 2798 06f6 00000000 		.4byte	0
 2799              	.LLST18:
 2800 06fa 74000000 		.4byte	.LVL27
 2801 06fe 88000000 		.4byte	.LVL28
 2802 0702 0200     		.2byte	0x2
 2803 0704 30       		.byte	0x30
 2804 0705 9F       		.byte	0x9f
 2805 0706 88000000 		.4byte	.LVL28
 2806 070a 90000000 		.4byte	.LVL29
 2807 070e 0200     		.2byte	0x2
 2808 0710 31       		.byte	0x31
 2809 0711 9F       		.byte	0x9f
 2810 0712 90000000 		.4byte	.LVL29
 2811 0716 A0030000 		.4byte	.LVL67
 2812 071a 0100     		.2byte	0x1
 2813 071c 59       		.byte	0x59
 2814 071d CC030000 		.4byte	.LVL71
 2815 0721 C8040000 		.4byte	.LVL97
 2816 0725 0100     		.2byte	0x1
 2817 0727 59       		.byte	0x59
 2818 0728 14050000 		.4byte	.LVL106
 2819 072c EC050000 		.4byte	.LVL129
 2820 0730 0100     		.2byte	0x1
 2821 0732 59       		.byte	0x59
 2822 0733 F4050000 		.4byte	.LVL130
 2823 0737 54060000 		.4byte	.LVL144
 2824 073b 0100     		.2byte	0x1
 2825 073d 59       		.byte	0x59
 2826 073e 00000000 		.4byte	0
 2827 0742 00000000 		.4byte	0
 2828              	.LLST19:
 2829 0746 6C050000 		.4byte	.LVL112
 2830 074a 7B050000 		.4byte	.LVL115-1
 2831 074e 0100     		.2byte	0x1
 2832 0750 51       		.byte	0x51
 2833 0751 AC050000 		.4byte	.LVL120
 2834 0755 B0050000 		.4byte	.LVL121
 2835 0759 0100     		.2byte	0x1
 2836 075b 51       		.byte	0x51
 2837 075c C4050000 		.4byte	.LVL124
 2838 0760 E8050000 		.4byte	.LVL128
 2839 0764 0100     		.2byte	0x1
 2840 0766 51       		.byte	0x51
 2841 0767 10060000 		.4byte	.LVL135
 2842 076b 14060000 		.4byte	.LVL136
 2843 076f 0100     		.2byte	0x1
 2844 0771 51       		.byte	0x51
 2845 0772 20060000 		.4byte	.LVL139
 2846 0776 28060000 		.4byte	.LVL140
 2847 077a 0100     		.2byte	0x1
 2848 077c 51       		.byte	0x51
 2849 077d 00000000 		.4byte	0
ARM GAS  /tmp/ccyFNOym.s 			page 51


 2850 0781 00000000 		.4byte	0
 2851              	.LLST20:
 2852 0785 E8030000 		.4byte	.LVL74
 2853 0789 EB030000 		.4byte	.LVL75-1
 2854 078d 0100     		.2byte	0x1
 2855 078f 50       		.byte	0x50
 2856 0790 EB030000 		.4byte	.LVL75-1
 2857 0794 94040000 		.4byte	.LVL91
 2858 0798 0100     		.2byte	0x1
 2859 079a 5A       		.byte	0x5a
 2860 079b 00000000 		.4byte	0
 2861 079f 00000000 		.4byte	0
 2862              	.LLST21:
 2863 07a3 FC030000 		.4byte	.LVL77
 2864 07a7 94040000 		.4byte	.LVL91
 2865 07ab 0600     		.2byte	0x6
 2866 07ad F5       		.byte	0xf5
 2867 07ae 0A       		.uleb128 0xa
 2868 07af 33       		.uleb128 0x33
 2869 07b0 F7       		.byte	0xf7
 2870 07b1 25       		.uleb128 0x25
 2871 07b2 9F       		.byte	0x9f
 2872 07b3 00000000 		.4byte	0
 2873 07b7 00000000 		.4byte	0
 2874              	.LLST22:
 2875 07bb FC030000 		.4byte	.LVL77
 2876 07bf 0C040000 		.4byte	.LVL78
 2877 07c3 0200     		.2byte	0x2
 2878 07c5 7D       		.byte	0x7d
 2879 07c6 00       		.sleb128 0
 2880 07c7 30040000 		.4byte	.LVL82
 2881 07cb 3C040000 		.4byte	.LVL83
 2882 07cf 0300     		.2byte	0x3
 2883 07d1 70       		.byte	0x70
 2884 07d2 01       		.sleb128 1
 2885 07d3 9F       		.byte	0x9f
 2886 07d4 3C040000 		.4byte	.LVL83
 2887 07d8 40040000 		.4byte	.LVL84
 2888 07dc 0300     		.2byte	0x3
 2889 07de 7C       		.byte	0x7c
 2890 07df 01       		.sleb128 1
 2891 07e0 9F       		.byte	0x9f
 2892 07e1 40040000 		.4byte	.LVL84
 2893 07e5 4B040000 		.4byte	.LVL85-1
 2894 07e9 0100     		.2byte	0x1
 2895 07eb 5C       		.byte	0x5c
 2896 07ec 4B040000 		.4byte	.LVL85-1
 2897 07f0 9C040000 		.4byte	.LVL92
 2898 07f4 0300     		.2byte	0x3
 2899 07f6 91       		.byte	0x91
 2900 07f7 907F     		.sleb128 -112
 2901 07f9 00000000 		.4byte	0
 2902 07fd 00000000 		.4byte	0
 2903              	.LLST23:
 2904 0801 14040000 		.4byte	.LVL80
 2905 0805 20040000 		.4byte	.LVL81
 2906 0809 0100     		.2byte	0x1
ARM GAS  /tmp/ccyFNOym.s 			page 52


 2907 080b 50       		.byte	0x50
 2908 080c 20040000 		.4byte	.LVL81
 2909 0810 2F040000 		.4byte	.LVL82-1
 2910 0814 0100     		.2byte	0x1
 2911 0816 51       		.byte	0x51
 2912 0817 2F040000 		.4byte	.LVL82-1
 2913 081b 74040000 		.4byte	.LVL88
 2914 081f 0200     		.2byte	0x2
 2915 0821 7D       		.byte	0x7d
 2916 0822 00       		.sleb128 0
 2917 0823 74040000 		.4byte	.LVL88
 2918 0827 77040000 		.4byte	.LVL89-1
 2919 082b 0800     		.2byte	0x8
 2920 082d F5       		.byte	0xf5
 2921 082e 00       		.uleb128 0
 2922 082f 25       		.uleb128 0x25
 2923 0830 F7       		.byte	0xf7
 2924 0831 2C       		.uleb128 0x2c
 2925 0832 F7       		.byte	0xf7
 2926 0833 00       		.uleb128 0
 2927 0834 9F       		.byte	0x9f
 2928 0835 00000000 		.4byte	0
 2929 0839 00000000 		.4byte	0
 2930              	.LLST24:
 2931 083d FC030000 		.4byte	.LVL77
 2932 0841 9C040000 		.4byte	.LVL92
 2933 0845 0600     		.2byte	0x6
 2934 0847 0C       		.byte	0xc
 2935 0848 A0860100 		.4byte	0x186a0
 2936 084c 9F       		.byte	0x9f
 2937 084d 00000000 		.4byte	0
 2938 0851 00000000 		.4byte	0
 2939              	.LLST25:
 2940 0855 70050000 		.4byte	.LVL113
 2941 0859 74050000 		.4byte	.LVL114
 2942 085d 0100     		.2byte	0x1
 2943 085f 52       		.byte	0x52
 2944 0860 00000000 		.4byte	0
 2945 0864 00000000 		.4byte	0
 2946              	.LLST26:
 2947 0868 70050000 		.4byte	.LVL113
 2948 086c 74050000 		.4byte	.LVL114
 2949 0870 0100     		.2byte	0x1
 2950 0872 51       		.byte	0x51
 2951 0873 00000000 		.4byte	0
 2952 0877 00000000 		.4byte	0
 2953              	.LLST27:
 2954 087b 70050000 		.4byte	.LVL113
 2955 087f 74050000 		.4byte	.LVL114
 2956 0883 0100     		.2byte	0x1
 2957 0885 58       		.byte	0x58
 2958 0886 00000000 		.4byte	0
 2959 088a 00000000 		.4byte	0
 2960              	.LLST28:
 2961 088e E0050000 		.4byte	.LVL127
 2962 0892 E8050000 		.4byte	.LVL128
 2963 0896 0200     		.2byte	0x2
ARM GAS  /tmp/ccyFNOym.s 			page 53


 2964 0898 3A       		.byte	0x3a
 2965 0899 9F       		.byte	0x9f
 2966 089a 00000000 		.4byte	0
 2967 089e 00000000 		.4byte	0
 2968              	.LLST29:
 2969 08a2 E0050000 		.4byte	.LVL127
 2970 08a6 E8050000 		.4byte	.LVL128
 2971 08aa 0100     		.2byte	0x1
 2972 08ac 51       		.byte	0x51
 2973 08ad 00000000 		.4byte	0
 2974 08b1 00000000 		.4byte	0
 2975              	.LLST30:
 2976 08b5 E0050000 		.4byte	.LVL127
 2977 08b9 E8050000 		.4byte	.LVL128
 2978 08bd 0100     		.2byte	0x1
 2979 08bf 50       		.byte	0x50
 2980 08c0 00000000 		.4byte	0
 2981 08c4 00000000 		.4byte	0
 2982              		.section	.debug_aranges,"",%progbits
 2983 0000 24000000 		.4byte	0x24
 2984 0004 0200     		.2byte	0x2
 2985 0006 00000000 		.4byte	.Ldebug_info0
 2986 000a 04       		.byte	0x4
 2987 000b 00       		.byte	0
 2988 000c 0000     		.2byte	0
 2989 000e 0000     		.2byte	0
 2990 0010 00000000 		.4byte	.LFB7
 2991 0014 90000000 		.4byte	.LFE7-.LFB7
 2992 0018 00000000 		.4byte	.LFB10
 2993 001c 8C060000 		.4byte	.LFE10-.LFB10
 2994 0020 00000000 		.4byte	0
 2995 0024 00000000 		.4byte	0
 2996              		.section	.debug_ranges,"",%progbits
 2997              	.Ldebug_ranges0:
 2998 0000 00040000 		.4byte	.LBB12
 2999 0004 04040000 		.4byte	.LBE12
 3000 0008 0C040000 		.4byte	.LBB17
 3001 000c 38040000 		.4byte	.LBE17
 3002 0010 3C040000 		.4byte	.LBB18
 3003 0014 48040000 		.4byte	.LBE18
 3004 0018 50040000 		.4byte	.LBB19
 3005 001c 90040000 		.4byte	.LBE19
 3006 0020 00000000 		.4byte	0
 3007 0024 00000000 		.4byte	0
 3008 0028 00000000 		.4byte	.LFB7
 3009 002c 90000000 		.4byte	.LFE7
 3010 0030 00000000 		.4byte	.LFB10
 3011 0034 8C060000 		.4byte	.LFE10
 3012 0038 00000000 		.4byte	0
 3013 003c 00000000 		.4byte	0
 3014              		.section	.debug_line,"",%progbits
 3015              	.Ldebug_line0:
 3016 0000 8F020000 		.section	.debug_str,"MS",%progbits,1
 3016      02001C01 
 3016      00000201 
 3016      FB0E0D00 
 3016      01010101 
ARM GAS  /tmp/ccyFNOym.s 			page 54


 3017              	.LASF8:
 3018 0000 5F5F7569 		.ascii	"__uint8_t\000"
 3018      6E74385F 
 3018      7400
 3019              	.LASF5:
 3020 000a 73697A65 		.ascii	"size_t\000"
 3020      5F7400
 3021              	.LASF38:
 3022 0011 5F5F6275 		.ascii	"__builtin_va_list\000"
 3022      696C7469 
 3022      6E5F7661 
 3022      5F6C6973 
 3022      7400
 3023              	.LASF35:
 3024 0023 474E5520 		.ascii	"GNU C 4.9.3 20150529 (prerelease) -mcpu=arm1176jz-s"
 3024      4320342E 
 3024      392E3320 
 3024      32303135 
 3024      30353239 
 3025 0056 202D6D61 		.ascii	" -mabi=apcs-gnu -mno-thumb-interwork -ggdb -O2 -fom"
 3025      62693D61 
 3025      7063732D 
 3025      676E7520 
 3025      2D6D6E6F 
 3026 0089 69742D66 		.ascii	"it-frame-pointer -ffunction-sections -fdata-section"
 3026      72616D65 
 3026      2D706F69 
 3026      6E746572 
 3026      202D6666 
 3027 00bc 7300     		.ascii	"s\000"
 3028              	.LASF12:
 3029 00be 5F5F696E 		.ascii	"__int32_t\000"
 3029      7433325F 
 3029      7400
 3030              	.LASF31:
 3031 00c8 69735F6C 		.ascii	"is_long\000"
 3031      6F6E6700 
 3032              	.LASF23:
 3033 00d0 72616469 		.ascii	"radix\000"
 3033      7800
 3034              	.LASF18:
 3035 00d6 626F6F6C 		.ascii	"bool_t\000"
 3035      5F7400
 3036              	.LASF40:
 3037 00dd 6C6F6E67 		.ascii	"long_to_string_with_divisor\000"
 3037      5F746F5F 
 3037      73747269 
 3037      6E675F77 
 3037      6974685F 
 3038              	.LASF16:
 3039 00f9 696E7433 		.ascii	"int32_t\000"
 3039      325F7400 
 3040              	.LASF1:
 3041 0101 666C6F61 		.ascii	"float\000"
 3041      7400
 3042              	.LASF3:
 3043 0107 76615F6C 		.ascii	"va_list\000"
ARM GAS  /tmp/ccyFNOym.s 			page 55


 3043      69737400 
 3044              	.LASF22:
 3045 010f 42617365 		.ascii	"BaseSequentialStream\000"
 3045      53657175 
 3045      656E7469 
 3045      616C5374 
 3045      7265616D 
 3046              	.LASF9:
 3047 0124 756E7369 		.ascii	"unsigned char\000"
 3047      676E6564 
 3047      20636861 
 3047      7200
 3048              	.LASF6:
 3049 0132 6C6F6E67 		.ascii	"long unsigned int\000"
 3049      20756E73 
 3049      69676E65 
 3049      6420696E 
 3049      7400
 3050              	.LASF11:
 3051 0144 73686F72 		.ascii	"short unsigned int\000"
 3051      7420756E 
 3051      7369676E 
 3051      65642069 
 3051      6E7400
 3052              	.LASF20:
 3053 0157 77726974 		.ascii	"write\000"
 3053      6500
 3054              	.LASF30:
 3055 015d 77696474 		.ascii	"width\000"
 3055      6800
 3056              	.LASF41:
 3057 0163 63687072 		.ascii	"chprintf\000"
 3057      696E7466 
 3057      00
 3058              	.LASF0:
 3059 016c 646F7562 		.ascii	"double\000"
 3059      6C6500
 3060              	.LASF2:
 3061 0173 5F5F676E 		.ascii	"__gnuc_va_list\000"
 3061      75635F76 
 3061      615F6C69 
 3061      737400
 3062              	.LASF21:
 3063 0182 72656164 		.ascii	"read\000"
 3063      00
 3064              	.LASF29:
 3065 0187 66696C6C 		.ascii	"filler\000"
 3065      657200
 3066              	.LASF17:
 3067 018e 756E7369 		.ascii	"unsigned int\000"
 3067      676E6564 
 3067      20696E74 
 3067      00
 3068              	.LASF14:
 3069 019b 6C6F6E67 		.ascii	"long long unsigned int\000"
 3069      206C6F6E 
 3069      6720756E 
ARM GAS  /tmp/ccyFNOym.s 			page 56


 3069      7369676E 
 3069      65642069 
 3070              	.LASF25:
 3071 01b2 64697669 		.ascii	"divisor\000"
 3071      736F7200 
 3072              	.LASF19:
 3073 01ba 6D73675F 		.ascii	"msg_t\000"
 3073      7400
 3074              	.LASF27:
 3075 01c0 66746F61 		.ascii	"ftoa\000"
 3075      00
 3076              	.LASF36:
 3077 01c5 2E2E2F2E 		.ascii	"../../../os/various/chprintf.c\000"
 3077      2E2F2E2E 
 3077      2F6F732F 
 3077      76617269 
 3077      6F75732F 
 3078              	.LASF37:
 3079 01e4 2F686F6D 		.ascii	"/home/hunter/development/chibi/ChibiOS-RPi/testhal/"
 3079      652F6875 
 3079      6E746572 
 3079      2F646576 
 3079      656C6F70 
 3080 0217 42434D32 		.ascii	"BCM2835/GPIO\000"
 3080      3833352F 
 3080      4750494F 
 3080      00
 3081              	.LASF34:
 3082 0224 73697A65 		.ascii	"sizetype\000"
 3082      74797065 
 3082      00
 3083              	.LASF33:
 3084 022d 746D7062 		.ascii	"tmpbuf\000"
 3084      756600
 3085              	.LASF15:
 3086 0234 75696E74 		.ascii	"uint8_t\000"
 3086      385F7400 
 3087              	.LASF13:
 3088 023c 6C6F6E67 		.ascii	"long long int\000"
 3088      206C6F6E 
 3088      6720696E 
 3088      7400
 3089              	.LASF28:
 3090 024a 70726563 		.ascii	"precision\000"
 3090      6973696F 
 3090      6E00
 3091              	.LASF24:
 3092 0254 63686172 		.ascii	"char\000"
 3092      00
 3093              	.LASF32:
 3094 0259 6C656674 		.ascii	"left_align\000"
 3094      5F616C69 
 3094      676E00
 3095              	.LASF10:
 3096 0264 73686F72 		.ascii	"short int\000"
 3096      7420696E 
 3096      7400
ARM GAS  /tmp/ccyFNOym.s 			page 57


 3097              	.LASF42:
 3098 026e 756E7369 		.ascii	"unsigned_common\000"
 3098      676E6564 
 3098      5F636F6D 
 3098      6D6F6E00 
 3099              	.LASF4:
 3100 027e 6C6F6E67 		.ascii	"long int\000"
 3100      20696E74 
 3100      00
 3101              	.LASF7:
 3102 0287 7369676E 		.ascii	"signed char\000"
 3102      65642063 
 3102      68617200 
 3103              	.LASF26:
 3104 0293 6C746F61 		.ascii	"ltoa\000"
 3104      00
 3105              	.LASF39:
 3106 0298 42617365 		.ascii	"BaseSequentialStreamVMT\000"
 3106      53657175 
 3106      656E7469 
 3106      616C5374 
 3106      7265616D 
 3107              		.ident	"GCC: (15:4.9.3+svn231177-1) 4.9.3 20150529 (prerelease)"
ARM GAS  /tmp/ccyFNOym.s 			page 58


DEFINED SYMBOLS
                            *ABS*:0000000000000000 chprintf.c
     /tmp/ccyFNOym.s:8      .text.long_to_string_with_divisor:0000000000000000 $a
     /tmp/ccyFNOym.s:10     .text.long_to_string_with_divisor:0000000000000000 long_to_string_with_divisor
     /tmp/ccyFNOym.s:119    .text.chprintf:0000000000000000 $a
     /tmp/ccyFNOym.s:122    .text.chprintf:0000000000000000 chprintf
     /tmp/ccyFNOym.s:300    .text.chprintf:0000000000000120 $d
     /tmp/ccyFNOym.s:356    .text.chprintf:00000000000001f4 $a
     /tmp/ccyFNOym.s:401    .text.chprintf:0000000000000258 $d
     /tmp/ccyFNOym.s:457    .text.chprintf:000000000000032c $a
     /tmp/ccyFNOym.s:916    .text.chprintf:000000000000067c $d
     /tmp/ccyFNOym.s:924    .rodata.str1.4:0000000000000000 $d
                     .debug_frame:0000000000000010 $d

UNDEFINED SYMBOLS
__umodsi3
__udivsi3
__truncdfsf2
__ltsf2
__fixsfsi
__extendsfdf2
__floatsidf
__subdf3
__muldf3
__fixdfsi
