ARM GAS  /tmp/ccyFNOym.s 			page 1


   1              		.file	"chprintf.c"
   2              		.text
   3              	.Ltext0:
   4              		.cfi_sections	.debug_frame
   5              		.global	__umodsi3
   6              		.global	__udivsi3
   7              		.section	.text.long_to_string_with_divisor,"ax",%progbits
   8              		.align	2
   9              		.type	long_to_string_with_divisor, %function
  10              	long_to_string_with_divisor:
  11              	.LFB7:
  12              		.file 1 "../../../os/various/chprintf.c"
  13              		.loc 1 43 0
  14              		.cfi_startproc
  15              		@ args = 0, pretend = 0, frame = 0
  16              		@ frame_needed = 0, uses_anonymous_args = 0
  17              	.LVL0:
  18 0000 F0472DE9 		stmfd	sp!, {r4, r5, r6, r7, r8, r9, r10, lr}
  19              		.cfi_def_cfa_offset 32
  20              		.cfi_offset 4, -32
  21              		.cfi_offset 5, -28
  22              		.cfi_offset 6, -24
  23              		.cfi_offset 7, -20
  24              		.cfi_offset 8, -16
  25              		.cfi_offset 9, -12
  26              		.cfi_offset 10, -8
  27              		.cfi_offset 14, -4
  28              		.loc 1 49 0
  29 0004 000053E3 		cmp	r3, #0
  30              		.loc 1 55 0
  31 0008 0B9080E2 		add	r9, r0, #11
  32              		.loc 1 43 0
  33 000c 0060A0E1 		mov	r6, r0
  34 0010 0170A0E1 		mov	r7, r1
  35              	.LVL1:
  36              		.loc 1 49 0
  37 0014 03A0A011 		movne	r10, r3
  38 0018 01A0A001 		moveq	r10, r1
  39              	.LVL2:
  40              		.loc 1 43 0
  41 001c 0280A0E1 		mov	r8, r2
  42              		.loc 1 55 0
  43 0020 0950A0E1 		mov	r5, r9
  44              	.LVL3:
  45              	.L4:
  46              		.loc 1 57 0
  47 0024 0700A0E1 		mov	r0, r7
  48 0028 0810A0E1 		mov	r1, r8
  49 002c FEFFFFEB 		bl	__umodsi3
  50              	.LVL4:
  51 0030 0030A0E1 		mov	r3, r0
  52              	.LVL5:
  53              		.loc 1 58 0
  54 0034 304083E2 		add	r4, r3, #48
  55              	.LVL6:
  56              		.loc 1 59 0
  57 0038 390054E3 		cmp	r4, #57
ARM GAS  /tmp/ccyFNOym.s 			page 2


  58              		.loc 1 60 0
  59 003c 374083C2 		addgt	r4, r3, #55
  60              	.LVL7:
  61              		.loc 1 61 0
  62 0040 7440EFE6 		uxtb	r4, r4
  63              	.LVL8:
  64              		.loc 1 62 0
  65 0044 0810A0E1 		mov	r1, r8
  66 0048 0700A0E1 		mov	r0, r7
  67              	.LVL9:
  68              		.loc 1 61 0
  69 004c 014065E5 		strb	r4, [r5, #-1]!
  70              	.LVL10:
  71              		.loc 1 62 0
  72 0050 FEFFFFEB 		bl	__udivsi3
  73              	.LVL11:
  74              		.loc 1 63 0
  75 0054 0810A0E1 		mov	r1, r8
  76              		.loc 1 62 0
  77 0058 0070A0E1 		mov	r7, r0
  78              	.LVL12:
  79              		.loc 1 63 0
  80 005c 0A00A0E1 		mov	r0, r10
  81              	.LVL13:
  82 0060 FEFFFFEB 		bl	__udivsi3
  83              	.LVL14:
  84 0064 00A050E2 		subs	r10, r0, #0
  85 0068 EDFFFF1A 		bne	.L4
  86              	.LVL15:
  87              		.loc 1 65 0
  88 006c 099065E0 		rsb	r9, r5, r9
  89              	.LVL16:
  90 0070 099086E0 		add	r9, r6, r9
  91 0074 000000EA 		b	.L6
  92              	.LVL17:
  93              	.L12:
  94 0078 0140F5E5 		ldrb	r4, [r5, #1]!	@ zero_extendqisi2
  95              	.LVL18:
  96              	.L6:
  97              		.loc 1 67 0 discriminator 1
  98 007c 0140C6E4 		strb	r4, [r6], #1
  99              	.LVL19:
 100              		.loc 1 68 0 discriminator 1
 101 0080 090056E1 		cmp	r6, r9
 102 0084 FBFFFF1A 		bne	.L12
 103              		.loc 1 71 0
 104 0088 0600A0E1 		mov	r0, r6
 105              	.LVL20:
 106 008c F087BDE8 		ldmfd	sp!, {r4, r5, r6, r7, r8, r9, r10, pc}
 107              		.cfi_endproc
 108              	.LFE7:
 109              		.size	long_to_string_with_divisor, .-long_to_string_with_divisor
 110              		.global	__truncdfsf2
 111              		.global	__ltsf2
 112              		.global	__fixsfsi
 113              		.global	__extendsfdf2
 114              		.global	__floatsidf
ARM GAS  /tmp/ccyFNOym.s 			page 3


 115              		.global	__subdf3
 116              		.global	__muldf3
 117              		.global	__fixdfsi
 118              		.section	.text.chprintf,"ax",%progbits
 119              		.align	2
 120              		.global	chprintf
 121              		.type	chprintf, %function
 122              	chprintf:
 123              	.LFB10:
 124              		.loc 1 112 0
 125              		.cfi_startproc
 126              		@ args = 4, pretend = 12, frame = 44
 127              		@ frame_needed = 0, uses_anonymous_args = 1
 128              	.LVL21:
 129 0000 0E002DE9 		stmfd	sp!, {r1, r2, r3}
 130              		.cfi_def_cfa_offset 12
 131              		.cfi_offset 1, -12
 132              		.cfi_offset 2, -8
 133              		.cfi_offset 3, -4
 134 0004 F04F2DE9 		stmfd	sp!, {r4, r5, r6, r7, r8, r9, r10, fp, lr}
 135              		.cfi_def_cfa_offset 48
 136              		.cfi_offset 4, -48
 137              		.cfi_offset 5, -44
 138              		.cfi_offset 6, -40
 139              		.cfi_offset 7, -36
 140              		.cfi_offset 8, -32
 141              		.cfi_offset 9, -28
 142              		.cfi_offset 10, -24
 143              		.cfi_offset 11, -20
 144              		.cfi_offset 14, -16
 145 0008 0060A0E1 		mov	r6, r0
 146 000c 2CD04DE2 		sub	sp, sp, #44
 147              		.cfi_def_cfa_offset 92
 148              		.loc 1 125 0
 149 0010 54308DE2 		add	r3, sp, #84
 150 0014 14808DE2 		add	r8, sp, #20
 151 0018 10308DE5 		str	r3, [sp, #16]
 152              		.loc 1 112 0
 153 001c 50509DE5 		ldr	r5, [sp, #80]
 154 0020 15308DE2 		add	r3, sp, #21
 155 0024 03B068E0 		rsb	fp, r8, r3
 156              	.LVL22:
 157              	.L14:
 158              		.loc 1 127 0
 159 0028 0010D5E5 		ldrb	r1, [r5]	@ zero_extendqisi2
 160 002c 013085E2 		add	r3, r5, #1
 161              	.LVL23:
 162              		.loc 1 128 0
 163 0030 000051E3 		cmp	r1, #0
 164 0034 0A00000A 		beq	.L93
 165              	.L103:
 166              		.loc 1 132 0
 167 0038 250051E3 		cmp	r1, #37
 168 003c 0C00000A 		beq	.L16
 169              		.loc 1 127 0
 170 0040 0350A0E1 		mov	r5, r3
 171              		.loc 1 133 0
ARM GAS  /tmp/ccyFNOym.s 			page 4


 172 0044 002096E5 		ldr	r2, [r6]
 173 0048 0600A0E1 		mov	r0, r6
 174 004c 082092E5 		ldr	r2, [r2, #8]
 175 0050 32FF2FE1 		blx	r2
 176              	.LVL24:
 177              		.loc 1 127 0
 178 0054 0010D5E5 		ldrb	r1, [r5]	@ zero_extendqisi2
 179 0058 013085E2 		add	r3, r5, #1
 180              	.LVL25:
 181              		.loc 1 128 0
 182 005c 000051E3 		cmp	r1, #0
 183 0060 F4FFFF1A 		bne	.L103
 184              	.L93:
 185              		.loc 1 263 0
 186 0064 2CD08DE2 		add	sp, sp, #44
 187              		.cfi_remember_state
 188              		.cfi_def_cfa_offset 48
 189              		@ sp needed
 190 0068 F04FBDE8 		ldmfd	sp!, {r4, r5, r6, r7, r8, r9, r10, fp, lr}
 191              		.cfi_restore 14
 192              		.cfi_restore 11
 193              		.cfi_restore 10
 194              		.cfi_restore 9
 195              		.cfi_restore 8
 196              		.cfi_restore 7
 197              		.cfi_restore 6
 198              		.cfi_restore 5
 199              		.cfi_restore 4
 200              		.cfi_def_cfa_offset 12
 201              	.LVL26:
 202 006c 0CD08DE2 		add	sp, sp, #12
 203              		.cfi_restore 3
 204              		.cfi_restore 2
 205              		.cfi_restore 1
 206              		.cfi_def_cfa_offset 0
 207 0070 1EFF2FE1 		bx	lr
 208              	.LVL27:
 209              	.L16:
 210              		.cfi_restore_state
 211              		.loc 1 139 0
 212 0074 0120D5E5 		ldrb	r2, [r5, #1]	@ zero_extendqisi2
 213              		.loc 1 148 0
 214 0078 0040A0E3 		mov	r4, #0
 215              		.loc 1 139 0
 216 007c 2D0052E3 		cmp	r2, #45
 217 0080 0220D505 		ldreqb	r2, [r5, #2]	@ zero_extendqisi2
 218              		.loc 1 140 0
 219 0084 02308502 		addeq	r3, r5, #2
 220              	.LVL28:
 221              		.loc 1 141 0
 222 0088 0190A003 		moveq	r9, #1
 223              		.loc 1 138 0
 224 008c 0090A013 		movne	r9, #0
 225              	.LVL29:
 226              		.loc 1 144 0
 227 0090 2E0052E3 		cmp	r2, #46
 228 0094 0120D305 		ldreqb	r2, [r3, #1]	@ zero_extendqisi2
ARM GAS  /tmp/ccyFNOym.s 			page 5


 229              		.loc 1 145 0
 230 0098 01308302 		addeq	r3, r3, #1
 231              	.LVL30:
 232              		.loc 1 146 0
 233 009c 3070A003 		moveq	r7, #48
 234              		.loc 1 143 0
 235 00a0 2070A013 		movne	r7, #32
 236              	.LVL31:
 237 00a4 10C09DE5 		ldr	ip, [sp, #16]
 238 00a8 011083E2 		add	r1, r3, #1
 239              	.LVL32:
 240 00ac 040000EA 		b	.L22
 241              	.LVL33:
 242              	.L104:
 243              		.loc 1 154 0
 244 00b0 0030DCE5 		ldrb	r3, [ip]	@ zero_extendqisi2
 245              	.LVL34:
 246 00b4 04C08CE2 		add	ip, ip, #4
 247              	.LVL35:
 248              	.L20:
 249 00b8 0020D5E5 		ldrb	r2, [r5]	@ zero_extendqisi2
 250              		.loc 1 157 0
 251 00bc 804083E0 		add	r4, r3, r0, asl #1
 252              	.LVL36:
 253 00c0 011081E2 		add	r1, r1, #1
 254              	.LVL37:
 255              	.L22:
 256              		.loc 1 151 0
 257 00c4 303042E2 		sub	r3, r2, #48
 258 00c8 7330EFE6 		uxtb	r3, r3
 259 00cc 090053E3 		cmp	r3, #9
 260              		.loc 1 157 0
 261 00d0 040184E0 		add	r0, r4, r4, asl #2
 262              		.loc 1 150 0
 263 00d4 0150A0E1 		mov	r5, r1
 264              	.LVL38:
 265              		.loc 1 151 0
 266 00d8 F6FFFF9A 		bls	.L20
 267              		.loc 1 153 0
 268 00dc 2A0052E3 		cmp	r2, #42
 269 00e0 F2FFFF0A 		beq	.L104
 270              		.loc 1 160 0
 271 00e4 2E0052E3 		cmp	r2, #46
 272 00e8 0010A0E3 		mov	r1, #0
 273              	.LVL39:
 274 00ec 10C08DE5 		str	ip, [sp, #16]
 275              	.LVL40:
 276 00f0 4200000A 		beq	.L26
 277              	.LVL41:
 278              		.loc 1 174 0
 279 00f4 DF3002E2 		and	r3, r2, #223
 280 00f8 4C0053E3 		cmp	r3, #76
 281 00fc 4B00001A 		bne	.L27
 282              	.L105:
 283              	.LVL42:
 284              		.loc 1 176 0
 285 0100 0030D5E5 		ldrb	r3, [r5]	@ zero_extendqisi2
ARM GAS  /tmp/ccyFNOym.s 			page 6


 286 0104 000053E3 		cmp	r3, #0
 287              		.loc 1 177 0
 288 0108 0320A011 		movne	r2, r3
 289              	.LVL43:
 290              		.loc 1 183 0
 291 010c 443042E2 		sub	r3, r2, #68
 292              		.loc 1 177 0
 293 0110 01508512 		addne	r5, r5, #1
 294              	.LVL44:
 295              		.loc 1 183 0
 296 0114 340053E3 		cmp	r3, #52
 297 0118 03F19F97 		ldrls	pc, [pc, r3, asl #2]
 298 011c 060100EA 		b	.L29
 299              	.L60:
 300 0120 B8050000 		.word	.L45
 301 0124 3C050000 		.word	.L29
 302 0128 3C050000 		.word	.L29
 303 012c 3C050000 		.word	.L29
 304 0130 3C050000 		.word	.L29
 305 0134 3C050000 		.word	.L29
 306 0138 3C050000 		.word	.L29
 307 013c 3C050000 		.word	.L29
 308 0140 3C050000 		.word	.L29
 309 0144 3C050000 		.word	.L29
 310 0148 3C050000 		.word	.L29
 311 014c 8C050000 		.word	.L75
 312 0150 3C050000 		.word	.L29
 313 0154 3C050000 		.word	.L29
 314 0158 3C050000 		.word	.L29
 315 015c 3C050000 		.word	.L29
 316 0160 3C050000 		.word	.L29
 317 0164 50050000 		.word	.L76
 318 0168 3C050000 		.word	.L29
 319 016c 3C050000 		.word	.L29
 320 0170 FC050000 		.word	.L61
 321 0174 3C050000 		.word	.L29
 322 0178 3C050000 		.word	.L29
 323 017c 3C050000 		.word	.L29
 324 0180 3C050000 		.word	.L29
 325 0184 3C050000 		.word	.L29
 326 0188 3C050000 		.word	.L29
 327 018c 3C050000 		.word	.L29
 328 0190 3C050000 		.word	.L29
 329 0194 3C050000 		.word	.L29
 330 0198 3C050000 		.word	.L29
 331 019c 14050000 		.word	.L35
 332 01a0 B8050000 		.word	.L45
 333 01a4 3C050000 		.word	.L29
 334 01a8 CC030000 		.word	.L36
 335 01ac 3C050000 		.word	.L29
 336 01b0 3C050000 		.word	.L29
 337 01b4 3C050000 		.word	.L29
 338 01b8 3C050000 		.word	.L29
 339 01bc 3C050000 		.word	.L29
 340 01c0 3C050000 		.word	.L29
 341 01c4 3C050000 		.word	.L29
 342 01c8 3C050000 		.word	.L29
ARM GAS  /tmp/ccyFNOym.s 			page 7


 343 01cc 8C050000 		.word	.L75
 344 01d0 3C050000 		.word	.L29
 345 01d4 3C050000 		.word	.L29
 346 01d8 3C050000 		.word	.L29
 347 01dc 2C030000 		.word	.L37
 348 01e0 3C050000 		.word	.L29
 349 01e4 50050000 		.word	.L76
 350 01e8 3C050000 		.word	.L29
 351 01ec 3C050000 		.word	.L29
 352 01f0 FC050000 		.word	.L61
 353              	.LVL45:
 354              	.L25:
 355              		.loc 1 166 0
 356 01f4 0030DCE5 		ldrb	r3, [ip]	@ zero_extendqisi2
 357              	.LVL46:
 358 01f8 04C08CE2 		add	ip, ip, #4
 359              	.LVL47:
 360              	.L24:
 361              		.loc 1 170 0
 362 01fc 801083E0 		add	r1, r3, r0, asl #1
 363              	.LVL48:
 364              	.L26:
 365              		.loc 1 162 0
 366 0200 0120D5E4 		ldrb	r2, [r5], #1	@ zero_extendqisi2
 367              	.LVL49:
 368              		.loc 1 169 0
 369 0204 010181E0 		add	r0, r1, r1, asl #2
 370              		.loc 1 163 0
 371 0208 303042E2 		sub	r3, r2, #48
 372 020c 7330EFE6 		uxtb	r3, r3
 373 0210 090053E3 		cmp	r3, #9
 374 0214 F8FFFF9A 		bls	.L24
 375              		.loc 1 165 0
 376 0218 2A0052E3 		cmp	r2, #42
 377 021c F4FFFF0A 		beq	.L25
 378              		.loc 1 174 0
 379 0220 DF3002E2 		and	r3, r2, #223
 380 0224 4C0053E3 		cmp	r3, #76
 381 0228 10C08DE5 		str	ip, [sp, #16]
 382              	.LVL50:
 383 022c B3FFFF0A 		beq	.L105
 384              	.L27:
 385              		.loc 1 180 0
 386 0230 413042E2 		sub	r3, r2, #65
 387 0234 7330EFE6 		uxtb	r3, r3
 388 0238 190053E3 		cmp	r3, #25
 389 023c 0030A083 		movhi	r3, #0
 390 0240 0130A093 		movls	r3, #1
 391              		.loc 1 183 0
 392 0244 440042E2 		sub	r0, r2, #68
 393              		.loc 1 180 0
 394 0248 03C0A0E1 		mov	ip, r3
 395              	.LVL51:
 396              		.loc 1 183 0
 397 024c 340050E3 		cmp	r0, #52
 398 0250 00F19F97 		ldrls	pc, [pc, r0, asl #2]
 399 0254 B80000EA 		b	.L29
ARM GAS  /tmp/ccyFNOym.s 			page 8


 400              	.L31:
 401 0258 B0050000 		.word	.L30
 402 025c 3C050000 		.word	.L29
 403 0260 3C050000 		.word	.L29
 404 0264 3C050000 		.word	.L29
 405 0268 3C050000 		.word	.L29
 406 026c 3C050000 		.word	.L29
 407 0270 3C050000 		.word	.L29
 408 0274 3C050000 		.word	.L29
 409 0278 3C050000 		.word	.L29
 410 027c 3C050000 		.word	.L29
 411 0280 3C050000 		.word	.L29
 412 0284 90050000 		.word	.L32
 413 0288 3C050000 		.word	.L29
 414 028c 3C050000 		.word	.L29
 415 0290 3C050000 		.word	.L29
 416 0294 3C050000 		.word	.L29
 417 0298 3C050000 		.word	.L29
 418 029c 54050000 		.word	.L33
 419 02a0 3C050000 		.word	.L29
 420 02a4 3C050000 		.word	.L29
 421 02a8 F4050000 		.word	.L70
 422 02ac 3C050000 		.word	.L29
 423 02b0 3C050000 		.word	.L29
 424 02b4 3C050000 		.word	.L29
 425 02b8 3C050000 		.word	.L29
 426 02bc 3C050000 		.word	.L29
 427 02c0 3C050000 		.word	.L29
 428 02c4 3C050000 		.word	.L29
 429 02c8 3C050000 		.word	.L29
 430 02cc 3C050000 		.word	.L29
 431 02d0 3C050000 		.word	.L29
 432 02d4 14050000 		.word	.L35
 433 02d8 B0050000 		.word	.L30
 434 02dc 3C050000 		.word	.L29
 435 02e0 CC030000 		.word	.L36
 436 02e4 3C050000 		.word	.L29
 437 02e8 3C050000 		.word	.L29
 438 02ec 3C050000 		.word	.L29
 439 02f0 3C050000 		.word	.L29
 440 02f4 3C050000 		.word	.L29
 441 02f8 3C050000 		.word	.L29
 442 02fc 3C050000 		.word	.L29
 443 0300 3C050000 		.word	.L29
 444 0304 90050000 		.word	.L32
 445 0308 3C050000 		.word	.L29
 446 030c 3C050000 		.word	.L29
 447 0310 3C050000 		.word	.L29
 448 0314 2C030000 		.word	.L37
 449 0318 3C050000 		.word	.L29
 450 031c 54050000 		.word	.L33
 451 0320 3C050000 		.word	.L29
 452 0324 3C050000 		.word	.L29
 453 0328 F4050000 		.word	.L70
 454              	.LVL52:
 455              	.L37:
 456              		.loc 1 190 0
ARM GAS  /tmp/ccyFNOym.s 			page 9


 457 032c 10309DE5 		ldr	r3, [sp, #16]
 458              		.loc 1 191 0
 459 0330 44239FE5 		ldr	r2, .L109
 460              	.LVL53:
 461              		.loc 1 190 0
 462 0334 00A093E5 		ldr	r10, [r3]
 463              	.LVL54:
 464 0338 043083E2 		add	r3, r3, #4
 465              		.loc 1 191 0
 466 033c 00005AE3 		cmp	r10, #0
 467 0340 02A0A001 		moveq	r10, r2
 468              	.LVL55:
 469              		.loc 1 192 0
 470 0344 000051E3 		cmp	r1, #0
 471              		.loc 1 190 0
 472 0348 10308DE5 		str	r3, [sp, #16]
 473              		.loc 1 194 0
 474 034c 0030DAE5 		ldrb	r3, [r10]	@ zero_extendqisi2
 475              		.loc 1 192 0
 476 0350 B400000A 		beq	.L40
 477              	.LVL56:
 478              		.loc 1 194 0 discriminator 1
 479 0354 000053E3 		cmp	r3, #0
 480 0358 B500000A 		beq	.L41
 481              		.loc 1 194 0 is_stmt 0
 482 035c 011041E2 		sub	r1, r1, #1
 483              	.LVL57:
 484              	.L62:
 485              		.loc 1 194 0 discriminator 4
 486 0360 0A00A0E1 		mov	r0, r10
 487 0364 010000EA 		b	.L43
 488              	.LVL58:
 489              	.L106:
 490              		.loc 1 194 0 discriminator 3
 491 0368 010071E3 		cmn	r1, #1
 492 036c 0300000A 		beq	.L99
 493              	.LVL59:
 494              	.L43:
 495              		.loc 1 194 0 discriminator 4
 496 0370 0130F0E5 		ldrb	r3, [r0, #1]!	@ zero_extendqisi2
 497              	.LVL60:
 498 0374 011041E2 		sub	r1, r1, #1
 499              	.LVL61:
 500 0378 000053E3 		cmp	r3, #0
 501 037c F9FFFF1A 		bne	.L106
 502              	.L99:
 503 0380 00006AE0 		rsb	r0, r10, r0
 504              	.LVL62:
 505              		.loc 1 242 0 is_stmt 1
 506 0384 044060E0 		rsb	r4, r0, r4
 507              	.LVL63:
 508              		.loc 1 244 0
 509 0388 000059E3 		cmp	r9, #0
 510 038c 013040E2 		sub	r3, r0, #1
 511              		.loc 1 189 0
 512 0390 2070A0E3 		mov	r7, #32
 513              	.LVL64:
ARM GAS  /tmp/ccyFNOym.s 			page 10


 514 0394 C44FC4E1 		bic	r4, r4, r4, asr #31
 515              	.LVL65:
 516              		.loc 1 244 0
 517 0398 4300000A 		beq	.L107
 518              	.LVL66:
 519              	.L52:
 520              		.loc 1 255 0
 521 039c 009053E2 		subs	r9, r3, #0
 522              	.LVL67:
 523 03a0 520000AA 		bge	.L58
 524              	.LVL68:
 525              	.L57:
 526              		.loc 1 258 0
 527 03a4 000054E3 		cmp	r4, #0
 528 03a8 1EFFFF0A 		beq	.L14
 529              	.L59:
 530              		.loc 1 259 0
 531 03ac 003096E5 		ldr	r3, [r6]
 532 03b0 0600A0E1 		mov	r0, r6
 533 03b4 083093E5 		ldr	r3, [r3, #8]
 534 03b8 0710A0E1 		mov	r1, r7
 535 03bc 33FF2FE1 		blx	r3
 536              	.LVL69:
 537              		.loc 1 258 0
 538 03c0 014054E2 		subs	r4, r4, #1
 539              	.LVL70:
 540 03c4 F8FFFF1A 		bne	.L59
 541 03c8 16FFFFEA 		b	.L14
 542              	.LVL71:
 543              	.L36:
 544              		.loc 1 211 0
 545 03cc 10309DE5 		ldr	r3, [sp, #16]
 546 03d0 082083E2 		add	r2, r3, #8
 547              	.LVL72:
 548 03d4 030093E8 		ldmia	r3, {r0-r1}
 549 03d8 10208DE5 		str	r2, [sp, #16]
 550 03dc FEFFFFEB 		bl	__truncdfsf2
 551              	.LVL73:
 552              		.loc 1 212 0
 553 03e0 0010A0E3 		mov	r1, #0
 554              		.loc 1 211 0
 555 03e4 00A0A0E1 		mov	r10, r0
 556              	.LVL74:
 557              		.loc 1 212 0
 558 03e8 FEFFFFEB 		bl	__ltsf2
 559              	.LVL75:
 560 03ec 000050E3 		cmp	r0, #0
 561              	.LVL76:
 562              		.loc 1 213 0
 563 03f0 2D30A0B3 		movlt	r3, #45
 564              		.loc 1 136 0
 565 03f4 0830A0A1 		movge	r3, r8
 566              		.loc 1 214 0
 567 03f8 02A18AB2 		addlt	r10, r10, #-2147483648
 568              	.LVL77:
 569              		.loc 1 213 0
 570 03fc 1430CDB5 		strltb	r3, [sp, #20]
ARM GAS  /tmp/ccyFNOym.s 			page 11


 571              	.LBB12:
 572              	.LBB13:
 573              		.loc 1 83 0
 574 0400 0A00A0E1 		mov	r0, r10
 575              	.LBE13:
 576              	.LBE12:
 577              		.loc 1 213 0
 578 0404 15308DB2 		addlt	r3, sp, #21
 579 0408 00308DE5 		str	r3, [sp]
 580              	.LVL78:
 581              	.LBB17:
 582              	.LBB14:
 583              		.loc 1 83 0
 584 040c FEFFFFEB 		bl	__fixsfsi
 585              	.LVL79:
 586 0410 0020A0E1 		mov	r2, r0
 587              	.LVL80:
 588              		.loc 1 84 0
 589 0414 00309DE5 		ldr	r3, [sp]
 590 0418 0210A0E1 		mov	r1, r2
 591 041c 0300A0E1 		mov	r0, r3
 592              	.LVL81:
 593 0420 00208DE5 		str	r2, [sp]
 594 0424 0030A0E3 		mov	r3, #0
 595 0428 0A20A0E3 		mov	r2, #10
 596 042c FEFFFFEB 		bl	long_to_string_with_divisor
 597              	.LVL82:
 598              		.loc 1 85 0
 599 0430 2E30A0E3 		mov	r3, #46
 600 0434 00C0A0E1 		mov	ip, r0
 601              	.LBE14:
 602              	.LBE17:
 603              		.loc 1 216 0
 604 0438 0A00A0E1 		mov	r0, r10
 605              	.LVL83:
 606              	.LBB18:
 607              	.LBB15:
 608              		.loc 1 85 0
 609 043c 0130CCE4 		strb	r3, [ip], #1
 610              	.LVL84:
 611 0440 0CC08DE5 		str	ip, [sp, #12]
 612 0444 04C08DE5 		str	ip, [sp, #4]
 613              	.LBE15:
 614              	.LBE18:
 615              		.loc 1 216 0
 616 0448 FEFFFFEB 		bl	__extendsfdf2
 617              	.LVL85:
 618 044c 03008DE9 		stmib	sp, {r0-r1}
 619              	.LBB19:
 620              	.LBB16:
 621              		.loc 1 86 0
 622 0450 00009DE5 		ldr	r0, [sp]
 623 0454 FEFFFFEB 		bl	__floatsidf
 624              	.LVL86:
 625 0458 0020A0E1 		mov	r2, r0
 626 045c 0130A0E1 		mov	r3, r1
 627 0460 03009DE9 		ldmib	sp, {r0-r1}
ARM GAS  /tmp/ccyFNOym.s 			page 12


 628 0464 FEFFFFEB 		bl	__subdf3
 629              	.LVL87:
 630 0468 0020A0E3 		mov	r2, #0
 631 046c 0C329FE5 		ldr	r3, .L109+4
 632 0470 FEFFFFEB 		bl	__muldf3
 633              	.LVL88:
 634 0474 FEFFFFEB 		bl	__fixdfsi
 635              	.LVL89:
 636              		.loc 1 87 0
 637 0478 0CC09DE5 		ldr	ip, [sp, #12]
 638              		.loc 1 86 0
 639 047c 0010A0E1 		mov	r1, r0
 640              		.loc 1 87 0
 641 0480 FC319FE5 		ldr	r3, .L109+8
 642 0484 0C00A0E1 		mov	r0, ip
 643 0488 0A20A0E3 		mov	r2, #10
 644 048c FEFFFFEB 		bl	long_to_string_with_divisor
 645              	.LVL90:
 646              	.LBE16:
 647              	.LBE19:
 648              		.loc 1 137 0
 649 0490 08A0A0E1 		mov	r10, r8
 650              	.LVL91:
 651 0494 000068E0 		rsb	r0, r8, r0
 652 0498 013040E2 		sub	r3, r0, #1
 653              	.LVL92:
 654              	.L38:
 655              		.loc 1 242 0
 656 049c 044060E0 		rsb	r4, r0, r4
 657              	.LVL93:
 658              		.loc 1 244 0
 659 04a0 000059E3 		cmp	r9, #0
 660 04a4 C44FC4E1 		bic	r4, r4, r4, asr #31
 661              	.LVL94:
 662 04a8 BBFFFF1A 		bne	.L52
 663              	.LVL95:
 664              	.L107:
 665              		.loc 1 245 0
 666 04ac 004064E2 		rsb	r4, r4, #0
 667              	.LVL96:
 668              		.loc 1 246 0
 669 04b0 000054E3 		cmp	r4, #0
 670 04b4 4B00000A 		beq	.L73
 671              		.loc 1 247 0
 672 04b8 0020DAE5 		ldrb	r2, [r10]	@ zero_extendqisi2
 673 04bc 2D0052E3 		cmp	r2, #45
 674 04c0 30005703 		cmpeq	r7, #48
 675 04c4 0390A011 		movne	r9, r3
 676              	.LVL97:
 677 04c8 6300000A 		beq	.L108
 678              	.LVL98:
 679              	.L55:
 680              		.loc 1 252 0 discriminator 1
 681 04cc 003096E5 		ldr	r3, [r6]
 682 04d0 0600A0E1 		mov	r0, r6
 683 04d4 083093E5 		ldr	r3, [r3, #8]
 684 04d8 0710A0E1 		mov	r1, r7
ARM GAS  /tmp/ccyFNOym.s 			page 13


 685 04dc 33FF2FE1 		blx	r3
 686              	.LVL99:
 687              		.loc 1 253 0 discriminator 1
 688 04e0 014094E2 		adds	r4, r4, #1
 689              	.LVL100:
 690 04e4 F8FFFF1A 		bne	.L55
 691              	.LVL101:
 692              		.loc 1 255 0
 693 04e8 000059E3 		cmp	r9, #0
 694 04ec CDFEFFBA 		blt	.L14
 695              	.LVL102:
 696              	.L58:
 697              		.loc 1 256 0
 698 04f0 003096E5 		ldr	r3, [r6]
 699              		.loc 1 255 0
 700 04f4 019049E2 		sub	r9, r9, #1
 701              	.LVL103:
 702              		.loc 1 256 0
 703 04f8 083093E5 		ldr	r3, [r3, #8]
 704 04fc 0600A0E1 		mov	r0, r6
 705 0500 0110DAE4 		ldrb	r1, [r10], #1	@ zero_extendqisi2
 706              	.LVL104:
 707 0504 33FF2FE1 		blx	r3
 708              	.LVL105:
 709              		.loc 1 255 0
 710 0508 010079E3 		cmn	r9, #1
 711 050c F7FFFF1A 		bne	.L58
 712 0510 A3FFFFEA 		b	.L57
 713              	.LVL106:
 714              	.L35:
 715              		.loc 1 186 0
 716 0514 10309DE5 		ldr	r3, [sp, #16]
 717 0518 0B00A0E1 		mov	r0, fp
 718 051c 002093E5 		ldr	r2, [r3]
 719              	.LVL107:
 720 0520 043083E2 		add	r3, r3, #4
 721 0524 10308DE5 		str	r3, [sp, #16]
 722 0528 1420CDE5 		strb	r2, [sp, #20]
 723 052c 01304BE2 		sub	r3, fp, #1
 724              		.loc 1 185 0
 725 0530 2070A0E3 		mov	r7, #32
 726              		.loc 1 137 0
 727 0534 08A0A0E1 		mov	r10, r8
 728              		.loc 1 187 0
 729 0538 D7FFFFEA 		b	.L38
 730              	.LVL108:
 731              	.L29:
 732 053c 0B00A0E1 		mov	r0, fp
 733              		.loc 1 137 0
 734 0540 08A0A0E1 		mov	r10, r8
 735              		.loc 1 238 0
 736 0544 1420CDE5 		strb	r2, [sp, #20]
 737 0548 01304BE2 		sub	r3, fp, #1
 738              		.loc 1 239 0
 739 054c D2FFFFEA 		b	.L38
 740              	.LVL109:
 741              	.L76:
ARM GAS  /tmp/ccyFNOym.s 			page 14


 742              		.loc 1 183 0
 743 0550 01C0A0E3 		mov	ip, #1
 744              	.LVL110:
 745              	.L33:
 746              		.loc 1 226 0
 747 0554 0A20A0E3 		mov	r2, #10
 748              	.LVL111:
 749              	.L34:
 750              		.loc 1 231 0
 751 0558 00005CE3 		cmp	ip, #0
 752 055c 0E00001A 		bne	.L65
 753              	.L50:
 754              		.loc 1 234 0
 755 0560 10309DE5 		ldr	r3, [sp, #16]
 756 0564 040083E2 		add	r0, r3, #4
 757 0568 001093E5 		ldr	r1, [r3]
 758              	.LVL112:
 759 056c 10008DE5 		str	r0, [sp, #16]
 760              	.L51:
 761              	.LVL113:
 762              	.LBB20:
 763              	.LBB21:
 764              		.loc 1 75 0
 765 0570 0800A0E1 		mov	r0, r8
 766              	.LVL114:
 767              	.L100:
 768 0574 0030A0E3 		mov	r3, #0
 769 0578 FEFFFFEB 		bl	long_to_string_with_divisor
 770              	.LVL115:
 771 057c 000068E0 		rsb	r0, r8, r0
 772 0580 013040E2 		sub	r3, r0, #1
 773              	.LBE21:
 774              	.LBE20:
 775              		.loc 1 137 0
 776 0584 08A0A0E1 		mov	r10, r8
 777              		.loc 1 236 0
 778 0588 C3FFFFEA 		b	.L38
 779              	.LVL116:
 780              	.L75:
 781              		.loc 1 183 0
 782 058c 01C0A0E3 		mov	ip, #1
 783              	.LVL117:
 784              	.L32:
 785              		.loc 1 231 0
 786 0590 00005CE3 		cmp	ip, #0
 787 0594 0820A0E3 		mov	r2, #8
 788              	.LVL118:
 789 0598 F0FFFF0A 		beq	.L50
 790              	.L65:
 791              		.loc 1 232 0
 792 059c 10309DE5 		ldr	r3, [sp, #16]
 793 05a0 041083E2 		add	r1, r3, #4
 794              	.LVL119:
 795 05a4 10108DE5 		str	r1, [sp, #16]
 796 05a8 001093E5 		ldr	r1, [r3]
 797              	.LVL120:
 798 05ac EFFFFFEA 		b	.L51
ARM GAS  /tmp/ccyFNOym.s 			page 15


 799              	.LVL121:
 800              	.L30:
 801              		.loc 1 199 0
 802 05b0 000053E3 		cmp	r3, #0
 803 05b4 1600000A 		beq	.L44
 804              	.LVL122:
 805              	.L45:
 806              		.loc 1 200 0
 807 05b8 10309DE5 		ldr	r3, [sp, #16]
 808 05bc 042083E2 		add	r2, r3, #4
 809              	.LVL123:
 810 05c0 001093E5 		ldr	r1, [r3]
 811              	.LVL124:
 812 05c4 10208DE5 		str	r2, [sp, #16]
 813              	.L46:
 814              		.loc 1 203 0
 815 05c8 000051E3 		cmp	r1, #0
 816              	.LVL125:
 817              		.loc 1 204 0
 818 05cc 2D30A0B3 		movlt	r3, #45
 819              		.loc 1 205 0
 820 05d0 001061B2 		rsblt	r1, r1, #0
 821              	.LVL126:
 822              		.loc 1 204 0
 823 05d4 1430CDB5 		strltb	r3, [sp, #20]
 824 05d8 15008DB2 		addlt	r0, sp, #21
 825              		.loc 1 136 0
 826 05dc 0800A0A1 		movge	r0, r8
 827              	.LVL127:
 828              	.LBB22:
 829              	.LBB23:
 830              		.loc 1 75 0
 831 05e0 0A20A0E3 		mov	r2, #10
 832 05e4 E2FFFFEA 		b	.L100
 833              	.LVL128:
 834              	.L73:
 835              	.LBE23:
 836              	.LBE22:
 837              		.loc 1 255 0
 838 05e8 009053E2 		subs	r9, r3, #0
 839              	.LVL129:
 840 05ec BFFFFFAA 		bge	.L58
 841 05f0 8CFEFFEA 		b	.L14
 842              	.LVL130:
 843              	.L70:
 844              		.loc 1 183 0
 845 05f4 1020A0E3 		mov	r2, #16
 846              	.LVL131:
 847 05f8 D6FFFFEA 		b	.L34
 848              	.LVL132:
 849              	.L61:
 850              		.loc 1 232 0
 851 05fc 10309DE5 		ldr	r3, [sp, #16]
 852              		.loc 1 183 0
 853 0600 1020A0E3 		mov	r2, #16
 854              	.LVL133:
 855              		.loc 1 232 0
ARM GAS  /tmp/ccyFNOym.s 			page 16


 856 0604 041083E2 		add	r1, r3, #4
 857              	.LVL134:
 858 0608 10108DE5 		str	r1, [sp, #16]
 859 060c 001093E5 		ldr	r1, [r3]
 860              	.LVL135:
 861 0610 D6FFFFEA 		b	.L51
 862              	.LVL136:
 863              	.L44:
 864              		.loc 1 202 0
 865 0614 10309DE5 		ldr	r3, [sp, #16]
 866              	.LVL137:
 867 0618 042083E2 		add	r2, r3, #4
 868              	.LVL138:
 869 061c 001093E5 		ldr	r1, [r3]
 870              	.LVL139:
 871 0620 10208DE5 		str	r2, [sp, #16]
 872 0624 E7FFFFEA 		b	.L46
 873              	.LVL140:
 874              	.L40:
 875              		.loc 1 194 0
 876 0628 000053E3 		cmp	r3, #0
 877 062c 54109F15 		ldrne	r1, .L109+12
 878 0630 4AFFFF1A 		bne	.L62
 879              	.LVL141:
 880              	.L41:
 881              		.loc 1 244 0
 882 0634 000059E3 		cmp	r9, #0
 883 0638 C44FC4E1 		bic	r4, r4, r4, asr #31
 884              	.LVL142:
 885 063c 2070A013 		movne	r7, #32
 886 0640 57FFFF1A 		bne	.L57
 887              		.loc 1 245 0
 888 0644 004064E2 		rsb	r4, r4, #0
 889              	.LVL143:
 890              		.loc 1 246 0
 891 0648 000054E3 		cmp	r4, #0
 892              		.loc 1 244 0
 893 064c 2070A0E3 		mov	r7, #32
 894              		.loc 1 246 0
 895 0650 0090E013 		mvnne	r9, #0
 896              	.LVL144:
 897 0654 9CFFFF1A 		bne	.L55
 898 0658 72FEFFEA 		b	.L14
 899              	.LVL145:
 900              	.L108:
 901              		.loc 1 248 0
 902 065c 002096E5 		ldr	r2, [r6]
 903 0660 0600A0E1 		mov	r0, r6
 904              	.LVL146:
 905 0664 082092E5 		ldr	r2, [r2, #8]
 906 0668 2D10A0E3 		mov	r1, #45
 907 066c 01A08AE2 		add	r10, r10, #1
 908              	.LVL147:
 909 0670 019043E2 		sub	r9, r3, #1
 910 0674 32FF2FE1 		blx	r2
 911              	.LVL148:
 912 0678 93FFFFEA 		b	.L55
ARM GAS  /tmp/ccyFNOym.s 			page 17


 913              	.L110:
 914              		.align	2
 915              	.L109:
 916 067c 00000000 		.word	.LC0
 917 0680 006AF840 		.word	1090021888
 918 0684 10270000 		.word	10000
 919 0688 FE7F0000 		.word	32766
 920              		.cfi_endproc
 921              	.LFE10:
 922              		.size	chprintf, .-chprintf
 923              		.section	.rodata.str1.4,"aMS",%progbits,1
 924              		.align	2
 925              	.LC0:
 926 0000 286E756C 		.ascii	"(null)\000"
 926      6C2900
 927              		.text
 928              	.Letext0:
 929              		.file 2 "/usr/lib/gcc/arm-none-eabi/4.9.3/include/stdarg.h"
 930              		.file 3 "/usr/lib/gcc/arm-none-eabi/4.9.3/include/stddef.h"
 931              		.file 4 "/usr/include/newlib/machine/_default_types.h"
 932              		.file 5 "/usr/include/newlib/sys/_stdint.h"
 933              		.file 6 "../../../os/ports/GCC/ARM/chtypes.h"
 934              		.file 7 "../../../os/kernel/include/chstreams.h"