ARM GAS  /tmp/ccIHhy0a.s 			page 1


   1              		.file	"chqueues.c"
   2              		.text
   3              	.Ltext0:
   4              		.cfi_sections	.debug_frame
   5              		.section	.text.qwait,"ax",%progbits
   6              		.align	2
   7              		.type	qwait, %function
   8              	qwait:
   9              	.LFB7:
  10              		.file 1 "../../../os/kernel/src/chqueues.c"
  11              		.loc 1 63 0
  12              		.cfi_startproc
  13              		@ args = 0, pretend = 0, frame = 0
  14              		@ frame_needed = 0, uses_anonymous_args = 0
  15              		@ link register save eliminated.
  16              	.LVL0:
  17              		.loc 1 65 0
  18 0000 000051E3 		cmp	r1, #0
  19              		.loc 1 63 0
  20 0004 0020A0E1 		mov	r2, r0
  21              		.loc 1 65 0
  22 0008 0800000A 		beq	.L2
  23              		.loc 1 67 0
  24 000c 24309FE5 		ldr	r3, .L4
  25              		.loc 1 69 0
  26 0010 0D00A0E3 		mov	r0, #13
  27              	.LVL1:
  28              		.loc 1 67 0
  29 0014 103093E5 		ldr	r3, [r3, #16]
  30 0018 142083E5 		str	r2, [r3, #20]
  31              	.LVL2:
  32              	.LBB12:
  33              	.LBB13:
  34              		.file 2 "../../../os/kernel/include/chinline.h"
  35              		.loc 2 48 0
  36 001c 04C092E5 		ldr	ip, [r2, #4]
  37 0020 041083E8 		stmia	r3, {r2, ip}
  38              		.loc 2 49 0
  39 0024 043082E5 		str	r3, [r2, #4]
  40 0028 00308CE5 		str	r3, [ip]
  41              	.LBE13:
  42              	.LBE12:
  43              		.loc 1 69 0
  44 002c FEFFFFEA 		b	chSchGoSleepTimeoutS
  45              	.LVL3:
  46              	.L2:
  47              		.loc 1 70 0
  48 0030 0000E0E3 		mvn	r0, #0
  49              	.LVL4:
  50 0034 1EFF2FE1 		bx	lr
  51              	.L5:
  52              		.align	2
  53              	.L4:
  54 0038 00000000 		.word	rlist
  55              		.cfi_endproc
  56              	.LFE7:
  57              		.size	qwait, .-qwait
ARM GAS  /tmp/ccIHhy0a.s 			page 2


  58              		.section	.text.chIQInit,"ax",%progbits
  59              		.align	2
  60              		.global	chIQInit
  61              		.type	chIQInit, %function
  62              	chIQInit:
  63              	.LFB8:
  64              		.loc 1 89 0
  65              		.cfi_startproc
  66              		@ args = 4, pretend = 0, frame = 0
  67              		@ frame_needed = 0, uses_anonymous_args = 0
  68              	.LVL5:
  69 0000 04E02DE5 		str	lr, [sp, #-4]!
  70              		.cfi_def_cfa_offset 4
  71              		.cfi_offset 14, -4
  72              		.loc 1 92 0
  73 0004 00E0A0E3 		mov	lr, #0
  74              		.loc 1 89 0
  75 0008 04C09DE5 		ldr	ip, [sp, #4]
  76              		.loc 1 94 0
  77 000c 022081E0 		add	r2, r1, r2
  78              	.LVL6:
  79 0010 102080E5 		str	r2, [r0, #16]
  80              		.loc 1 91 0
  81 0014 040080E5 		str	r0, [r0, #4]
  82 0018 000080E5 		str	r0, [r0]
  83              		.loc 1 93 0
  84 001c 141080E5 		str	r1, [r0, #20]
  85 0020 181080E5 		str	r1, [r0, #24]
  86 0024 0C1080E5 		str	r1, [r0, #12]
  87              		.loc 1 95 0
  88 0028 1C3080E5 		str	r3, [r0, #28]
  89              		.loc 1 92 0
  90 002c 08E080E5 		str	lr, [r0, #8]
  91              		.loc 1 96 0
  92 0030 20C080E5 		str	ip, [r0, #32]
  93 0034 04F09DE4 		ldr	pc, [sp], #4
  94              		.cfi_endproc
  95              	.LFE8:
  96              		.size	chIQInit, .-chIQInit
  97              		.section	.text.chIQResetI,"ax",%progbits
  98              		.align	2
  99              		.global	chIQResetI
 100              		.type	chIQResetI, %function
 101              	chIQResetI:
 102              	.LFB9:
 103              		.loc 1 110 0
 104              		.cfi_startproc
 105              		@ args = 0, pretend = 0, frame = 0
 106              		@ frame_needed = 0, uses_anonymous_args = 0
 107              	.LVL7:
 108 0000 30402DE9 		stmfd	sp!, {r4, r5, lr}
 109              		.cfi_def_cfa_offset 12
 110              		.cfi_offset 4, -12
 111              		.cfi_offset 5, -8
 112              		.cfi_offset 14, -4
 113              		.loc 1 110 0
 114 0004 0040A0E1 		mov	r4, r0
ARM GAS  /tmp/ccIHhy0a.s 			page 3


 115              		.loc 1 115 0
 116 0008 0020A0E3 		mov	r2, #0
 117              		.loc 1 116 0
 118 000c 000090E5 		ldr	r0, [r0]
 119              	.LVL8:
 120              		.loc 1 114 0
 121 0010 0C3094E5 		ldr	r3, [r4, #12]
 122              		.loc 1 116 0
 123 0014 040050E1 		cmp	r0, r4
 124              		.loc 1 115 0
 125 0018 082084E5 		str	r2, [r4, #8]
 126              		.loc 1 114 0
 127 001c 143084E5 		str	r3, [r4, #20]
 128 0020 183084E5 		str	r3, [r4, #24]
 129              		.loc 1 116 0
 130 0024 3080BD08 		ldmeqfd	sp!, {r4, r5, pc}
 131              		.loc 1 117 0
 132 0028 0150E0E3 		mvn	r5, #1
 133              	.L10:
 134              	.LVL9:
 135              	.LBB14:
 136              	.LBB15:
 137              		.loc 2 55 0
 138 002c 003090E5 		ldr	r3, [r0]
 139 0030 003084E5 		str	r3, [r4]
 140 0034 044083E5 		str	r4, [r3, #4]
 141              	.LBE15:
 142              	.LBE14:
 143              		.loc 1 117 0
 144 0038 FEFFFFEB 		bl	chSchReadyI
 145              	.LVL10:
 146 003c 145080E5 		str	r5, [r0, #20]
 147              		.loc 1 116 0
 148 0040 000094E5 		ldr	r0, [r4]
 149 0044 040050E1 		cmp	r0, r4
 150 0048 F7FFFF1A 		bne	.L10
 151 004c 3080BDE8 		ldmfd	sp!, {r4, r5, pc}
 152              		.cfi_endproc
 153              	.LFE9:
 154              		.size	chIQResetI, .-chIQResetI
 155              		.section	.text.chIQPutI,"ax",%progbits
 156              		.align	2
 157              		.global	chIQPutI
 158              		.type	chIQPutI, %function
 159              	chIQPutI:
 160              	.LFB10:
 161              		.loc 1 133 0
 162              		.cfi_startproc
 163              		@ args = 0, pretend = 0, frame = 0
 164              		@ frame_needed = 0, uses_anonymous_args = 0
 165              	.LVL11:
 166              		.loc 1 137 0
 167 0000 183090E5 		ldr	r3, [r0, #24]
 168 0004 142090E5 		ldr	r2, [r0, #20]
 169              		.loc 1 133 0
 170 0008 7110EFE6 		uxtb	r1, r1
 171              		.loc 1 137 0
ARM GAS  /tmp/ccIHhy0a.s 			page 4


 172 000c 030052E1 		cmp	r2, r3
 173 0010 083090E5 		ldr	r3, [r0, #8]
 174 0014 1900000A 		beq	.L23
 175              	.L16:
 176              		.loc 1 140 0
 177 0018 013083E2 		add	r3, r3, #1
 178              		.loc 1 141 0
 179 001c 01C082E2 		add	ip, r2, #1
 180 0020 14C080E5 		str	ip, [r0, #20]
 181              		.loc 1 140 0
 182 0024 083080E5 		str	r3, [r0, #8]
 183              		.loc 1 141 0
 184 0028 0010C2E5 		strb	r1, [r2]
 185              		.loc 1 142 0
 186 002c 142090E5 		ldr	r2, [r0, #20]
 187 0030 103090E5 		ldr	r3, [r0, #16]
 188 0034 030052E1 		cmp	r2, r3
 189              		.loc 1 143 0
 190 0038 0C309025 		ldrcs	r3, [r0, #12]
 191              		.loc 1 145 0
 192 003c 002090E5 		ldr	r2, [r0]
 193              		.loc 1 143 0
 194 0040 14308025 		strcs	r3, [r0, #20]
 195              		.loc 1 145 0
 196 0044 000052E1 		cmp	r2, r0
 197 0048 0A00000A 		beq	.L20
 198 004c 0030A0E1 		mov	r3, r0
 199              	.LVL12:
 200              	.LBB16:
 201              	.LBB17:
 202              		.loc 2 55 0
 203 0050 001092E5 		ldr	r1, [r2]
 204              	.LVL13:
 205              	.LBE17:
 206              	.LBE16:
 207              		.loc 1 133 0
 208 0054 04E02DE5 		str	lr, [sp, #-4]!
 209              		.cfi_def_cfa_offset 4
 210              		.cfi_offset 14, -4
 211              		.loc 1 146 0
 212 0058 0200A0E1 		mov	r0, r2
 213              	.LVL14:
 214              	.LBB19:
 215              	.LBB18:
 216              		.loc 2 55 0
 217 005c 001083E5 		str	r1, [r3]
 218 0060 043081E5 		str	r3, [r1, #4]
 219              	.LBE18:
 220              	.LBE19:
 221              		.loc 1 146 0
 222 0064 FEFFFFEB 		bl	chSchReadyI
 223              	.LVL15:
 224 0068 0030A0E3 		mov	r3, #0
 225 006c 143080E5 		str	r3, [r0, #20]
 226              		.loc 1 148 0
 227 0070 0300A0E1 		mov	r0, r3
 228 0074 04F09DE4 		ldr	pc, [sp], #4
ARM GAS  /tmp/ccIHhy0a.s 			page 5


 229              	.LVL16:
 230              	.L20:
 231              		.cfi_def_cfa_offset 0
 232              		.cfi_restore 14
 233 0078 0000A0E3 		mov	r0, #0
 234              	.LVL17:
 235 007c 1EFF2FE1 		bx	lr
 236              	.LVL18:
 237              	.L23:
 238              		.loc 1 137 0 discriminator 1
 239 0080 000053E3 		cmp	r3, #0
 240 0084 E3FFFF0A 		beq	.L16
 241              		.loc 1 138 0
 242 0088 0300E0E3 		mvn	r0, #3
 243              	.LVL19:
 244 008c 1EFF2FE1 		bx	lr
 245              		.cfi_endproc
 246              	.LFE10:
 247              		.size	chIQPutI, .-chIQPutI
 248              		.section	.text.chIQGetTimeout,"ax",%progbits
 249              		.align	2
 250              		.global	chIQGetTimeout
 251              		.type	chIQGetTimeout, %function
 252              	chIQGetTimeout:
 253              	.LFB11:
 254              		.loc 1 171 0
 255              		.cfi_startproc
 256              		@ args = 0, pretend = 0, frame = 0
 257              		@ frame_needed = 0, uses_anonymous_args = 0
 258              	.LVL20:
 259 0000 30402DE9 		stmfd	sp!, {r4, r5, lr}
 260              		.cfi_def_cfa_offset 12
 261              		.cfi_offset 4, -12
 262              		.cfi_offset 5, -8
 263              		.cfi_offset 14, -4
 264              		.loc 1 171 0
 265 0004 0150A0E1 		mov	r5, r1
 266 0008 0040A0E1 		mov	r4, r0
 267              		.loc 1 174 0
 268              	@ 174 "../../../os/kernel/src/chqueues.c" 1
 269 000c 9FF021E3 		msr     CPSR_c, #0x9F
 270              	@ 0 "" 2
 271              		.loc 1 175 0
 272 0010 1C3090E5 		ldr	r3, [r0, #28]
 273 0014 000053E3 		cmp	r3, #0
 274 0018 0600000A 		beq	.L26
 275              		.loc 1 176 0
 276 001c 33FF2FE1 		blx	r3
 277              	.LVL21:
 278 0020 040000EA 		b	.L26
 279              	.L28:
 280              	.LBB20:
 281              		.loc 1 180 0
 282 0024 0400A0E1 		mov	r0, r4
 283 0028 0510A0E1 		mov	r1, r5
 284 002c FEFFFFEB 		bl	qwait
 285              	.LVL22:
ARM GAS  /tmp/ccIHhy0a.s 			page 6


 286 0030 000050E3 		cmp	r0, #0
 287 0034 0C0000BA 		blt	.L29
 288              	.LVL23:
 289              	.L26:
 290              	.LBE20:
 291              		.loc 1 178 0
 292 0038 083094E5 		ldr	r3, [r4, #8]
 293 003c 000053E3 		cmp	r3, #0
 294 0040 F7FFFF0A 		beq	.L28
 295              		.loc 1 187 0
 296 0044 182094E5 		ldr	r2, [r4, #24]
 297              		.loc 1 188 0
 298 0048 100094E5 		ldr	r0, [r4, #16]
 299              		.loc 1 187 0
 300 004c 011082E2 		add	r1, r2, #1
 301              		.loc 1 186 0
 302 0050 013043E2 		sub	r3, r3, #1
 303              		.loc 1 188 0
 304 0054 000051E1 		cmp	r1, r0
 305              		.loc 1 186 0
 306 0058 083084E5 		str	r3, [r4, #8]
 307              		.loc 1 189 0
 308 005c 0C309425 		ldrcs	r3, [r4, #12]
 309              		.loc 1 187 0
 310 0060 181084E5 		str	r1, [r4, #24]
 311 0064 0000D2E5 		ldrb	r0, [r2]	@ zero_extendqisi2
 312              	.LVL24:
 313              		.loc 1 189 0
 314 0068 18308425 		strcs	r3, [r4, #24]
 315              	.LVL25:
 316              	.L29:
 317              		.loc 1 191 0
 318              	@ 191 "../../../os/kernel/src/chqueues.c" 1
 319 006c 1FF021E3 		msr     CPSR_c, #0x1F
 320              	@ 0 "" 2
 321              		.loc 1 193 0
 322 0070 3080BDE8 		ldmfd	sp!, {r4, r5, pc}
 323              		.cfi_endproc
 324              	.LFE11:
 325              		.size	chIQGetTimeout, .-chIQGetTimeout
 326              		.section	.text.chIQReadTimeout,"ax",%progbits
 327              		.align	2
 328              		.global	chIQReadTimeout
 329              		.type	chIQReadTimeout, %function
 330              	chIQReadTimeout:
 331              	.LFB12:
 332              		.loc 1 220 0
 333              		.cfi_startproc
 334              		@ args = 0, pretend = 0, frame = 0
 335              		@ frame_needed = 0, uses_anonymous_args = 0
 336              	.LVL26:
 337 0000 F0432DE9 		stmfd	sp!, {r4, r5, r6, r7, r8, r9, lr}
 338              		.cfi_def_cfa_offset 28
 339              		.cfi_offset 4, -28
 340              		.cfi_offset 5, -24
 341              		.cfi_offset 6, -20
 342              		.cfi_offset 7, -16
ARM GAS  /tmp/ccIHhy0a.s 			page 7


 343              		.cfi_offset 8, -12
 344              		.cfi_offset 9, -8
 345              		.cfi_offset 14, -4
 346              		.loc 1 220 0
 347 0004 0040A0E1 		mov	r4, r0
 348 0008 0180A0E1 		mov	r8, r1
 349 000c 0290A0E1 		mov	r9, r2
 350 0010 0350A0E1 		mov	r5, r3
 351              		.loc 1 221 0
 352 0014 1C7090E5 		ldr	r7, [r0, #28]
 353              	.LVL27:
 354              		.loc 1 226 0
 355              	@ 226 "../../../os/kernel/src/chqueues.c" 1
 356 0018 9FF021E3 		msr     CPSR_c, #0x9F
 357              	@ 0 "" 2
 358              		.loc 1 222 0
 359 001c 0060A0E3 		mov	r6, #0
 360              	.LVL28:
 361              	.L41:
 362              		.loc 1 228 0
 363 0020 000057E3 		cmp	r7, #0
 364 0024 0700000A 		beq	.L37
 365              		.loc 1 229 0
 366 0028 0400A0E1 		mov	r0, r4
 367 002c 37FF2FE1 		blx	r7
 368              	.LVL29:
 369 0030 040000EA 		b	.L37
 370              	.L39:
 371              		.loc 1 232 0
 372 0034 0400A0E1 		mov	r0, r4
 373 0038 0510A0E1 		mov	r1, r5
 374 003c FEFFFFEB 		bl	qwait
 375              	.LVL30:
 376 0040 000050E3 		cmp	r0, #0
 377 0044 1400001A 		bne	.L48
 378              	.L37:
 379              		.loc 1 231 0
 380 0048 083094E5 		ldr	r3, [r4, #8]
 381 004c 000053E3 		cmp	r3, #0
 382 0050 F7FFFF0A 		beq	.L39
 383              		.loc 1 239 0
 384 0054 182094E5 		ldr	r2, [r4, #24]
 385              		.loc 1 238 0
 386 0058 013043E2 		sub	r3, r3, #1
 387              		.loc 1 239 0
 388 005c 011082E2 		add	r1, r2, #1
 389 0060 181084E5 		str	r1, [r4, #24]
 390              		.loc 1 238 0
 391 0064 083084E5 		str	r3, [r4, #8]
 392              		.loc 1 239 0
 393 0068 0030D2E5 		ldrb	r3, [r2]	@ zero_extendqisi2
 394 006c 0130C8E4 		strb	r3, [r8], #1
 395              	.LVL31:
 396              		.loc 1 240 0
 397 0070 103094E5 		ldr	r3, [r4, #16]
 398 0074 182094E5 		ldr	r2, [r4, #24]
 399 0078 030052E1 		cmp	r2, r3
ARM GAS  /tmp/ccIHhy0a.s 			page 8


 400              		.loc 1 241 0
 401 007c 0C309425 		ldrcs	r3, [r4, #12]
 402 0080 18308425 		strcs	r3, [r4, #24]
 403              		.loc 1 243 0
 404              	@ 243 "../../../os/kernel/src/chqueues.c" 1
 405 0084 1FF021E3 		msr     CPSR_c, #0x1F
 406              	@ 0 "" 2
 407              		.loc 1 244 0
 408 0088 016086E2 		add	r6, r6, #1
 409              	.LVL32:
 410              		.loc 1 245 0
 411 008c 060059E1 		cmp	r9, r6
 412 0090 0200000A 		beq	.L38
 413              		.loc 1 248 0
 414              	@ 248 "../../../os/kernel/src/chqueues.c" 1
 415 0094 9FF021E3 		msr     CPSR_c, #0x9F
 416              	@ 0 "" 2
 417              		.loc 1 249 0
 418 0098 E0FFFFEA 		b	.L41
 419              	.LVL33:
 420              	.L48:
 421              		.loc 1 233 0
 422              	@ 233 "../../../os/kernel/src/chqueues.c" 1
 423 009c 1FF021E3 		msr     CPSR_c, #0x1F
 424              	@ 0 "" 2
 425              	.LVL34:
 426              	.L38:
 427              		.loc 1 250 0
 428 00a0 0600A0E1 		mov	r0, r6
 429 00a4 F083BDE8 		ldmfd	sp!, {r4, r5, r6, r7, r8, r9, pc}
 430              		.cfi_endproc
 431              	.LFE12:
 432              		.size	chIQReadTimeout, .-chIQReadTimeout
 433              		.section	.text.chOQInit,"ax",%progbits
 434              		.align	2
 435              		.global	chOQInit
 436              		.type	chOQInit, %function
 437              	chOQInit:
 438              	.LFB13:
 439              		.loc 1 269 0
 440              		.cfi_startproc
 441              		@ args = 4, pretend = 0, frame = 0
 442              		@ frame_needed = 0, uses_anonymous_args = 0
 443              	.LVL35:
 444 0000 04E02DE5 		str	lr, [sp, #-4]!
 445              		.cfi_def_cfa_offset 4
 446              		.cfi_offset 14, -4
 447              		.loc 1 269 0
 448 0004 04C09DE5 		ldr	ip, [sp, #4]
 449              		.loc 1 274 0
 450 0008 02E081E0 		add	lr, r1, r2
 451              		.loc 1 271 0
 452 000c 040080E5 		str	r0, [r0, #4]
 453 0010 000080E5 		str	r0, [r0]
 454              		.loc 1 272 0
 455 0014 082080E5 		str	r2, [r0, #8]
 456              		.loc 1 274 0
ARM GAS  /tmp/ccIHhy0a.s 			page 9


 457 0018 10E080E5 		str	lr, [r0, #16]
 458              		.loc 1 273 0
 459 001c 141080E5 		str	r1, [r0, #20]
 460 0020 181080E5 		str	r1, [r0, #24]
 461 0024 0C1080E5 		str	r1, [r0, #12]
 462              		.loc 1 275 0
 463 0028 1C3080E5 		str	r3, [r0, #28]
 464              		.loc 1 276 0
 465 002c 20C080E5 		str	ip, [r0, #32]
 466 0030 04F09DE4 		ldr	pc, [sp], #4
 467              		.cfi_endproc
 468              	.LFE13:
 469              		.size	chOQInit, .-chOQInit
 470              		.section	.text.chOQResetI,"ax",%progbits
 471              		.align	2
 472              		.global	chOQResetI
 473              		.type	chOQResetI, %function
 474              	chOQResetI:
 475              	.LFB14:
 476              		.loc 1 290 0
 477              		.cfi_startproc
 478              		@ args = 0, pretend = 0, frame = 0
 479              		@ frame_needed = 0, uses_anonymous_args = 0
 480              	.LVL36:
 481 0000 30402DE9 		stmfd	sp!, {r4, r5, lr}
 482              		.cfi_def_cfa_offset 12
 483              		.cfi_offset 4, -12
 484              		.cfi_offset 5, -8
 485              		.cfi_offset 14, -4
 486              		.loc 1 290 0
 487 0004 0040A0E1 		mov	r4, r0
 488              		.loc 1 294 0
 489 0008 0C2090E5 		ldr	r2, [r0, #12]
 490              		.loc 1 295 0
 491 000c 103090E5 		ldr	r3, [r0, #16]
 492              		.loc 1 296 0
 493 0010 000090E5 		ldr	r0, [r0]
 494              	.LVL37:
 495              		.loc 1 295 0
 496 0014 033062E0 		rsb	r3, r2, r3
 497              		.loc 1 296 0
 498 0018 040050E1 		cmp	r0, r4
 499              		.loc 1 294 0
 500 001c 142084E5 		str	r2, [r4, #20]
 501 0020 182084E5 		str	r2, [r4, #24]
 502              		.loc 1 295 0
 503 0024 083084E5 		str	r3, [r4, #8]
 504              		.loc 1 296 0
 505 0028 3080BD08 		ldmeqfd	sp!, {r4, r5, pc}
 506              		.loc 1 297 0
 507 002c 0150E0E3 		mvn	r5, #1
 508              	.L53:
 509              	.LVL38:
 510              	.LBB21:
 511              	.LBB22:
 512              		.loc 2 55 0
 513 0030 003090E5 		ldr	r3, [r0]
ARM GAS  /tmp/ccIHhy0a.s 			page 10


 514 0034 003084E5 		str	r3, [r4]
 515 0038 044083E5 		str	r4, [r3, #4]
 516              	.LBE22:
 517              	.LBE21:
 518              		.loc 1 297 0
 519 003c FEFFFFEB 		bl	chSchReadyI
 520              	.LVL39:
 521 0040 145080E5 		str	r5, [r0, #20]
 522              		.loc 1 296 0
 523 0044 000094E5 		ldr	r0, [r4]
 524 0048 040050E1 		cmp	r0, r4
 525 004c F7FFFF1A 		bne	.L53
 526 0050 3080BDE8 		ldmfd	sp!, {r4, r5, pc}
 527              		.cfi_endproc
 528              	.LFE14:
 529              		.size	chOQResetI, .-chOQResetI
 530              		.section	.text.chOQPutTimeout,"ax",%progbits
 531              		.align	2
 532              		.global	chOQPutTimeout
 533              		.type	chOQPutTimeout, %function
 534              	chOQPutTimeout:
 535              	.LFB15:
 536              		.loc 1 322 0
 537              		.cfi_startproc
 538              		@ args = 0, pretend = 0, frame = 0
 539              		@ frame_needed = 0, uses_anonymous_args = 0
 540              	.LVL40:
 541 0000 70402DE9 		stmfd	sp!, {r4, r5, r6, lr}
 542              		.cfi_def_cfa_offset 16
 543              		.cfi_offset 4, -16
 544              		.cfi_offset 5, -12
 545              		.cfi_offset 6, -8
 546              		.cfi_offset 14, -4
 547              		.loc 1 322 0
 548 0004 0040A0E1 		mov	r4, r0
 549 0008 0250A0E1 		mov	r5, r2
 550 000c 7160EFE6 		uxtb	r6, r1
 551              		.loc 1 324 0
 552              	@ 324 "../../../os/kernel/src/chqueues.c" 1
 553 0010 9FF021E3 		msr     CPSR_c, #0x9F
 554              	@ 0 "" 2
 555              		.loc 1 325 0
 556 0014 040000EA 		b	.L58
 557              	.LVL41:
 558              	.L60:
 559              	.LBB23:
 560              		.loc 1 328 0
 561 0018 0400A0E1 		mov	r0, r4
 562 001c 0510A0E1 		mov	r1, r5
 563 0020 FEFFFFEB 		bl	qwait
 564              	.LVL42:
 565 0024 000050E3 		cmp	r0, #0
 566 0028 150000BA 		blt	.L68
 567              	.LVL43:
 568              	.L58:
 569              	.LBE23:
 570              		.loc 1 325 0
ARM GAS  /tmp/ccIHhy0a.s 			page 11


 571 002c 083094E5 		ldr	r3, [r4, #8]
 572 0030 000053E3 		cmp	r3, #0
 573 0034 F7FFFF0A 		beq	.L60
 574              		.loc 1 335 0
 575 0038 142094E5 		ldr	r2, [r4, #20]
 576              		.loc 1 334 0
 577 003c 013043E2 		sub	r3, r3, #1
 578              		.loc 1 335 0
 579 0040 011082E2 		add	r1, r2, #1
 580 0044 141084E5 		str	r1, [r4, #20]
 581              		.loc 1 334 0
 582 0048 083084E5 		str	r3, [r4, #8]
 583              		.loc 1 335 0
 584 004c 0060C2E5 		strb	r6, [r2]
 585              		.loc 1 336 0
 586 0050 103094E5 		ldr	r3, [r4, #16]
 587 0054 142094E5 		ldr	r2, [r4, #20]
 588 0058 030052E1 		cmp	r2, r3
 589              		.loc 1 337 0
 590 005c 0C309425 		ldrcs	r3, [r4, #12]
 591 0060 14308425 		strcs	r3, [r4, #20]
 592              		.loc 1 339 0
 593 0064 1C3094E5 		ldr	r3, [r4, #28]
 594 0068 000053E3 		cmp	r3, #0
 595 006c 0100000A 		beq	.L62
 596              		.loc 1 340 0
 597 0070 0400A0E1 		mov	r0, r4
 598 0074 33FF2FE1 		blx	r3
 599              	.LVL44:
 600              	.L62:
 601              		.loc 1 342 0
 602              	@ 342 "../../../os/kernel/src/chqueues.c" 1
 603 0078 1FF021E3 		msr     CPSR_c, #0x1F
 604              	@ 0 "" 2
 605              		.loc 1 343 0
 606 007c 0000A0E3 		mov	r0, #0
 607              		.loc 1 344 0
 608 0080 7080BDE8 		ldmfd	sp!, {r4, r5, r6, pc}
 609              	.LVL45:
 610              	.L68:
 611              	.LBB24:
 612              		.loc 1 329 0
 613              	@ 329 "../../../os/kernel/src/chqueues.c" 1
 614 0084 1FF021E3 		msr     CPSR_c, #0x1F
 615              	@ 0 "" 2
 616              		.loc 1 330 0
 617 0088 7080BDE8 		ldmfd	sp!, {r4, r5, r6, pc}
 618              	.LBE24:
 619              		.cfi_endproc
 620              	.LFE15:
 621              		.size	chOQPutTimeout, .-chOQPutTimeout
 622              		.section	.text.chOQGetI,"ax",%progbits
 623              		.align	2
 624              		.global	chOQGetI
 625              		.type	chOQGetI, %function
 626              	chOQGetI:
 627              	.LFB16:
ARM GAS  /tmp/ccIHhy0a.s 			page 12


 628              		.loc 1 356 0
 629              		.cfi_startproc
 630              		@ args = 0, pretend = 0, frame = 0
 631              		@ frame_needed = 0, uses_anonymous_args = 0
 632              	.LVL46:
 633              		.loc 1 361 0
 634 0000 143090E5 		ldr	r3, [r0, #20]
 635 0004 182090E5 		ldr	r2, [r0, #24]
 636              		.loc 1 356 0
 637 0008 10402DE9 		stmfd	sp!, {r4, lr}
 638              		.cfi_def_cfa_offset 8
 639              		.cfi_offset 4, -8
 640              		.cfi_offset 14, -4
 641              		.loc 1 361 0
 642 000c 020053E1 		cmp	r3, r2
 643 0010 083090E5 		ldr	r3, [r0, #8]
 644 0014 1500000A 		beq	.L77
 645              	.L71:
 646              		.loc 1 366 0
 647 0018 10C090E5 		ldr	ip, [r0, #16]
 648              		.loc 1 364 0
 649 001c 013083E2 		add	r3, r3, #1
 650              		.loc 1 365 0
 651 0020 011082E2 		add	r1, r2, #1
 652              		.loc 1 366 0
 653 0024 0C0051E1 		cmp	r1, ip
 654              		.loc 1 364 0
 655 0028 083080E5 		str	r3, [r0, #8]
 656              		.loc 1 365 0
 657 002c 181080E5 		str	r1, [r0, #24]
 658 0030 0040D2E5 		ldrb	r4, [r2]	@ zero_extendqisi2
 659              	.LVL47:
 660              		.loc 1 367 0
 661 0034 0C309025 		ldrcs	r3, [r0, #12]
 662              		.loc 1 369 0
 663 0038 002090E5 		ldr	r2, [r0]
 664              		.loc 1 367 0
 665 003c 18308025 		strcs	r3, [r0, #24]
 666              		.loc 1 369 0
 667 0040 000052E1 		cmp	r2, r0
 668 0044 0700000A 		beq	.L74
 669 0048 0030A0E1 		mov	r3, r0
 670              	.LVL48:
 671              	.LBB25:
 672              	.LBB26:
 673              		.loc 2 55 0
 674 004c 001092E5 		ldr	r1, [r2]
 675              	.LBE26:
 676              	.LBE25:
 677              		.loc 1 370 0
 678 0050 0200A0E1 		mov	r0, r2
 679              	.LVL49:
 680              	.LBB28:
 681              	.LBB27:
 682              		.loc 2 55 0
 683 0054 001083E5 		str	r1, [r3]
 684 0058 043081E5 		str	r3, [r1, #4]
ARM GAS  /tmp/ccIHhy0a.s 			page 13


 685              	.LBE27:
 686              	.LBE28:
 687              		.loc 1 370 0
 688 005c FEFFFFEB 		bl	chSchReadyI
 689              	.LVL50:
 690 0060 0030A0E3 		mov	r3, #0
 691 0064 143080E5 		str	r3, [r0, #20]
 692              	.LVL51:
 693              	.L74:
 694              		.loc 1 372 0
 695 0068 0400A0E1 		mov	r0, r4
 696 006c 1080BDE8 		ldmfd	sp!, {r4, pc}
 697              	.LVL52:
 698              	.L77:
 699              		.loc 1 361 0 discriminator 1
 700 0070 000053E3 		cmp	r3, #0
 701 0074 E7FFFF0A 		beq	.L71
 702              		.loc 1 362 0
 703 0078 0200E0E3 		mvn	r0, #2
 704              	.LVL53:
 705              		.loc 1 373 0
 706 007c 1080BDE8 		ldmfd	sp!, {r4, pc}
 707              		.cfi_endproc
 708              	.LFE16:
 709              		.size	chOQGetI, .-chOQGetI
 710              		.section	.text.chOQWriteTimeout,"ax",%progbits
 711              		.align	2
 712              		.global	chOQWriteTimeout
 713              		.type	chOQWriteTimeout, %function
 714              	chOQWriteTimeout:
 715              	.LFB17:
 716              		.loc 1 400 0
 717              		.cfi_startproc
 718              		@ args = 0, pretend = 0, frame = 0
 719              		@ frame_needed = 0, uses_anonymous_args = 0
 720              	.LVL54:
 721 0000 F0472DE9 		stmfd	sp!, {r4, r5, r6, r7, r8, r9, r10, lr}
 722              		.cfi_def_cfa_offset 32
 723              		.cfi_offset 4, -32
 724              		.cfi_offset 5, -28
 725              		.cfi_offset 6, -24
 726              		.cfi_offset 7, -20
 727              		.cfi_offset 8, -16
 728              		.cfi_offset 9, -12
 729              		.cfi_offset 10, -8
 730              		.cfi_offset 14, -4
 731              		.loc 1 400 0
 732 0004 0040A0E1 		mov	r4, r0
 733 0008 0150A0E1 		mov	r5, r1
 734 000c 0260A0E1 		mov	r6, r2
 735 0010 0390A0E1 		mov	r9, r3
 736              		.loc 1 401 0
 737 0014 1C8090E5 		ldr	r8, [r0, #28]
 738              	.LVL55:
 739              		.loc 1 406 0
 740              	@ 406 "../../../os/kernel/src/chqueues.c" 1
 741 0018 9FF021E3 		msr     CPSR_c, #0x9F
ARM GAS  /tmp/ccIHhy0a.s 			page 14


 742              	@ 0 "" 2
 743              		.loc 1 402 0
 744 001c 0070A0E3 		mov	r7, #0
 745              	.LVL56:
 746              	.L79:
 747              		.loc 1 408 0
 748 0020 083094E5 		ldr	r3, [r4, #8]
 749              		.loc 1 415 0
 750 0024 01A085E2 		add	r10, r5, #1
 751              	.LVL57:
 752              		.loc 1 408 0
 753 0028 000053E3 		cmp	r3, #0
 754              		.loc 1 414 0
 755 002c 012043E2 		sub	r2, r3, #1
 756              		.loc 1 408 0
 757 0030 1500000A 		beq	.L82
 758              		.loc 1 415 0
 759 0034 143094E5 		ldr	r3, [r4, #20]
 760              		.loc 1 414 0
 761 0038 082084E5 		str	r2, [r4, #8]
 762              		.loc 1 415 0
 763 003c 012083E2 		add	r2, r3, #1
 764 0040 142084E5 		str	r2, [r4, #20]
 765 0044 0020D5E5 		ldrb	r2, [r5]	@ zero_extendqisi2
 766 0048 0020C3E5 		strb	r2, [r3]
 767              		.loc 1 416 0
 768 004c 103094E5 		ldr	r3, [r4, #16]
 769 0050 142094E5 		ldr	r2, [r4, #20]
 770 0054 030052E1 		cmp	r2, r3
 771              		.loc 1 417 0
 772 0058 0C309425 		ldrcs	r3, [r4, #12]
 773 005c 14308425 		strcs	r3, [r4, #20]
 774              		.loc 1 419 0
 775 0060 000058E3 		cmp	r8, #0
 776 0064 0100000A 		beq	.L84
 777              		.loc 1 420 0
 778 0068 0400A0E1 		mov	r0, r4
 779 006c 38FF2FE1 		blx	r8
 780              	.LVL58:
 781              	.L84:
 782              		.loc 1 422 0
 783              	@ 422 "../../../os/kernel/src/chqueues.c" 1
 784 0070 1FF021E3 		msr     CPSR_c, #0x1F
 785              	@ 0 "" 2
 786              		.loc 1 424 0
 787 0074 016056E2 		subs	r6, r6, #1
 788              	.LVL59:
 789              		.loc 1 423 0
 790 0078 017087E2 		add	r7, r7, #1
 791              	.LVL60:
 792              		.loc 1 424 0
 793 007c 0800000A 		beq	.L81
 794              		.loc 1 426 0
 795              	@ 426 "../../../os/kernel/src/chqueues.c" 1
 796 0080 9FF021E3 		msr     CPSR_c, #0x9F
 797              	@ 0 "" 2
 798              		.loc 1 415 0
ARM GAS  /tmp/ccIHhy0a.s 			page 15


 799 0084 0A50A0E1 		mov	r5, r10
 800              		.loc 1 427 0
 801 0088 E4FFFFEA 		b	.L79
 802              	.LVL61:
 803              	.L82:
 804              		.loc 1 409 0
 805 008c 0400A0E1 		mov	r0, r4
 806 0090 0910A0E1 		mov	r1, r9
 807 0094 FEFFFFEB 		bl	qwait
 808              	.LVL62:
 809 0098 000050E3 		cmp	r0, #0
 810 009c DFFFFF0A 		beq	.L79
 811              		.loc 1 410 0
 812              	@ 410 "../../../os/kernel/src/chqueues.c" 1
 813 00a0 1FF021E3 		msr     CPSR_c, #0x1F
 814              	@ 0 "" 2
 815              	.LVL63:
 816              	.L81:
 817              		.loc 1 428 0
 818 00a4 0700A0E1 		mov	r0, r7
 819 00a8 F087BDE8 		ldmfd	sp!, {r4, r5, r6, r7, r8, r9, r10, pc}
 820              		.cfi_endproc
 821              	.LFE17:
 822              		.size	chOQWriteTimeout, .-chOQWriteTimeout
 823              		.text
 824              	.Letext0:
 825              		.file 3 "/usr/lib/gcc/arm-none-eabi/4.9.3/include/stddef.h"
 826              		.file 4 "/usr/include/newlib/machine/_default_types.h"
 827              		.file 5 "/usr/include/newlib/sys/_stdint.h"
 828              		.file 6 "../../../os/ports/GCC/ARM/chtypes.h"
 829              		.file 7 "../../../os/kernel/include/chlists.h"
 830              		.file 8 "../../../os/kernel/include/chthreads.h"
 831              		.file 9 "../../../os/ports/GCC/ARM/chcore.h"
 832              		.file 10 "../../../os/kernel/include/chschd.h"
 833              		.file 11 "../../../os/kernel/include/chmtx.h"
 834              		.file 12 "../../../os/kernel/include/chqueues.h"