ARM GAS  /tmp/ccIHhy0a.s 			page 1


   1              		.file	"chqueues.c"
   2              		.text
   3              	.Ltext0:
   4              		.cfi_sections	.debug_frame
   5              		.section	.text.qwait,"ax",%progbits
   6              		.align	2
   7              		.type	qwait, %function
   8              	qwait:
   9              	.LFB7:
  10              		.file 1 "../../../os/kernel/src/chqueues.c"
  11              		.loc 1 63 0
  12              		.cfi_startproc
  13              		@ args = 0, pretend = 0, frame = 0
  14              		@ frame_needed = 0, uses_anonymous_args = 0
  15              		@ link register save eliminated.
  16              	.LVL0:
  17              		.loc 1 65 0
  18 0000 000051E3 		cmp	r1, #0
  19              		.loc 1 63 0
  20 0004 0020A0E1 		mov	r2, r0
  21              		.loc 1 65 0
  22 0008 0800000A 		beq	.L2
  23              		.loc 1 67 0
  24 000c 24309FE5 		ldr	r3, .L4
  25              		.loc 1 69 0
  26 0010 0D00A0E3 		mov	r0, #13
  27              	.LVL1:
  28              		.loc 1 67 0
  29 0014 103093E5 		ldr	r3, [r3, #16]
  30 0018 142083E5 		str	r2, [r3, #20]
  31              	.LVL2:
  32              	.LBB12:
  33              	.LBB13:
  34              		.file 2 "../../../os/kernel/include/chinline.h"
  35              		.loc 2 48 0
  36 001c 04C092E5 		ldr	ip, [r2, #4]
  37 0020 041083E8 		stmia	r3, {r2, ip}
  38              		.loc 2 49 0
  39 0024 043082E5 		str	r3, [r2, #4]
  40 0028 00308CE5 		str	r3, [ip]
  41              	.LBE13:
  42              	.LBE12:
  43              		.loc 1 69 0
  44 002c FEFFFFEA 		b	chSchGoSleepTimeoutS
  45              	.LVL3:
  46              	.L2:
  47              		.loc 1 70 0
  48 0030 0000E0E3 		mvn	r0, #0
  49              	.LVL4:
  50 0034 1EFF2FE1 		bx	lr
  51              	.L5:
  52              		.align	2
  53              	.L4:
  54 0038 00000000 		.word	rlist
  55              		.cfi_endproc
  56              	.LFE7:
  57              		.size	qwait, .-qwait
ARM GAS  /tmp/ccIHhy0a.s 			page 2


  58              		.section	.text.chIQInit,"ax",%progbits
  59              		.align	2
  60              		.global	chIQInit
  61              		.type	chIQInit, %function
  62              	chIQInit:
  63              	.LFB8:
  64              		.loc 1 89 0
  65              		.cfi_startproc
  66              		@ args = 4, pretend = 0, frame = 0
  67              		@ frame_needed = 0, uses_anonymous_args = 0
  68              	.LVL5:
  69 0000 04E02DE5 		str	lr, [sp, #-4]!
  70              		.cfi_def_cfa_offset 4
  71              		.cfi_offset 14, -4
  72              		.loc 1 92 0
  73 0004 00E0A0E3 		mov	lr, #0
  74              		.loc 1 89 0
  75 0008 04C09DE5 		ldr	ip, [sp, #4]
  76              		.loc 1 94 0
  77 000c 022081E0 		add	r2, r1, r2
  78              	.LVL6:
  79 0010 102080E5 		str	r2, [r0, #16]
  80              		.loc 1 91 0
  81 0014 040080E5 		str	r0, [r0, #4]
  82 0018 000080E5 		str	r0, [r0]
  83              		.loc 1 93 0
  84 001c 141080E5 		str	r1, [r0, #20]
  85 0020 181080E5 		str	r1, [r0, #24]
  86 0024 0C1080E5 		str	r1, [r0, #12]
  87              		.loc 1 95 0
  88 0028 1C3080E5 		str	r3, [r0, #28]
  89              		.loc 1 92 0
  90 002c 08E080E5 		str	lr, [r0, #8]
  91              		.loc 1 96 0
  92 0030 20C080E5 		str	ip, [r0, #32]
  93 0034 04F09DE4 		ldr	pc, [sp], #4
  94              		.cfi_endproc
  95              	.LFE8:
  96              		.size	chIQInit, .-chIQInit
  97              		.section	.text.chIQResetI,"ax",%progbits
  98              		.align	2
  99              		.global	chIQResetI
 100              		.type	chIQResetI, %function
 101              	chIQResetI:
 102              	.LFB9:
 103              		.loc 1 110 0
 104              		.cfi_startproc
 105              		@ args = 0, pretend = 0, frame = 0
 106              		@ frame_needed = 0, uses_anonymous_args = 0
 107              	.LVL7:
 108 0000 30402DE9 		stmfd	sp!, {r4, r5, lr}
 109              		.cfi_def_cfa_offset 12
 110              		.cfi_offset 4, -12
 111              		.cfi_offset 5, -8
 112              		.cfi_offset 14, -4
 113              		.loc 1 110 0
 114 0004 0040A0E1 		mov	r4, r0
ARM GAS  /tmp/ccIHhy0a.s 			page 3


 115              		.loc 1 115 0
 116 0008 0020A0E3 		mov	r2, #0
 117              		.loc 1 116 0
 118 000c 000090E5 		ldr	r0, [r0]
 119              	.LVL8:
 120              		.loc 1 114 0
 121 0010 0C3094E5 		ldr	r3, [r4, #12]
 122              		.loc 1 116 0
 123 0014 040050E1 		cmp	r0, r4
 124              		.loc 1 115 0
 125 0018 082084E5 		str	r2, [r4, #8]
 126              		.loc 1 114 0
 127 001c 143084E5 		str	r3, [r4, #20]
 128 0020 183084E5 		str	r3, [r4, #24]
 129              		.loc 1 116 0
 130 0024 3080BD08 		ldmeqfd	sp!, {r4, r5, pc}
 131              		.loc 1 117 0
 132 0028 0150E0E3 		mvn	r5, #1
 133              	.L10:
 134              	.LVL9:
 135              	.LBB14:
 136              	.LBB15:
 137              		.loc 2 55 0
 138 002c 003090E5 		ldr	r3, [r0]
 139 0030 003084E5 		str	r3, [r4]
 140 0034 044083E5 		str	r4, [r3, #4]
 141              	.LBE15:
 142              	.LBE14:
 143              		.loc 1 117 0
 144 0038 FEFFFFEB 		bl	chSchReadyI
 145              	.LVL10:
 146 003c 145080E5 		str	r5, [r0, #20]
 147              		.loc 1 116 0
 148 0040 000094E5 		ldr	r0, [r4]
 149 0044 040050E1 		cmp	r0, r4
 150 0048 F7FFFF1A 		bne	.L10
 151 004c 3080BDE8 		ldmfd	sp!, {r4, r5, pc}
 152              		.cfi_endproc
 153              	.LFE9:
 154              		.size	chIQResetI, .-chIQResetI
 155              		.section	.text.chIQPutI,"ax",%progbits
 156              		.align	2
 157              		.global	chIQPutI
 158              		.type	chIQPutI, %function
 159              	chIQPutI:
 160              	.LFB10:
 161              		.loc 1 133 0
 162              		.cfi_startproc
 163              		@ args = 0, pretend = 0, frame = 0
 164              		@ frame_needed = 0, uses_anonymous_args = 0
 165              	.LVL11:
 166              		.loc 1 137 0
 167 0000 183090E5 		ldr	r3, [r0, #24]
 168 0004 142090E5 		ldr	r2, [r0, #20]
 169              		.loc 1 133 0
 170 0008 7110EFE6 		uxtb	r1, r1
 171              		.loc 1 137 0
ARM GAS  /tmp/ccIHhy0a.s 			page 4


 172 000c 030052E1 		cmp	r2, r3
 173 0010 083090E5 		ldr	r3, [r0, #8]
 174 0014 1900000A 		beq	.L23
 175              	.L16:
 176              		.loc 1 140 0
 177 0018 013083E2 		add	r3, r3, #1
 178              		.loc 1 141 0
 179 001c 01C082E2 		add	ip, r2, #1
 180 0020 14C080E5 		str	ip, [r0, #20]
 181              		.loc 1 140 0
 182 0024 083080E5 		str	r3, [r0, #8]
 183              		.loc 1 141 0
 184 0028 0010C2E5 		strb	r1, [r2]
 185              		.loc 1 142 0
 186 002c 142090E5 		ldr	r2, [r0, #20]
 187 0030 103090E5 		ldr	r3, [r0, #16]
 188 0034 030052E1 		cmp	r2, r3
 189              		.loc 1 143 0
 190 0038 0C309025 		ldrcs	r3, [r0, #12]
 191              		.loc 1 145 0
 192 003c 002090E5 		ldr	r2, [r0]
 193              		.loc 1 143 0
 194 0040 14308025 		strcs	r3, [r0, #20]
 195              		.loc 1 145 0
 196 0044 000052E1 		cmp	r2, r0
 197 0048 0A00000A 		beq	.L20
 198 004c 0030A0E1 		mov	r3, r0
 199              	.LVL12:
 200              	.LBB16:
 201              	.LBB17:
 202              		.loc 2 55 0
 203 0050 001092E5 		ldr	r1, [r2]
 204              	.LVL13:
 205              	.LBE17:
 206              	.LBE16:
 207              		.loc 1 133 0
 208 0054 04E02DE5 		str	lr, [sp, #-4]!
 209              		.cfi_def_cfa_offset 4
 210              		.cfi_offset 14, -4
 211              		.loc 1 146 0
 212 0058 0200A0E1 		mov	r0, r2
 213              	.LVL14:
 214              	.LBB19:
 215              	.LBB18:
 216              		.loc 2 55 0
 217 005c 001083E5 		str	r1, [r3]
 218 0060 043081E5 		str	r3, [r1, #4]
 219              	.LBE18:
 220              	.LBE19:
 221              		.loc 1 146 0
 222 0064 FEFFFFEB 		bl	chSchReadyI
 223              	.LVL15:
 224 0068 0030A0E3 		mov	r3, #0
 225 006c 143080E5 		str	r3, [r0, #20]
 226              		.loc 1 148 0
 227 0070 0300A0E1 		mov	r0, r3
 228 0074 04F09DE4 		ldr	pc, [sp], #4
ARM GAS  /tmp/ccIHhy0a.s 			page 5


 229              	.LVL16:
 230              	.L20:
 231              		.cfi_def_cfa_offset 0
 232              		.cfi_restore 14
 233 0078 0000A0E3 		mov	r0, #0
 234              	.LVL17:
 235 007c 1EFF2FE1 		bx	lr
 236              	.LVL18:
 237              	.L23:
 238              		.loc 1 137 0 discriminator 1
 239 0080 000053E3 		cmp	r3, #0
 240 0084 E3FFFF0A 		beq	.L16
 241              		.loc 1 138 0
 242 0088 0300E0E3 		mvn	r0, #3
 243              	.LVL19:
 244 008c 1EFF2FE1 		bx	lr
 245              		.cfi_endproc
 246              	.LFE10:
 247              		.size	chIQPutI, .-chIQPutI
 248              		.section	.text.chIQGetTimeout,"ax",%progbits
 249              		.align	2
 250              		.global	chIQGetTimeout
 251              		.type	chIQGetTimeout, %function
 252              	chIQGetTimeout:
 253              	.LFB11:
 254              		.loc 1 171 0
 255              		.cfi_startproc
 256              		@ args = 0, pretend = 0, frame = 0
 257              		@ frame_needed = 0, uses_anonymous_args = 0
 258              	.LVL20:
 259 0000 30402DE9 		stmfd	sp!, {r4, r5, lr}
 260              		.cfi_def_cfa_offset 12
 261              		.cfi_offset 4, -12
 262              		.cfi_offset 5, -8
 263              		.cfi_offset 14, -4
 264              		.loc 1 171 0
 265 0004 0150A0E1 		mov	r5, r1
 266 0008 0040A0E1 		mov	r4, r0
 267              		.loc 1 174 0
 268              	@ 174 "../../../os/kernel/src/chqueues.c" 1
 269 000c 9FF021E3 		msr     CPSR_c, #0x9F
 270              	@ 0 "" 2
 271              		.loc 1 175 0
 272 0010 1C3090E5 		ldr	r3, [r0, #28]
 273 0014 000053E3 		cmp	r3, #0
 274 0018 0600000A 		beq	.L26
 275              		.loc 1 176 0
 276 001c 33FF2FE1 		blx	r3
 277              	.LVL21:
 278 0020 040000EA 		b	.L26
 279              	.L28:
 280              	.LBB20:
 281              		.loc 1 180 0
 282 0024 0400A0E1 		mov	r0, r4
 283 0028 0510A0E1 		mov	r1, r5
 284 002c FEFFFFEB 		bl	qwait
 285              	.LVL22:
ARM GAS  /tmp/ccIHhy0a.s 			page 6


 286 0030 000050E3 		cmp	r0, #0
 287 0034 0C0000BA 		blt	.L29
 288              	.LVL23:
 289              	.L26:
 290              	.LBE20:
 291              		.loc 1 178 0
 292 0038 083094E5 		ldr	r3, [r4, #8]
 293 003c 000053E3 		cmp	r3, #0
 294 0040 F7FFFF0A 		beq	.L28
 295              		.loc 1 187 0
 296 0044 182094E5 		ldr	r2, [r4, #24]
 297              		.loc 1 188 0
 298 0048 100094E5 		ldr	r0, [r4, #16]
 299              		.loc 1 187 0
 300 004c 011082E2 		add	r1, r2, #1
 301              		.loc 1 186 0
 302 0050 013043E2 		sub	r3, r3, #1
 303              		.loc 1 188 0
 304 0054 000051E1 		cmp	r1, r0
 305              		.loc 1 186 0
 306 0058 083084E5 		str	r3, [r4, #8]
 307              		.loc 1 189 0
 308 005c 0C309425 		ldrcs	r3, [r4, #12]
 309              		.loc 1 187 0
 310 0060 181084E5 		str	r1, [r4, #24]
 311 0064 0000D2E5 		ldrb	r0, [r2]	@ zero_extendqisi2
 312              	.LVL24:
 313              		.loc 1 189 0
 314 0068 18308425 		strcs	r3, [r4, #24]
 315              	.LVL25:
 316              	.L29:
 317              		.loc 1 191 0
 318              	@ 191 "../../../os/kernel/src/chqueues.c" 1
 319 006c 1FF021E3 		msr     CPSR_c, #0x1F
 320              	@ 0 "" 2
 321              		.loc 1 193 0
 322 0070 3080BDE8 		ldmfd	sp!, {r4, r5, pc}
 323              		.cfi_endproc
 324              	.LFE11:
 325              		.size	chIQGetTimeout, .-chIQGetTimeout
 326              		.section	.text.chIQReadTimeout,"ax",%progbits
 327              		.align	2
 328              		.global	chIQReadTimeout
 329              		.type	chIQReadTimeout, %function
 330              	chIQReadTimeout:
 331              	.LFB12:
 332              		.loc 1 220 0
 333              		.cfi_startproc
 334              		@ args = 0, pretend = 0, frame = 0
 335              		@ frame_needed = 0, uses_anonymous_args = 0
 336              	.LVL26:
 337 0000 F0432DE9 		stmfd	sp!, {r4, r5, r6, r7, r8, r9, lr}
 338              		.cfi_def_cfa_offset 28
 339              		.cfi_offset 4, -28
 340              		.cfi_offset 5, -24
 341              		.cfi_offset 6, -20
 342              		.cfi_offset 7, -16
ARM GAS  /tmp/ccIHhy0a.s 			page 7


 343              		.cfi_offset 8, -12
 344              		.cfi_offset 9, -8
 345              		.cfi_offset 14, -4
 346              		.loc 1 220 0
 347 0004 0040A0E1 		mov	r4, r0
 348 0008 0180A0E1 		mov	r8, r1
 349 000c 0290A0E1 		mov	r9, r2
 350 0010 0350A0E1 		mov	r5, r3
 351              		.loc 1 221 0
 352 0014 1C7090E5 		ldr	r7, [r0, #28]
 353              	.LVL27:
 354              		.loc 1 226 0
 355              	@ 226 "../../../os/kernel/src/chqueues.c" 1
 356 0018 9FF021E3 		msr     CPSR_c, #0x9F
 357              	@ 0 "" 2
 358              		.loc 1 222 0
 359 001c 0060A0E3 		mov	r6, #0
 360              	.LVL28:
 361              	.L41:
 362              		.loc 1 228 0
 363 0020 000057E3 		cmp	r7, #0
 364 0024 0700000A 		beq	.L37
 365              		.loc 1 229 0
 366 0028 0400A0E1 		mov	r0, r4
 367 002c 37FF2FE1 		blx	r7
 368              	.LVL29:
 369 0030 040000EA 		b	.L37
 370              	.L39:
 371              		.loc 1 232 0
 372 0034 0400A0E1 		mov	r0, r4
 373 0038 0510A0E1 		mov	r1, r5
 374 003c FEFFFFEB 		bl	qwait
 375              	.LVL30:
 376 0040 000050E3 		cmp	r0, #0
 377 0044 1400001A 		bne	.L48
 378              	.L37:
 379              		.loc 1 231 0
 380 0048 083094E5 		ldr	r3, [r4, #8]
 381 004c 000053E3 		cmp	r3, #0
 382 0050 F7FFFF0A 		beq	.L39
 383              		.loc 1 239 0
 384 0054 182094E5 		ldr	r2, [r4, #24]
 385              		.loc 1 238 0
 386 0058 013043E2 		sub	r3, r3, #1
 387              		.loc 1 239 0
 388 005c 011082E2 		add	r1, r2, #1
 389 0060 181084E5 		str	r1, [r4, #24]
 390              		.loc 1 238 0
 391 0064 083084E5 		str	r3, [r4, #8]
 392              		.loc 1 239 0
 393 0068 0030D2E5 		ldrb	r3, [r2]	@ zero_extendqisi2
 394 006c 0130C8E4 		strb	r3, [r8], #1
 395              	.LVL31:
 396              		.loc 1 240 0
 397 0070 103094E5 		ldr	r3, [r4, #16]
 398 0074 182094E5 		ldr	r2, [r4, #24]
 399 0078 030052E1 		cmp	r2, r3
ARM GAS  /tmp/ccIHhy0a.s 			page 8


 400              		.loc 1 241 0
 401 007c 0C309425 		ldrcs	r3, [r4, #12]
 402 0080 18308425 		strcs	r3, [r4, #24]
 403              		.loc 1 243 0
 404              	@ 243 "../../../os/kernel/src/chqueues.c" 1
 405 0084 1FF021E3 		msr     CPSR_c, #0x1F
 406              	@ 0 "" 2
 407              		.loc 1 244 0
 408 0088 016086E2 		add	r6, r6, #1
 409              	.LVL32:
 410              		.loc 1 245 0
 411 008c 060059E1 		cmp	r9, r6
 412 0090 0200000A 		beq	.L38
 413              		.loc 1 248 0
 414              	@ 248 "../../../os/kernel/src/chqueues.c" 1
 415 0094 9FF021E3 		msr     CPSR_c, #0x9F
 416              	@ 0 "" 2
 417              		.loc 1 249 0
 418 0098 E0FFFFEA 		b	.L41
 419              	.LVL33:
 420              	.L48:
 421              		.loc 1 233 0
 422              	@ 233 "../../../os/kernel/src/chqueues.c" 1
 423 009c 1FF021E3 		msr     CPSR_c, #0x1F
 424              	@ 0 "" 2
 425              	.LVL34:
 426              	.L38:
 427              		.loc 1 250 0
 428 00a0 0600A0E1 		mov	r0, r6
 429 00a4 F083BDE8 		ldmfd	sp!, {r4, r5, r6, r7, r8, r9, pc}
 430              		.cfi_endproc
 431              	.LFE12:
 432              		.size	chIQReadTimeout, .-chIQReadTimeout
 433              		.section	.text.chOQInit,"ax",%progbits
 434              		.align	2
 435              		.global	chOQInit
 436              		.type	chOQInit, %function
 437              	chOQInit:
 438              	.LFB13:
 439              		.loc 1 269 0
 440              		.cfi_startproc
 441              		@ args = 4, pretend = 0, frame = 0
 442              		@ frame_needed = 0, uses_anonymous_args = 0
 443              	.LVL35:
 444 0000 04E02DE5 		str	lr, [sp, #-4]!
 445              		.cfi_def_cfa_offset 4
 446              		.cfi_offset 14, -4
 447              		.loc 1 269 0
 448 0004 04C09DE5 		ldr	ip, [sp, #4]
 449              		.loc 1 274 0
 450 0008 02E081E0 		add	lr, r1, r2
 451              		.loc 1 271 0
 452 000c 040080E5 		str	r0, [r0, #4]
 453 0010 000080E5 		str	r0, [r0]
 454              		.loc 1 272 0
 455 0014 082080E5 		str	r2, [r0, #8]
 456              		.loc 1 274 0
ARM GAS  /tmp/ccIHhy0a.s 			page 9


 457 0018 10E080E5 		str	lr, [r0, #16]
 458              		.loc 1 273 0
 459 001c 141080E5 		str	r1, [r0, #20]
 460 0020 181080E5 		str	r1, [r0, #24]
 461 0024 0C1080E5 		str	r1, [r0, #12]
 462              		.loc 1 275 0
 463 0028 1C3080E5 		str	r3, [r0, #28]
 464              		.loc 1 276 0
 465 002c 20C080E5 		str	ip, [r0, #32]
 466 0030 04F09DE4 		ldr	pc, [sp], #4
 467              		.cfi_endproc
 468              	.LFE13:
 469              		.size	chOQInit, .-chOQInit
 470              		.section	.text.chOQResetI,"ax",%progbits
 471              		.align	2
 472              		.global	chOQResetI
 473              		.type	chOQResetI, %function
 474              	chOQResetI:
 475              	.LFB14:
 476              		.loc 1 290 0
 477              		.cfi_startproc
 478              		@ args = 0, pretend = 0, frame = 0
 479              		@ frame_needed = 0, uses_anonymous_args = 0
 480              	.LVL36:
 481 0000 30402DE9 		stmfd	sp!, {r4, r5, lr}
 482              		.cfi_def_cfa_offset 12
 483              		.cfi_offset 4, -12
 484              		.cfi_offset 5, -8
 485              		.cfi_offset 14, -4
 486              		.loc 1 290 0
 487 0004 0040A0E1 		mov	r4, r0
 488              		.loc 1 294 0
 489 0008 0C2090E5 		ldr	r2, [r0, #12]
 490              		.loc 1 295 0
 491 000c 103090E5 		ldr	r3, [r0, #16]
 492              		.loc 1 296 0
 493 0010 000090E5 		ldr	r0, [r0]
 494              	.LVL37:
 495              		.loc 1 295 0
 496 0014 033062E0 		rsb	r3, r2, r3
 497              		.loc 1 296 0
 498 0018 040050E1 		cmp	r0, r4
 499              		.loc 1 294 0
 500 001c 142084E5 		str	r2, [r4, #20]
 501 0020 182084E5 		str	r2, [r4, #24]
 502              		.loc 1 295 0
 503 0024 083084E5 		str	r3, [r4, #8]
 504              		.loc 1 296 0
 505 0028 3080BD08 		ldmeqfd	sp!, {r4, r5, pc}
 506              		.loc 1 297 0
 507 002c 0150E0E3 		mvn	r5, #1
 508              	.L53:
 509              	.LVL38:
 510              	.LBB21:
 511              	.LBB22:
 512              		.loc 2 55 0
 513 0030 003090E5 		ldr	r3, [r0]
ARM GAS  /tmp/ccIHhy0a.s 			page 10


 514 0034 003084E5 		str	r3, [r4]
 515 0038 044083E5 		str	r4, [r3, #4]
 516              	.LBE22:
 517              	.LBE21:
 518              		.loc 1 297 0
 519 003c FEFFFFEB 		bl	chSchReadyI
 520              	.LVL39:
 521 0040 145080E5 		str	r5, [r0, #20]
 522              		.loc 1 296 0
 523 0044 000094E5 		ldr	r0, [r4]
 524 0048 040050E1 		cmp	r0, r4
 525 004c F7FFFF1A 		bne	.L53
 526 0050 3080BDE8 		ldmfd	sp!, {r4, r5, pc}
 527              		.cfi_endproc
 528              	.LFE14:
 529              		.size	chOQResetI, .-chOQResetI
 530              		.section	.text.chOQPutTimeout,"ax",%progbits
 531              		.align	2
 532              		.global	chOQPutTimeout
 533              		.type	chOQPutTimeout, %function
 534              	chOQPutTimeout:
 535              	.LFB15:
 536              		.loc 1 322 0
 537              		.cfi_startproc
 538              		@ args = 0, pretend = 0, frame = 0
 539              		@ frame_needed = 0, uses_anonymous_args = 0
 540              	.LVL40:
 541 0000 70402DE9 		stmfd	sp!, {r4, r5, r6, lr}
 542              		.cfi_def_cfa_offset 16
 543              		.cfi_offset 4, -16
 544              		.cfi_offset 5, -12
 545              		.cfi_offset 6, -8
 546              		.cfi_offset 14, -4
 547              		.loc 1 322 0
 548 0004 0040A0E1 		mov	r4, r0
 549 0008 0250A0E1 		mov	r5, r2
 550 000c 7160EFE6 		uxtb	r6, r1
 551              		.loc 1 324 0
 552              	@ 324 "../../../os/kernel/src/chqueues.c" 1
 553 0010 9FF021E3 		msr     CPSR_c, #0x9F
 554              	@ 0 "" 2
 555              		.loc 1 325 0
 556 0014 040000EA 		b	.L58
 557              	.LVL41:
 558              	.L60:
 559              	.LBB23:
 560              		.loc 1 328 0
 561 0018 0400A0E1 		mov	r0, r4
 562 001c 0510A0E1 		mov	r1, r5
 563 0020 FEFFFFEB 		bl	qwait
 564              	.LVL42:
 565 0024 000050E3 		cmp	r0, #0
 566 0028 150000BA 		blt	.L68
 567              	.LVL43:
 568              	.L58:
 569              	.LBE23:
 570              		.loc 1 325 0
ARM GAS  /tmp/ccIHhy0a.s 			page 11


 571 002c 083094E5 		ldr	r3, [r4, #8]
 572 0030 000053E3 		cmp	r3, #0
 573 0034 F7FFFF0A 		beq	.L60
 574              		.loc 1 335 0
 575 0038 142094E5 		ldr	r2, [r4, #20]
 576              		.loc 1 334 0
 577 003c 013043E2 		sub	r3, r3, #1
 578              		.loc 1 335 0
 579 0040 011082E2 		add	r1, r2, #1
 580 0044 141084E5 		str	r1, [r4, #20]
 581              		.loc 1 334 0
 582 0048 083084E5 		str	r3, [r4, #8]
 583              		.loc 1 335 0
 584 004c 0060C2E5 		strb	r6, [r2]
 585              		.loc 1 336 0
 586 0050 103094E5 		ldr	r3, [r4, #16]
 587 0054 142094E5 		ldr	r2, [r4, #20]
 588 0058 030052E1 		cmp	r2, r3
 589              		.loc 1 337 0
 590 005c 0C309425 		ldrcs	r3, [r4, #12]
 591 0060 14308425 		strcs	r3, [r4, #20]
 592              		.loc 1 339 0
 593 0064 1C3094E5 		ldr	r3, [r4, #28]
 594 0068 000053E3 		cmp	r3, #0
 595 006c 0100000A 		beq	.L62
 596              		.loc 1 340 0
 597 0070 0400A0E1 		mov	r0, r4
 598 0074 33FF2FE1 		blx	r3
 599              	.LVL44:
 600              	.L62:
 601              		.loc 1 342 0
 602              	@ 342 "../../../os/kernel/src/chqueues.c" 1
 603 0078 1FF021E3 		msr     CPSR_c, #0x1F
 604              	@ 0 "" 2
 605              		.loc 1 343 0
 606 007c 0000A0E3 		mov	r0, #0
 607              		.loc 1 344 0
 608 0080 7080BDE8 		ldmfd	sp!, {r4, r5, r6, pc}
 609              	.LVL45:
 610              	.L68:
 611              	.LBB24:
 612              		.loc 1 329 0
 613              	@ 329 "../../../os/kernel/src/chqueues.c" 1
 614 0084 1FF021E3 		msr     CPSR_c, #0x1F
 615              	@ 0 "" 2
 616              		.loc 1 330 0
 617 0088 7080BDE8 		ldmfd	sp!, {r4, r5, r6, pc}
 618              	.LBE24:
 619              		.cfi_endproc
 620              	.LFE15:
 621              		.size	chOQPutTimeout, .-chOQPutTimeout
 622              		.section	.text.chOQGetI,"ax",%progbits
 623              		.align	2
 624              		.global	chOQGetI
 625              		.type	chOQGetI, %function
 626              	chOQGetI:
 627              	.LFB16:
ARM GAS  /tmp/ccIHhy0a.s 			page 12


 628              		.loc 1 356 0
 629              		.cfi_startproc
 630              		@ args = 0, pretend = 0, frame = 0
 631              		@ frame_needed = 0, uses_anonymous_args = 0
 632              	.LVL46:
 633              		.loc 1 361 0
 634 0000 143090E5 		ldr	r3, [r0, #20]
 635 0004 182090E5 		ldr	r2, [r0, #24]
 636              		.loc 1 356 0
 637 0008 10402DE9 		stmfd	sp!, {r4, lr}
 638              		.cfi_def_cfa_offset 8
 639              		.cfi_offset 4, -8
 640              		.cfi_offset 14, -4
 641              		.loc 1 361 0
 642 000c 020053E1 		cmp	r3, r2
 643 0010 083090E5 		ldr	r3, [r0, #8]
 644 0014 1500000A 		beq	.L77
 645              	.L71:
 646              		.loc 1 366 0
 647 0018 10C090E5 		ldr	ip, [r0, #16]
 648              		.loc 1 364 0
 649 001c 013083E2 		add	r3, r3, #1
 650              		.loc 1 365 0
 651 0020 011082E2 		add	r1, r2, #1
 652              		.loc 1 366 0
 653 0024 0C0051E1 		cmp	r1, ip
 654              		.loc 1 364 0
 655 0028 083080E5 		str	r3, [r0, #8]
 656              		.loc 1 365 0
 657 002c 181080E5 		str	r1, [r0, #24]
 658 0030 0040D2E5 		ldrb	r4, [r2]	@ zero_extendqisi2
 659              	.LVL47:
 660              		.loc 1 367 0
 661 0034 0C309025 		ldrcs	r3, [r0, #12]
 662              		.loc 1 369 0
 663 0038 002090E5 		ldr	r2, [r0]
 664              		.loc 1 367 0
 665 003c 18308025 		strcs	r3, [r0, #24]
 666              		.loc 1 369 0
 667 0040 000052E1 		cmp	r2, r0
 668 0044 0700000A 		beq	.L74
 669 0048 0030A0E1 		mov	r3, r0
 670              	.LVL48:
 671              	.LBB25:
 672              	.LBB26:
 673              		.loc 2 55 0
 674 004c 001092E5 		ldr	r1, [r2]
 675              	.LBE26:
 676              	.LBE25:
 677              		.loc 1 370 0
 678 0050 0200A0E1 		mov	r0, r2
 679              	.LVL49:
 680              	.LBB28:
 681              	.LBB27:
 682              		.loc 2 55 0
 683 0054 001083E5 		str	r1, [r3]
 684 0058 043081E5 		str	r3, [r1, #4]
ARM GAS  /tmp/ccIHhy0a.s 			page 13


 685              	.LBE27:
 686              	.LBE28:
 687              		.loc 1 370 0
 688 005c FEFFFFEB 		bl	chSchReadyI
 689              	.LVL50:
 690 0060 0030A0E3 		mov	r3, #0
 691 0064 143080E5 		str	r3, [r0, #20]
 692              	.LVL51:
 693              	.L74:
 694              		.loc 1 372 0
 695 0068 0400A0E1 		mov	r0, r4
 696 006c 1080BDE8 		ldmfd	sp!, {r4, pc}
 697              	.LVL52:
 698              	.L77:
 699              		.loc 1 361 0 discriminator 1
 700 0070 000053E3 		cmp	r3, #0
 701 0074 E7FFFF0A 		beq	.L71
 702              		.loc 1 362 0
 703 0078 0200E0E3 		mvn	r0, #2
 704              	.LVL53:
 705              		.loc 1 373 0
 706 007c 1080BDE8 		ldmfd	sp!, {r4, pc}
 707              		.cfi_endproc
 708              	.LFE16:
 709              		.size	chOQGetI, .-chOQGetI
 710              		.section	.text.chOQWriteTimeout,"ax",%progbits
 711              		.align	2
 712              		.global	chOQWriteTimeout
 713              		.type	chOQWriteTimeout, %function
 714              	chOQWriteTimeout:
 715              	.LFB17:
 716              		.loc 1 400 0
 717              		.cfi_startproc
 718              		@ args = 0, pretend = 0, frame = 0
 719              		@ frame_needed = 0, uses_anonymous_args = 0
 720              	.LVL54:
 721 0000 F0472DE9 		stmfd	sp!, {r4, r5, r6, r7, r8, r9, r10, lr}
 722              		.cfi_def_cfa_offset 32
 723              		.cfi_offset 4, -32
 724              		.cfi_offset 5, -28
 725              		.cfi_offset 6, -24
 726              		.cfi_offset 7, -20
 727              		.cfi_offset 8, -16
 728              		.cfi_offset 9, -12
 729              		.cfi_offset 10, -8
 730              		.cfi_offset 14, -4
 731              		.loc 1 400 0
 732 0004 0040A0E1 		mov	r4, r0
 733 0008 0150A0E1 		mov	r5, r1
 734 000c 0260A0E1 		mov	r6, r2
 735 0010 0390A0E1 		mov	r9, r3
 736              		.loc 1 401 0
 737 0014 1C8090E5 		ldr	r8, [r0, #28]
 738              	.LVL55:
 739              		.loc 1 406 0
 740              	@ 406 "../../../os/kernel/src/chqueues.c" 1
 741 0018 9FF021E3 		msr     CPSR_c, #0x9F
ARM GAS  /tmp/ccIHhy0a.s 			page 14


 742              	@ 0 "" 2
 743              		.loc 1 402 0
 744 001c 0070A0E3 		mov	r7, #0
 745              	.LVL56:
 746              	.L79:
 747              		.loc 1 408 0
 748 0020 083094E5 		ldr	r3, [r4, #8]
 749              		.loc 1 415 0
 750 0024 01A085E2 		add	r10, r5, #1
 751              	.LVL57:
 752              		.loc 1 408 0
 753 0028 000053E3 		cmp	r3, #0
 754              		.loc 1 414 0
 755 002c 012043E2 		sub	r2, r3, #1
 756              		.loc 1 408 0
 757 0030 1500000A 		beq	.L82
 758              		.loc 1 415 0
 759 0034 143094E5 		ldr	r3, [r4, #20]
 760              		.loc 1 414 0
 761 0038 082084E5 		str	r2, [r4, #8]
 762              		.loc 1 415 0
 763 003c 012083E2 		add	r2, r3, #1
 764 0040 142084E5 		str	r2, [r4, #20]
 765 0044 0020D5E5 		ldrb	r2, [r5]	@ zero_extendqisi2
 766 0048 0020C3E5 		strb	r2, [r3]
 767              		.loc 1 416 0
 768 004c 103094E5 		ldr	r3, [r4, #16]
 769 0050 142094E5 		ldr	r2, [r4, #20]
 770 0054 030052E1 		cmp	r2, r3
 771              		.loc 1 417 0
 772 0058 0C309425 		ldrcs	r3, [r4, #12]
 773 005c 14308425 		strcs	r3, [r4, #20]
 774              		.loc 1 419 0
 775 0060 000058E3 		cmp	r8, #0
 776 0064 0100000A 		beq	.L84
 777              		.loc 1 420 0
 778 0068 0400A0E1 		mov	r0, r4
 779 006c 38FF2FE1 		blx	r8
 780              	.LVL58:
 781              	.L84:
 782              		.loc 1 422 0
 783              	@ 422 "../../../os/kernel/src/chqueues.c" 1
 784 0070 1FF021E3 		msr     CPSR_c, #0x1F
 785              	@ 0 "" 2
 786              		.loc 1 424 0
 787 0074 016056E2 		subs	r6, r6, #1
 788              	.LVL59:
 789              		.loc 1 423 0
 790 0078 017087E2 		add	r7, r7, #1
 791              	.LVL60:
 792              		.loc 1 424 0
 793 007c 0800000A 		beq	.L81
 794              		.loc 1 426 0
 795              	@ 426 "../../../os/kernel/src/chqueues.c" 1
 796 0080 9FF021E3 		msr     CPSR_c, #0x9F
 797              	@ 0 "" 2
 798              		.loc 1 415 0
ARM GAS  /tmp/ccIHhy0a.s 			page 15


 799 0084 0A50A0E1 		mov	r5, r10
 800              		.loc 1 427 0
 801 0088 E4FFFFEA 		b	.L79
 802              	.LVL61:
 803              	.L82:
 804              		.loc 1 409 0
 805 008c 0400A0E1 		mov	r0, r4
 806 0090 0910A0E1 		mov	r1, r9
 807 0094 FEFFFFEB 		bl	qwait
 808              	.LVL62:
 809 0098 000050E3 		cmp	r0, #0
 810 009c DFFFFF0A 		beq	.L79
 811              		.loc 1 410 0
 812              	@ 410 "../../../os/kernel/src/chqueues.c" 1
 813 00a0 1FF021E3 		msr     CPSR_c, #0x1F
 814              	@ 0 "" 2
 815              	.LVL63:
 816              	.L81:
 817              		.loc 1 428 0
 818 00a4 0700A0E1 		mov	r0, r7
 819 00a8 F087BDE8 		ldmfd	sp!, {r4, r5, r6, r7, r8, r9, r10, pc}
 820              		.cfi_endproc
 821              	.LFE17:
 822              		.size	chOQWriteTimeout, .-chOQWriteTimeout
 823              		.text
 824              	.Letext0:
 825              		.file 3 "/usr/lib/gcc/arm-none-eabi/4.9.3/include/stddef.h"
 826              		.file 4 "/usr/include/newlib/machine/_default_types.h"
 827              		.file 5 "/usr/include/newlib/sys/_stdint.h"
 828              		.file 6 "../../../os/ports/GCC/ARM/chtypes.h"
 829              		.file 7 "../../../os/kernel/include/chlists.h"
 830              		.file 8 "../../../os/kernel/include/chthreads.h"
 831              		.file 9 "../../../os/ports/GCC/ARM/chcore.h"
 832              		.file 10 "../../../os/kernel/include/chschd.h"
 833              		.file 11 "../../../os/kernel/include/chmtx.h"
 834              		.file 12 "../../../os/kernel/include/chqueues.h"
 835              		.section	.debug_info,"",%progbits
 836              	.Ldebug_info0:
 837 0000 B1090000 		.4byte	0x9b1
 838 0004 0400     		.2byte	0x4
 839 0006 00000000 		.4byte	.Ldebug_abbrev0
 840 000a 04       		.byte	0x4
 841 000b 01       		.uleb128 0x1
 842 000c D8010000 		.4byte	.LASF81
 843 0010 01       		.byte	0x1
 844 0011 B7030000 		.4byte	.LASF82
 845 0015 09000000 		.4byte	.LASF83
 846 0019 48000000 		.4byte	.Ldebug_ranges0+0x48
 847 001d 00000000 		.4byte	0
 848 0021 00000000 		.4byte	.Ldebug_line0
 849 0025 02       		.uleb128 0x2
 850 0026 04       		.byte	0x4
 851 0027 05       		.byte	0x5
 852 0028 02010000 		.4byte	.LASF0
 853 002c 03       		.uleb128 0x3
 854 002d 5B000000 		.4byte	.LASF3
 855 0031 03       		.byte	0x3
ARM GAS  /tmp/ccIHhy0a.s 			page 16


 856 0032 D4       		.byte	0xd4
 857 0033 37000000 		.4byte	0x37
 858 0037 02       		.uleb128 0x2
 859 0038 04       		.byte	0x4
 860 0039 07       		.byte	0x7
 861 003a 77010000 		.4byte	.LASF1
 862 003e 02       		.uleb128 0x2
 863 003f 01       		.byte	0x1
 864 0040 06       		.byte	0x6
 865 0041 D7000000 		.4byte	.LASF2
 866 0045 03       		.uleb128 0x3
 867 0046 7E000000 		.4byte	.LASF4
 868 004a 04       		.byte	0x4
 869 004b 1D       		.byte	0x1d
 870 004c 50000000 		.4byte	0x50
 871 0050 02       		.uleb128 0x2
 872 0051 01       		.byte	0x1
 873 0052 08       		.byte	0x8
 874 0053 F2020000 		.4byte	.LASF5
 875 0057 02       		.uleb128 0x2
 876 0058 02       		.byte	0x2
 877 0059 05       		.byte	0x5
 878 005a 0A030000 		.4byte	.LASF6
 879 005e 02       		.uleb128 0x2
 880 005f 02       		.byte	0x2
 881 0060 07       		.byte	0x7
 882 0061 8E010000 		.4byte	.LASF7
 883 0065 03       		.uleb128 0x3
 884 0066 93030000 		.4byte	.LASF8
 885 006a 04       		.byte	0x4
 886 006b 3F       		.byte	0x3f
 887 006c 25000000 		.4byte	0x25
 888 0070 03       		.uleb128 0x3
 889 0071 2E010000 		.4byte	.LASF9
 890 0075 04       		.byte	0x4
 891 0076 41       		.byte	0x41
 892 0077 37000000 		.4byte	0x37
 893 007b 02       		.uleb128 0x2
 894 007c 08       		.byte	0x8
 895 007d 05       		.byte	0x5
 896 007e C9000000 		.4byte	.LASF10
 897 0082 02       		.uleb128 0x2
 898 0083 08       		.byte	0x8
 899 0084 07       		.byte	0x7
 900 0085 98000000 		.4byte	.LASF11
 901 0089 03       		.uleb128 0x3
 902 008a F8030000 		.4byte	.LASF12
 903 008e 05       		.byte	0x5
 904 008f 14       		.byte	0x14
 905 0090 45000000 		.4byte	0x45
 906 0094 03       		.uleb128 0x3
 907 0095 EA020000 		.4byte	.LASF13
 908 0099 05       		.byte	0x5
 909 009a 1F       		.byte	0x1f
 910 009b 65000000 		.4byte	0x65
 911 009f 03       		.uleb128 0x3
 912 00a0 5A030000 		.4byte	.LASF14
ARM GAS  /tmp/ccIHhy0a.s 			page 17


 913 00a4 05       		.byte	0x5
 914 00a5 20       		.byte	0x20
 915 00a6 70000000 		.4byte	0x70
 916 00aa 04       		.uleb128 0x4
 917 00ab 04       		.byte	0x4
 918 00ac 05       		.byte	0x5
 919 00ad 696E7400 		.ascii	"int\000"
 920 00b1 02       		.uleb128 0x2
 921 00b2 04       		.byte	0x4
 922 00b3 07       		.byte	0x7
 923 00b4 5F010000 		.4byte	.LASF15
 924 00b8 03       		.uleb128 0x3
 925 00b9 E3000000 		.4byte	.LASF16
 926 00bd 06       		.byte	0x6
 927 00be 29       		.byte	0x29
 928 00bf 94000000 		.4byte	0x94
 929 00c3 03       		.uleb128 0x3
 930 00c4 A7010000 		.4byte	.LASF17
 931 00c8 06       		.byte	0x6
 932 00c9 2A       		.byte	0x2a
 933 00ca 89000000 		.4byte	0x89
 934 00ce 03       		.uleb128 0x3
 935 00cf 0B010000 		.4byte	.LASF18
 936 00d3 06       		.byte	0x6
 937 00d4 2B       		.byte	0x2b
 938 00d5 89000000 		.4byte	0x89
 939 00d9 03       		.uleb128 0x3
 940 00da F2000000 		.4byte	.LASF19
 941 00de 06       		.byte	0x6
 942 00df 2D       		.byte	0x2d
 943 00e0 89000000 		.4byte	0x89
 944 00e4 03       		.uleb128 0x3
 945 00e5 DA020000 		.4byte	.LASF20
 946 00e9 06       		.byte	0x6
 947 00ea 2E       		.byte	0x2e
 948 00eb 9F000000 		.4byte	0x9f
 949 00ef 03       		.uleb128 0x3
 950 00f0 A1010000 		.4byte	.LASF21
 951 00f4 06       		.byte	0x6
 952 00f5 2F       		.byte	0x2f
 953 00f6 94000000 		.4byte	0x94
 954 00fa 03       		.uleb128 0x3
 955 00fb BB010000 		.4byte	.LASF22
 956 00ff 06       		.byte	0x6
 957 0100 31       		.byte	0x31
 958 0101 9F000000 		.4byte	0x9f
 959 0105 03       		.uleb128 0x3
 960 0106 7E030000 		.4byte	.LASF23
 961 010a 06       		.byte	0x6
 962 010b 33       		.byte	0x33
 963 010c 9F000000 		.4byte	0x9f
 964 0110 03       		.uleb128 0x3
 965 0111 48030000 		.4byte	.LASF24
 966 0115 07       		.byte	0x7
 967 0116 23       		.byte	0x23
 968 0117 1B010000 		.4byte	0x11b
 969 011b 05       		.uleb128 0x5
ARM GAS  /tmp/ccIHhy0a.s 			page 18


 970 011c 48030000 		.4byte	.LASF24
 971 0120 28       		.byte	0x28
 972 0121 08       		.byte	0x8
 973 0122 57       		.byte	0x57
 974 0123 B8010000 		.4byte	0x1b8
 975 0127 06       		.uleb128 0x6
 976 0128 34030000 		.4byte	.LASF25
 977 012c 08       		.byte	0x8
 978 012d 58       		.byte	0x58
 979 012e D9010000 		.4byte	0x1d9
 980 0132 00       		.byte	0
 981 0133 06       		.uleb128 0x6
 982 0134 D3020000 		.4byte	.LASF26
 983 0138 08       		.byte	0x8
 984 0139 5A       		.byte	0x5a
 985 013a D9010000 		.4byte	0x1d9
 986 013e 04       		.byte	0x4
 987 013f 06       		.uleb128 0x6
 988 0140 B8000000 		.4byte	.LASF27
 989 0144 08       		.byte	0x8
 990 0145 5C       		.byte	0x5c
 991 0146 E4000000 		.4byte	0xe4
 992 014a 08       		.byte	0x8
 993 014b 06       		.uleb128 0x6
 994 014c 2B040000 		.4byte	.LASF28
 995 0150 08       		.byte	0x8
 996 0151 5D       		.byte	0x5d
 997 0152 89020000 		.4byte	0x289
 998 0156 0C       		.byte	0xc
 999 0157 06       		.uleb128 0x6
 1000 0158 14030000 		.4byte	.LASF29
 1001 015c 08       		.byte	0x8
 1002 015d 72       		.byte	0x72
 1003 015e CE000000 		.4byte	0xce
 1004 0162 10       		.byte	0x10
 1005 0163 06       		.uleb128 0x6
 1006 0164 40030000 		.4byte	.LASF30
 1007 0168 08       		.byte	0x8
 1008 0169 76       		.byte	0x76
 1009 016a C3000000 		.4byte	0xc3
 1010 016e 11       		.byte	0x11
 1011 016f 06       		.uleb128 0x6
 1012 0170 1C030000 		.4byte	.LASF31
 1013 0174 08       		.byte	0x8
 1014 0175 81       		.byte	0x81
 1015 0176 D9000000 		.4byte	0xd9
 1016 017a 12       		.byte	0x12
 1017 017b 07       		.uleb128 0x7
 1018 017c 705F7500 		.ascii	"p_u\000"
 1019 0180 08       		.byte	0x8
 1020 0181 AD       		.byte	0xad
 1021 0182 2E030000 		.4byte	0x32e
 1022 0186 14       		.byte	0x14
 1023 0187 06       		.uleb128 0x6
 1024 0188 31040000 		.4byte	.LASF32
 1025 018c 08       		.byte	0x8
 1026 018d B2       		.byte	0xb2
ARM GAS  /tmp/ccIHhy0a.s 			page 19


 1027 018e FF010000 		.4byte	0x1ff
 1028 0192 18       		.byte	0x18
 1029 0193 06       		.uleb128 0x6
 1030 0194 4F030000 		.4byte	.LASF33
 1031 0198 08       		.byte	0x8
 1032 0199 C2       		.byte	0xc2
 1033 019a FA000000 		.4byte	0xfa
 1034 019e 1C       		.byte	0x1c
 1035 019f 06       		.uleb128 0x6
 1036 01a0 00030000 		.4byte	.LASF34
 1037 01a4 08       		.byte	0x8
 1038 01a5 C9       		.byte	0xc9
 1039 01a6 63030000 		.4byte	0x363
 1040 01aa 20       		.byte	0x20
 1041 01ab 06       		.uleb128 0x6
 1042 01ac 88030000 		.4byte	.LASF35
 1043 01b0 08       		.byte	0x8
 1044 01b1 CD       		.byte	0xcd
 1045 01b2 E4000000 		.4byte	0xe4
 1046 01b6 24       		.byte	0x24
 1047 01b7 00       		.byte	0
 1048 01b8 08       		.uleb128 0x8
 1049 01b9 08       		.byte	0x8
 1050 01ba 07       		.byte	0x7
 1051 01bb 5A       		.byte	0x5a
 1052 01bc D9010000 		.4byte	0x1d9
 1053 01c0 06       		.uleb128 0x6
 1054 01c1 34030000 		.4byte	.LASF25
 1055 01c5 07       		.byte	0x7
 1056 01c6 5B       		.byte	0x5b
 1057 01c7 D9010000 		.4byte	0x1d9
 1058 01cb 00       		.byte	0
 1059 01cc 06       		.uleb128 0x6
 1060 01cd D3020000 		.4byte	.LASF26
 1061 01d1 07       		.byte	0x7
 1062 01d2 5D       		.byte	0x5d
 1063 01d3 D9010000 		.4byte	0x1d9
 1064 01d7 04       		.byte	0x4
 1065 01d8 00       		.byte	0
 1066 01d9 09       		.uleb128 0x9
 1067 01da 04       		.byte	0x4
 1068 01db 10010000 		.4byte	0x110
 1069 01df 03       		.uleb128 0x3
 1070 01e0 AD020000 		.4byte	.LASF36
 1071 01e4 07       		.byte	0x7
 1072 01e5 5F       		.byte	0x5f
 1073 01e6 B8010000 		.4byte	0x1b8
 1074 01ea 08       		.uleb128 0x8
 1075 01eb 04       		.byte	0x4
 1076 01ec 07       		.byte	0x7
 1077 01ed 64       		.byte	0x64
 1078 01ee FF010000 		.4byte	0x1ff
 1079 01f2 06       		.uleb128 0x6
 1080 01f3 34030000 		.4byte	.LASF25
 1081 01f7 07       		.byte	0x7
 1082 01f8 66       		.byte	0x66
 1083 01f9 D9010000 		.4byte	0x1d9
ARM GAS  /tmp/ccIHhy0a.s 			page 20


 1084 01fd 00       		.byte	0
 1085 01fe 00       		.byte	0
 1086 01ff 03       		.uleb128 0x3
 1087 0200 AF010000 		.4byte	.LASF37
 1088 0204 07       		.byte	0x7
 1089 0205 69       		.byte	0x69
 1090 0206 EA010000 		.4byte	0x1ea
 1091 020a 03       		.uleb128 0x3
 1092 020b 39010000 		.4byte	.LASF38
 1093 020f 09       		.byte	0x9
 1094 0210 A2       		.byte	0xa2
 1095 0211 15020000 		.4byte	0x215
 1096 0215 0A       		.uleb128 0xa
 1097 0216 04       		.byte	0x4
 1098 0217 05       		.uleb128 0x5
 1099 0218 B0030000 		.4byte	.LASF39
 1100 021c 24       		.byte	0x24
 1101 021d 09       		.byte	0x9
 1102 021e B9       		.byte	0xb9
 1103 021f 89020000 		.4byte	0x289
 1104 0223 07       		.uleb128 0x7
 1105 0224 723400   		.ascii	"r4\000"
 1106 0227 09       		.byte	0x9
 1107 0228 BA       		.byte	0xba
 1108 0229 0A020000 		.4byte	0x20a
 1109 022d 00       		.byte	0
 1110 022e 07       		.uleb128 0x7
 1111 022f 723500   		.ascii	"r5\000"
 1112 0232 09       		.byte	0x9
 1113 0233 BB       		.byte	0xbb
 1114 0234 0A020000 		.4byte	0x20a
 1115 0238 04       		.byte	0x4
 1116 0239 07       		.uleb128 0x7
 1117 023a 723600   		.ascii	"r6\000"
 1118 023d 09       		.byte	0x9
 1119 023e BC       		.byte	0xbc
 1120 023f 0A020000 		.4byte	0x20a
 1121 0243 08       		.byte	0x8
 1122 0244 07       		.uleb128 0x7
 1123 0245 723700   		.ascii	"r7\000"
 1124 0248 09       		.byte	0x9
 1125 0249 BD       		.byte	0xbd
 1126 024a 0A020000 		.4byte	0x20a
 1127 024e 0C       		.byte	0xc
 1128 024f 07       		.uleb128 0x7
 1129 0250 723800   		.ascii	"r8\000"
 1130 0253 09       		.byte	0x9
 1131 0254 BE       		.byte	0xbe
 1132 0255 0A020000 		.4byte	0x20a
 1133 0259 10       		.byte	0x10
 1134 025a 07       		.uleb128 0x7
 1135 025b 723900   		.ascii	"r9\000"
 1136 025e 09       		.byte	0x9
 1137 025f BF       		.byte	0xbf
 1138 0260 0A020000 		.4byte	0x20a
 1139 0264 14       		.byte	0x14
 1140 0265 07       		.uleb128 0x7
ARM GAS  /tmp/ccIHhy0a.s 			page 21


 1141 0266 72313000 		.ascii	"r10\000"
 1142 026a 09       		.byte	0x9
 1143 026b C0       		.byte	0xc0
 1144 026c 0A020000 		.4byte	0x20a
 1145 0270 18       		.byte	0x18
 1146 0271 07       		.uleb128 0x7
 1147 0272 72313100 		.ascii	"r11\000"
 1148 0276 09       		.byte	0x9
 1149 0277 C1       		.byte	0xc1
 1150 0278 0A020000 		.4byte	0x20a
 1151 027c 1C       		.byte	0x1c
 1152 027d 07       		.uleb128 0x7
 1153 027e 6C7200   		.ascii	"lr\000"
 1154 0281 09       		.byte	0x9
 1155 0282 C2       		.byte	0xc2
 1156 0283 0A020000 		.4byte	0x20a
 1157 0287 20       		.byte	0x20
 1158 0288 00       		.byte	0
 1159 0289 05       		.uleb128 0x5
 1160 028a A8030000 		.4byte	.LASF40
 1161 028e 04       		.byte	0x4
 1162 028f 09       		.byte	0x9
 1163 0290 CA       		.byte	0xca
 1164 0291 A2020000 		.4byte	0x2a2
 1165 0295 07       		.uleb128 0x7
 1166 0296 72313300 		.ascii	"r13\000"
 1167 029a 09       		.byte	0x9
 1168 029b CB       		.byte	0xcb
 1169 029c A2020000 		.4byte	0x2a2
 1170 02a0 00       		.byte	0
 1171 02a1 00       		.byte	0
 1172 02a2 09       		.uleb128 0x9
 1173 02a3 04       		.byte	0x4
 1174 02a4 17020000 		.4byte	0x217
 1175 02a8 08       		.uleb128 0x8
 1176 02a9 14       		.byte	0x14
 1177 02aa 0A       		.byte	0xa
 1178 02ab 57       		.byte	0x57
 1179 02ac E1020000 		.4byte	0x2e1
 1180 02b0 06       		.uleb128 0x6
 1181 02b1 63030000 		.4byte	.LASF41
 1182 02b5 0A       		.byte	0xa
 1183 02b6 58       		.byte	0x58
 1184 02b7 DF010000 		.4byte	0x1df
 1185 02bb 00       		.byte	0
 1186 02bc 06       		.uleb128 0x6
 1187 02bd 26030000 		.4byte	.LASF42
 1188 02c1 0A       		.byte	0xa
 1189 02c2 59       		.byte	0x59
 1190 02c3 E4000000 		.4byte	0xe4
 1191 02c7 08       		.byte	0x8
 1192 02c8 06       		.uleb128 0x6
 1193 02c9 A7020000 		.4byte	.LASF43
 1194 02cd 0A       		.byte	0xa
 1195 02ce 5B       		.byte	0x5b
 1196 02cf 89020000 		.4byte	0x289
 1197 02d3 0C       		.byte	0xc
ARM GAS  /tmp/ccIHhy0a.s 			page 22


 1198 02d4 06       		.uleb128 0x6
 1199 02d5 BF020000 		.4byte	.LASF44
 1200 02d9 0A       		.byte	0xa
 1201 02da 62       		.byte	0x62
 1202 02db D9010000 		.4byte	0x1d9
 1203 02df 10       		.byte	0x10
 1204 02e0 00       		.byte	0
 1205 02e1 03       		.uleb128 0x3
 1206 02e2 DF030000 		.4byte	.LASF45
 1207 02e6 0A       		.byte	0xa
 1208 02e7 64       		.byte	0x64
 1209 02e8 A8020000 		.4byte	0x2a8
 1210 02ec 05       		.uleb128 0x5
 1211 02ed D2010000 		.4byte	.LASF46
 1212 02f1 10       		.byte	0x10
 1213 02f2 0B       		.byte	0xb
 1214 02f3 25       		.byte	0x25
 1215 02f4 1D030000 		.4byte	0x31d
 1216 02f8 06       		.uleb128 0x6
 1217 02f9 EA000000 		.4byte	.LASF47
 1218 02fd 0B       		.byte	0xb
 1219 02fe 26       		.byte	0x26
 1220 02ff DF010000 		.4byte	0x1df
 1221 0303 00       		.byte	0
 1222 0304 06       		.uleb128 0x6
 1223 0305 23040000 		.4byte	.LASF48
 1224 0309 0B       		.byte	0xb
 1225 030a 28       		.byte	0x28
 1226 030b D9010000 		.4byte	0x1d9
 1227 030f 08       		.byte	0x8
 1228 0310 06       		.uleb128 0x6
 1229 0311 77030000 		.4byte	.LASF49
 1230 0315 0B       		.byte	0xb
 1231 0316 2A       		.byte	0x2a
 1232 0317 1D030000 		.4byte	0x31d
 1233 031b 0C       		.byte	0xc
 1234 031c 00       		.byte	0
 1235 031d 09       		.uleb128 0x9
 1236 031e 04       		.byte	0x4
 1237 031f EC020000 		.4byte	0x2ec
 1238 0323 03       		.uleb128 0x3
 1239 0324 D2010000 		.4byte	.LASF46
 1240 0328 0B       		.byte	0xb
 1241 0329 2C       		.byte	0x2c
 1242 032a EC020000 		.4byte	0x2ec
 1243 032e 0B       		.uleb128 0xb
 1244 032f 04       		.byte	0x4
 1245 0330 08       		.byte	0x8
 1246 0331 8F       		.byte	0x8f
 1247 0332 63030000 		.4byte	0x363
 1248 0336 0C       		.uleb128 0xc
 1249 0337 62000000 		.4byte	.LASF50
 1250 033b 08       		.byte	0x8
 1251 033c 96       		.byte	0x96
 1252 033d EF000000 		.4byte	0xef
 1253 0341 0C       		.uleb128 0xc
 1254 0342 AF000000 		.4byte	.LASF51
ARM GAS  /tmp/ccIHhy0a.s 			page 23


 1255 0346 08       		.byte	0x8
 1256 0347 9D       		.byte	0x9d
 1257 0348 EF000000 		.4byte	0xef
 1258 034c 0C       		.uleb128 0xc
 1259 034d 00040000 		.4byte	.LASF52
 1260 0351 08       		.byte	0x8
 1261 0352 A4       		.byte	0xa4
 1262 0353 15020000 		.4byte	0x215
 1263 0357 0C       		.uleb128 0xc
 1264 0358 2D030000 		.4byte	.LASF53
 1265 035c 08       		.byte	0x8
 1266 035d AB       		.byte	0xab
 1267 035e FA000000 		.4byte	0xfa
 1268 0362 00       		.byte	0
 1269 0363 09       		.uleb128 0x9
 1270 0364 04       		.byte	0x4
 1271 0365 23030000 		.4byte	0x323
 1272 0369 03       		.uleb128 0x3
 1273 036a 73020000 		.4byte	.LASF54
 1274 036e 0C       		.byte	0xc
 1275 036f 30       		.byte	0x30
 1276 0370 74030000 		.4byte	0x374
 1277 0374 05       		.uleb128 0x5
 1278 0375 73020000 		.4byte	.LASF54
 1279 0379 24       		.byte	0x24
 1280 037a 0C       		.byte	0xc
 1281 037b 3E       		.byte	0x3e
 1282 037c E1030000 		.4byte	0x3e1
 1283 0380 06       		.uleb128 0x6
 1284 0381 BF000000 		.4byte	.LASF55
 1285 0385 0C       		.byte	0xc
 1286 0386 3F       		.byte	0x3f
 1287 0387 DF010000 		.4byte	0x1df
 1288 038b 00       		.byte	0
 1289 038c 06       		.uleb128 0x6
 1290 038d 91020000 		.4byte	.LASF56
 1291 0391 0C       		.byte	0xc
 1292 0392 40       		.byte	0x40
 1293 0393 2C000000 		.4byte	0x2c
 1294 0397 08       		.byte	0x8
 1295 0398 06       		.uleb128 0x6
 1296 0399 1D010000 		.4byte	.LASF57
 1297 039d 0C       		.byte	0xc
 1298 039e 41       		.byte	0x41
 1299 039f 03040000 		.4byte	0x403
 1300 03a3 0C       		.byte	0xc
 1301 03a4 06       		.uleb128 0x6
 1302 03a5 D9030000 		.4byte	.LASF58
 1303 03a9 0C       		.byte	0xc
 1304 03aa 42       		.byte	0x42
 1305 03ab 03040000 		.4byte	0x403
 1306 03af 10       		.byte	0x10
 1307 03b0 06       		.uleb128 0x6
 1308 03b1 26010000 		.4byte	.LASF59
 1309 03b5 0C       		.byte	0xc
 1310 03b6 44       		.byte	0x44
 1311 03b7 03040000 		.4byte	0x403
ARM GAS  /tmp/ccIHhy0a.s 			page 24


 1312 03bb 14       		.byte	0x14
 1313 03bc 06       		.uleb128 0x6
 1314 03bd E2020000 		.4byte	.LASF60
 1315 03c1 0C       		.byte	0xc
 1316 03c2 45       		.byte	0x45
 1317 03c3 03040000 		.4byte	0x403
 1318 03c7 18       		.byte	0x18
 1319 03c8 06       		.uleb128 0x6
 1320 03c9 E9030000 		.4byte	.LASF61
 1321 03cd 0C       		.byte	0xc
 1322 03ce 46       		.byte	0x46
 1323 03cf E1030000 		.4byte	0x3e1
 1324 03d3 1C       		.byte	0x1c
 1325 03d4 06       		.uleb128 0x6
 1326 03d5 1C040000 		.4byte	.LASF62
 1327 03d9 0C       		.byte	0xc
 1328 03da 47       		.byte	0x47
 1329 03db 15020000 		.4byte	0x215
 1330 03df 20       		.byte	0x20
 1331 03e0 00       		.byte	0
 1332 03e1 03       		.uleb128 0x3
 1333 03e2 C9020000 		.4byte	.LASF63
 1334 03e6 0C       		.byte	0xc
 1335 03e7 33       		.byte	0x33
 1336 03e8 EC030000 		.4byte	0x3ec
 1337 03ec 09       		.uleb128 0x9
 1338 03ed 04       		.byte	0x4
 1339 03ee F2030000 		.4byte	0x3f2
 1340 03f2 0D       		.uleb128 0xd
 1341 03f3 FD030000 		.4byte	0x3fd
 1342 03f7 0E       		.uleb128 0xe
 1343 03f8 FD030000 		.4byte	0x3fd
 1344 03fc 00       		.byte	0
 1345 03fd 09       		.uleb128 0x9
 1346 03fe 04       		.byte	0x4
 1347 03ff 69030000 		.4byte	0x369
 1348 0403 09       		.uleb128 0x9
 1349 0404 04       		.byte	0x4
 1350 0405 89000000 		.4byte	0x89
 1351 0409 03       		.uleb128 0x3
 1352 040a C7010000 		.4byte	.LASF64
 1353 040e 0C       		.byte	0xc
 1354 040f 7B       		.byte	0x7b
 1355 0410 69030000 		.4byte	0x369
 1356 0414 03       		.uleb128 0x3
 1357 0415 72000000 		.4byte	.LASF65
 1358 0419 0C       		.byte	0xc
 1359 041a EE       		.byte	0xee
 1360 041b 69030000 		.4byte	0x369
 1361 041f 09       		.uleb128 0x9
 1362 0420 04       		.byte	0x4
 1363 0421 25040000 		.4byte	0x425
 1364 0425 0F       		.uleb128 0xf
 1365 0426 89000000 		.4byte	0x89
 1366 042a 10       		.uleb128 0x10
 1367 042b 49000000 		.4byte	.LASF84
 1368 042f 02       		.byte	0x2
ARM GAS  /tmp/ccIHhy0a.s 			page 25


 1369 0430 2D       		.byte	0x2d
 1370 0431 03       		.byte	0x3
 1371 0432 4C040000 		.4byte	0x44c
 1372 0436 11       		.uleb128 0x11
 1373 0437 747000   		.ascii	"tp\000"
 1374 043a 02       		.byte	0x2
 1375 043b 2D       		.byte	0x2d
 1376 043c D9010000 		.4byte	0x1d9
 1377 0440 11       		.uleb128 0x11
 1378 0441 74717000 		.ascii	"tqp\000"
 1379 0445 02       		.byte	0x2
 1380 0446 2D       		.byte	0x2d
 1381 0447 4C040000 		.4byte	0x44c
 1382 044b 00       		.byte	0
 1383 044c 09       		.uleb128 0x9
 1384 044d 04       		.byte	0x4
 1385 044e DF010000 		.4byte	0x1df
 1386 0452 12       		.uleb128 0x12
 1387 0453 9B020000 		.4byte	.LASF85
 1388 0457 02       		.byte	0x2
 1389 0458 34       		.byte	0x34
 1390 0459 D9010000 		.4byte	0x1d9
 1391 045d 03       		.byte	0x3
 1392 045e 78040000 		.4byte	0x478
 1393 0462 11       		.uleb128 0x11
 1394 0463 74717000 		.ascii	"tqp\000"
 1395 0467 02       		.byte	0x2
 1396 0468 34       		.byte	0x34
 1397 0469 4C040000 		.4byte	0x44c
 1398 046d 13       		.uleb128 0x13
 1399 046e 747000   		.ascii	"tp\000"
 1400 0471 02       		.byte	0x2
 1401 0472 35       		.byte	0x35
 1402 0473 D9010000 		.4byte	0x1d9
 1403 0477 00       		.byte	0
 1404 0478 14       		.uleb128 0x14
 1405 0479 FC000000 		.4byte	.LASF86
 1406 047d 01       		.byte	0x1
 1407 047e 3F       		.byte	0x3f
 1408 047f EF000000 		.4byte	0xef
 1409 0483 00000000 		.4byte	.LFB7
 1410 0487 3C000000 		.4byte	.LFE7-.LFB7
 1411 048b 01       		.uleb128 0x1
 1412 048c 9C       		.byte	0x9c
 1413 048d EB040000 		.4byte	0x4eb
 1414 0491 15       		.uleb128 0x15
 1415 0492 717000   		.ascii	"qp\000"
 1416 0495 01       		.byte	0x1
 1417 0496 3F       		.byte	0x3f
 1418 0497 FD030000 		.4byte	0x3fd
 1419 049b 00000000 		.4byte	.LLST0
 1420 049f 16       		.uleb128 0x16
 1421 04a0 BA020000 		.4byte	.LASF66
 1422 04a4 01       		.byte	0x1
 1423 04a5 3F       		.byte	0x3f
 1424 04a6 05010000 		.4byte	0x105
 1425 04aa 42000000 		.4byte	.LLST1
ARM GAS  /tmp/ccIHhy0a.s 			page 26


 1426 04ae 17       		.uleb128 0x17
 1427 04af 2A040000 		.4byte	0x42a
 1428 04b3 1C000000 		.4byte	.LBB12
 1429 04b7 10000000 		.4byte	.LBE12-.LBB12
 1430 04bb 01       		.byte	0x1
 1431 04bc 44       		.byte	0x44
 1432 04bd D4040000 		.4byte	0x4d4
 1433 04c1 18       		.uleb128 0x18
 1434 04c2 40040000 		.4byte	0x440
 1435 04c6 6E000000 		.4byte	.LLST2
 1436 04ca 18       		.uleb128 0x18
 1437 04cb 36040000 		.4byte	0x436
 1438 04cf 8F000000 		.4byte	.LLST3
 1439 04d3 00       		.byte	0
 1440 04d4 19       		.uleb128 0x19
 1441 04d5 30000000 		.4byte	.LVL3
 1442 04d9 89090000 		.4byte	0x989
 1443 04dd 1A       		.uleb128 0x1a
 1444 04de 01       		.uleb128 0x1
 1445 04df 51       		.byte	0x51
 1446 04e0 03       		.uleb128 0x3
 1447 04e1 F3       		.byte	0xf3
 1448 04e2 01       		.uleb128 0x1
 1449 04e3 51       		.byte	0x51
 1450 04e4 1A       		.uleb128 0x1a
 1451 04e5 01       		.uleb128 0x1
 1452 04e6 50       		.byte	0x50
 1453 04e7 01       		.uleb128 0x1
 1454 04e8 3D       		.byte	0x3d
 1455 04e9 00       		.byte	0
 1456 04ea 00       		.byte	0
 1457 04eb 1B       		.uleb128 0x1b
 1458 04ec 69000000 		.4byte	.LASF70
 1459 04f0 01       		.byte	0x1
 1460 04f1 58       		.byte	0x58
 1461 04f2 00000000 		.4byte	.LFB8
 1462 04f6 38000000 		.4byte	.LFE8-.LFB8
 1463 04fa 01       		.uleb128 0x1
 1464 04fb 9C       		.byte	0x9c
 1465 04fc 44050000 		.4byte	0x544
 1466 0500 1C       		.uleb128 0x1c
 1467 0501 69717000 		.ascii	"iqp\000"
 1468 0505 01       		.byte	0x1
 1469 0506 58       		.byte	0x58
 1470 0507 44050000 		.4byte	0x544
 1471 050b 01       		.uleb128 0x1
 1472 050c 50       		.byte	0x50
 1473 050d 1C       		.uleb128 0x1c
 1474 050e 627000   		.ascii	"bp\000"
 1475 0511 01       		.byte	0x1
 1476 0512 58       		.byte	0x58
 1477 0513 03040000 		.4byte	0x403
 1478 0517 01       		.uleb128 0x1
 1479 0518 51       		.byte	0x51
 1480 0519 16       		.uleb128 0x16
 1481 051a 89010000 		.4byte	.LASF67
 1482 051e 01       		.byte	0x1
ARM GAS  /tmp/ccIHhy0a.s 			page 27


 1483 051f 58       		.byte	0x58
 1484 0520 2C000000 		.4byte	0x2c
 1485 0524 A2000000 		.4byte	.LLST4
 1486 0528 1D       		.uleb128 0x1d
 1487 0529 3B030000 		.4byte	.LASF68
 1488 052d 01       		.byte	0x1
 1489 052e 58       		.byte	0x58
 1490 052f E1030000 		.4byte	0x3e1
 1491 0533 01       		.uleb128 0x1
 1492 0534 53       		.byte	0x53
 1493 0535 1D       		.uleb128 0x1d
 1494 0536 42010000 		.4byte	.LASF69
 1495 053a 01       		.byte	0x1
 1496 053b 59       		.byte	0x59
 1497 053c 15020000 		.4byte	0x215
 1498 0540 02       		.uleb128 0x2
 1499 0541 91       		.byte	0x91
 1500 0542 00       		.sleb128 0
 1501 0543 00       		.byte	0
 1502 0544 09       		.uleb128 0x9
 1503 0545 04       		.byte	0x4
 1504 0546 09040000 		.4byte	0x409
 1505 054a 1B       		.uleb128 0x1b
 1506 054b 6C010000 		.4byte	.LASF71
 1507 054f 01       		.byte	0x1
 1508 0550 6E       		.byte	0x6e
 1509 0551 00000000 		.4byte	.LFB9
 1510 0555 50000000 		.4byte	.LFE9-.LFB9
 1511 0559 01       		.uleb128 0x1
 1512 055a 9C       		.byte	0x9c
 1513 055b A6050000 		.4byte	0x5a6
 1514 055f 15       		.uleb128 0x15
 1515 0560 69717000 		.ascii	"iqp\000"
 1516 0564 01       		.byte	0x1
 1517 0565 6E       		.byte	0x6e
 1518 0566 44050000 		.4byte	0x544
 1519 056a C3000000 		.4byte	.LLST5
 1520 056e 17       		.uleb128 0x17
 1521 056f 52040000 		.4byte	0x452
 1522 0573 2C000000 		.4byte	.LBB14
 1523 0577 0C000000 		.4byte	.LBE14-.LBB14
 1524 057b 01       		.byte	0x1
 1525 057c 75       		.byte	0x75
 1526 057d 9C050000 		.4byte	0x59c
 1527 0581 1E       		.uleb128 0x1e
 1528 0582 62040000 		.4byte	0x462
 1529 0586 01       		.uleb128 0x1
 1530 0587 54       		.byte	0x54
 1531 0588 1F       		.uleb128 0x1f
 1532 0589 2C000000 		.4byte	.LBB15
 1533 058d 0C000000 		.4byte	.LBE15-.LBB15
 1534 0591 20       		.uleb128 0x20
 1535 0592 6D040000 		.4byte	0x46d
 1536 0596 E1000000 		.4byte	.LLST6
 1537 059a 00       		.byte	0
 1538 059b 00       		.byte	0
 1539 059c 21       		.uleb128 0x21
ARM GAS  /tmp/ccIHhy0a.s 			page 28


 1540 059d 3C000000 		.4byte	.LVL10
 1541 05a1 A3090000 		.4byte	0x9a3
 1542 05a5 00       		.byte	0
 1543 05a6 22       		.uleb128 0x22
 1544 05a7 56010000 		.4byte	.LASF72
 1545 05ab 01       		.byte	0x1
 1546 05ac 85       		.byte	0x85
 1547 05ad EF000000 		.4byte	0xef
 1548 05b1 00000000 		.4byte	.LFB10
 1549 05b5 90000000 		.4byte	.LFE10-.LFB10
 1550 05b9 01       		.uleb128 0x1
 1551 05ba 9C       		.byte	0x9c
 1552 05bb 11060000 		.4byte	0x611
 1553 05bf 15       		.uleb128 0x15
 1554 05c0 69717000 		.ascii	"iqp\000"
 1555 05c4 01       		.byte	0x1
 1556 05c5 85       		.byte	0x85
 1557 05c6 44050000 		.4byte	0x544
 1558 05ca F4000000 		.4byte	.LLST7
 1559 05ce 15       		.uleb128 0x15
 1560 05cf 6200     		.ascii	"b\000"
 1561 05d1 01       		.byte	0x1
 1562 05d2 85       		.byte	0x85
 1563 05d3 89000000 		.4byte	0x89
 1564 05d7 52010000 		.4byte	.LLST8
 1565 05db 23       		.uleb128 0x23
 1566 05dc 52040000 		.4byte	0x452
 1567 05e0 50000000 		.4byte	.LBB16
 1568 05e4 00000000 		.4byte	.Ldebug_ranges0+0
 1569 05e8 01       		.byte	0x1
 1570 05e9 92       		.byte	0x92
 1571 05ea 07060000 		.4byte	0x607
 1572 05ee 18       		.uleb128 0x18
 1573 05ef 62040000 		.4byte	0x462
 1574 05f3 73010000 		.4byte	.LLST9
 1575 05f7 24       		.uleb128 0x24
 1576 05f8 00000000 		.4byte	.Ldebug_ranges0+0
 1577 05fc 20       		.uleb128 0x20
 1578 05fd 6D040000 		.4byte	0x46d
 1579 0601 94010000 		.4byte	.LLST10
 1580 0605 00       		.byte	0
 1581 0606 00       		.byte	0
 1582 0607 21       		.uleb128 0x21
 1583 0608 68000000 		.4byte	.LVL15
 1584 060c A3090000 		.4byte	0x9a3
 1585 0610 00       		.byte	0
 1586 0611 22       		.uleb128 0x22
 1587 0612 3B040000 		.4byte	.LASF73
 1588 0616 01       		.byte	0x1
 1589 0617 AB       		.byte	0xab
 1590 0618 EF000000 		.4byte	0xef
 1591 061c 00000000 		.4byte	.LFB11
 1592 0620 74000000 		.4byte	.LFE11-.LFB11
 1593 0624 01       		.uleb128 0x1
 1594 0625 9C       		.byte	0x9c
 1595 0626 95060000 		.4byte	0x695
 1596 062a 15       		.uleb128 0x15
ARM GAS  /tmp/ccIHhy0a.s 			page 29


 1597 062b 69717000 		.ascii	"iqp\000"
 1598 062f 01       		.byte	0x1
 1599 0630 AB       		.byte	0xab
 1600 0631 44050000 		.4byte	0x544
 1601 0635 A7010000 		.4byte	.LLST11
 1602 0639 16       		.uleb128 0x16
 1603 063a BA020000 		.4byte	.LASF66
 1604 063e 01       		.byte	0x1
 1605 063f AB       		.byte	0xab
 1606 0640 05010000 		.4byte	0x105
 1607 0644 C5010000 		.4byte	.LLST12
 1608 0648 25       		.uleb128 0x25
 1609 0649 6200     		.ascii	"b\000"
 1610 064b 01       		.byte	0x1
 1611 064c AC       		.byte	0xac
 1612 064d 89000000 		.4byte	0x89
 1613 0651 E3010000 		.4byte	.LLST13
 1614 0655 26       		.uleb128 0x26
 1615 0656 24000000 		.4byte	.LBB20
 1616 065a 14000000 		.4byte	.LBE20-.LBB20
 1617 065e 88060000 		.4byte	0x688
 1618 0662 25       		.uleb128 0x25
 1619 0663 6D736700 		.ascii	"msg\000"
 1620 0667 01       		.byte	0x1
 1621 0668 B3       		.byte	0xb3
 1622 0669 EF000000 		.4byte	0xef
 1623 066d F6010000 		.4byte	.LLST14
 1624 0671 27       		.uleb128 0x27
 1625 0672 30000000 		.4byte	.LVL22
 1626 0676 78040000 		.4byte	0x478
 1627 067a 1A       		.uleb128 0x1a
 1628 067b 01       		.uleb128 0x1
 1629 067c 51       		.byte	0x51
 1630 067d 02       		.uleb128 0x2
 1631 067e 75       		.byte	0x75
 1632 067f 00       		.sleb128 0
 1633 0680 1A       		.uleb128 0x1a
 1634 0681 01       		.uleb128 0x1
 1635 0682 50       		.byte	0x50
 1636 0683 02       		.uleb128 0x2
 1637 0684 74       		.byte	0x74
 1638 0685 00       		.sleb128 0
 1639 0686 00       		.byte	0
 1640 0687 00       		.byte	0
 1641 0688 28       		.uleb128 0x28
 1642 0689 20000000 		.4byte	.LVL21
 1643 068d 1A       		.uleb128 0x1a
 1644 068e 01       		.uleb128 0x1
 1645 068f 50       		.byte	0x50
 1646 0690 02       		.uleb128 0x2
 1647 0691 74       		.byte	0x74
 1648 0692 00       		.sleb128 0
 1649 0693 00       		.byte	0
 1650 0694 00       		.byte	0
 1651 0695 22       		.uleb128 0x22
 1652 0696 88000000 		.4byte	.LASF74
 1653 069a 01       		.byte	0x1
ARM GAS  /tmp/ccIHhy0a.s 			page 30


 1654 069b DB       		.byte	0xdb
 1655 069c 2C000000 		.4byte	0x2c
 1656 06a0 00000000 		.4byte	.LFB12
 1657 06a4 A8000000 		.4byte	.LFE12-.LFB12
 1658 06a8 01       		.uleb128 0x1
 1659 06a9 9C       		.byte	0x9c
 1660 06aa 2B070000 		.4byte	0x72b
 1661 06ae 15       		.uleb128 0x15
 1662 06af 69717000 		.ascii	"iqp\000"
 1663 06b3 01       		.byte	0x1
 1664 06b4 DB       		.byte	0xdb
 1665 06b5 44050000 		.4byte	0x544
 1666 06b9 09020000 		.4byte	.LLST15
 1667 06bd 15       		.uleb128 0x15
 1668 06be 627000   		.ascii	"bp\000"
 1669 06c1 01       		.byte	0x1
 1670 06c2 DB       		.byte	0xdb
 1671 06c3 03040000 		.4byte	0x403
 1672 06c7 27020000 		.4byte	.LLST16
 1673 06cb 15       		.uleb128 0x15
 1674 06cc 6E00     		.ascii	"n\000"
 1675 06ce 01       		.byte	0x1
 1676 06cf DC       		.byte	0xdc
 1677 06d0 2C000000 		.4byte	0x2c
 1678 06d4 5D020000 		.4byte	.LLST17
 1679 06d8 16       		.uleb128 0x16
 1680 06d9 BA020000 		.4byte	.LASF66
 1681 06dd 01       		.byte	0x1
 1682 06de DC       		.byte	0xdc
 1683 06df 05010000 		.4byte	0x105
 1684 06e3 80020000 		.4byte	.LLST18
 1685 06e7 29       		.uleb128 0x29
 1686 06e8 6E667900 		.ascii	"nfy\000"
 1687 06ec 01       		.byte	0x1
 1688 06ed DD       		.byte	0xdd
 1689 06ee E1030000 		.4byte	0x3e1
 1690 06f2 01       		.uleb128 0x1
 1691 06f3 57       		.byte	0x57
 1692 06f4 25       		.uleb128 0x25
 1693 06f5 7200     		.ascii	"r\000"
 1694 06f7 01       		.byte	0x1
 1695 06f8 DE       		.byte	0xde
 1696 06f9 2C000000 		.4byte	0x2c
 1697 06fd 9E020000 		.4byte	.LLST19
 1698 0701 2A       		.uleb128 0x2a
 1699 0702 30000000 		.4byte	.LVL29
 1700 0706 02       		.uleb128 0x2
 1701 0707 77       		.byte	0x77
 1702 0708 00       		.sleb128 0
 1703 0709 14070000 		.4byte	0x714
 1704 070d 1A       		.uleb128 0x1a
 1705 070e 01       		.uleb128 0x1
 1706 070f 50       		.byte	0x50
 1707 0710 02       		.uleb128 0x2
 1708 0711 74       		.byte	0x74
 1709 0712 00       		.sleb128 0
 1710 0713 00       		.byte	0
ARM GAS  /tmp/ccIHhy0a.s 			page 31


 1711 0714 27       		.uleb128 0x27
 1712 0715 40000000 		.4byte	.LVL30
 1713 0719 78040000 		.4byte	0x478
 1714 071d 1A       		.uleb128 0x1a
 1715 071e 01       		.uleb128 0x1
 1716 071f 51       		.byte	0x51
 1717 0720 02       		.uleb128 0x2
 1718 0721 75       		.byte	0x75
 1719 0722 00       		.sleb128 0
 1720 0723 1A       		.uleb128 0x1a
 1721 0724 01       		.uleb128 0x1
 1722 0725 50       		.byte	0x50
 1723 0726 02       		.uleb128 0x2
 1724 0727 74       		.byte	0x74
 1725 0728 00       		.sleb128 0
 1726 0729 00       		.byte	0
 1727 072a 00       		.byte	0
 1728 072b 2B       		.uleb128 0x2b
 1729 072c 00000000 		.4byte	.LASF75
 1730 0730 01       		.byte	0x1
 1731 0731 0C01     		.2byte	0x10c
 1732 0733 00000000 		.4byte	.LFB13
 1733 0737 34000000 		.4byte	.LFE13-.LFB13
 1734 073b 01       		.uleb128 0x1
 1735 073c 9C       		.byte	0x9c
 1736 073d 88070000 		.4byte	0x788
 1737 0741 2C       		.uleb128 0x2c
 1738 0742 6F717000 		.ascii	"oqp\000"
 1739 0746 01       		.byte	0x1
 1740 0747 0C01     		.2byte	0x10c
 1741 0749 88070000 		.4byte	0x788
 1742 074d 01       		.uleb128 0x1
 1743 074e 50       		.byte	0x50
 1744 074f 2C       		.uleb128 0x2c
 1745 0750 627000   		.ascii	"bp\000"
 1746 0753 01       		.byte	0x1
 1747 0754 0C01     		.2byte	0x10c
 1748 0756 03040000 		.4byte	0x403
 1749 075a 01       		.uleb128 0x1
 1750 075b 51       		.byte	0x51
 1751 075c 2D       		.uleb128 0x2d
 1752 075d 89010000 		.4byte	.LASF67
 1753 0761 01       		.byte	0x1
 1754 0762 0C01     		.2byte	0x10c
 1755 0764 2C000000 		.4byte	0x2c
 1756 0768 01       		.uleb128 0x1
 1757 0769 52       		.byte	0x52
 1758 076a 2D       		.uleb128 0x2d
 1759 076b 56000000 		.4byte	.LASF76
 1760 076f 01       		.byte	0x1
 1761 0770 0C01     		.2byte	0x10c
 1762 0772 E1030000 		.4byte	0x3e1
 1763 0776 01       		.uleb128 0x1
 1764 0777 53       		.byte	0x53
 1765 0778 2D       		.uleb128 0x2d
 1766 0779 42010000 		.4byte	.LASF69
 1767 077d 01       		.byte	0x1
ARM GAS  /tmp/ccIHhy0a.s 			page 32


 1768 077e 0D01     		.2byte	0x10d
 1769 0780 15020000 		.4byte	0x215
 1770 0784 02       		.uleb128 0x2
 1771 0785 91       		.byte	0x91
 1772 0786 00       		.sleb128 0
 1773 0787 00       		.byte	0
 1774 0788 09       		.uleb128 0x9
 1775 0789 04       		.byte	0x4
 1776 078a 14040000 		.4byte	0x414
 1777 078e 2B       		.uleb128 0x2b
 1778 078f 9D030000 		.4byte	.LASF77
 1779 0793 01       		.byte	0x1
 1780 0794 2201     		.2byte	0x122
 1781 0796 00000000 		.4byte	.LFB14
 1782 079a 54000000 		.4byte	.LFE14-.LFB14
 1783 079e 01       		.uleb128 0x1
 1784 079f 9C       		.byte	0x9c
 1785 07a0 ED070000 		.4byte	0x7ed
 1786 07a4 2E       		.uleb128 0x2e
 1787 07a5 6F717000 		.ascii	"oqp\000"
 1788 07a9 01       		.byte	0x1
 1789 07aa 2201     		.2byte	0x122
 1790 07ac 88070000 		.4byte	0x788
 1791 07b0 BD020000 		.4byte	.LLST20
 1792 07b4 2F       		.uleb128 0x2f
 1793 07b5 52040000 		.4byte	0x452
 1794 07b9 30000000 		.4byte	.LBB21
 1795 07bd 0C000000 		.4byte	.LBE21-.LBB21
 1796 07c1 01       		.byte	0x1
 1797 07c2 2901     		.2byte	0x129
 1798 07c4 E3070000 		.4byte	0x7e3
 1799 07c8 1E       		.uleb128 0x1e
 1800 07c9 62040000 		.4byte	0x462
 1801 07cd 01       		.uleb128 0x1
 1802 07ce 54       		.byte	0x54
 1803 07cf 1F       		.uleb128 0x1f
 1804 07d0 30000000 		.4byte	.LBB22
 1805 07d4 0C000000 		.4byte	.LBE22-.LBB22
 1806 07d8 20       		.uleb128 0x20
 1807 07d9 6D040000 		.4byte	0x46d
 1808 07dd DB020000 		.4byte	.LLST21
 1809 07e1 00       		.byte	0
 1810 07e2 00       		.byte	0
 1811 07e3 21       		.uleb128 0x21
 1812 07e4 40000000 		.4byte	.LVL39
 1813 07e8 A3090000 		.4byte	0x9a3
 1814 07ec 00       		.byte	0
 1815 07ed 30       		.uleb128 0x30
 1816 07ee 47010000 		.4byte	.LASF78
 1817 07f2 01       		.byte	0x1
 1818 07f3 4201     		.2byte	0x142
 1819 07f5 EF000000 		.4byte	0xef
 1820 07f9 00000000 		.4byte	.LFB15
 1821 07fd 8C000000 		.4byte	.LFE15-.LFB15
 1822 0801 01       		.uleb128 0x1
 1823 0802 9C       		.byte	0x9c
 1824 0803 72080000 		.4byte	0x872
ARM GAS  /tmp/ccIHhy0a.s 			page 33


 1825 0807 2E       		.uleb128 0x2e
 1826 0808 6F717000 		.ascii	"oqp\000"
 1827 080c 01       		.byte	0x1
 1828 080d 4201     		.2byte	0x142
 1829 080f 88070000 		.4byte	0x788
 1830 0813 EE020000 		.4byte	.LLST22
 1831 0817 2E       		.uleb128 0x2e
 1832 0818 6200     		.ascii	"b\000"
 1833 081a 01       		.byte	0x1
 1834 081b 4201     		.2byte	0x142
 1835 081d 89000000 		.4byte	0x89
 1836 0821 0C030000 		.4byte	.LLST23
 1837 0825 31       		.uleb128 0x31
 1838 0826 BA020000 		.4byte	.LASF66
 1839 082a 01       		.byte	0x1
 1840 082b 4201     		.2byte	0x142
 1841 082d 05010000 		.4byte	0x105
 1842 0831 2A030000 		.4byte	.LLST24
 1843 0835 32       		.uleb128 0x32
 1844 0836 18000000 		.4byte	.Ldebug_ranges0+0x18
 1845 083a 65080000 		.4byte	0x865
 1846 083e 33       		.uleb128 0x33
 1847 083f 6D736700 		.ascii	"msg\000"
 1848 0843 01       		.byte	0x1
 1849 0844 4601     		.2byte	0x146
 1850 0846 EF000000 		.4byte	0xef
 1851 084a 48030000 		.4byte	.LLST25
 1852 084e 27       		.uleb128 0x27
 1853 084f 24000000 		.4byte	.LVL42
 1854 0853 78040000 		.4byte	0x478
 1855 0857 1A       		.uleb128 0x1a
 1856 0858 01       		.uleb128 0x1
 1857 0859 51       		.byte	0x51
 1858 085a 02       		.uleb128 0x2
 1859 085b 75       		.byte	0x75
 1860 085c 00       		.sleb128 0
 1861 085d 1A       		.uleb128 0x1a
 1862 085e 01       		.uleb128 0x1
 1863 085f 50       		.byte	0x50
 1864 0860 02       		.uleb128 0x2
 1865 0861 74       		.byte	0x74
 1866 0862 00       		.sleb128 0
 1867 0863 00       		.byte	0
 1868 0864 00       		.byte	0
 1869 0865 28       		.uleb128 0x28
 1870 0866 78000000 		.4byte	.LVL44
 1871 086a 1A       		.uleb128 0x1a
 1872 086b 01       		.uleb128 0x1
 1873 086c 50       		.byte	0x50
 1874 086d 02       		.uleb128 0x2
 1875 086e 74       		.byte	0x74
 1876 086f 00       		.sleb128 0
 1877 0870 00       		.byte	0
 1878 0871 00       		.byte	0
 1879 0872 30       		.uleb128 0x30
 1880 0873 14010000 		.4byte	.LASF79
 1881 0877 01       		.byte	0x1
ARM GAS  /tmp/ccIHhy0a.s 			page 34


 1882 0878 6401     		.2byte	0x164
 1883 087a EF000000 		.4byte	0xef
 1884 087e 00000000 		.4byte	.LFB16
 1885 0882 80000000 		.4byte	.LFE16-.LFB16
 1886 0886 01       		.uleb128 0x1
 1887 0887 9C       		.byte	0x9c
 1888 0888 E1080000 		.4byte	0x8e1
 1889 088c 2E       		.uleb128 0x2e
 1890 088d 6F717000 		.ascii	"oqp\000"
 1891 0891 01       		.byte	0x1
 1892 0892 6401     		.2byte	0x164
 1893 0894 88070000 		.4byte	0x788
 1894 0898 66030000 		.4byte	.LLST26
 1895 089c 33       		.uleb128 0x33
 1896 089d 6200     		.ascii	"b\000"
 1897 089f 01       		.byte	0x1
 1898 08a0 6501     		.2byte	0x165
 1899 08a2 89000000 		.4byte	0x89
 1900 08a6 AB030000 		.4byte	.LLST27
 1901 08aa 34       		.uleb128 0x34
 1902 08ab 52040000 		.4byte	0x452
 1903 08af 4C000000 		.4byte	.LBB25
 1904 08b3 30000000 		.4byte	.Ldebug_ranges0+0x30
 1905 08b7 01       		.byte	0x1
 1906 08b8 7201     		.2byte	0x172
 1907 08ba D7080000 		.4byte	0x8d7
 1908 08be 18       		.uleb128 0x18
 1909 08bf 62040000 		.4byte	0x462
 1910 08c3 BE030000 		.4byte	.LLST28
 1911 08c7 24       		.uleb128 0x24
 1912 08c8 30000000 		.4byte	.Ldebug_ranges0+0x30
 1913 08cc 20       		.uleb128 0x20
 1914 08cd 6D040000 		.4byte	0x46d
 1915 08d1 DF030000 		.4byte	.LLST29
 1916 08d5 00       		.byte	0
 1917 08d6 00       		.byte	0
 1918 08d7 21       		.uleb128 0x21
 1919 08d8 60000000 		.4byte	.LVL50
 1920 08dc A3090000 		.4byte	0x9a3
 1921 08e0 00       		.byte	0
 1922 08e1 30       		.uleb128 0x30
 1923 08e2 80020000 		.4byte	.LASF80
 1924 08e6 01       		.byte	0x1
 1925 08e7 8F01     		.2byte	0x18f
 1926 08e9 2C000000 		.4byte	0x2c
 1927 08ed 00000000 		.4byte	.LFB17
 1928 08f1 AC000000 		.4byte	.LFE17-.LFB17
 1929 08f5 01       		.uleb128 0x1
 1930 08f6 9C       		.byte	0x9c
 1931 08f7 7E090000 		.4byte	0x97e
 1932 08fb 2E       		.uleb128 0x2e
 1933 08fc 6F717000 		.ascii	"oqp\000"
 1934 0900 01       		.byte	0x1
 1935 0901 8F01     		.2byte	0x18f
 1936 0903 88070000 		.4byte	0x788
 1937 0907 F2030000 		.4byte	.LLST30
 1938 090b 2E       		.uleb128 0x2e
ARM GAS  /tmp/ccIHhy0a.s 			page 35


 1939 090c 627000   		.ascii	"bp\000"
 1940 090f 01       		.byte	0x1
 1941 0910 8F01     		.2byte	0x18f
 1942 0912 1F040000 		.4byte	0x41f
 1943 0916 10040000 		.4byte	.LLST31
 1944 091a 2E       		.uleb128 0x2e
 1945 091b 6E00     		.ascii	"n\000"
 1946 091d 01       		.byte	0x1
 1947 091e 9001     		.2byte	0x190
 1948 0920 2C000000 		.4byte	0x2c
 1949 0924 39040000 		.4byte	.LLST32
 1950 0928 31       		.uleb128 0x31
 1951 0929 BA020000 		.4byte	.LASF66
 1952 092d 01       		.byte	0x1
 1953 092e 9001     		.2byte	0x190
 1954 0930 05010000 		.4byte	0x105
 1955 0934 6F040000 		.4byte	.LLST33
 1956 0938 35       		.uleb128 0x35
 1957 0939 6E667900 		.ascii	"nfy\000"
 1958 093d 01       		.byte	0x1
 1959 093e 9101     		.2byte	0x191
 1960 0940 E1030000 		.4byte	0x3e1
 1961 0944 01       		.uleb128 0x1
 1962 0945 58       		.byte	0x58
 1963 0946 33       		.uleb128 0x33
 1964 0947 7700     		.ascii	"w\000"
 1965 0949 01       		.byte	0x1
 1966 094a 9201     		.2byte	0x192
 1967 094c 2C000000 		.4byte	0x2c
 1968 0950 8D040000 		.4byte	.LLST34
 1969 0954 2A       		.uleb128 0x2a
 1970 0955 70000000 		.4byte	.LVL58
 1971 0959 02       		.uleb128 0x2
 1972 095a 78       		.byte	0x78
 1973 095b 00       		.sleb128 0
 1974 095c 67090000 		.4byte	0x967
 1975 0960 1A       		.uleb128 0x1a
 1976 0961 01       		.uleb128 0x1
 1977 0962 50       		.byte	0x50
 1978 0963 02       		.uleb128 0x2
 1979 0964 74       		.byte	0x74
 1980 0965 00       		.sleb128 0
 1981 0966 00       		.byte	0
 1982 0967 27       		.uleb128 0x27
 1983 0968 98000000 		.4byte	.LVL62
 1984 096c 78040000 		.4byte	0x478
 1985 0970 1A       		.uleb128 0x1a
 1986 0971 01       		.uleb128 0x1
 1987 0972 51       		.byte	0x51
 1988 0973 02       		.uleb128 0x2
 1989 0974 79       		.byte	0x79
 1990 0975 00       		.sleb128 0
 1991 0976 1A       		.uleb128 0x1a
 1992 0977 01       		.uleb128 0x1
 1993 0978 50       		.byte	0x50
 1994 0979 02       		.uleb128 0x2
 1995 097a 74       		.byte	0x74
ARM GAS  /tmp/ccIHhy0a.s 			page 36


 1996 097b 00       		.sleb128 0
 1997 097c 00       		.byte	0
 1998 097d 00       		.byte	0
 1999 097e 36       		.uleb128 0x36
 2000 097f F2030000 		.4byte	.LASF87
 2001 0983 0A       		.byte	0xa
 2002 0984 68       		.byte	0x68
 2003 0985 E1020000 		.4byte	0x2e1
 2004 0989 37       		.uleb128 0x37
 2005 098a 07040000 		.4byte	.LASF88
 2006 098e 0A       		.byte	0xa
 2007 098f 8F       		.byte	0x8f
 2008 0990 EF000000 		.4byte	0xef
 2009 0994 A3090000 		.4byte	0x9a3
 2010 0998 0E       		.uleb128 0xe
 2011 0999 CE000000 		.4byte	0xce
 2012 099d 0E       		.uleb128 0xe
 2013 099e 05010000 		.4byte	0x105
 2014 09a2 00       		.byte	0
 2015 09a3 38       		.uleb128 0x38
 2016 09a4 6B030000 		.4byte	.LASF89
 2017 09a8 0A       		.byte	0xa
 2018 09a9 89       		.byte	0x89
 2019 09aa D9010000 		.4byte	0x1d9
 2020 09ae 0E       		.uleb128 0xe
 2021 09af D9010000 		.4byte	0x1d9
 2022 09b3 00       		.byte	0
 2023 09b4 00       		.byte	0
 2024              		.section	.debug_abbrev,"",%progbits
 2025              	.Ldebug_abbrev0:
 2026 0000 01       		.uleb128 0x1
 2027 0001 11       		.uleb128 0x11
 2028 0002 01       		.byte	0x1
 2029 0003 25       		.uleb128 0x25
 2030 0004 0E       		.uleb128 0xe
 2031 0005 13       		.uleb128 0x13
 2032 0006 0B       		.uleb128 0xb
 2033 0007 03       		.uleb128 0x3
 2034 0008 0E       		.uleb128 0xe
 2035 0009 1B       		.uleb128 0x1b
 2036 000a 0E       		.uleb128 0xe
 2037 000b 55       		.uleb128 0x55
 2038 000c 17       		.uleb128 0x17
 2039 000d 11       		.uleb128 0x11
 2040 000e 01       		.uleb128 0x1
 2041 000f 10       		.uleb128 0x10
 2042 0010 17       		.uleb128 0x17
 2043 0011 00       		.byte	0
 2044 0012 00       		.byte	0
 2045 0013 02       		.uleb128 0x2
 2046 0014 24       		.uleb128 0x24
 2047 0015 00       		.byte	0
 2048 0016 0B       		.uleb128 0xb
 2049 0017 0B       		.uleb128 0xb
 2050 0018 3E       		.uleb128 0x3e
 2051 0019 0B       		.uleb128 0xb
 2052 001a 03       		.uleb128 0x3
ARM GAS  /tmp/ccIHhy0a.s 			page 37


 2053 001b 0E       		.uleb128 0xe
 2054 001c 00       		.byte	0
 2055 001d 00       		.byte	0
 2056 001e 03       		.uleb128 0x3
 2057 001f 16       		.uleb128 0x16
 2058 0020 00       		.byte	0
 2059 0021 03       		.uleb128 0x3
 2060 0022 0E       		.uleb128 0xe
 2061 0023 3A       		.uleb128 0x3a
 2062 0024 0B       		.uleb128 0xb
 2063 0025 3B       		.uleb128 0x3b
 2064 0026 0B       		.uleb128 0xb
 2065 0027 49       		.uleb128 0x49
 2066 0028 13       		.uleb128 0x13
 2067 0029 00       		.byte	0
 2068 002a 00       		.byte	0
 2069 002b 04       		.uleb128 0x4
 2070 002c 24       		.uleb128 0x24
 2071 002d 00       		.byte	0
 2072 002e 0B       		.uleb128 0xb
 2073 002f 0B       		.uleb128 0xb
 2074 0030 3E       		.uleb128 0x3e
 2075 0031 0B       		.uleb128 0xb
 2076 0032 03       		.uleb128 0x3
 2077 0033 08       		.uleb128 0x8
 2078 0034 00       		.byte	0
 2079 0035 00       		.byte	0
 2080 0036 05       		.uleb128 0x5
 2081 0037 13       		.uleb128 0x13
 2082 0038 01       		.byte	0x1
 2083 0039 03       		.uleb128 0x3
 2084 003a 0E       		.uleb128 0xe
 2085 003b 0B       		.uleb128 0xb
 2086 003c 0B       		.uleb128 0xb
 2087 003d 3A       		.uleb128 0x3a
 2088 003e 0B       		.uleb128 0xb
 2089 003f 3B       		.uleb128 0x3b
 2090 0040 0B       		.uleb128 0xb
 2091 0041 01       		.uleb128 0x1
 2092 0042 13       		.uleb128 0x13
 2093 0043 00       		.byte	0
 2094 0044 00       		.byte	0
 2095 0045 06       		.uleb128 0x6
 2096 0046 0D       		.uleb128 0xd
 2097 0047 00       		.byte	0
 2098 0048 03       		.uleb128 0x3
 2099 0049 0E       		.uleb128 0xe
 2100 004a 3A       		.uleb128 0x3a
 2101 004b 0B       		.uleb128 0xb
 2102 004c 3B       		.uleb128 0x3b
 2103 004d 0B       		.uleb128 0xb
 2104 004e 49       		.uleb128 0x49
 2105 004f 13       		.uleb128 0x13
 2106 0050 38       		.uleb128 0x38
 2107 0051 0B       		.uleb128 0xb
 2108 0052 00       		.byte	0
 2109 0053 00       		.byte	0
ARM GAS  /tmp/ccIHhy0a.s 			page 38


 2110 0054 07       		.uleb128 0x7
 2111 0055 0D       		.uleb128 0xd
 2112 0056 00       		.byte	0
 2113 0057 03       		.uleb128 0x3
 2114 0058 08       		.uleb128 0x8
 2115 0059 3A       		.uleb128 0x3a
 2116 005a 0B       		.uleb128 0xb
 2117 005b 3B       		.uleb128 0x3b
 2118 005c 0B       		.uleb128 0xb
 2119 005d 49       		.uleb128 0x49
 2120 005e 13       		.uleb128 0x13
 2121 005f 38       		.uleb128 0x38
 2122 0060 0B       		.uleb128 0xb
 2123 0061 00       		.byte	0
 2124 0062 00       		.byte	0
 2125 0063 08       		.uleb128 0x8
 2126 0064 13       		.uleb128 0x13
 2127 0065 01       		.byte	0x1
 2128 0066 0B       		.uleb128 0xb
 2129 0067 0B       		.uleb128 0xb
 2130 0068 3A       		.uleb128 0x3a
 2131 0069 0B       		.uleb128 0xb
 2132 006a 3B       		.uleb128 0x3b
 2133 006b 0B       		.uleb128 0xb
 2134 006c 01       		.uleb128 0x1
 2135 006d 13       		.uleb128 0x13
 2136 006e 00       		.byte	0
 2137 006f 00       		.byte	0
 2138 0070 09       		.uleb128 0x9
 2139 0071 0F       		.uleb128 0xf
 2140 0072 00       		.byte	0
 2141 0073 0B       		.uleb128 0xb
 2142 0074 0B       		.uleb128 0xb
 2143 0075 49       		.uleb128 0x49
 2144 0076 13       		.uleb128 0x13
 2145 0077 00       		.byte	0
 2146 0078 00       		.byte	0
 2147 0079 0A       		.uleb128 0xa
 2148 007a 0F       		.uleb128 0xf
 2149 007b 00       		.byte	0
 2150 007c 0B       		.uleb128 0xb
 2151 007d 0B       		.uleb128 0xb
 2152 007e 00       		.byte	0
 2153 007f 00       		.byte	0
 2154 0080 0B       		.uleb128 0xb
 2155 0081 17       		.uleb128 0x17
 2156 0082 01       		.byte	0x1
 2157 0083 0B       		.uleb128 0xb
 2158 0084 0B       		.uleb128 0xb
 2159 0085 3A       		.uleb128 0x3a
 2160 0086 0B       		.uleb128 0xb
 2161 0087 3B       		.uleb128 0x3b
 2162 0088 0B       		.uleb128 0xb
 2163 0089 01       		.uleb128 0x1
 2164 008a 13       		.uleb128 0x13
 2165 008b 00       		.byte	0
 2166 008c 00       		.byte	0
ARM GAS  /tmp/ccIHhy0a.s 			page 39


 2167 008d 0C       		.uleb128 0xc
 2168 008e 0D       		.uleb128 0xd
 2169 008f 00       		.byte	0
 2170 0090 03       		.uleb128 0x3
 2171 0091 0E       		.uleb128 0xe
 2172 0092 3A       		.uleb128 0x3a
 2173 0093 0B       		.uleb128 0xb
 2174 0094 3B       		.uleb128 0x3b
 2175 0095 0B       		.uleb128 0xb
 2176 0096 49       		.uleb128 0x49
 2177 0097 13       		.uleb128 0x13
 2178 0098 00       		.byte	0
 2179 0099 00       		.byte	0
 2180 009a 0D       		.uleb128 0xd
 2181 009b 15       		.uleb128 0x15
 2182 009c 01       		.byte	0x1
 2183 009d 27       		.uleb128 0x27
 2184 009e 19       		.uleb128 0x19
 2185 009f 01       		.uleb128 0x1
 2186 00a0 13       		.uleb128 0x13
 2187 00a1 00       		.byte	0
 2188 00a2 00       		.byte	0
 2189 00a3 0E       		.uleb128 0xe
 2190 00a4 05       		.uleb128 0x5
 2191 00a5 00       		.byte	0
 2192 00a6 49       		.uleb128 0x49
 2193 00a7 13       		.uleb128 0x13
 2194 00a8 00       		.byte	0
 2195 00a9 00       		.byte	0
 2196 00aa 0F       		.uleb128 0xf
 2197 00ab 26       		.uleb128 0x26
 2198 00ac 00       		.byte	0
 2199 00ad 49       		.uleb128 0x49
 2200 00ae 13       		.uleb128 0x13
 2201 00af 00       		.byte	0
 2202 00b0 00       		.byte	0
 2203 00b1 10       		.uleb128 0x10
 2204 00b2 2E       		.uleb128 0x2e
 2205 00b3 01       		.byte	0x1
 2206 00b4 03       		.uleb128 0x3
 2207 00b5 0E       		.uleb128 0xe
 2208 00b6 3A       		.uleb128 0x3a
 2209 00b7 0B       		.uleb128 0xb
 2210 00b8 3B       		.uleb128 0x3b
 2211 00b9 0B       		.uleb128 0xb
 2212 00ba 27       		.uleb128 0x27
 2213 00bb 19       		.uleb128 0x19
 2214 00bc 20       		.uleb128 0x20
 2215 00bd 0B       		.uleb128 0xb
 2216 00be 01       		.uleb128 0x1
 2217 00bf 13       		.uleb128 0x13
 2218 00c0 00       		.byte	0
 2219 00c1 00       		.byte	0
 2220 00c2 11       		.uleb128 0x11
 2221 00c3 05       		.uleb128 0x5
 2222 00c4 00       		.byte	0
 2223 00c5 03       		.uleb128 0x3
ARM GAS  /tmp/ccIHhy0a.s 			page 40


 2224 00c6 08       		.uleb128 0x8
 2225 00c7 3A       		.uleb128 0x3a
 2226 00c8 0B       		.uleb128 0xb
 2227 00c9 3B       		.uleb128 0x3b
 2228 00ca 0B       		.uleb128 0xb
 2229 00cb 49       		.uleb128 0x49
 2230 00cc 13       		.uleb128 0x13
 2231 00cd 00       		.byte	0
 2232 00ce 00       		.byte	0
 2233 00cf 12       		.uleb128 0x12
 2234 00d0 2E       		.uleb128 0x2e
 2235 00d1 01       		.byte	0x1
 2236 00d2 03       		.uleb128 0x3
 2237 00d3 0E       		.uleb128 0xe
 2238 00d4 3A       		.uleb128 0x3a
 2239 00d5 0B       		.uleb128 0xb
 2240 00d6 3B       		.uleb128 0x3b
 2241 00d7 0B       		.uleb128 0xb
 2242 00d8 27       		.uleb128 0x27
 2243 00d9 19       		.uleb128 0x19
 2244 00da 49       		.uleb128 0x49
 2245 00db 13       		.uleb128 0x13
 2246 00dc 20       		.uleb128 0x20
 2247 00dd 0B       		.uleb128 0xb
 2248 00de 01       		.uleb128 0x1
 2249 00df 13       		.uleb128 0x13
 2250 00e0 00       		.byte	0
 2251 00e1 00       		.byte	0
 2252 00e2 13       		.uleb128 0x13
 2253 00e3 34       		.uleb128 0x34
 2254 00e4 00       		.byte	0
 2255 00e5 03       		.uleb128 0x3
 2256 00e6 08       		.uleb128 0x8
 2257 00e7 3A       		.uleb128 0x3a
 2258 00e8 0B       		.uleb128 0xb
 2259 00e9 3B       		.uleb128 0x3b
 2260 00ea 0B       		.uleb128 0xb
 2261 00eb 49       		.uleb128 0x49
 2262 00ec 13       		.uleb128 0x13
 2263 00ed 00       		.byte	0
 2264 00ee 00       		.byte	0
 2265 00ef 14       		.uleb128 0x14
 2266 00f0 2E       		.uleb128 0x2e
 2267 00f1 01       		.byte	0x1
 2268 00f2 03       		.uleb128 0x3
 2269 00f3 0E       		.uleb128 0xe
 2270 00f4 3A       		.uleb128 0x3a
 2271 00f5 0B       		.uleb128 0xb
 2272 00f6 3B       		.uleb128 0x3b
 2273 00f7 0B       		.uleb128 0xb
 2274 00f8 27       		.uleb128 0x27
 2275 00f9 19       		.uleb128 0x19
 2276 00fa 49       		.uleb128 0x49
 2277 00fb 13       		.uleb128 0x13
 2278 00fc 11       		.uleb128 0x11
 2279 00fd 01       		.uleb128 0x1
 2280 00fe 12       		.uleb128 0x12
ARM GAS  /tmp/ccIHhy0a.s 			page 41


 2281 00ff 06       		.uleb128 0x6
 2282 0100 40       		.uleb128 0x40
 2283 0101 18       		.uleb128 0x18
 2284 0102 9742     		.uleb128 0x2117
 2285 0104 19       		.uleb128 0x19
 2286 0105 01       		.uleb128 0x1
 2287 0106 13       		.uleb128 0x13
 2288 0107 00       		.byte	0
 2289 0108 00       		.byte	0
 2290 0109 15       		.uleb128 0x15
 2291 010a 05       		.uleb128 0x5
 2292 010b 00       		.byte	0
 2293 010c 03       		.uleb128 0x3
 2294 010d 08       		.uleb128 0x8
 2295 010e 3A       		.uleb128 0x3a
 2296 010f 0B       		.uleb128 0xb
 2297 0110 3B       		.uleb128 0x3b
 2298 0111 0B       		.uleb128 0xb
 2299 0112 49       		.uleb128 0x49
 2300 0113 13       		.uleb128 0x13
 2301 0114 02       		.uleb128 0x2
 2302 0115 17       		.uleb128 0x17
 2303 0116 00       		.byte	0
 2304 0117 00       		.byte	0
 2305 0118 16       		.uleb128 0x16
 2306 0119 05       		.uleb128 0x5
 2307 011a 00       		.byte	0
 2308 011b 03       		.uleb128 0x3
 2309 011c 0E       		.uleb128 0xe
 2310 011d 3A       		.uleb128 0x3a
 2311 011e 0B       		.uleb128 0xb
 2312 011f 3B       		.uleb128 0x3b
 2313 0120 0B       		.uleb128 0xb
 2314 0121 49       		.uleb128 0x49
 2315 0122 13       		.uleb128 0x13
 2316 0123 02       		.uleb128 0x2
 2317 0124 17       		.uleb128 0x17
 2318 0125 00       		.byte	0
 2319 0126 00       		.byte	0
 2320 0127 17       		.uleb128 0x17
 2321 0128 1D       		.uleb128 0x1d
 2322 0129 01       		.byte	0x1
 2323 012a 31       		.uleb128 0x31
 2324 012b 13       		.uleb128 0x13
 2325 012c 11       		.uleb128 0x11
 2326 012d 01       		.uleb128 0x1
 2327 012e 12       		.uleb128 0x12
 2328 012f 06       		.uleb128 0x6
 2329 0130 58       		.uleb128 0x58
 2330 0131 0B       		.uleb128 0xb
 2331 0132 59       		.uleb128 0x59
 2332 0133 0B       		.uleb128 0xb
 2333 0134 01       		.uleb128 0x1
 2334 0135 13       		.uleb128 0x13
 2335 0136 00       		.byte	0
 2336 0137 00       		.byte	0
 2337 0138 18       		.uleb128 0x18
ARM GAS  /tmp/ccIHhy0a.s 			page 42


 2338 0139 05       		.uleb128 0x5
 2339 013a 00       		.byte	0
 2340 013b 31       		.uleb128 0x31
 2341 013c 13       		.uleb128 0x13
 2342 013d 02       		.uleb128 0x2
 2343 013e 17       		.uleb128 0x17
 2344 013f 00       		.byte	0
 2345 0140 00       		.byte	0
 2346 0141 19       		.uleb128 0x19
 2347 0142 898201   		.uleb128 0x4109
 2348 0145 01       		.byte	0x1
 2349 0146 11       		.uleb128 0x11
 2350 0147 01       		.uleb128 0x1
 2351 0148 9542     		.uleb128 0x2115
 2352 014a 19       		.uleb128 0x19
 2353 014b 31       		.uleb128 0x31
 2354 014c 13       		.uleb128 0x13
 2355 014d 00       		.byte	0
 2356 014e 00       		.byte	0
 2357 014f 1A       		.uleb128 0x1a
 2358 0150 8A8201   		.uleb128 0x410a
 2359 0153 00       		.byte	0
 2360 0154 02       		.uleb128 0x2
 2361 0155 18       		.uleb128 0x18
 2362 0156 9142     		.uleb128 0x2111
 2363 0158 18       		.uleb128 0x18
 2364 0159 00       		.byte	0
 2365 015a 00       		.byte	0
 2366 015b 1B       		.uleb128 0x1b
 2367 015c 2E       		.uleb128 0x2e
 2368 015d 01       		.byte	0x1
 2369 015e 3F       		.uleb128 0x3f
 2370 015f 19       		.uleb128 0x19
 2371 0160 03       		.uleb128 0x3
 2372 0161 0E       		.uleb128 0xe
 2373 0162 3A       		.uleb128 0x3a
 2374 0163 0B       		.uleb128 0xb
 2375 0164 3B       		.uleb128 0x3b
 2376 0165 0B       		.uleb128 0xb
 2377 0166 27       		.uleb128 0x27
 2378 0167 19       		.uleb128 0x19
 2379 0168 11       		.uleb128 0x11
 2380 0169 01       		.uleb128 0x1
 2381 016a 12       		.uleb128 0x12
 2382 016b 06       		.uleb128 0x6
 2383 016c 40       		.uleb128 0x40
 2384 016d 18       		.uleb128 0x18
 2385 016e 9742     		.uleb128 0x2117
 2386 0170 19       		.uleb128 0x19
 2387 0171 01       		.uleb128 0x1
 2388 0172 13       		.uleb128 0x13
 2389 0173 00       		.byte	0
 2390 0174 00       		.byte	0
 2391 0175 1C       		.uleb128 0x1c
 2392 0176 05       		.uleb128 0x5
 2393 0177 00       		.byte	0
 2394 0178 03       		.uleb128 0x3
ARM GAS  /tmp/ccIHhy0a.s 			page 43


 2395 0179 08       		.uleb128 0x8
 2396 017a 3A       		.uleb128 0x3a
 2397 017b 0B       		.uleb128 0xb
 2398 017c 3B       		.uleb128 0x3b
 2399 017d 0B       		.uleb128 0xb
 2400 017e 49       		.uleb128 0x49
 2401 017f 13       		.uleb128 0x13
 2402 0180 02       		.uleb128 0x2
 2403 0181 18       		.uleb128 0x18
 2404 0182 00       		.byte	0
 2405 0183 00       		.byte	0
 2406 0184 1D       		.uleb128 0x1d
 2407 0185 05       		.uleb128 0x5
 2408 0186 00       		.byte	0
 2409 0187 03       		.uleb128 0x3
 2410 0188 0E       		.uleb128 0xe
 2411 0189 3A       		.uleb128 0x3a
 2412 018a 0B       		.uleb128 0xb
 2413 018b 3B       		.uleb128 0x3b
 2414 018c 0B       		.uleb128 0xb
 2415 018d 49       		.uleb128 0x49
 2416 018e 13       		.uleb128 0x13
 2417 018f 02       		.uleb128 0x2
 2418 0190 18       		.uleb128 0x18
 2419 0191 00       		.byte	0
 2420 0192 00       		.byte	0
 2421 0193 1E       		.uleb128 0x1e
 2422 0194 05       		.uleb128 0x5
 2423 0195 00       		.byte	0
 2424 0196 31       		.uleb128 0x31
 2425 0197 13       		.uleb128 0x13
 2426 0198 02       		.uleb128 0x2
 2427 0199 18       		.uleb128 0x18
 2428 019a 00       		.byte	0
 2429 019b 00       		.byte	0
 2430 019c 1F       		.uleb128 0x1f
 2431 019d 0B       		.uleb128 0xb
 2432 019e 01       		.byte	0x1
 2433 019f 11       		.uleb128 0x11
 2434 01a0 01       		.uleb128 0x1
 2435 01a1 12       		.uleb128 0x12
 2436 01a2 06       		.uleb128 0x6
 2437 01a3 00       		.byte	0
 2438 01a4 00       		.byte	0
 2439 01a5 20       		.uleb128 0x20
 2440 01a6 34       		.uleb128 0x34
 2441 01a7 00       		.byte	0
 2442 01a8 31       		.uleb128 0x31
 2443 01a9 13       		.uleb128 0x13
 2444 01aa 02       		.uleb128 0x2
 2445 01ab 17       		.uleb128 0x17
 2446 01ac 00       		.byte	0
 2447 01ad 00       		.byte	0
 2448 01ae 21       		.uleb128 0x21
 2449 01af 898201   		.uleb128 0x4109
 2450 01b2 00       		.byte	0
 2451 01b3 11       		.uleb128 0x11
ARM GAS  /tmp/ccIHhy0a.s 			page 44


 2452 01b4 01       		.uleb128 0x1
 2453 01b5 31       		.uleb128 0x31
 2454 01b6 13       		.uleb128 0x13
 2455 01b7 00       		.byte	0
 2456 01b8 00       		.byte	0
 2457 01b9 22       		.uleb128 0x22
 2458 01ba 2E       		.uleb128 0x2e
 2459 01bb 01       		.byte	0x1
 2460 01bc 3F       		.uleb128 0x3f
 2461 01bd 19       		.uleb128 0x19
 2462 01be 03       		.uleb128 0x3
 2463 01bf 0E       		.uleb128 0xe
 2464 01c0 3A       		.uleb128 0x3a
 2465 01c1 0B       		.uleb128 0xb
 2466 01c2 3B       		.uleb128 0x3b
 2467 01c3 0B       		.uleb128 0xb
 2468 01c4 27       		.uleb128 0x27
 2469 01c5 19       		.uleb128 0x19
 2470 01c6 49       		.uleb128 0x49
 2471 01c7 13       		.uleb128 0x13
 2472 01c8 11       		.uleb128 0x11
 2473 01c9 01       		.uleb128 0x1
 2474 01ca 12       		.uleb128 0x12
 2475 01cb 06       		.uleb128 0x6
 2476 01cc 40       		.uleb128 0x40
 2477 01cd 18       		.uleb128 0x18
 2478 01ce 9742     		.uleb128 0x2117
 2479 01d0 19       		.uleb128 0x19
 2480 01d1 01       		.uleb128 0x1
 2481 01d2 13       		.uleb128 0x13
 2482 01d3 00       		.byte	0
 2483 01d4 00       		.byte	0
 2484 01d5 23       		.uleb128 0x23
 2485 01d6 1D       		.uleb128 0x1d
 2486 01d7 01       		.byte	0x1
 2487 01d8 31       		.uleb128 0x31
 2488 01d9 13       		.uleb128 0x13
 2489 01da 52       		.uleb128 0x52
 2490 01db 01       		.uleb128 0x1
 2491 01dc 55       		.uleb128 0x55
 2492 01dd 17       		.uleb128 0x17
 2493 01de 58       		.uleb128 0x58
 2494 01df 0B       		.uleb128 0xb
 2495 01e0 59       		.uleb128 0x59
 2496 01e1 0B       		.uleb128 0xb
 2497 01e2 01       		.uleb128 0x1
 2498 01e3 13       		.uleb128 0x13
 2499 01e4 00       		.byte	0
 2500 01e5 00       		.byte	0
 2501 01e6 24       		.uleb128 0x24
 2502 01e7 0B       		.uleb128 0xb
 2503 01e8 01       		.byte	0x1
 2504 01e9 55       		.uleb128 0x55
 2505 01ea 17       		.uleb128 0x17
 2506 01eb 00       		.byte	0
 2507 01ec 00       		.byte	0
 2508 01ed 25       		.uleb128 0x25
ARM GAS  /tmp/ccIHhy0a.s 			page 45


 2509 01ee 34       		.uleb128 0x34
 2510 01ef 00       		.byte	0
 2511 01f0 03       		.uleb128 0x3
 2512 01f1 08       		.uleb128 0x8
 2513 01f2 3A       		.uleb128 0x3a
 2514 01f3 0B       		.uleb128 0xb
 2515 01f4 3B       		.uleb128 0x3b
 2516 01f5 0B       		.uleb128 0xb
 2517 01f6 49       		.uleb128 0x49
 2518 01f7 13       		.uleb128 0x13
 2519 01f8 02       		.uleb128 0x2
 2520 01f9 17       		.uleb128 0x17
 2521 01fa 00       		.byte	0
 2522 01fb 00       		.byte	0
 2523 01fc 26       		.uleb128 0x26
 2524 01fd 0B       		.uleb128 0xb
 2525 01fe 01       		.byte	0x1
 2526 01ff 11       		.uleb128 0x11
 2527 0200 01       		.uleb128 0x1
 2528 0201 12       		.uleb128 0x12
 2529 0202 06       		.uleb128 0x6
 2530 0203 01       		.uleb128 0x1
 2531 0204 13       		.uleb128 0x13
 2532 0205 00       		.byte	0
 2533 0206 00       		.byte	0
 2534 0207 27       		.uleb128 0x27
 2535 0208 898201   		.uleb128 0x4109
 2536 020b 01       		.byte	0x1
 2537 020c 11       		.uleb128 0x11
 2538 020d 01       		.uleb128 0x1
 2539 020e 31       		.uleb128 0x31
 2540 020f 13       		.uleb128 0x13
 2541 0210 00       		.byte	0
 2542 0211 00       		.byte	0
 2543 0212 28       		.uleb128 0x28
 2544 0213 898201   		.uleb128 0x4109
 2545 0216 01       		.byte	0x1
 2546 0217 11       		.uleb128 0x11
 2547 0218 01       		.uleb128 0x1
 2548 0219 00       		.byte	0
 2549 021a 00       		.byte	0
 2550 021b 29       		.uleb128 0x29
 2551 021c 34       		.uleb128 0x34
 2552 021d 00       		.byte	0
 2553 021e 03       		.uleb128 0x3
 2554 021f 08       		.uleb128 0x8
 2555 0220 3A       		.uleb128 0x3a
 2556 0221 0B       		.uleb128 0xb
 2557 0222 3B       		.uleb128 0x3b
 2558 0223 0B       		.uleb128 0xb
 2559 0224 49       		.uleb128 0x49
 2560 0225 13       		.uleb128 0x13
 2561 0226 02       		.uleb128 0x2
 2562 0227 18       		.uleb128 0x18
 2563 0228 00       		.byte	0
 2564 0229 00       		.byte	0
 2565 022a 2A       		.uleb128 0x2a
ARM GAS  /tmp/ccIHhy0a.s 			page 46


 2566 022b 898201   		.uleb128 0x4109
 2567 022e 01       		.byte	0x1
 2568 022f 11       		.uleb128 0x11
 2569 0230 01       		.uleb128 0x1
 2570 0231 9342     		.uleb128 0x2113
 2571 0233 18       		.uleb128 0x18
 2572 0234 01       		.uleb128 0x1
 2573 0235 13       		.uleb128 0x13
 2574 0236 00       		.byte	0
 2575 0237 00       		.byte	0
 2576 0238 2B       		.uleb128 0x2b
 2577 0239 2E       		.uleb128 0x2e
 2578 023a 01       		.byte	0x1
 2579 023b 3F       		.uleb128 0x3f
 2580 023c 19       		.uleb128 0x19
 2581 023d 03       		.uleb128 0x3
 2582 023e 0E       		.uleb128 0xe
 2583 023f 3A       		.uleb128 0x3a
 2584 0240 0B       		.uleb128 0xb
 2585 0241 3B       		.uleb128 0x3b
 2586 0242 05       		.uleb128 0x5
 2587 0243 27       		.uleb128 0x27
 2588 0244 19       		.uleb128 0x19
 2589 0245 11       		.uleb128 0x11
 2590 0246 01       		.uleb128 0x1
 2591 0247 12       		.uleb128 0x12
 2592 0248 06       		.uleb128 0x6
 2593 0249 40       		.uleb128 0x40
 2594 024a 18       		.uleb128 0x18
 2595 024b 9742     		.uleb128 0x2117
 2596 024d 19       		.uleb128 0x19
 2597 024e 01       		.uleb128 0x1
 2598 024f 13       		.uleb128 0x13
 2599 0250 00       		.byte	0
 2600 0251 00       		.byte	0
 2601 0252 2C       		.uleb128 0x2c
 2602 0253 05       		.uleb128 0x5
 2603 0254 00       		.byte	0
 2604 0255 03       		.uleb128 0x3
 2605 0256 08       		.uleb128 0x8
 2606 0257 3A       		.uleb128 0x3a
 2607 0258 0B       		.uleb128 0xb
 2608 0259 3B       		.uleb128 0x3b
 2609 025a 05       		.uleb128 0x5
 2610 025b 49       		.uleb128 0x49
 2611 025c 13       		.uleb128 0x13
 2612 025d 02       		.uleb128 0x2
 2613 025e 18       		.uleb128 0x18
 2614 025f 00       		.byte	0
 2615 0260 00       		.byte	0
 2616 0261 2D       		.uleb128 0x2d
 2617 0262 05       		.uleb128 0x5
 2618 0263 00       		.byte	0
 2619 0264 03       		.uleb128 0x3
 2620 0265 0E       		.uleb128 0xe
 2621 0266 3A       		.uleb128 0x3a
 2622 0267 0B       		.uleb128 0xb
ARM GAS  /tmp/ccIHhy0a.s 			page 47


 2623 0268 3B       		.uleb128 0x3b
 2624 0269 05       		.uleb128 0x5
 2625 026a 49       		.uleb128 0x49
 2626 026b 13       		.uleb128 0x13
 2627 026c 02       		.uleb128 0x2
 2628 026d 18       		.uleb128 0x18
 2629 026e 00       		.byte	0
 2630 026f 00       		.byte	0
 2631 0270 2E       		.uleb128 0x2e
 2632 0271 05       		.uleb128 0x5
 2633 0272 00       		.byte	0
 2634 0273 03       		.uleb128 0x3
 2635 0274 08       		.uleb128 0x8
 2636 0275 3A       		.uleb128 0x3a
 2637 0276 0B       		.uleb128 0xb
 2638 0277 3B       		.uleb128 0x3b
 2639 0278 05       		.uleb128 0x5
 2640 0279 49       		.uleb128 0x49
 2641 027a 13       		.uleb128 0x13
 2642 027b 02       		.uleb128 0x2
 2643 027c 17       		.uleb128 0x17
 2644 027d 00       		.byte	0
 2645 027e 00       		.byte	0
 2646 027f 2F       		.uleb128 0x2f
 2647 0280 1D       		.uleb128 0x1d
 2648 0281 01       		.byte	0x1
 2649 0282 31       		.uleb128 0x31
 2650 0283 13       		.uleb128 0x13
 2651 0284 11       		.uleb128 0x11
 2652 0285 01       		.uleb128 0x1
 2653 0286 12       		.uleb128 0x12
 2654 0287 06       		.uleb128 0x6
 2655 0288 58       		.uleb128 0x58
 2656 0289 0B       		.uleb128 0xb
 2657 028a 59       		.uleb128 0x59
 2658 028b 05       		.uleb128 0x5
 2659 028c 01       		.uleb128 0x1
 2660 028d 13       		.uleb128 0x13
 2661 028e 00       		.byte	0
 2662 028f 00       		.byte	0
 2663 0290 30       		.uleb128 0x30
 2664 0291 2E       		.uleb128 0x2e
 2665 0292 01       		.byte	0x1
 2666 0293 3F       		.uleb128 0x3f
 2667 0294 19       		.uleb128 0x19
 2668 0295 03       		.uleb128 0x3
 2669 0296 0E       		.uleb128 0xe
 2670 0297 3A       		.uleb128 0x3a
 2671 0298 0B       		.uleb128 0xb
 2672 0299 3B       		.uleb128 0x3b
 2673 029a 05       		.uleb128 0x5
 2674 029b 27       		.uleb128 0x27
 2675 029c 19       		.uleb128 0x19
 2676 029d 49       		.uleb128 0x49
 2677 029e 13       		.uleb128 0x13
 2678 029f 11       		.uleb128 0x11
 2679 02a0 01       		.uleb128 0x1
ARM GAS  /tmp/ccIHhy0a.s 			page 48


 2680 02a1 12       		.uleb128 0x12
 2681 02a2 06       		.uleb128 0x6
 2682 02a3 40       		.uleb128 0x40
 2683 02a4 18       		.uleb128 0x18
 2684 02a5 9742     		.uleb128 0x2117
 2685 02a7 19       		.uleb128 0x19
 2686 02a8 01       		.uleb128 0x1
 2687 02a9 13       		.uleb128 0x13
 2688 02aa 00       		.byte	0
 2689 02ab 00       		.byte	0
 2690 02ac 31       		.uleb128 0x31
 2691 02ad 05       		.uleb128 0x5
 2692 02ae 00       		.byte	0
 2693 02af 03       		.uleb128 0x3
 2694 02b0 0E       		.uleb128 0xe
 2695 02b1 3A       		.uleb128 0x3a
 2696 02b2 0B       		.uleb128 0xb
 2697 02b3 3B       		.uleb128 0x3b
 2698 02b4 05       		.uleb128 0x5
 2699 02b5 49       		.uleb128 0x49
 2700 02b6 13       		.uleb128 0x13
 2701 02b7 02       		.uleb128 0x2
 2702 02b8 17       		.uleb128 0x17
 2703 02b9 00       		.byte	0
 2704 02ba 00       		.byte	0
 2705 02bb 32       		.uleb128 0x32
 2706 02bc 0B       		.uleb128 0xb
 2707 02bd 01       		.byte	0x1
 2708 02be 55       		.uleb128 0x55
 2709 02bf 17       		.uleb128 0x17
 2710 02c0 01       		.uleb128 0x1
 2711 02c1 13       		.uleb128 0x13
 2712 02c2 00       		.byte	0
 2713 02c3 00       		.byte	0
 2714 02c4 33       		.uleb128 0x33
 2715 02c5 34       		.uleb128 0x34
 2716 02c6 00       		.byte	0
 2717 02c7 03       		.uleb128 0x3
 2718 02c8 08       		.uleb128 0x8
 2719 02c9 3A       		.uleb128 0x3a
 2720 02ca 0B       		.uleb128 0xb
 2721 02cb 3B       		.uleb128 0x3b
 2722 02cc 05       		.uleb128 0x5
 2723 02cd 49       		.uleb128 0x49
 2724 02ce 13       		.uleb128 0x13
 2725 02cf 02       		.uleb128 0x2
 2726 02d0 17       		.uleb128 0x17
 2727 02d1 00       		.byte	0
 2728 02d2 00       		.byte	0
 2729 02d3 34       		.uleb128 0x34
 2730 02d4 1D       		.uleb128 0x1d
 2731 02d5 01       		.byte	0x1
 2732 02d6 31       		.uleb128 0x31
 2733 02d7 13       		.uleb128 0x13
 2734 02d8 52       		.uleb128 0x52
 2735 02d9 01       		.uleb128 0x1
 2736 02da 55       		.uleb128 0x55
ARM GAS  /tmp/ccIHhy0a.s 			page 49


 2737 02db 17       		.uleb128 0x17
 2738 02dc 58       		.uleb128 0x58
 2739 02dd 0B       		.uleb128 0xb
 2740 02de 59       		.uleb128 0x59
 2741 02df 05       		.uleb128 0x5
 2742 02e0 01       		.uleb128 0x1
 2743 02e1 13       		.uleb128 0x13
 2744 02e2 00       		.byte	0
 2745 02e3 00       		.byte	0
 2746 02e4 35       		.uleb128 0x35
 2747 02e5 34       		.uleb128 0x34
 2748 02e6 00       		.byte	0
 2749 02e7 03       		.uleb128 0x3
 2750 02e8 08       		.uleb128 0x8
 2751 02e9 3A       		.uleb128 0x3a
 2752 02ea 0B       		.uleb128 0xb
 2753 02eb 3B       		.uleb128 0x3b
 2754 02ec 05       		.uleb128 0x5
 2755 02ed 49       		.uleb128 0x49
 2756 02ee 13       		.uleb128 0x13
 2757 02ef 02       		.uleb128 0x2
 2758 02f0 18       		.uleb128 0x18
 2759 02f1 00       		.byte	0
 2760 02f2 00       		.byte	0
 2761 02f3 36       		.uleb128 0x36
 2762 02f4 34       		.uleb128 0x34
 2763 02f5 00       		.byte	0
 2764 02f6 03       		.uleb128 0x3
 2765 02f7 0E       		.uleb128 0xe
 2766 02f8 3A       		.uleb128 0x3a
 2767 02f9 0B       		.uleb128 0xb
 2768 02fa 3B       		.uleb128 0x3b
 2769 02fb 0B       		.uleb128 0xb
 2770 02fc 49       		.uleb128 0x49
 2771 02fd 13       		.uleb128 0x13
 2772 02fe 3F       		.uleb128 0x3f
 2773 02ff 19       		.uleb128 0x19
 2774 0300 3C       		.uleb128 0x3c
 2775 0301 19       		.uleb128 0x19
 2776 0302 00       		.byte	0
 2777 0303 00       		.byte	0
 2778 0304 37       		.uleb128 0x37
 2779 0305 2E       		.uleb128 0x2e
 2780 0306 01       		.byte	0x1
 2781 0307 3F       		.uleb128 0x3f
 2782 0308 19       		.uleb128 0x19
 2783 0309 03       		.uleb128 0x3
 2784 030a 0E       		.uleb128 0xe
 2785 030b 3A       		.uleb128 0x3a
 2786 030c 0B       		.uleb128 0xb
 2787 030d 3B       		.uleb128 0x3b
 2788 030e 0B       		.uleb128 0xb
 2789 030f 27       		.uleb128 0x27
 2790 0310 19       		.uleb128 0x19
 2791 0311 49       		.uleb128 0x49
 2792 0312 13       		.uleb128 0x13
 2793 0313 3C       		.uleb128 0x3c
ARM GAS  /tmp/ccIHhy0a.s 			page 50


 2794 0314 19       		.uleb128 0x19
 2795 0315 01       		.uleb128 0x1
 2796 0316 13       		.uleb128 0x13
 2797 0317 00       		.byte	0
 2798 0318 00       		.byte	0
 2799 0319 38       		.uleb128 0x38
 2800 031a 2E       		.uleb128 0x2e
 2801 031b 01       		.byte	0x1
 2802 031c 3F       		.uleb128 0x3f
 2803 031d 19       		.uleb128 0x19
 2804 031e 03       		.uleb128 0x3
 2805 031f 0E       		.uleb128 0xe
 2806 0320 3A       		.uleb128 0x3a
 2807 0321 0B       		.uleb128 0xb
 2808 0322 3B       		.uleb128 0x3b
 2809 0323 0B       		.uleb128 0xb
 2810 0324 27       		.uleb128 0x27
 2811 0325 19       		.uleb128 0x19
 2812 0326 49       		.uleb128 0x49
 2813 0327 13       		.uleb128 0x13
 2814 0328 3C       		.uleb128 0x3c
 2815 0329 19       		.uleb128 0x19
 2816 032a 00       		.byte	0
 2817 032b 00       		.byte	0
 2818 032c 00       		.byte	0
 2819              		.section	.debug_loc,"",%progbits
 2820              	.Ldebug_loc0:
 2821              	.LLST0:
 2822 0000 00000000 		.4byte	.LVL0
 2823 0004 14000000 		.4byte	.LVL1
 2824 0008 0100     		.2byte	0x1
 2825 000a 50       		.byte	0x50
 2826 000b 14000000 		.4byte	.LVL1
 2827 000f 2F000000 		.4byte	.LVL3-1
 2828 0013 0100     		.2byte	0x1
 2829 0015 52       		.byte	0x52
 2830 0016 2F000000 		.4byte	.LVL3-1
 2831 001a 30000000 		.4byte	.LVL3
 2832 001e 0400     		.2byte	0x4
 2833 0020 F3       		.byte	0xf3
 2834 0021 01       		.uleb128 0x1
 2835 0022 50       		.byte	0x50
 2836 0023 9F       		.byte	0x9f
 2837 0024 30000000 		.4byte	.LVL3
 2838 0028 34000000 		.4byte	.LVL4
 2839 002c 0100     		.2byte	0x1
 2840 002e 50       		.byte	0x50
 2841 002f 34000000 		.4byte	.LVL4
 2842 0033 3C000000 		.4byte	.LFE7
 2843 0037 0100     		.2byte	0x1
 2844 0039 52       		.byte	0x52
 2845 003a 00000000 		.4byte	0
 2846 003e 00000000 		.4byte	0
 2847              	.LLST1:
 2848 0042 00000000 		.4byte	.LVL0
 2849 0046 2F000000 		.4byte	.LVL3-1
 2850 004a 0100     		.2byte	0x1
ARM GAS  /tmp/ccIHhy0a.s 			page 51


 2851 004c 51       		.byte	0x51
 2852 004d 2F000000 		.4byte	.LVL3-1
 2853 0051 30000000 		.4byte	.LVL3
 2854 0055 0400     		.2byte	0x4
 2855 0057 F3       		.byte	0xf3
 2856 0058 01       		.uleb128 0x1
 2857 0059 51       		.byte	0x51
 2858 005a 9F       		.byte	0x9f
 2859 005b 30000000 		.4byte	.LVL3
 2860 005f 3C000000 		.4byte	.LFE7
 2861 0063 0100     		.2byte	0x1
 2862 0065 51       		.byte	0x51
 2863 0066 00000000 		.4byte	0
 2864 006a 00000000 		.4byte	0
 2865              	.LLST2:
 2866 006e 1C000000 		.4byte	.LVL2
 2867 0072 2F000000 		.4byte	.LVL3-1
 2868 0076 0100     		.2byte	0x1
 2869 0078 52       		.byte	0x52
 2870 0079 2F000000 		.4byte	.LVL3-1
 2871 007d 30000000 		.4byte	.LVL3
 2872 0081 0400     		.2byte	0x4
 2873 0083 F3       		.byte	0xf3
 2874 0084 01       		.uleb128 0x1
 2875 0085 50       		.byte	0x50
 2876 0086 9F       		.byte	0x9f
 2877 0087 00000000 		.4byte	0
 2878 008b 00000000 		.4byte	0
 2879              	.LLST3:
 2880 008f 1C000000 		.4byte	.LVL2
 2881 0093 2F000000 		.4byte	.LVL3-1
 2882 0097 0100     		.2byte	0x1
 2883 0099 53       		.byte	0x53
 2884 009a 00000000 		.4byte	0
 2885 009e 00000000 		.4byte	0
 2886              	.LLST4:
 2887 00a2 00000000 		.4byte	.LVL5
 2888 00a6 10000000 		.4byte	.LVL6
 2889 00aa 0100     		.2byte	0x1
 2890 00ac 52       		.byte	0x52
 2891 00ad 10000000 		.4byte	.LVL6
 2892 00b1 38000000 		.4byte	.LFE8
 2893 00b5 0400     		.2byte	0x4
 2894 00b7 F3       		.byte	0xf3
 2895 00b8 01       		.uleb128 0x1
 2896 00b9 52       		.byte	0x52
 2897 00ba 9F       		.byte	0x9f
 2898 00bb 00000000 		.4byte	0
 2899 00bf 00000000 		.4byte	0
 2900              	.LLST5:
 2901 00c3 00000000 		.4byte	.LVL7
 2902 00c7 10000000 		.4byte	.LVL8
 2903 00cb 0100     		.2byte	0x1
 2904 00cd 50       		.byte	0x50
 2905 00ce 10000000 		.4byte	.LVL8
 2906 00d2 50000000 		.4byte	.LFE9
 2907 00d6 0100     		.2byte	0x1
ARM GAS  /tmp/ccIHhy0a.s 			page 52


 2908 00d8 54       		.byte	0x54
 2909 00d9 00000000 		.4byte	0
 2910 00dd 00000000 		.4byte	0
 2911              	.LLST6:
 2912 00e1 2C000000 		.4byte	.LVL9
 2913 00e5 3B000000 		.4byte	.LVL10-1
 2914 00e9 0100     		.2byte	0x1
 2915 00eb 50       		.byte	0x50
 2916 00ec 00000000 		.4byte	0
 2917 00f0 00000000 		.4byte	0
 2918              	.LLST7:
 2919 00f4 00000000 		.4byte	.LVL11
 2920 00f8 5C000000 		.4byte	.LVL14
 2921 00fc 0100     		.2byte	0x1
 2922 00fe 50       		.byte	0x50
 2923 00ff 5C000000 		.4byte	.LVL14
 2924 0103 67000000 		.4byte	.LVL15-1
 2925 0107 0100     		.2byte	0x1
 2926 0109 53       		.byte	0x53
 2927 010a 67000000 		.4byte	.LVL15-1
 2928 010e 78000000 		.4byte	.LVL16
 2929 0112 0400     		.2byte	0x4
 2930 0114 F3       		.byte	0xf3
 2931 0115 01       		.uleb128 0x1
 2932 0116 50       		.byte	0x50
 2933 0117 9F       		.byte	0x9f
 2934 0118 78000000 		.4byte	.LVL16
 2935 011c 7C000000 		.4byte	.LVL17
 2936 0120 0100     		.2byte	0x1
 2937 0122 50       		.byte	0x50
 2938 0123 7C000000 		.4byte	.LVL17
 2939 0127 80000000 		.4byte	.LVL18
 2940 012b 0400     		.2byte	0x4
 2941 012d F3       		.byte	0xf3
 2942 012e 01       		.uleb128 0x1
 2943 012f 50       		.byte	0x50
 2944 0130 9F       		.byte	0x9f
 2945 0131 80000000 		.4byte	.LVL18
 2946 0135 8C000000 		.4byte	.LVL19
 2947 0139 0100     		.2byte	0x1
 2948 013b 50       		.byte	0x50
 2949 013c 8C000000 		.4byte	.LVL19
 2950 0140 90000000 		.4byte	.LFE10
 2951 0144 0400     		.2byte	0x4
 2952 0146 F3       		.byte	0xf3
 2953 0147 01       		.uleb128 0x1
 2954 0148 50       		.byte	0x50
 2955 0149 9F       		.byte	0x9f
 2956 014a 00000000 		.4byte	0
 2957 014e 00000000 		.4byte	0
 2958              	.LLST8:
 2959 0152 00000000 		.4byte	.LVL11
 2960 0156 54000000 		.4byte	.LVL13
 2961 015a 0100     		.2byte	0x1
 2962 015c 51       		.byte	0x51
 2963 015d 54000000 		.4byte	.LVL13
 2964 0161 90000000 		.4byte	.LFE10
ARM GAS  /tmp/ccIHhy0a.s 			page 53


 2965 0165 0400     		.2byte	0x4
 2966 0167 F3       		.byte	0xf3
 2967 0168 01       		.uleb128 0x1
 2968 0169 51       		.byte	0x51
 2969 016a 9F       		.byte	0x9f
 2970 016b 00000000 		.4byte	0
 2971 016f 00000000 		.4byte	0
 2972              	.LLST9:
 2973 0173 50000000 		.4byte	.LVL12
 2974 0177 67000000 		.4byte	.LVL15-1
 2975 017b 0100     		.2byte	0x1
 2976 017d 53       		.byte	0x53
 2977 017e 67000000 		.4byte	.LVL15-1
 2978 0182 78000000 		.4byte	.LVL16
 2979 0186 0400     		.2byte	0x4
 2980 0188 F3       		.byte	0xf3
 2981 0189 01       		.uleb128 0x1
 2982 018a 50       		.byte	0x50
 2983 018b 9F       		.byte	0x9f
 2984 018c 00000000 		.4byte	0
 2985 0190 00000000 		.4byte	0
 2986              	.LLST10:
 2987 0194 50000000 		.4byte	.LVL12
 2988 0198 67000000 		.4byte	.LVL15-1
 2989 019c 0100     		.2byte	0x1
 2990 019e 52       		.byte	0x52
 2991 019f 00000000 		.4byte	0
 2992 01a3 00000000 		.4byte	0
 2993              	.LLST11:
 2994 01a7 00000000 		.4byte	.LVL20
 2995 01ab 1F000000 		.4byte	.LVL21-1
 2996 01af 0100     		.2byte	0x1
 2997 01b1 50       		.byte	0x50
 2998 01b2 1F000000 		.4byte	.LVL21-1
 2999 01b6 74000000 		.4byte	.LFE11
 3000 01ba 0100     		.2byte	0x1
 3001 01bc 54       		.byte	0x54
 3002 01bd 00000000 		.4byte	0
 3003 01c1 00000000 		.4byte	0
 3004              	.LLST12:
 3005 01c5 00000000 		.4byte	.LVL20
 3006 01c9 1F000000 		.4byte	.LVL21-1
 3007 01cd 0100     		.2byte	0x1
 3008 01cf 51       		.byte	0x51
 3009 01d0 1F000000 		.4byte	.LVL21-1
 3010 01d4 74000000 		.4byte	.LFE11
 3011 01d8 0100     		.2byte	0x1
 3012 01da 55       		.byte	0x55
 3013 01db 00000000 		.4byte	0
 3014 01df 00000000 		.4byte	0
 3015              	.LLST13:
 3016 01e3 68000000 		.4byte	.LVL24
 3017 01e7 6C000000 		.4byte	.LVL25
 3018 01eb 0100     		.2byte	0x1
 3019 01ed 50       		.byte	0x50
 3020 01ee 00000000 		.4byte	0
 3021 01f2 00000000 		.4byte	0
ARM GAS  /tmp/ccIHhy0a.s 			page 54


 3022              	.LLST14:
 3023 01f6 30000000 		.4byte	.LVL22
 3024 01fa 38000000 		.4byte	.LVL23
 3025 01fe 0100     		.2byte	0x1
 3026 0200 50       		.byte	0x50
 3027 0201 00000000 		.4byte	0
 3028 0205 00000000 		.4byte	0
 3029              	.LLST15:
 3030 0209 00000000 		.4byte	.LVL26
 3031 020d 20000000 		.4byte	.LVL28
 3032 0211 0100     		.2byte	0x1
 3033 0213 50       		.byte	0x50
 3034 0214 20000000 		.4byte	.LVL28
 3035 0218 A8000000 		.4byte	.LFE12
 3036 021c 0100     		.2byte	0x1
 3037 021e 54       		.byte	0x54
 3038 021f 00000000 		.4byte	0
 3039 0223 00000000 		.4byte	0
 3040              	.LLST16:
 3041 0227 00000000 		.4byte	.LVL26
 3042 022b 20000000 		.4byte	.LVL28
 3043 022f 0100     		.2byte	0x1
 3044 0231 51       		.byte	0x51
 3045 0232 20000000 		.4byte	.LVL28
 3046 0236 70000000 		.4byte	.LVL31
 3047 023a 0100     		.2byte	0x1
 3048 023c 58       		.byte	0x58
 3049 023d 70000000 		.4byte	.LVL31
 3050 0241 9C000000 		.4byte	.LVL33
 3051 0245 0300     		.2byte	0x3
 3052 0247 78       		.byte	0x78
 3053 0248 7F       		.sleb128 -1
 3054 0249 9F       		.byte	0x9f
 3055 024a 9C000000 		.4byte	.LVL33
 3056 024e A0000000 		.4byte	.LVL34
 3057 0252 0100     		.2byte	0x1
 3058 0254 58       		.byte	0x58
 3059 0255 00000000 		.4byte	0
 3060 0259 00000000 		.4byte	0
 3061              	.LLST17:
 3062 025d 00000000 		.4byte	.LVL26
 3063 0261 20000000 		.4byte	.LVL28
 3064 0265 0100     		.2byte	0x1
 3065 0267 52       		.byte	0x52
 3066 0268 8C000000 		.4byte	.LVL32
 3067 026c 9C000000 		.4byte	.LVL33
 3068 0270 0600     		.2byte	0x6
 3069 0272 79       		.byte	0x79
 3070 0273 00       		.sleb128 0
 3071 0274 76       		.byte	0x76
 3072 0275 00       		.sleb128 0
 3073 0276 1C       		.byte	0x1c
 3074 0277 9F       		.byte	0x9f
 3075 0278 00000000 		.4byte	0
 3076 027c 00000000 		.4byte	0
 3077              	.LLST18:
 3078 0280 00000000 		.4byte	.LVL26
ARM GAS  /tmp/ccIHhy0a.s 			page 55


 3079 0284 20000000 		.4byte	.LVL28
 3080 0288 0100     		.2byte	0x1
 3081 028a 53       		.byte	0x53
 3082 028b 20000000 		.4byte	.LVL28
 3083 028f A8000000 		.4byte	.LFE12
 3084 0293 0100     		.2byte	0x1
 3085 0295 55       		.byte	0x55
 3086 0296 00000000 		.4byte	0
 3087 029a 00000000 		.4byte	0
 3088              	.LLST19:
 3089 029e 18000000 		.4byte	.LVL27
 3090 02a2 20000000 		.4byte	.LVL28
 3091 02a6 0200     		.2byte	0x2
 3092 02a8 30       		.byte	0x30
 3093 02a9 9F       		.byte	0x9f
 3094 02aa 20000000 		.4byte	.LVL28
 3095 02ae A8000000 		.4byte	.LFE12
 3096 02b2 0100     		.2byte	0x1
 3097 02b4 56       		.byte	0x56
 3098 02b5 00000000 		.4byte	0
 3099 02b9 00000000 		.4byte	0
 3100              	.LLST20:
 3101 02bd 00000000 		.4byte	.LVL36
 3102 02c1 14000000 		.4byte	.LVL37
 3103 02c5 0100     		.2byte	0x1
 3104 02c7 50       		.byte	0x50
 3105 02c8 14000000 		.4byte	.LVL37
 3106 02cc 54000000 		.4byte	.LFE14
 3107 02d0 0100     		.2byte	0x1
 3108 02d2 54       		.byte	0x54
 3109 02d3 00000000 		.4byte	0
 3110 02d7 00000000 		.4byte	0
 3111              	.LLST21:
 3112 02db 30000000 		.4byte	.LVL38
 3113 02df 3F000000 		.4byte	.LVL39-1
 3114 02e3 0100     		.2byte	0x1
 3115 02e5 50       		.byte	0x50
 3116 02e6 00000000 		.4byte	0
 3117 02ea 00000000 		.4byte	0
 3118              	.LLST22:
 3119 02ee 00000000 		.4byte	.LVL40
 3120 02f2 18000000 		.4byte	.LVL41
 3121 02f6 0100     		.2byte	0x1
 3122 02f8 50       		.byte	0x50
 3123 02f9 18000000 		.4byte	.LVL41
 3124 02fd 8C000000 		.4byte	.LFE15
 3125 0301 0100     		.2byte	0x1
 3126 0303 54       		.byte	0x54
 3127 0304 00000000 		.4byte	0
 3128 0308 00000000 		.4byte	0
 3129              	.LLST23:
 3130 030c 00000000 		.4byte	.LVL40
 3131 0310 18000000 		.4byte	.LVL41
 3132 0314 0100     		.2byte	0x1
 3133 0316 51       		.byte	0x51
 3134 0317 18000000 		.4byte	.LVL41
 3135 031b 8C000000 		.4byte	.LFE15
ARM GAS  /tmp/ccIHhy0a.s 			page 56


 3136 031f 0100     		.2byte	0x1
 3137 0321 56       		.byte	0x56
 3138 0322 00000000 		.4byte	0
 3139 0326 00000000 		.4byte	0
 3140              	.LLST24:
 3141 032a 00000000 		.4byte	.LVL40
 3142 032e 18000000 		.4byte	.LVL41
 3143 0332 0100     		.2byte	0x1
 3144 0334 52       		.byte	0x52
 3145 0335 18000000 		.4byte	.LVL41
 3146 0339 8C000000 		.4byte	.LFE15
 3147 033d 0100     		.2byte	0x1
 3148 033f 55       		.byte	0x55
 3149 0340 00000000 		.4byte	0
 3150 0344 00000000 		.4byte	0
 3151              	.LLST25:
 3152 0348 24000000 		.4byte	.LVL42
 3153 034c 2C000000 		.4byte	.LVL43
 3154 0350 0100     		.2byte	0x1
 3155 0352 50       		.byte	0x50
 3156 0353 84000000 		.4byte	.LVL45
 3157 0357 8C000000 		.4byte	.LFE15
 3158 035b 0100     		.2byte	0x1
 3159 035d 50       		.byte	0x50
 3160 035e 00000000 		.4byte	0
 3161 0362 00000000 		.4byte	0
 3162              	.LLST26:
 3163 0366 00000000 		.4byte	.LVL46
 3164 036a 54000000 		.4byte	.LVL49
 3165 036e 0100     		.2byte	0x1
 3166 0370 50       		.byte	0x50
 3167 0371 54000000 		.4byte	.LVL49
 3168 0375 5F000000 		.4byte	.LVL50-1
 3169 0379 0100     		.2byte	0x1
 3170 037b 53       		.byte	0x53
 3171 037c 5F000000 		.4byte	.LVL50-1
 3172 0380 70000000 		.4byte	.LVL52
 3173 0384 0400     		.2byte	0x4
 3174 0386 F3       		.byte	0xf3
 3175 0387 01       		.uleb128 0x1
 3176 0388 50       		.byte	0x50
 3177 0389 9F       		.byte	0x9f
 3178 038a 70000000 		.4byte	.LVL52
 3179 038e 7C000000 		.4byte	.LVL53
 3180 0392 0100     		.2byte	0x1
 3181 0394 50       		.byte	0x50
 3182 0395 7C000000 		.4byte	.LVL53
 3183 0399 80000000 		.4byte	.LFE16
 3184 039d 0400     		.2byte	0x4
 3185 039f F3       		.byte	0xf3
 3186 03a0 01       		.uleb128 0x1
 3187 03a1 50       		.byte	0x50
 3188 03a2 9F       		.byte	0x9f
 3189 03a3 00000000 		.4byte	0
 3190 03a7 00000000 		.4byte	0
 3191              	.LLST27:
 3192 03ab 34000000 		.4byte	.LVL47
ARM GAS  /tmp/ccIHhy0a.s 			page 57


 3193 03af 70000000 		.4byte	.LVL52
 3194 03b3 0100     		.2byte	0x1
 3195 03b5 54       		.byte	0x54
 3196 03b6 00000000 		.4byte	0
 3197 03ba 00000000 		.4byte	0
 3198              	.LLST28:
 3199 03be 4C000000 		.4byte	.LVL48
 3200 03c2 5F000000 		.4byte	.LVL50-1
 3201 03c6 0100     		.2byte	0x1
 3202 03c8 53       		.byte	0x53
 3203 03c9 5F000000 		.4byte	.LVL50-1
 3204 03cd 68000000 		.4byte	.LVL51
 3205 03d1 0400     		.2byte	0x4
 3206 03d3 F3       		.byte	0xf3
 3207 03d4 01       		.uleb128 0x1
 3208 03d5 50       		.byte	0x50
 3209 03d6 9F       		.byte	0x9f
 3210 03d7 00000000 		.4byte	0
 3211 03db 00000000 		.4byte	0
 3212              	.LLST29:
 3213 03df 4C000000 		.4byte	.LVL48
 3214 03e3 5F000000 		.4byte	.LVL50-1
 3215 03e7 0100     		.2byte	0x1
 3216 03e9 52       		.byte	0x52
 3217 03ea 00000000 		.4byte	0
 3218 03ee 00000000 		.4byte	0
 3219              	.LLST30:
 3220 03f2 00000000 		.4byte	.LVL54
 3221 03f6 20000000 		.4byte	.LVL56
 3222 03fa 0100     		.2byte	0x1
 3223 03fc 50       		.byte	0x50
 3224 03fd 20000000 		.4byte	.LVL56
 3225 0401 AC000000 		.4byte	.LFE17
 3226 0405 0100     		.2byte	0x1
 3227 0407 54       		.byte	0x54
 3228 0408 00000000 		.4byte	0
 3229 040c 00000000 		.4byte	0
 3230              	.LLST31:
 3231 0410 00000000 		.4byte	.LVL54
 3232 0414 20000000 		.4byte	.LVL56
 3233 0418 0100     		.2byte	0x1
 3234 041a 51       		.byte	0x51
 3235 041b 20000000 		.4byte	.LVL56
 3236 041f 28000000 		.4byte	.LVL57
 3237 0423 0100     		.2byte	0x1
 3238 0425 55       		.byte	0x55
 3239 0426 28000000 		.4byte	.LVL57
 3240 042a AC000000 		.4byte	.LFE17
 3241 042e 0100     		.2byte	0x1
 3242 0430 5A       		.byte	0x5a
 3243 0431 00000000 		.4byte	0
 3244 0435 00000000 		.4byte	0
 3245              	.LLST32:
 3246 0439 00000000 		.4byte	.LVL54
 3247 043d 20000000 		.4byte	.LVL56
 3248 0441 0100     		.2byte	0x1
 3249 0443 52       		.byte	0x52
ARM GAS  /tmp/ccIHhy0a.s 			page 58


 3250 0444 20000000 		.4byte	.LVL56
 3251 0448 78000000 		.4byte	.LVL59
 3252 044c 0100     		.2byte	0x1
 3253 044e 56       		.byte	0x56
 3254 044f 78000000 		.4byte	.LVL59
 3255 0453 7C000000 		.4byte	.LVL60
 3256 0457 0300     		.2byte	0x3
 3257 0459 76       		.byte	0x76
 3258 045a 01       		.sleb128 1
 3259 045b 9F       		.byte	0x9f
 3260 045c 8C000000 		.4byte	.LVL61
 3261 0460 A4000000 		.4byte	.LVL63
 3262 0464 0100     		.2byte	0x1
 3263 0466 56       		.byte	0x56
 3264 0467 00000000 		.4byte	0
 3265 046b 00000000 		.4byte	0
 3266              	.LLST33:
 3267 046f 00000000 		.4byte	.LVL54
 3268 0473 20000000 		.4byte	.LVL56
 3269 0477 0100     		.2byte	0x1
 3270 0479 53       		.byte	0x53
 3271 047a 20000000 		.4byte	.LVL56
 3272 047e AC000000 		.4byte	.LFE17
 3273 0482 0100     		.2byte	0x1
 3274 0484 59       		.byte	0x59
 3275 0485 00000000 		.4byte	0
 3276 0489 00000000 		.4byte	0
 3277              	.LLST34:
 3278 048d 18000000 		.4byte	.LVL55
 3279 0491 20000000 		.4byte	.LVL56
 3280 0495 0200     		.2byte	0x2
 3281 0497 30       		.byte	0x30
 3282 0498 9F       		.byte	0x9f
 3283 0499 20000000 		.4byte	.LVL56
 3284 049d AC000000 		.4byte	.LFE17
 3285 04a1 0100     		.2byte	0x1
 3286 04a3 57       		.byte	0x57
 3287 04a4 00000000 		.4byte	0
 3288 04a8 00000000 		.4byte	0
 3289              		.section	.debug_aranges,"",%progbits
 3290 0000 6C000000 		.4byte	0x6c
 3291 0004 0200     		.2byte	0x2
 3292 0006 00000000 		.4byte	.Ldebug_info0
 3293 000a 04       		.byte	0x4
 3294 000b 00       		.byte	0
 3295 000c 0000     		.2byte	0
 3296 000e 0000     		.2byte	0
 3297 0010 00000000 		.4byte	.LFB7
 3298 0014 3C000000 		.4byte	.LFE7-.LFB7
 3299 0018 00000000 		.4byte	.LFB8
 3300 001c 38000000 		.4byte	.LFE8-.LFB8
 3301 0020 00000000 		.4byte	.LFB9
 3302 0024 50000000 		.4byte	.LFE9-.LFB9
 3303 0028 00000000 		.4byte	.LFB10
 3304 002c 90000000 		.4byte	.LFE10-.LFB10
 3305 0030 00000000 		.4byte	.LFB11
 3306 0034 74000000 		.4byte	.LFE11-.LFB11
ARM GAS  /tmp/ccIHhy0a.s 			page 59


 3307 0038 00000000 		.4byte	.LFB12
 3308 003c A8000000 		.4byte	.LFE12-.LFB12
 3309 0040 00000000 		.4byte	.LFB13
 3310 0044 34000000 		.4byte	.LFE13-.LFB13
 3311 0048 00000000 		.4byte	.LFB14
 3312 004c 54000000 		.4byte	.LFE14-.LFB14
 3313 0050 00000000 		.4byte	.LFB15
 3314 0054 8C000000 		.4byte	.LFE15-.LFB15
 3315 0058 00000000 		.4byte	.LFB16
 3316 005c 80000000 		.4byte	.LFE16-.LFB16
 3317 0060 00000000 		.4byte	.LFB17
 3318 0064 AC000000 		.4byte	.LFE17-.LFB17
 3319 0068 00000000 		.4byte	0
 3320 006c 00000000 		.4byte	0
 3321              		.section	.debug_ranges,"",%progbits
 3322              	.Ldebug_ranges0:
 3323 0000 50000000 		.4byte	.LBB16
 3324 0004 54000000 		.4byte	.LBE16
 3325 0008 5C000000 		.4byte	.LBB19
 3326 000c 64000000 		.4byte	.LBE19
 3327 0010 00000000 		.4byte	0
 3328 0014 00000000 		.4byte	0
 3329 0018 18000000 		.4byte	.LBB23
 3330 001c 2C000000 		.4byte	.LBE23
 3331 0020 84000000 		.4byte	.LBB24
 3332 0024 8C000000 		.4byte	.LBE24
 3333 0028 00000000 		.4byte	0
 3334 002c 00000000 		.4byte	0
 3335 0030 4C000000 		.4byte	.LBB25
 3336 0034 50000000 		.4byte	.LBE25
 3337 0038 54000000 		.4byte	.LBB28
 3338 003c 5C000000 		.4byte	.LBE28
 3339 0040 00000000 		.4byte	0
 3340 0044 00000000 		.4byte	0
 3341 0048 00000000 		.4byte	.LFB7
 3342 004c 3C000000 		.4byte	.LFE7
 3343 0050 00000000 		.4byte	.LFB8
 3344 0054 38000000 		.4byte	.LFE8
 3345 0058 00000000 		.4byte	.LFB9
 3346 005c 50000000 		.4byte	.LFE9
 3347 0060 00000000 		.4byte	.LFB10
 3348 0064 90000000 		.4byte	.LFE10
 3349 0068 00000000 		.4byte	.LFB11
 3350 006c 74000000 		.4byte	.LFE11
 3351 0070 00000000 		.4byte	.LFB12
 3352 0074 A8000000 		.4byte	.LFE12
 3353 0078 00000000 		.4byte	.LFB13
 3354 007c 34000000 		.4byte	.LFE13
 3355 0080 00000000 		.4byte	.LFB14
 3356 0084 54000000 		.4byte	.LFE14
 3357 0088 00000000 		.4byte	.LFB15
 3358 008c 8C000000 		.4byte	.LFE15
 3359 0090 00000000 		.4byte	.LFB16
 3360 0094 80000000 		.4byte	.LFE16
 3361 0098 00000000 		.4byte	.LFB17
 3362 009c AC000000 		.4byte	.LFE17
 3363 00a0 00000000 		.4byte	0
ARM GAS  /tmp/ccIHhy0a.s 			page 60


 3364 00a4 00000000 		.4byte	0
 3365              		.section	.debug_line,"",%progbits
 3366              	.Ldebug_line0:
 3367 0000 2C030000 		.section	.debug_str,"MS",%progbits,1
 3367      02005F01 
 3367      00000201 
 3367      FB0E0D00 
 3367      01010101 
 3368              	.LASF75:
 3369 0000 63684F51 		.ascii	"chOQInit\000"
 3369      496E6974 
 3369      00
 3370              	.LASF83:
 3371 0009 2F686F6D 		.ascii	"/home/hunter/development/chibi/ChibiOS-RPi/testhal/"
 3371      652F6875 
 3371      6E746572 
 3371      2F646576 
 3371      656C6F70 
 3372 003c 42434D32 		.ascii	"BCM2835/GPIO\000"
 3372      3833352F 
 3372      4750494F 
 3372      00
 3373              	.LASF84:
 3374 0049 71756575 		.ascii	"queue_insert\000"
 3374      655F696E 
 3374      73657274 
 3374      00
 3375              	.LASF76:
 3376 0056 6F6E6679 		.ascii	"onfy\000"
 3376      00
 3377              	.LASF3:
 3378 005b 73697A65 		.ascii	"size_t\000"
 3378      5F7400
 3379              	.LASF50:
 3380 0062 7264796D 		.ascii	"rdymsg\000"
 3380      736700
 3381              	.LASF70:
 3382 0069 63684951 		.ascii	"chIQInit\000"
 3382      496E6974 
 3382      00
 3383              	.LASF65:
 3384 0072 4F757470 		.ascii	"OutputQueue\000"
 3384      75745175 
 3384      65756500 
 3385              	.LASF4:
 3386 007e 5F5F7569 		.ascii	"__uint8_t\000"
 3386      6E74385F 
 3386      7400
 3387              	.LASF74:
 3388 0088 63684951 		.ascii	"chIQReadTimeout\000"
 3388      52656164 
 3388      54696D65 
 3388      6F757400 
 3389              	.LASF11:
 3390 0098 6C6F6E67 		.ascii	"long long unsigned int\000"
 3390      206C6F6E 
 3390      6720756E 
ARM GAS  /tmp/ccIHhy0a.s 			page 61


 3390      7369676E 
 3390      65642069 
 3391              	.LASF51:
 3392 00af 65786974 		.ascii	"exitcode\000"
 3392      636F6465 
 3392      00
 3393              	.LASF27:
 3394 00b8 705F7072 		.ascii	"p_prio\000"
 3394      696F00
 3395              	.LASF55:
 3396 00bf 715F7761 		.ascii	"q_waiting\000"
 3396      6974696E 
 3396      6700
 3397              	.LASF10:
 3398 00c9 6C6F6E67 		.ascii	"long long int\000"
 3398      206C6F6E 
 3398      6720696E 
 3398      7400
 3399              	.LASF2:
 3400 00d7 7369676E 		.ascii	"signed char\000"
 3400      65642063 
 3400      68617200 
 3401              	.LASF16:
 3402 00e3 626F6F6C 		.ascii	"bool_t\000"
 3402      5F7400
 3403              	.LASF47:
 3404 00ea 6D5F7175 		.ascii	"m_queue\000"
 3404      65756500 
 3405              	.LASF19:
 3406 00f2 74736C69 		.ascii	"tslices_t\000"
 3406      6365735F 
 3406      7400
 3407              	.LASF86:
 3408 00fc 71776169 		.ascii	"qwait\000"
 3408      7400
 3409              	.LASF0:
 3410 0102 6C6F6E67 		.ascii	"long int\000"
 3410      20696E74 
 3410      00
 3411              	.LASF18:
 3412 010b 74737461 		.ascii	"tstate_t\000"
 3412      74655F74 
 3412      00
 3413              	.LASF79:
 3414 0114 63684F51 		.ascii	"chOQGetI\000"
 3414      47657449 
 3414      00
 3415              	.LASF57:
 3416 011d 715F6275 		.ascii	"q_buffer\000"
 3416      66666572 
 3416      00
 3417              	.LASF59:
 3418 0126 715F7772 		.ascii	"q_wrptr\000"
 3418      70747200 
 3419              	.LASF9:
 3420 012e 5F5F7569 		.ascii	"__uint32_t\000"
 3420      6E743332 
ARM GAS  /tmp/ccIHhy0a.s 			page 62


 3420      5F7400
 3421              	.LASF38:
 3422 0139 72656761 		.ascii	"regarm_t\000"
 3422      726D5F74 
 3422      00
 3423              	.LASF69:
 3424 0142 6C696E6B 		.ascii	"link\000"
 3424      00
 3425              	.LASF78:
 3426 0147 63684F51 		.ascii	"chOQPutTimeout\000"
 3426      50757454 
 3426      696D656F 
 3426      757400
 3427              	.LASF72:
 3428 0156 63684951 		.ascii	"chIQPutI\000"
 3428      50757449 
 3428      00
 3429              	.LASF15:
 3430 015f 756E7369 		.ascii	"unsigned int\000"
 3430      676E6564 
 3430      20696E74 
 3430      00
 3431              	.LASF71:
 3432 016c 63684951 		.ascii	"chIQResetI\000"
 3432      52657365 
 3432      744900
 3433              	.LASF1:
 3434 0177 6C6F6E67 		.ascii	"long unsigned int\000"
 3434      20756E73 
 3434      69676E65 
 3434      6420696E 
 3434      7400
 3435              	.LASF67:
 3436 0189 73697A65 		.ascii	"size\000"
 3436      00
 3437              	.LASF7:
 3438 018e 73686F72 		.ascii	"short unsigned int\000"
 3438      7420756E 
 3438      7369676E 
 3438      65642069 
 3438      6E7400
 3439              	.LASF21:
 3440 01a1 6D73675F 		.ascii	"msg_t\000"
 3440      7400
 3441              	.LASF17:
 3442 01a7 746D6F64 		.ascii	"tmode_t\000"
 3442      655F7400 
 3443              	.LASF37:
 3444 01af 54687265 		.ascii	"ThreadsList\000"
 3444      6164734C 
 3444      69737400 
 3445              	.LASF22:
 3446 01bb 6576656E 		.ascii	"eventmask_t\000"
 3446      746D6173 
 3446      6B5F7400 
 3447              	.LASF64:
 3448 01c7 496E7075 		.ascii	"InputQueue\000"
ARM GAS  /tmp/ccIHhy0a.s 			page 63


 3448      74517565 
 3448      756500
 3449              	.LASF46:
 3450 01d2 4D757465 		.ascii	"Mutex\000"
 3450      7800
 3451              	.LASF81:
 3452 01d8 474E5520 		.ascii	"GNU C 4.9.3 20150529 (prerelease) -mcpu=arm1176jz-s"
 3452      4320342E 
 3452      392E3320 
 3452      32303135 
 3452      30353239 
 3453 020b 202D6D61 		.ascii	" -mabi=apcs-gnu -mno-thumb-interwork -ggdb -O2 -fom"
 3453      62693D61 
 3453      7063732D 
 3453      676E7520 
 3453      2D6D6E6F 
 3454 023e 69742D66 		.ascii	"it-frame-pointer -ffunction-sections -fdata-section"
 3454      72616D65 
 3454      2D706F69 
 3454      6E746572 
 3454      202D6666 
 3455 0271 7300     		.ascii	"s\000"
 3456              	.LASF54:
 3457 0273 47656E65 		.ascii	"GenericQueue\000"
 3457      72696351 
 3457      75657565 
 3457      00
 3458              	.LASF80:
 3459 0280 63684F51 		.ascii	"chOQWriteTimeout\000"
 3459      57726974 
 3459      6554696D 
 3459      656F7574 
 3459      00
 3460              	.LASF56:
 3461 0291 715F636F 		.ascii	"q_counter\000"
 3461      756E7465 
 3461      7200
 3462              	.LASF85:
 3463 029b 6669666F 		.ascii	"fifo_remove\000"
 3463      5F72656D 
 3463      6F766500 
 3464              	.LASF43:
 3465 02a7 725F6374 		.ascii	"r_ctx\000"
 3465      7800
 3466              	.LASF36:
 3467 02ad 54687265 		.ascii	"ThreadsQueue\000"
 3467      61647351 
 3467      75657565 
 3467      00
 3468              	.LASF66:
 3469 02ba 74696D65 		.ascii	"time\000"
 3469      00
 3470              	.LASF44:
 3471 02bf 725F6375 		.ascii	"r_current\000"
 3471      7272656E 
 3471      7400
 3472              	.LASF63:
ARM GAS  /tmp/ccIHhy0a.s 			page 64


 3473 02c9 716E6F74 		.ascii	"qnotify_t\000"
 3473      6966795F 
 3473      7400
 3474              	.LASF26:
 3475 02d3 705F7072 		.ascii	"p_prev\000"
 3475      657600
 3476              	.LASF20:
 3477 02da 74707269 		.ascii	"tprio_t\000"
 3477      6F5F7400 
 3478              	.LASF60:
 3479 02e2 715F7264 		.ascii	"q_rdptr\000"
 3479      70747200 
 3480              	.LASF13:
 3481 02ea 696E7433 		.ascii	"int32_t\000"
 3481      325F7400 
 3482              	.LASF5:
 3483 02f2 756E7369 		.ascii	"unsigned char\000"
 3483      676E6564 
 3483      20636861 
 3483      7200
 3484              	.LASF34:
 3485 0300 705F6D74 		.ascii	"p_mtxlist\000"
 3485      786C6973 
 3485      7400
 3486              	.LASF6:
 3487 030a 73686F72 		.ascii	"short int\000"
 3487      7420696E 
 3487      7400
 3488              	.LASF29:
 3489 0314 705F7374 		.ascii	"p_state\000"
 3489      61746500 
 3490              	.LASF31:
 3491 031c 705F7072 		.ascii	"p_preempt\000"
 3491      65656D70 
 3491      7400
 3492              	.LASF42:
 3493 0326 725F7072 		.ascii	"r_prio\000"
 3493      696F00
 3494              	.LASF53:
 3495 032d 65776D61 		.ascii	"ewmask\000"
 3495      736B00
 3496              	.LASF25:
 3497 0334 705F6E65 		.ascii	"p_next\000"
 3497      787400
 3498              	.LASF68:
 3499 033b 696E6679 		.ascii	"infy\000"
 3499      00
 3500              	.LASF30:
 3501 0340 705F666C 		.ascii	"p_flags\000"
 3501      61677300 
 3502              	.LASF24:
 3503 0348 54687265 		.ascii	"Thread\000"
 3503      616400
 3504              	.LASF33:
 3505 034f 705F6570 		.ascii	"p_epending\000"
 3505      656E6469 
 3505      6E6700
ARM GAS  /tmp/ccIHhy0a.s 			page 65


 3506              	.LASF14:
 3507 035a 75696E74 		.ascii	"uint32_t\000"
 3507      33325F74 
 3507      00
 3508              	.LASF41:
 3509 0363 725F7175 		.ascii	"r_queue\000"
 3509      65756500 
 3510              	.LASF89:
 3511 036b 63685363 		.ascii	"chSchReadyI\000"
 3511      68526561 
 3511      64794900 
 3512              	.LASF49:
 3513 0377 6D5F6E65 		.ascii	"m_next\000"
 3513      787400
 3514              	.LASF23:
 3515 037e 73797374 		.ascii	"systime_t\000"
 3515      696D655F 
 3515      7400
 3516              	.LASF35:
 3517 0388 705F7265 		.ascii	"p_realprio\000"
 3517      616C7072 
 3517      696F00
 3518              	.LASF8:
 3519 0393 5F5F696E 		.ascii	"__int32_t\000"
 3519      7433325F 
 3519      7400
 3520              	.LASF77:
 3521 039d 63684F51 		.ascii	"chOQResetI\000"
 3521      52657365 
 3521      744900
 3522              	.LASF40:
 3523 03a8 636F6E74 		.ascii	"context\000"
 3523      65787400 
 3524              	.LASF39:
 3525 03b0 696E7463 		.ascii	"intctx\000"
 3525      747800
 3526              	.LASF82:
 3527 03b7 2E2E2F2E 		.ascii	"../../../os/kernel/src/chqueues.c\000"
 3527      2E2F2E2E 
 3527      2F6F732F 
 3527      6B65726E 
 3527      656C2F73 
 3528              	.LASF58:
 3529 03d9 715F746F 		.ascii	"q_top\000"
 3529      7000
 3530              	.LASF45:
 3531 03df 52656164 		.ascii	"ReadyList\000"
 3531      794C6973 
 3531      7400
 3532              	.LASF61:
 3533 03e9 715F6E6F 		.ascii	"q_notify\000"
 3533      74696679 
 3533      00
 3534              	.LASF87:
 3535 03f2 726C6973 		.ascii	"rlist\000"
 3535      7400
 3536              	.LASF12:
ARM GAS  /tmp/ccIHhy0a.s 			page 66


 3537 03f8 75696E74 		.ascii	"uint8_t\000"
 3537      385F7400 
 3538              	.LASF52:
 3539 0400 77746F62 		.ascii	"wtobjp\000"
 3539      6A7000
 3540              	.LASF88:
 3541 0407 63685363 		.ascii	"chSchGoSleepTimeoutS\000"
 3541      68476F53 
 3541      6C656570 
 3541      54696D65 
 3541      6F757453 
 3542              	.LASF62:
 3543 041c 715F6C69 		.ascii	"q_link\000"
 3543      6E6B00
 3544              	.LASF48:
 3545 0423 6D5F6F77 		.ascii	"m_owner\000"
 3545      6E657200 
 3546              	.LASF28:
 3547 042b 705F6374 		.ascii	"p_ctx\000"
 3547      7800
 3548              	.LASF32:
 3549 0431 705F7761 		.ascii	"p_waiting\000"
 3549      6974696E 
 3549      6700
 3550              	.LASF73:
 3551 043b 63684951 		.ascii	"chIQGetTimeout\000"
 3551      47657454 
 3551      696D656F 
 3551      757400
 3552              		.ident	"GCC: (15:4.9.3+svn231177-1) 4.9.3 20150529 (prerelease)"
ARM GAS  /tmp/ccIHhy0a.s 			page 67


DEFINED SYMBOLS
                            *ABS*:0000000000000000 chqueues.c
     /tmp/ccIHhy0a.s:6      .text.qwait:0000000000000000 $a
     /tmp/ccIHhy0a.s:8      .text.qwait:0000000000000000 qwait
     /tmp/ccIHhy0a.s:54     .text.qwait:0000000000000038 $d
     /tmp/ccIHhy0a.s:59     .text.chIQInit:0000000000000000 $a
     /tmp/ccIHhy0a.s:62     .text.chIQInit:0000000000000000 chIQInit
     /tmp/ccIHhy0a.s:98     .text.chIQResetI:0000000000000000 $a
     /tmp/ccIHhy0a.s:101    .text.chIQResetI:0000000000000000 chIQResetI
     /tmp/ccIHhy0a.s:156    .text.chIQPutI:0000000000000000 $a
     /tmp/ccIHhy0a.s:159    .text.chIQPutI:0000000000000000 chIQPutI
     /tmp/ccIHhy0a.s:249    .text.chIQGetTimeout:0000000000000000 $a
     /tmp/ccIHhy0a.s:252    .text.chIQGetTimeout:0000000000000000 chIQGetTimeout
     /tmp/ccIHhy0a.s:327    .text.chIQReadTimeout:0000000000000000 $a
     /tmp/ccIHhy0a.s:330    .text.chIQReadTimeout:0000000000000000 chIQReadTimeout
     /tmp/ccIHhy0a.s:434    .text.chOQInit:0000000000000000 $a
     /tmp/ccIHhy0a.s:437    .text.chOQInit:0000000000000000 chOQInit
     /tmp/ccIHhy0a.s:471    .text.chOQResetI:0000000000000000 $a
     /tmp/ccIHhy0a.s:474    .text.chOQResetI:0000000000000000 chOQResetI
     /tmp/ccIHhy0a.s:531    .text.chOQPutTimeout:0000000000000000 $a
     /tmp/ccIHhy0a.s:534    .text.chOQPutTimeout:0000000000000000 chOQPutTimeout
     /tmp/ccIHhy0a.s:623    .text.chOQGetI:0000000000000000 $a
     /tmp/ccIHhy0a.s:626    .text.chOQGetI:0000000000000000 chOQGetI
     /tmp/ccIHhy0a.s:711    .text.chOQWriteTimeout:0000000000000000 $a
     /tmp/ccIHhy0a.s:714    .text.chOQWriteTimeout:0000000000000000 chOQWriteTimeout
                     .debug_frame:0000000000000010 $d

UNDEFINED SYMBOLS
chSchGoSleepTimeoutS
rlist
chSchReadyI
