ARM GAS  /tmp/cc0xdMoy.s 			page 1


   1              		.file	"chschd.c"
   2              		.text
   3              	.Ltext0:
   4              		.cfi_sections	.debug_frame
   5              		.section	.text.wakeup,"ax",%progbits
   6              		.align	2
   7              		.type	wakeup, %function
   8              	wakeup:
   9              	.LFB10:
  10              		.file 1 "../../../os/kernel/src/chschd.c"
  11              		.loc 1 129 0
  12              		.cfi_startproc
  13              		@ args = 0, pretend = 0, frame = 0
  14              		@ frame_needed = 0, uses_anonymous_args = 0
  15              		@ link register save eliminated.
  16              	.LVL0:
  17              		.loc 1 133 0
  18 0000 1030D0E5 		ldrb	r3, [r0, #16]	@ zero_extendqisi2
  19 0004 000053E3 		cmp	r3, #0
  20 0008 1EFF2F01 		bxeq	lr
  21 000c 0D0053E3 		cmp	r3, #13
  22              	.LVL1:
  23              	.LBB31:
  24              	.LBB32:
  25              		.file 2 "../../../os/kernel/include/chinline.h"
  26              		.loc 2 68 0
  27 0010 0C009008 		ldmeqia	r0, {r2, r3}
  28 0014 00208305 		streq	r2, [r3]
  29              		.loc 2 69 0
  30 0018 00209005 		ldreq	r2, [r0]
  31              	.LBE32:
  32              	.LBE31:
  33              	.LBB34:
  34              	.LBB35:
  35              		.loc 1 156 0
  36 001c 00C0E0E3 		mvn	ip, #0
  37              	.LBE35:
  38              	.LBE34:
  39              	.LBB41:
  40              	.LBB33:
  41              		.loc 2 69 0
  42 0020 04308205 		streq	r3, [r2, #4]
  43              	.LVL2:
  44              	.LBE33:
  45              	.LBE41:
  46              	.LBB42:
  47              	.LBB40:
  48              	.LBB36:
  49              	.LBB37:
  50              		.loc 1 85 0
  51 0024 0020A0E3 		mov	r2, #0
  52 0028 081090E5 		ldr	r1, [r0, #8]
  53              		.loc 1 86 0
  54 002c 2C309FE5 		ldr	r3, .L11
  55              	.LBE37:
  56              	.LBE36:
  57              		.loc 1 156 0
ARM GAS  /tmp/cc0xdMoy.s 			page 2


  58 0030 14C080E5 		str	ip, [r0, #20]
  59              	.LVL3:
  60              	.LBB39:
  61              	.LBB38:
  62              		.loc 1 85 0
  63 0034 1020C0E5 		strb	r2, [r0, #16]
  64              	.LVL4:
  65              	.L5:
  66              		.loc 1 88 0
  67 0038 003093E5 		ldr	r3, [r3]
  68              	.LVL5:
  69              		.loc 1 89 0
  70 003c 082093E5 		ldr	r2, [r3, #8]
  71 0040 010052E1 		cmp	r2, r1
  72 0044 FBFFFF2A 		bcs	.L5
  73              		.loc 1 92 0
  74 0048 042093E5 		ldr	r2, [r3, #4]
  75              		.loc 1 91 0
  76 004c 003080E5 		str	r3, [r0]
  77              		.loc 1 92 0
  78 0050 042080E5 		str	r2, [r0, #4]
  79              		.loc 1 93 0
  80 0054 040083E5 		str	r0, [r3, #4]
  81 0058 000082E5 		str	r0, [r2]
  82 005c 1EFF2FE1 		bx	lr
  83              	.L12:
  84              		.align	2
  85              	.L11:
  86 0060 00000000 		.word	rlist
  87              	.LBE38:
  88              	.LBE39:
  89              	.LBE40:
  90              	.LBE42:
  91              		.cfi_endproc
  92              	.LFE10:
  93              		.size	wakeup, .-wakeup
  94              		.section	.text._scheduler_init,"ax",%progbits
  95              		.align	2
  96              		.global	_scheduler_init
  97              		.type	_scheduler_init, %function
  98              	_scheduler_init:
  99              	.LFB7:
 100              		.loc 1 48 0
 101              		.cfi_startproc
 102              		@ args = 0, pretend = 0, frame = 0
 103              		@ frame_needed = 0, uses_anonymous_args = 0
 104              		@ link register save eliminated.
 105              		.loc 1 51 0
 106 0000 0020A0E3 		mov	r2, #0
 107              		.loc 1 50 0
 108 0004 0C309FE5 		ldr	r3, .L14
 109              		.loc 1 51 0
 110 0008 082083E5 		str	r2, [r3, #8]
 111              		.loc 1 50 0
 112 000c 043083E5 		str	r3, [r3, #4]
 113 0010 003083E5 		str	r3, [r3]
 114 0014 1EFF2FE1 		bx	lr
ARM GAS  /tmp/cc0xdMoy.s 			page 3


 115              	.L15:
 116              		.align	2
 117              	.L14:
 118 0018 00000000 		.word	rlist
 119              		.cfi_endproc
 120              	.LFE7:
 121              		.size	_scheduler_init, .-_scheduler_init
 122              		.section	.text.chSchReadyI,"ax",%progbits
 123              		.align	2
 124              		.global	chSchReadyI
 125              		.type	chSchReadyI, %function
 126              	chSchReadyI:
 127              	.LFB8:
 128              		.loc 1 74 0
 129              		.cfi_startproc
 130              		@ args = 0, pretend = 0, frame = 0
 131              		@ frame_needed = 0, uses_anonymous_args = 0
 132              		@ link register save eliminated.
 133              	.LVL6:
 134              		.loc 1 85 0
 135 0000 0020A0E3 		mov	r2, #0
 136              		.loc 1 74 0
 137 0004 00C0A0E1 		mov	ip, r0
 138 0008 081090E5 		ldr	r1, [r0, #8]
 139              		.loc 1 86 0
 140 000c 2C309FE5 		ldr	r3, .L19
 141              		.loc 1 85 0
 142 0010 1020C0E5 		strb	r2, [r0, #16]
 143              	.LVL7:
 144              	.L17:
 145              		.loc 1 88 0 discriminator 1
 146 0014 003093E5 		ldr	r3, [r3]
 147              	.LVL8:
 148              		.loc 1 89 0 discriminator 1
 149 0018 082093E5 		ldr	r2, [r3, #8]
 150 001c 010052E1 		cmp	r2, r1
 151 0020 FBFFFF2A 		bcs	.L17
 152              		.loc 1 92 0
 153 0024 042093E5 		ldr	r2, [r3, #4]
 154              		.loc 1 95 0
 155 0028 0C00A0E1 		mov	r0, ip
 156              	.LVL9:
 157              		.loc 1 91 0
 158 002c 00308CE5 		str	r3, [ip]
 159              		.loc 1 92 0
 160 0030 04208CE5 		str	r2, [ip, #4]
 161              		.loc 1 93 0
 162 0034 04C083E5 		str	ip, [r3, #4]
 163 0038 00C082E5 		str	ip, [r2]
 164              		.loc 1 95 0
 165 003c 1EFF2FE1 		bx	lr
 166              	.L20:
 167              		.align	2
 168              	.L19:
 169 0040 00000000 		.word	rlist
 170              		.cfi_endproc
 171              	.LFE8:
ARM GAS  /tmp/cc0xdMoy.s 			page 4


 172              		.size	chSchReadyI, .-chSchReadyI
 173              		.section	.text.chSchGoSleepS,"ax",%progbits
 174              		.align	2
 175              		.global	chSchGoSleepS
 176              		.type	chSchGoSleepS, %function
 177              	chSchGoSleepS:
 178              	.LFB9:
 179              		.loc 1 108 0
 180              		.cfi_startproc
 181              		@ args = 0, pretend = 0, frame = 0
 182              		@ frame_needed = 0, uses_anonymous_args = 0
 183              	.LVL10:
 184 0000 10402DE9 		stmfd	sp!, {r4, lr}
 185              		.cfi_def_cfa_offset 8
 186              		.cfi_offset 4, -8
 187              		.cfi_offset 14, -4
 188              		.loc 1 117 0
 189 0004 1440A0E3 		mov	r4, #20
 190              		.loc 1 120 0
 191 0008 01E0A0E3 		mov	lr, #1
 192              		.loc 1 113 0
 193 000c 2C309FE5 		ldr	r3, .L23
 194              	.LBB43:
 195              	.LBB44:
 196              		.loc 2 53 0
 197 0010 002093E5 		ldr	r2, [r3]
 198              	.LBE44:
 199              	.LBE43:
 200              		.loc 1 113 0
 201 0014 101093E5 		ldr	r1, [r3, #16]
 202              	.LVL11:
 203              	.LBB48:
 204              	.LBB45:
 205              		.loc 2 55 0
 206 0018 00C092E5 		ldr	ip, [r2]
 207              	.LBE45:
 208              	.LBE48:
 209              		.loc 1 113 0
 210 001c 1000C1E5 		strb	r0, [r1, #16]
 211              		.loc 1 117 0
 212 0020 1240C1E5 		strb	r4, [r1, #18]
 213              	.LVL12:
 214              	.LBB49:
 215              	.LBB46:
 216              		.loc 2 55 0
 217 0024 04308CE5 		str	r3, [ip, #4]
 218              	.LBE46:
 219              	.LBE49:
 220              		.loc 1 119 0
 221 0028 102083E5 		str	r2, [r3, #16]
 222              		.loc 1 120 0
 223 002c 10E0C2E5 		strb	lr, [r2, #16]
 224              		.loc 1 121 0
 225 0030 0200A0E1 		mov	r0, r2
 226              	.LVL13:
 227              		.loc 1 122 0
 228 0034 1040BDE8 		ldmfd	sp!, {r4, lr}
ARM GAS  /tmp/cc0xdMoy.s 			page 5


 229              		.cfi_restore 14
 230              		.cfi_restore 4
 231              		.cfi_def_cfa_offset 0
 232              	.LBB50:
 233              	.LBB47:
 234              		.loc 2 55 0
 235 0038 00C083E5 		str	ip, [r3]
 236              	.LBE47:
 237              	.LBE50:
 238              		.loc 1 121 0
 239 003c FEFFFFEA 		b	_port_switch_arm
 240              	.LVL14:
 241              	.L24:
 242              		.align	2
 243              	.L23:
 244 0040 00000000 		.word	rlist
 245              		.cfi_endproc
 246              	.LFE9:
 247              		.size	chSchGoSleepS, .-chSchGoSleepS
 248              		.section	.text.chSchGoSleepTimeoutS,"ax",%progbits
 249              		.align	2
 250              		.global	chSchGoSleepTimeoutS
 251              		.type	chSchGoSleepTimeoutS, %function
 252              	chSchGoSleepTimeoutS:
 253              	.LFB11:
 254              		.loc 1 182 0
 255              		.cfi_startproc
 256              		@ args = 0, pretend = 0, frame = 20
 257              		@ frame_needed = 0, uses_anonymous_args = 0
 258              	.LVL15:
 259 0000 30402DE9 		stmfd	sp!, {r4, r5, lr}
 260              		.cfi_def_cfa_offset 12
 261              		.cfi_offset 4, -12
 262              		.cfi_offset 5, -8
 263              		.cfi_offset 14, -4
 264              		.loc 1 186 0
 265 0004 010071E3 		cmn	r1, #1
 266              		.loc 1 182 0
 267 0008 14D04DE2 		sub	sp, sp, #20
 268              		.cfi_def_cfa_offset 32
 269              		.loc 1 182 0
 270 000c 7050EFE6 		uxtb	r5, r0
 271              		.loc 1 186 0
 272 0010 0F00000A 		beq	.L26
 273              	.LBB51:
 274              		.loc 1 189 0
 275 0014 54409FE5 		ldr	r4, .L33
 276 0018 0D00A0E1 		mov	r0, sp
 277              	.LVL16:
 278 001c 103094E5 		ldr	r3, [r4, #16]
 279 0020 4C209FE5 		ldr	r2, .L33+4
 280 0024 FEFFFFEB 		bl	chVTSetI
 281              	.LVL17:
 282              		.loc 1 190 0
 283 0028 0500A0E1 		mov	r0, r5
 284 002c FEFFFFEB 		bl	chSchGoSleepS
 285              	.LVL18:
ARM GAS  /tmp/cc0xdMoy.s 			page 6


 286              		.loc 1 191 0
 287 0030 0C309DE5 		ldr	r3, [sp, #12]
 288 0034 000053E3 		cmp	r3, #0
 289 0038 0100000A 		beq	.L28
 290              		.loc 1 192 0
 291 003c 0D00A0E1 		mov	r0, sp
 292 0040 FEFFFFEB 		bl	chVTResetI
 293              	.LVL19:
 294              	.L28:
 295              	.LBE51:
 296              		.loc 1 196 0
 297 0044 103094E5 		ldr	r3, [r4, #16]
 298              		.loc 1 197 0
 299 0048 140093E5 		ldr	r0, [r3, #20]
 300 004c 14D08DE2 		add	sp, sp, #20
 301              		.cfi_remember_state
 302              		.cfi_def_cfa_offset 12
 303              		@ sp needed
 304 0050 3080BDE8 		ldmfd	sp!, {r4, r5, pc}
 305              	.LVL20:
 306              	.L26:
 307              		.cfi_restore_state
 308              		.loc 1 195 0
 309 0054 0500A0E1 		mov	r0, r5
 310              	.LVL21:
 311 0058 FEFFFFEB 		bl	chSchGoSleepS
 312              	.LVL22:
 313 005c 0C409FE5 		ldr	r4, .L33
 314              		.loc 1 196 0
 315 0060 103094E5 		ldr	r3, [r4, #16]
 316              		.loc 1 197 0
 317 0064 140093E5 		ldr	r0, [r3, #20]
 318 0068 14D08DE2 		add	sp, sp, #20
 319              		.cfi_def_cfa_offset 12
 320              		@ sp needed
 321 006c 3080BDE8 		ldmfd	sp!, {r4, r5, pc}
 322              	.LVL23:
 323              	.L34:
 324              		.align	2
 325              	.L33:
 326 0070 00000000 		.word	rlist
 327 0074 00000000 		.word	wakeup
 328              		.cfi_endproc
 329              	.LFE11:
 330              		.size	chSchGoSleepTimeoutS, .-chSchGoSleepTimeoutS
 331              		.section	.text.chSchWakeupS,"ax",%progbits
 332              		.align	2
 333              		.global	chSchWakeupS
 334              		.type	chSchWakeupS, %function
 335              	chSchWakeupS:
 336              	.LFB12:
 337              		.loc 1 218 0
 338              		.cfi_startproc
 339              		@ args = 0, pretend = 0, frame = 0
 340              		@ frame_needed = 0, uses_anonymous_args = 0
 341              	.LVL24:
 342              		.loc 1 227 0
ARM GAS  /tmp/cc0xdMoy.s 			page 7


 343 0000 94309FE5 		ldr	r3, .L44
 344              		.loc 1 218 0
 345 0004 30402DE9 		stmfd	sp!, {r4, r5, lr}
 346              		.cfi_def_cfa_offset 12
 347              		.cfi_offset 4, -12
 348              		.cfi_offset 5, -8
 349              		.cfi_offset 14, -4
 350              		.loc 1 227 0
 351 0008 104093E5 		ldr	r4, [r3, #16]
 352 000c 08C090E5 		ldr	ip, [r0, #8]
 353              		.loc 1 218 0
 354 0010 00E0A0E1 		mov	lr, r0
 355              		.loc 1 222 0
 356 0014 141080E5 		str	r1, [r0, #20]
 357              		.loc 1 227 0
 358 0018 080094E5 		ldr	r0, [r4, #8]
 359              	.LVL25:
 360 001c 00005CE1 		cmp	ip, r0
 361 0020 0B00008A 		bhi	.L36
 362              	.LVL26:
 363              	.LBB52:
 364              	.LBB53:
 365              		.loc 1 85 0
 366 0024 0020A0E3 		mov	r2, #0
 367 0028 1020CEE5 		strb	r2, [lr, #16]
 368              	.LVL27:
 369              	.L37:
 370              		.loc 1 88 0
 371 002c 003093E5 		ldr	r3, [r3]
 372              	.LVL28:
 373              		.loc 1 89 0
 374 0030 082093E5 		ldr	r2, [r3, #8]
 375 0034 02005CE1 		cmp	ip, r2
 376 0038 FBFFFF9A 		bls	.L37
 377              		.loc 1 92 0
 378 003c 042093E5 		ldr	r2, [r3, #4]
 379              		.loc 1 91 0
 380 0040 00308EE5 		str	r3, [lr]
 381              		.loc 1 92 0
 382 0044 04208EE5 		str	r2, [lr, #4]
 383              		.loc 1 93 0
 384 0048 04E083E5 		str	lr, [r3, #4]
 385 004c 00E082E5 		str	lr, [r2]
 386 0050 3080BDE8 		ldmfd	sp!, {r4, r5, pc}
 387              	.LVL29:
 388              	.L36:
 389              	.LBE53:
 390              	.LBE52:
 391              	.LBB54:
 392              	.LBB55:
 393              	.LBB56:
 394              		.loc 1 85 0
 395 0054 0010A0E3 		mov	r1, #0
 396              	.LVL30:
 397              		.loc 1 86 0
 398 0058 0320A0E1 		mov	r2, r3
 399              		.loc 1 85 0
ARM GAS  /tmp/cc0xdMoy.s 			page 8


 400 005c 1010C4E5 		strb	r1, [r4, #16]
 401              	.LVL31:
 402              	.L39:
 403              		.loc 1 88 0
 404 0060 002092E5 		ldr	r2, [r2]
 405              	.LVL32:
 406              		.loc 1 89 0
 407 0064 081092E5 		ldr	r1, [r2, #8]
 408 0068 010050E1 		cmp	r0, r1
 409 006c FBFFFF9A 		bls	.L39
 410              	.LBE56:
 411              	.LBE55:
 412              		.loc 1 232 0
 413 0070 0150A0E3 		mov	r5, #1
 414              	.LBB59:
 415              	.LBB57:
 416              		.loc 1 92 0
 417 0074 04C092E5 		ldr	ip, [r2, #4]
 418              	.LBE57:
 419              	.LBE59:
 420              		.loc 1 233 0
 421 0078 0410A0E1 		mov	r1, r4
 422              	.LBB60:
 423              	.LBB58:
 424              		.loc 1 92 0
 425 007c 041084E8 		stmia	r4, {r2, ip}
 426              		.loc 1 93 0
 427 0080 044082E5 		str	r4, [r2, #4]
 428 0084 00408CE5 		str	r4, [ip]
 429              	.LBE58:
 430              	.LBE60:
 431              		.loc 1 231 0
 432 0088 10E083E5 		str	lr, [r3, #16]
 433              		.loc 1 232 0
 434 008c 1050CEE5 		strb	r5, [lr, #16]
 435              		.loc 1 233 0
 436 0090 0E00A0E1 		mov	r0, lr
 437              	.LBE54:
 438              		.loc 1 235 0
 439 0094 3040BDE8 		ldmfd	sp!, {r4, r5, lr}
 440              		.cfi_restore 14
 441              		.cfi_restore 5
 442              		.cfi_restore 4
 443              		.cfi_def_cfa_offset 0
 444              	.LVL33:
 445              	.LBB61:
 446              		.loc 1 233 0
 447 0098 FEFFFFEA 		b	_port_switch_arm
 448              	.LVL34:
 449              	.L45:
 450              		.align	2
 451              	.L44:
 452 009c 00000000 		.word	rlist
 453              	.LBE61:
 454              		.cfi_endproc
 455              	.LFE12:
 456              		.size	chSchWakeupS, .-chSchWakeupS
ARM GAS  /tmp/cc0xdMoy.s 			page 9


 457              		.section	.text.chSchIsPreemptionRequired,"ax",%progbits
 458              		.align	2
 459              		.global	chSchIsPreemptionRequired
 460              		.type	chSchIsPreemptionRequired, %function
 461              	chSchIsPreemptionRequired:
 462              	.LFB14:
 463              		.loc 1 269 0
 464              		.cfi_startproc
 465              		@ args = 0, pretend = 0, frame = 0
 466              		@ frame_needed = 0, uses_anonymous_args = 0
 467              		@ link register save eliminated.
 468              		.loc 1 270 0
 469 0000 38309FE5 		ldr	r3, .L50
 470              		.loc 1 271 0
 471 0004 102093E5 		ldr	r2, [r3, #16]
 472              		.loc 1 270 0
 473 0008 003093E5 		ldr	r3, [r3]
 474              		.loc 1 277 0
 475 000c 1210D2E5 		ldrb	r1, [r2, #18]	@ zero_extendqisi2
 476              		.loc 1 270 0
 477 0010 083093E5 		ldr	r3, [r3, #8]
 478              	.LVL35:
 479              		.loc 1 277 0
 480 0014 000051E3 		cmp	r1, #0
 481              		.loc 1 271 0
 482 0018 080092E5 		ldr	r0, [r2, #8]
 483              	.LVL36:
 484              		.loc 1 277 0
 485 001c 0300001A 		bne	.L49
 486              		.loc 1 277 0 is_stmt 0 discriminator 2
 487 0020 000053E1 		cmp	r3, r0
 488 0024 0000A033 		movcc	r0, #0
 489              	.LVL37:
 490 0028 0100A023 		movcs	r0, #1
 491              		.loc 1 283 0 is_stmt 1 discriminator 2
 492 002c 1EFF2FE1 		bx	lr
 493              	.LVL38:
 494              	.L49:
 495              		.loc 1 277 0 discriminator 1
 496 0030 000053E1 		cmp	r3, r0
 497 0034 0000A093 		movls	r0, #0
 498              	.LVL39:
 499 0038 0100A083 		movhi	r0, #1
 500 003c 1EFF2FE1 		bx	lr
 501              	.L51:
 502              		.align	2
 503              	.L50:
 504 0040 00000000 		.word	rlist
 505              		.cfi_endproc
 506              	.LFE14:
 507              		.size	chSchIsPreemptionRequired, .-chSchIsPreemptionRequired
 508              		.section	.text.chSchDoRescheduleBehind,"ax",%progbits
 509              		.align	2
 510              		.global	chSchDoRescheduleBehind
 511              		.type	chSchDoRescheduleBehind, %function
 512              	chSchDoRescheduleBehind:
 513              	.LFB15:
ARM GAS  /tmp/cc0xdMoy.s 			page 10


 514              		.loc 1 297 0
 515              		.cfi_startproc
 516              		@ args = 0, pretend = 0, frame = 0
 517              		@ frame_needed = 0, uses_anonymous_args = 0
 518 0000 70402DE9 		stmfd	sp!, {r4, r5, r6, lr}
 519              		.cfi_def_cfa_offset 16
 520              		.cfi_offset 4, -16
 521              		.cfi_offset 5, -12
 522              		.cfi_offset 6, -8
 523              		.cfi_offset 14, -4
 524              		.loc 1 303 0
 525 0004 0160A0E3 		mov	r6, #1
 526              		.loc 1 305 0
 527 0008 1450A0E3 		mov	r5, #20
 528              	.LBB62:
 529              	.LBB63:
 530              		.loc 1 85 0
 531 000c 0040A0E3 		mov	r4, #0
 532              	.LBE63:
 533              	.LBE62:
 534              		.loc 1 300 0
 535 0010 5C209FE5 		ldr	r2, .L57
 536              	.LBB67:
 537              	.LBB68:
 538              		.loc 2 53 0
 539 0014 000092E5 		ldr	r0, [r2]
 540              	.LBE68:
 541              	.LBE67:
 542              		.loc 1 300 0
 543 0018 10C092E5 		ldr	ip, [r2, #16]
 544              	.LVL40:
 545              	.LBB71:
 546              	.LBB69:
 547              		.loc 2 55 0
 548 001c 00E090E5 		ldr	lr, [r0]
 549 0020 08109CE5 		ldr	r1, [ip, #8]
 550              	.LBE69:
 551              	.LBE71:
 552              	.LBB72:
 553              	.LBB64:
 554              		.loc 1 85 0
 555 0024 0030A0E1 		mov	r3, r0
 556              	.LBE64:
 557              	.LBE72:
 558              	.LBB73:
 559              	.LBB70:
 560              		.loc 2 55 0
 561 0028 04208EE5 		str	r2, [lr, #4]
 562 002c 00E082E5 		str	lr, [r2]
 563              	.LBE70:
 564              	.LBE73:
 565              		.loc 1 302 0
 566 0030 100082E5 		str	r0, [r2, #16]
 567              		.loc 1 303 0
 568 0034 1060C0E5 		strb	r6, [r0, #16]
 569              		.loc 1 305 0
 570 0038 1250CCE5 		strb	r5, [ip, #18]
ARM GAS  /tmp/cc0xdMoy.s 			page 11


 571              	.LVL41:
 572              	.LBB74:
 573              	.LBB65:
 574              		.loc 1 85 0
 575 003c 1040CCE5 		strb	r4, [ip, #16]
 576              	.LVL42:
 577 0040 000000EA 		b	.L54
 578              	.LVL43:
 579              	.L56:
 580 0044 003093E5 		ldr	r3, [r3]
 581              	.LVL44:
 582              	.L54:
 583              		.loc 1 89 0
 584 0048 082093E5 		ldr	r2, [r3, #8]
 585 004c 010052E1 		cmp	r2, r1
 586 0050 FBFFFF2A 		bcs	.L56
 587              		.loc 1 92 0
 588 0054 042093E5 		ldr	r2, [r3, #4]
 589              	.LBE65:
 590              	.LBE74:
 591              		.loc 1 308 0
 592 0058 0C10A0E1 		mov	r1, ip
 593              		.loc 1 309 0
 594 005c 7040BDE8 		ldmfd	sp!, {r4, r5, r6, lr}
 595              		.cfi_restore 14
 596              		.cfi_restore 6
 597              		.cfi_restore 5
 598              		.cfi_restore 4
 599              		.cfi_def_cfa_offset 0
 600              	.LBB75:
 601              	.LBB66:
 602              		.loc 1 91 0
 603 0060 00308CE5 		str	r3, [ip]
 604              		.loc 1 92 0
 605 0064 04208CE5 		str	r2, [ip, #4]
 606              		.loc 1 93 0
 607 0068 04C083E5 		str	ip, [r3, #4]
 608 006c 00C082E5 		str	ip, [r2]
 609              	.LBE66:
 610              	.LBE75:
 611              		.loc 1 308 0
 612 0070 FEFFFFEA 		b	_port_switch_arm
 613              	.LVL45:
 614              	.L58:
 615              		.align	2
 616              	.L57:
 617 0074 00000000 		.word	rlist
 618              		.cfi_endproc
 619              	.LFE15:
 620              		.size	chSchDoRescheduleBehind, .-chSchDoRescheduleBehind
 621              		.section	.text.chSchDoRescheduleAhead,"ax",%progbits
 622              		.align	2
 623              		.global	chSchDoRescheduleAhead
 624              		.type	chSchDoRescheduleAhead, %function
 625              	chSchDoRescheduleAhead:
 626              	.LFB16:
 627              		.loc 1 322 0
ARM GAS  /tmp/cc0xdMoy.s 			page 12


 628              		.cfi_startproc
 629              		@ args = 0, pretend = 0, frame = 0
 630              		@ frame_needed = 0, uses_anonymous_args = 0
 631 0000 30402DE9 		stmfd	sp!, {r4, r5, lr}
 632              		.cfi_def_cfa_offset 12
 633              		.cfi_offset 4, -12
 634              		.cfi_offset 5, -8
 635              		.cfi_offset 14, -4
 636              		.loc 1 328 0
 637 0004 0150A0E3 		mov	r5, #1
 638              		.loc 1 330 0
 639 0008 0040A0E3 		mov	r4, #0
 640              		.loc 1 325 0
 641 000c 58209FE5 		ldr	r2, .L64
 642              	.LBB76:
 643              	.LBB77:
 644              		.loc 2 53 0
 645 0010 000092E5 		ldr	r0, [r2]
 646              	.LBE77:
 647              	.LBE76:
 648              		.loc 1 325 0
 649 0014 10C092E5 		ldr	ip, [r2, #16]
 650              	.LVL46:
 651              	.LBB80:
 652              	.LBB78:
 653              		.loc 2 55 0
 654 0018 00E090E5 		ldr	lr, [r0]
 655 001c 08109CE5 		ldr	r1, [ip, #8]
 656              	.LBE78:
 657              	.LBE80:
 658              		.loc 1 330 0
 659 0020 0030A0E1 		mov	r3, r0
 660              	.LBB81:
 661              	.LBB79:
 662              		.loc 2 55 0
 663 0024 04208EE5 		str	r2, [lr, #4]
 664 0028 00E082E5 		str	lr, [r2]
 665              	.LBE79:
 666              	.LBE81:
 667              		.loc 1 327 0
 668 002c 100082E5 		str	r0, [r2, #16]
 669              		.loc 1 328 0
 670 0030 1050C0E5 		strb	r5, [r0, #16]
 671              		.loc 1 330 0
 672 0034 1040CCE5 		strb	r4, [ip, #16]
 673              	.LVL47:
 674 0038 000000EA 		b	.L61
 675              	.LVL48:
 676              	.L63:
 677 003c 003093E5 		ldr	r3, [r3]
 678              	.LVL49:
 679              	.L61:
 680              		.loc 1 334 0 discriminator 1
 681 0040 082093E5 		ldr	r2, [r3, #8]
 682 0044 010052E1 		cmp	r2, r1
 683 0048 FBFFFF8A 		bhi	.L63
 684              		.loc 1 337 0
ARM GAS  /tmp/cc0xdMoy.s 			page 13


 685 004c 042093E5 		ldr	r2, [r3, #4]
 686              		.loc 1 340 0
 687 0050 0C10A0E1 		mov	r1, ip
 688              		.loc 1 341 0
 689 0054 3040BDE8 		ldmfd	sp!, {r4, r5, lr}
 690              		.cfi_restore 14
 691              		.cfi_restore 5
 692              		.cfi_restore 4
 693              		.cfi_def_cfa_offset 0
 694              		.loc 1 336 0
 695 0058 00308CE5 		str	r3, [ip]
 696              		.loc 1 337 0
 697 005c 04208CE5 		str	r2, [ip, #4]
 698              		.loc 1 338 0
 699 0060 04C083E5 		str	ip, [r3, #4]
 700 0064 00C082E5 		str	ip, [r2]
 701              		.loc 1 340 0
 702 0068 FEFFFFEA 		b	_port_switch_arm
 703              	.LVL50:
 704              	.L65:
 705              		.align	2
 706              	.L64:
 707 006c 00000000 		.word	rlist
 708              		.cfi_endproc
 709              	.LFE16:
 710              		.size	chSchDoRescheduleAhead, .-chSchDoRescheduleAhead
 711              		.section	.text.chSchRescheduleS,"ax",%progbits
 712              		.align	2
 713              		.global	chSchRescheduleS
 714              		.type	chSchRescheduleS, %function
 715              	chSchRescheduleS:
 716              	.LFB13:
 717              		.loc 1 246 0
 718              		.cfi_startproc
 719              		@ args = 0, pretend = 0, frame = 0
 720              		@ frame_needed = 0, uses_anonymous_args = 0
 721              		@ link register save eliminated.
 722              		.loc 1 250 0
 723 0000 18309FE5 		ldr	r3, .L68
 724 0004 002093E5 		ldr	r2, [r3]
 725 0008 103093E5 		ldr	r3, [r3, #16]
 726 000c 082092E5 		ldr	r2, [r2, #8]
 727 0010 083093E5 		ldr	r3, [r3, #8]
 728 0014 030052E1 		cmp	r2, r3
 729 0018 1EFF2F91 		bxls	lr
 730              		.loc 1 251 0
 731 001c FEFFFFEA 		b	chSchDoRescheduleAhead
 732              	.LVL51:
 733              	.L69:
 734              		.align	2
 735              	.L68:
 736 0020 00000000 		.word	rlist
 737              		.cfi_endproc
 738              	.LFE13:
 739              		.size	chSchRescheduleS, .-chSchRescheduleS
 740              		.section	.text.chSchDoReschedule,"ax",%progbits
 741              		.align	2
ARM GAS  /tmp/cc0xdMoy.s 			page 14


 742              		.global	chSchDoReschedule
 743              		.type	chSchDoReschedule, %function
 744              	chSchDoReschedule:
 745              	.LFB17:
 746              		.loc 1 355 0
 747              		.cfi_startproc
 748              		@ args = 0, pretend = 0, frame = 0
 749              		@ frame_needed = 0, uses_anonymous_args = 0
 750              		@ link register save eliminated.
 751              		.loc 1 360 0
 752 0000 14309FE5 		ldr	r3, .L73
 753 0004 103093E5 		ldr	r3, [r3, #16]
 754 0008 1230D3E5 		ldrb	r3, [r3, #18]	@ zero_extendqisi2
 755 000c 000053E3 		cmp	r3, #0
 756 0010 0000000A 		beq	.L72
 757              		.loc 1 368 0
 758 0014 FEFFFFEA 		b	chSchDoRescheduleAhead
 759              	.LVL52:
 760              	.L72:
 761              		.loc 1 363 0
 762 0018 FEFFFFEA 		b	chSchDoRescheduleBehind
 763              	.LVL53:
 764              	.L74:
 765              		.align	2
 766              	.L73:
 767 001c 00000000 		.word	rlist
 768              		.cfi_endproc
 769              	.LFE17:
 770              		.size	chSchDoReschedule, .-chSchDoReschedule
 771              		.comm	rlist,20,4
 772              		.text
 773              	.Letext0:
 774              		.file 3 "/usr/include/newlib/machine/_default_types.h"
 775              		.file 4 "/usr/include/newlib/sys/_stdint.h"
 776              		.file 5 "../../../os/ports/GCC/ARM/chtypes.h"
 777              		.file 6 "../../../os/kernel/include/chlists.h"
 778              		.file 7 "../../../os/kernel/include/chthreads.h"
 779              		.file 8 "../../../os/ports/GCC/ARM/chcore.h"
 780              		.file 9 "../../../os/kernel/include/chvt.h"
 781              		.file 10 "../../../os/kernel/include/chschd.h"
 782              		.file 11 "../../../os/kernel/include/chmtx.h"