ARM GAS  /tmp/cc0xdMoy.s 			page 1


   1              		.file	"chschd.c"
   2              		.text
   3              	.Ltext0:
   4              		.cfi_sections	.debug_frame
   5              		.section	.text.wakeup,"ax",%progbits
   6              		.align	2
   7              		.type	wakeup, %function
   8              	wakeup:
   9              	.LFB10:
  10              		.file 1 "../../../os/kernel/src/chschd.c"
  11              		.loc 1 129 0
  12              		.cfi_startproc
  13              		@ args = 0, pretend = 0, frame = 0
  14              		@ frame_needed = 0, uses_anonymous_args = 0
  15              		@ link register save eliminated.
  16              	.LVL0:
  17              		.loc 1 133 0
  18 0000 1030D0E5 		ldrb	r3, [r0, #16]	@ zero_extendqisi2
  19 0004 000053E3 		cmp	r3, #0
  20 0008 1EFF2F01 		bxeq	lr
  21 000c 0D0053E3 		cmp	r3, #13
  22              	.LVL1:
  23              	.LBB31:
  24              	.LBB32:
  25              		.file 2 "../../../os/kernel/include/chinline.h"
  26              		.loc 2 68 0
  27 0010 0C009008 		ldmeqia	r0, {r2, r3}
  28 0014 00208305 		streq	r2, [r3]
  29              		.loc 2 69 0
  30 0018 00209005 		ldreq	r2, [r0]
  31              	.LBE32:
  32              	.LBE31:
  33              	.LBB34:
  34              	.LBB35:
  35              		.loc 1 156 0
  36 001c 00C0E0E3 		mvn	ip, #0
  37              	.LBE35:
  38              	.LBE34:
  39              	.LBB41:
  40              	.LBB33:
  41              		.loc 2 69 0
  42 0020 04308205 		streq	r3, [r2, #4]
  43              	.LVL2:
  44              	.LBE33:
  45              	.LBE41:
  46              	.LBB42:
  47              	.LBB40:
  48              	.LBB36:
  49              	.LBB37:
  50              		.loc 1 85 0
  51 0024 0020A0E3 		mov	r2, #0
  52 0028 081090E5 		ldr	r1, [r0, #8]
  53              		.loc 1 86 0
  54 002c 2C309FE5 		ldr	r3, .L11
  55              	.LBE37:
  56              	.LBE36:
  57              		.loc 1 156 0
ARM GAS  /tmp/cc0xdMoy.s 			page 2


  58 0030 14C080E5 		str	ip, [r0, #20]
  59              	.LVL3:
  60              	.LBB39:
  61              	.LBB38:
  62              		.loc 1 85 0
  63 0034 1020C0E5 		strb	r2, [r0, #16]
  64              	.LVL4:
  65              	.L5:
  66              		.loc 1 88 0
  67 0038 003093E5 		ldr	r3, [r3]
  68              	.LVL5:
  69              		.loc 1 89 0
  70 003c 082093E5 		ldr	r2, [r3, #8]
  71 0040 010052E1 		cmp	r2, r1
  72 0044 FBFFFF2A 		bcs	.L5
  73              		.loc 1 92 0
  74 0048 042093E5 		ldr	r2, [r3, #4]
  75              		.loc 1 91 0
  76 004c 003080E5 		str	r3, [r0]
  77              		.loc 1 92 0
  78 0050 042080E5 		str	r2, [r0, #4]
  79              		.loc 1 93 0
  80 0054 040083E5 		str	r0, [r3, #4]
  81 0058 000082E5 		str	r0, [r2]
  82 005c 1EFF2FE1 		bx	lr
  83              	.L12:
  84              		.align	2
  85              	.L11:
  86 0060 00000000 		.word	rlist
  87              	.LBE38:
  88              	.LBE39:
  89              	.LBE40:
  90              	.LBE42:
  91              		.cfi_endproc
  92              	.LFE10:
  93              		.size	wakeup, .-wakeup
  94              		.section	.text._scheduler_init,"ax",%progbits
  95              		.align	2
  96              		.global	_scheduler_init
  97              		.type	_scheduler_init, %function
  98              	_scheduler_init:
  99              	.LFB7:
 100              		.loc 1 48 0
 101              		.cfi_startproc
 102              		@ args = 0, pretend = 0, frame = 0
 103              		@ frame_needed = 0, uses_anonymous_args = 0
 104              		@ link register save eliminated.
 105              		.loc 1 51 0
 106 0000 0020A0E3 		mov	r2, #0
 107              		.loc 1 50 0
 108 0004 0C309FE5 		ldr	r3, .L14
 109              		.loc 1 51 0
 110 0008 082083E5 		str	r2, [r3, #8]
 111              		.loc 1 50 0
 112 000c 043083E5 		str	r3, [r3, #4]
 113 0010 003083E5 		str	r3, [r3]
 114 0014 1EFF2FE1 		bx	lr
ARM GAS  /tmp/cc0xdMoy.s 			page 3


 115              	.L15:
 116              		.align	2
 117              	.L14:
 118 0018 00000000 		.word	rlist
 119              		.cfi_endproc
 120              	.LFE7:
 121              		.size	_scheduler_init, .-_scheduler_init
 122              		.section	.text.chSchReadyI,"ax",%progbits
 123              		.align	2
 124              		.global	chSchReadyI
 125              		.type	chSchReadyI, %function
 126              	chSchReadyI:
 127              	.LFB8:
 128              		.loc 1 74 0
 129              		.cfi_startproc
 130              		@ args = 0, pretend = 0, frame = 0
 131              		@ frame_needed = 0, uses_anonymous_args = 0
 132              		@ link register save eliminated.
 133              	.LVL6:
 134              		.loc 1 85 0
 135 0000 0020A0E3 		mov	r2, #0
 136              		.loc 1 74 0
 137 0004 00C0A0E1 		mov	ip, r0
 138 0008 081090E5 		ldr	r1, [r0, #8]
 139              		.loc 1 86 0
 140 000c 2C309FE5 		ldr	r3, .L19
 141              		.loc 1 85 0
 142 0010 1020C0E5 		strb	r2, [r0, #16]
 143              	.LVL7:
 144              	.L17:
 145              		.loc 1 88 0 discriminator 1
 146 0014 003093E5 		ldr	r3, [r3]
 147              	.LVL8:
 148              		.loc 1 89 0 discriminator 1
 149 0018 082093E5 		ldr	r2, [r3, #8]
 150 001c 010052E1 		cmp	r2, r1
 151 0020 FBFFFF2A 		bcs	.L17
 152              		.loc 1 92 0
 153 0024 042093E5 		ldr	r2, [r3, #4]
 154              		.loc 1 95 0
 155 0028 0C00A0E1 		mov	r0, ip
 156              	.LVL9:
 157              		.loc 1 91 0
 158 002c 00308CE5 		str	r3, [ip]
 159              		.loc 1 92 0
 160 0030 04208CE5 		str	r2, [ip, #4]
 161              		.loc 1 93 0
 162 0034 04C083E5 		str	ip, [r3, #4]
 163 0038 00C082E5 		str	ip, [r2]
 164              		.loc 1 95 0
 165 003c 1EFF2FE1 		bx	lr
 166              	.L20:
 167              		.align	2
 168              	.L19:
 169 0040 00000000 		.word	rlist
 170              		.cfi_endproc
 171              	.LFE8:
ARM GAS  /tmp/cc0xdMoy.s 			page 4


 172              		.size	chSchReadyI, .-chSchReadyI
 173              		.section	.text.chSchGoSleepS,"ax",%progbits
 174              		.align	2
 175              		.global	chSchGoSleepS
 176              		.type	chSchGoSleepS, %function
 177              	chSchGoSleepS:
 178              	.LFB9:
 179              		.loc 1 108 0
 180              		.cfi_startproc
 181              		@ args = 0, pretend = 0, frame = 0
 182              		@ frame_needed = 0, uses_anonymous_args = 0
 183              	.LVL10:
 184 0000 10402DE9 		stmfd	sp!, {r4, lr}
 185              		.cfi_def_cfa_offset 8
 186              		.cfi_offset 4, -8
 187              		.cfi_offset 14, -4
 188              		.loc 1 117 0
 189 0004 1440A0E3 		mov	r4, #20
 190              		.loc 1 120 0
 191 0008 01E0A0E3 		mov	lr, #1
 192              		.loc 1 113 0
 193 000c 2C309FE5 		ldr	r3, .L23
 194              	.LBB43:
 195              	.LBB44:
 196              		.loc 2 53 0
 197 0010 002093E5 		ldr	r2, [r3]
 198              	.LBE44:
 199              	.LBE43:
 200              		.loc 1 113 0
 201 0014 101093E5 		ldr	r1, [r3, #16]
 202              	.LVL11:
 203              	.LBB48:
 204              	.LBB45:
 205              		.loc 2 55 0
 206 0018 00C092E5 		ldr	ip, [r2]
 207              	.LBE45:
 208              	.LBE48:
 209              		.loc 1 113 0
 210 001c 1000C1E5 		strb	r0, [r1, #16]
 211              		.loc 1 117 0
 212 0020 1240C1E5 		strb	r4, [r1, #18]
 213              	.LVL12:
 214              	.LBB49:
 215              	.LBB46:
 216              		.loc 2 55 0
 217 0024 04308CE5 		str	r3, [ip, #4]
 218              	.LBE46:
 219              	.LBE49:
 220              		.loc 1 119 0
 221 0028 102083E5 		str	r2, [r3, #16]
 222              		.loc 1 120 0
 223 002c 10E0C2E5 		strb	lr, [r2, #16]
 224              		.loc 1 121 0
 225 0030 0200A0E1 		mov	r0, r2
 226              	.LVL13:
 227              		.loc 1 122 0
 228 0034 1040BDE8 		ldmfd	sp!, {r4, lr}
ARM GAS  /tmp/cc0xdMoy.s 			page 5


 229              		.cfi_restore 14
 230              		.cfi_restore 4
 231              		.cfi_def_cfa_offset 0
 232              	.LBB50:
 233              	.LBB47:
 234              		.loc 2 55 0
 235 0038 00C083E5 		str	ip, [r3]
 236              	.LBE47:
 237              	.LBE50:
 238              		.loc 1 121 0
 239 003c FEFFFFEA 		b	_port_switch_arm
 240              	.LVL14:
 241              	.L24:
 242              		.align	2
 243              	.L23:
 244 0040 00000000 		.word	rlist
 245              		.cfi_endproc
 246              	.LFE9:
 247              		.size	chSchGoSleepS, .-chSchGoSleepS
 248              		.section	.text.chSchGoSleepTimeoutS,"ax",%progbits
 249              		.align	2
 250              		.global	chSchGoSleepTimeoutS
 251              		.type	chSchGoSleepTimeoutS, %function
 252              	chSchGoSleepTimeoutS:
 253              	.LFB11:
 254              		.loc 1 182 0
 255              		.cfi_startproc
 256              		@ args = 0, pretend = 0, frame = 20
 257              		@ frame_needed = 0, uses_anonymous_args = 0
 258              	.LVL15:
 259 0000 30402DE9 		stmfd	sp!, {r4, r5, lr}
 260              		.cfi_def_cfa_offset 12
 261              		.cfi_offset 4, -12
 262              		.cfi_offset 5, -8
 263              		.cfi_offset 14, -4
 264              		.loc 1 186 0
 265 0004 010071E3 		cmn	r1, #1
 266              		.loc 1 182 0
 267 0008 14D04DE2 		sub	sp, sp, #20
 268              		.cfi_def_cfa_offset 32
 269              		.loc 1 182 0
 270 000c 7050EFE6 		uxtb	r5, r0
 271              		.loc 1 186 0
 272 0010 0F00000A 		beq	.L26
 273              	.LBB51:
 274              		.loc 1 189 0
 275 0014 54409FE5 		ldr	r4, .L33
 276 0018 0D00A0E1 		mov	r0, sp
 277              	.LVL16:
 278 001c 103094E5 		ldr	r3, [r4, #16]
 279 0020 4C209FE5 		ldr	r2, .L33+4
 280 0024 FEFFFFEB 		bl	chVTSetI
 281              	.LVL17:
 282              		.loc 1 190 0
 283 0028 0500A0E1 		mov	r0, r5
 284 002c FEFFFFEB 		bl	chSchGoSleepS
 285              	.LVL18:
ARM GAS  /tmp/cc0xdMoy.s 			page 6


 286              		.loc 1 191 0
 287 0030 0C309DE5 		ldr	r3, [sp, #12]
 288 0034 000053E3 		cmp	r3, #0
 289 0038 0100000A 		beq	.L28
 290              		.loc 1 192 0
 291 003c 0D00A0E1 		mov	r0, sp
 292 0040 FEFFFFEB 		bl	chVTResetI
 293              	.LVL19:
 294              	.L28:
 295              	.LBE51:
 296              		.loc 1 196 0
 297 0044 103094E5 		ldr	r3, [r4, #16]
 298              		.loc 1 197 0
 299 0048 140093E5 		ldr	r0, [r3, #20]
 300 004c 14D08DE2 		add	sp, sp, #20
 301              		.cfi_remember_state
 302              		.cfi_def_cfa_offset 12
 303              		@ sp needed
 304 0050 3080BDE8 		ldmfd	sp!, {r4, r5, pc}
 305              	.LVL20:
 306              	.L26:
 307              		.cfi_restore_state
 308              		.loc 1 195 0
 309 0054 0500A0E1 		mov	r0, r5
 310              	.LVL21:
 311 0058 FEFFFFEB 		bl	chSchGoSleepS
 312              	.LVL22:
 313 005c 0C409FE5 		ldr	r4, .L33
 314              		.loc 1 196 0
 315 0060 103094E5 		ldr	r3, [r4, #16]
 316              		.loc 1 197 0
 317 0064 140093E5 		ldr	r0, [r3, #20]
 318 0068 14D08DE2 		add	sp, sp, #20
 319              		.cfi_def_cfa_offset 12
 320              		@ sp needed
 321 006c 3080BDE8 		ldmfd	sp!, {r4, r5, pc}
 322              	.LVL23:
 323              	.L34:
 324              		.align	2
 325              	.L33:
 326 0070 00000000 		.word	rlist
 327 0074 00000000 		.word	wakeup
 328              		.cfi_endproc
 329              	.LFE11:
 330              		.size	chSchGoSleepTimeoutS, .-chSchGoSleepTimeoutS
 331              		.section	.text.chSchWakeupS,"ax",%progbits
 332              		.align	2
 333              		.global	chSchWakeupS
 334              		.type	chSchWakeupS, %function
 335              	chSchWakeupS:
 336              	.LFB12:
 337              		.loc 1 218 0
 338              		.cfi_startproc
 339              		@ args = 0, pretend = 0, frame = 0
 340              		@ frame_needed = 0, uses_anonymous_args = 0
 341              	.LVL24:
 342              		.loc 1 227 0
ARM GAS  /tmp/cc0xdMoy.s 			page 7


 343 0000 94309FE5 		ldr	r3, .L44
 344              		.loc 1 218 0
 345 0004 30402DE9 		stmfd	sp!, {r4, r5, lr}
 346              		.cfi_def_cfa_offset 12
 347              		.cfi_offset 4, -12
 348              		.cfi_offset 5, -8
 349              		.cfi_offset 14, -4
 350              		.loc 1 227 0
 351 0008 104093E5 		ldr	r4, [r3, #16]
 352 000c 08C090E5 		ldr	ip, [r0, #8]
 353              		.loc 1 218 0
 354 0010 00E0A0E1 		mov	lr, r0
 355              		.loc 1 222 0
 356 0014 141080E5 		str	r1, [r0, #20]
 357              		.loc 1 227 0
 358 0018 080094E5 		ldr	r0, [r4, #8]
 359              	.LVL25:
 360 001c 00005CE1 		cmp	ip, r0
 361 0020 0B00008A 		bhi	.L36
 362              	.LVL26:
 363              	.LBB52:
 364              	.LBB53:
 365              		.loc 1 85 0
 366 0024 0020A0E3 		mov	r2, #0
 367 0028 1020CEE5 		strb	r2, [lr, #16]
 368              	.LVL27:
 369              	.L37:
 370              		.loc 1 88 0
 371 002c 003093E5 		ldr	r3, [r3]
 372              	.LVL28:
 373              		.loc 1 89 0
 374 0030 082093E5 		ldr	r2, [r3, #8]
 375 0034 02005CE1 		cmp	ip, r2
 376 0038 FBFFFF9A 		bls	.L37
 377              		.loc 1 92 0
 378 003c 042093E5 		ldr	r2, [r3, #4]
 379              		.loc 1 91 0
 380 0040 00308EE5 		str	r3, [lr]
 381              		.loc 1 92 0
 382 0044 04208EE5 		str	r2, [lr, #4]
 383              		.loc 1 93 0
 384 0048 04E083E5 		str	lr, [r3, #4]
 385 004c 00E082E5 		str	lr, [r2]
 386 0050 3080BDE8 		ldmfd	sp!, {r4, r5, pc}
 387              	.LVL29:
 388              	.L36:
 389              	.LBE53:
 390              	.LBE52:
 391              	.LBB54:
 392              	.LBB55:
 393              	.LBB56:
 394              		.loc 1 85 0
 395 0054 0010A0E3 		mov	r1, #0
 396              	.LVL30:
 397              		.loc 1 86 0
 398 0058 0320A0E1 		mov	r2, r3
 399              		.loc 1 85 0
ARM GAS  /tmp/cc0xdMoy.s 			page 8


 400 005c 1010C4E5 		strb	r1, [r4, #16]
 401              	.LVL31:
 402              	.L39:
 403              		.loc 1 88 0
 404 0060 002092E5 		ldr	r2, [r2]
 405              	.LVL32:
 406              		.loc 1 89 0
 407 0064 081092E5 		ldr	r1, [r2, #8]
 408 0068 010050E1 		cmp	r0, r1
 409 006c FBFFFF9A 		bls	.L39
 410              	.LBE56:
 411              	.LBE55:
 412              		.loc 1 232 0
 413 0070 0150A0E3 		mov	r5, #1
 414              	.LBB59:
 415              	.LBB57:
 416              		.loc 1 92 0
 417 0074 04C092E5 		ldr	ip, [r2, #4]
 418              	.LBE57:
 419              	.LBE59:
 420              		.loc 1 233 0
 421 0078 0410A0E1 		mov	r1, r4
 422              	.LBB60:
 423              	.LBB58:
 424              		.loc 1 92 0
 425 007c 041084E8 		stmia	r4, {r2, ip}
 426              		.loc 1 93 0
 427 0080 044082E5 		str	r4, [r2, #4]
 428 0084 00408CE5 		str	r4, [ip]
 429              	.LBE58:
 430              	.LBE60:
 431              		.loc 1 231 0
 432 0088 10E083E5 		str	lr, [r3, #16]
 433              		.loc 1 232 0
 434 008c 1050CEE5 		strb	r5, [lr, #16]
 435              		.loc 1 233 0
 436 0090 0E00A0E1 		mov	r0, lr
 437              	.LBE54:
 438              		.loc 1 235 0
 439 0094 3040BDE8 		ldmfd	sp!, {r4, r5, lr}
 440              		.cfi_restore 14
 441              		.cfi_restore 5
 442              		.cfi_restore 4
 443              		.cfi_def_cfa_offset 0
 444              	.LVL33:
 445              	.LBB61:
 446              		.loc 1 233 0
 447 0098 FEFFFFEA 		b	_port_switch_arm
 448              	.LVL34:
 449              	.L45:
 450              		.align	2
 451              	.L44:
 452 009c 00000000 		.word	rlist
 453              	.LBE61:
 454              		.cfi_endproc
 455              	.LFE12:
 456              		.size	chSchWakeupS, .-chSchWakeupS
ARM GAS  /tmp/cc0xdMoy.s 			page 9


 457              		.section	.text.chSchIsPreemptionRequired,"ax",%progbits
 458              		.align	2
 459              		.global	chSchIsPreemptionRequired
 460              		.type	chSchIsPreemptionRequired, %function
 461              	chSchIsPreemptionRequired:
 462              	.LFB14:
 463              		.loc 1 269 0
 464              		.cfi_startproc
 465              		@ args = 0, pretend = 0, frame = 0
 466              		@ frame_needed = 0, uses_anonymous_args = 0
 467              		@ link register save eliminated.
 468              		.loc 1 270 0
 469 0000 38309FE5 		ldr	r3, .L50
 470              		.loc 1 271 0
 471 0004 102093E5 		ldr	r2, [r3, #16]
 472              		.loc 1 270 0
 473 0008 003093E5 		ldr	r3, [r3]
 474              		.loc 1 277 0
 475 000c 1210D2E5 		ldrb	r1, [r2, #18]	@ zero_extendqisi2
 476              		.loc 1 270 0
 477 0010 083093E5 		ldr	r3, [r3, #8]
 478              	.LVL35:
 479              		.loc 1 277 0
 480 0014 000051E3 		cmp	r1, #0
 481              		.loc 1 271 0
 482 0018 080092E5 		ldr	r0, [r2, #8]
 483              	.LVL36:
 484              		.loc 1 277 0
 485 001c 0300001A 		bne	.L49
 486              		.loc 1 277 0 is_stmt 0 discriminator 2
 487 0020 000053E1 		cmp	r3, r0
 488 0024 0000A033 		movcc	r0, #0
 489              	.LVL37:
 490 0028 0100A023 		movcs	r0, #1
 491              		.loc 1 283 0 is_stmt 1 discriminator 2
 492 002c 1EFF2FE1 		bx	lr
 493              	.LVL38:
 494              	.L49:
 495              		.loc 1 277 0 discriminator 1
 496 0030 000053E1 		cmp	r3, r0
 497 0034 0000A093 		movls	r0, #0
 498              	.LVL39:
 499 0038 0100A083 		movhi	r0, #1
 500 003c 1EFF2FE1 		bx	lr
 501              	.L51:
 502              		.align	2
 503              	.L50:
 504 0040 00000000 		.word	rlist
 505              		.cfi_endproc
 506              	.LFE14:
 507              		.size	chSchIsPreemptionRequired, .-chSchIsPreemptionRequired
 508              		.section	.text.chSchDoRescheduleBehind,"ax",%progbits
 509              		.align	2
 510              		.global	chSchDoRescheduleBehind
 511              		.type	chSchDoRescheduleBehind, %function
 512              	chSchDoRescheduleBehind:
 513              	.LFB15:
ARM GAS  /tmp/cc0xdMoy.s 			page 10


 514              		.loc 1 297 0
 515              		.cfi_startproc
 516              		@ args = 0, pretend = 0, frame = 0
 517              		@ frame_needed = 0, uses_anonymous_args = 0
 518 0000 70402DE9 		stmfd	sp!, {r4, r5, r6, lr}
 519              		.cfi_def_cfa_offset 16
 520              		.cfi_offset 4, -16
 521              		.cfi_offset 5, -12
 522              		.cfi_offset 6, -8
 523              		.cfi_offset 14, -4
 524              		.loc 1 303 0
 525 0004 0160A0E3 		mov	r6, #1
 526              		.loc 1 305 0
 527 0008 1450A0E3 		mov	r5, #20
 528              	.LBB62:
 529              	.LBB63:
 530              		.loc 1 85 0
 531 000c 0040A0E3 		mov	r4, #0
 532              	.LBE63:
 533              	.LBE62:
 534              		.loc 1 300 0
 535 0010 5C209FE5 		ldr	r2, .L57
 536              	.LBB67:
 537              	.LBB68:
 538              		.loc 2 53 0
 539 0014 000092E5 		ldr	r0, [r2]
 540              	.LBE68:
 541              	.LBE67:
 542              		.loc 1 300 0
 543 0018 10C092E5 		ldr	ip, [r2, #16]
 544              	.LVL40:
 545              	.LBB71:
 546              	.LBB69:
 547              		.loc 2 55 0
 548 001c 00E090E5 		ldr	lr, [r0]
 549 0020 08109CE5 		ldr	r1, [ip, #8]
 550              	.LBE69:
 551              	.LBE71:
 552              	.LBB72:
 553              	.LBB64:
 554              		.loc 1 85 0
 555 0024 0030A0E1 		mov	r3, r0
 556              	.LBE64:
 557              	.LBE72:
 558              	.LBB73:
 559              	.LBB70:
 560              		.loc 2 55 0
 561 0028 04208EE5 		str	r2, [lr, #4]
 562 002c 00E082E5 		str	lr, [r2]
 563              	.LBE70:
 564              	.LBE73:
 565              		.loc 1 302 0
 566 0030 100082E5 		str	r0, [r2, #16]
 567              		.loc 1 303 0
 568 0034 1060C0E5 		strb	r6, [r0, #16]
 569              		.loc 1 305 0
 570 0038 1250CCE5 		strb	r5, [ip, #18]
ARM GAS  /tmp/cc0xdMoy.s 			page 11


 571              	.LVL41:
 572              	.LBB74:
 573              	.LBB65:
 574              		.loc 1 85 0
 575 003c 1040CCE5 		strb	r4, [ip, #16]
 576              	.LVL42:
 577 0040 000000EA 		b	.L54
 578              	.LVL43:
 579              	.L56:
 580 0044 003093E5 		ldr	r3, [r3]
 581              	.LVL44:
 582              	.L54:
 583              		.loc 1 89 0
 584 0048 082093E5 		ldr	r2, [r3, #8]
 585 004c 010052E1 		cmp	r2, r1
 586 0050 FBFFFF2A 		bcs	.L56
 587              		.loc 1 92 0
 588 0054 042093E5 		ldr	r2, [r3, #4]
 589              	.LBE65:
 590              	.LBE74:
 591              		.loc 1 308 0
 592 0058 0C10A0E1 		mov	r1, ip
 593              		.loc 1 309 0
 594 005c 7040BDE8 		ldmfd	sp!, {r4, r5, r6, lr}
 595              		.cfi_restore 14
 596              		.cfi_restore 6
 597              		.cfi_restore 5
 598              		.cfi_restore 4
 599              		.cfi_def_cfa_offset 0
 600              	.LBB75:
 601              	.LBB66:
 602              		.loc 1 91 0
 603 0060 00308CE5 		str	r3, [ip]
 604              		.loc 1 92 0
 605 0064 04208CE5 		str	r2, [ip, #4]
 606              		.loc 1 93 0
 607 0068 04C083E5 		str	ip, [r3, #4]
 608 006c 00C082E5 		str	ip, [r2]
 609              	.LBE66:
 610              	.LBE75:
 611              		.loc 1 308 0
 612 0070 FEFFFFEA 		b	_port_switch_arm
 613              	.LVL45:
 614              	.L58:
 615              		.align	2
 616              	.L57:
 617 0074 00000000 		.word	rlist
 618              		.cfi_endproc
 619              	.LFE15:
 620              		.size	chSchDoRescheduleBehind, .-chSchDoRescheduleBehind
 621              		.section	.text.chSchDoRescheduleAhead,"ax",%progbits
 622              		.align	2
 623              		.global	chSchDoRescheduleAhead
 624              		.type	chSchDoRescheduleAhead, %function
 625              	chSchDoRescheduleAhead:
 626              	.LFB16:
 627              		.loc 1 322 0
ARM GAS  /tmp/cc0xdMoy.s 			page 12


 628              		.cfi_startproc
 629              		@ args = 0, pretend = 0, frame = 0
 630              		@ frame_needed = 0, uses_anonymous_args = 0
 631 0000 30402DE9 		stmfd	sp!, {r4, r5, lr}
 632              		.cfi_def_cfa_offset 12
 633              		.cfi_offset 4, -12
 634              		.cfi_offset 5, -8
 635              		.cfi_offset 14, -4
 636              		.loc 1 328 0
 637 0004 0150A0E3 		mov	r5, #1
 638              		.loc 1 330 0
 639 0008 0040A0E3 		mov	r4, #0
 640              		.loc 1 325 0
 641 000c 58209FE5 		ldr	r2, .L64
 642              	.LBB76:
 643              	.LBB77:
 644              		.loc 2 53 0
 645 0010 000092E5 		ldr	r0, [r2]
 646              	.LBE77:
 647              	.LBE76:
 648              		.loc 1 325 0
 649 0014 10C092E5 		ldr	ip, [r2, #16]
 650              	.LVL46:
 651              	.LBB80:
 652              	.LBB78:
 653              		.loc 2 55 0
 654 0018 00E090E5 		ldr	lr, [r0]
 655 001c 08109CE5 		ldr	r1, [ip, #8]
 656              	.LBE78:
 657              	.LBE80:
 658              		.loc 1 330 0
 659 0020 0030A0E1 		mov	r3, r0
 660              	.LBB81:
 661              	.LBB79:
 662              		.loc 2 55 0
 663 0024 04208EE5 		str	r2, [lr, #4]
 664 0028 00E082E5 		str	lr, [r2]
 665              	.LBE79:
 666              	.LBE81:
 667              		.loc 1 327 0
 668 002c 100082E5 		str	r0, [r2, #16]
 669              		.loc 1 328 0
 670 0030 1050C0E5 		strb	r5, [r0, #16]
 671              		.loc 1 330 0
 672 0034 1040CCE5 		strb	r4, [ip, #16]
 673              	.LVL47:
 674 0038 000000EA 		b	.L61
 675              	.LVL48:
 676              	.L63:
 677 003c 003093E5 		ldr	r3, [r3]
 678              	.LVL49:
 679              	.L61:
 680              		.loc 1 334 0 discriminator 1
 681 0040 082093E5 		ldr	r2, [r3, #8]
 682 0044 010052E1 		cmp	r2, r1
 683 0048 FBFFFF8A 		bhi	.L63
 684              		.loc 1 337 0
ARM GAS  /tmp/cc0xdMoy.s 			page 13


 685 004c 042093E5 		ldr	r2, [r3, #4]
 686              		.loc 1 340 0
 687 0050 0C10A0E1 		mov	r1, ip
 688              		.loc 1 341 0
 689 0054 3040BDE8 		ldmfd	sp!, {r4, r5, lr}
 690              		.cfi_restore 14
 691              		.cfi_restore 5
 692              		.cfi_restore 4
 693              		.cfi_def_cfa_offset 0
 694              		.loc 1 336 0
 695 0058 00308CE5 		str	r3, [ip]
 696              		.loc 1 337 0
 697 005c 04208CE5 		str	r2, [ip, #4]
 698              		.loc 1 338 0
 699 0060 04C083E5 		str	ip, [r3, #4]
 700 0064 00C082E5 		str	ip, [r2]
 701              		.loc 1 340 0
 702 0068 FEFFFFEA 		b	_port_switch_arm
 703              	.LVL50:
 704              	.L65:
 705              		.align	2
 706              	.L64:
 707 006c 00000000 		.word	rlist
 708              		.cfi_endproc
 709              	.LFE16:
 710              		.size	chSchDoRescheduleAhead, .-chSchDoRescheduleAhead
 711              		.section	.text.chSchRescheduleS,"ax",%progbits
 712              		.align	2
 713              		.global	chSchRescheduleS
 714              		.type	chSchRescheduleS, %function
 715              	chSchRescheduleS:
 716              	.LFB13:
 717              		.loc 1 246 0
 718              		.cfi_startproc
 719              		@ args = 0, pretend = 0, frame = 0
 720              		@ frame_needed = 0, uses_anonymous_args = 0
 721              		@ link register save eliminated.
 722              		.loc 1 250 0
 723 0000 18309FE5 		ldr	r3, .L68
 724 0004 002093E5 		ldr	r2, [r3]
 725 0008 103093E5 		ldr	r3, [r3, #16]
 726 000c 082092E5 		ldr	r2, [r2, #8]
 727 0010 083093E5 		ldr	r3, [r3, #8]
 728 0014 030052E1 		cmp	r2, r3
 729 0018 1EFF2F91 		bxls	lr
 730              		.loc 1 251 0
 731 001c FEFFFFEA 		b	chSchDoRescheduleAhead
 732              	.LVL51:
 733              	.L69:
 734              		.align	2
 735              	.L68:
 736 0020 00000000 		.word	rlist
 737              		.cfi_endproc
 738              	.LFE13:
 739              		.size	chSchRescheduleS, .-chSchRescheduleS
 740              		.section	.text.chSchDoReschedule,"ax",%progbits
 741              		.align	2
ARM GAS  /tmp/cc0xdMoy.s 			page 14


 742              		.global	chSchDoReschedule
 743              		.type	chSchDoReschedule, %function
 744              	chSchDoReschedule:
 745              	.LFB17:
 746              		.loc 1 355 0
 747              		.cfi_startproc
 748              		@ args = 0, pretend = 0, frame = 0
 749              		@ frame_needed = 0, uses_anonymous_args = 0
 750              		@ link register save eliminated.
 751              		.loc 1 360 0
 752 0000 14309FE5 		ldr	r3, .L73
 753 0004 103093E5 		ldr	r3, [r3, #16]
 754 0008 1230D3E5 		ldrb	r3, [r3, #18]	@ zero_extendqisi2
 755 000c 000053E3 		cmp	r3, #0
 756 0010 0000000A 		beq	.L72
 757              		.loc 1 368 0
 758 0014 FEFFFFEA 		b	chSchDoRescheduleAhead
 759              	.LVL52:
 760              	.L72:
 761              		.loc 1 363 0
 762 0018 FEFFFFEA 		b	chSchDoRescheduleBehind
 763              	.LVL53:
 764              	.L74:
 765              		.align	2
 766              	.L73:
 767 001c 00000000 		.word	rlist
 768              		.cfi_endproc
 769              	.LFE17:
 770              		.size	chSchDoReschedule, .-chSchDoReschedule
 771              		.comm	rlist,20,4
 772              		.text
 773              	.Letext0:
 774              		.file 3 "/usr/include/newlib/machine/_default_types.h"
 775              		.file 4 "/usr/include/newlib/sys/_stdint.h"
 776              		.file 5 "../../../os/ports/GCC/ARM/chtypes.h"
 777              		.file 6 "../../../os/kernel/include/chlists.h"
 778              		.file 7 "../../../os/kernel/include/chthreads.h"
 779              		.file 8 "../../../os/ports/GCC/ARM/chcore.h"
 780              		.file 9 "../../../os/kernel/include/chvt.h"
 781              		.file 10 "../../../os/kernel/include/chschd.h"
 782              		.file 11 "../../../os/kernel/include/chmtx.h"
 783              		.section	.debug_info,"",%progbits
 784              	.Ldebug_info0:
 785 0000 A4080000 		.4byte	0x8a4
 786 0004 0400     		.2byte	0x4
 787 0006 00000000 		.4byte	.Ldebug_abbrev0
 788 000a 04       		.byte	0x4
 789 000b 01       		.uleb128 0x1
 790 000c E7010000 		.4byte	.LASF74
 791 0010 01       		.byte	0x1
 792 0011 C8000000 		.4byte	.LASF75
 793 0015 00000000 		.4byte	.LASF76
 794 0019 10010000 		.4byte	.Ldebug_ranges0+0x110
 795 001d 00000000 		.4byte	0
 796 0021 00000000 		.4byte	.Ldebug_line0
 797 0025 02       		.uleb128 0x2
 798 0026 04       		.byte	0x4
ARM GAS  /tmp/cc0xdMoy.s 			page 15


 799 0027 05       		.byte	0x5
 800 0028 E8000000 		.4byte	.LASF0
 801 002c 02       		.uleb128 0x2
 802 002d 04       		.byte	0x4
 803 002e 07       		.byte	0x7
 804 002f 80010000 		.4byte	.LASF1
 805 0033 02       		.uleb128 0x2
 806 0034 01       		.byte	0x1
 807 0035 06       		.byte	0x6
 808 0036 AD000000 		.4byte	.LASF2
 809 003a 03       		.uleb128 0x3
 810 003b 5E000000 		.4byte	.LASF6
 811 003f 03       		.byte	0x3
 812 0040 1D       		.byte	0x1d
 813 0041 45000000 		.4byte	0x45
 814 0045 02       		.uleb128 0x2
 815 0046 01       		.byte	0x1
 816 0047 08       		.byte	0x8
 817 0048 FB020000 		.4byte	.LASF3
 818 004c 02       		.uleb128 0x2
 819 004d 02       		.byte	0x2
 820 004e 05       		.byte	0x5
 821 004f 1C030000 		.4byte	.LASF4
 822 0053 02       		.uleb128 0x2
 823 0054 02       		.byte	0x2
 824 0055 07       		.byte	0x7
 825 0056 9B010000 		.4byte	.LASF5
 826 005a 03       		.uleb128 0x3
 827 005b D0030000 		.4byte	.LASF7
 828 005f 03       		.byte	0x3
 829 0060 3F       		.byte	0x3f
 830 0061 25000000 		.4byte	0x25
 831 0065 03       		.uleb128 0x3
 832 0066 25010000 		.4byte	.LASF8
 833 006a 03       		.byte	0x3
 834 006b 41       		.byte	0x41
 835 006c 2C000000 		.4byte	0x2c
 836 0070 02       		.uleb128 0x2
 837 0071 08       		.byte	0x8
 838 0072 05       		.byte	0x5
 839 0073 9F000000 		.4byte	.LASF9
 840 0077 02       		.uleb128 0x2
 841 0078 08       		.byte	0x8
 842 0079 07       		.byte	0x7
 843 007a 68000000 		.4byte	.LASF10
 844 007e 03       		.uleb128 0x3
 845 007f 05040000 		.4byte	.LASF11
 846 0083 04       		.byte	0x4
 847 0084 14       		.byte	0x14
 848 0085 3A000000 		.4byte	0x3a
 849 0089 03       		.uleb128 0x3
 850 008a F3020000 		.4byte	.LASF12
 851 008e 04       		.byte	0x4
 852 008f 1F       		.byte	0x1f
 853 0090 5A000000 		.4byte	0x5a
 854 0094 03       		.uleb128 0x3
 855 0095 80030000 		.4byte	.LASF13
ARM GAS  /tmp/cc0xdMoy.s 			page 16


 856 0099 04       		.byte	0x4
 857 009a 20       		.byte	0x20
 858 009b 65000000 		.4byte	0x65
 859 009f 04       		.uleb128 0x4
 860 00a0 04       		.byte	0x4
 861 00a1 05       		.byte	0x5
 862 00a2 696E7400 		.ascii	"int\000"
 863 00a6 02       		.uleb128 0x2
 864 00a7 04       		.byte	0x4
 865 00a8 07       		.byte	0x7
 866 00a9 53010000 		.4byte	.LASF14
 867 00ad 03       		.uleb128 0x3
 868 00ae B9000000 		.4byte	.LASF15
 869 00b2 05       		.byte	0x5
 870 00b3 29       		.byte	0x29
 871 00b4 89000000 		.4byte	0x89
 872 00b8 03       		.uleb128 0x3
 873 00b9 C1010000 		.4byte	.LASF16
 874 00bd 05       		.byte	0x5
 875 00be 2A       		.byte	0x2a
 876 00bf 7E000000 		.4byte	0x7e
 877 00c3 03       		.uleb128 0x3
 878 00c4 F1000000 		.4byte	.LASF17
 879 00c8 05       		.byte	0x5
 880 00c9 2B       		.byte	0x2b
 881 00ca 7E000000 		.4byte	0x7e
 882 00ce 03       		.uleb128 0x3
 883 00cf 9E030000 		.4byte	.LASF18
 884 00d3 05       		.byte	0x5
 885 00d4 2D       		.byte	0x2d
 886 00d5 7E000000 		.4byte	0x7e
 887 00d9 03       		.uleb128 0x3
 888 00da EB020000 		.4byte	.LASF19
 889 00de 05       		.byte	0x5
 890 00df 2E       		.byte	0x2e
 891 00e0 94000000 		.4byte	0x94
 892 00e4 03       		.uleb128 0x3
 893 00e5 BB010000 		.4byte	.LASF20
 894 00e9 05       		.byte	0x5
 895 00ea 2F       		.byte	0x2f
 896 00eb 89000000 		.4byte	0x89
 897 00ef 03       		.uleb128 0x3
 898 00f0 D5010000 		.4byte	.LASF21
 899 00f4 05       		.byte	0x5
 900 00f5 31       		.byte	0x31
 901 00f6 94000000 		.4byte	0x94
 902 00fa 03       		.uleb128 0x3
 903 00fb BB030000 		.4byte	.LASF22
 904 00ff 05       		.byte	0x5
 905 0100 33       		.byte	0x33
 906 0101 94000000 		.4byte	0x94
 907 0105 03       		.uleb128 0x3
 908 0106 55030000 		.4byte	.LASF23
 909 010a 06       		.byte	0x6
 910 010b 23       		.byte	0x23
 911 010c 10010000 		.4byte	0x110
 912 0110 05       		.uleb128 0x5
ARM GAS  /tmp/cc0xdMoy.s 			page 17


 913 0111 55030000 		.4byte	.LASF23
 914 0115 28       		.byte	0x28
 915 0116 07       		.byte	0x7
 916 0117 57       		.byte	0x57
 917 0118 AD010000 		.4byte	0x1ad
 918 011c 06       		.uleb128 0x6
 919 011d 46030000 		.4byte	.LASF24
 920 0121 07       		.byte	0x7
 921 0122 58       		.byte	0x58
 922 0123 CE010000 		.4byte	0x1ce
 923 0127 00       		.byte	0
 924 0128 06       		.uleb128 0x6
 925 0129 E4020000 		.4byte	.LASF25
 926 012d 07       		.byte	0x7
 927 012e 5A       		.byte	0x5a
 928 012f CE010000 		.4byte	0x1ce
 929 0133 04       		.byte	0x4
 930 0134 06       		.uleb128 0x6
 931 0135 88000000 		.4byte	.LASF26
 932 0139 07       		.byte	0x7
 933 013a 5C       		.byte	0x5c
 934 013b D9000000 		.4byte	0xd9
 935 013f 08       		.byte	0x8
 936 0140 06       		.uleb128 0x6
 937 0141 31040000 		.4byte	.LASF27
 938 0145 07       		.byte	0x7
 939 0146 5D       		.byte	0x5d
 940 0147 7E020000 		.4byte	0x27e
 941 014b 0C       		.byte	0xc
 942 014c 06       		.uleb128 0x6
 943 014d 26030000 		.4byte	.LASF28
 944 0151 07       		.byte	0x7
 945 0152 72       		.byte	0x72
 946 0153 C3000000 		.4byte	0xc3
 947 0157 10       		.byte	0x10
 948 0158 06       		.uleb128 0x6
 949 0159 4D030000 		.4byte	.LASF29
 950 015d 07       		.byte	0x7
 951 015e 76       		.byte	0x76
 952 015f B8000000 		.4byte	0xb8
 953 0163 11       		.byte	0x11
 954 0164 06       		.uleb128 0x6
 955 0165 2E030000 		.4byte	.LASF30
 956 0169 07       		.byte	0x7
 957 016a 81       		.byte	0x81
 958 016b CE000000 		.4byte	0xce
 959 016f 12       		.byte	0x12
 960 0170 07       		.uleb128 0x7
 961 0171 705F7500 		.ascii	"p_u\000"
 962 0175 07       		.byte	0x7
 963 0176 AD       		.byte	0xad
 964 0177 99030000 		.4byte	0x399
 965 017b 14       		.byte	0x14
 966 017c 06       		.uleb128 0x6
 967 017d 37040000 		.4byte	.LASF31
 968 0181 07       		.byte	0x7
 969 0182 B2       		.byte	0xb2
ARM GAS  /tmp/cc0xdMoy.s 			page 18


 970 0183 F4010000 		.4byte	0x1f4
 971 0187 18       		.byte	0x18
 972 0188 06       		.uleb128 0x6
 973 0189 75030000 		.4byte	.LASF32
 974 018d 07       		.byte	0x7
 975 018e C2       		.byte	0xc2
 976 018f EF000000 		.4byte	0xef
 977 0193 1C       		.byte	0x1c
 978 0194 06       		.uleb128 0x6
 979 0195 12030000 		.4byte	.LASF33
 980 0199 07       		.byte	0x7
 981 019a C9       		.byte	0xc9
 982 019b CE030000 		.4byte	0x3ce
 983 019f 20       		.byte	0x20
 984 01a0 06       		.uleb128 0x6
 985 01a1 C5030000 		.4byte	.LASF34
 986 01a5 07       		.byte	0x7
 987 01a6 CD       		.byte	0xcd
 988 01a7 D9000000 		.4byte	0xd9
 989 01ab 24       		.byte	0x24
 990 01ac 00       		.byte	0
 991 01ad 08       		.uleb128 0x8
 992 01ae 08       		.byte	0x8
 993 01af 06       		.byte	0x6
 994 01b0 5A       		.byte	0x5a
 995 01b1 CE010000 		.4byte	0x1ce
 996 01b5 06       		.uleb128 0x6
 997 01b6 46030000 		.4byte	.LASF24
 998 01ba 06       		.byte	0x6
 999 01bb 5B       		.byte	0x5b
 1000 01bc CE010000 		.4byte	0x1ce
 1001 01c0 00       		.byte	0
 1002 01c1 06       		.uleb128 0x6
 1003 01c2 E4020000 		.4byte	.LASF25
 1004 01c6 06       		.byte	0x6
 1005 01c7 5D       		.byte	0x5d
 1006 01c8 CE010000 		.4byte	0x1ce
 1007 01cc 04       		.byte	0x4
 1008 01cd 00       		.byte	0
 1009 01ce 09       		.uleb128 0x9
 1010 01cf 04       		.byte	0x4
 1011 01d0 05010000 		.4byte	0x105
 1012 01d4 03       		.uleb128 0x3
 1013 01d5 C5020000 		.4byte	.LASF35
 1014 01d9 06       		.byte	0x6
 1015 01da 5F       		.byte	0x5f
 1016 01db AD010000 		.4byte	0x1ad
 1017 01df 08       		.uleb128 0x8
 1018 01e0 04       		.byte	0x4
 1019 01e1 06       		.byte	0x6
 1020 01e2 64       		.byte	0x64
 1021 01e3 F4010000 		.4byte	0x1f4
 1022 01e7 06       		.uleb128 0x6
 1023 01e8 46030000 		.4byte	.LASF24
 1024 01ec 06       		.byte	0x6
 1025 01ed 66       		.byte	0x66
 1026 01ee CE010000 		.4byte	0x1ce
ARM GAS  /tmp/cc0xdMoy.s 			page 19


 1027 01f2 00       		.byte	0
 1028 01f3 00       		.byte	0
 1029 01f4 03       		.uleb128 0x3
 1030 01f5 C9010000 		.4byte	.LASF36
 1031 01f9 06       		.byte	0x6
 1032 01fa 69       		.byte	0x69
 1033 01fb DF010000 		.4byte	0x1df
 1034 01ff 03       		.uleb128 0x3
 1035 0200 30010000 		.4byte	.LASF37
 1036 0204 08       		.byte	0x8
 1037 0205 A2       		.byte	0xa2
 1038 0206 0A020000 		.4byte	0x20a
 1039 020a 0A       		.uleb128 0xa
 1040 020b 04       		.byte	0x4
 1041 020c 05       		.uleb128 0x5
 1042 020d E2030000 		.4byte	.LASF38
 1043 0211 24       		.byte	0x24
 1044 0212 08       		.byte	0x8
 1045 0213 B9       		.byte	0xb9
 1046 0214 7E020000 		.4byte	0x27e
 1047 0218 07       		.uleb128 0x7
 1048 0219 723400   		.ascii	"r4\000"
 1049 021c 08       		.byte	0x8
 1050 021d BA       		.byte	0xba
 1051 021e FF010000 		.4byte	0x1ff
 1052 0222 00       		.byte	0
 1053 0223 07       		.uleb128 0x7
 1054 0224 723500   		.ascii	"r5\000"
 1055 0227 08       		.byte	0x8
 1056 0228 BB       		.byte	0xbb
 1057 0229 FF010000 		.4byte	0x1ff
 1058 022d 04       		.byte	0x4
 1059 022e 07       		.uleb128 0x7
 1060 022f 723600   		.ascii	"r6\000"
 1061 0232 08       		.byte	0x8
 1062 0233 BC       		.byte	0xbc
 1063 0234 FF010000 		.4byte	0x1ff
 1064 0238 08       		.byte	0x8
 1065 0239 07       		.uleb128 0x7
 1066 023a 723700   		.ascii	"r7\000"
 1067 023d 08       		.byte	0x8
 1068 023e BD       		.byte	0xbd
 1069 023f FF010000 		.4byte	0x1ff
 1070 0243 0C       		.byte	0xc
 1071 0244 07       		.uleb128 0x7
 1072 0245 723800   		.ascii	"r8\000"
 1073 0248 08       		.byte	0x8
 1074 0249 BE       		.byte	0xbe
 1075 024a FF010000 		.4byte	0x1ff
 1076 024e 10       		.byte	0x10
 1077 024f 07       		.uleb128 0x7
 1078 0250 723900   		.ascii	"r9\000"
 1079 0253 08       		.byte	0x8
 1080 0254 BF       		.byte	0xbf
 1081 0255 FF010000 		.4byte	0x1ff
 1082 0259 14       		.byte	0x14
 1083 025a 07       		.uleb128 0x7
ARM GAS  /tmp/cc0xdMoy.s 			page 20


 1084 025b 72313000 		.ascii	"r10\000"
 1085 025f 08       		.byte	0x8
 1086 0260 C0       		.byte	0xc0
 1087 0261 FF010000 		.4byte	0x1ff
 1088 0265 18       		.byte	0x18
 1089 0266 07       		.uleb128 0x7
 1090 0267 72313100 		.ascii	"r11\000"
 1091 026b 08       		.byte	0x8
 1092 026c C1       		.byte	0xc1
 1093 026d FF010000 		.4byte	0x1ff
 1094 0271 1C       		.byte	0x1c
 1095 0272 07       		.uleb128 0x7
 1096 0273 6C7200   		.ascii	"lr\000"
 1097 0276 08       		.byte	0x8
 1098 0277 C2       		.byte	0xc2
 1099 0278 FF010000 		.4byte	0x1ff
 1100 027c 20       		.byte	0x20
 1101 027d 00       		.byte	0
 1102 027e 05       		.uleb128 0x5
 1103 027f DA030000 		.4byte	.LASF39
 1104 0283 04       		.byte	0x4
 1105 0284 08       		.byte	0x8
 1106 0285 CA       		.byte	0xca
 1107 0286 97020000 		.4byte	0x297
 1108 028a 07       		.uleb128 0x7
 1109 028b 72313300 		.ascii	"r13\000"
 1110 028f 08       		.byte	0x8
 1111 0290 CB       		.byte	0xcb
 1112 0291 97020000 		.4byte	0x297
 1113 0295 00       		.byte	0
 1114 0296 00       		.byte	0
 1115 0297 09       		.uleb128 0x9
 1116 0298 04       		.byte	0x4
 1117 0299 0C020000 		.4byte	0x20c
 1118 029d 03       		.uleb128 0x3
 1119 029e 92010000 		.4byte	.LASF40
 1120 02a2 09       		.byte	0x9
 1121 02a3 4E       		.byte	0x4e
 1122 02a4 A8020000 		.4byte	0x2a8
 1123 02a8 09       		.uleb128 0x9
 1124 02a9 04       		.byte	0x4
 1125 02aa AE020000 		.4byte	0x2ae
 1126 02ae 0B       		.uleb128 0xb
 1127 02af B9020000 		.4byte	0x2b9
 1128 02b3 0C       		.uleb128 0xc
 1129 02b4 0A020000 		.4byte	0x20a
 1130 02b8 00       		.byte	0
 1131 02b9 03       		.uleb128 0x3
 1132 02ba 91030000 		.4byte	.LASF41
 1133 02be 09       		.byte	0x9
 1134 02bf 53       		.byte	0x53
 1135 02c0 C4020000 		.4byte	0x2c4
 1136 02c4 05       		.uleb128 0x5
 1137 02c5 91030000 		.4byte	.LASF41
 1138 02c9 14       		.byte	0x14
 1139 02ca 09       		.byte	0x9
 1140 02cb 5A       		.byte	0x5a
ARM GAS  /tmp/cc0xdMoy.s 			page 21


 1141 02cc 0D030000 		.4byte	0x30d
 1142 02d0 06       		.uleb128 0x6
 1143 02d1 67010000 		.4byte	.LASF42
 1144 02d5 09       		.byte	0x9
 1145 02d6 5B       		.byte	0x5b
 1146 02d7 0D030000 		.4byte	0x30d
 1147 02db 00       		.byte	0
 1148 02dc 06       		.uleb128 0x6
 1149 02dd 39010000 		.4byte	.LASF43
 1150 02e1 09       		.byte	0x9
 1151 02e2 5D       		.byte	0x5d
 1152 02e3 0D030000 		.4byte	0x30d
 1153 02e7 04       		.byte	0x4
 1154 02e8 06       		.uleb128 0x6
 1155 02e9 82020000 		.4byte	.LASF44
 1156 02ed 09       		.byte	0x9
 1157 02ee 5F       		.byte	0x5f
 1158 02ef FA000000 		.4byte	0xfa
 1159 02f3 08       		.byte	0x8
 1160 02f4 06       		.uleb128 0x6
 1161 02f5 8A020000 		.4byte	.LASF45
 1162 02f9 09       		.byte	0x9
 1163 02fa 60       		.byte	0x60
 1164 02fb 9D020000 		.4byte	0x29d
 1165 02ff 0C       		.byte	0xc
 1166 0300 06       		.uleb128 0x6
 1167 0301 EE030000 		.4byte	.LASF46
 1168 0305 09       		.byte	0x9
 1169 0306 62       		.byte	0x62
 1170 0307 0A020000 		.4byte	0x20a
 1171 030b 10       		.byte	0x10
 1172 030c 00       		.byte	0
 1173 030d 09       		.uleb128 0x9
 1174 030e 04       		.byte	0x4
 1175 030f B9020000 		.4byte	0x2b9
 1176 0313 08       		.uleb128 0x8
 1177 0314 14       		.byte	0x14
 1178 0315 0A       		.byte	0xa
 1179 0316 57       		.byte	0x57
 1180 0317 4C030000 		.4byte	0x34c
 1181 031b 06       		.uleb128 0x6
 1182 031c 89030000 		.4byte	.LASF47
 1183 0320 0A       		.byte	0xa
 1184 0321 58       		.byte	0x58
 1185 0322 D4010000 		.4byte	0x1d4
 1186 0326 00       		.byte	0
 1187 0327 06       		.uleb128 0x6
 1188 0328 38030000 		.4byte	.LASF48
 1189 032c 0A       		.byte	0xa
 1190 032d 59       		.byte	0x59
 1191 032e D9000000 		.4byte	0xd9
 1192 0332 08       		.byte	0x8
 1193 0333 06       		.uleb128 0x6
 1194 0334 BF020000 		.4byte	.LASF49
 1195 0338 0A       		.byte	0xa
 1196 0339 5B       		.byte	0x5b
 1197 033a 7E020000 		.4byte	0x27e
ARM GAS  /tmp/cc0xdMoy.s 			page 22


 1198 033e 0C       		.byte	0xc
 1199 033f 06       		.uleb128 0x6
 1200 0340 DA020000 		.4byte	.LASF50
 1201 0344 0A       		.byte	0xa
 1202 0345 62       		.byte	0x62
 1203 0346 CE010000 		.4byte	0x1ce
 1204 034a 10       		.byte	0x10
 1205 034b 00       		.byte	0
 1206 034c 03       		.uleb128 0x3
 1207 034d F5030000 		.4byte	.LASF51
 1208 0351 0A       		.byte	0xa
 1209 0352 64       		.byte	0x64
 1210 0353 13030000 		.4byte	0x313
 1211 0357 05       		.uleb128 0x5
 1212 0358 E1010000 		.4byte	.LASF52
 1213 035c 10       		.byte	0x10
 1214 035d 0B       		.byte	0xb
 1215 035e 25       		.byte	0x25
 1216 035f 88030000 		.4byte	0x388
 1217 0363 06       		.uleb128 0x6
 1218 0364 C0000000 		.4byte	.LASF53
 1219 0368 0B       		.byte	0xb
 1220 0369 26       		.byte	0x26
 1221 036a D4010000 		.4byte	0x1d4
 1222 036e 00       		.byte	0
 1223 036f 06       		.uleb128 0x6
 1224 0370 29040000 		.4byte	.LASF54
 1225 0374 0B       		.byte	0xb
 1226 0375 28       		.byte	0x28
 1227 0376 CE010000 		.4byte	0x1ce
 1228 037a 08       		.byte	0x8
 1229 037b 06       		.uleb128 0x6
 1230 037c B4030000 		.4byte	.LASF55
 1231 0380 0B       		.byte	0xb
 1232 0381 2A       		.byte	0x2a
 1233 0382 88030000 		.4byte	0x388
 1234 0386 0C       		.byte	0xc
 1235 0387 00       		.byte	0
 1236 0388 09       		.uleb128 0x9
 1237 0389 04       		.byte	0x4
 1238 038a 57030000 		.4byte	0x357
 1239 038e 03       		.uleb128 0x3
 1240 038f E1010000 		.4byte	.LASF52
 1241 0393 0B       		.byte	0xb
 1242 0394 2C       		.byte	0x2c
 1243 0395 57030000 		.4byte	0x357
 1244 0399 0D       		.uleb128 0xd
 1245 039a 04       		.byte	0x4
 1246 039b 07       		.byte	0x7
 1247 039c 8F       		.byte	0x8f
 1248 039d CE030000 		.4byte	0x3ce
 1249 03a1 0E       		.uleb128 0xe
 1250 03a2 40000000 		.4byte	.LASF56
 1251 03a6 07       		.byte	0x7
 1252 03a7 96       		.byte	0x96
 1253 03a8 E4000000 		.4byte	0xe4
 1254 03ac 0E       		.uleb128 0xe
ARM GAS  /tmp/cc0xdMoy.s 			page 23


 1255 03ad 7F000000 		.4byte	.LASF57
 1256 03b1 07       		.byte	0x7
 1257 03b2 9D       		.byte	0x9d
 1258 03b3 E4000000 		.4byte	0xe4
 1259 03b7 0E       		.uleb128 0xe
 1260 03b8 0D040000 		.4byte	.LASF58
 1261 03bc 07       		.byte	0x7
 1262 03bd A4       		.byte	0xa4
 1263 03be 0A020000 		.4byte	0x20a
 1264 03c2 0E       		.uleb128 0xe
 1265 03c3 3F030000 		.4byte	.LASF59
 1266 03c7 07       		.byte	0x7
 1267 03c8 AB       		.byte	0xab
 1268 03c9 EF000000 		.4byte	0xef
 1269 03cd 00       		.byte	0
 1270 03ce 09       		.uleb128 0x9
 1271 03cf 04       		.byte	0x4
 1272 03d0 8E030000 		.4byte	0x38e
 1273 03d4 0F       		.uleb128 0xf
 1274 03d5 D2020000 		.4byte	.LASF60
 1275 03d9 02       		.byte	0x2
 1276 03da 42       		.byte	0x42
 1277 03db CE010000 		.4byte	0x1ce
 1278 03df 03       		.byte	0x3
 1279 03e0 EF030000 		.4byte	0x3ef
 1280 03e4 10       		.uleb128 0x10
 1281 03e5 747000   		.ascii	"tp\000"
 1282 03e8 02       		.byte	0x2
 1283 03e9 42       		.byte	0x42
 1284 03ea CE010000 		.4byte	0x1ce
 1285 03ee 00       		.byte	0
 1286 03ef 11       		.uleb128 0x11
 1287 03f0 A8030000 		.4byte	.LASF77
 1288 03f4 01       		.byte	0x1
 1289 03f5 4A       		.byte	0x4a
 1290 03f6 CE010000 		.4byte	0x1ce
 1291 03fa 01       		.byte	0x1
 1292 03fb 14040000 		.4byte	0x414
 1293 03ff 10       		.uleb128 0x10
 1294 0400 747000   		.ascii	"tp\000"
 1295 0403 01       		.byte	0x1
 1296 0404 4A       		.byte	0x4a
 1297 0405 CE010000 		.4byte	0x1ce
 1298 0409 12       		.uleb128 0x12
 1299 040a 637000   		.ascii	"cp\000"
 1300 040d 01       		.byte	0x1
 1301 040e 4B       		.byte	0x4b
 1302 040f CE010000 		.4byte	0x1ce
 1303 0413 00       		.byte	0
 1304 0414 13       		.uleb128 0x13
 1305 0415 60010000 		.4byte	.LASF78
 1306 0419 01       		.byte	0x1
 1307 041a 81       		.byte	0x81
 1308 041b 01       		.byte	0x1
 1309 041c 34040000 		.4byte	0x434
 1310 0420 10       		.uleb128 0x10
 1311 0421 7000     		.ascii	"p\000"
ARM GAS  /tmp/cc0xdMoy.s 			page 24


 1312 0423 01       		.byte	0x1
 1313 0424 81       		.byte	0x81
 1314 0425 0A020000 		.4byte	0x20a
 1315 0429 12       		.uleb128 0x12
 1316 042a 747000   		.ascii	"tp\000"
 1317 042d 01       		.byte	0x1
 1318 042e 82       		.byte	0x82
 1319 042f CE010000 		.4byte	0x1ce
 1320 0433 00       		.byte	0
 1321 0434 0F       		.uleb128 0xf
 1322 0435 B3020000 		.4byte	.LASF61
 1323 0439 02       		.byte	0x2
 1324 043a 34       		.byte	0x34
 1325 043b CE010000 		.4byte	0x1ce
 1326 043f 03       		.byte	0x3
 1327 0440 5A040000 		.4byte	0x45a
 1328 0444 10       		.uleb128 0x10
 1329 0445 74717000 		.ascii	"tqp\000"
 1330 0449 02       		.byte	0x2
 1331 044a 34       		.byte	0x34
 1332 044b 5A040000 		.4byte	0x45a
 1333 044f 12       		.uleb128 0x12
 1334 0450 747000   		.ascii	"tp\000"
 1335 0453 02       		.byte	0x2
 1336 0454 35       		.byte	0x35
 1337 0455 CE010000 		.4byte	0x1ce
 1338 0459 00       		.byte	0
 1339 045a 09       		.uleb128 0x9
 1340 045b 04       		.byte	0x4
 1341 045c D4010000 		.4byte	0x1d4
 1342 0460 14       		.uleb128 0x14
 1343 0461 14040000 		.4byte	0x414
 1344 0465 00000000 		.4byte	.LFB10
 1345 0469 64000000 		.4byte	.LFE10-.LFB10
 1346 046d 01       		.uleb128 0x1
 1347 046e 9C       		.byte	0x9c
 1348 046f D9040000 		.4byte	0x4d9
 1349 0473 15       		.uleb128 0x15
 1350 0474 20040000 		.4byte	0x420
 1351 0478 01       		.uleb128 0x1
 1352 0479 50       		.byte	0x50
 1353 047a 16       		.uleb128 0x16
 1354 047b 29040000 		.4byte	0x429
 1355 047f 01       		.uleb128 0x1
 1356 0480 50       		.byte	0x50
 1357 0481 17       		.uleb128 0x17
 1358 0482 D4030000 		.4byte	0x3d4
 1359 0486 10000000 		.4byte	.LBB31
 1360 048a 00000000 		.4byte	.Ldebug_ranges0+0
 1361 048e 01       		.byte	0x1
 1362 048f 99       		.byte	0x99
 1363 0490 9C040000 		.4byte	0x49c
 1364 0494 15       		.uleb128 0x15
 1365 0495 E4030000 		.4byte	0x3e4
 1366 0499 01       		.uleb128 0x1
 1367 049a 50       		.byte	0x50
 1368 049b 00       		.byte	0
ARM GAS  /tmp/cc0xdMoy.s 			page 25


 1369 049c 18       		.uleb128 0x18
 1370 049d 18000000 		.4byte	.Ldebug_ranges0+0x18
 1371 04a1 15       		.uleb128 0x15
 1372 04a2 20040000 		.4byte	0x420
 1373 04a6 01       		.uleb128 0x1
 1374 04a7 50       		.byte	0x50
 1375 04a8 18       		.uleb128 0x18
 1376 04a9 18000000 		.4byte	.Ldebug_ranges0+0x18
 1377 04ad 19       		.uleb128 0x19
 1378 04ae 29040000 		.4byte	0x429
 1379 04b2 1A       		.uleb128 0x1a
 1380 04b3 EF030000 		.4byte	0x3ef
 1381 04b7 24000000 		.4byte	.LBB36
 1382 04bb 30000000 		.4byte	.Ldebug_ranges0+0x30
 1383 04bf 01       		.byte	0x1
 1384 04c0 9D       		.byte	0x9d
 1385 04c1 15       		.uleb128 0x15
 1386 04c2 FF030000 		.4byte	0x3ff
 1387 04c6 01       		.uleb128 0x1
 1388 04c7 50       		.byte	0x50
 1389 04c8 18       		.uleb128 0x18
 1390 04c9 30000000 		.4byte	.Ldebug_ranges0+0x30
 1391 04cd 16       		.uleb128 0x16
 1392 04ce 09040000 		.4byte	0x409
 1393 04d2 01       		.uleb128 0x1
 1394 04d3 53       		.byte	0x53
 1395 04d4 00       		.byte	0
 1396 04d5 00       		.byte	0
 1397 04d6 00       		.byte	0
 1398 04d7 00       		.byte	0
 1399 04d8 00       		.byte	0
 1400 04d9 1B       		.uleb128 0x1b
 1401 04da 8F000000 		.4byte	.LASF79
 1402 04de 01       		.byte	0x1
 1403 04df 30       		.byte	0x30
 1404 04e0 00000000 		.4byte	.LFB7
 1405 04e4 1C000000 		.4byte	.LFE7-.LFB7
 1406 04e8 01       		.uleb128 0x1
 1407 04e9 9C       		.byte	0x9c
 1408 04ea 14       		.uleb128 0x14
 1409 04eb EF030000 		.4byte	0x3ef
 1410 04ef 00000000 		.4byte	.LFB8
 1411 04f3 44000000 		.4byte	.LFE8-.LFB8
 1412 04f7 01       		.uleb128 0x1
 1413 04f8 9C       		.byte	0x9c
 1414 04f9 0E050000 		.4byte	0x50e
 1415 04fd 1C       		.uleb128 0x1c
 1416 04fe FF030000 		.4byte	0x3ff
 1417 0502 00000000 		.4byte	.LLST0
 1418 0506 16       		.uleb128 0x16
 1419 0507 09040000 		.4byte	0x409
 1420 050b 01       		.uleb128 0x1
 1421 050c 53       		.byte	0x53
 1422 050d 00       		.byte	0
 1423 050e 1D       		.uleb128 0x1d
 1424 050f 67030000 		.4byte	.LASF64
 1425 0513 01       		.byte	0x1
ARM GAS  /tmp/cc0xdMoy.s 			page 26


 1426 0514 6C       		.byte	0x6c
 1427 0515 00000000 		.4byte	.LFB9
 1428 0519 44000000 		.4byte	.LFE9-.LFB9
 1429 051d 01       		.uleb128 0x1
 1430 051e 9C       		.byte	0x9c
 1431 051f 7A050000 		.4byte	0x57a
 1432 0523 1E       		.uleb128 0x1e
 1433 0524 09030000 		.4byte	.LASF62
 1434 0528 01       		.byte	0x1
 1435 0529 6C       		.byte	0x6c
 1436 052a C3000000 		.4byte	0xc3
 1437 052e 1E000000 		.4byte	.LLST1
 1438 0532 1F       		.uleb128 0x1f
 1439 0533 6F747000 		.ascii	"otp\000"
 1440 0537 01       		.byte	0x1
 1441 0538 6D       		.byte	0x6d
 1442 0539 CE010000 		.4byte	0x1ce
 1443 053d 3F000000 		.4byte	.LLST2
 1444 0541 17       		.uleb128 0x17
 1445 0542 34040000 		.4byte	0x434
 1446 0546 10000000 		.4byte	.LBB43
 1447 054a 48000000 		.4byte	.Ldebug_ranges0+0x48
 1448 054e 01       		.byte	0x1
 1449 054f 77       		.byte	0x77
 1450 0550 70050000 		.4byte	0x570
 1451 0554 15       		.uleb128 0x15
 1452 0555 44040000 		.4byte	0x444
 1453 0559 06       		.uleb128 0x6
 1454 055a 03       		.byte	0x3
 1455 055b 00000000 		.4byte	rlist
 1456 055f 9F       		.byte	0x9f
 1457 0560 18       		.uleb128 0x18
 1458 0561 48000000 		.4byte	.Ldebug_ranges0+0x48
 1459 0565 20       		.uleb128 0x20
 1460 0566 4F040000 		.4byte	0x44f
 1461 056a 52000000 		.4byte	.LLST3
 1462 056e 00       		.byte	0
 1463 056f 00       		.byte	0
 1464 0570 21       		.uleb128 0x21
 1465 0571 40000000 		.4byte	.LVL14
 1466 0575 63080000 		.4byte	0x863
 1467 0579 00       		.byte	0
 1468 057a 22       		.uleb128 0x22
 1469 057b 14040000 		.4byte	.LASF66
 1470 057f 01       		.byte	0x1
 1471 0580 B6       		.byte	0xb6
 1472 0581 E4000000 		.4byte	0xe4
 1473 0585 00000000 		.4byte	.LFB11
 1474 0589 78000000 		.4byte	.LFE11-.LFB11
 1475 058d 01       		.uleb128 0x1
 1476 058e 9C       		.byte	0x9c
 1477 058f 25060000 		.4byte	0x625
 1478 0593 1E       		.uleb128 0x1e
 1479 0594 09030000 		.4byte	.LASF62
 1480 0598 01       		.byte	0x1
 1481 0599 B6       		.byte	0xb6
 1482 059a C3000000 		.4byte	0xc3
ARM GAS  /tmp/cc0xdMoy.s 			page 27


 1483 059e 65000000 		.4byte	.LLST4
 1484 05a2 1E       		.uleb128 0x1e
 1485 05a3 E9030000 		.4byte	.LASF63
 1486 05a7 01       		.byte	0x1
 1487 05a8 B6       		.byte	0xb6
 1488 05a9 FA000000 		.4byte	0xfa
 1489 05ad A7000000 		.4byte	.LLST5
 1490 05b1 23       		.uleb128 0x23
 1491 05b2 14000000 		.4byte	.LBB51
 1492 05b6 30000000 		.4byte	.LBE51-.LBB51
 1493 05ba 14060000 		.4byte	0x614
 1494 05be 24       		.uleb128 0x24
 1495 05bf 767400   		.ascii	"vt\000"
 1496 05c2 01       		.byte	0x1
 1497 05c3 BB       		.byte	0xbb
 1498 05c4 B9020000 		.4byte	0x2b9
 1499 05c8 02       		.uleb128 0x2
 1500 05c9 91       		.byte	0x91
 1501 05ca 60       		.sleb128 -32
 1502 05cb 25       		.uleb128 0x25
 1503 05cc 28000000 		.4byte	.LVL17
 1504 05d0 7A080000 		.4byte	0x87a
 1505 05d4 EF050000 		.4byte	0x5ef
 1506 05d8 26       		.uleb128 0x26
 1507 05d9 01       		.uleb128 0x1
 1508 05da 52       		.byte	0x52
 1509 05db 05       		.uleb128 0x5
 1510 05dc 03       		.byte	0x3
 1511 05dd 00000000 		.4byte	wakeup
 1512 05e1 26       		.uleb128 0x26
 1513 05e2 01       		.uleb128 0x1
 1514 05e3 51       		.byte	0x51
 1515 05e4 03       		.uleb128 0x3
 1516 05e5 F3       		.byte	0xf3
 1517 05e6 01       		.uleb128 0x1
 1518 05e7 51       		.byte	0x51
 1519 05e8 26       		.uleb128 0x26
 1520 05e9 01       		.uleb128 0x1
 1521 05ea 50       		.byte	0x50
 1522 05eb 02       		.uleb128 0x2
 1523 05ec 7D       		.byte	0x7d
 1524 05ed 00       		.sleb128 0
 1525 05ee 00       		.byte	0
 1526 05ef 25       		.uleb128 0x25
 1527 05f0 30000000 		.4byte	.LVL18
 1528 05f4 0E050000 		.4byte	0x50e
 1529 05f8 03060000 		.4byte	0x603
 1530 05fc 26       		.uleb128 0x26
 1531 05fd 01       		.uleb128 0x1
 1532 05fe 50       		.byte	0x50
 1533 05ff 02       		.uleb128 0x2
 1534 0600 75       		.byte	0x75
 1535 0601 00       		.sleb128 0
 1536 0602 00       		.byte	0
 1537 0603 27       		.uleb128 0x27
 1538 0604 44000000 		.4byte	.LVL19
 1539 0608 9A080000 		.4byte	0x89a
ARM GAS  /tmp/cc0xdMoy.s 			page 28


 1540 060c 26       		.uleb128 0x26
 1541 060d 01       		.uleb128 0x1
 1542 060e 50       		.byte	0x50
 1543 060f 02       		.uleb128 0x2
 1544 0610 7D       		.byte	0x7d
 1545 0611 00       		.sleb128 0
 1546 0612 00       		.byte	0
 1547 0613 00       		.byte	0
 1548 0614 27       		.uleb128 0x27
 1549 0615 5C000000 		.4byte	.LVL22
 1550 0619 0E050000 		.4byte	0x50e
 1551 061d 26       		.uleb128 0x26
 1552 061e 01       		.uleb128 0x1
 1553 061f 50       		.byte	0x50
 1554 0620 02       		.uleb128 0x2
 1555 0621 75       		.byte	0x75
 1556 0622 00       		.sleb128 0
 1557 0623 00       		.byte	0
 1558 0624 00       		.byte	0
 1559 0625 1D       		.uleb128 0x1d
 1560 0626 AE010000 		.4byte	.LASF65
 1561 062a 01       		.byte	0x1
 1562 062b DA       		.byte	0xda
 1563 062c 00000000 		.4byte	.LFB12
 1564 0630 A0000000 		.4byte	.LFE12-.LFB12
 1565 0634 01       		.uleb128 0x1
 1566 0635 9C       		.byte	0x9c
 1567 0636 D7060000 		.4byte	0x6d7
 1568 063a 28       		.uleb128 0x28
 1569 063b 6E747000 		.ascii	"ntp\000"
 1570 063f 01       		.byte	0x1
 1571 0640 DA       		.byte	0xda
 1572 0641 CE010000 		.4byte	0x1ce
 1573 0645 E1000000 		.4byte	.LLST6
 1574 0649 28       		.uleb128 0x28
 1575 064a 6D736700 		.ascii	"msg\000"
 1576 064e 01       		.byte	0x1
 1577 064f DA       		.byte	0xda
 1578 0650 E4000000 		.4byte	0xe4
 1579 0654 18010000 		.4byte	.LLST7
 1580 0658 29       		.uleb128 0x29
 1581 0659 EF030000 		.4byte	0x3ef
 1582 065d 24000000 		.4byte	.LBB52
 1583 0661 30000000 		.4byte	.LBE52-.LBB52
 1584 0665 01       		.byte	0x1
 1585 0666 E4       		.byte	0xe4
 1586 0667 88060000 		.4byte	0x688
 1587 066b 1C       		.uleb128 0x1c
 1588 066c FF030000 		.4byte	0x3ff
 1589 0670 51010000 		.4byte	.LLST8
 1590 0674 2A       		.uleb128 0x2a
 1591 0675 24000000 		.4byte	.LBB53
 1592 0679 30000000 		.4byte	.LBE53-.LBB53
 1593 067d 20       		.uleb128 0x20
 1594 067e 09040000 		.4byte	0x409
 1595 0682 64010000 		.4byte	.LLST9
 1596 0686 00       		.byte	0
ARM GAS  /tmp/cc0xdMoy.s 			page 29


 1597 0687 00       		.byte	0
 1598 0688 18       		.uleb128 0x18
 1599 0689 70000000 		.4byte	.Ldebug_ranges0+0x70
 1600 068d 12       		.uleb128 0x12
 1601 068e 6F747000 		.ascii	"otp\000"
 1602 0692 01       		.byte	0x1
 1603 0693 E6       		.byte	0xe6
 1604 0694 CE010000 		.4byte	0x1ce
 1605 0698 17       		.uleb128 0x17
 1606 0699 EF030000 		.4byte	0x3ef
 1607 069d 54000000 		.4byte	.LBB55
 1608 06a1 88000000 		.4byte	.Ldebug_ranges0+0x88
 1609 06a5 01       		.byte	0x1
 1610 06a6 E6       		.byte	0xe6
 1611 06a7 C4060000 		.4byte	0x6c4
 1612 06ab 1C       		.uleb128 0x1c
 1613 06ac FF030000 		.4byte	0x3ff
 1614 06b0 77010000 		.4byte	.LLST10
 1615 06b4 18       		.uleb128 0x18
 1616 06b5 88000000 		.4byte	.Ldebug_ranges0+0x88
 1617 06b9 20       		.uleb128 0x20
 1618 06ba 09040000 		.4byte	0x409
 1619 06be 95010000 		.4byte	.LLST11
 1620 06c2 00       		.byte	0
 1621 06c3 00       		.byte	0
 1622 06c4 2B       		.uleb128 0x2b
 1623 06c5 9C000000 		.4byte	.LVL34
 1624 06c9 63080000 		.4byte	0x863
 1625 06cd 26       		.uleb128 0x26
 1626 06ce 01       		.uleb128 0x1
 1627 06cf 50       		.byte	0x50
 1628 06d0 03       		.uleb128 0x3
 1629 06d1 F3       		.byte	0xf3
 1630 06d2 01       		.uleb128 0x1
 1631 06d3 50       		.byte	0x50
 1632 06d4 00       		.byte	0
 1633 06d5 00       		.byte	0
 1634 06d6 00       		.byte	0
 1635 06d7 2C       		.uleb128 0x2c
 1636 06d8 FA000000 		.4byte	.LASF67
 1637 06dc 01       		.byte	0x1
 1638 06dd 0D01     		.2byte	0x10d
 1639 06df AD000000 		.4byte	0xad
 1640 06e3 00000000 		.4byte	.LFB14
 1641 06e7 44000000 		.4byte	.LFE14-.LFB14
 1642 06eb 01       		.uleb128 0x1
 1643 06ec 9C       		.byte	0x9c
 1644 06ed 0E070000 		.4byte	0x70e
 1645 06f1 2D       		.uleb128 0x2d
 1646 06f2 703100   		.ascii	"p1\000"
 1647 06f5 01       		.byte	0x1
 1648 06f6 0E01     		.2byte	0x10e
 1649 06f8 D9000000 		.4byte	0xd9
 1650 06fc 01       		.uleb128 0x1
 1651 06fd 53       		.byte	0x53
 1652 06fe 2E       		.uleb128 0x2e
 1653 06ff 703200   		.ascii	"p2\000"
ARM GAS  /tmp/cc0xdMoy.s 			page 30


 1654 0702 01       		.byte	0x1
 1655 0703 0F01     		.2byte	0x10f
 1656 0705 D9000000 		.4byte	0xd9
 1657 0709 A8010000 		.4byte	.LLST12
 1658 070d 00       		.byte	0
 1659 070e 2F       		.uleb128 0x2f
 1660 070f 92020000 		.4byte	.LASF68
 1661 0713 01       		.byte	0x1
 1662 0714 2901     		.2byte	0x129
 1663 0716 00000000 		.4byte	.LFB15
 1664 071a 78000000 		.4byte	.LFE15-.LFB15
 1665 071e 01       		.uleb128 0x1
 1666 071f 9C       		.byte	0x9c
 1667 0720 9B070000 		.4byte	0x79b
 1668 0724 2E       		.uleb128 0x2e
 1669 0725 6F747000 		.ascii	"otp\000"
 1670 0729 01       		.byte	0x1
 1671 072a 2A01     		.2byte	0x12a
 1672 072c CE010000 		.4byte	0x1ce
 1673 0730 DE010000 		.4byte	.LLST13
 1674 0734 30       		.uleb128 0x30
 1675 0735 EF030000 		.4byte	0x3ef
 1676 0739 0C000000 		.4byte	.LBB62
 1677 073d A8000000 		.4byte	.Ldebug_ranges0+0xa8
 1678 0741 01       		.byte	0x1
 1679 0742 3301     		.2byte	0x133
 1680 0744 61070000 		.4byte	0x761
 1681 0748 1C       		.uleb128 0x1c
 1682 0749 FF030000 		.4byte	0x3ff
 1683 074d F1010000 		.4byte	.LLST14
 1684 0751 18       		.uleb128 0x18
 1685 0752 A8000000 		.4byte	.Ldebug_ranges0+0xa8
 1686 0756 20       		.uleb128 0x20
 1687 0757 09040000 		.4byte	0x409
 1688 075b 04020000 		.4byte	.LLST15
 1689 075f 00       		.byte	0
 1690 0760 00       		.byte	0
 1691 0761 30       		.uleb128 0x30
 1692 0762 34040000 		.4byte	0x434
 1693 0766 14000000 		.4byte	.LBB67
 1694 076a D0000000 		.4byte	.Ldebug_ranges0+0xd0
 1695 076e 01       		.byte	0x1
 1696 076f 2E01     		.2byte	0x12e
 1697 0771 91070000 		.4byte	0x791
 1698 0775 15       		.uleb128 0x15
 1699 0776 44040000 		.4byte	0x444
 1700 077a 06       		.uleb128 0x6
 1701 077b 03       		.byte	0x3
 1702 077c 00000000 		.4byte	rlist
 1703 0780 9F       		.byte	0x9f
 1704 0781 18       		.uleb128 0x18
 1705 0782 D0000000 		.4byte	.Ldebug_ranges0+0xd0
 1706 0786 20       		.uleb128 0x20
 1707 0787 4F040000 		.4byte	0x44f
 1708 078b 27020000 		.4byte	.LLST16
 1709 078f 00       		.byte	0
 1710 0790 00       		.byte	0
ARM GAS  /tmp/cc0xdMoy.s 			page 31


 1711 0791 21       		.uleb128 0x21
 1712 0792 74000000 		.4byte	.LVL45
 1713 0796 63080000 		.4byte	0x863
 1714 079a 00       		.byte	0
 1715 079b 2F       		.uleb128 0x2f
 1716 079c 47000000 		.4byte	.LASF69
 1717 07a0 01       		.byte	0x1
 1718 07a1 4201     		.2byte	0x142
 1719 07a3 00000000 		.4byte	.LFB16
 1720 07a7 70000000 		.4byte	.LFE16-.LFB16
 1721 07ab 01       		.uleb128 0x1
 1722 07ac 9C       		.byte	0x9c
 1723 07ad 0A080000 		.4byte	0x80a
 1724 07b1 2E       		.uleb128 0x2e
 1725 07b2 6F747000 		.ascii	"otp\000"
 1726 07b6 01       		.byte	0x1
 1727 07b7 4301     		.2byte	0x143
 1728 07b9 CE010000 		.4byte	0x1ce
 1729 07bd 3A020000 		.4byte	.LLST17
 1730 07c1 2E       		.uleb128 0x2e
 1731 07c2 637000   		.ascii	"cp\000"
 1732 07c5 01       		.byte	0x1
 1733 07c6 4301     		.2byte	0x143
 1734 07c8 CE010000 		.4byte	0x1ce
 1735 07cc 4D020000 		.4byte	.LLST18
 1736 07d0 30       		.uleb128 0x30
 1737 07d1 34040000 		.4byte	0x434
 1738 07d5 10000000 		.4byte	.LBB76
 1739 07d9 F0000000 		.4byte	.Ldebug_ranges0+0xf0
 1740 07dd 01       		.byte	0x1
 1741 07de 4701     		.2byte	0x147
 1742 07e0 00080000 		.4byte	0x800
 1743 07e4 15       		.uleb128 0x15
 1744 07e5 44040000 		.4byte	0x444
 1745 07e9 06       		.uleb128 0x6
 1746 07ea 03       		.byte	0x3
 1747 07eb 00000000 		.4byte	rlist
 1748 07ef 9F       		.byte	0x9f
 1749 07f0 18       		.uleb128 0x18
 1750 07f1 F0000000 		.4byte	.Ldebug_ranges0+0xf0
 1751 07f5 20       		.uleb128 0x20
 1752 07f6 4F040000 		.4byte	0x44f
 1753 07fa 70020000 		.4byte	.LLST19
 1754 07fe 00       		.byte	0
 1755 07ff 00       		.byte	0
 1756 0800 21       		.uleb128 0x21
 1757 0801 6C000000 		.4byte	.LVL50
 1758 0805 63080000 		.4byte	0x863
 1759 0809 00       		.byte	0
 1760 080a 1D       		.uleb128 0x1d
 1761 080b 14010000 		.4byte	.LASF70
 1762 080f 01       		.byte	0x1
 1763 0810 F6       		.byte	0xf6
 1764 0811 00000000 		.4byte	.LFB13
 1765 0815 24000000 		.4byte	.LFE13-.LFB13
 1766 0819 01       		.uleb128 0x1
 1767 081a 9C       		.byte	0x9c
ARM GAS  /tmp/cc0xdMoy.s 			page 32


 1768 081b 29080000 		.4byte	0x829
 1769 081f 21       		.uleb128 0x21
 1770 0820 20000000 		.4byte	.LVL51
 1771 0824 9B070000 		.4byte	0x79b
 1772 0828 00       		.byte	0
 1773 0829 2F       		.uleb128 0x2f
 1774 082a 41010000 		.4byte	.LASF71
 1775 082e 01       		.byte	0x1
 1776 082f 6301     		.2byte	0x163
 1777 0831 00000000 		.4byte	.LFB17
 1778 0835 20000000 		.4byte	.LFE17-.LFB17
 1779 0839 01       		.uleb128 0x1
 1780 083a 9C       		.byte	0x9c
 1781 083b 52080000 		.4byte	0x852
 1782 083f 21       		.uleb128 0x21
 1783 0840 18000000 		.4byte	.LVL52
 1784 0844 9B070000 		.4byte	0x79b
 1785 0848 21       		.uleb128 0x21
 1786 0849 1C000000 		.4byte	.LVL53
 1787 084d 0E070000 		.4byte	0x70e
 1788 0851 00       		.byte	0
 1789 0852 31       		.uleb128 0x31
 1790 0853 FF030000 		.4byte	.LASF80
 1791 0857 01       		.byte	0x1
 1792 0858 28       		.byte	0x28
 1793 0859 4C030000 		.4byte	0x34c
 1794 085d 05       		.uleb128 0x5
 1795 085e 03       		.byte	0x3
 1796 085f 00000000 		.4byte	rlist
 1797 0863 32       		.uleb128 0x32
 1798 0864 6F010000 		.4byte	.LASF72
 1799 0868 08       		.byte	0x8
 1800 0869 DA01     		.2byte	0x1da
 1801 086b 7A080000 		.4byte	0x87a
 1802 086f 0C       		.uleb128 0xc
 1803 0870 CE010000 		.4byte	0x1ce
 1804 0874 0C       		.uleb128 0xc
 1805 0875 CE010000 		.4byte	0x1ce
 1806 0879 00       		.byte	0
 1807 087a 33       		.uleb128 0x33
 1808 087b AA020000 		.4byte	.LASF73
 1809 087f 09       		.byte	0x9
 1810 0880 DA       		.byte	0xda
 1811 0881 9A080000 		.4byte	0x89a
 1812 0885 0C       		.uleb128 0xc
 1813 0886 0D030000 		.4byte	0x30d
 1814 088a 0C       		.uleb128 0xc
 1815 088b FA000000 		.4byte	0xfa
 1816 088f 0C       		.uleb128 0xc
 1817 0890 9D020000 		.4byte	0x29d
 1818 0894 0C       		.uleb128 0xc
 1819 0895 0A020000 		.4byte	0x20a
 1820 0899 00       		.byte	0
 1821 089a 34       		.uleb128 0x34
 1822 089b 5C030000 		.4byte	.LASF81
 1823 089f 09       		.byte	0x9
 1824 08a0 DB       		.byte	0xdb
ARM GAS  /tmp/cc0xdMoy.s 			page 33


 1825 08a1 0C       		.uleb128 0xc
 1826 08a2 0D030000 		.4byte	0x30d
 1827 08a6 00       		.byte	0
 1828 08a7 00       		.byte	0
 1829              		.section	.debug_abbrev,"",%progbits
 1830              	.Ldebug_abbrev0:
 1831 0000 01       		.uleb128 0x1
 1832 0001 11       		.uleb128 0x11
 1833 0002 01       		.byte	0x1
 1834 0003 25       		.uleb128 0x25
 1835 0004 0E       		.uleb128 0xe
 1836 0005 13       		.uleb128 0x13
 1837 0006 0B       		.uleb128 0xb
 1838 0007 03       		.uleb128 0x3
 1839 0008 0E       		.uleb128 0xe
 1840 0009 1B       		.uleb128 0x1b
 1841 000a 0E       		.uleb128 0xe
 1842 000b 55       		.uleb128 0x55
 1843 000c 17       		.uleb128 0x17
 1844 000d 11       		.uleb128 0x11
 1845 000e 01       		.uleb128 0x1
 1846 000f 10       		.uleb128 0x10
 1847 0010 17       		.uleb128 0x17
 1848 0011 00       		.byte	0
 1849 0012 00       		.byte	0
 1850 0013 02       		.uleb128 0x2
 1851 0014 24       		.uleb128 0x24
 1852 0015 00       		.byte	0
 1853 0016 0B       		.uleb128 0xb
 1854 0017 0B       		.uleb128 0xb
 1855 0018 3E       		.uleb128 0x3e
 1856 0019 0B       		.uleb128 0xb
 1857 001a 03       		.uleb128 0x3
 1858 001b 0E       		.uleb128 0xe
 1859 001c 00       		.byte	0
 1860 001d 00       		.byte	0
 1861 001e 03       		.uleb128 0x3
 1862 001f 16       		.uleb128 0x16
 1863 0020 00       		.byte	0
 1864 0021 03       		.uleb128 0x3
 1865 0022 0E       		.uleb128 0xe
 1866 0023 3A       		.uleb128 0x3a
 1867 0024 0B       		.uleb128 0xb
 1868 0025 3B       		.uleb128 0x3b
 1869 0026 0B       		.uleb128 0xb
 1870 0027 49       		.uleb128 0x49
 1871 0028 13       		.uleb128 0x13
 1872 0029 00       		.byte	0
 1873 002a 00       		.byte	0
 1874 002b 04       		.uleb128 0x4
 1875 002c 24       		.uleb128 0x24
 1876 002d 00       		.byte	0
 1877 002e 0B       		.uleb128 0xb
 1878 002f 0B       		.uleb128 0xb
 1879 0030 3E       		.uleb128 0x3e
 1880 0031 0B       		.uleb128 0xb
 1881 0032 03       		.uleb128 0x3
ARM GAS  /tmp/cc0xdMoy.s 			page 34


 1882 0033 08       		.uleb128 0x8
 1883 0034 00       		.byte	0
 1884 0035 00       		.byte	0
 1885 0036 05       		.uleb128 0x5
 1886 0037 13       		.uleb128 0x13
 1887 0038 01       		.byte	0x1
 1888 0039 03       		.uleb128 0x3
 1889 003a 0E       		.uleb128 0xe
 1890 003b 0B       		.uleb128 0xb
 1891 003c 0B       		.uleb128 0xb
 1892 003d 3A       		.uleb128 0x3a
 1893 003e 0B       		.uleb128 0xb
 1894 003f 3B       		.uleb128 0x3b
 1895 0040 0B       		.uleb128 0xb
 1896 0041 01       		.uleb128 0x1
 1897 0042 13       		.uleb128 0x13
 1898 0043 00       		.byte	0
 1899 0044 00       		.byte	0
 1900 0045 06       		.uleb128 0x6
 1901 0046 0D       		.uleb128 0xd
 1902 0047 00       		.byte	0
 1903 0048 03       		.uleb128 0x3
 1904 0049 0E       		.uleb128 0xe
 1905 004a 3A       		.uleb128 0x3a
 1906 004b 0B       		.uleb128 0xb
 1907 004c 3B       		.uleb128 0x3b
 1908 004d 0B       		.uleb128 0xb
 1909 004e 49       		.uleb128 0x49
 1910 004f 13       		.uleb128 0x13
 1911 0050 38       		.uleb128 0x38
 1912 0051 0B       		.uleb128 0xb
 1913 0052 00       		.byte	0
 1914 0053 00       		.byte	0
 1915 0054 07       		.uleb128 0x7
 1916 0055 0D       		.uleb128 0xd
 1917 0056 00       		.byte	0
 1918 0057 03       		.uleb128 0x3
 1919 0058 08       		.uleb128 0x8
 1920 0059 3A       		.uleb128 0x3a
 1921 005a 0B       		.uleb128 0xb
 1922 005b 3B       		.uleb128 0x3b
 1923 005c 0B       		.uleb128 0xb
 1924 005d 49       		.uleb128 0x49
 1925 005e 13       		.uleb128 0x13
 1926 005f 38       		.uleb128 0x38
 1927 0060 0B       		.uleb128 0xb
 1928 0061 00       		.byte	0
 1929 0062 00       		.byte	0
 1930 0063 08       		.uleb128 0x8
 1931 0064 13       		.uleb128 0x13
 1932 0065 01       		.byte	0x1
 1933 0066 0B       		.uleb128 0xb
 1934 0067 0B       		.uleb128 0xb
 1935 0068 3A       		.uleb128 0x3a
 1936 0069 0B       		.uleb128 0xb
 1937 006a 3B       		.uleb128 0x3b
 1938 006b 0B       		.uleb128 0xb
ARM GAS  /tmp/cc0xdMoy.s 			page 35


 1939 006c 01       		.uleb128 0x1
 1940 006d 13       		.uleb128 0x13
 1941 006e 00       		.byte	0
 1942 006f 00       		.byte	0
 1943 0070 09       		.uleb128 0x9
 1944 0071 0F       		.uleb128 0xf
 1945 0072 00       		.byte	0
 1946 0073 0B       		.uleb128 0xb
 1947 0074 0B       		.uleb128 0xb
 1948 0075 49       		.uleb128 0x49
 1949 0076 13       		.uleb128 0x13
 1950 0077 00       		.byte	0
 1951 0078 00       		.byte	0
 1952 0079 0A       		.uleb128 0xa
 1953 007a 0F       		.uleb128 0xf
 1954 007b 00       		.byte	0
 1955 007c 0B       		.uleb128 0xb
 1956 007d 0B       		.uleb128 0xb
 1957 007e 00       		.byte	0
 1958 007f 00       		.byte	0
 1959 0080 0B       		.uleb128 0xb
 1960 0081 15       		.uleb128 0x15
 1961 0082 01       		.byte	0x1
 1962 0083 27       		.uleb128 0x27
 1963 0084 19       		.uleb128 0x19
 1964 0085 01       		.uleb128 0x1
 1965 0086 13       		.uleb128 0x13
 1966 0087 00       		.byte	0
 1967 0088 00       		.byte	0
 1968 0089 0C       		.uleb128 0xc
 1969 008a 05       		.uleb128 0x5
 1970 008b 00       		.byte	0
 1971 008c 49       		.uleb128 0x49
 1972 008d 13       		.uleb128 0x13
 1973 008e 00       		.byte	0
 1974 008f 00       		.byte	0
 1975 0090 0D       		.uleb128 0xd
 1976 0091 17       		.uleb128 0x17
 1977 0092 01       		.byte	0x1
 1978 0093 0B       		.uleb128 0xb
 1979 0094 0B       		.uleb128 0xb
 1980 0095 3A       		.uleb128 0x3a
 1981 0096 0B       		.uleb128 0xb
 1982 0097 3B       		.uleb128 0x3b
 1983 0098 0B       		.uleb128 0xb
 1984 0099 01       		.uleb128 0x1
 1985 009a 13       		.uleb128 0x13
 1986 009b 00       		.byte	0
 1987 009c 00       		.byte	0
 1988 009d 0E       		.uleb128 0xe
 1989 009e 0D       		.uleb128 0xd
 1990 009f 00       		.byte	0
 1991 00a0 03       		.uleb128 0x3
 1992 00a1 0E       		.uleb128 0xe
 1993 00a2 3A       		.uleb128 0x3a
 1994 00a3 0B       		.uleb128 0xb
 1995 00a4 3B       		.uleb128 0x3b
ARM GAS  /tmp/cc0xdMoy.s 			page 36


 1996 00a5 0B       		.uleb128 0xb
 1997 00a6 49       		.uleb128 0x49
 1998 00a7 13       		.uleb128 0x13
 1999 00a8 00       		.byte	0
 2000 00a9 00       		.byte	0
 2001 00aa 0F       		.uleb128 0xf
 2002 00ab 2E       		.uleb128 0x2e
 2003 00ac 01       		.byte	0x1
 2004 00ad 03       		.uleb128 0x3
 2005 00ae 0E       		.uleb128 0xe
 2006 00af 3A       		.uleb128 0x3a
 2007 00b0 0B       		.uleb128 0xb
 2008 00b1 3B       		.uleb128 0x3b
 2009 00b2 0B       		.uleb128 0xb
 2010 00b3 27       		.uleb128 0x27
 2011 00b4 19       		.uleb128 0x19
 2012 00b5 49       		.uleb128 0x49
 2013 00b6 13       		.uleb128 0x13
 2014 00b7 20       		.uleb128 0x20
 2015 00b8 0B       		.uleb128 0xb
 2016 00b9 01       		.uleb128 0x1
 2017 00ba 13       		.uleb128 0x13
 2018 00bb 00       		.byte	0
 2019 00bc 00       		.byte	0
 2020 00bd 10       		.uleb128 0x10
 2021 00be 05       		.uleb128 0x5
 2022 00bf 00       		.byte	0
 2023 00c0 03       		.uleb128 0x3
 2024 00c1 08       		.uleb128 0x8
 2025 00c2 3A       		.uleb128 0x3a
 2026 00c3 0B       		.uleb128 0xb
 2027 00c4 3B       		.uleb128 0x3b
 2028 00c5 0B       		.uleb128 0xb
 2029 00c6 49       		.uleb128 0x49
 2030 00c7 13       		.uleb128 0x13
 2031 00c8 00       		.byte	0
 2032 00c9 00       		.byte	0
 2033 00ca 11       		.uleb128 0x11
 2034 00cb 2E       		.uleb128 0x2e
 2035 00cc 01       		.byte	0x1
 2036 00cd 3F       		.uleb128 0x3f
 2037 00ce 19       		.uleb128 0x19
 2038 00cf 03       		.uleb128 0x3
 2039 00d0 0E       		.uleb128 0xe
 2040 00d1 3A       		.uleb128 0x3a
 2041 00d2 0B       		.uleb128 0xb
 2042 00d3 3B       		.uleb128 0x3b
 2043 00d4 0B       		.uleb128 0xb
 2044 00d5 27       		.uleb128 0x27
 2045 00d6 19       		.uleb128 0x19
 2046 00d7 49       		.uleb128 0x49
 2047 00d8 13       		.uleb128 0x13
 2048 00d9 20       		.uleb128 0x20
 2049 00da 0B       		.uleb128 0xb
 2050 00db 01       		.uleb128 0x1
 2051 00dc 13       		.uleb128 0x13
 2052 00dd 00       		.byte	0
ARM GAS  /tmp/cc0xdMoy.s 			page 37


 2053 00de 00       		.byte	0
 2054 00df 12       		.uleb128 0x12
 2055 00e0 34       		.uleb128 0x34
 2056 00e1 00       		.byte	0
 2057 00e2 03       		.uleb128 0x3
 2058 00e3 08       		.uleb128 0x8
 2059 00e4 3A       		.uleb128 0x3a
 2060 00e5 0B       		.uleb128 0xb
 2061 00e6 3B       		.uleb128 0x3b
 2062 00e7 0B       		.uleb128 0xb
 2063 00e8 49       		.uleb128 0x49
 2064 00e9 13       		.uleb128 0x13
 2065 00ea 00       		.byte	0
 2066 00eb 00       		.byte	0
 2067 00ec 13       		.uleb128 0x13
 2068 00ed 2E       		.uleb128 0x2e
 2069 00ee 01       		.byte	0x1
 2070 00ef 03       		.uleb128 0x3
 2071 00f0 0E       		.uleb128 0xe
 2072 00f1 3A       		.uleb128 0x3a
 2073 00f2 0B       		.uleb128 0xb
 2074 00f3 3B       		.uleb128 0x3b
 2075 00f4 0B       		.uleb128 0xb
 2076 00f5 27       		.uleb128 0x27
 2077 00f6 19       		.uleb128 0x19
 2078 00f7 20       		.uleb128 0x20
 2079 00f8 0B       		.uleb128 0xb
 2080 00f9 01       		.uleb128 0x1
 2081 00fa 13       		.uleb128 0x13
 2082 00fb 00       		.byte	0
 2083 00fc 00       		.byte	0
 2084 00fd 14       		.uleb128 0x14
 2085 00fe 2E       		.uleb128 0x2e
 2086 00ff 01       		.byte	0x1
 2087 0100 31       		.uleb128 0x31
 2088 0101 13       		.uleb128 0x13
 2089 0102 11       		.uleb128 0x11
 2090 0103 01       		.uleb128 0x1
 2091 0104 12       		.uleb128 0x12
 2092 0105 06       		.uleb128 0x6
 2093 0106 40       		.uleb128 0x40
 2094 0107 18       		.uleb128 0x18
 2095 0108 9742     		.uleb128 0x2117
 2096 010a 19       		.uleb128 0x19
 2097 010b 01       		.uleb128 0x1
 2098 010c 13       		.uleb128 0x13
 2099 010d 00       		.byte	0
 2100 010e 00       		.byte	0
 2101 010f 15       		.uleb128 0x15
 2102 0110 05       		.uleb128 0x5
 2103 0111 00       		.byte	0
 2104 0112 31       		.uleb128 0x31
 2105 0113 13       		.uleb128 0x13
 2106 0114 02       		.uleb128 0x2
 2107 0115 18       		.uleb128 0x18
 2108 0116 00       		.byte	0
 2109 0117 00       		.byte	0
ARM GAS  /tmp/cc0xdMoy.s 			page 38


 2110 0118 16       		.uleb128 0x16
 2111 0119 34       		.uleb128 0x34
 2112 011a 00       		.byte	0
 2113 011b 31       		.uleb128 0x31
 2114 011c 13       		.uleb128 0x13
 2115 011d 02       		.uleb128 0x2
 2116 011e 18       		.uleb128 0x18
 2117 011f 00       		.byte	0
 2118 0120 00       		.byte	0
 2119 0121 17       		.uleb128 0x17
 2120 0122 1D       		.uleb128 0x1d
 2121 0123 01       		.byte	0x1
 2122 0124 31       		.uleb128 0x31
 2123 0125 13       		.uleb128 0x13
 2124 0126 52       		.uleb128 0x52
 2125 0127 01       		.uleb128 0x1
 2126 0128 55       		.uleb128 0x55
 2127 0129 17       		.uleb128 0x17
 2128 012a 58       		.uleb128 0x58
 2129 012b 0B       		.uleb128 0xb
 2130 012c 59       		.uleb128 0x59
 2131 012d 0B       		.uleb128 0xb
 2132 012e 01       		.uleb128 0x1
 2133 012f 13       		.uleb128 0x13
 2134 0130 00       		.byte	0
 2135 0131 00       		.byte	0
 2136 0132 18       		.uleb128 0x18
 2137 0133 0B       		.uleb128 0xb
 2138 0134 01       		.byte	0x1
 2139 0135 55       		.uleb128 0x55
 2140 0136 17       		.uleb128 0x17
 2141 0137 00       		.byte	0
 2142 0138 00       		.byte	0
 2143 0139 19       		.uleb128 0x19
 2144 013a 34       		.uleb128 0x34
 2145 013b 00       		.byte	0
 2146 013c 31       		.uleb128 0x31
 2147 013d 13       		.uleb128 0x13
 2148 013e 00       		.byte	0
 2149 013f 00       		.byte	0
 2150 0140 1A       		.uleb128 0x1a
 2151 0141 1D       		.uleb128 0x1d
 2152 0142 01       		.byte	0x1
 2153 0143 31       		.uleb128 0x31
 2154 0144 13       		.uleb128 0x13
 2155 0145 52       		.uleb128 0x52
 2156 0146 01       		.uleb128 0x1
 2157 0147 55       		.uleb128 0x55
 2158 0148 17       		.uleb128 0x17
 2159 0149 58       		.uleb128 0x58
 2160 014a 0B       		.uleb128 0xb
 2161 014b 59       		.uleb128 0x59
 2162 014c 0B       		.uleb128 0xb
 2163 014d 00       		.byte	0
 2164 014e 00       		.byte	0
 2165 014f 1B       		.uleb128 0x1b
 2166 0150 2E       		.uleb128 0x2e
ARM GAS  /tmp/cc0xdMoy.s 			page 39


 2167 0151 00       		.byte	0
 2168 0152 3F       		.uleb128 0x3f
 2169 0153 19       		.uleb128 0x19
 2170 0154 03       		.uleb128 0x3
 2171 0155 0E       		.uleb128 0xe
 2172 0156 3A       		.uleb128 0x3a
 2173 0157 0B       		.uleb128 0xb
 2174 0158 3B       		.uleb128 0x3b
 2175 0159 0B       		.uleb128 0xb
 2176 015a 27       		.uleb128 0x27
 2177 015b 19       		.uleb128 0x19
 2178 015c 11       		.uleb128 0x11
 2179 015d 01       		.uleb128 0x1
 2180 015e 12       		.uleb128 0x12
 2181 015f 06       		.uleb128 0x6
 2182 0160 40       		.uleb128 0x40
 2183 0161 18       		.uleb128 0x18
 2184 0162 9742     		.uleb128 0x2117
 2185 0164 19       		.uleb128 0x19
 2186 0165 00       		.byte	0
 2187 0166 00       		.byte	0
 2188 0167 1C       		.uleb128 0x1c
 2189 0168 05       		.uleb128 0x5
 2190 0169 00       		.byte	0
 2191 016a 31       		.uleb128 0x31
 2192 016b 13       		.uleb128 0x13
 2193 016c 02       		.uleb128 0x2
 2194 016d 17       		.uleb128 0x17
 2195 016e 00       		.byte	0
 2196 016f 00       		.byte	0
 2197 0170 1D       		.uleb128 0x1d
 2198 0171 2E       		.uleb128 0x2e
 2199 0172 01       		.byte	0x1
 2200 0173 3F       		.uleb128 0x3f
 2201 0174 19       		.uleb128 0x19
 2202 0175 03       		.uleb128 0x3
 2203 0176 0E       		.uleb128 0xe
 2204 0177 3A       		.uleb128 0x3a
 2205 0178 0B       		.uleb128 0xb
 2206 0179 3B       		.uleb128 0x3b
 2207 017a 0B       		.uleb128 0xb
 2208 017b 27       		.uleb128 0x27
 2209 017c 19       		.uleb128 0x19
 2210 017d 11       		.uleb128 0x11
 2211 017e 01       		.uleb128 0x1
 2212 017f 12       		.uleb128 0x12
 2213 0180 06       		.uleb128 0x6
 2214 0181 40       		.uleb128 0x40
 2215 0182 18       		.uleb128 0x18
 2216 0183 9742     		.uleb128 0x2117
 2217 0185 19       		.uleb128 0x19
 2218 0186 01       		.uleb128 0x1
 2219 0187 13       		.uleb128 0x13
 2220 0188 00       		.byte	0
 2221 0189 00       		.byte	0
 2222 018a 1E       		.uleb128 0x1e
 2223 018b 05       		.uleb128 0x5
ARM GAS  /tmp/cc0xdMoy.s 			page 40


 2224 018c 00       		.byte	0
 2225 018d 03       		.uleb128 0x3
 2226 018e 0E       		.uleb128 0xe
 2227 018f 3A       		.uleb128 0x3a
 2228 0190 0B       		.uleb128 0xb
 2229 0191 3B       		.uleb128 0x3b
 2230 0192 0B       		.uleb128 0xb
 2231 0193 49       		.uleb128 0x49
 2232 0194 13       		.uleb128 0x13
 2233 0195 02       		.uleb128 0x2
 2234 0196 17       		.uleb128 0x17
 2235 0197 00       		.byte	0
 2236 0198 00       		.byte	0
 2237 0199 1F       		.uleb128 0x1f
 2238 019a 34       		.uleb128 0x34
 2239 019b 00       		.byte	0
 2240 019c 03       		.uleb128 0x3
 2241 019d 08       		.uleb128 0x8
 2242 019e 3A       		.uleb128 0x3a
 2243 019f 0B       		.uleb128 0xb
 2244 01a0 3B       		.uleb128 0x3b
 2245 01a1 0B       		.uleb128 0xb
 2246 01a2 49       		.uleb128 0x49
 2247 01a3 13       		.uleb128 0x13
 2248 01a4 02       		.uleb128 0x2
 2249 01a5 17       		.uleb128 0x17
 2250 01a6 00       		.byte	0
 2251 01a7 00       		.byte	0
 2252 01a8 20       		.uleb128 0x20
 2253 01a9 34       		.uleb128 0x34
 2254 01aa 00       		.byte	0
 2255 01ab 31       		.uleb128 0x31
 2256 01ac 13       		.uleb128 0x13
 2257 01ad 02       		.uleb128 0x2
 2258 01ae 17       		.uleb128 0x17
 2259 01af 00       		.byte	0
 2260 01b0 00       		.byte	0
 2261 01b1 21       		.uleb128 0x21
 2262 01b2 898201   		.uleb128 0x4109
 2263 01b5 00       		.byte	0
 2264 01b6 11       		.uleb128 0x11
 2265 01b7 01       		.uleb128 0x1
 2266 01b8 9542     		.uleb128 0x2115
 2267 01ba 19       		.uleb128 0x19
 2268 01bb 31       		.uleb128 0x31
 2269 01bc 13       		.uleb128 0x13
 2270 01bd 00       		.byte	0
 2271 01be 00       		.byte	0
 2272 01bf 22       		.uleb128 0x22
 2273 01c0 2E       		.uleb128 0x2e
 2274 01c1 01       		.byte	0x1
 2275 01c2 3F       		.uleb128 0x3f
 2276 01c3 19       		.uleb128 0x19
 2277 01c4 03       		.uleb128 0x3
 2278 01c5 0E       		.uleb128 0xe
 2279 01c6 3A       		.uleb128 0x3a
 2280 01c7 0B       		.uleb128 0xb
ARM GAS  /tmp/cc0xdMoy.s 			page 41


 2281 01c8 3B       		.uleb128 0x3b
 2282 01c9 0B       		.uleb128 0xb
 2283 01ca 27       		.uleb128 0x27
 2284 01cb 19       		.uleb128 0x19
 2285 01cc 49       		.uleb128 0x49
 2286 01cd 13       		.uleb128 0x13
 2287 01ce 11       		.uleb128 0x11
 2288 01cf 01       		.uleb128 0x1
 2289 01d0 12       		.uleb128 0x12
 2290 01d1 06       		.uleb128 0x6
 2291 01d2 40       		.uleb128 0x40
 2292 01d3 18       		.uleb128 0x18
 2293 01d4 9742     		.uleb128 0x2117
 2294 01d6 19       		.uleb128 0x19
 2295 01d7 01       		.uleb128 0x1
 2296 01d8 13       		.uleb128 0x13
 2297 01d9 00       		.byte	0
 2298 01da 00       		.byte	0
 2299 01db 23       		.uleb128 0x23
 2300 01dc 0B       		.uleb128 0xb
 2301 01dd 01       		.byte	0x1
 2302 01de 11       		.uleb128 0x11
 2303 01df 01       		.uleb128 0x1
 2304 01e0 12       		.uleb128 0x12
 2305 01e1 06       		.uleb128 0x6
 2306 01e2 01       		.uleb128 0x1
 2307 01e3 13       		.uleb128 0x13
 2308 01e4 00       		.byte	0
 2309 01e5 00       		.byte	0
 2310 01e6 24       		.uleb128 0x24
 2311 01e7 34       		.uleb128 0x34
 2312 01e8 00       		.byte	0
 2313 01e9 03       		.uleb128 0x3
 2314 01ea 08       		.uleb128 0x8
 2315 01eb 3A       		.uleb128 0x3a
 2316 01ec 0B       		.uleb128 0xb
 2317 01ed 3B       		.uleb128 0x3b
 2318 01ee 0B       		.uleb128 0xb
 2319 01ef 49       		.uleb128 0x49
 2320 01f0 13       		.uleb128 0x13
 2321 01f1 02       		.uleb128 0x2
 2322 01f2 18       		.uleb128 0x18
 2323 01f3 00       		.byte	0
 2324 01f4 00       		.byte	0
 2325 01f5 25       		.uleb128 0x25
 2326 01f6 898201   		.uleb128 0x4109
 2327 01f9 01       		.byte	0x1
 2328 01fa 11       		.uleb128 0x11
 2329 01fb 01       		.uleb128 0x1
 2330 01fc 31       		.uleb128 0x31
 2331 01fd 13       		.uleb128 0x13
 2332 01fe 01       		.uleb128 0x1
 2333 01ff 13       		.uleb128 0x13
 2334 0200 00       		.byte	0
 2335 0201 00       		.byte	0
 2336 0202 26       		.uleb128 0x26
 2337 0203 8A8201   		.uleb128 0x410a
ARM GAS  /tmp/cc0xdMoy.s 			page 42


 2338 0206 00       		.byte	0
 2339 0207 02       		.uleb128 0x2
 2340 0208 18       		.uleb128 0x18
 2341 0209 9142     		.uleb128 0x2111
 2342 020b 18       		.uleb128 0x18
 2343 020c 00       		.byte	0
 2344 020d 00       		.byte	0
 2345 020e 27       		.uleb128 0x27
 2346 020f 898201   		.uleb128 0x4109
 2347 0212 01       		.byte	0x1
 2348 0213 11       		.uleb128 0x11
 2349 0214 01       		.uleb128 0x1
 2350 0215 31       		.uleb128 0x31
 2351 0216 13       		.uleb128 0x13
 2352 0217 00       		.byte	0
 2353 0218 00       		.byte	0
 2354 0219 28       		.uleb128 0x28
 2355 021a 05       		.uleb128 0x5
 2356 021b 00       		.byte	0
 2357 021c 03       		.uleb128 0x3
 2358 021d 08       		.uleb128 0x8
 2359 021e 3A       		.uleb128 0x3a
 2360 021f 0B       		.uleb128 0xb
 2361 0220 3B       		.uleb128 0x3b
 2362 0221 0B       		.uleb128 0xb
 2363 0222 49       		.uleb128 0x49
 2364 0223 13       		.uleb128 0x13
 2365 0224 02       		.uleb128 0x2
 2366 0225 17       		.uleb128 0x17
 2367 0226 00       		.byte	0
 2368 0227 00       		.byte	0
 2369 0228 29       		.uleb128 0x29
 2370 0229 1D       		.uleb128 0x1d
 2371 022a 01       		.byte	0x1
 2372 022b 31       		.uleb128 0x31
 2373 022c 13       		.uleb128 0x13
 2374 022d 11       		.uleb128 0x11
 2375 022e 01       		.uleb128 0x1
 2376 022f 12       		.uleb128 0x12
 2377 0230 06       		.uleb128 0x6
 2378 0231 58       		.uleb128 0x58
 2379 0232 0B       		.uleb128 0xb
 2380 0233 59       		.uleb128 0x59
 2381 0234 0B       		.uleb128 0xb
 2382 0235 01       		.uleb128 0x1
 2383 0236 13       		.uleb128 0x13
 2384 0237 00       		.byte	0
 2385 0238 00       		.byte	0
 2386 0239 2A       		.uleb128 0x2a
 2387 023a 0B       		.uleb128 0xb
 2388 023b 01       		.byte	0x1
 2389 023c 11       		.uleb128 0x11
 2390 023d 01       		.uleb128 0x1
 2391 023e 12       		.uleb128 0x12
 2392 023f 06       		.uleb128 0x6
 2393 0240 00       		.byte	0
 2394 0241 00       		.byte	0
ARM GAS  /tmp/cc0xdMoy.s 			page 43


 2395 0242 2B       		.uleb128 0x2b
 2396 0243 898201   		.uleb128 0x4109
 2397 0246 01       		.byte	0x1
 2398 0247 11       		.uleb128 0x11
 2399 0248 01       		.uleb128 0x1
 2400 0249 9542     		.uleb128 0x2115
 2401 024b 19       		.uleb128 0x19
 2402 024c 31       		.uleb128 0x31
 2403 024d 13       		.uleb128 0x13
 2404 024e 00       		.byte	0
 2405 024f 00       		.byte	0
 2406 0250 2C       		.uleb128 0x2c
 2407 0251 2E       		.uleb128 0x2e
 2408 0252 01       		.byte	0x1
 2409 0253 3F       		.uleb128 0x3f
 2410 0254 19       		.uleb128 0x19
 2411 0255 03       		.uleb128 0x3
 2412 0256 0E       		.uleb128 0xe
 2413 0257 3A       		.uleb128 0x3a
 2414 0258 0B       		.uleb128 0xb
 2415 0259 3B       		.uleb128 0x3b
 2416 025a 05       		.uleb128 0x5
 2417 025b 27       		.uleb128 0x27
 2418 025c 19       		.uleb128 0x19
 2419 025d 49       		.uleb128 0x49
 2420 025e 13       		.uleb128 0x13
 2421 025f 11       		.uleb128 0x11
 2422 0260 01       		.uleb128 0x1
 2423 0261 12       		.uleb128 0x12
 2424 0262 06       		.uleb128 0x6
 2425 0263 40       		.uleb128 0x40
 2426 0264 18       		.uleb128 0x18
 2427 0265 9742     		.uleb128 0x2117
 2428 0267 19       		.uleb128 0x19
 2429 0268 01       		.uleb128 0x1
 2430 0269 13       		.uleb128 0x13
 2431 026a 00       		.byte	0
 2432 026b 00       		.byte	0
 2433 026c 2D       		.uleb128 0x2d
 2434 026d 34       		.uleb128 0x34
 2435 026e 00       		.byte	0
 2436 026f 03       		.uleb128 0x3
 2437 0270 08       		.uleb128 0x8
 2438 0271 3A       		.uleb128 0x3a
 2439 0272 0B       		.uleb128 0xb
 2440 0273 3B       		.uleb128 0x3b
 2441 0274 05       		.uleb128 0x5
 2442 0275 49       		.uleb128 0x49
 2443 0276 13       		.uleb128 0x13
 2444 0277 02       		.uleb128 0x2
 2445 0278 18       		.uleb128 0x18
 2446 0279 00       		.byte	0
 2447 027a 00       		.byte	0
 2448 027b 2E       		.uleb128 0x2e
 2449 027c 34       		.uleb128 0x34
 2450 027d 00       		.byte	0
 2451 027e 03       		.uleb128 0x3
ARM GAS  /tmp/cc0xdMoy.s 			page 44


 2452 027f 08       		.uleb128 0x8
 2453 0280 3A       		.uleb128 0x3a
 2454 0281 0B       		.uleb128 0xb
 2455 0282 3B       		.uleb128 0x3b
 2456 0283 05       		.uleb128 0x5
 2457 0284 49       		.uleb128 0x49
 2458 0285 13       		.uleb128 0x13
 2459 0286 02       		.uleb128 0x2
 2460 0287 17       		.uleb128 0x17
 2461 0288 00       		.byte	0
 2462 0289 00       		.byte	0
 2463 028a 2F       		.uleb128 0x2f
 2464 028b 2E       		.uleb128 0x2e
 2465 028c 01       		.byte	0x1
 2466 028d 3F       		.uleb128 0x3f
 2467 028e 19       		.uleb128 0x19
 2468 028f 03       		.uleb128 0x3
 2469 0290 0E       		.uleb128 0xe
 2470 0291 3A       		.uleb128 0x3a
 2471 0292 0B       		.uleb128 0xb
 2472 0293 3B       		.uleb128 0x3b
 2473 0294 05       		.uleb128 0x5
 2474 0295 27       		.uleb128 0x27
 2475 0296 19       		.uleb128 0x19
 2476 0297 11       		.uleb128 0x11
 2477 0298 01       		.uleb128 0x1
 2478 0299 12       		.uleb128 0x12
 2479 029a 06       		.uleb128 0x6
 2480 029b 40       		.uleb128 0x40
 2481 029c 18       		.uleb128 0x18
 2482 029d 9742     		.uleb128 0x2117
 2483 029f 19       		.uleb128 0x19
 2484 02a0 01       		.uleb128 0x1
 2485 02a1 13       		.uleb128 0x13
 2486 02a2 00       		.byte	0
 2487 02a3 00       		.byte	0
 2488 02a4 30       		.uleb128 0x30
 2489 02a5 1D       		.uleb128 0x1d
 2490 02a6 01       		.byte	0x1
 2491 02a7 31       		.uleb128 0x31
 2492 02a8 13       		.uleb128 0x13
 2493 02a9 52       		.uleb128 0x52
 2494 02aa 01       		.uleb128 0x1
 2495 02ab 55       		.uleb128 0x55
 2496 02ac 17       		.uleb128 0x17
 2497 02ad 58       		.uleb128 0x58
 2498 02ae 0B       		.uleb128 0xb
 2499 02af 59       		.uleb128 0x59
 2500 02b0 05       		.uleb128 0x5
 2501 02b1 01       		.uleb128 0x1
 2502 02b2 13       		.uleb128 0x13
 2503 02b3 00       		.byte	0
 2504 02b4 00       		.byte	0
 2505 02b5 31       		.uleb128 0x31
 2506 02b6 34       		.uleb128 0x34
 2507 02b7 00       		.byte	0
 2508 02b8 03       		.uleb128 0x3
ARM GAS  /tmp/cc0xdMoy.s 			page 45


 2509 02b9 0E       		.uleb128 0xe
 2510 02ba 3A       		.uleb128 0x3a
 2511 02bb 0B       		.uleb128 0xb
 2512 02bc 3B       		.uleb128 0x3b
 2513 02bd 0B       		.uleb128 0xb
 2514 02be 49       		.uleb128 0x49
 2515 02bf 13       		.uleb128 0x13
 2516 02c0 3F       		.uleb128 0x3f
 2517 02c1 19       		.uleb128 0x19
 2518 02c2 02       		.uleb128 0x2
 2519 02c3 18       		.uleb128 0x18
 2520 02c4 00       		.byte	0
 2521 02c5 00       		.byte	0
 2522 02c6 32       		.uleb128 0x32
 2523 02c7 2E       		.uleb128 0x2e
 2524 02c8 01       		.byte	0x1
 2525 02c9 3F       		.uleb128 0x3f
 2526 02ca 19       		.uleb128 0x19
 2527 02cb 03       		.uleb128 0x3
 2528 02cc 0E       		.uleb128 0xe
 2529 02cd 3A       		.uleb128 0x3a
 2530 02ce 0B       		.uleb128 0xb
 2531 02cf 3B       		.uleb128 0x3b
 2532 02d0 05       		.uleb128 0x5
 2533 02d1 27       		.uleb128 0x27
 2534 02d2 19       		.uleb128 0x19
 2535 02d3 3C       		.uleb128 0x3c
 2536 02d4 19       		.uleb128 0x19
 2537 02d5 01       		.uleb128 0x1
 2538 02d6 13       		.uleb128 0x13
 2539 02d7 00       		.byte	0
 2540 02d8 00       		.byte	0
 2541 02d9 33       		.uleb128 0x33
 2542 02da 2E       		.uleb128 0x2e
 2543 02db 01       		.byte	0x1
 2544 02dc 3F       		.uleb128 0x3f
 2545 02dd 19       		.uleb128 0x19
 2546 02de 03       		.uleb128 0x3
 2547 02df 0E       		.uleb128 0xe
 2548 02e0 3A       		.uleb128 0x3a
 2549 02e1 0B       		.uleb128 0xb
 2550 02e2 3B       		.uleb128 0x3b
 2551 02e3 0B       		.uleb128 0xb
 2552 02e4 27       		.uleb128 0x27
 2553 02e5 19       		.uleb128 0x19
 2554 02e6 3C       		.uleb128 0x3c
 2555 02e7 19       		.uleb128 0x19
 2556 02e8 01       		.uleb128 0x1
 2557 02e9 13       		.uleb128 0x13
 2558 02ea 00       		.byte	0
 2559 02eb 00       		.byte	0
 2560 02ec 34       		.uleb128 0x34
 2561 02ed 2E       		.uleb128 0x2e
 2562 02ee 01       		.byte	0x1
 2563 02ef 3F       		.uleb128 0x3f
 2564 02f0 19       		.uleb128 0x19
 2565 02f1 03       		.uleb128 0x3
ARM GAS  /tmp/cc0xdMoy.s 			page 46


 2566 02f2 0E       		.uleb128 0xe
 2567 02f3 3A       		.uleb128 0x3a
 2568 02f4 0B       		.uleb128 0xb
 2569 02f5 3B       		.uleb128 0x3b
 2570 02f6 0B       		.uleb128 0xb
 2571 02f7 27       		.uleb128 0x27
 2572 02f8 19       		.uleb128 0x19
 2573 02f9 3C       		.uleb128 0x3c
 2574 02fa 19       		.uleb128 0x19
 2575 02fb 00       		.byte	0
 2576 02fc 00       		.byte	0
 2577 02fd 00       		.byte	0
 2578              		.section	.debug_loc,"",%progbits
 2579              	.Ldebug_loc0:
 2580              	.LLST0:
 2581 0000 00000000 		.4byte	.LVL6
 2582 0004 2C000000 		.4byte	.LVL9
 2583 0008 0100     		.2byte	0x1
 2584 000a 50       		.byte	0x50
 2585 000b 2C000000 		.4byte	.LVL9
 2586 000f 44000000 		.4byte	.LFE8
 2587 0013 0100     		.2byte	0x1
 2588 0015 5C       		.byte	0x5c
 2589 0016 00000000 		.4byte	0
 2590 001a 00000000 		.4byte	0
 2591              	.LLST1:
 2592 001e 00000000 		.4byte	.LVL10
 2593 0022 34000000 		.4byte	.LVL13
 2594 0026 0100     		.2byte	0x1
 2595 0028 50       		.byte	0x50
 2596 0029 34000000 		.4byte	.LVL13
 2597 002d 44000000 		.4byte	.LFE9
 2598 0031 0400     		.2byte	0x4
 2599 0033 F3       		.byte	0xf3
 2600 0034 01       		.uleb128 0x1
 2601 0035 50       		.byte	0x50
 2602 0036 9F       		.byte	0x9f
 2603 0037 00000000 		.4byte	0
 2604 003b 00000000 		.4byte	0
 2605              	.LLST2:
 2606 003f 18000000 		.4byte	.LVL11
 2607 0043 3F000000 		.4byte	.LVL14-1
 2608 0047 0100     		.2byte	0x1
 2609 0049 51       		.byte	0x51
 2610 004a 00000000 		.4byte	0
 2611 004e 00000000 		.4byte	0
 2612              	.LLST3:
 2613 0052 24000000 		.4byte	.LVL12
 2614 0056 3F000000 		.4byte	.LVL14-1
 2615 005a 0100     		.2byte	0x1
 2616 005c 52       		.byte	0x52
 2617 005d 00000000 		.4byte	0
 2618 0061 00000000 		.4byte	0
 2619              	.LLST4:
 2620 0065 00000000 		.4byte	.LVL15
 2621 0069 1C000000 		.4byte	.LVL16
 2622 006d 0100     		.2byte	0x1
ARM GAS  /tmp/cc0xdMoy.s 			page 47


 2623 006f 50       		.byte	0x50
 2624 0070 1C000000 		.4byte	.LVL16
 2625 0074 54000000 		.4byte	.LVL20
 2626 0078 0100     		.2byte	0x1
 2627 007a 55       		.byte	0x55
 2628 007b 54000000 		.4byte	.LVL20
 2629 007f 58000000 		.4byte	.LVL21
 2630 0083 0100     		.2byte	0x1
 2631 0085 50       		.byte	0x50
 2632 0086 58000000 		.4byte	.LVL21
 2633 008a 70000000 		.4byte	.LVL23
 2634 008e 0100     		.2byte	0x1
 2635 0090 55       		.byte	0x55
 2636 0091 70000000 		.4byte	.LVL23
 2637 0095 78000000 		.4byte	.LFE11
 2638 0099 0400     		.2byte	0x4
 2639 009b F3       		.byte	0xf3
 2640 009c 01       		.uleb128 0x1
 2641 009d 50       		.byte	0x50
 2642 009e 9F       		.byte	0x9f
 2643 009f 00000000 		.4byte	0
 2644 00a3 00000000 		.4byte	0
 2645              	.LLST5:
 2646 00a7 00000000 		.4byte	.LVL15
 2647 00ab 27000000 		.4byte	.LVL17-1
 2648 00af 0100     		.2byte	0x1
 2649 00b1 51       		.byte	0x51
 2650 00b2 27000000 		.4byte	.LVL17-1
 2651 00b6 54000000 		.4byte	.LVL20
 2652 00ba 0400     		.2byte	0x4
 2653 00bc F3       		.byte	0xf3
 2654 00bd 01       		.uleb128 0x1
 2655 00be 51       		.byte	0x51
 2656 00bf 9F       		.byte	0x9f
 2657 00c0 54000000 		.4byte	.LVL20
 2658 00c4 5B000000 		.4byte	.LVL22-1
 2659 00c8 0100     		.2byte	0x1
 2660 00ca 51       		.byte	0x51
 2661 00cb 5B000000 		.4byte	.LVL22-1
 2662 00cf 78000000 		.4byte	.LFE11
 2663 00d3 0400     		.2byte	0x4
 2664 00d5 F3       		.byte	0xf3
 2665 00d6 01       		.uleb128 0x1
 2666 00d7 51       		.byte	0x51
 2667 00d8 9F       		.byte	0x9f
 2668 00d9 00000000 		.4byte	0
 2669 00dd 00000000 		.4byte	0
 2670              	.LLST6:
 2671 00e1 00000000 		.4byte	.LVL24
 2672 00e5 1C000000 		.4byte	.LVL25
 2673 00e9 0100     		.2byte	0x1
 2674 00eb 50       		.byte	0x50
 2675 00ec 1C000000 		.4byte	.LVL25
 2676 00f0 98000000 		.4byte	.LVL33
 2677 00f4 0100     		.2byte	0x1
 2678 00f6 5E       		.byte	0x5e
 2679 00f7 98000000 		.4byte	.LVL33
ARM GAS  /tmp/cc0xdMoy.s 			page 48


 2680 00fb 9B000000 		.4byte	.LVL34-1
 2681 00ff 0100     		.2byte	0x1
 2682 0101 50       		.byte	0x50
 2683 0102 9B000000 		.4byte	.LVL34-1
 2684 0106 A0000000 		.4byte	.LFE12
 2685 010a 0400     		.2byte	0x4
 2686 010c F3       		.byte	0xf3
 2687 010d 01       		.uleb128 0x1
 2688 010e 50       		.byte	0x50
 2689 010f 9F       		.byte	0x9f
 2690 0110 00000000 		.4byte	0
 2691 0114 00000000 		.4byte	0
 2692              	.LLST7:
 2693 0118 00000000 		.4byte	.LVL24
 2694 011c 58000000 		.4byte	.LVL30
 2695 0120 0100     		.2byte	0x1
 2696 0122 51       		.byte	0x51
 2697 0123 58000000 		.4byte	.LVL30
 2698 0127 98000000 		.4byte	.LVL33
 2699 012b 0200     		.2byte	0x2
 2700 012d 7E       		.byte	0x7e
 2701 012e 14       		.sleb128 20
 2702 012f 98000000 		.4byte	.LVL33
 2703 0133 9B000000 		.4byte	.LVL34-1
 2704 0137 0200     		.2byte	0x2
 2705 0139 70       		.byte	0x70
 2706 013a 14       		.sleb128 20
 2707 013b 9B000000 		.4byte	.LVL34-1
 2708 013f A0000000 		.4byte	.LFE12
 2709 0143 0400     		.2byte	0x4
 2710 0145 F3       		.byte	0xf3
 2711 0146 01       		.uleb128 0x1
 2712 0147 51       		.byte	0x51
 2713 0148 9F       		.byte	0x9f
 2714 0149 00000000 		.4byte	0
 2715 014d 00000000 		.4byte	0
 2716              	.LLST8:
 2717 0151 24000000 		.4byte	.LVL26
 2718 0155 54000000 		.4byte	.LVL29
 2719 0159 0100     		.2byte	0x1
 2720 015b 5E       		.byte	0x5e
 2721 015c 00000000 		.4byte	0
 2722 0160 00000000 		.4byte	0
 2723              	.LLST9:
 2724 0164 2C000000 		.4byte	.LVL27
 2725 0168 54000000 		.4byte	.LVL29
 2726 016c 0100     		.2byte	0x1
 2727 016e 53       		.byte	0x53
 2728 016f 00000000 		.4byte	0
 2729 0173 00000000 		.4byte	0
 2730              	.LLST10:
 2731 0177 54000000 		.4byte	.LVL29
 2732 017b 98000000 		.4byte	.LVL33
 2733 017f 0100     		.2byte	0x1
 2734 0181 54       		.byte	0x54
 2735 0182 98000000 		.4byte	.LVL33
 2736 0186 9B000000 		.4byte	.LVL34-1
ARM GAS  /tmp/cc0xdMoy.s 			page 49


 2737 018a 0100     		.2byte	0x1
 2738 018c 51       		.byte	0x51
 2739 018d 00000000 		.4byte	0
 2740 0191 00000000 		.4byte	0
 2741              	.LLST11:
 2742 0195 60000000 		.4byte	.LVL31
 2743 0199 9B000000 		.4byte	.LVL34-1
 2744 019d 0100     		.2byte	0x1
 2745 019f 52       		.byte	0x52
 2746 01a0 00000000 		.4byte	0
 2747 01a4 00000000 		.4byte	0
 2748              	.LLST12:
 2749 01a8 1C000000 		.4byte	.LVL36
 2750 01ac 28000000 		.4byte	.LVL37
 2751 01b0 0100     		.2byte	0x1
 2752 01b2 50       		.byte	0x50
 2753 01b3 28000000 		.4byte	.LVL37
 2754 01b7 30000000 		.4byte	.LVL38
 2755 01bb 0200     		.2byte	0x2
 2756 01bd 72       		.byte	0x72
 2757 01be 08       		.sleb128 8
 2758 01bf 30000000 		.4byte	.LVL38
 2759 01c3 38000000 		.4byte	.LVL39
 2760 01c7 0100     		.2byte	0x1
 2761 01c9 50       		.byte	0x50
 2762 01ca 38000000 		.4byte	.LVL39
 2763 01ce 44000000 		.4byte	.LFE14
 2764 01d2 0200     		.2byte	0x2
 2765 01d4 72       		.byte	0x72
 2766 01d5 08       		.sleb128 8
 2767 01d6 00000000 		.4byte	0
 2768 01da 00000000 		.4byte	0
 2769              	.LLST13:
 2770 01de 1C000000 		.4byte	.LVL40
 2771 01e2 73000000 		.4byte	.LVL45-1
 2772 01e6 0100     		.2byte	0x1
 2773 01e8 5C       		.byte	0x5c
 2774 01e9 00000000 		.4byte	0
 2775 01ed 00000000 		.4byte	0
 2776              	.LLST14:
 2777 01f1 3C000000 		.4byte	.LVL41
 2778 01f5 73000000 		.4byte	.LVL45-1
 2779 01f9 0100     		.2byte	0x1
 2780 01fb 5C       		.byte	0x5c
 2781 01fc 00000000 		.4byte	0
 2782 0200 00000000 		.4byte	0
 2783              	.LLST15:
 2784 0204 40000000 		.4byte	.LVL42
 2785 0208 44000000 		.4byte	.LVL43
 2786 020c 0600     		.2byte	0x6
 2787 020e 03       		.byte	0x3
 2788 020f 00000000 		.4byte	rlist
 2789 0213 9F       		.byte	0x9f
 2790 0214 44000000 		.4byte	.LVL43
 2791 0218 73000000 		.4byte	.LVL45-1
 2792 021c 0100     		.2byte	0x1
 2793 021e 53       		.byte	0x53
ARM GAS  /tmp/cc0xdMoy.s 			page 50


 2794 021f 00000000 		.4byte	0
 2795 0223 00000000 		.4byte	0
 2796              	.LLST16:
 2797 0227 1C000000 		.4byte	.LVL40
 2798 022b 73000000 		.4byte	.LVL45-1
 2799 022f 0100     		.2byte	0x1
 2800 0231 50       		.byte	0x50
 2801 0232 00000000 		.4byte	0
 2802 0236 00000000 		.4byte	0
 2803              	.LLST17:
 2804 023a 18000000 		.4byte	.LVL46
 2805 023e 6B000000 		.4byte	.LVL50-1
 2806 0242 0100     		.2byte	0x1
 2807 0244 5C       		.byte	0x5c
 2808 0245 00000000 		.4byte	0
 2809 0249 00000000 		.4byte	0
 2810              	.LLST18:
 2811 024d 38000000 		.4byte	.LVL47
 2812 0251 3C000000 		.4byte	.LVL48
 2813 0255 0600     		.2byte	0x6
 2814 0257 03       		.byte	0x3
 2815 0258 00000000 		.4byte	rlist
 2816 025c 9F       		.byte	0x9f
 2817 025d 3C000000 		.4byte	.LVL48
 2818 0261 6B000000 		.4byte	.LVL50-1
 2819 0265 0100     		.2byte	0x1
 2820 0267 53       		.byte	0x53
 2821 0268 00000000 		.4byte	0
 2822 026c 00000000 		.4byte	0
 2823              	.LLST19:
 2824 0270 18000000 		.4byte	.LVL46
 2825 0274 6B000000 		.4byte	.LVL50-1
 2826 0278 0100     		.2byte	0x1
 2827 027a 50       		.byte	0x50
 2828 027b 00000000 		.4byte	0
 2829 027f 00000000 		.4byte	0
 2830              		.section	.debug_aranges,"",%progbits
 2831 0000 6C000000 		.4byte	0x6c
 2832 0004 0200     		.2byte	0x2
 2833 0006 00000000 		.4byte	.Ldebug_info0
 2834 000a 04       		.byte	0x4
 2835 000b 00       		.byte	0
 2836 000c 0000     		.2byte	0
 2837 000e 0000     		.2byte	0
 2838 0010 00000000 		.4byte	.LFB10
 2839 0014 64000000 		.4byte	.LFE10-.LFB10
 2840 0018 00000000 		.4byte	.LFB7
 2841 001c 1C000000 		.4byte	.LFE7-.LFB7
 2842 0020 00000000 		.4byte	.LFB8
 2843 0024 44000000 		.4byte	.LFE8-.LFB8
 2844 0028 00000000 		.4byte	.LFB9
 2845 002c 44000000 		.4byte	.LFE9-.LFB9
 2846 0030 00000000 		.4byte	.LFB11
 2847 0034 78000000 		.4byte	.LFE11-.LFB11
 2848 0038 00000000 		.4byte	.LFB12
 2849 003c A0000000 		.4byte	.LFE12-.LFB12
 2850 0040 00000000 		.4byte	.LFB14
ARM GAS  /tmp/cc0xdMoy.s 			page 51


 2851 0044 44000000 		.4byte	.LFE14-.LFB14
 2852 0048 00000000 		.4byte	.LFB15
 2853 004c 78000000 		.4byte	.LFE15-.LFB15
 2854 0050 00000000 		.4byte	.LFB16
 2855 0054 70000000 		.4byte	.LFE16-.LFB16
 2856 0058 00000000 		.4byte	.LFB13
 2857 005c 24000000 		.4byte	.LFE13-.LFB13
 2858 0060 00000000 		.4byte	.LFB17
 2859 0064 20000000 		.4byte	.LFE17-.LFB17
 2860 0068 00000000 		.4byte	0
 2861 006c 00000000 		.4byte	0
 2862              		.section	.debug_ranges,"",%progbits
 2863              	.Ldebug_ranges0:
 2864 0000 10000000 		.4byte	.LBB31
 2865 0004 1C000000 		.4byte	.LBE31
 2866 0008 20000000 		.4byte	.LBB41
 2867 000c 24000000 		.4byte	.LBE41
 2868 0010 00000000 		.4byte	0
 2869 0014 00000000 		.4byte	0
 2870 0018 1C000000 		.4byte	.LBB34
 2871 001c 20000000 		.4byte	.LBE34
 2872 0020 24000000 		.4byte	.LBB42
 2873 0024 64000000 		.4byte	.LBE42
 2874 0028 00000000 		.4byte	0
 2875 002c 00000000 		.4byte	0
 2876 0030 24000000 		.4byte	.LBB36
 2877 0034 30000000 		.4byte	.LBE36
 2878 0038 34000000 		.4byte	.LBB39
 2879 003c 64000000 		.4byte	.LBE39
 2880 0040 00000000 		.4byte	0
 2881 0044 00000000 		.4byte	0
 2882 0048 10000000 		.4byte	.LBB43
 2883 004c 14000000 		.4byte	.LBE43
 2884 0050 18000000 		.4byte	.LBB48
 2885 0054 1C000000 		.4byte	.LBE48
 2886 0058 24000000 		.4byte	.LBB49
 2887 005c 28000000 		.4byte	.LBE49
 2888 0060 38000000 		.4byte	.LBB50
 2889 0064 3C000000 		.4byte	.LBE50
 2890 0068 00000000 		.4byte	0
 2891 006c 00000000 		.4byte	0
 2892 0070 54000000 		.4byte	.LBB54
 2893 0074 94000000 		.4byte	.LBE54
 2894 0078 98000000 		.4byte	.LBB61
 2895 007c A0000000 		.4byte	.LBE61
 2896 0080 00000000 		.4byte	0
 2897 0084 00000000 		.4byte	0
 2898 0088 54000000 		.4byte	.LBB55
 2899 008c 70000000 		.4byte	.LBE55
 2900 0090 74000000 		.4byte	.LBB59
 2901 0094 78000000 		.4byte	.LBE59
 2902 0098 7C000000 		.4byte	.LBB60
 2903 009c 88000000 		.4byte	.LBE60
 2904 00a0 00000000 		.4byte	0
 2905 00a4 00000000 		.4byte	0
 2906 00a8 0C000000 		.4byte	.LBB62
 2907 00ac 10000000 		.4byte	.LBE62
ARM GAS  /tmp/cc0xdMoy.s 			page 52


 2908 00b0 24000000 		.4byte	.LBB72
 2909 00b4 28000000 		.4byte	.LBE72
 2910 00b8 3C000000 		.4byte	.LBB74
 2911 00bc 58000000 		.4byte	.LBE74
 2912 00c0 60000000 		.4byte	.LBB75
 2913 00c4 70000000 		.4byte	.LBE75
 2914 00c8 00000000 		.4byte	0
 2915 00cc 00000000 		.4byte	0
 2916 00d0 14000000 		.4byte	.LBB67
 2917 00d4 18000000 		.4byte	.LBE67
 2918 00d8 1C000000 		.4byte	.LBB71
 2919 00dc 24000000 		.4byte	.LBE71
 2920 00e0 28000000 		.4byte	.LBB73
 2921 00e4 30000000 		.4byte	.LBE73
 2922 00e8 00000000 		.4byte	0
 2923 00ec 00000000 		.4byte	0
 2924 00f0 10000000 		.4byte	.LBB76
 2925 00f4 14000000 		.4byte	.LBE76
 2926 00f8 18000000 		.4byte	.LBB80
 2927 00fc 20000000 		.4byte	.LBE80
 2928 0100 24000000 		.4byte	.LBB81
 2929 0104 2C000000 		.4byte	.LBE81
 2930 0108 00000000 		.4byte	0
 2931 010c 00000000 		.4byte	0
 2932 0110 00000000 		.4byte	.LFB10
 2933 0114 64000000 		.4byte	.LFE10
 2934 0118 00000000 		.4byte	.LFB7
 2935 011c 1C000000 		.4byte	.LFE7
 2936 0120 00000000 		.4byte	.LFB8
 2937 0124 44000000 		.4byte	.LFE8
 2938 0128 00000000 		.4byte	.LFB9
 2939 012c 44000000 		.4byte	.LFE9
 2940 0130 00000000 		.4byte	.LFB11
 2941 0134 78000000 		.4byte	.LFE11
 2942 0138 00000000 		.4byte	.LFB12
 2943 013c A0000000 		.4byte	.LFE12
 2944 0140 00000000 		.4byte	.LFB14
 2945 0144 44000000 		.4byte	.LFE14
 2946 0148 00000000 		.4byte	.LFB15
 2947 014c 78000000 		.4byte	.LFE15
 2948 0150 00000000 		.4byte	.LFB16
 2949 0154 70000000 		.4byte	.LFE16
 2950 0158 00000000 		.4byte	.LFB13
 2951 015c 24000000 		.4byte	.LFE13
 2952 0160 00000000 		.4byte	.LFB17
 2953 0164 20000000 		.4byte	.LFE17
 2954 0168 00000000 		.4byte	0
 2955 016c 00000000 		.4byte	0
 2956              		.section	.debug_line,"",%progbits
 2957              	.Ldebug_line0:
 2958 0000 36030000 		.section	.debug_str,"MS",%progbits,1
 2958      02002401 
 2958      00000201 
 2958      FB0E0D00 
 2958      01010101 
 2959              	.LASF76:
 2960 0000 2F686F6D 		.ascii	"/home/hunter/development/chibi/ChibiOS-RPi/testhal/"
ARM GAS  /tmp/cc0xdMoy.s 			page 53


 2960      652F6875 
 2960      6E746572 
 2960      2F646576 
 2960      656C6F70 
 2961 0033 42434D32 		.ascii	"BCM2835/GPIO\000"
 2961      3833352F 
 2961      4750494F 
 2961      00
 2962              	.LASF56:
 2963 0040 7264796D 		.ascii	"rdymsg\000"
 2963      736700
 2964              	.LASF69:
 2965 0047 63685363 		.ascii	"chSchDoRescheduleAhead\000"
 2965      68446F52 
 2965      65736368 
 2965      6564756C 
 2965      65416865 
 2966              	.LASF6:
 2967 005e 5F5F7569 		.ascii	"__uint8_t\000"
 2967      6E74385F 
 2967      7400
 2968              	.LASF10:
 2969 0068 6C6F6E67 		.ascii	"long long unsigned int\000"
 2969      206C6F6E 
 2969      6720756E 
 2969      7369676E 
 2969      65642069 
 2970              	.LASF57:
 2971 007f 65786974 		.ascii	"exitcode\000"
 2971      636F6465 
 2971      00
 2972              	.LASF26:
 2973 0088 705F7072 		.ascii	"p_prio\000"
 2973      696F00
 2974              	.LASF79:
 2975 008f 5F736368 		.ascii	"_scheduler_init\000"
 2975      6564756C 
 2975      65725F69 
 2975      6E697400 
 2976              	.LASF9:
 2977 009f 6C6F6E67 		.ascii	"long long int\000"
 2977      206C6F6E 
 2977      6720696E 
 2977      7400
 2978              	.LASF2:
 2979 00ad 7369676E 		.ascii	"signed char\000"
 2979      65642063 
 2979      68617200 
 2980              	.LASF15:
 2981 00b9 626F6F6C 		.ascii	"bool_t\000"
 2981      5F7400
 2982              	.LASF53:
 2983 00c0 6D5F7175 		.ascii	"m_queue\000"
 2983      65756500 
 2984              	.LASF75:
 2985 00c8 2E2E2F2E 		.ascii	"../../../os/kernel/src/chschd.c\000"
 2985      2E2F2E2E 
ARM GAS  /tmp/cc0xdMoy.s 			page 54


 2985      2F6F732F 
 2985      6B65726E 
 2985      656C2F73 
 2986              	.LASF0:
 2987 00e8 6C6F6E67 		.ascii	"long int\000"
 2987      20696E74 
 2987      00
 2988              	.LASF17:
 2989 00f1 74737461 		.ascii	"tstate_t\000"
 2989      74655F74 
 2989      00
 2990              	.LASF67:
 2991 00fa 63685363 		.ascii	"chSchIsPreemptionRequired\000"
 2991      68497350 
 2991      7265656D 
 2991      7074696F 
 2991      6E526571 
 2992              	.LASF70:
 2993 0114 63685363 		.ascii	"chSchRescheduleS\000"
 2993      68526573 
 2993      63686564 
 2993      756C6553 
 2993      00
 2994              	.LASF8:
 2995 0125 5F5F7569 		.ascii	"__uint32_t\000"
 2995      6E743332 
 2995      5F7400
 2996              	.LASF37:
 2997 0130 72656761 		.ascii	"regarm_t\000"
 2997      726D5F74 
 2997      00
 2998              	.LASF43:
 2999 0139 76745F70 		.ascii	"vt_prev\000"
 2999      72657600 
 3000              	.LASF71:
 3001 0141 63685363 		.ascii	"chSchDoReschedule\000"
 3001      68446F52 
 3001      65736368 
 3001      6564756C 
 3001      6500
 3002              	.LASF14:
 3003 0153 756E7369 		.ascii	"unsigned int\000"
 3003      676E6564 
 3003      20696E74 
 3003      00
 3004              	.LASF78:
 3005 0160 77616B65 		.ascii	"wakeup\000"
 3005      757000
 3006              	.LASF42:
 3007 0167 76745F6E 		.ascii	"vt_next\000"
 3007      65787400 
 3008              	.LASF72:
 3009 016f 5F706F72 		.ascii	"_port_switch_arm\000"
 3009      745F7377 
 3009      69746368 
 3009      5F61726D 
 3009      00
ARM GAS  /tmp/cc0xdMoy.s 			page 55


 3010              	.LASF1:
 3011 0180 6C6F6E67 		.ascii	"long unsigned int\000"
 3011      20756E73 
 3011      69676E65 
 3011      6420696E 
 3011      7400
 3012              	.LASF40:
 3013 0192 76746675 		.ascii	"vtfunc_t\000"
 3013      6E635F74 
 3013      00
 3014              	.LASF5:
 3015 019b 73686F72 		.ascii	"short unsigned int\000"
 3015      7420756E 
 3015      7369676E 
 3015      65642069 
 3015      6E7400
 3016              	.LASF65:
 3017 01ae 63685363 		.ascii	"chSchWakeupS\000"
 3017      6857616B 
 3017      65757053 
 3017      00
 3018              	.LASF20:
 3019 01bb 6D73675F 		.ascii	"msg_t\000"
 3019      7400
 3020              	.LASF16:
 3021 01c1 746D6F64 		.ascii	"tmode_t\000"
 3021      655F7400 
 3022              	.LASF36:
 3023 01c9 54687265 		.ascii	"ThreadsList\000"
 3023      6164734C 
 3023      69737400 
 3024              	.LASF21:
 3025 01d5 6576656E 		.ascii	"eventmask_t\000"
 3025      746D6173 
 3025      6B5F7400 
 3026              	.LASF52:
 3027 01e1 4D757465 		.ascii	"Mutex\000"
 3027      7800
 3028              	.LASF74:
 3029 01e7 474E5520 		.ascii	"GNU C 4.9.3 20150529 (prerelease) -mcpu=arm1176jz-s"
 3029      4320342E 
 3029      392E3320 
 3029      32303135 
 3029      30353239 
 3030 021a 202D6D61 		.ascii	" -mabi=apcs-gnu -mno-thumb-interwork -ggdb -O2 -fom"
 3030      62693D61 
 3030      7063732D 
 3030      676E7520 
 3030      2D6D6E6F 
 3031 024d 69742D66 		.ascii	"it-frame-pointer -ffunction-sections -fdata-section"
 3031      72616D65 
 3031      2D706F69 
 3031      6E746572 
 3031      202D6666 
 3032 0280 7300     		.ascii	"s\000"
 3033              	.LASF44:
 3034 0282 76745F74 		.ascii	"vt_time\000"
ARM GAS  /tmp/cc0xdMoy.s 			page 56


 3034      696D6500 
 3035              	.LASF45:
 3036 028a 76745F66 		.ascii	"vt_func\000"
 3036      756E6300 
 3037              	.LASF68:
 3038 0292 63685363 		.ascii	"chSchDoRescheduleBehind\000"
 3038      68446F52 
 3038      65736368 
 3038      6564756C 
 3038      65426568 
 3039              	.LASF73:
 3040 02aa 63685654 		.ascii	"chVTSetI\000"
 3040      53657449 
 3040      00
 3041              	.LASF61:
 3042 02b3 6669666F 		.ascii	"fifo_remove\000"
 3042      5F72656D 
 3042      6F766500 
 3043              	.LASF49:
 3044 02bf 725F6374 		.ascii	"r_ctx\000"
 3044      7800
 3045              	.LASF35:
 3046 02c5 54687265 		.ascii	"ThreadsQueue\000"
 3046      61647351 
 3046      75657565 
 3046      00
 3047              	.LASF60:
 3048 02d2 64657175 		.ascii	"dequeue\000"
 3048      65756500 
 3049              	.LASF50:
 3050 02da 725F6375 		.ascii	"r_current\000"
 3050      7272656E 
 3050      7400
 3051              	.LASF25:
 3052 02e4 705F7072 		.ascii	"p_prev\000"
 3052      657600
 3053              	.LASF19:
 3054 02eb 74707269 		.ascii	"tprio_t\000"
 3054      6F5F7400 
 3055              	.LASF12:
 3056 02f3 696E7433 		.ascii	"int32_t\000"
 3056      325F7400 
 3057              	.LASF3:
 3058 02fb 756E7369 		.ascii	"unsigned char\000"
 3058      676E6564 
 3058      20636861 
 3058      7200
 3059              	.LASF62:
 3060 0309 6E657773 		.ascii	"newstate\000"
 3060      74617465 
 3060      00
 3061              	.LASF33:
 3062 0312 705F6D74 		.ascii	"p_mtxlist\000"
 3062      786C6973 
 3062      7400
 3063              	.LASF4:
 3064 031c 73686F72 		.ascii	"short int\000"
ARM GAS  /tmp/cc0xdMoy.s 			page 57


 3064      7420696E 
 3064      7400
 3065              	.LASF28:
 3066 0326 705F7374 		.ascii	"p_state\000"
 3066      61746500 
 3067              	.LASF30:
 3068 032e 705F7072 		.ascii	"p_preempt\000"
 3068      65656D70 
 3068      7400
 3069              	.LASF48:
 3070 0338 725F7072 		.ascii	"r_prio\000"
 3070      696F00
 3071              	.LASF59:
 3072 033f 65776D61 		.ascii	"ewmask\000"
 3072      736B00
 3073              	.LASF24:
 3074 0346 705F6E65 		.ascii	"p_next\000"
 3074      787400
 3075              	.LASF29:
 3076 034d 705F666C 		.ascii	"p_flags\000"
 3076      61677300 
 3077              	.LASF23:
 3078 0355 54687265 		.ascii	"Thread\000"
 3078      616400
 3079              	.LASF81:
 3080 035c 63685654 		.ascii	"chVTResetI\000"
 3080      52657365 
 3080      744900
 3081              	.LASF64:
 3082 0367 63685363 		.ascii	"chSchGoSleepS\000"
 3082      68476F53 
 3082      6C656570 
 3082      5300
 3083              	.LASF32:
 3084 0375 705F6570 		.ascii	"p_epending\000"
 3084      656E6469 
 3084      6E6700
 3085              	.LASF13:
 3086 0380 75696E74 		.ascii	"uint32_t\000"
 3086      33325F74 
 3086      00
 3087              	.LASF47:
 3088 0389 725F7175 		.ascii	"r_queue\000"
 3088      65756500 
 3089              	.LASF41:
 3090 0391 56697274 		.ascii	"VirtualTimer\000"
 3090      75616C54 
 3090      696D6572 
 3090      00
 3091              	.LASF18:
 3092 039e 74736C69 		.ascii	"tslices_t\000"
 3092      6365735F 
 3092      7400
 3093              	.LASF77:
 3094 03a8 63685363 		.ascii	"chSchReadyI\000"
 3094      68526561 
 3094      64794900 
ARM GAS  /tmp/cc0xdMoy.s 			page 58


 3095              	.LASF55:
 3096 03b4 6D5F6E65 		.ascii	"m_next\000"
 3096      787400
 3097              	.LASF22:
 3098 03bb 73797374 		.ascii	"systime_t\000"
 3098      696D655F 
 3098      7400
 3099              	.LASF34:
 3100 03c5 705F7265 		.ascii	"p_realprio\000"
 3100      616C7072 
 3100      696F00
 3101              	.LASF7:
 3102 03d0 5F5F696E 		.ascii	"__int32_t\000"
 3102      7433325F 
 3102      7400
 3103              	.LASF39:
 3104 03da 636F6E74 		.ascii	"context\000"
 3104      65787400 
 3105              	.LASF38:
 3106 03e2 696E7463 		.ascii	"intctx\000"
 3106      747800
 3107              	.LASF63:
 3108 03e9 74696D65 		.ascii	"time\000"
 3108      00
 3109              	.LASF46:
 3110 03ee 76745F70 		.ascii	"vt_par\000"
 3110      617200
 3111              	.LASF51:
 3112 03f5 52656164 		.ascii	"ReadyList\000"
 3112      794C6973 
 3112      7400
 3113              	.LASF80:
 3114 03ff 726C6973 		.ascii	"rlist\000"
 3114      7400
 3115              	.LASF11:
 3116 0405 75696E74 		.ascii	"uint8_t\000"
 3116      385F7400 
 3117              	.LASF58:
 3118 040d 77746F62 		.ascii	"wtobjp\000"
 3118      6A7000
 3119              	.LASF66:
 3120 0414 63685363 		.ascii	"chSchGoSleepTimeoutS\000"
 3120      68476F53 
 3120      6C656570 
 3120      54696D65 
 3120      6F757453 
 3121              	.LASF54:
 3122 0429 6D5F6F77 		.ascii	"m_owner\000"
 3122      6E657200 
 3123              	.LASF27:
 3124 0431 705F6374 		.ascii	"p_ctx\000"
 3124      7800
 3125              	.LASF31:
 3126 0437 705F7761 		.ascii	"p_waiting\000"
 3126      6974696E 
 3126      6700
 3127              		.ident	"GCC: (15:4.9.3+svn231177-1) 4.9.3 20150529 (prerelease)"
ARM GAS  /tmp/cc0xdMoy.s 			page 59


ARM GAS  /tmp/cc0xdMoy.s 			page 60


DEFINED SYMBOLS
                            *ABS*:0000000000000000 chschd.c
     /tmp/cc0xdMoy.s:6      .text.wakeup:0000000000000000 $a
     /tmp/cc0xdMoy.s:8      .text.wakeup:0000000000000000 wakeup
     /tmp/cc0xdMoy.s:86     .text.wakeup:0000000000000060 $d
                            *COM*:0000000000000014 rlist
     /tmp/cc0xdMoy.s:95     .text._scheduler_init:0000000000000000 $a
     /tmp/cc0xdMoy.s:98     .text._scheduler_init:0000000000000000 _scheduler_init
     /tmp/cc0xdMoy.s:118    .text._scheduler_init:0000000000000018 $d
     /tmp/cc0xdMoy.s:123    .text.chSchReadyI:0000000000000000 $a
     /tmp/cc0xdMoy.s:126    .text.chSchReadyI:0000000000000000 chSchReadyI
     /tmp/cc0xdMoy.s:169    .text.chSchReadyI:0000000000000040 $d
     /tmp/cc0xdMoy.s:174    .text.chSchGoSleepS:0000000000000000 $a
     /tmp/cc0xdMoy.s:177    .text.chSchGoSleepS:0000000000000000 chSchGoSleepS
     /tmp/cc0xdMoy.s:244    .text.chSchGoSleepS:0000000000000040 $d
     /tmp/cc0xdMoy.s:249    .text.chSchGoSleepTimeoutS:0000000000000000 $a
     /tmp/cc0xdMoy.s:252    .text.chSchGoSleepTimeoutS:0000000000000000 chSchGoSleepTimeoutS
     /tmp/cc0xdMoy.s:326    .text.chSchGoSleepTimeoutS:0000000000000070 $d
     /tmp/cc0xdMoy.s:332    .text.chSchWakeupS:0000000000000000 $a
     /tmp/cc0xdMoy.s:335    .text.chSchWakeupS:0000000000000000 chSchWakeupS
     /tmp/cc0xdMoy.s:452    .text.chSchWakeupS:000000000000009c $d
     /tmp/cc0xdMoy.s:458    .text.chSchIsPreemptionRequired:0000000000000000 $a
     /tmp/cc0xdMoy.s:461    .text.chSchIsPreemptionRequired:0000000000000000 chSchIsPreemptionRequired
     /tmp/cc0xdMoy.s:504    .text.chSchIsPreemptionRequired:0000000000000040 $d
     /tmp/cc0xdMoy.s:509    .text.chSchDoRescheduleBehind:0000000000000000 $a
     /tmp/cc0xdMoy.s:512    .text.chSchDoRescheduleBehind:0000000000000000 chSchDoRescheduleBehind
     /tmp/cc0xdMoy.s:617    .text.chSchDoRescheduleBehind:0000000000000074 $d
     /tmp/cc0xdMoy.s:622    .text.chSchDoRescheduleAhead:0000000000000000 $a
     /tmp/cc0xdMoy.s:625    .text.chSchDoRescheduleAhead:0000000000000000 chSchDoRescheduleAhead
     /tmp/cc0xdMoy.s:707    .text.chSchDoRescheduleAhead:000000000000006c $d
     /tmp/cc0xdMoy.s:712    .text.chSchRescheduleS:0000000000000000 $a
     /tmp/cc0xdMoy.s:715    .text.chSchRescheduleS:0000000000000000 chSchRescheduleS
     /tmp/cc0xdMoy.s:736    .text.chSchRescheduleS:0000000000000020 $d
     /tmp/cc0xdMoy.s:741    .text.chSchDoReschedule:0000000000000000 $a
     /tmp/cc0xdMoy.s:744    .text.chSchDoReschedule:0000000000000000 chSchDoReschedule
     /tmp/cc0xdMoy.s:767    .text.chSchDoReschedule:000000000000001c $d
                     .debug_frame:0000000000000010 $d

UNDEFINED SYMBOLS
_port_switch_arm
chVTSetI
chVTResetI
