ARM GAS  /tmp/cckg9igp.s 			page 1


   1              		.file	"chsys.c"
   2              		.text
   3              	.Ltext0:
   4              		.cfi_sections	.debug_frame
   5              		.section	.text._idle_thread,"ax",%progbits
   6              		.align	2
   7              		.global	_idle_thread
   8              		.type	_idle_thread, %function
   9              	_idle_thread:
  10              	.LFB7:
  11              		.file 1 "../../../os/kernel/src/chsys.c"
  12              		.loc 1 54 0
  13              		.cfi_startproc
  14              		@ Volatile: function does not return.
  15              		@ args = 0, pretend = 0, frame = 0
  16              		@ frame_needed = 0, uses_anonymous_args = 0
  17              		@ link register save eliminated.
  18              	.LVL0:
  19              	.L2:
  20              		.loc 1 59 0 discriminator 1
  21              	@ 59 "../../../os/kernel/src/chsys.c" 1
  22 0000 900F07EE 		MCR p15,0,r0,c7,c0,4
  23              	@ 0 "" 2
  24              		.loc 1 61 0 discriminator 1
  25 0004 FDFFFFEA 		b	.L2
  26              		.cfi_endproc
  27              	.LFE7:
  28              		.size	_idle_thread, .-_idle_thread
  29              		.section	.text.chSysInit,"ax",%progbits
  30              		.align	2
  31              		.global	chSysInit
  32              		.type	chSysInit, %function
  33              	chSysInit:
  34              	.LFB8:
  35              		.loc 1 77 0
  36              		.cfi_startproc
  37              		@ args = 0, pretend = 0, frame = 0
  38              		@ frame_needed = 0, uses_anonymous_args = 0
  39 0000 04E02DE5 		str	lr, [sp, #-4]!
  40              		.cfi_def_cfa_offset 4
  41              		.cfi_offset 14, -4
  42 0004 04D04DE2 		sub	sp, sp, #4
  43              		.cfi_def_cfa_offset 8
  44              		.loc 1 84 0
  45 0008 FEFFFFEB 		bl	_scheduler_init
  46              	.LVL1:
  47              		.loc 1 85 0
  48 000c FEFFFFEB 		bl	_vt_init
  49              	.LVL2:
  50              		.loc 1 97 0
  51 0010 4010A0E3 		mov	r1, #64
  52 0014 34009FE5 		ldr	r0, .L5
  53 0018 FEFFFFEB 		bl	_thread_init
  54              	.LVL3:
  55              		.loc 1 98 0
  56 001c 0120A0E3 		mov	r2, #1
  57              		.loc 1 97 0
ARM GAS  /tmp/cckg9igp.s 			page 2


  58 0020 2C309FE5 		ldr	r3, .L5+4
  59 0024 100083E5 		str	r0, [r3, #16]
  60              		.loc 1 98 0
  61 0028 1020C0E5 		strb	r2, [r0, #16]
  62              		.loc 1 104 0
  63              	@ 104 "../../../os/kernel/src/chsys.c" 1
  64 002c 1FF021E3 		msr     CPSR_c, #0x1F
  65              	@ 0 "" 2
  66              		.loc 1 114 0
  67 0030 0030A0E3 		mov	r3, #0
  68 0034 8010A0E3 		mov	r1, #128
  69 0038 00308DE5 		str	r3, [sp]
  70 003c 14009FE5 		ldr	r0, .L5+8
  71 0040 14309FE5 		ldr	r3, .L5+12
  72 0044 FEFFFFEB 		bl	chThdCreateStatic
  73              	.LVL4:
  74              		.loc 1 117 0
  75 0048 04D08DE2 		add	sp, sp, #4
  76              		.cfi_def_cfa_offset 4
  77              		@ sp needed
  78 004c 04F09DE4 		ldr	pc, [sp], #4
  79              	.L6:
  80              		.align	2
  81              	.L5:
  82 0050 00000000 		.word	.LANCHOR0
  83 0054 00000000 		.word	rlist
  84 0058 00000000 		.word	_idle_thread_wa
  85 005c 00000000 		.word	_idle_thread
  86              		.cfi_endproc
  87              	.LFE8:
  88              		.size	chSysInit, .-chSysInit
  89              		.section	.text.chSysTimerHandlerI,"ax",%progbits
  90              		.align	2
  91              		.global	chSysTimerHandlerI
  92              		.type	chSysTimerHandlerI, %function
  93              	chSysTimerHandlerI:
  94              	.LFB9:
  95              		.loc 1 130 0
  96              		.cfi_startproc
  97              		@ args = 0, pretend = 0, frame = 0
  98              		@ frame_needed = 0, uses_anonymous_args = 0
  99 0000 30402DE9 		stmfd	sp!, {r4, r5, lr}
 100              		.cfi_def_cfa_offset 12
 101              		.cfi_offset 4, -12
 102              		.cfi_offset 5, -8
 103              		.cfi_offset 14, -4
 104              		.loc 1 136 0
 105 0004 70309FE5 		ldr	r3, .L19
 106              		.loc 1 143 0
 107 0008 70409FE5 		ldr	r4, .L19+4
 108              		.loc 1 136 0
 109 000c 102093E5 		ldr	r2, [r3, #16]
 110 0010 1230D2E5 		ldrb	r3, [r2, #18]	@ zero_extendqisi2
 111 0014 000053E3 		cmp	r3, #0
 112              		.loc 1 138 0
 113 0018 01304312 		subne	r3, r3, #1
 114 001c 1230C215 		strneb	r3, [r2, #18]
ARM GAS  /tmp/cckg9igp.s 			page 3


 115              		.loc 1 143 0
 116 0020 0C2094E5 		ldr	r2, [r4, #12]
 117 0024 003094E5 		ldr	r3, [r4]
 118 0028 012082E2 		add	r2, r2, #1
 119 002c 040053E1 		cmp	r3, r4
 120 0030 0C2084E5 		str	r2, [r4, #12]
 121 0034 3080BD08 		ldmeqfd	sp!, {r4, r5, pc}
 122              	.LBB2:
 123              		.loc 1 143 0 is_stmt 0 discriminator 1
 124 0038 085093E5 		ldr	r5, [r3, #8]
 125 003c 015045E2 		sub	r5, r5, #1
 126 0040 000055E3 		cmp	r5, #0
 127 0044 085083E5 		str	r5, [r3, #8]
 128              	.LVL5:
 129 0048 3080BD18 		ldmnefd	sp!, {r4, r5, pc}
 130              	.L11:
 131              	.LBB3:
 132              		.loc 1 143 0 discriminator 4
 133 004c 002093E5 		ldr	r2, [r3]
 134 0050 0C1093E5 		ldr	r1, [r3, #12]
 135              	.LVL6:
 136 0054 100093E5 		ldr	r0, [r3, #16]
 137 0058 0C5083E5 		str	r5, [r3, #12]
 138 005c 002084E5 		str	r2, [r4]
 139 0060 044082E5 		str	r4, [r2, #4]
 140 0064 31FF2FE1 		blx	r1
 141              	.LVL7:
 142              	.LBE3:
 143 0068 003094E5 		ldr	r3, [r4]
 144              	.LVL8:
 145 006c 082093E5 		ldr	r2, [r3, #8]
 146 0070 000052E3 		cmp	r2, #0
 147 0074 F4FFFF0A 		beq	.L11
 148 0078 3080BDE8 		ldmfd	sp!, {r4, r5, pc}
 149              	.L20:
 150              		.align	2
 151              	.L19:
 152 007c 00000000 		.word	rlist
 153 0080 00000000 		.word	vtlist
 154              	.LBE2:
 155              		.cfi_endproc
 156              	.LFE9:
 157              		.size	chSysTimerHandlerI, .-chSysTimerHandlerI
 158              		.comm	_idle_thread_wa,128,4
 159              		.section	.bss.mainthread.1813,"aw",%nobits
 160              		.align	2
 161              		.set	.LANCHOR0,. + 0
 162              		.type	mainthread.1813, %object
 163              		.size	mainthread.1813, 40
 164              	mainthread.1813:
 165 0000 00000000 		.space	40
 165      00000000 
 165      00000000 
 165      00000000 
 165      00000000 
 166              		.text
 167              	.Letext0:
ARM GAS  /tmp/cckg9igp.s 			page 4


 168              		.file 2 "/usr/lib/gcc/arm-none-eabi/4.9.3/include/stddef.h"
 169              		.file 3 "/usr/include/newlib/machine/_default_types.h"
 170              		.file 4 "/usr/include/newlib/sys/_stdint.h"
 171              		.file 5 "../../../os/ports/GCC/ARM/chtypes.h"
 172              		.file 6 "../../../os/kernel/include/chlists.h"
 173              		.file 7 "../../../os/kernel/include/chthreads.h"
 174              		.file 8 "../../../os/ports/GCC/ARM/chcore.h"
 175              		.file 9 "../../../os/kernel/include/chvt.h"
 176              		.file 10 "../../../os/kernel/include/chschd.h"
 177              		.file 11 "../../../os/kernel/include/chmtx.h"