ARM GAS  /tmp/ccNj8bzx.s 			page 1


   1              		.file	"chvt.c"
   2              		.text
   3              	.Ltext0:
   4              		.cfi_sections	.debug_frame
   5              		.section	.text._vt_init,"ax",%progbits
   6              		.align	2
   7              		.global	_vt_init
   8              		.type	_vt_init, %function
   9              	_vt_init:
  10              	.LFB7:
  11              		.file 1 "../../../os/kernel/src/chvt.c"
  12              		.loc 1 43 0
  13              		.cfi_startproc
  14              		@ args = 0, pretend = 0, frame = 0
  15              		@ frame_needed = 0, uses_anonymous_args = 0
  16              		@ link register save eliminated.
  17              		.loc 1 46 0
  18 0000 0010E0E3 		mvn	r1, #0
  19              		.loc 1 47 0
  20 0004 0020A0E3 		mov	r2, #0
  21              		.loc 1 45 0
  22 0008 10309FE5 		ldr	r3, .L2
  23              		.loc 1 46 0
  24 000c 081083E5 		str	r1, [r3, #8]
  25              		.loc 1 45 0
  26 0010 043083E5 		str	r3, [r3, #4]
  27 0014 003083E5 		str	r3, [r3]
  28              		.loc 1 47 0
  29 0018 0C2083E5 		str	r2, [r3, #12]
  30 001c 1EFF2FE1 		bx	lr
  31              	.L3:
  32              		.align	2
  33              	.L2:
  34 0020 00000000 		.word	vtlist
  35              		.cfi_endproc
  36              	.LFE7:
  37              		.size	_vt_init, .-_vt_init
  38              		.section	.text.chVTSetI,"ax",%progbits
  39              		.align	2
  40              		.global	chVTSetI
  41              		.type	chVTSetI, %function
  42              	chVTSetI:
  43              	.LFB8:
  44              		.loc 1 69 0
  45              		.cfi_startproc
  46              		@ args = 0, pretend = 0, frame = 0
  47              		@ frame_needed = 0, uses_anonymous_args = 0
  48              		@ link register save eliminated.
  49              	.LVL0:
  50              		.loc 1 78 0
  51 0000 54C09FE5 		ldr	ip, .L10
  52              		.loc 1 76 0
  53 0004 103080E5 		str	r3, [r0, #16]
  54              		.loc 1 78 0
  55 0008 00309CE5 		ldr	r3, [ip]
  56              	.LVL1:
  57              		.loc 1 77 0
ARM GAS  /tmp/ccNj8bzx.s 			page 2


  58 000c 0C2080E5 		str	r2, [r0, #12]
  59              		.loc 1 79 0
  60 0010 082093E5 		ldr	r2, [r3, #8]
  61              	.LVL2:
  62 0014 020051E1 		cmp	r1, r2
  63 0018 0400009A 		bls	.L5
  64              	.L6:
  65              		.loc 1 81 0
  66 001c 003093E5 		ldr	r3, [r3]
  67              	.LVL3:
  68              		.loc 1 80 0
  69 0020 011062E0 		rsb	r1, r2, r1
  70              	.LVL4:
  71              		.loc 1 79 0
  72 0024 082093E5 		ldr	r2, [r3, #8]
  73 0028 010052E1 		cmp	r2, r1
  74 002c FAFFFF3A 		bcc	.L6
  75              	.L5:
  76              		.loc 1 84 0
  77 0030 042093E5 		ldr	r2, [r3, #4]
  78              		.loc 1 87 0
  79 0034 0C0053E1 		cmp	r3, ip
  80              		.loc 1 84 0
  81 0038 042080E5 		str	r2, [r0, #4]
  82 003c 003080E5 		str	r3, [r0]
  83              		.loc 1 85 0
  84 0040 040083E5 		str	r0, [r3, #4]
  85 0044 000082E5 		str	r0, [r2]
  86              		.loc 1 86 0
  87 0048 081080E5 		str	r1, [r0, #8]
  88              		.loc 1 88 0
  89 004c 08209315 		ldrne	r2, [r3, #8]
  90 0050 02106110 		rsbne	r1, r1, r2
  91              	.LVL5:
  92 0054 08108315 		strne	r1, [r3, #8]
  93              	.LVL6:
  94 0058 1EFF2FE1 		bx	lr
  95              	.L11:
  96              		.align	2
  97              	.L10:
  98 005c 00000000 		.word	vtlist
  99              		.cfi_endproc
 100              	.LFE8:
 101              		.size	chVTSetI, .-chVTSetI
 102              		.section	.text.chVTResetI,"ax",%progbits
 103              		.align	2
 104              		.global	chVTResetI
 105              		.type	chVTResetI, %function
 106              	chVTResetI:
 107              	.LFB9:
 108              		.loc 1 99 0
 109              		.cfi_startproc
 110              		@ args = 0, pretend = 0, frame = 0
 111              		@ frame_needed = 0, uses_anonymous_args = 0
 112              		@ link register save eliminated.
 113              	.LVL7:
 114              		.loc 1 107 0
ARM GAS  /tmp/ccNj8bzx.s 			page 3


 115 0000 003090E5 		ldr	r3, [r0]
 116 0004 2C209FE5 		ldr	r2, .L14
 117 0008 020053E1 		cmp	r3, r2
 118              		.loc 1 108 0
 119 000c 08209315 		ldrne	r2, [r3, #8]
 120 0010 08109015 		ldrne	r1, [r0, #8]
 121 0014 01208210 		addne	r2, r2, r1
 122              		.loc 1 111 0
 123 0018 0010A0E3 		mov	r1, #0
 124              		.loc 1 108 0
 125 001c 08208315 		strne	r2, [r3, #8]
 126              		.loc 1 109 0
 127 0020 042090E5 		ldr	r2, [r0, #4]
 128 0024 003082E5 		str	r3, [r2]
 129              		.loc 1 110 0
 130 0028 003090E5 		ldr	r3, [r0]
 131 002c 042083E5 		str	r2, [r3, #4]
 132              		.loc 1 111 0
 133 0030 0C1080E5 		str	r1, [r0, #12]
 134 0034 1EFF2FE1 		bx	lr
 135              	.L15:
 136              		.align	2
 137              	.L14:
 138 0038 00000000 		.word	vtlist
 139              		.cfi_endproc
 140              	.LFE9:
 141              		.size	chVTResetI, .-chVTResetI
 142              		.section	.text.chTimeIsWithin,"ax",%progbits
 143              		.align	2
 144              		.global	chTimeIsWithin
 145              		.type	chTimeIsWithin, %function
 146              	chTimeIsWithin:
 147              	.LFB10:
 148              		.loc 1 127 0
 149              		.cfi_startproc
 150              		@ args = 0, pretend = 0, frame = 0
 151              		@ frame_needed = 0, uses_anonymous_args = 0
 152              		@ link register save eliminated.
 153              	.LVL8:
 154              		.loc 1 129 0
 155 0000 44309FE5 		ldr	r3, .L20
 156              		.loc 1 130 0
 157 0004 000051E1 		cmp	r1, r0
 158              		.loc 1 129 0
 159 0008 0C3093E5 		ldr	r3, [r3, #12]
 160              	.LVL9:
 161              		.loc 1 130 0
 162 000c 0700008A 		bhi	.L19
 163              		.loc 1 131 0 discriminator 2
 164 0010 000053E1 		cmp	r3, r0
 165 0014 0000A033 		movcc	r0, #0
 166              	.LVL10:
 167 0018 0100A023 		movcs	r0, #1
 168              		.loc 1 130 0 discriminator 2
 169 001c 010053E1 		cmp	r3, r1
 170 0020 0010A021 		movcs	r1, r0
 171 0024 01108033 		orrcc	r1, r0, #1
ARM GAS  /tmp/ccNj8bzx.s 			page 4


 172              	.LVL11:
 173              		.loc 1 132 0 discriminator 2
 174 0028 0100A0E1 		mov	r0, r1
 175 002c 1EFF2FE1 		bx	lr
 176              	.LVL12:
 177              	.L19:
 178              		.loc 1 130 0 discriminator 1
 179 0030 010053E1 		cmp	r3, r1
 180 0034 0110A033 		movcc	r1, #1
 181              	.LVL13:
 182 0038 0010A023 		movcs	r1, #0
 183 003c 000053E1 		cmp	r3, r0
 184 0040 0010A033 		movcc	r1, #0
 185              		.loc 1 132 0 discriminator 1
 186 0044 0100A0E1 		mov	r0, r1
 187              	.LVL14:
 188 0048 1EFF2FE1 		bx	lr
 189              	.L21:
 190              		.align	2
 191              	.L20:
 192 004c 00000000 		.word	vtlist
 193              		.cfi_endproc
 194              	.LFE10:
 195              		.size	chTimeIsWithin, .-chTimeIsWithin
 196              		.comm	vtlist,16,4
 197              		.text
 198              	.Letext0:
 199              		.file 2 "/usr/include/newlib/machine/_default_types.h"
 200              		.file 3 "/usr/include/newlib/sys/_stdint.h"
 201              		.file 4 "../../../os/ports/GCC/ARM/chtypes.h"
 202              		.file 5 "../../../os/kernel/include/chvt.h"