ARM GAS  /tmp/ccNj8bzx.s 			page 1


   1              		.file	"chvt.c"
   2              		.text
   3              	.Ltext0:
   4              		.cfi_sections	.debug_frame
   5              		.section	.text._vt_init,"ax",%progbits
   6              		.align	2
   7              		.global	_vt_init
   8              		.type	_vt_init, %function
   9              	_vt_init:
  10              	.LFB7:
  11              		.file 1 "../../../os/kernel/src/chvt.c"
  12              		.loc 1 43 0
  13              		.cfi_startproc
  14              		@ args = 0, pretend = 0, frame = 0
  15              		@ frame_needed = 0, uses_anonymous_args = 0
  16              		@ link register save eliminated.
  17              		.loc 1 46 0
  18 0000 0010E0E3 		mvn	r1, #0
  19              		.loc 1 47 0
  20 0004 0020A0E3 		mov	r2, #0
  21              		.loc 1 45 0
  22 0008 10309FE5 		ldr	r3, .L2
  23              		.loc 1 46 0
  24 000c 081083E5 		str	r1, [r3, #8]
  25              		.loc 1 45 0
  26 0010 043083E5 		str	r3, [r3, #4]
  27 0014 003083E5 		str	r3, [r3]
  28              		.loc 1 47 0
  29 0018 0C2083E5 		str	r2, [r3, #12]
  30 001c 1EFF2FE1 		bx	lr
  31              	.L3:
  32              		.align	2
  33              	.L2:
  34 0020 00000000 		.word	vtlist
  35              		.cfi_endproc
  36              	.LFE7:
  37              		.size	_vt_init, .-_vt_init
  38              		.section	.text.chVTSetI,"ax",%progbits
  39              		.align	2
  40              		.global	chVTSetI
  41              		.type	chVTSetI, %function
  42              	chVTSetI:
  43              	.LFB8:
  44              		.loc 1 69 0
  45              		.cfi_startproc
  46              		@ args = 0, pretend = 0, frame = 0
  47              		@ frame_needed = 0, uses_anonymous_args = 0
  48              		@ link register save eliminated.
  49              	.LVL0:
  50              		.loc 1 78 0
  51 0000 54C09FE5 		ldr	ip, .L10
  52              		.loc 1 76 0
  53 0004 103080E5 		str	r3, [r0, #16]
  54              		.loc 1 78 0
  55 0008 00309CE5 		ldr	r3, [ip]
  56              	.LVL1:
  57              		.loc 1 77 0
ARM GAS  /tmp/ccNj8bzx.s 			page 2


  58 000c 0C2080E5 		str	r2, [r0, #12]
  59              		.loc 1 79 0
  60 0010 082093E5 		ldr	r2, [r3, #8]
  61              	.LVL2:
  62 0014 020051E1 		cmp	r1, r2
  63 0018 0400009A 		bls	.L5
  64              	.L6:
  65              		.loc 1 81 0
  66 001c 003093E5 		ldr	r3, [r3]
  67              	.LVL3:
  68              		.loc 1 80 0
  69 0020 011062E0 		rsb	r1, r2, r1
  70              	.LVL4:
  71              		.loc 1 79 0
  72 0024 082093E5 		ldr	r2, [r3, #8]
  73 0028 010052E1 		cmp	r2, r1
  74 002c FAFFFF3A 		bcc	.L6
  75              	.L5:
  76              		.loc 1 84 0
  77 0030 042093E5 		ldr	r2, [r3, #4]
  78              		.loc 1 87 0
  79 0034 0C0053E1 		cmp	r3, ip
  80              		.loc 1 84 0
  81 0038 042080E5 		str	r2, [r0, #4]
  82 003c 003080E5 		str	r3, [r0]
  83              		.loc 1 85 0
  84 0040 040083E5 		str	r0, [r3, #4]
  85 0044 000082E5 		str	r0, [r2]
  86              		.loc 1 86 0
  87 0048 081080E5 		str	r1, [r0, #8]
  88              		.loc 1 88 0
  89 004c 08209315 		ldrne	r2, [r3, #8]
  90 0050 02106110 		rsbne	r1, r1, r2
  91              	.LVL5:
  92 0054 08108315 		strne	r1, [r3, #8]
  93              	.LVL6:
  94 0058 1EFF2FE1 		bx	lr
  95              	.L11:
  96              		.align	2
  97              	.L10:
  98 005c 00000000 		.word	vtlist
  99              		.cfi_endproc
 100              	.LFE8:
 101              		.size	chVTSetI, .-chVTSetI
 102              		.section	.text.chVTResetI,"ax",%progbits
 103              		.align	2
 104              		.global	chVTResetI
 105              		.type	chVTResetI, %function
 106              	chVTResetI:
 107              	.LFB9:
 108              		.loc 1 99 0
 109              		.cfi_startproc
 110              		@ args = 0, pretend = 0, frame = 0
 111              		@ frame_needed = 0, uses_anonymous_args = 0
 112              		@ link register save eliminated.
 113              	.LVL7:
 114              		.loc 1 107 0
ARM GAS  /tmp/ccNj8bzx.s 			page 3


 115 0000 003090E5 		ldr	r3, [r0]
 116 0004 2C209FE5 		ldr	r2, .L14
 117 0008 020053E1 		cmp	r3, r2
 118              		.loc 1 108 0
 119 000c 08209315 		ldrne	r2, [r3, #8]
 120 0010 08109015 		ldrne	r1, [r0, #8]
 121 0014 01208210 		addne	r2, r2, r1
 122              		.loc 1 111 0
 123 0018 0010A0E3 		mov	r1, #0
 124              		.loc 1 108 0
 125 001c 08208315 		strne	r2, [r3, #8]
 126              		.loc 1 109 0
 127 0020 042090E5 		ldr	r2, [r0, #4]
 128 0024 003082E5 		str	r3, [r2]
 129              		.loc 1 110 0
 130 0028 003090E5 		ldr	r3, [r0]
 131 002c 042083E5 		str	r2, [r3, #4]
 132              		.loc 1 111 0
 133 0030 0C1080E5 		str	r1, [r0, #12]
 134 0034 1EFF2FE1 		bx	lr
 135              	.L15:
 136              		.align	2
 137              	.L14:
 138 0038 00000000 		.word	vtlist
 139              		.cfi_endproc
 140              	.LFE9:
 141              		.size	chVTResetI, .-chVTResetI
 142              		.section	.text.chTimeIsWithin,"ax",%progbits
 143              		.align	2
 144              		.global	chTimeIsWithin
 145              		.type	chTimeIsWithin, %function
 146              	chTimeIsWithin:
 147              	.LFB10:
 148              		.loc 1 127 0
 149              		.cfi_startproc
 150              		@ args = 0, pretend = 0, frame = 0
 151              		@ frame_needed = 0, uses_anonymous_args = 0
 152              		@ link register save eliminated.
 153              	.LVL8:
 154              		.loc 1 129 0
 155 0000 44309FE5 		ldr	r3, .L20
 156              		.loc 1 130 0
 157 0004 000051E1 		cmp	r1, r0
 158              		.loc 1 129 0
 159 0008 0C3093E5 		ldr	r3, [r3, #12]
 160              	.LVL9:
 161              		.loc 1 130 0
 162 000c 0700008A 		bhi	.L19
 163              		.loc 1 131 0 discriminator 2
 164 0010 000053E1 		cmp	r3, r0
 165 0014 0000A033 		movcc	r0, #0
 166              	.LVL10:
 167 0018 0100A023 		movcs	r0, #1
 168              		.loc 1 130 0 discriminator 2
 169 001c 010053E1 		cmp	r3, r1
 170 0020 0010A021 		movcs	r1, r0
 171 0024 01108033 		orrcc	r1, r0, #1
ARM GAS  /tmp/ccNj8bzx.s 			page 4


 172              	.LVL11:
 173              		.loc 1 132 0 discriminator 2
 174 0028 0100A0E1 		mov	r0, r1
 175 002c 1EFF2FE1 		bx	lr
 176              	.LVL12:
 177              	.L19:
 178              		.loc 1 130 0 discriminator 1
 179 0030 010053E1 		cmp	r3, r1
 180 0034 0110A033 		movcc	r1, #1
 181              	.LVL13:
 182 0038 0010A023 		movcs	r1, #0
 183 003c 000053E1 		cmp	r3, r0
 184 0040 0010A033 		movcc	r1, #0
 185              		.loc 1 132 0 discriminator 1
 186 0044 0100A0E1 		mov	r0, r1
 187              	.LVL14:
 188 0048 1EFF2FE1 		bx	lr
 189              	.L21:
 190              		.align	2
 191              	.L20:
 192 004c 00000000 		.word	vtlist
 193              		.cfi_endproc
 194              	.LFE10:
 195              		.size	chTimeIsWithin, .-chTimeIsWithin
 196              		.comm	vtlist,16,4
 197              		.text
 198              	.Letext0:
 199              		.file 2 "/usr/include/newlib/machine/_default_types.h"
 200              		.file 3 "/usr/include/newlib/sys/_stdint.h"
 201              		.file 4 "../../../os/ports/GCC/ARM/chtypes.h"
 202              		.file 5 "../../../os/kernel/include/chvt.h"
 203              		.section	.debug_info,"",%progbits
 204              	.Ldebug_info0:
 205 0000 52020000 		.4byte	0x252
 206 0004 0400     		.2byte	0x4
 207 0006 00000000 		.4byte	.Ldebug_abbrev0
 208 000a 04       		.byte	0x4
 209 000b 01       		.uleb128 0x1
 210 000c FD000000 		.4byte	.LASF29
 211 0010 01       		.byte	0x1
 212 0011 B9010000 		.4byte	.LASF30
 213 0015 00020000 		.4byte	.LASF31
 214 0019 00000000 		.4byte	.Ldebug_ranges0+0
 215 001d 00000000 		.4byte	0
 216 0021 00000000 		.4byte	.Ldebug_line0
 217 0025 02       		.uleb128 0x2
 218 0026 04       		.byte	0x4
 219 0027 05       		.byte	0x5
 220 0028 58000000 		.4byte	.LASF0
 221 002c 02       		.uleb128 0x2
 222 002d 04       		.byte	0x4
 223 002e 07       		.byte	0x7
 224 002f 98010000 		.4byte	.LASF1
 225 0033 02       		.uleb128 0x2
 226 0034 01       		.byte	0x1
 227 0035 06       		.byte	0x6
 228 0036 6F000000 		.4byte	.LASF2
ARM GAS  /tmp/ccNj8bzx.s 			page 5


 229 003a 02       		.uleb128 0x2
 230 003b 01       		.byte	0x1
 231 003c 08       		.byte	0x8
 232 003d 61000000 		.4byte	.LASF3
 233 0041 02       		.uleb128 0x2
 234 0042 02       		.byte	0x2
 235 0043 05       		.byte	0x5
 236 0044 0B000000 		.4byte	.LASF4
 237 0048 02       		.uleb128 0x2
 238 0049 02       		.byte	0x2
 239 004a 07       		.byte	0x7
 240 004b C4000000 		.4byte	.LASF5
 241 004f 03       		.uleb128 0x3
 242 0050 DF010000 		.4byte	.LASF6
 243 0054 02       		.byte	0x2
 244 0055 3F       		.byte	0x3f
 245 0056 25000000 		.4byte	0x25
 246 005a 03       		.uleb128 0x3
 247 005b 15000000 		.4byte	.LASF7
 248 005f 02       		.byte	0x2
 249 0060 41       		.byte	0x41
 250 0061 2C000000 		.4byte	0x2c
 251 0065 02       		.uleb128 0x2
 252 0066 08       		.byte	0x8
 253 0067 05       		.byte	0x5
 254 0068 41000000 		.4byte	.LASF8
 255 006c 02       		.uleb128 0x2
 256 006d 08       		.byte	0x8
 257 006e 07       		.byte	0x7
 258 006f 7B000000 		.4byte	.LASF9
 259 0073 03       		.uleb128 0x3
 260 0074 EE000000 		.4byte	.LASF10
 261 0078 03       		.byte	0x3
 262 0079 1F       		.byte	0x1f
 263 007a 4F000000 		.4byte	0x4f
 264 007e 03       		.uleb128 0x3
 265 007f 92000000 		.4byte	.LASF11
 266 0083 03       		.byte	0x3
 267 0084 20       		.byte	0x20
 268 0085 5A000000 		.4byte	0x5a
 269 0089 04       		.uleb128 0x4
 270 008a 04       		.byte	0x4
 271 008b 05       		.byte	0x5
 272 008c 696E7400 		.ascii	"int\000"
 273 0090 02       		.uleb128 0x2
 274 0091 04       		.byte	0x4
 275 0092 07       		.byte	0x7
 276 0093 9B000000 		.4byte	.LASF12
 277 0097 03       		.uleb128 0x3
 278 0098 F6000000 		.4byte	.LASF13
 279 009c 04       		.byte	0x4
 280 009d 29       		.byte	0x29
 281 009e 73000000 		.4byte	0x73
 282 00a2 03       		.uleb128 0x3
 283 00a3 E4000000 		.4byte	.LASF14
 284 00a7 04       		.byte	0x4
 285 00a8 33       		.byte	0x33
ARM GAS  /tmp/ccNj8bzx.s 			page 6


 286 00a9 7E000000 		.4byte	0x7e
 287 00ad 05       		.uleb128 0x5
 288 00ae 04       		.byte	0x4
 289 00af 03       		.uleb128 0x3
 290 00b0 F0010000 		.4byte	.LASF15
 291 00b4 05       		.byte	0x5
 292 00b5 4E       		.byte	0x4e
 293 00b6 BA000000 		.4byte	0xba
 294 00ba 06       		.uleb128 0x6
 295 00bb 04       		.byte	0x4
 296 00bc C0000000 		.4byte	0xc0
 297 00c0 07       		.uleb128 0x7
 298 00c1 CB000000 		.4byte	0xcb
 299 00c5 08       		.uleb128 0x8
 300 00c6 AD000000 		.4byte	0xad
 301 00ca 00       		.byte	0
 302 00cb 03       		.uleb128 0x3
 303 00cc D7000000 		.4byte	.LASF16
 304 00d0 05       		.byte	0x5
 305 00d1 53       		.byte	0x53
 306 00d2 D6000000 		.4byte	0xd6
 307 00d6 09       		.uleb128 0x9
 308 00d7 D7000000 		.4byte	.LASF16
 309 00db 14       		.byte	0x14
 310 00dc 05       		.byte	0x5
 311 00dd 5A       		.byte	0x5a
 312 00de 1F010000 		.4byte	0x11f
 313 00e2 0A       		.uleb128 0xa
 314 00e3 A8000000 		.4byte	.LASF17
 315 00e7 05       		.byte	0x5
 316 00e8 5B       		.byte	0x5b
 317 00e9 1F010000 		.4byte	0x11f
 318 00ed 00       		.byte	0
 319 00ee 0A       		.uleb128 0xa
 320 00ef D7010000 		.4byte	.LASF18
 321 00f3 05       		.byte	0x5
 322 00f4 5D       		.byte	0x5d
 323 00f5 1F010000 		.4byte	0x11f
 324 00f9 04       		.byte	0x4
 325 00fa 0A       		.uleb128 0xa
 326 00fb 40020000 		.4byte	.LASF19
 327 00ff 05       		.byte	0x5
 328 0100 5F       		.byte	0x5f
 329 0101 A2000000 		.4byte	0xa2
 330 0105 08       		.byte	0x8
 331 0106 0A       		.uleb128 0xa
 332 0107 2E000000 		.4byte	.LASF20
 333 010b 05       		.byte	0x5
 334 010c 60       		.byte	0x60
 335 010d AF000000 		.4byte	0xaf
 336 0111 0C       		.byte	0xc
 337 0112 0A       		.uleb128 0xa
 338 0113 27000000 		.4byte	.LASF21
 339 0117 05       		.byte	0x5
 340 0118 62       		.byte	0x62
 341 0119 AD000000 		.4byte	0xad
 342 011d 10       		.byte	0x10
ARM GAS  /tmp/ccNj8bzx.s 			page 7


 343 011e 00       		.byte	0
 344 011f 06       		.uleb128 0x6
 345 0120 04       		.byte	0x4
 346 0121 CB000000 		.4byte	0xcb
 347 0125 0B       		.uleb128 0xb
 348 0126 10       		.byte	0x10
 349 0127 05       		.byte	0x5
 350 0128 6C       		.byte	0x6c
 351 0129 5E010000 		.4byte	0x15e
 352 012d 0A       		.uleb128 0xa
 353 012e A8000000 		.4byte	.LASF17
 354 0132 05       		.byte	0x5
 355 0133 6D       		.byte	0x6d
 356 0134 1F010000 		.4byte	0x11f
 357 0138 00       		.byte	0
 358 0139 0A       		.uleb128 0xa
 359 013a D7010000 		.4byte	.LASF18
 360 013e 05       		.byte	0x5
 361 013f 6F       		.byte	0x6f
 362 0140 1F010000 		.4byte	0x11f
 363 0144 04       		.byte	0x4
 364 0145 0A       		.uleb128 0xa
 365 0146 40020000 		.4byte	.LASF19
 366 014a 05       		.byte	0x5
 367 014b 71       		.byte	0x71
 368 014c A2000000 		.4byte	0xa2
 369 0150 08       		.byte	0x8
 370 0151 0A       		.uleb128 0xa
 371 0152 36000000 		.4byte	.LASF22
 372 0156 05       		.byte	0x5
 373 0157 72       		.byte	0x72
 374 0158 5E010000 		.4byte	0x15e
 375 015c 0C       		.byte	0xc
 376 015d 00       		.byte	0
 377 015e 0C       		.uleb128 0xc
 378 015f A2000000 		.4byte	0xa2
 379 0163 03       		.uleb128 0x3
 380 0164 F9010000 		.4byte	.LASF23
 381 0168 05       		.byte	0x5
 382 0169 73       		.byte	0x73
 383 016a 25010000 		.4byte	0x125
 384 016e 0D       		.uleb128 0xd
 385 016f 4F000000 		.4byte	.LASF32
 386 0173 01       		.byte	0x1
 387 0174 2B       		.byte	0x2b
 388 0175 00000000 		.4byte	.LFB7
 389 0179 24000000 		.4byte	.LFE7-.LFB7
 390 017d 01       		.uleb128 0x1
 391 017e 9C       		.byte	0x9c
 392 017f 0E       		.uleb128 0xe
 393 0180 B0000000 		.4byte	.LASF26
 394 0184 01       		.byte	0x1
 395 0185 45       		.byte	0x45
 396 0186 00000000 		.4byte	.LFB8
 397 018a 60000000 		.4byte	.LFE8-.LFB8
 398 018e 01       		.uleb128 0x1
 399 018f 9C       		.byte	0x9c
ARM GAS  /tmp/ccNj8bzx.s 			page 8


 400 0190 DC010000 		.4byte	0x1dc
 401 0194 0F       		.uleb128 0xf
 402 0195 76747000 		.ascii	"vtp\000"
 403 0199 01       		.byte	0x1
 404 019a 45       		.byte	0x45
 405 019b 1F010000 		.4byte	0x11f
 406 019f 01       		.uleb128 0x1
 407 01a0 50       		.byte	0x50
 408 01a1 10       		.uleb128 0x10
 409 01a2 B9000000 		.4byte	.LASF24
 410 01a6 01       		.byte	0x1
 411 01a7 45       		.byte	0x45
 412 01a8 A2000000 		.4byte	0xa2
 413 01ac 00000000 		.4byte	.LLST0
 414 01b0 10       		.uleb128 0x10
 415 01b1 E9010000 		.4byte	.LASF25
 416 01b5 01       		.byte	0x1
 417 01b6 45       		.byte	0x45
 418 01b7 AF000000 		.4byte	0xaf
 419 01bb 2D000000 		.4byte	.LLST1
 420 01bf 11       		.uleb128 0x11
 421 01c0 70617200 		.ascii	"par\000"
 422 01c4 01       		.byte	0x1
 423 01c5 45       		.byte	0x45
 424 01c6 AD000000 		.4byte	0xad
 425 01ca 4C000000 		.4byte	.LLST2
 426 01ce 12       		.uleb128 0x12
 427 01cf 7000     		.ascii	"p\000"
 428 01d1 01       		.byte	0x1
 429 01d2 46       		.byte	0x46
 430 01d3 1F010000 		.4byte	0x11f
 431 01d7 6B000000 		.4byte	.LLST3
 432 01db 00       		.byte	0
 433 01dc 0E       		.uleb128 0xe
 434 01dd 00000000 		.4byte	.LASF27
 435 01e1 01       		.byte	0x1
 436 01e2 63       		.byte	0x63
 437 01e3 00000000 		.4byte	.LFB9
 438 01e7 3C000000 		.4byte	.LFE9-.LFB9
 439 01eb 01       		.uleb128 0x1
 440 01ec 9C       		.byte	0x9c
 441 01ed FF010000 		.4byte	0x1ff
 442 01f1 0F       		.uleb128 0xf
 443 01f2 76747000 		.ascii	"vtp\000"
 444 01f6 01       		.byte	0x1
 445 01f7 63       		.byte	0x63
 446 01f8 1F010000 		.4byte	0x11f
 447 01fc 01       		.uleb128 0x1
 448 01fd 50       		.byte	0x50
 449 01fe 00       		.byte	0
 450 01ff 13       		.uleb128 0x13
 451 0200 AA010000 		.4byte	.LASF33
 452 0204 01       		.byte	0x1
 453 0205 7F       		.byte	0x7f
 454 0206 97000000 		.4byte	0x97
 455 020a 00000000 		.4byte	.LFB10
 456 020e 50000000 		.4byte	.LFE10-.LFB10
ARM GAS  /tmp/ccNj8bzx.s 			page 9


 457 0212 01       		.uleb128 0x1
 458 0213 9C       		.byte	0x9c
 459 0214 44020000 		.4byte	0x244
 460 0218 10       		.uleb128 0x10
 461 0219 BE000000 		.4byte	.LASF28
 462 021d 01       		.byte	0x1
 463 021e 7F       		.byte	0x7f
 464 021f A2000000 		.4byte	0xa2
 465 0223 89000000 		.4byte	.LLST4
 466 0227 11       		.uleb128 0x11
 467 0228 656E6400 		.ascii	"end\000"
 468 022c 01       		.byte	0x1
 469 022d 7F       		.byte	0x7f
 470 022e A2000000 		.4byte	0xa2
 471 0232 C3000000 		.4byte	.LLST5
 472 0236 14       		.uleb128 0x14
 473 0237 B9000000 		.4byte	.LASF24
 474 023b 01       		.byte	0x1
 475 023c 81       		.byte	0x81
 476 023d A2000000 		.4byte	0xa2
 477 0241 01       		.uleb128 0x1
 478 0242 53       		.byte	0x53
 479 0243 00       		.byte	0
 480 0244 15       		.uleb128 0x15
 481 0245 20000000 		.4byte	.LASF34
 482 0249 01       		.byte	0x1
 483 024a 23       		.byte	0x23
 484 024b 63010000 		.4byte	0x163
 485 024f 05       		.uleb128 0x5
 486 0250 03       		.byte	0x3
 487 0251 00000000 		.4byte	vtlist
 488 0255 00       		.byte	0
 489              		.section	.debug_abbrev,"",%progbits
 490              	.Ldebug_abbrev0:
 491 0000 01       		.uleb128 0x1
 492 0001 11       		.uleb128 0x11
 493 0002 01       		.byte	0x1
 494 0003 25       		.uleb128 0x25
 495 0004 0E       		.uleb128 0xe
 496 0005 13       		.uleb128 0x13
 497 0006 0B       		.uleb128 0xb
 498 0007 03       		.uleb128 0x3
 499 0008 0E       		.uleb128 0xe
 500 0009 1B       		.uleb128 0x1b
 501 000a 0E       		.uleb128 0xe
 502 000b 55       		.uleb128 0x55
 503 000c 17       		.uleb128 0x17
 504 000d 11       		.uleb128 0x11
 505 000e 01       		.uleb128 0x1
 506 000f 10       		.uleb128 0x10
 507 0010 17       		.uleb128 0x17
 508 0011 00       		.byte	0
 509 0012 00       		.byte	0
 510 0013 02       		.uleb128 0x2
 511 0014 24       		.uleb128 0x24
 512 0015 00       		.byte	0
 513 0016 0B       		.uleb128 0xb
ARM GAS  /tmp/ccNj8bzx.s 			page 10


 514 0017 0B       		.uleb128 0xb
 515 0018 3E       		.uleb128 0x3e
 516 0019 0B       		.uleb128 0xb
 517 001a 03       		.uleb128 0x3
 518 001b 0E       		.uleb128 0xe
 519 001c 00       		.byte	0
 520 001d 00       		.byte	0
 521 001e 03       		.uleb128 0x3
 522 001f 16       		.uleb128 0x16
 523 0020 00       		.byte	0
 524 0021 03       		.uleb128 0x3
 525 0022 0E       		.uleb128 0xe
 526 0023 3A       		.uleb128 0x3a
 527 0024 0B       		.uleb128 0xb
 528 0025 3B       		.uleb128 0x3b
 529 0026 0B       		.uleb128 0xb
 530 0027 49       		.uleb128 0x49
 531 0028 13       		.uleb128 0x13
 532 0029 00       		.byte	0
 533 002a 00       		.byte	0
 534 002b 04       		.uleb128 0x4
 535 002c 24       		.uleb128 0x24
 536 002d 00       		.byte	0
 537 002e 0B       		.uleb128 0xb
 538 002f 0B       		.uleb128 0xb
 539 0030 3E       		.uleb128 0x3e
 540 0031 0B       		.uleb128 0xb
 541 0032 03       		.uleb128 0x3
 542 0033 08       		.uleb128 0x8
 543 0034 00       		.byte	0
 544 0035 00       		.byte	0
 545 0036 05       		.uleb128 0x5
 546 0037 0F       		.uleb128 0xf
 547 0038 00       		.byte	0
 548 0039 0B       		.uleb128 0xb
 549 003a 0B       		.uleb128 0xb
 550 003b 00       		.byte	0
 551 003c 00       		.byte	0
 552 003d 06       		.uleb128 0x6
 553 003e 0F       		.uleb128 0xf
 554 003f 00       		.byte	0
 555 0040 0B       		.uleb128 0xb
 556 0041 0B       		.uleb128 0xb
 557 0042 49       		.uleb128 0x49
 558 0043 13       		.uleb128 0x13
 559 0044 00       		.byte	0
 560 0045 00       		.byte	0
 561 0046 07       		.uleb128 0x7
 562 0047 15       		.uleb128 0x15
 563 0048 01       		.byte	0x1
 564 0049 27       		.uleb128 0x27
 565 004a 19       		.uleb128 0x19
 566 004b 01       		.uleb128 0x1
 567 004c 13       		.uleb128 0x13
 568 004d 00       		.byte	0
 569 004e 00       		.byte	0
 570 004f 08       		.uleb128 0x8
ARM GAS  /tmp/ccNj8bzx.s 			page 11


 571 0050 05       		.uleb128 0x5
 572 0051 00       		.byte	0
 573 0052 49       		.uleb128 0x49
 574 0053 13       		.uleb128 0x13
 575 0054 00       		.byte	0
 576 0055 00       		.byte	0
 577 0056 09       		.uleb128 0x9
 578 0057 13       		.uleb128 0x13
 579 0058 01       		.byte	0x1
 580 0059 03       		.uleb128 0x3
 581 005a 0E       		.uleb128 0xe
 582 005b 0B       		.uleb128 0xb
 583 005c 0B       		.uleb128 0xb
 584 005d 3A       		.uleb128 0x3a
 585 005e 0B       		.uleb128 0xb
 586 005f 3B       		.uleb128 0x3b
 587 0060 0B       		.uleb128 0xb
 588 0061 01       		.uleb128 0x1
 589 0062 13       		.uleb128 0x13
 590 0063 00       		.byte	0
 591 0064 00       		.byte	0
 592 0065 0A       		.uleb128 0xa
 593 0066 0D       		.uleb128 0xd
 594 0067 00       		.byte	0
 595 0068 03       		.uleb128 0x3
 596 0069 0E       		.uleb128 0xe
 597 006a 3A       		.uleb128 0x3a
 598 006b 0B       		.uleb128 0xb
 599 006c 3B       		.uleb128 0x3b
 600 006d 0B       		.uleb128 0xb
 601 006e 49       		.uleb128 0x49
 602 006f 13       		.uleb128 0x13
 603 0070 38       		.uleb128 0x38
 604 0071 0B       		.uleb128 0xb
 605 0072 00       		.byte	0
 606 0073 00       		.byte	0
 607 0074 0B       		.uleb128 0xb
 608 0075 13       		.uleb128 0x13
 609 0076 01       		.byte	0x1
 610 0077 0B       		.uleb128 0xb
 611 0078 0B       		.uleb128 0xb
 612 0079 3A       		.uleb128 0x3a
 613 007a 0B       		.uleb128 0xb
 614 007b 3B       		.uleb128 0x3b
 615 007c 0B       		.uleb128 0xb
 616 007d 01       		.uleb128 0x1
 617 007e 13       		.uleb128 0x13
 618 007f 00       		.byte	0
 619 0080 00       		.byte	0
 620 0081 0C       		.uleb128 0xc
 621 0082 35       		.uleb128 0x35
 622 0083 00       		.byte	0
 623 0084 49       		.uleb128 0x49
 624 0085 13       		.uleb128 0x13
 625 0086 00       		.byte	0
 626 0087 00       		.byte	0
 627 0088 0D       		.uleb128 0xd
ARM GAS  /tmp/ccNj8bzx.s 			page 12


 628 0089 2E       		.uleb128 0x2e
 629 008a 00       		.byte	0
 630 008b 3F       		.uleb128 0x3f
 631 008c 19       		.uleb128 0x19
 632 008d 03       		.uleb128 0x3
 633 008e 0E       		.uleb128 0xe
 634 008f 3A       		.uleb128 0x3a
 635 0090 0B       		.uleb128 0xb
 636 0091 3B       		.uleb128 0x3b
 637 0092 0B       		.uleb128 0xb
 638 0093 27       		.uleb128 0x27
 639 0094 19       		.uleb128 0x19
 640 0095 11       		.uleb128 0x11
 641 0096 01       		.uleb128 0x1
 642 0097 12       		.uleb128 0x12
 643 0098 06       		.uleb128 0x6
 644 0099 40       		.uleb128 0x40
 645 009a 18       		.uleb128 0x18
 646 009b 9742     		.uleb128 0x2117
 647 009d 19       		.uleb128 0x19
 648 009e 00       		.byte	0
 649 009f 00       		.byte	0
 650 00a0 0E       		.uleb128 0xe
 651 00a1 2E       		.uleb128 0x2e
 652 00a2 01       		.byte	0x1
 653 00a3 3F       		.uleb128 0x3f
 654 00a4 19       		.uleb128 0x19
 655 00a5 03       		.uleb128 0x3
 656 00a6 0E       		.uleb128 0xe
 657 00a7 3A       		.uleb128 0x3a
 658 00a8 0B       		.uleb128 0xb
 659 00a9 3B       		.uleb128 0x3b
 660 00aa 0B       		.uleb128 0xb
 661 00ab 27       		.uleb128 0x27
 662 00ac 19       		.uleb128 0x19
 663 00ad 11       		.uleb128 0x11
 664 00ae 01       		.uleb128 0x1
 665 00af 12       		.uleb128 0x12
 666 00b0 06       		.uleb128 0x6
 667 00b1 40       		.uleb128 0x40
 668 00b2 18       		.uleb128 0x18
 669 00b3 9742     		.uleb128 0x2117
 670 00b5 19       		.uleb128 0x19
 671 00b6 01       		.uleb128 0x1
 672 00b7 13       		.uleb128 0x13
 673 00b8 00       		.byte	0
 674 00b9 00       		.byte	0
 675 00ba 0F       		.uleb128 0xf
 676 00bb 05       		.uleb128 0x5
 677 00bc 00       		.byte	0
 678 00bd 03       		.uleb128 0x3
 679 00be 08       		.uleb128 0x8
 680 00bf 3A       		.uleb128 0x3a
 681 00c0 0B       		.uleb128 0xb
 682 00c1 3B       		.uleb128 0x3b
 683 00c2 0B       		.uleb128 0xb
 684 00c3 49       		.uleb128 0x49
ARM GAS  /tmp/ccNj8bzx.s 			page 13


 685 00c4 13       		.uleb128 0x13
 686 00c5 02       		.uleb128 0x2
 687 00c6 18       		.uleb128 0x18
 688 00c7 00       		.byte	0
 689 00c8 00       		.byte	0
 690 00c9 10       		.uleb128 0x10
 691 00ca 05       		.uleb128 0x5
 692 00cb 00       		.byte	0
 693 00cc 03       		.uleb128 0x3
 694 00cd 0E       		.uleb128 0xe
 695 00ce 3A       		.uleb128 0x3a
 696 00cf 0B       		.uleb128 0xb
 697 00d0 3B       		.uleb128 0x3b
 698 00d1 0B       		.uleb128 0xb
 699 00d2 49       		.uleb128 0x49
 700 00d3 13       		.uleb128 0x13
 701 00d4 02       		.uleb128 0x2
 702 00d5 17       		.uleb128 0x17
 703 00d6 00       		.byte	0
 704 00d7 00       		.byte	0
 705 00d8 11       		.uleb128 0x11
 706 00d9 05       		.uleb128 0x5
 707 00da 00       		.byte	0
 708 00db 03       		.uleb128 0x3
 709 00dc 08       		.uleb128 0x8
 710 00dd 3A       		.uleb128 0x3a
 711 00de 0B       		.uleb128 0xb
 712 00df 3B       		.uleb128 0x3b
 713 00e0 0B       		.uleb128 0xb
 714 00e1 49       		.uleb128 0x49
 715 00e2 13       		.uleb128 0x13
 716 00e3 02       		.uleb128 0x2
 717 00e4 17       		.uleb128 0x17
 718 00e5 00       		.byte	0
 719 00e6 00       		.byte	0
 720 00e7 12       		.uleb128 0x12
 721 00e8 34       		.uleb128 0x34
 722 00e9 00       		.byte	0
 723 00ea 03       		.uleb128 0x3
 724 00eb 08       		.uleb128 0x8
 725 00ec 3A       		.uleb128 0x3a
 726 00ed 0B       		.uleb128 0xb
 727 00ee 3B       		.uleb128 0x3b
 728 00ef 0B       		.uleb128 0xb
 729 00f0 49       		.uleb128 0x49
 730 00f1 13       		.uleb128 0x13
 731 00f2 02       		.uleb128 0x2
 732 00f3 17       		.uleb128 0x17
 733 00f4 00       		.byte	0
 734 00f5 00       		.byte	0
 735 00f6 13       		.uleb128 0x13
 736 00f7 2E       		.uleb128 0x2e
 737 00f8 01       		.byte	0x1
 738 00f9 3F       		.uleb128 0x3f
 739 00fa 19       		.uleb128 0x19
 740 00fb 03       		.uleb128 0x3
 741 00fc 0E       		.uleb128 0xe
ARM GAS  /tmp/ccNj8bzx.s 			page 14


 742 00fd 3A       		.uleb128 0x3a
 743 00fe 0B       		.uleb128 0xb
 744 00ff 3B       		.uleb128 0x3b
 745 0100 0B       		.uleb128 0xb
 746 0101 27       		.uleb128 0x27
 747 0102 19       		.uleb128 0x19
 748 0103 49       		.uleb128 0x49
 749 0104 13       		.uleb128 0x13
 750 0105 11       		.uleb128 0x11
 751 0106 01       		.uleb128 0x1
 752 0107 12       		.uleb128 0x12
 753 0108 06       		.uleb128 0x6
 754 0109 40       		.uleb128 0x40
 755 010a 18       		.uleb128 0x18
 756 010b 9742     		.uleb128 0x2117
 757 010d 19       		.uleb128 0x19
 758 010e 01       		.uleb128 0x1
 759 010f 13       		.uleb128 0x13
 760 0110 00       		.byte	0
 761 0111 00       		.byte	0
 762 0112 14       		.uleb128 0x14
 763 0113 34       		.uleb128 0x34
 764 0114 00       		.byte	0
 765 0115 03       		.uleb128 0x3
 766 0116 0E       		.uleb128 0xe
 767 0117 3A       		.uleb128 0x3a
 768 0118 0B       		.uleb128 0xb
 769 0119 3B       		.uleb128 0x3b
 770 011a 0B       		.uleb128 0xb
 771 011b 49       		.uleb128 0x49
 772 011c 13       		.uleb128 0x13
 773 011d 02       		.uleb128 0x2
 774 011e 18       		.uleb128 0x18
 775 011f 00       		.byte	0
 776 0120 00       		.byte	0
 777 0121 15       		.uleb128 0x15
 778 0122 34       		.uleb128 0x34
 779 0123 00       		.byte	0
 780 0124 03       		.uleb128 0x3
 781 0125 0E       		.uleb128 0xe
 782 0126 3A       		.uleb128 0x3a
 783 0127 0B       		.uleb128 0xb
 784 0128 3B       		.uleb128 0x3b
 785 0129 0B       		.uleb128 0xb
 786 012a 49       		.uleb128 0x49
 787 012b 13       		.uleb128 0x13
 788 012c 3F       		.uleb128 0x3f
 789 012d 19       		.uleb128 0x19
 790 012e 02       		.uleb128 0x2
 791 012f 18       		.uleb128 0x18
 792 0130 00       		.byte	0
 793 0131 00       		.byte	0
 794 0132 00       		.byte	0
 795              		.section	.debug_loc,"",%progbits
 796              	.Ldebug_loc0:
 797              	.LLST0:
 798 0000 00000000 		.4byte	.LVL0
ARM GAS  /tmp/ccNj8bzx.s 			page 15


 799 0004 24000000 		.4byte	.LVL4
 800 0008 0100     		.2byte	0x1
 801 000a 51       		.byte	0x51
 802 000b 24000000 		.4byte	.LVL4
 803 000f 54000000 		.4byte	.LVL5
 804 0013 0100     		.2byte	0x1
 805 0015 51       		.byte	0x51
 806 0016 54000000 		.4byte	.LVL5
 807 001a 58000000 		.4byte	.LVL6
 808 001e 0500     		.2byte	0x5
 809 0020 73       		.byte	0x73
 810 0021 04       		.sleb128 4
 811 0022 06       		.byte	0x6
 812 0023 23       		.byte	0x23
 813 0024 08       		.uleb128 0x8
 814 0025 00000000 		.4byte	0
 815 0029 00000000 		.4byte	0
 816              	.LLST1:
 817 002d 00000000 		.4byte	.LVL0
 818 0031 14000000 		.4byte	.LVL2
 819 0035 0100     		.2byte	0x1
 820 0037 52       		.byte	0x52
 821 0038 14000000 		.4byte	.LVL2
 822 003c 60000000 		.4byte	.LFE8
 823 0040 0200     		.2byte	0x2
 824 0042 70       		.byte	0x70
 825 0043 0C       		.sleb128 12
 826 0044 00000000 		.4byte	0
 827 0048 00000000 		.4byte	0
 828              	.LLST2:
 829 004c 00000000 		.4byte	.LVL0
 830 0050 0C000000 		.4byte	.LVL1
 831 0054 0100     		.2byte	0x1
 832 0056 53       		.byte	0x53
 833 0057 0C000000 		.4byte	.LVL1
 834 005b 60000000 		.4byte	.LFE8
 835 005f 0200     		.2byte	0x2
 836 0061 70       		.byte	0x70
 837 0062 10       		.sleb128 16
 838 0063 00000000 		.4byte	0
 839 0067 00000000 		.4byte	0
 840              	.LLST3:
 841 006b 0C000000 		.4byte	.LVL1
 842 006f 20000000 		.4byte	.LVL3
 843 0073 0100     		.2byte	0x1
 844 0075 53       		.byte	0x53
 845 0076 24000000 		.4byte	.LVL4
 846 007a 60000000 		.4byte	.LFE8
 847 007e 0100     		.2byte	0x1
 848 0080 53       		.byte	0x53
 849 0081 00000000 		.4byte	0
 850 0085 00000000 		.4byte	0
 851              	.LLST4:
 852 0089 00000000 		.4byte	.LVL8
 853 008d 18000000 		.4byte	.LVL10
 854 0091 0100     		.2byte	0x1
 855 0093 50       		.byte	0x50
ARM GAS  /tmp/ccNj8bzx.s 			page 16


 856 0094 18000000 		.4byte	.LVL10
 857 0098 30000000 		.4byte	.LVL12
 858 009c 0400     		.2byte	0x4
 859 009e F3       		.byte	0xf3
 860 009f 01       		.uleb128 0x1
 861 00a0 50       		.byte	0x50
 862 00a1 9F       		.byte	0x9f
 863 00a2 30000000 		.4byte	.LVL12
 864 00a6 48000000 		.4byte	.LVL14
 865 00aa 0100     		.2byte	0x1
 866 00ac 50       		.byte	0x50
 867 00ad 48000000 		.4byte	.LVL14
 868 00b1 50000000 		.4byte	.LFE10
 869 00b5 0400     		.2byte	0x4
 870 00b7 F3       		.byte	0xf3
 871 00b8 01       		.uleb128 0x1
 872 00b9 50       		.byte	0x50
 873 00ba 9F       		.byte	0x9f
 874 00bb 00000000 		.4byte	0
 875 00bf 00000000 		.4byte	0
 876              	.LLST5:
 877 00c3 00000000 		.4byte	.LVL8
 878 00c7 28000000 		.4byte	.LVL11
 879 00cb 0100     		.2byte	0x1
 880 00cd 51       		.byte	0x51
 881 00ce 28000000 		.4byte	.LVL11
 882 00d2 30000000 		.4byte	.LVL12
 883 00d6 0400     		.2byte	0x4
 884 00d8 F3       		.byte	0xf3
 885 00d9 01       		.uleb128 0x1
 886 00da 51       		.byte	0x51
 887 00db 9F       		.byte	0x9f
 888 00dc 30000000 		.4byte	.LVL12
 889 00e0 38000000 		.4byte	.LVL13
 890 00e4 0100     		.2byte	0x1
 891 00e6 51       		.byte	0x51
 892 00e7 38000000 		.4byte	.LVL13
 893 00eb 50000000 		.4byte	.LFE10
 894 00ef 0400     		.2byte	0x4
 895 00f1 F3       		.byte	0xf3
 896 00f2 01       		.uleb128 0x1
 897 00f3 51       		.byte	0x51
 898 00f4 9F       		.byte	0x9f
 899 00f5 00000000 		.4byte	0
 900 00f9 00000000 		.4byte	0
 901              		.section	.debug_aranges,"",%progbits
 902 0000 34000000 		.4byte	0x34
 903 0004 0200     		.2byte	0x2
 904 0006 00000000 		.4byte	.Ldebug_info0
 905 000a 04       		.byte	0x4
 906 000b 00       		.byte	0
 907 000c 0000     		.2byte	0
 908 000e 0000     		.2byte	0
 909 0010 00000000 		.4byte	.LFB7
 910 0014 24000000 		.4byte	.LFE7-.LFB7
 911 0018 00000000 		.4byte	.LFB8
 912 001c 60000000 		.4byte	.LFE8-.LFB8
ARM GAS  /tmp/ccNj8bzx.s 			page 17


 913 0020 00000000 		.4byte	.LFB9
 914 0024 3C000000 		.4byte	.LFE9-.LFB9
 915 0028 00000000 		.4byte	.LFB10
 916 002c 50000000 		.4byte	.LFE10-.LFB10
 917 0030 00000000 		.4byte	0
 918 0034 00000000 		.4byte	0
 919              		.section	.debug_ranges,"",%progbits
 920              	.Ldebug_ranges0:
 921 0000 00000000 		.4byte	.LFB7
 922 0004 24000000 		.4byte	.LFE7
 923 0008 00000000 		.4byte	.LFB8
 924 000c 60000000 		.4byte	.LFE8
 925 0010 00000000 		.4byte	.LFB9
 926 0014 3C000000 		.4byte	.LFE9
 927 0018 00000000 		.4byte	.LFB10
 928 001c 50000000 		.4byte	.LFE10
 929 0020 00000000 		.4byte	0
 930 0024 00000000 		.4byte	0
 931              		.section	.debug_line,"",%progbits
 932              	.Ldebug_line0:
 933 0000 54010000 		.section	.debug_str,"MS",%progbits,1
 933      0200D500 
 933      00000201 
 933      FB0E0D00 
 933      01010101 
 934              	.LASF27:
 935 0000 63685654 		.ascii	"chVTResetI\000"
 935      52657365 
 935      744900
 936              	.LASF4:
 937 000b 73686F72 		.ascii	"short int\000"
 937      7420696E 
 937      7400
 938              	.LASF7:
 939 0015 5F5F7569 		.ascii	"__uint32_t\000"
 939      6E743332 
 939      5F7400
 940              	.LASF34:
 941 0020 76746C69 		.ascii	"vtlist\000"
 941      737400
 942              	.LASF21:
 943 0027 76745F70 		.ascii	"vt_par\000"
 943      617200
 944              	.LASF20:
 945 002e 76745F66 		.ascii	"vt_func\000"
 945      756E6300 
 946              	.LASF22:
 947 0036 76745F73 		.ascii	"vt_systime\000"
 947      79737469 
 947      6D6500
 948              	.LASF8:
 949 0041 6C6F6E67 		.ascii	"long long int\000"
 949      206C6F6E 
 949      6720696E 
 949      7400
 950              	.LASF32:
 951 004f 5F76745F 		.ascii	"_vt_init\000"
ARM GAS  /tmp/ccNj8bzx.s 			page 18


 951      696E6974 
 951      00
 952              	.LASF0:
 953 0058 6C6F6E67 		.ascii	"long int\000"
 953      20696E74 
 953      00
 954              	.LASF3:
 955 0061 756E7369 		.ascii	"unsigned char\000"
 955      676E6564 
 955      20636861 
 955      7200
 956              	.LASF2:
 957 006f 7369676E 		.ascii	"signed char\000"
 957      65642063 
 957      68617200 
 958              	.LASF9:
 959 007b 6C6F6E67 		.ascii	"long long unsigned int\000"
 959      206C6F6E 
 959      6720756E 
 959      7369676E 
 959      65642069 
 960              	.LASF11:
 961 0092 75696E74 		.ascii	"uint32_t\000"
 961      33325F74 
 961      00
 962              	.LASF12:
 963 009b 756E7369 		.ascii	"unsigned int\000"
 963      676E6564 
 963      20696E74 
 963      00
 964              	.LASF17:
 965 00a8 76745F6E 		.ascii	"vt_next\000"
 965      65787400 
 966              	.LASF26:
 967 00b0 63685654 		.ascii	"chVTSetI\000"
 967      53657449 
 967      00
 968              	.LASF24:
 969 00b9 74696D65 		.ascii	"time\000"
 969      00
 970              	.LASF28:
 971 00be 73746172 		.ascii	"start\000"
 971      7400
 972              	.LASF5:
 973 00c4 73686F72 		.ascii	"short unsigned int\000"
 973      7420756E 
 973      7369676E 
 973      65642069 
 973      6E7400
 974              	.LASF16:
 975 00d7 56697274 		.ascii	"VirtualTimer\000"
 975      75616C54 
 975      696D6572 
 975      00
 976              	.LASF14:
 977 00e4 73797374 		.ascii	"systime_t\000"
 977      696D655F 
ARM GAS  /tmp/ccNj8bzx.s 			page 19


 977      7400
 978              	.LASF10:
 979 00ee 696E7433 		.ascii	"int32_t\000"
 979      325F7400 
 980              	.LASF13:
 981 00f6 626F6F6C 		.ascii	"bool_t\000"
 981      5F7400
 982              	.LASF29:
 983 00fd 474E5520 		.ascii	"GNU C 4.9.3 20150529 (prerelease) -mcpu=arm1176jz-s"
 983      4320342E 
 983      392E3320 
 983      32303135 
 983      30353239 
 984 0130 202D6D61 		.ascii	" -mabi=apcs-gnu -mno-thumb-interwork -ggdb -O2 -fom"
 984      62693D61 
 984      7063732D 
 984      676E7520 
 984      2D6D6E6F 
 985 0163 69742D66 		.ascii	"it-frame-pointer -ffunction-sections -fdata-section"
 985      72616D65 
 985      2D706F69 
 985      6E746572 
 985      202D6666 
 986 0196 7300     		.ascii	"s\000"
 987              	.LASF1:
 988 0198 6C6F6E67 		.ascii	"long unsigned int\000"
 988      20756E73 
 988      69676E65 
 988      6420696E 
 988      7400
 989              	.LASF33:
 990 01aa 63685469 		.ascii	"chTimeIsWithin\000"
 990      6D654973 
 990      57697468 
 990      696E00
 991              	.LASF30:
 992 01b9 2E2E2F2E 		.ascii	"../../../os/kernel/src/chvt.c\000"
 992      2E2F2E2E 
 992      2F6F732F 
 992      6B65726E 
 992      656C2F73 
 993              	.LASF18:
 994 01d7 76745F70 		.ascii	"vt_prev\000"
 994      72657600 
 995              	.LASF6:
 996 01df 5F5F696E 		.ascii	"__int32_t\000"
 996      7433325F 
 996      7400
 997              	.LASF25:
 998 01e9 76746675 		.ascii	"vtfunc\000"
 998      6E6300
 999              	.LASF15:
 1000 01f0 76746675 		.ascii	"vtfunc_t\000"
 1000      6E635F74 
 1000      00
 1001              	.LASF23:
 1002 01f9 56544C69 		.ascii	"VTList\000"
ARM GAS  /tmp/ccNj8bzx.s 			page 20


 1002      737400
 1003              	.LASF31:
 1004 0200 2F686F6D 		.ascii	"/home/hunter/development/chibi/ChibiOS-RPi/testhal/"
 1004      652F6875 
 1004      6E746572 
 1004      2F646576 
 1004      656C6F70 
 1005 0233 42434D32 		.ascii	"BCM2835/GPIO\000"
 1005      3833352F 
 1005      4750494F 
 1005      00
 1006              	.LASF19:
 1007 0240 76745F74 		.ascii	"vt_time\000"
 1007      696D6500 
 1008              		.ident	"GCC: (15:4.9.3+svn231177-1) 4.9.3 20150529 (prerelease)"
ARM GAS  /tmp/ccNj8bzx.s 			page 21


DEFINED SYMBOLS
                            *ABS*:0000000000000000 chvt.c
     /tmp/ccNj8bzx.s:6      .text._vt_init:0000000000000000 $a
     /tmp/ccNj8bzx.s:9      .text._vt_init:0000000000000000 _vt_init
     /tmp/ccNj8bzx.s:34     .text._vt_init:0000000000000020 $d
                            *COM*:0000000000000010 vtlist
     /tmp/ccNj8bzx.s:39     .text.chVTSetI:0000000000000000 $a
     /tmp/ccNj8bzx.s:42     .text.chVTSetI:0000000000000000 chVTSetI
     /tmp/ccNj8bzx.s:98     .text.chVTSetI:000000000000005c $d
     /tmp/ccNj8bzx.s:103    .text.chVTResetI:0000000000000000 $a
     /tmp/ccNj8bzx.s:106    .text.chVTResetI:0000000000000000 chVTResetI
     /tmp/ccNj8bzx.s:138    .text.chVTResetI:0000000000000038 $d
     /tmp/ccNj8bzx.s:143    .text.chTimeIsWithin:0000000000000000 $a
     /tmp/ccNj8bzx.s:146    .text.chTimeIsWithin:0000000000000000 chTimeIsWithin
     /tmp/ccNj8bzx.s:192    .text.chTimeIsWithin:000000000000004c $d
                     .debug_frame:0000000000000010 $d

NO UNDEFINED SYMBOLS
