ARM GAS  /tmp/ccGtsDfq.s 			page 1


   1              		.file	"hal.c"
   2              		.text
   3              	.Ltext0:
   4              		.cfi_sections	.debug_frame
   5              		.section	.text.halInit,"ax",%progbits
   6              		.align	2
   7              		.global	halInit
   8              		.type	halInit, %function
   9              	halInit:
  10              	.LFB7:
  11              		.file 1 "../../../os/hal/src/hal.c"
  12              		.loc 1 61 0
  13              		.cfi_startproc
  14              		@ args = 0, pretend = 0, frame = 0
  15              		@ frame_needed = 0, uses_anonymous_args = 0
  16 0000 04E02DE5 		str	lr, [sp, #-4]!
  17              		.cfi_def_cfa_offset 4
  18              		.cfi_offset 14, -4
  19              		.loc 1 63 0
  20 0004 FEFFFFEB 		bl	hal_lld_init
  21              	.LVL0:
  22              		.loc 1 66 0
  23 0008 FEFFFFEB 		bl	tmInit
  24              	.LVL1:
  25              		.loc 1 69 0
  26 000c 10009FE5 		ldr	r0, .L3
  27 0010 FEFFFFEB 		bl	_pal_lld_init
  28              	.LVL2:
  29              		.loc 1 84 0
  30 0014 FEFFFFEB 		bl	i2cInit
  31              	.LVL3:
  32              		.loc 1 96 0
  33 0018 FEFFFFEB 		bl	sdInit
  34              	.LVL4:
  35              		.loc 1 121 0
  36 001c 04E09DE4 		ldr	lr, [sp], #4
  37              		.cfi_restore 14
  38              		.cfi_def_cfa_offset 0
  39              		.loc 1 120 0
  40 0020 FEFFFFEA 		b	boardInit
  41              	.LVL5:
  42              	.L4:
  43              		.align	2
  44              	.L3:
  45 0024 00000000 		.word	pal_default_config
  46              		.cfi_endproc
  47              	.LFE7:
  48              		.size	halInit, .-halInit
  49              		.section	.text.halIsCounterWithin,"ax",%progbits
  50              		.align	2
  51              		.global	halIsCounterWithin
  52              		.type	halIsCounterWithin, %function
  53              	halIsCounterWithin:
  54              	.LFB8:
  55              		.loc 1 167 0
  56              		.cfi_startproc
  57              		@ args = 0, pretend = 0, frame = 0
ARM GAS  /tmp/ccGtsDfq.s 			page 2


  58              		@ frame_needed = 0, uses_anonymous_args = 0
  59              		@ link register save eliminated.
  60              	.LVL6:
  61              		.loc 1 168 0
  62 0000 44309FE5 		ldr	r3, .L10
  63              		.loc 1 170 0
  64 0004 000051E1 		cmp	r1, r0
  65              		.loc 1 168 0
  66 0008 043093E5 		ldr	r3, [r3, #4]
  67              	.LVL7:
  68              		.loc 1 170 0
  69 000c 0700008A 		bhi	.L9
  70              		.loc 1 171 0 discriminator 2
  71 0010 000053E1 		cmp	r3, r0
  72 0014 0000A033 		movcc	r0, #0
  73              	.LVL8:
  74 0018 0100A023 		movcs	r0, #1
  75              		.loc 1 170 0 discriminator 2
  76 001c 010053E1 		cmp	r3, r1
  77 0020 0010A021 		movcs	r1, r0
  78 0024 01108033 		orrcc	r1, r0, #1
  79              	.LVL9:
  80              		.loc 1 172 0 discriminator 2
  81 0028 0100A0E1 		mov	r0, r1
  82 002c 1EFF2FE1 		bx	lr
  83              	.LVL10:
  84              	.L9:
  85              		.loc 1 170 0 discriminator 1
  86 0030 010053E1 		cmp	r3, r1
  87 0034 0110A033 		movcc	r1, #1
  88              	.LVL11:
  89 0038 0010A023 		movcs	r1, #0
  90 003c 000053E1 		cmp	r3, r0
  91 0040 0010A033 		movcc	r1, #0
  92              		.loc 1 172 0 discriminator 1
  93 0044 0100A0E1 		mov	r0, r1
  94              	.LVL12:
  95 0048 1EFF2FE1 		bx	lr
  96              	.L11:
  97              		.align	2
  98              	.L10:
  99 004c 00300020 		.word	536883200
 100              		.cfi_endproc
 101              	.LFE8:
 102              		.size	halIsCounterWithin, .-halIsCounterWithin
 103              		.section	.text.halPolledDelay,"ax",%progbits
 104              		.align	2
 105              		.global	halPolledDelay
 106              		.type	halPolledDelay, %function
 107              	halPolledDelay:
 108              	.LFB9:
 109              		.loc 1 186 0
 110              		.cfi_startproc
 111              		@ args = 0, pretend = 0, frame = 0
 112              		@ frame_needed = 0, uses_anonymous_args = 0
 113              		@ link register save eliminated.
 114              	.LVL13:
ARM GAS  /tmp/ccGtsDfq.s 			page 3


 115              		.loc 1 187 0
 116 0000 54309FE5 		ldr	r3, .L19
 117 0004 041093E5 		ldr	r1, [r3, #4]
 118              	.LVL14:
 119              	.LBB4:
 120              	.LBB5:
 121              		.loc 1 168 0
 122 0008 03C0A0E1 		mov	ip, r3
 123              	.LBE5:
 124              	.LBE4:
 125              		.loc 1 188 0
 126 000c 010080E0 		add	r0, r0, r1
 127              	.LVL15:
 128              		.loc 1 189 0
 129 0010 060000EA 		b	.L15
 130              	.LVL16:
 131              	.L18:
 132              	.LBB8:
 133              	.LBB6:
 134              		.loc 1 170 0
 135 0014 020050E1 		cmp	r0, r2
 136 0018 0130A083 		movhi	r3, #1
 137 001c 0030A093 		movls	r3, #0
 138 0020 020051E1 		cmp	r1, r2
 139 0024 0030A083 		movhi	r3, #0
 140              	.LBE6:
 141              	.LBE8:
 142              		.loc 1 189 0
 143 0028 000053E3 		cmp	r3, #0
 144 002c 0900000A 		beq	.L17
 145              	.LVL17:
 146              	.L15:
 147              	.LBB9:
 148              	.LBB7:
 149              		.loc 1 170 0 discriminator 1
 150 0030 000051E1 		cmp	r1, r0
 151              		.loc 1 168 0 discriminator 1
 152 0034 04209CE5 		ldr	r2, [ip, #4]
 153              	.LVL18:
 154              		.loc 1 170 0 discriminator 1
 155 0038 F5FFFF3A 		bcc	.L18
 156              		.loc 1 171 0
 157 003c 020051E1 		cmp	r1, r2
 158 0040 0030A083 		movhi	r3, #0
 159 0044 0130A093 		movls	r3, #1
 160              		.loc 1 170 0
 161 0048 020050E1 		cmp	r0, r2
 162 004c 01308383 		orrhi	r3, r3, #1
 163              	.LBE7:
 164              	.LBE9:
 165              		.loc 1 189 0
 166 0050 000053E3 		cmp	r3, #0
 167 0054 F5FFFF1A 		bne	.L15
 168              	.L17:
 169              		.loc 1 191 0
 170 0058 1EFF2FE1 		bx	lr
 171              	.L20:
ARM GAS  /tmp/ccGtsDfq.s 			page 4


 172              		.align	2
 173              	.L19:
 174 005c 00300020 		.word	536883200
 175              		.cfi_endproc
 176              	.LFE9:
 177              		.size	halPolledDelay, .-halPolledDelay
 178              		.text
 179              	.Letext0:
 180              		.file 2 "/usr/include/newlib/machine/_default_types.h"
 181              		.file 3 "/usr/include/newlib/sys/_stdint.h"
 182              		.file 4 "../../../os/ports/GCC/ARM/chtypes.h"
 183              		.file 5 "../../../os/hal/platforms/BCM2835/hal_lld.h"
 184              		.file 6 "../../../os/hal/platforms/BCM2835/pal_lld.h"
 185              		.file 7 "../../../os/hal/include/tm.h"
 186              		.file 8 "../../../os/hal/include/i2c.h"
 187              		.file 9 "../../../os/hal/include/serial.h"
 188              		.file 10 "../../../boards/RASPBERRYPI_MODB/board.h"