ARM GAS  /tmp/ccGtsDfq.s 			page 1


   1              		.file	"hal.c"
   2              		.text
   3              	.Ltext0:
   4              		.cfi_sections	.debug_frame
   5              		.section	.text.halInit,"ax",%progbits
   6              		.align	2
   7              		.global	halInit
   8              		.type	halInit, %function
   9              	halInit:
  10              	.LFB7:
  11              		.file 1 "../../../os/hal/src/hal.c"
  12              		.loc 1 61 0
  13              		.cfi_startproc
  14              		@ args = 0, pretend = 0, frame = 0
  15              		@ frame_needed = 0, uses_anonymous_args = 0
  16 0000 04E02DE5 		str	lr, [sp, #-4]!
  17              		.cfi_def_cfa_offset 4
  18              		.cfi_offset 14, -4
  19              		.loc 1 63 0
  20 0004 FEFFFFEB 		bl	hal_lld_init
  21              	.LVL0:
  22              		.loc 1 66 0
  23 0008 FEFFFFEB 		bl	tmInit
  24              	.LVL1:
  25              		.loc 1 69 0
  26 000c 10009FE5 		ldr	r0, .L3
  27 0010 FEFFFFEB 		bl	_pal_lld_init
  28              	.LVL2:
  29              		.loc 1 84 0
  30 0014 FEFFFFEB 		bl	i2cInit
  31              	.LVL3:
  32              		.loc 1 96 0
  33 0018 FEFFFFEB 		bl	sdInit
  34              	.LVL4:
  35              		.loc 1 121 0
  36 001c 04E09DE4 		ldr	lr, [sp], #4
  37              		.cfi_restore 14
  38              		.cfi_def_cfa_offset 0
  39              		.loc 1 120 0
  40 0020 FEFFFFEA 		b	boardInit
  41              	.LVL5:
  42              	.L4:
  43              		.align	2
  44              	.L3:
  45 0024 00000000 		.word	pal_default_config
  46              		.cfi_endproc
  47              	.LFE7:
  48              		.size	halInit, .-halInit
  49              		.section	.text.halIsCounterWithin,"ax",%progbits
  50              		.align	2
  51              		.global	halIsCounterWithin
  52              		.type	halIsCounterWithin, %function
  53              	halIsCounterWithin:
  54              	.LFB8:
  55              		.loc 1 167 0
  56              		.cfi_startproc
  57              		@ args = 0, pretend = 0, frame = 0
ARM GAS  /tmp/ccGtsDfq.s 			page 2


  58              		@ frame_needed = 0, uses_anonymous_args = 0
  59              		@ link register save eliminated.
  60              	.LVL6:
  61              		.loc 1 168 0
  62 0000 44309FE5 		ldr	r3, .L10
  63              		.loc 1 170 0
  64 0004 000051E1 		cmp	r1, r0
  65              		.loc 1 168 0
  66 0008 043093E5 		ldr	r3, [r3, #4]
  67              	.LVL7:
  68              		.loc 1 170 0
  69 000c 0700008A 		bhi	.L9
  70              		.loc 1 171 0 discriminator 2
  71 0010 000053E1 		cmp	r3, r0
  72 0014 0000A033 		movcc	r0, #0
  73              	.LVL8:
  74 0018 0100A023 		movcs	r0, #1
  75              		.loc 1 170 0 discriminator 2
  76 001c 010053E1 		cmp	r3, r1
  77 0020 0010A021 		movcs	r1, r0
  78 0024 01108033 		orrcc	r1, r0, #1
  79              	.LVL9:
  80              		.loc 1 172 0 discriminator 2
  81 0028 0100A0E1 		mov	r0, r1
  82 002c 1EFF2FE1 		bx	lr
  83              	.LVL10:
  84              	.L9:
  85              		.loc 1 170 0 discriminator 1
  86 0030 010053E1 		cmp	r3, r1
  87 0034 0110A033 		movcc	r1, #1
  88              	.LVL11:
  89 0038 0010A023 		movcs	r1, #0
  90 003c 000053E1 		cmp	r3, r0
  91 0040 0010A033 		movcc	r1, #0
  92              		.loc 1 172 0 discriminator 1
  93 0044 0100A0E1 		mov	r0, r1
  94              	.LVL12:
  95 0048 1EFF2FE1 		bx	lr
  96              	.L11:
  97              		.align	2
  98              	.L10:
  99 004c 00300020 		.word	536883200
 100              		.cfi_endproc
 101              	.LFE8:
 102              		.size	halIsCounterWithin, .-halIsCounterWithin
 103              		.section	.text.halPolledDelay,"ax",%progbits
 104              		.align	2
 105              		.global	halPolledDelay
 106              		.type	halPolledDelay, %function
 107              	halPolledDelay:
 108              	.LFB9:
 109              		.loc 1 186 0
 110              		.cfi_startproc
 111              		@ args = 0, pretend = 0, frame = 0
 112              		@ frame_needed = 0, uses_anonymous_args = 0
 113              		@ link register save eliminated.
 114              	.LVL13:
ARM GAS  /tmp/ccGtsDfq.s 			page 3


 115              		.loc 1 187 0
 116 0000 54309FE5 		ldr	r3, .L19
 117 0004 041093E5 		ldr	r1, [r3, #4]
 118              	.LVL14:
 119              	.LBB4:
 120              	.LBB5:
 121              		.loc 1 168 0
 122 0008 03C0A0E1 		mov	ip, r3
 123              	.LBE5:
 124              	.LBE4:
 125              		.loc 1 188 0
 126 000c 010080E0 		add	r0, r0, r1
 127              	.LVL15:
 128              		.loc 1 189 0
 129 0010 060000EA 		b	.L15
 130              	.LVL16:
 131              	.L18:
 132              	.LBB8:
 133              	.LBB6:
 134              		.loc 1 170 0
 135 0014 020050E1 		cmp	r0, r2
 136 0018 0130A083 		movhi	r3, #1
 137 001c 0030A093 		movls	r3, #0
 138 0020 020051E1 		cmp	r1, r2
 139 0024 0030A083 		movhi	r3, #0
 140              	.LBE6:
 141              	.LBE8:
 142              		.loc 1 189 0
 143 0028 000053E3 		cmp	r3, #0
 144 002c 0900000A 		beq	.L17
 145              	.LVL17:
 146              	.L15:
 147              	.LBB9:
 148              	.LBB7:
 149              		.loc 1 170 0 discriminator 1
 150 0030 000051E1 		cmp	r1, r0
 151              		.loc 1 168 0 discriminator 1
 152 0034 04209CE5 		ldr	r2, [ip, #4]
 153              	.LVL18:
 154              		.loc 1 170 0 discriminator 1
 155 0038 F5FFFF3A 		bcc	.L18
 156              		.loc 1 171 0
 157 003c 020051E1 		cmp	r1, r2
 158 0040 0030A083 		movhi	r3, #0
 159 0044 0130A093 		movls	r3, #1
 160              		.loc 1 170 0
 161 0048 020050E1 		cmp	r0, r2
 162 004c 01308383 		orrhi	r3, r3, #1
 163              	.LBE7:
 164              	.LBE9:
 165              		.loc 1 189 0
 166 0050 000053E3 		cmp	r3, #0
 167 0054 F5FFFF1A 		bne	.L15
 168              	.L17:
 169              		.loc 1 191 0
 170 0058 1EFF2FE1 		bx	lr
 171              	.L20:
ARM GAS  /tmp/ccGtsDfq.s 			page 4


 172              		.align	2
 173              	.L19:
 174 005c 00300020 		.word	536883200
 175              		.cfi_endproc
 176              	.LFE9:
 177              		.size	halPolledDelay, .-halPolledDelay
 178              		.text
 179              	.Letext0:
 180              		.file 2 "/usr/include/newlib/machine/_default_types.h"
 181              		.file 3 "/usr/include/newlib/sys/_stdint.h"
 182              		.file 4 "../../../os/ports/GCC/ARM/chtypes.h"
 183              		.file 5 "../../../os/hal/platforms/BCM2835/hal_lld.h"
 184              		.file 6 "../../../os/hal/platforms/BCM2835/pal_lld.h"
 185              		.file 7 "../../../os/hal/include/tm.h"
 186              		.file 8 "../../../os/hal/include/i2c.h"
 187              		.file 9 "../../../os/hal/include/serial.h"
 188              		.file 10 "../../../boards/RASPBERRYPI_MODB/board.h"
 189              		.section	.debug_info,"",%progbits
 190              	.Ldebug_info0:
 191 0000 22020000 		.4byte	0x222
 192 0004 0400     		.2byte	0x4
 193 0006 00000000 		.4byte	.Ldebug_abbrev0
 194 000a 04       		.byte	0x4
 195 000b 01       		.uleb128 0x1
 196 000c 20000000 		.4byte	.LASF26
 197 0010 01       		.byte	0x1
 198 0011 06000000 		.4byte	.LASF27
 199 0015 C2010000 		.4byte	.LASF28
 200 0019 20000000 		.4byte	.Ldebug_ranges0+0x20
 201 001d 00000000 		.4byte	0
 202 0021 00000000 		.4byte	.Ldebug_line0
 203 0025 02       		.uleb128 0x2
 204 0026 04       		.byte	0x4
 205 0027 05       		.byte	0x5
 206 0028 3B020000 		.4byte	.LASF0
 207 002c 02       		.uleb128 0x2
 208 002d 04       		.byte	0x4
 209 002e 07       		.byte	0x7
 210 002f 05010000 		.4byte	.LASF1
 211 0033 02       		.uleb128 0x2
 212 0034 01       		.byte	0x1
 213 0035 06       		.byte	0x6
 214 0036 44020000 		.4byte	.LASF2
 215 003a 02       		.uleb128 0x2
 216 003b 01       		.byte	0x1
 217 003c 08       		.byte	0x8
 218 003d F0000000 		.4byte	.LASF3
 219 0041 02       		.uleb128 0x2
 220 0042 02       		.byte	0x2
 221 0043 05       		.byte	0x5
 222 0044 28020000 		.4byte	.LASF4
 223 0048 02       		.uleb128 0x2
 224 0049 02       		.byte	0x2
 225 004a 07       		.byte	0x7
 226 004b 24010000 		.4byte	.LASF5
 227 004f 03       		.uleb128 0x3
 228 0050 BB000000 		.4byte	.LASF6
ARM GAS  /tmp/ccGtsDfq.s 			page 5


 229 0054 02       		.byte	0x2
 230 0055 3F       		.byte	0x3f
 231 0056 25000000 		.4byte	0x25
 232 005a 03       		.uleb128 0x3
 233 005b 6B010000 		.4byte	.LASF7
 234 005f 02       		.byte	0x2
 235 0060 41       		.byte	0x41
 236 0061 2C000000 		.4byte	0x2c
 237 0065 02       		.uleb128 0x2
 238 0066 08       		.byte	0x8
 239 0067 05       		.byte	0x5
 240 0068 0B020000 		.4byte	.LASF8
 241 006c 02       		.uleb128 0x2
 242 006d 08       		.byte	0x8
 243 006e 07       		.byte	0x7
 244 006f 8E010000 		.4byte	.LASF9
 245 0073 03       		.uleb128 0x3
 246 0074 E0000000 		.4byte	.LASF10
 247 0078 03       		.byte	0x3
 248 0079 1F       		.byte	0x1f
 249 007a 4F000000 		.4byte	0x4f
 250 007e 03       		.uleb128 0x3
 251 007f 32020000 		.4byte	.LASF11
 252 0083 03       		.byte	0x3
 253 0084 20       		.byte	0x20
 254 0085 5A000000 		.4byte	0x5a
 255 0089 04       		.uleb128 0x4
 256 008a 04       		.byte	0x4
 257 008b 05       		.byte	0x5
 258 008c 696E7400 		.ascii	"int\000"
 259 0090 02       		.uleb128 0x2
 260 0091 04       		.byte	0x4
 261 0092 07       		.byte	0x7
 262 0093 76010000 		.4byte	.LASF12
 263 0097 03       		.uleb128 0x3
 264 0098 CB000000 		.4byte	.LASF13
 265 009c 04       		.byte	0x4
 266 009d 29       		.byte	0x29
 267 009e 73000000 		.4byte	0x73
 268 00a2 03       		.uleb128 0x3
 269 00a3 83010000 		.4byte	.LASF14
 270 00a7 05       		.byte	0x5
 271 00a8 45       		.byte	0x45
 272 00a9 7E000000 		.4byte	0x7e
 273 00ad 05       		.uleb128 0x5
 274 00ae 00       		.byte	0
 275 00af 06       		.byte	0x6
 276 00b0 43       		.byte	0x43
 277 00b1 03       		.uleb128 0x3
 278 00b2 4E010000 		.4byte	.LASF15
 279 00b6 06       		.byte	0x6
 280 00b7 45       		.byte	0x45
 281 00b8 AD000000 		.4byte	0xad
 282 00bc 02       		.uleb128 0x2
 283 00bd 04       		.byte	0x4
 284 00be 07       		.byte	0x7
 285 00bf 02020000 		.4byte	.LASF16
ARM GAS  /tmp/ccGtsDfq.s 			page 6


 286 00c3 06       		.uleb128 0x6
 287 00c4 AF010000 		.4byte	.LASF29
 288 00c8 01       		.byte	0x1
 289 00c9 A7       		.byte	0xa7
 290 00ca 97000000 		.4byte	0x97
 291 00ce 01       		.byte	0x1
 292 00cf F5000000 		.4byte	0xf5
 293 00d3 07       		.uleb128 0x7
 294 00d4 C5000000 		.4byte	.LASF17
 295 00d8 01       		.byte	0x1
 296 00d9 A7       		.byte	0xa7
 297 00da A2000000 		.4byte	0xa2
 298 00de 08       		.uleb128 0x8
 299 00df 656E6400 		.ascii	"end\000"
 300 00e3 01       		.byte	0x1
 301 00e4 A7       		.byte	0xa7
 302 00e5 A2000000 		.4byte	0xa2
 303 00e9 09       		.uleb128 0x9
 304 00ea 6E6F7700 		.ascii	"now\000"
 305 00ee 01       		.byte	0x1
 306 00ef A8       		.byte	0xa8
 307 00f0 A2000000 		.4byte	0xa2
 308 00f4 00       		.byte	0
 309 00f5 0A       		.uleb128 0xa
 310 00f6 E8000000 		.4byte	.LASF18
 311 00fa 01       		.byte	0x1
 312 00fb 3D       		.byte	0x3d
 313 00fc 00000000 		.4byte	.LFB7
 314 0100 28000000 		.4byte	.LFE7-.LFB7
 315 0104 01       		.uleb128 0x1
 316 0105 9C       		.byte	0x9c
 317 0106 41010000 		.4byte	0x141
 318 010a 0B       		.uleb128 0xb
 319 010b 08000000 		.4byte	.LVL0
 320 010f EA010000 		.4byte	0x1ea
 321 0113 0B       		.uleb128 0xb
 322 0114 0C000000 		.4byte	.LVL1
 323 0118 F1010000 		.4byte	0x1f1
 324 011c 0B       		.uleb128 0xb
 325 011d 14000000 		.4byte	.LVL2
 326 0121 F8010000 		.4byte	0x1f8
 327 0125 0B       		.uleb128 0xb
 328 0126 18000000 		.4byte	.LVL3
 329 012a 0F020000 		.4byte	0x20f
 330 012e 0B       		.uleb128 0xb
 331 012f 1C000000 		.4byte	.LVL4
 332 0133 16020000 		.4byte	0x216
 333 0137 0C       		.uleb128 0xc
 334 0138 24000000 		.4byte	.LVL5
 335 013c 1E020000 		.4byte	0x21e
 336 0140 00       		.byte	0
 337 0141 0D       		.uleb128 0xd
 338 0142 C3000000 		.4byte	0xc3
 339 0146 00000000 		.4byte	.LFB8
 340 014a 50000000 		.4byte	.LFE8-.LFB8
 341 014e 01       		.uleb128 0x1
 342 014f 9C       		.byte	0x9c
ARM GAS  /tmp/ccGtsDfq.s 			page 7


 343 0150 6E010000 		.4byte	0x16e
 344 0154 0E       		.uleb128 0xe
 345 0155 D3000000 		.4byte	0xd3
 346 0159 00000000 		.4byte	.LLST0
 347 015d 0E       		.uleb128 0xe
 348 015e DE000000 		.4byte	0xde
 349 0162 3A000000 		.4byte	.LLST1
 350 0166 0F       		.uleb128 0xf
 351 0167 E9000000 		.4byte	0xe9
 352 016b 01       		.uleb128 0x1
 353 016c 53       		.byte	0x53
 354 016d 00       		.byte	0
 355 016e 0A       		.uleb128 0xa
 356 016f 37010000 		.4byte	.LASF19
 357 0173 01       		.byte	0x1
 358 0174 BA       		.byte	0xba
 359 0175 00000000 		.4byte	.LFB9
 360 0179 60000000 		.4byte	.LFE9-.LFB9
 361 017d 01       		.uleb128 0x1
 362 017e 9C       		.byte	0x9c
 363 017f DA010000 		.4byte	0x1da
 364 0183 10       		.uleb128 0x10
 365 0184 00000000 		.4byte	.LASF30
 366 0188 01       		.byte	0x1
 367 0189 BA       		.byte	0xba
 368 018a A2000000 		.4byte	0xa2
 369 018e 74000000 		.4byte	.LLST2
 370 0192 11       		.uleb128 0x11
 371 0193 C5000000 		.4byte	.LASF17
 372 0197 01       		.byte	0x1
 373 0198 BB       		.byte	0xbb
 374 0199 A2000000 		.4byte	0xa2
 375 019d 01       		.uleb128 0x1
 376 019e 51       		.byte	0x51
 377 019f 11       		.uleb128 0x11
 378 01a0 19020000 		.4byte	.LASF20
 379 01a4 01       		.byte	0x1
 380 01a5 BC       		.byte	0xbc
 381 01a6 A2000000 		.4byte	0xa2
 382 01aa 01       		.uleb128 0x1
 383 01ab 50       		.byte	0x50
 384 01ac 12       		.uleb128 0x12
 385 01ad C3000000 		.4byte	0xc3
 386 01b1 08000000 		.4byte	.LBB4
 387 01b5 00000000 		.4byte	.Ldebug_ranges0+0
 388 01b9 01       		.byte	0x1
 389 01ba BD       		.byte	0xbd
 390 01bb 13       		.uleb128 0x13
 391 01bc DE000000 		.4byte	0xde
 392 01c0 01       		.uleb128 0x1
 393 01c1 50       		.byte	0x50
 394 01c2 13       		.uleb128 0x13
 395 01c3 D3000000 		.4byte	0xd3
 396 01c7 01       		.uleb128 0x1
 397 01c8 51       		.byte	0x51
 398 01c9 14       		.uleb128 0x14
 399 01ca 00000000 		.4byte	.Ldebug_ranges0+0
ARM GAS  /tmp/ccGtsDfq.s 			page 8


 400 01ce 15       		.uleb128 0x15
 401 01cf E9000000 		.4byte	0xe9
 402 01d3 95000000 		.4byte	.LLST3
 403 01d7 00       		.byte	0
 404 01d8 00       		.byte	0
 405 01d9 00       		.byte	0
 406 01da 16       		.uleb128 0x16
 407 01db 58010000 		.4byte	.LASF31
 408 01df 06       		.byte	0x6
 409 01e0 75       		.byte	0x75
 410 01e1 E5010000 		.4byte	0x1e5
 411 01e5 17       		.uleb128 0x17
 412 01e6 B1000000 		.4byte	0xb1
 413 01ea 18       		.uleb128 0x18
 414 01eb 17010000 		.4byte	.LASF21
 415 01ef 05       		.byte	0x5
 416 01f0 51       		.byte	0x51
 417 01f1 18       		.uleb128 0x18
 418 01f2 FE000000 		.4byte	.LASF22
 419 01f6 07       		.byte	0x7
 420 01f7 6C       		.byte	0x6c
 421 01f8 19       		.uleb128 0x19
 422 01f9 D2000000 		.4byte	.LASF32
 423 01fd 06       		.byte	0x6
 424 01fe B4       		.byte	0xb4
 425 01ff 09020000 		.4byte	0x209
 426 0203 1A       		.uleb128 0x1a
 427 0204 09020000 		.4byte	0x209
 428 0208 00       		.byte	0
 429 0209 1B       		.uleb128 0x1b
 430 020a 04       		.byte	0x4
 431 020b E5010000 		.4byte	0x1e5
 432 020f 18       		.uleb128 0x18
 433 0210 46010000 		.4byte	.LASF23
 434 0214 08       		.byte	0x8
 435 0215 79       		.byte	0x79
 436 0216 1C       		.uleb128 0x1c
 437 0217 21020000 		.4byte	.LASF24
 438 021b 09       		.byte	0x9
 439 021c 3001     		.2byte	0x130
 440 021e 18       		.uleb128 0x18
 441 021f A5010000 		.4byte	.LASF25
 442 0223 0A       		.byte	0xa
 443 0224 1C       		.byte	0x1c
 444 0225 00       		.byte	0
 445              		.section	.debug_abbrev,"",%progbits
 446              	.Ldebug_abbrev0:
 447 0000 01       		.uleb128 0x1
 448 0001 11       		.uleb128 0x11
 449 0002 01       		.byte	0x1
 450 0003 25       		.uleb128 0x25
 451 0004 0E       		.uleb128 0xe
 452 0005 13       		.uleb128 0x13
 453 0006 0B       		.uleb128 0xb
 454 0007 03       		.uleb128 0x3
 455 0008 0E       		.uleb128 0xe
 456 0009 1B       		.uleb128 0x1b
ARM GAS  /tmp/ccGtsDfq.s 			page 9


 457 000a 0E       		.uleb128 0xe
 458 000b 55       		.uleb128 0x55
 459 000c 17       		.uleb128 0x17
 460 000d 11       		.uleb128 0x11
 461 000e 01       		.uleb128 0x1
 462 000f 10       		.uleb128 0x10
 463 0010 17       		.uleb128 0x17
 464 0011 00       		.byte	0
 465 0012 00       		.byte	0
 466 0013 02       		.uleb128 0x2
 467 0014 24       		.uleb128 0x24
 468 0015 00       		.byte	0
 469 0016 0B       		.uleb128 0xb
 470 0017 0B       		.uleb128 0xb
 471 0018 3E       		.uleb128 0x3e
 472 0019 0B       		.uleb128 0xb
 473 001a 03       		.uleb128 0x3
 474 001b 0E       		.uleb128 0xe
 475 001c 00       		.byte	0
 476 001d 00       		.byte	0
 477 001e 03       		.uleb128 0x3
 478 001f 16       		.uleb128 0x16
 479 0020 00       		.byte	0
 480 0021 03       		.uleb128 0x3
 481 0022 0E       		.uleb128 0xe
 482 0023 3A       		.uleb128 0x3a
 483 0024 0B       		.uleb128 0xb
 484 0025 3B       		.uleb128 0x3b
 485 0026 0B       		.uleb128 0xb
 486 0027 49       		.uleb128 0x49
 487 0028 13       		.uleb128 0x13
 488 0029 00       		.byte	0
 489 002a 00       		.byte	0
 490 002b 04       		.uleb128 0x4
 491 002c 24       		.uleb128 0x24
 492 002d 00       		.byte	0
 493 002e 0B       		.uleb128 0xb
 494 002f 0B       		.uleb128 0xb
 495 0030 3E       		.uleb128 0x3e
 496 0031 0B       		.uleb128 0xb
 497 0032 03       		.uleb128 0x3
 498 0033 08       		.uleb128 0x8
 499 0034 00       		.byte	0
 500 0035 00       		.byte	0
 501 0036 05       		.uleb128 0x5
 502 0037 13       		.uleb128 0x13
 503 0038 00       		.byte	0
 504 0039 0B       		.uleb128 0xb
 505 003a 0B       		.uleb128 0xb
 506 003b 3A       		.uleb128 0x3a
 507 003c 0B       		.uleb128 0xb
 508 003d 3B       		.uleb128 0x3b
 509 003e 0B       		.uleb128 0xb
 510 003f 00       		.byte	0
 511 0040 00       		.byte	0
 512 0041 06       		.uleb128 0x6
 513 0042 2E       		.uleb128 0x2e
ARM GAS  /tmp/ccGtsDfq.s 			page 10


 514 0043 01       		.byte	0x1
 515 0044 3F       		.uleb128 0x3f
 516 0045 19       		.uleb128 0x19
 517 0046 03       		.uleb128 0x3
 518 0047 0E       		.uleb128 0xe
 519 0048 3A       		.uleb128 0x3a
 520 0049 0B       		.uleb128 0xb
 521 004a 3B       		.uleb128 0x3b
 522 004b 0B       		.uleb128 0xb
 523 004c 27       		.uleb128 0x27
 524 004d 19       		.uleb128 0x19
 525 004e 49       		.uleb128 0x49
 526 004f 13       		.uleb128 0x13
 527 0050 20       		.uleb128 0x20
 528 0051 0B       		.uleb128 0xb
 529 0052 01       		.uleb128 0x1
 530 0053 13       		.uleb128 0x13
 531 0054 00       		.byte	0
 532 0055 00       		.byte	0
 533 0056 07       		.uleb128 0x7
 534 0057 05       		.uleb128 0x5
 535 0058 00       		.byte	0
 536 0059 03       		.uleb128 0x3
 537 005a 0E       		.uleb128 0xe
 538 005b 3A       		.uleb128 0x3a
 539 005c 0B       		.uleb128 0xb
 540 005d 3B       		.uleb128 0x3b
 541 005e 0B       		.uleb128 0xb
 542 005f 49       		.uleb128 0x49
 543 0060 13       		.uleb128 0x13
 544 0061 00       		.byte	0
 545 0062 00       		.byte	0
 546 0063 08       		.uleb128 0x8
 547 0064 05       		.uleb128 0x5
 548 0065 00       		.byte	0
 549 0066 03       		.uleb128 0x3
 550 0067 08       		.uleb128 0x8
 551 0068 3A       		.uleb128 0x3a
 552 0069 0B       		.uleb128 0xb
 553 006a 3B       		.uleb128 0x3b
 554 006b 0B       		.uleb128 0xb
 555 006c 49       		.uleb128 0x49
 556 006d 13       		.uleb128 0x13
 557 006e 00       		.byte	0
 558 006f 00       		.byte	0
 559 0070 09       		.uleb128 0x9
 560 0071 34       		.uleb128 0x34
 561 0072 00       		.byte	0
 562 0073 03       		.uleb128 0x3
 563 0074 08       		.uleb128 0x8
 564 0075 3A       		.uleb128 0x3a
 565 0076 0B       		.uleb128 0xb
 566 0077 3B       		.uleb128 0x3b
 567 0078 0B       		.uleb128 0xb
 568 0079 49       		.uleb128 0x49
 569 007a 13       		.uleb128 0x13
 570 007b 00       		.byte	0
ARM GAS  /tmp/ccGtsDfq.s 			page 11


 571 007c 00       		.byte	0
 572 007d 0A       		.uleb128 0xa
 573 007e 2E       		.uleb128 0x2e
 574 007f 01       		.byte	0x1
 575 0080 3F       		.uleb128 0x3f
 576 0081 19       		.uleb128 0x19
 577 0082 03       		.uleb128 0x3
 578 0083 0E       		.uleb128 0xe
 579 0084 3A       		.uleb128 0x3a
 580 0085 0B       		.uleb128 0xb
 581 0086 3B       		.uleb128 0x3b
 582 0087 0B       		.uleb128 0xb
 583 0088 27       		.uleb128 0x27
 584 0089 19       		.uleb128 0x19
 585 008a 11       		.uleb128 0x11
 586 008b 01       		.uleb128 0x1
 587 008c 12       		.uleb128 0x12
 588 008d 06       		.uleb128 0x6
 589 008e 40       		.uleb128 0x40
 590 008f 18       		.uleb128 0x18
 591 0090 9742     		.uleb128 0x2117
 592 0092 19       		.uleb128 0x19
 593 0093 01       		.uleb128 0x1
 594 0094 13       		.uleb128 0x13
 595 0095 00       		.byte	0
 596 0096 00       		.byte	0
 597 0097 0B       		.uleb128 0xb
 598 0098 898201   		.uleb128 0x4109
 599 009b 00       		.byte	0
 600 009c 11       		.uleb128 0x11
 601 009d 01       		.uleb128 0x1
 602 009e 31       		.uleb128 0x31
 603 009f 13       		.uleb128 0x13
 604 00a0 00       		.byte	0
 605 00a1 00       		.byte	0
 606 00a2 0C       		.uleb128 0xc
 607 00a3 898201   		.uleb128 0x4109
 608 00a6 00       		.byte	0
 609 00a7 11       		.uleb128 0x11
 610 00a8 01       		.uleb128 0x1
 611 00a9 9542     		.uleb128 0x2115
 612 00ab 19       		.uleb128 0x19
 613 00ac 31       		.uleb128 0x31
 614 00ad 13       		.uleb128 0x13
 615 00ae 00       		.byte	0
 616 00af 00       		.byte	0
 617 00b0 0D       		.uleb128 0xd
 618 00b1 2E       		.uleb128 0x2e
 619 00b2 01       		.byte	0x1
 620 00b3 31       		.uleb128 0x31
 621 00b4 13       		.uleb128 0x13
 622 00b5 11       		.uleb128 0x11
 623 00b6 01       		.uleb128 0x1
 624 00b7 12       		.uleb128 0x12
 625 00b8 06       		.uleb128 0x6
 626 00b9 40       		.uleb128 0x40
 627 00ba 18       		.uleb128 0x18
ARM GAS  /tmp/ccGtsDfq.s 			page 12


 628 00bb 9742     		.uleb128 0x2117
 629 00bd 19       		.uleb128 0x19
 630 00be 01       		.uleb128 0x1
 631 00bf 13       		.uleb128 0x13
 632 00c0 00       		.byte	0
 633 00c1 00       		.byte	0
 634 00c2 0E       		.uleb128 0xe
 635 00c3 05       		.uleb128 0x5
 636 00c4 00       		.byte	0
 637 00c5 31       		.uleb128 0x31
 638 00c6 13       		.uleb128 0x13
 639 00c7 02       		.uleb128 0x2
 640 00c8 17       		.uleb128 0x17
 641 00c9 00       		.byte	0
 642 00ca 00       		.byte	0
 643 00cb 0F       		.uleb128 0xf
 644 00cc 34       		.uleb128 0x34
 645 00cd 00       		.byte	0
 646 00ce 31       		.uleb128 0x31
 647 00cf 13       		.uleb128 0x13
 648 00d0 02       		.uleb128 0x2
 649 00d1 18       		.uleb128 0x18
 650 00d2 00       		.byte	0
 651 00d3 00       		.byte	0
 652 00d4 10       		.uleb128 0x10
 653 00d5 05       		.uleb128 0x5
 654 00d6 00       		.byte	0
 655 00d7 03       		.uleb128 0x3
 656 00d8 0E       		.uleb128 0xe
 657 00d9 3A       		.uleb128 0x3a
 658 00da 0B       		.uleb128 0xb
 659 00db 3B       		.uleb128 0x3b
 660 00dc 0B       		.uleb128 0xb
 661 00dd 49       		.uleb128 0x49
 662 00de 13       		.uleb128 0x13
 663 00df 02       		.uleb128 0x2
 664 00e0 17       		.uleb128 0x17
 665 00e1 00       		.byte	0
 666 00e2 00       		.byte	0
 667 00e3 11       		.uleb128 0x11
 668 00e4 34       		.uleb128 0x34
 669 00e5 00       		.byte	0
 670 00e6 03       		.uleb128 0x3
 671 00e7 0E       		.uleb128 0xe
 672 00e8 3A       		.uleb128 0x3a
 673 00e9 0B       		.uleb128 0xb
 674 00ea 3B       		.uleb128 0x3b
 675 00eb 0B       		.uleb128 0xb
 676 00ec 49       		.uleb128 0x49
 677 00ed 13       		.uleb128 0x13
 678 00ee 02       		.uleb128 0x2
 679 00ef 18       		.uleb128 0x18
 680 00f0 00       		.byte	0
 681 00f1 00       		.byte	0
 682 00f2 12       		.uleb128 0x12
 683 00f3 1D       		.uleb128 0x1d
 684 00f4 01       		.byte	0x1
ARM GAS  /tmp/ccGtsDfq.s 			page 13


 685 00f5 31       		.uleb128 0x31
 686 00f6 13       		.uleb128 0x13
 687 00f7 52       		.uleb128 0x52
 688 00f8 01       		.uleb128 0x1
 689 00f9 55       		.uleb128 0x55
 690 00fa 17       		.uleb128 0x17
 691 00fb 58       		.uleb128 0x58
 692 00fc 0B       		.uleb128 0xb
 693 00fd 59       		.uleb128 0x59
 694 00fe 0B       		.uleb128 0xb
 695 00ff 00       		.byte	0
 696 0100 00       		.byte	0
 697 0101 13       		.uleb128 0x13
 698 0102 05       		.uleb128 0x5
 699 0103 00       		.byte	0
 700 0104 31       		.uleb128 0x31
 701 0105 13       		.uleb128 0x13
 702 0106 02       		.uleb128 0x2
 703 0107 18       		.uleb128 0x18
 704 0108 00       		.byte	0
 705 0109 00       		.byte	0
 706 010a 14       		.uleb128 0x14
 707 010b 0B       		.uleb128 0xb
 708 010c 01       		.byte	0x1
 709 010d 55       		.uleb128 0x55
 710 010e 17       		.uleb128 0x17
 711 010f 00       		.byte	0
 712 0110 00       		.byte	0
 713 0111 15       		.uleb128 0x15
 714 0112 34       		.uleb128 0x34
 715 0113 00       		.byte	0
 716 0114 31       		.uleb128 0x31
 717 0115 13       		.uleb128 0x13
 718 0116 02       		.uleb128 0x2
 719 0117 17       		.uleb128 0x17
 720 0118 00       		.byte	0
 721 0119 00       		.byte	0
 722 011a 16       		.uleb128 0x16
 723 011b 34       		.uleb128 0x34
 724 011c 00       		.byte	0
 725 011d 03       		.uleb128 0x3
 726 011e 0E       		.uleb128 0xe
 727 011f 3A       		.uleb128 0x3a
 728 0120 0B       		.uleb128 0xb
 729 0121 3B       		.uleb128 0x3b
 730 0122 0B       		.uleb128 0xb
 731 0123 49       		.uleb128 0x49
 732 0124 13       		.uleb128 0x13
 733 0125 3F       		.uleb128 0x3f
 734 0126 19       		.uleb128 0x19
 735 0127 3C       		.uleb128 0x3c
 736 0128 19       		.uleb128 0x19
 737 0129 00       		.byte	0
 738 012a 00       		.byte	0
 739 012b 17       		.uleb128 0x17
 740 012c 26       		.uleb128 0x26
 741 012d 00       		.byte	0
ARM GAS  /tmp/ccGtsDfq.s 			page 14


 742 012e 49       		.uleb128 0x49
 743 012f 13       		.uleb128 0x13
 744 0130 00       		.byte	0
 745 0131 00       		.byte	0
 746 0132 18       		.uleb128 0x18
 747 0133 2E       		.uleb128 0x2e
 748 0134 00       		.byte	0
 749 0135 3F       		.uleb128 0x3f
 750 0136 19       		.uleb128 0x19
 751 0137 03       		.uleb128 0x3
 752 0138 0E       		.uleb128 0xe
 753 0139 3A       		.uleb128 0x3a
 754 013a 0B       		.uleb128 0xb
 755 013b 3B       		.uleb128 0x3b
 756 013c 0B       		.uleb128 0xb
 757 013d 27       		.uleb128 0x27
 758 013e 19       		.uleb128 0x19
 759 013f 3C       		.uleb128 0x3c
 760 0140 19       		.uleb128 0x19
 761 0141 00       		.byte	0
 762 0142 00       		.byte	0
 763 0143 19       		.uleb128 0x19
 764 0144 2E       		.uleb128 0x2e
 765 0145 01       		.byte	0x1
 766 0146 3F       		.uleb128 0x3f
 767 0147 19       		.uleb128 0x19
 768 0148 03       		.uleb128 0x3
 769 0149 0E       		.uleb128 0xe
 770 014a 3A       		.uleb128 0x3a
 771 014b 0B       		.uleb128 0xb
 772 014c 3B       		.uleb128 0x3b
 773 014d 0B       		.uleb128 0xb
 774 014e 27       		.uleb128 0x27
 775 014f 19       		.uleb128 0x19
 776 0150 3C       		.uleb128 0x3c
 777 0151 19       		.uleb128 0x19
 778 0152 01       		.uleb128 0x1
 779 0153 13       		.uleb128 0x13
 780 0154 00       		.byte	0
 781 0155 00       		.byte	0
 782 0156 1A       		.uleb128 0x1a
 783 0157 05       		.uleb128 0x5
 784 0158 00       		.byte	0
 785 0159 49       		.uleb128 0x49
 786 015a 13       		.uleb128 0x13
 787 015b 00       		.byte	0
 788 015c 00       		.byte	0
 789 015d 1B       		.uleb128 0x1b
 790 015e 0F       		.uleb128 0xf
 791 015f 00       		.byte	0
 792 0160 0B       		.uleb128 0xb
 793 0161 0B       		.uleb128 0xb
 794 0162 49       		.uleb128 0x49
 795 0163 13       		.uleb128 0x13
 796 0164 00       		.byte	0
 797 0165 00       		.byte	0
 798 0166 1C       		.uleb128 0x1c
ARM GAS  /tmp/ccGtsDfq.s 			page 15


 799 0167 2E       		.uleb128 0x2e
 800 0168 00       		.byte	0
 801 0169 3F       		.uleb128 0x3f
 802 016a 19       		.uleb128 0x19
 803 016b 03       		.uleb128 0x3
 804 016c 0E       		.uleb128 0xe
 805 016d 3A       		.uleb128 0x3a
 806 016e 0B       		.uleb128 0xb
 807 016f 3B       		.uleb128 0x3b
 808 0170 05       		.uleb128 0x5
 809 0171 27       		.uleb128 0x27
 810 0172 19       		.uleb128 0x19
 811 0173 3C       		.uleb128 0x3c
 812 0174 19       		.uleb128 0x19
 813 0175 00       		.byte	0
 814 0176 00       		.byte	0
 815 0177 00       		.byte	0
 816              		.section	.debug_loc,"",%progbits
 817              	.Ldebug_loc0:
 818              	.LLST0:
 819 0000 00000000 		.4byte	.LVL6
 820 0004 18000000 		.4byte	.LVL8
 821 0008 0100     		.2byte	0x1
 822 000a 50       		.byte	0x50
 823 000b 18000000 		.4byte	.LVL8
 824 000f 30000000 		.4byte	.LVL10
 825 0013 0400     		.2byte	0x4
 826 0015 F3       		.byte	0xf3
 827 0016 01       		.uleb128 0x1
 828 0017 50       		.byte	0x50
 829 0018 9F       		.byte	0x9f
 830 0019 30000000 		.4byte	.LVL10
 831 001d 48000000 		.4byte	.LVL12
 832 0021 0100     		.2byte	0x1
 833 0023 50       		.byte	0x50
 834 0024 48000000 		.4byte	.LVL12
 835 0028 50000000 		.4byte	.LFE8
 836 002c 0400     		.2byte	0x4
 837 002e F3       		.byte	0xf3
 838 002f 01       		.uleb128 0x1
 839 0030 50       		.byte	0x50
 840 0031 9F       		.byte	0x9f
 841 0032 00000000 		.4byte	0
 842 0036 00000000 		.4byte	0
 843              	.LLST1:
 844 003a 00000000 		.4byte	.LVL6
 845 003e 28000000 		.4byte	.LVL9
 846 0042 0100     		.2byte	0x1
 847 0044 51       		.byte	0x51
 848 0045 28000000 		.4byte	.LVL9
 849 0049 30000000 		.4byte	.LVL10
 850 004d 0400     		.2byte	0x4
 851 004f F3       		.byte	0xf3
 852 0050 01       		.uleb128 0x1
 853 0051 51       		.byte	0x51
 854 0052 9F       		.byte	0x9f
 855 0053 30000000 		.4byte	.LVL10
ARM GAS  /tmp/ccGtsDfq.s 			page 16


 856 0057 38000000 		.4byte	.LVL11
 857 005b 0100     		.2byte	0x1
 858 005d 51       		.byte	0x51
 859 005e 38000000 		.4byte	.LVL11
 860 0062 50000000 		.4byte	.LFE8
 861 0066 0400     		.2byte	0x4
 862 0068 F3       		.byte	0xf3
 863 0069 01       		.uleb128 0x1
 864 006a 51       		.byte	0x51
 865 006b 9F       		.byte	0x9f
 866 006c 00000000 		.4byte	0
 867 0070 00000000 		.4byte	0
 868              	.LLST2:
 869 0074 00000000 		.4byte	.LVL13
 870 0078 10000000 		.4byte	.LVL15
 871 007c 0100     		.2byte	0x1
 872 007e 50       		.byte	0x50
 873 007f 10000000 		.4byte	.LVL15
 874 0083 60000000 		.4byte	.LFE9
 875 0087 0400     		.2byte	0x4
 876 0089 F3       		.byte	0xf3
 877 008a 01       		.uleb128 0x1
 878 008b 50       		.byte	0x50
 879 008c 9F       		.byte	0x9f
 880 008d 00000000 		.4byte	0
 881 0091 00000000 		.4byte	0
 882              	.LLST3:
 883 0095 14000000 		.4byte	.LVL16
 884 0099 30000000 		.4byte	.LVL17
 885 009d 0100     		.2byte	0x1
 886 009f 52       		.byte	0x52
 887 00a0 38000000 		.4byte	.LVL18
 888 00a4 60000000 		.4byte	.LFE9
 889 00a8 0100     		.2byte	0x1
 890 00aa 52       		.byte	0x52
 891 00ab 00000000 		.4byte	0
 892 00af 00000000 		.4byte	0
 893              		.section	.debug_aranges,"",%progbits
 894 0000 2C000000 		.4byte	0x2c
 895 0004 0200     		.2byte	0x2
 896 0006 00000000 		.4byte	.Ldebug_info0
 897 000a 04       		.byte	0x4
 898 000b 00       		.byte	0
 899 000c 0000     		.2byte	0
 900 000e 0000     		.2byte	0
 901 0010 00000000 		.4byte	.LFB7
 902 0014 28000000 		.4byte	.LFE7-.LFB7
 903 0018 00000000 		.4byte	.LFB8
 904 001c 50000000 		.4byte	.LFE8-.LFB8
 905 0020 00000000 		.4byte	.LFB9
 906 0024 60000000 		.4byte	.LFE9-.LFB9
 907 0028 00000000 		.4byte	0
 908 002c 00000000 		.4byte	0
 909              		.section	.debug_ranges,"",%progbits
 910              	.Ldebug_ranges0:
 911 0000 08000000 		.4byte	.LBB4
 912 0004 0C000000 		.4byte	.LBE4
ARM GAS  /tmp/ccGtsDfq.s 			page 17


 913 0008 14000000 		.4byte	.LBB8
 914 000c 28000000 		.4byte	.LBE8
 915 0010 30000000 		.4byte	.LBB9
 916 0014 50000000 		.4byte	.LBE9
 917 0018 00000000 		.4byte	0
 918 001c 00000000 		.4byte	0
 919 0020 00000000 		.4byte	.LFB7
 920 0024 28000000 		.4byte	.LFE7
 921 0028 00000000 		.4byte	.LFB8
 922 002c 50000000 		.4byte	.LFE8
 923 0030 00000000 		.4byte	.LFB9
 924 0034 60000000 		.4byte	.LFE9
 925 0038 00000000 		.4byte	0
 926 003c 00000000 		.4byte	0
 927              		.section	.debug_line,"",%progbits
 928              	.Ldebug_line0:
 929 0000 CD010000 		.section	.debug_str,"MS",%progbits,1
 929      02004901 
 929      00000201 
 929      FB0E0D00 
 929      01010101 
 930              	.LASF30:
 931 0000 7469636B 		.ascii	"ticks\000"
 931      7300
 932              	.LASF27:
 933 0006 2E2E2F2E 		.ascii	"../../../os/hal/src/hal.c\000"
 933      2E2F2E2E 
 933      2F6F732F 
 933      68616C2F 
 933      7372632F 
 934              	.LASF26:
 935 0020 474E5520 		.ascii	"GNU C 4.9.3 20150529 (prerelease) -mcpu=arm1176jz-s"
 935      4320342E 
 935      392E3320 
 935      32303135 
 935      30353239 
 936 0053 202D6D61 		.ascii	" -mabi=apcs-gnu -mno-thumb-interwork -ggdb -O2 -fom"
 936      62693D61 
 936      7063732D 
 936      676E7520 
 936      2D6D6E6F 
 937 0086 69742D66 		.ascii	"it-frame-pointer -ffunction-sections -fdata-section"
 937      72616D65 
 937      2D706F69 
 937      6E746572 
 937      202D6666 
 938 00b9 7300     		.ascii	"s\000"
 939              	.LASF6:
 940 00bb 5F5F696E 		.ascii	"__int32_t\000"
 940      7433325F 
 940      7400
 941              	.LASF17:
 942 00c5 73746172 		.ascii	"start\000"
 942      7400
 943              	.LASF13:
 944 00cb 626F6F6C 		.ascii	"bool_t\000"
 944      5F7400
ARM GAS  /tmp/ccGtsDfq.s 			page 18


 945              	.LASF32:
 946 00d2 5F70616C 		.ascii	"_pal_lld_init\000"
 946      5F6C6C64 
 946      5F696E69 
 946      7400
 947              	.LASF10:
 948 00e0 696E7433 		.ascii	"int32_t\000"
 948      325F7400 
 949              	.LASF18:
 950 00e8 68616C49 		.ascii	"halInit\000"
 950      6E697400 
 951              	.LASF3:
 952 00f0 756E7369 		.ascii	"unsigned char\000"
 952      676E6564 
 952      20636861 
 952      7200
 953              	.LASF22:
 954 00fe 746D496E 		.ascii	"tmInit\000"
 954      697400
 955              	.LASF1:
 956 0105 6C6F6E67 		.ascii	"long unsigned int\000"
 956      20756E73 
 956      69676E65 
 956      6420696E 
 956      7400
 957              	.LASF21:
 958 0117 68616C5F 		.ascii	"hal_lld_init\000"
 958      6C6C645F 
 958      696E6974 
 958      00
 959              	.LASF5:
 960 0124 73686F72 		.ascii	"short unsigned int\000"
 960      7420756E 
 960      7369676E 
 960      65642069 
 960      6E7400
 961              	.LASF19:
 962 0137 68616C50 		.ascii	"halPolledDelay\000"
 962      6F6C6C65 
 962      6444656C 
 962      617900
 963              	.LASF23:
 964 0146 69326349 		.ascii	"i2cInit\000"
 964      6E697400 
 965              	.LASF15:
 966 014e 50414C43 		.ascii	"PALConfig\000"
 966      6F6E6669 
 966      6700
 967              	.LASF31:
 968 0158 70616C5F 		.ascii	"pal_default_config\000"
 968      64656661 
 968      756C745F 
 968      636F6E66 
 968      696700
 969              	.LASF7:
 970 016b 5F5F7569 		.ascii	"__uint32_t\000"
 970      6E743332 
ARM GAS  /tmp/ccGtsDfq.s 			page 19


 970      5F7400
 971              	.LASF12:
 972 0176 756E7369 		.ascii	"unsigned int\000"
 972      676E6564 
 972      20696E74 
 972      00
 973              	.LASF14:
 974 0183 68616C72 		.ascii	"halrtcnt_t\000"
 974      74636E74 
 974      5F7400
 975              	.LASF9:
 976 018e 6C6F6E67 		.ascii	"long long unsigned int\000"
 976      206C6F6E 
 976      6720756E 
 976      7369676E 
 976      65642069 
 977              	.LASF25:
 978 01a5 626F6172 		.ascii	"boardInit\000"
 978      64496E69 
 978      7400
 979              	.LASF29:
 980 01af 68616C49 		.ascii	"halIsCounterWithin\000"
 980      73436F75 
 980      6E746572 
 980      57697468 
 980      696E00
 981              	.LASF28:
 982 01c2 2F686F6D 		.ascii	"/home/hunter/development/chibi/ChibiOS-RPi/testhal/"
 982      652F6875 
 982      6E746572 
 982      2F646576 
 982      656C6F70 
 983 01f5 42434D32 		.ascii	"BCM2835/GPIO\000"
 983      3833352F 
 983      4750494F 
 983      00
 984              	.LASF16:
 985 0202 73697A65 		.ascii	"sizetype\000"
 985      74797065 
 985      00
 986              	.LASF8:
 987 020b 6C6F6E67 		.ascii	"long long int\000"
 987      206C6F6E 
 987      6720696E 
 987      7400
 988              	.LASF20:
 989 0219 74696D65 		.ascii	"timeout\000"
 989      6F757400 
 990              	.LASF24:
 991 0221 7364496E 		.ascii	"sdInit\000"
 991      697400
 992              	.LASF4:
 993 0228 73686F72 		.ascii	"short int\000"
 993      7420696E 
 993      7400
 994              	.LASF11:
 995 0232 75696E74 		.ascii	"uint32_t\000"
ARM GAS  /tmp/ccGtsDfq.s 			page 20


 995      33325F74 
 995      00
 996              	.LASF0:
 997 023b 6C6F6E67 		.ascii	"long int\000"
 997      20696E74 
 997      00
 998              	.LASF2:
 999 0244 7369676E 		.ascii	"signed char\000"
 999      65642063 
 999      68617200 
 1000              		.ident	"GCC: (15:4.9.3+svn231177-1) 4.9.3 20150529 (prerelease)"
ARM GAS  /tmp/ccGtsDfq.s 			page 21


DEFINED SYMBOLS
                            *ABS*:0000000000000000 hal.c
     /tmp/ccGtsDfq.s:6      .text.halInit:0000000000000000 $a
     /tmp/ccGtsDfq.s:9      .text.halInit:0000000000000000 halInit
     /tmp/ccGtsDfq.s:45     .text.halInit:0000000000000024 $d
     /tmp/ccGtsDfq.s:50     .text.halIsCounterWithin:0000000000000000 $a
     /tmp/ccGtsDfq.s:53     .text.halIsCounterWithin:0000000000000000 halIsCounterWithin
     /tmp/ccGtsDfq.s:99     .text.halIsCounterWithin:000000000000004c $d
     /tmp/ccGtsDfq.s:104    .text.halPolledDelay:0000000000000000 $a
     /tmp/ccGtsDfq.s:107    .text.halPolledDelay:0000000000000000 halPolledDelay
     /tmp/ccGtsDfq.s:174    .text.halPolledDelay:000000000000005c $d
                     .debug_frame:0000000000000010 $d

UNDEFINED SYMBOLS
hal_lld_init
tmInit
_pal_lld_init
i2cInit
sdInit
boardInit
pal_default_config
