ARM GAS  /tmp/ccvw1FuX.s 			page 1


   1              		.file	"hal_lld.c"
   2              		.text
   3              	.Ltext0:
   4              		.cfi_sections	.debug_frame
   5              		.section	.text.IrqHandler,"ax",%progbits
   6              		.align	2
   7              		.global	IrqHandler
   8              		.type	IrqHandler, %function
   9              	IrqHandler:
  10              	.LFB9:
  11              		.file 1 "../../../os/hal/platforms/BCM2835/hal_lld.c"
  12              		.loc 1 91 0
  13              		.cfi_startproc
  14              		@ Naked Function: prologue and epilogue provided by programmer.
  15              		@ args = 0, pretend = 0, frame = 0
  16              		@ frame_needed = 0, uses_anonymous_args = 0
  17              		.loc 1 92 0
  18              	@ 92 "../../../os/hal/platforms/BCM2835/hal_lld.c" 1
  19 0000 0F502DE9 		stmfd    sp!, {r0-r3, r12, lr}
  20              	@ 0 "" 2
  21              	.LBB6:
  22              	.LBB7:
  23              		.loc 1 75 0
  24 0004 FEFFFFEB 		bl	chSysTimerHandlerI
  25              	.LVL0:
  26              		.loc 1 79 0
  27 0008 0020A0E3 		mov	r2, #0
  28 000c 14309FE5 		ldr	r3, .L2
  29              	.LBE7:
  30              	.LBE6:
  31              		.loc 1 97 0
  32 0010 14009FE5 		ldr	r0, .L2+4
  33              	.LBB9:
  34              	.LBB8:
  35              		.loc 1 79 0
  36 0014 0C2483E5 		str	r2, [r3, #1036]
  37              	.LBE8:
  38              	.LBE9:
  39              		.loc 1 97 0
  40 0018 FEFFFFEB 		bl	sd_lld_serve_interrupt
  41              	.LVL1:
  42              		.loc 1 101 0
  43 001c 0C009FE5 		ldr	r0, .L2+8
  44 0020 FEFFFFEB 		bl	i2c_lld_serve_interrupt
  45              	.LVL2:
  46              		.loc 1 112 0
  47              	@ 112 "../../../os/hal/platforms/BCM2835/hal_lld.c" 1
  48 0024 FEFFFFEA 		b       _port_irq_common
  49              	@ 0 "" 2
  50              		.loc 1 113 0
  51              	.L3:
  52              		.align	2
  53              	.L2:
  54 0028 00B00020 		.word	536915968
  55 002c 00000000 		.word	SD1
  56 0030 00000000 		.word	I2C0
  57              		.cfi_endproc
ARM GAS  /tmp/ccvw1FuX.s 			page 2


  58              	.LFE9:
  59              		.size	IrqHandler, .-IrqHandler
  60              		.section	.text.delayMicroseconds,"ax",%progbits
  61              		.align	2
  62              		.global	delayMicroseconds
  63              		.type	delayMicroseconds, %function
  64              	delayMicroseconds:
  65              	.LFB10:
  66              		.loc 1 124 0
  67              		.cfi_startproc
  68              		@ args = 0, pretend = 0, frame = 0
  69              		@ frame_needed = 0, uses_anonymous_args = 0
  70              		@ link register save eliminated.
  71              	.LVL3:
  72              		.loc 1 125 0
  73 0000 18309FE5 		ldr	r3, .L8
  74              		.loc 1 126 0
  75 0004 0320A0E1 		mov	r2, r3
  76              		.loc 1 125 0
  77 0008 043093E5 		ldr	r3, [r3, #4]
  78 000c 030080E0 		add	r0, r0, r3
  79              	.LVL4:
  80              	.L5:
  81              		.loc 1 126 0 discriminator 1
  82 0010 043092E5 		ldr	r3, [r2, #4]
  83 0014 030050E1 		cmp	r0, r3
  84 0018 FCFFFF8A 		bhi	.L5
  85              		.loc 1 127 0
  86 001c 1EFF2FE1 		bx	lr
  87              	.L9:
  88              		.align	2
  89              	.L8:
  90 0020 00300020 		.word	536883200
  91              		.cfi_endproc
  92              	.LFE10:
  93              		.size	delayMicroseconds, .-delayMicroseconds
  94              		.section	.text.hal_lld_init,"ax",%progbits
  95              		.align	2
  96              		.global	hal_lld_init
  97              		.type	hal_lld_init, %function
  98              	hal_lld_init:
  99              	.LFB11:
 100              		.loc 1 134 0
 101              		.cfi_startproc
 102              		@ args = 0, pretend = 0, frame = 0
 103              		@ frame_needed = 0, uses_anonymous_args = 0
 104 0000 04E02DE5 		str	lr, [sp, #-4]!
 105              		.cfi_def_cfa_offset 4
 106              		.cfi_offset 14, -4
 107              	.LBB10:
 108              	.LBB11:
 109              		.loc 1 59 0
 110 0004 F9C0A0E3 		mov	ip, #249
 111              		.loc 1 56 0
 112 0008 3EE8A0E3 		mov	lr, #4063232
 113              		.loc 1 60 0
 114 000c 0000A0E3 		mov	r0, #0
ARM GAS  /tmp/ccvw1FuX.s 			page 3


 115              		.loc 1 56 0
 116 0010 2C309FE5 		ldr	r3, .L12
 117              		.loc 1 57 0
 118 0014 2C209FE5 		ldr	r2, .L12+4
 119              		.loc 1 61 0
 120 0018 2C109FE5 		ldr	r1, .L12+8
 121              		.loc 1 56 0
 122 001c 08E483E5 		str	lr, [r3, #1032]
 123              		.loc 1 57 0
 124 0020 002483E5 		str	r2, [r3, #1024]
 125              		.loc 1 58 0
 126 0024 182483E5 		str	r2, [r3, #1048]
 127              		.loc 1 59 0
 128 0028 1CC483E5 		str	ip, [r3, #1052]
 129              		.loc 1 60 0
 130 002c 0C0483E5 		str	r0, [r3, #1036]
 131              		.loc 1 61 0
 132 0030 081483E5 		str	r1, [r3, #1032]
 133              		.loc 1 63 0
 134 0034 182293E5 		ldr	r2, [r3, #536]
 135 0038 012082E3 		orr	r2, r2, #1
 136 003c 182283E5 		str	r2, [r3, #536]
 137 0040 04F09DE4 		ldr	pc, [sp], #4
 138              	.L13:
 139              		.align	2
 140              	.L12:
 141 0044 00B00020 		.word	536915968
 142 0048 E7030000 		.word	999
 143 004c A2003E00 		.word	4063394
 144              	.LBE11:
 145              	.LBE10:
 146              		.cfi_endproc
 147              	.LFE11:
 148              		.size	hal_lld_init, .-hal_lld_init
 149              		.section	.text.watchdog_start,"ax",%progbits
 150              		.align	2
 151              		.global	watchdog_start
 152              		.type	watchdog_start, %function
 153              	watchdog_start:
 154              	.LFB12:
 155              		.loc 1 142 0
 156              		.cfi_startproc
 157              		@ args = 0, pretend = 0, frame = 0
 158              		@ frame_needed = 0, uses_anonymous_args = 0
 159              		@ link register save eliminated.
 160              	.LVL5:
 161              		.loc 1 144 0
 162 0000 28209FE5 		ldr	r2, .L15
 163              		.loc 1 147 0
 164 0004 FF04C0E3 		bic	r0, r0, #-16777216
 165              	.LVL6:
 166              		.loc 1 144 0
 167 0008 1C3092E5 		ldr	r3, [r2, #28]
 168              	.LVL7:
 169              		.loc 1 147 0
 170 000c 0F06C0E3 		bic	r0, r0, #15728640
 171              		.loc 1 148 0
ARM GAS  /tmp/ccvw1FuX.s 			page 4


 172 0010 5A34C3E3 		bic	r3, r3, #1509949440
 173              	.LVL8:
 174 0014 3030C3E3 		bic	r3, r3, #48
 175 0018 5A3483E3 		orr	r3, r3, #1509949440
 176              		.loc 1 147 0
 177 001c 5A0480E3 		orr	r0, r0, #1509949440
 178              	.LVL9:
 179              		.loc 1 148 0
 180 0020 203083E3 		orr	r3, r3, #32
 181              	.LVL10:
 182              		.loc 1 149 0
 183 0024 240082E5 		str	r0, [r2, #36]
 184              		.loc 1 150 0
 185 0028 1C3082E5 		str	r3, [r2, #28]
 186 002c 1EFF2FE1 		bx	lr
 187              	.L16:
 188              		.align	2
 189              	.L15:
 190 0030 00001020 		.word	537919488
 191              		.cfi_endproc
 192              	.LFE12:
 193              		.size	watchdog_start, .-watchdog_start
 194              		.section	.text.watchdog_stop,"ax",%progbits
 195              		.align	2
 196              		.global	watchdog_stop
 197              		.type	watchdog_stop, %function
 198              	watchdog_stop:
 199              	.LFB13:
 200              		.loc 1 157 0
 201              		.cfi_startproc
 202              		@ args = 0, pretend = 0, frame = 0
 203              		@ frame_needed = 0, uses_anonymous_args = 0
 204              		@ link register save eliminated.
 205              		.loc 1 158 0
 206 0000 08309FE5 		ldr	r3, .L18
 207 0004 08209FE5 		ldr	r2, .L18+4
 208 0008 1C2083E5 		str	r2, [r3, #28]
 209 000c 1EFF2FE1 		bx	lr
 210              	.L19:
 211              		.align	2
 212              	.L18:
 213 0010 00001020 		.word	537919488
 214 0014 0201005A 		.word	1509949698
 215              		.cfi_endproc
 216              	.LFE13:
 217              		.size	watchdog_stop, .-watchdog_stop
 218              		.section	.text.watchdog_get_remaining,"ax",%progbits
 219              		.align	2
 220              		.global	watchdog_get_remaining
 221              		.type	watchdog_get_remaining, %function
 222              	watchdog_get_remaining:
 223              	.LFB14:
 224              		.loc 1 165 0
 225              		.cfi_startproc
 226              		@ args = 0, pretend = 0, frame = 0
 227              		@ frame_needed = 0, uses_anonymous_args = 0
 228              		@ link register save eliminated.
ARM GAS  /tmp/ccvw1FuX.s 			page 5


 229              		.loc 1 166 0
 230 0000 0C309FE5 		ldr	r3, .L21
 231 0004 240093E5 		ldr	r0, [r3, #36]
 232              		.loc 1 167 0
 233 0008 FF04C0E3 		bic	r0, r0, #-16777216
 234 000c 0F06C0E3 		bic	r0, r0, #15728640
 235 0010 1EFF2FE1 		bx	lr
 236              	.L22:
 237              		.align	2
 238              	.L21:
 239 0014 00001020 		.word	537919488
 240              		.cfi_endproc
 241              	.LFE14:
 242              		.size	watchdog_get_remaining, .-watchdog_get_remaining
 243              		.text
 244              	.Letext0:
 245              		.file 2 "/usr/lib/gcc/arm-none-eabi/4.9.3/include/stddef.h"
 246              		.file 3 "/usr/include/newlib/machine/_default_types.h"
 247              		.file 4 "/usr/include/newlib/sys/_stdint.h"
 248              		.file 5 "../../../os/ports/GCC/ARM/chtypes.h"
 249              		.file 6 "../../../os/kernel/include/chlists.h"
 250              		.file 7 "../../../os/kernel/include/chthreads.h"
 251              		.file 8 "../../../os/ports/GCC/ARM/chcore.h"
 252              		.file 9 "../../../os/kernel/include/chmtx.h"
 253              		.file 10 "../../../os/kernel/include/chevents.h"
 254              		.file 11 "../../../os/kernel/include/chqueues.h"
 255              		.file 12 "../../../os/hal/platforms/BCM2835/bcm2835.h"
 256              		.file 13 "../../../os/hal/include/i2c.h"
 257              		.file 14 "../../../os/hal/platforms/BCM2835/i2c_lld.h"
 258              		.file 15 "../../../os/hal/include/serial.h"
 259              		.file 16 "../../../os/hal/platforms/BCM2835/serial_lld.h"
 260              		.file 17 "../../../os/kernel/include/chsys.h"
 261              		.section	.debug_info,"",%progbits
 262              	.Ldebug_info0:
 263 0000 87090000 		.4byte	0x987
 264 0004 0400     		.2byte	0x4
 265 0006 00000000 		.4byte	.Ldebug_abbrev0
 266 000a 04       		.byte	0x4
 267 000b 01       		.uleb128 0x1
 268 000c 85020000 		.4byte	.LASF131
 269 0010 01       		.byte	0x1
 270 0011 A5030000 		.4byte	.LASF132
 271 0015 00000000 		.4byte	.LASF133
 272 0019 18000000 		.4byte	.Ldebug_ranges0+0x18
 273 001d 00000000 		.4byte	0
 274 0021 00000000 		.4byte	.Ldebug_line0
 275 0025 02       		.uleb128 0x2
 276 0026 04       		.byte	0x4
 277 0027 05       		.byte	0x5
 278 0028 1F010000 		.4byte	.LASF0
 279 002c 03       		.uleb128 0x3
 280 002d 40000000 		.4byte	.LASF3
 281 0031 02       		.byte	0x2
 282 0032 D4       		.byte	0xd4
 283 0033 37000000 		.4byte	0x37
 284 0037 02       		.uleb128 0x2
 285 0038 04       		.byte	0x4
ARM GAS  /tmp/ccvw1FuX.s 			page 6


 286 0039 07       		.byte	0x7
 287 003a F6010000 		.4byte	.LASF1
 288 003e 02       		.uleb128 0x2
 289 003f 01       		.byte	0x1
 290 0040 06       		.byte	0x6
 291 0041 D0000000 		.4byte	.LASF2
 292 0045 03       		.uleb128 0x3
 293 0046 5A000000 		.4byte	.LASF4
 294 004a 03       		.byte	0x3
 295 004b 1D       		.byte	0x1d
 296 004c 50000000 		.4byte	0x50
 297 0050 02       		.uleb128 0x2
 298 0051 01       		.byte	0x1
 299 0052 08       		.byte	0x8
 300 0053 24040000 		.4byte	.LASF5
 301 0057 02       		.uleb128 0x2
 302 0058 02       		.byte	0x2
 303 0059 05       		.byte	0x5
 304 005a 51040000 		.4byte	.LASF6
 305 005e 03       		.uleb128 0x3
 306 005f 0A050000 		.4byte	.LASF7
 307 0063 03       		.byte	0x3
 308 0064 2B       		.byte	0x2b
 309 0065 69000000 		.4byte	0x69
 310 0069 02       		.uleb128 0x2
 311 006a 02       		.byte	0x2
 312 006b 07       		.byte	0x7
 313 006c 1B020000 		.4byte	.LASF8
 314 0070 03       		.uleb128 0x3
 315 0071 31050000 		.4byte	.LASF9
 316 0075 03       		.byte	0x3
 317 0076 3F       		.byte	0x3f
 318 0077 25000000 		.4byte	0x25
 319 007b 03       		.uleb128 0x3
 320 007c 75010000 		.4byte	.LASF10
 321 0080 03       		.byte	0x3
 322 0081 41       		.byte	0x41
 323 0082 37000000 		.4byte	0x37
 324 0086 02       		.uleb128 0x2
 325 0087 08       		.byte	0x8
 326 0088 05       		.byte	0x5
 327 0089 C2000000 		.4byte	.LASF11
 328 008d 02       		.uleb128 0x2
 329 008e 08       		.byte	0x8
 330 008f 07       		.byte	0x7
 331 0090 76000000 		.4byte	.LASF12
 332 0094 03       		.uleb128 0x3
 333 0095 BD050000 		.4byte	.LASF13
 334 0099 04       		.byte	0x4
 335 009a 14       		.byte	0x14
 336 009b 45000000 		.4byte	0x45
 337 009f 03       		.uleb128 0x3
 338 00a0 4B010000 		.4byte	.LASF14
 339 00a4 04       		.byte	0x4
 340 00a5 1A       		.byte	0x1a
 341 00a6 5E000000 		.4byte	0x5e
 342 00aa 03       		.uleb128 0x3
ARM GAS  /tmp/ccvw1FuX.s 			page 7


 343 00ab 1C040000 		.4byte	.LASF15
 344 00af 04       		.byte	0x4
 345 00b0 1F       		.byte	0x1f
 346 00b1 70000000 		.4byte	0x70
 347 00b5 03       		.uleb128 0x3
 348 00b6 C1040000 		.4byte	.LASF16
 349 00ba 04       		.byte	0x4
 350 00bb 20       		.byte	0x20
 351 00bc 7B000000 		.4byte	0x7b
 352 00c0 04       		.uleb128 0x4
 353 00c1 04       		.byte	0x4
 354 00c2 05       		.byte	0x5
 355 00c3 696E7400 		.ascii	"int\000"
 356 00c7 02       		.uleb128 0x2
 357 00c8 04       		.byte	0x4
 358 00c9 07       		.byte	0x7
 359 00ca B2010000 		.4byte	.LASF17
 360 00ce 03       		.uleb128 0x3
 361 00cf 54020000 		.4byte	.LASF18
 362 00d3 05       		.byte	0x5
 363 00d4 2A       		.byte	0x2a
 364 00d5 94000000 		.4byte	0x94
 365 00d9 03       		.uleb128 0x3
 366 00da 28010000 		.4byte	.LASF19
 367 00de 05       		.byte	0x5
 368 00df 2B       		.byte	0x2b
 369 00e0 94000000 		.4byte	0x94
 370 00e4 03       		.uleb128 0x3
 371 00e5 FA000000 		.4byte	.LASF20
 372 00e9 05       		.byte	0x5
 373 00ea 2D       		.byte	0x2d
 374 00eb 94000000 		.4byte	0x94
 375 00ef 03       		.uleb128 0x3
 376 00f0 FB030000 		.4byte	.LASF21
 377 00f4 05       		.byte	0x5
 378 00f5 2E       		.byte	0x2e
 379 00f6 B5000000 		.4byte	0xb5
 380 00fa 03       		.uleb128 0x3
 381 00fb 38020000 		.4byte	.LASF22
 382 00ff 05       		.byte	0x5
 383 0100 2F       		.byte	0x2f
 384 0101 AA000000 		.4byte	0xaa
 385 0105 03       		.uleb128 0x3
 386 0106 68020000 		.4byte	.LASF23
 387 010a 05       		.byte	0x5
 388 010b 31       		.byte	0x31
 389 010c B5000000 		.4byte	0xb5
 390 0110 03       		.uleb128 0x3
 391 0111 83050000 		.4byte	.LASF24
 392 0115 05       		.byte	0x5
 393 0116 32       		.byte	0x32
 394 0117 B5000000 		.4byte	0xb5
 395 011b 03       		.uleb128 0x3
 396 011c 1C050000 		.4byte	.LASF25
 397 0120 05       		.byte	0x5
 398 0121 33       		.byte	0x33
 399 0122 B5000000 		.4byte	0xb5
ARM GAS  /tmp/ccvw1FuX.s 			page 8


 400 0126 03       		.uleb128 0x3
 401 0127 83040000 		.4byte	.LASF26
 402 012b 06       		.byte	0x6
 403 012c 23       		.byte	0x23
 404 012d 31010000 		.4byte	0x131
 405 0131 05       		.uleb128 0x5
 406 0132 83040000 		.4byte	.LASF26
 407 0136 28       		.byte	0x28
 408 0137 07       		.byte	0x7
 409 0138 57       		.byte	0x57
 410 0139 CE010000 		.4byte	0x1ce
 411 013d 06       		.uleb128 0x6
 412 013e 74040000 		.4byte	.LASF27
 413 0142 07       		.byte	0x7
 414 0143 58       		.byte	0x58
 415 0144 EF010000 		.4byte	0x1ef
 416 0148 00       		.byte	0
 417 0149 06       		.uleb128 0x6
 418 014a F4030000 		.4byte	.LASF28
 419 014e 07       		.byte	0x7
 420 014f 5A       		.byte	0x5a
 421 0150 EF010000 		.4byte	0x1ef
 422 0154 04       		.byte	0x4
 423 0155 06       		.uleb128 0x6
 424 0156 A4000000 		.4byte	.LASF29
 425 015a 07       		.byte	0x7
 426 015b 5C       		.byte	0x5c
 427 015c EF000000 		.4byte	0xef
 428 0160 08       		.byte	0x8
 429 0161 06       		.uleb128 0x6
 430 0162 32060000 		.4byte	.LASF30
 431 0166 07       		.byte	0x7
 432 0167 5D       		.byte	0x5d
 433 0168 9F020000 		.4byte	0x29f
 434 016c 0C       		.byte	0xc
 435 016d 06       		.uleb128 0x6
 436 016e 5B040000 		.4byte	.LASF31
 437 0172 07       		.byte	0x7
 438 0173 72       		.byte	0x72
 439 0174 D9000000 		.4byte	0xd9
 440 0178 10       		.byte	0x10
 441 0179 06       		.uleb128 0x6
 442 017a 7B040000 		.4byte	.LASF32
 443 017e 07       		.byte	0x7
 444 017f 76       		.byte	0x76
 445 0180 CE000000 		.4byte	0xce
 446 0184 11       		.byte	0x11
 447 0185 06       		.uleb128 0x6
 448 0186 63040000 		.4byte	.LASF33
 449 018a 07       		.byte	0x7
 450 018b 81       		.byte	0x81
 451 018c E4000000 		.4byte	0xe4
 452 0190 12       		.byte	0x12
 453 0191 07       		.uleb128 0x7
 454 0192 705F7500 		.ascii	"p_u\000"
 455 0196 07       		.byte	0x7
 456 0197 AD       		.byte	0xad
ARM GAS  /tmp/ccvw1FuX.s 			page 9


 457 0198 72030000 		.4byte	0x372
 458 019c 14       		.byte	0x14
 459 019d 06       		.uleb128 0x6
 460 019e 38060000 		.4byte	.LASF34
 461 01a2 07       		.byte	0x7
 462 01a3 B2       		.byte	0xb2
 463 01a4 15020000 		.4byte	0x215
 464 01a8 18       		.byte	0x18
 465 01a9 06       		.uleb128 0x6
 466 01aa AC040000 		.4byte	.LASF35
 467 01ae 07       		.byte	0x7
 468 01af C2       		.byte	0xc2
 469 01b0 05010000 		.4byte	0x105
 470 01b4 1C       		.byte	0x1c
 471 01b5 06       		.uleb128 0x6
 472 01b6 47040000 		.4byte	.LASF36
 473 01ba 07       		.byte	0x7
 474 01bb C9       		.byte	0xc9
 475 01bc A7030000 		.4byte	0x3a7
 476 01c0 20       		.byte	0x20
 477 01c1 06       		.uleb128 0x6
 478 01c2 26050000 		.4byte	.LASF37
 479 01c6 07       		.byte	0x7
 480 01c7 CD       		.byte	0xcd
 481 01c8 EF000000 		.4byte	0xef
 482 01cc 24       		.byte	0x24
 483 01cd 00       		.byte	0
 484 01ce 08       		.uleb128 0x8
 485 01cf 08       		.byte	0x8
 486 01d0 06       		.byte	0x6
 487 01d1 5A       		.byte	0x5a
 488 01d2 EF010000 		.4byte	0x1ef
 489 01d6 06       		.uleb128 0x6
 490 01d7 74040000 		.4byte	.LASF27
 491 01db 06       		.byte	0x6
 492 01dc 5B       		.byte	0x5b
 493 01dd EF010000 		.4byte	0x1ef
 494 01e1 00       		.byte	0
 495 01e2 06       		.uleb128 0x6
 496 01e3 F4030000 		.4byte	.LASF28
 497 01e7 06       		.byte	0x6
 498 01e8 5D       		.byte	0x5d
 499 01e9 EF010000 		.4byte	0x1ef
 500 01ed 04       		.byte	0x4
 501 01ee 00       		.byte	0
 502 01ef 09       		.uleb128 0x9
 503 01f0 04       		.byte	0x4
 504 01f1 26010000 		.4byte	0x126
 505 01f5 03       		.uleb128 0x3
 506 01f6 98030000 		.4byte	.LASF38
 507 01fa 06       		.byte	0x6
 508 01fb 5F       		.byte	0x5f
 509 01fc CE010000 		.4byte	0x1ce
 510 0200 08       		.uleb128 0x8
 511 0201 04       		.byte	0x4
 512 0202 06       		.byte	0x6
 513 0203 64       		.byte	0x64
ARM GAS  /tmp/ccvw1FuX.s 			page 10


 514 0204 15020000 		.4byte	0x215
 515 0208 06       		.uleb128 0x6
 516 0209 74040000 		.4byte	.LASF27
 517 020d 06       		.byte	0x6
 518 020e 66       		.byte	0x66
 519 020f EF010000 		.4byte	0x1ef
 520 0213 00       		.byte	0
 521 0214 00       		.byte	0
 522 0215 03       		.uleb128 0x3
 523 0216 5C020000 		.4byte	.LASF39
 524 021a 06       		.byte	0x6
 525 021b 69       		.byte	0x69
 526 021c 00020000 		.4byte	0x200
 527 0220 03       		.uleb128 0x3
 528 0221 80010000 		.4byte	.LASF40
 529 0225 08       		.byte	0x8
 530 0226 A2       		.byte	0xa2
 531 0227 2B020000 		.4byte	0x22b
 532 022b 0A       		.uleb128 0xa
 533 022c 04       		.byte	0x4
 534 022d 05       		.uleb128 0x5
 535 022e 5A050000 		.4byte	.LASF41
 536 0232 24       		.byte	0x24
 537 0233 08       		.byte	0x8
 538 0234 B9       		.byte	0xb9
 539 0235 9F020000 		.4byte	0x29f
 540 0239 07       		.uleb128 0x7
 541 023a 723400   		.ascii	"r4\000"
 542 023d 08       		.byte	0x8
 543 023e BA       		.byte	0xba
 544 023f 20020000 		.4byte	0x220
 545 0243 00       		.byte	0
 546 0244 07       		.uleb128 0x7
 547 0245 723500   		.ascii	"r5\000"
 548 0248 08       		.byte	0x8
 549 0249 BB       		.byte	0xbb
 550 024a 20020000 		.4byte	0x220
 551 024e 04       		.byte	0x4
 552 024f 07       		.uleb128 0x7
 553 0250 723600   		.ascii	"r6\000"
 554 0253 08       		.byte	0x8
 555 0254 BC       		.byte	0xbc
 556 0255 20020000 		.4byte	0x220
 557 0259 08       		.byte	0x8
 558 025a 07       		.uleb128 0x7
 559 025b 723700   		.ascii	"r7\000"
 560 025e 08       		.byte	0x8
 561 025f BD       		.byte	0xbd
 562 0260 20020000 		.4byte	0x220
 563 0264 0C       		.byte	0xc
 564 0265 07       		.uleb128 0x7
 565 0266 723800   		.ascii	"r8\000"
 566 0269 08       		.byte	0x8
 567 026a BE       		.byte	0xbe
 568 026b 20020000 		.4byte	0x220
 569 026f 10       		.byte	0x10
 570 0270 07       		.uleb128 0x7
ARM GAS  /tmp/ccvw1FuX.s 			page 11


 571 0271 723900   		.ascii	"r9\000"
 572 0274 08       		.byte	0x8
 573 0275 BF       		.byte	0xbf
 574 0276 20020000 		.4byte	0x220
 575 027a 14       		.byte	0x14
 576 027b 07       		.uleb128 0x7
 577 027c 72313000 		.ascii	"r10\000"
 578 0280 08       		.byte	0x8
 579 0281 C0       		.byte	0xc0
 580 0282 20020000 		.4byte	0x220
 581 0286 18       		.byte	0x18
 582 0287 07       		.uleb128 0x7
 583 0288 72313100 		.ascii	"r11\000"
 584 028c 08       		.byte	0x8
 585 028d C1       		.byte	0xc1
 586 028e 20020000 		.4byte	0x220
 587 0292 1C       		.byte	0x1c
 588 0293 07       		.uleb128 0x7
 589 0294 6C7200   		.ascii	"lr\000"
 590 0297 08       		.byte	0x8
 591 0298 C2       		.byte	0xc2
 592 0299 20020000 		.4byte	0x220
 593 029d 20       		.byte	0x20
 594 029e 00       		.byte	0
 595 029f 05       		.uleb128 0x5
 596 02a0 45050000 		.4byte	.LASF42
 597 02a4 04       		.byte	0x4
 598 02a5 08       		.byte	0x8
 599 02a6 CA       		.byte	0xca
 600 02a7 B8020000 		.4byte	0x2b8
 601 02ab 07       		.uleb128 0x7
 602 02ac 72313300 		.ascii	"r13\000"
 603 02b0 08       		.byte	0x8
 604 02b1 CB       		.byte	0xcb
 605 02b2 B8020000 		.4byte	0x2b8
 606 02b6 00       		.byte	0
 607 02b7 00       		.byte	0
 608 02b8 09       		.uleb128 0x9
 609 02b9 04       		.byte	0x4
 610 02ba 2D020000 		.4byte	0x22d
 611 02be 05       		.uleb128 0x5
 612 02bf 7F020000 		.4byte	.LASF43
 613 02c3 10       		.byte	0x10
 614 02c4 09       		.byte	0x9
 615 02c5 25       		.byte	0x25
 616 02c6 EF020000 		.4byte	0x2ef
 617 02ca 06       		.uleb128 0x6
 618 02cb F2000000 		.4byte	.LASF44
 619 02cf 09       		.byte	0x9
 620 02d0 26       		.byte	0x26
 621 02d1 F5010000 		.4byte	0x1f5
 622 02d5 00       		.byte	0
 623 02d6 06       		.uleb128 0x6
 624 02d7 2A060000 		.4byte	.LASF45
 625 02db 09       		.byte	0x9
 626 02dc 28       		.byte	0x28
 627 02dd EF010000 		.4byte	0x1ef
ARM GAS  /tmp/ccvw1FuX.s 			page 12


 628 02e1 08       		.byte	0x8
 629 02e2 06       		.uleb128 0x6
 630 02e3 15050000 		.4byte	.LASF46
 631 02e7 09       		.byte	0x9
 632 02e8 2A       		.byte	0x2a
 633 02e9 EF020000 		.4byte	0x2ef
 634 02ed 0C       		.byte	0xc
 635 02ee 00       		.byte	0
 636 02ef 09       		.uleb128 0x9
 637 02f0 04       		.byte	0x4
 638 02f1 BE020000 		.4byte	0x2be
 639 02f5 03       		.uleb128 0x3
 640 02f6 7F020000 		.4byte	.LASF43
 641 02fa 09       		.byte	0x9
 642 02fb 2C       		.byte	0x2c
 643 02fc BE020000 		.4byte	0x2be
 644 0300 03       		.uleb128 0x3
 645 0301 C5050000 		.4byte	.LASF47
 646 0305 0A       		.byte	0xa
 647 0306 25       		.byte	0x25
 648 0307 0B030000 		.4byte	0x30b
 649 030b 05       		.uleb128 0x5
 650 030c C5050000 		.4byte	.LASF47
 651 0310 10       		.byte	0x10
 652 0311 0A       		.byte	0xa
 653 0312 2A       		.byte	0x2a
 654 0313 48030000 		.4byte	0x348
 655 0317 06       		.uleb128 0x6
 656 0318 45020000 		.4byte	.LASF48
 657 031c 0A       		.byte	0xa
 658 031d 2B       		.byte	0x2b
 659 031e 48030000 		.4byte	0x348
 660 0322 00       		.byte	0
 661 0323 06       		.uleb128 0x6
 662 0324 32040000 		.4byte	.LASF49
 663 0328 0A       		.byte	0xa
 664 0329 2E       		.byte	0x2e
 665 032a EF010000 		.4byte	0x1ef
 666 032e 04       		.byte	0x4
 667 032f 06       		.uleb128 0x6
 668 0330 D1030000 		.4byte	.LASF50
 669 0334 0A       		.byte	0xa
 670 0335 30       		.byte	0x30
 671 0336 05010000 		.4byte	0x105
 672 033a 08       		.byte	0x8
 673 033b 06       		.uleb128 0x6
 674 033c 3E040000 		.4byte	.LASF51
 675 0340 0A       		.byte	0xa
 676 0341 33       		.byte	0x33
 677 0342 10010000 		.4byte	0x110
 678 0346 0C       		.byte	0xc
 679 0347 00       		.byte	0
 680 0348 09       		.uleb128 0x9
 681 0349 04       		.byte	0x4
 682 034a 00030000 		.4byte	0x300
 683 034e 05       		.uleb128 0x5
 684 034f A6010000 		.4byte	.LASF52
ARM GAS  /tmp/ccvw1FuX.s 			page 13


 685 0353 04       		.byte	0x4
 686 0354 0A       		.byte	0xa
 687 0355 3A       		.byte	0x3a
 688 0356 67030000 		.4byte	0x367
 689 035a 06       		.uleb128 0x6
 690 035b A5050000 		.4byte	.LASF53
 691 035f 0A       		.byte	0xa
 692 0360 3B       		.byte	0x3b
 693 0361 48030000 		.4byte	0x348
 694 0365 00       		.byte	0
 695 0366 00       		.byte	0
 696 0367 03       		.uleb128 0x3
 697 0368 A6010000 		.4byte	.LASF52
 698 036c 0A       		.byte	0xa
 699 036d 3E       		.byte	0x3e
 700 036e 4E030000 		.4byte	0x34e
 701 0372 0B       		.uleb128 0xb
 702 0373 04       		.byte	0x4
 703 0374 07       		.byte	0x7
 704 0375 8F       		.byte	0x8f
 705 0376 A7030000 		.4byte	0x3a7
 706 037a 0C       		.uleb128 0xc
 707 037b 47000000 		.4byte	.LASF54
 708 037f 07       		.byte	0x7
 709 0380 96       		.byte	0x96
 710 0381 FA000000 		.4byte	0xfa
 711 0385 0C       		.uleb128 0xc
 712 0386 92000000 		.4byte	.LASF55
 713 038a 07       		.byte	0x7
 714 038b 9D       		.byte	0x9d
 715 038c FA000000 		.4byte	0xfa
 716 0390 0C       		.uleb128 0xc
 717 0391 D3050000 		.4byte	.LASF56
 718 0395 07       		.byte	0x7
 719 0396 A4       		.byte	0xa4
 720 0397 2B020000 		.4byte	0x22b
 721 039b 0C       		.uleb128 0xc
 722 039c 6D040000 		.4byte	.LASF57
 723 03a0 07       		.byte	0x7
 724 03a1 AB       		.byte	0xab
 725 03a2 05010000 		.4byte	0x105
 726 03a6 00       		.byte	0
 727 03a7 09       		.uleb128 0x9
 728 03a8 04       		.byte	0x4
 729 03a9 F5020000 		.4byte	0x2f5
 730 03ad 09       		.uleb128 0x9
 731 03ae 04       		.byte	0x4
 732 03af B3030000 		.4byte	0x3b3
 733 03b3 0D       		.uleb128 0xd
 734 03b4 FA000000 		.4byte	0xfa
 735 03b8 C2030000 		.4byte	0x3c2
 736 03bc 0E       		.uleb128 0xe
 737 03bd 2B020000 		.4byte	0x22b
 738 03c1 00       		.byte	0
 739 03c2 03       		.uleb128 0x3
 740 03c3 20030000 		.4byte	.LASF58
 741 03c7 0B       		.byte	0xb
ARM GAS  /tmp/ccvw1FuX.s 			page 14


 742 03c8 30       		.byte	0x30
 743 03c9 CD030000 		.4byte	0x3cd
 744 03cd 05       		.uleb128 0x5
 745 03ce 20030000 		.4byte	.LASF58
 746 03d2 24       		.byte	0x24
 747 03d3 0B       		.byte	0xb
 748 03d4 3E       		.byte	0x3e
 749 03d5 3A040000 		.4byte	0x43a
 750 03d9 06       		.uleb128 0x6
 751 03da B8000000 		.4byte	.LASF59
 752 03de 0B       		.byte	0xb
 753 03df 3F       		.byte	0x3f
 754 03e0 F5010000 		.4byte	0x1f5
 755 03e4 00       		.byte	0
 756 03e5 06       		.uleb128 0x6
 757 03e6 5F030000 		.4byte	.LASF60
 758 03ea 0B       		.byte	0xb
 759 03eb 40       		.byte	0x40
 760 03ec 2C000000 		.4byte	0x2c
 761 03f0 08       		.byte	0x8
 762 03f1 06       		.uleb128 0x6
 763 03f2 42010000 		.4byte	.LASF61
 764 03f6 0B       		.byte	0xb
 765 03f7 41       		.byte	0x41
 766 03f8 5C040000 		.4byte	0x45c
 767 03fc 0C       		.byte	0xc
 768 03fd 06       		.uleb128 0x6
 769 03fe 9F050000 		.4byte	.LASF62
 770 0402 0B       		.byte	0xb
 771 0403 42       		.byte	0x42
 772 0404 5C040000 		.4byte	0x45c
 773 0408 10       		.byte	0x10
 774 0409 06       		.uleb128 0x6
 775 040a 90030000 		.4byte	.LASF63
 776 040e 0B       		.byte	0xb
 777 040f 44       		.byte	0x44
 778 0410 5C040000 		.4byte	0x45c
 779 0414 14       		.byte	0x14
 780 0415 06       		.uleb128 0x6
 781 0416 03040000 		.4byte	.LASF64
 782 041a 0B       		.byte	0xb
 783 041b 45       		.byte	0x45
 784 041c 5C040000 		.4byte	0x45c
 785 0420 18       		.byte	0x18
 786 0421 06       		.uleb128 0x6
 787 0422 B4050000 		.4byte	.LASF65
 788 0426 0B       		.byte	0xb
 789 0427 46       		.byte	0x46
 790 0428 3A040000 		.4byte	0x43a
 791 042c 1C       		.byte	0x1c
 792 042d 06       		.uleb128 0x6
 793 042e 1B060000 		.4byte	.LASF66
 794 0432 0B       		.byte	0xb
 795 0433 47       		.byte	0x47
 796 0434 2B020000 		.4byte	0x22b
 797 0438 20       		.byte	0x20
 798 0439 00       		.byte	0
ARM GAS  /tmp/ccvw1FuX.s 			page 15


 799 043a 03       		.uleb128 0x3
 800 043b EA030000 		.4byte	.LASF67
 801 043f 0B       		.byte	0xb
 802 0440 33       		.byte	0x33
 803 0441 45040000 		.4byte	0x445
 804 0445 09       		.uleb128 0x9
 805 0446 04       		.byte	0x4
 806 0447 4B040000 		.4byte	0x44b
 807 044b 0F       		.uleb128 0xf
 808 044c 56040000 		.4byte	0x456
 809 0450 0E       		.uleb128 0xe
 810 0451 56040000 		.4byte	0x456
 811 0455 00       		.byte	0
 812 0456 09       		.uleb128 0x9
 813 0457 04       		.byte	0x4
 814 0458 C2030000 		.4byte	0x3c2
 815 045c 09       		.uleb128 0x9
 816 045d 04       		.byte	0x4
 817 045e 94000000 		.4byte	0x94
 818 0462 03       		.uleb128 0x3
 819 0463 74020000 		.4byte	.LASF68
 820 0467 0B       		.byte	0xb
 821 0468 7B       		.byte	0x7b
 822 0469 C2030000 		.4byte	0x3c2
 823 046d 03       		.uleb128 0x3
 824 046e 4E000000 		.4byte	.LASF69
 825 0472 0B       		.byte	0xb
 826 0473 EE       		.byte	0xee
 827 0474 C2030000 		.4byte	0x3c2
 828 0478 0D       		.uleb128 0xd
 829 0479 2C000000 		.4byte	0x2c
 830 047d 91040000 		.4byte	0x491
 831 0481 0E       		.uleb128 0xe
 832 0482 2B020000 		.4byte	0x22b
 833 0486 0E       		.uleb128 0xe
 834 0487 91040000 		.4byte	0x491
 835 048b 0E       		.uleb128 0xe
 836 048c 2C000000 		.4byte	0x2c
 837 0490 00       		.byte	0
 838 0491 09       		.uleb128 0x9
 839 0492 04       		.byte	0x4
 840 0493 97040000 		.4byte	0x497
 841 0497 10       		.uleb128 0x10
 842 0498 94000000 		.4byte	0x94
 843 049c 09       		.uleb128 0x9
 844 049d 04       		.byte	0x4
 845 049e 78040000 		.4byte	0x478
 846 04a2 0D       		.uleb128 0xd
 847 04a3 2C000000 		.4byte	0x2c
 848 04a7 BB040000 		.4byte	0x4bb
 849 04ab 0E       		.uleb128 0xe
 850 04ac 2B020000 		.4byte	0x22b
 851 04b0 0E       		.uleb128 0xe
 852 04b1 5C040000 		.4byte	0x45c
 853 04b5 0E       		.uleb128 0xe
 854 04b6 2C000000 		.4byte	0x2c
 855 04ba 00       		.byte	0
ARM GAS  /tmp/ccvw1FuX.s 			page 16


 856 04bb 09       		.uleb128 0x9
 857 04bc 04       		.byte	0x4
 858 04bd A2040000 		.4byte	0x4a2
 859 04c1 0D       		.uleb128 0xd
 860 04c2 FA000000 		.4byte	0xfa
 861 04c6 D5040000 		.4byte	0x4d5
 862 04ca 0E       		.uleb128 0xe
 863 04cb 2B020000 		.4byte	0x22b
 864 04cf 0E       		.uleb128 0xe
 865 04d0 94000000 		.4byte	0x94
 866 04d4 00       		.byte	0
 867 04d5 09       		.uleb128 0x9
 868 04d6 04       		.byte	0x4
 869 04d7 C1040000 		.4byte	0x4c1
 870 04db 05       		.uleb128 0x5
 871 04dc 64000000 		.4byte	.LASF70
 872 04e0 20       		.byte	0x20
 873 04e1 0C       		.byte	0xc
 874 04e2 FD       		.byte	0xfd
 875 04e3 4E050000 		.4byte	0x54e
 876 04e7 06       		.uleb128 0x6
 877 04e8 6D010000 		.4byte	.LASF71
 878 04ec 0C       		.byte	0xc
 879 04ed FE       		.byte	0xfe
 880 04ee 4E050000 		.4byte	0x54e
 881 04f2 00       		.byte	0
 882 04f3 06       		.uleb128 0x6
 883 04f4 AD050000 		.4byte	.LASF72
 884 04f8 0C       		.byte	0xc
 885 04f9 FF       		.byte	0xff
 886 04fa 4E050000 		.4byte	0x54e
 887 04fe 04       		.byte	0x4
 888 04ff 11       		.uleb128 0x11
 889 0500 62010000 		.4byte	.LASF73
 890 0504 0C       		.byte	0xc
 891 0505 0001     		.2byte	0x100
 892 0507 4E050000 		.4byte	0x54e
 893 050b 08       		.byte	0x8
 894 050c 11       		.uleb128 0x11
 895 050d 89010000 		.4byte	.LASF74
 896 0511 0C       		.byte	0xc
 897 0512 0101     		.2byte	0x101
 898 0514 4E050000 		.4byte	0x54e
 899 0518 0C       		.byte	0xc
 900 0519 11       		.uleb128 0x11
 901 051a 9B000000 		.4byte	.LASF75
 902 051e 0C       		.byte	0xc
 903 051f 0201     		.2byte	0x102
 904 0521 4E050000 		.4byte	0x54e
 905 0525 10       		.byte	0x10
 906 0526 11       		.uleb128 0x11
 907 0527 52030000 		.4byte	.LASF76
 908 052b 0C       		.byte	0xc
 909 052c 0301     		.2byte	0x103
 910 052e 4E050000 		.4byte	0x54e
 911 0532 14       		.byte	0x14
 912 0533 11       		.uleb128 0x11
ARM GAS  /tmp/ccvw1FuX.s 			page 17


 913 0534 38010000 		.4byte	.LASF77
 914 0538 0C       		.byte	0xc
 915 0539 0401     		.2byte	0x104
 916 053b 4E050000 		.4byte	0x54e
 917 053f 18       		.byte	0x18
 918 0540 11       		.uleb128 0x11
 919 0541 4A060000 		.4byte	.LASF78
 920 0545 0C       		.byte	0xc
 921 0546 0501     		.2byte	0x105
 922 0548 4E050000 		.4byte	0x54e
 923 054c 1C       		.byte	0x1c
 924 054d 00       		.byte	0
 925 054e 12       		.uleb128 0x12
 926 054f C7000000 		.4byte	0xc7
 927 0553 13       		.uleb128 0x13
 928 0554 64000000 		.4byte	.LASF70
 929 0558 0C       		.byte	0xc
 930 0559 0801     		.2byte	0x108
 931 055b DB040000 		.4byte	0x4db
 932 055f 0D       		.uleb128 0xd
 933 0560 FA000000 		.4byte	0xfa
 934 0564 78050000 		.4byte	0x578
 935 0568 0E       		.uleb128 0xe
 936 0569 2B020000 		.4byte	0x22b
 937 056d 0E       		.uleb128 0xe
 938 056e 94000000 		.4byte	0x94
 939 0572 0E       		.uleb128 0xe
 940 0573 1B010000 		.4byte	0x11b
 941 0577 00       		.byte	0
 942 0578 09       		.uleb128 0x9
 943 0579 04       		.byte	0x4
 944 057a 5F050000 		.4byte	0x55f
 945 057e 0D       		.uleb128 0xd
 946 057f FA000000 		.4byte	0xfa
 947 0583 92050000 		.4byte	0x592
 948 0587 0E       		.uleb128 0xe
 949 0588 2B020000 		.4byte	0x22b
 950 058c 0E       		.uleb128 0xe
 951 058d 1B010000 		.4byte	0x11b
 952 0591 00       		.byte	0
 953 0592 09       		.uleb128 0x9
 954 0593 04       		.byte	0x4
 955 0594 7E050000 		.4byte	0x57e
 956 0598 0D       		.uleb128 0xd
 957 0599 2C000000 		.4byte	0x2c
 958 059d B6050000 		.4byte	0x5b6
 959 05a1 0E       		.uleb128 0xe
 960 05a2 2B020000 		.4byte	0x22b
 961 05a6 0E       		.uleb128 0xe
 962 05a7 91040000 		.4byte	0x491
 963 05ab 0E       		.uleb128 0xe
 964 05ac 2C000000 		.4byte	0x2c
 965 05b0 0E       		.uleb128 0xe
 966 05b1 1B010000 		.4byte	0x11b
 967 05b5 00       		.byte	0
 968 05b6 09       		.uleb128 0x9
 969 05b7 04       		.byte	0x4
ARM GAS  /tmp/ccvw1FuX.s 			page 18


 970 05b8 98050000 		.4byte	0x598
 971 05bc 0D       		.uleb128 0xd
 972 05bd 2C000000 		.4byte	0x2c
 973 05c1 DA050000 		.4byte	0x5da
 974 05c5 0E       		.uleb128 0xe
 975 05c6 2B020000 		.4byte	0x22b
 976 05ca 0E       		.uleb128 0xe
 977 05cb 5C040000 		.4byte	0x45c
 978 05cf 0E       		.uleb128 0xe
 979 05d0 2C000000 		.4byte	0x2c
 980 05d4 0E       		.uleb128 0xe
 981 05d5 1B010000 		.4byte	0x11b
 982 05d9 00       		.byte	0
 983 05da 09       		.uleb128 0x9
 984 05db 04       		.byte	0x4
 985 05dc BC050000 		.4byte	0x5bc
 986 05e0 14       		.uleb128 0x14
 987 05e1 04       		.byte	0x4
 988 05e2 0D       		.byte	0xd
 989 05e3 54       		.byte	0x54
 990 05e4 0D060000 		.4byte	0x60d
 991 05e8 15       		.uleb128 0x15
 992 05e9 04010000 		.4byte	.LASF79
 993 05ed 00       		.sleb128 0
 994 05ee 15       		.uleb128 0x15
 995 05ef 40030000 		.4byte	.LASF80
 996 05f3 01       		.sleb128 1
 997 05f4 15       		.uleb128 0x15
 998 05f5 3B050000 		.4byte	.LASF81
 999 05f9 02       		.sleb128 2
 1000 05fa 15       		.uleb128 0x15
 1001 05fb 54010000 		.4byte	.LASF82
 1002 05ff 03       		.sleb128 3
 1003 0600 15       		.uleb128 0x15
 1004 0601 F0040000 		.4byte	.LASF83
 1005 0605 04       		.sleb128 4
 1006 0606 15       		.uleb128 0x15
 1007 0607 8A040000 		.4byte	.LASF84
 1008 060b 05       		.sleb128 5
 1009 060c 00       		.byte	0
 1010 060d 03       		.uleb128 0x3
 1011 060e DF030000 		.4byte	.LASF85
 1012 0612 0D       		.byte	0xd
 1013 0613 5B       		.byte	0x5b
 1014 0614 E0050000 		.4byte	0x5e0
 1015 0618 03       		.uleb128 0x3
 1016 0619 2E020000 		.4byte	.LASF86
 1017 061d 0E       		.byte	0xe
 1018 061e 38       		.byte	0x38
 1019 061f 23060000 		.4byte	0x623
 1020 0623 05       		.uleb128 0x5
 1021 0624 2E020000 		.4byte	.LASF86
 1022 0628 40       		.byte	0x40
 1023 0629 0E       		.byte	0xe
 1024 062a 62       		.byte	0x62
 1025 062b CC060000 		.4byte	0x6cc
 1026 062f 06       		.uleb128 0x6
ARM GAS  /tmp/ccvw1FuX.s 			page 19


 1027 0630 19010000 		.4byte	.LASF87
 1028 0634 0E       		.byte	0xe
 1029 0635 64       		.byte	0x64
 1030 0636 0D060000 		.4byte	0x60d
 1031 063a 00       		.byte	0
 1032 063b 06       		.uleb128 0x6
 1033 063c 03050000 		.4byte	.LASF88
 1034 0640 0E       		.byte	0xe
 1035 0641 66       		.byte	0x66
 1036 0642 08070000 		.4byte	0x708
 1037 0646 04       		.byte	0x4
 1038 0647 06       		.uleb128 0x6
 1039 0648 D5010000 		.4byte	.LASF89
 1040 064c 0E       		.byte	0xe
 1041 064d 68       		.byte	0x68
 1042 064e CC060000 		.4byte	0x6cc
 1043 0652 08       		.byte	0x8
 1044 0653 06       		.uleb128 0x6
 1045 0654 B1000000 		.4byte	.LASF90
 1046 0658 0E       		.byte	0xe
 1047 0659 6A       		.byte	0x6a
 1048 065a 13070000 		.4byte	0x713
 1049 065e 0C       		.byte	0xc
 1050 065f 06       		.uleb128 0x6
 1051 0660 16040000 		.4byte	.LASF91
 1052 0664 0E       		.byte	0xe
 1053 0665 6D       		.byte	0x6d
 1054 0666 F5020000 		.4byte	0x2f5
 1055 066a 10       		.byte	0x10
 1056 066b 06       		.uleb128 0x6
 1057 066c 31010000 		.4byte	.LASF92
 1058 0670 0E       		.byte	0xe
 1059 0671 77       		.byte	0x77
 1060 0672 EF010000 		.4byte	0x1ef
 1061 0676 20       		.byte	0x20
 1062 0677 06       		.uleb128 0x6
 1063 0678 8D000000 		.4byte	.LASF93
 1064 067c 0E       		.byte	0xe
 1065 067d 7B       		.byte	0x7b
 1066 067e D7060000 		.4byte	0x6d7
 1067 0682 24       		.byte	0x24
 1068 0683 06       		.uleb128 0x6
 1069 0684 BF010000 		.4byte	.LASF94
 1070 0688 0E       		.byte	0xe
 1071 0689 7F       		.byte	0x7f
 1072 068a 91040000 		.4byte	0x491
 1073 068e 28       		.byte	0x28
 1074 068f 06       		.uleb128 0x6
 1075 0690 42060000 		.4byte	.LASF95
 1076 0694 0E       		.byte	0xe
 1077 0695 83       		.byte	0x83
 1078 0696 2C000000 		.4byte	0x2c
 1079 069a 2C       		.byte	0x2c
 1080 069b 06       		.uleb128 0x6
 1081 069c 99050000 		.4byte	.LASF96
 1082 06a0 0E       		.byte	0xe
 1083 06a1 87       		.byte	0x87
ARM GAS  /tmp/ccvw1FuX.s 			page 20


 1084 06a2 2C000000 		.4byte	0x2c
 1085 06a6 30       		.byte	0x30
 1086 06a7 06       		.uleb128 0x6
 1087 06a8 70000000 		.4byte	.LASF97
 1088 06ac 0E       		.byte	0xe
 1089 06ad 8B       		.byte	0x8b
 1090 06ae 5C040000 		.4byte	0x45c
 1091 06b2 34       		.byte	0x34
 1092 06b3 06       		.uleb128 0x6
 1093 06b4 88030000 		.4byte	.LASF98
 1094 06b8 0E       		.byte	0xe
 1095 06b9 8F       		.byte	0x8f
 1096 06ba 2C000000 		.4byte	0x2c
 1097 06be 38       		.byte	0x38
 1098 06bf 06       		.uleb128 0x6
 1099 06c0 D9030000 		.4byte	.LASF99
 1100 06c4 0E       		.byte	0xe
 1101 06c5 93       		.byte	0x93
 1102 06c6 2C000000 		.4byte	0x2c
 1103 06ca 3C       		.byte	0x3c
 1104 06cb 00       		.byte	0
 1105 06cc 03       		.uleb128 0x3
 1106 06cd 0B040000 		.4byte	.LASF100
 1107 06d1 0E       		.byte	0xe
 1108 06d2 42       		.byte	0x42
 1109 06d3 B5000000 		.4byte	0xb5
 1110 06d7 03       		.uleb128 0x3
 1111 06d8 0F010000 		.4byte	.LASF101
 1112 06dc 0E       		.byte	0xe
 1113 06dd 48       		.byte	0x48
 1114 06de 9F000000 		.4byte	0x9f
 1115 06e2 09       		.uleb128 0x9
 1116 06e3 04       		.byte	0x4
 1117 06e4 18060000 		.4byte	0x618
 1118 06e8 08       		.uleb128 0x8
 1119 06e9 04       		.byte	0x4
 1120 06ea 0E       		.byte	0xe
 1121 06eb 57       		.byte	0x57
 1122 06ec FD060000 		.4byte	0x6fd
 1123 06f0 06       		.uleb128 0x6
 1124 06f1 77030000 		.4byte	.LASF102
 1125 06f5 0E       		.byte	0xe
 1126 06f6 59       		.byte	0x59
 1127 06f7 B5000000 		.4byte	0xb5
 1128 06fb 00       		.byte	0
 1129 06fc 00       		.byte	0
 1130 06fd 03       		.uleb128 0x3
 1131 06fe 8F050000 		.4byte	.LASF103
 1132 0702 0E       		.byte	0xe
 1133 0703 5B       		.byte	0x5b
 1134 0704 E8060000 		.4byte	0x6e8
 1135 0708 09       		.uleb128 0x9
 1136 0709 04       		.byte	0x4
 1137 070a 0E070000 		.4byte	0x70e
 1138 070e 10       		.uleb128 0x10
 1139 070f FD060000 		.4byte	0x6fd
 1140 0713 09       		.uleb128 0x9
ARM GAS  /tmp/ccvw1FuX.s 			page 21


 1141 0714 04       		.byte	0x4
 1142 0715 53050000 		.4byte	0x553
 1143 0719 14       		.uleb128 0x14
 1144 071a 04       		.byte	0x4
 1145 071b 0F       		.byte	0xf
 1146 071c 5D       		.byte	0x5d
 1147 071d 34070000 		.4byte	0x734
 1148 0721 15       		.uleb128 0x15
 1149 0722 B7040000 		.4byte	.LASF104
 1150 0726 00       		.sleb128 0
 1151 0727 15       		.uleb128 0x15
 1152 0728 EA000000 		.4byte	.LASF105
 1153 072c 01       		.sleb128 1
 1154 072d 15       		.uleb128 0x15
 1155 072e 61050000 		.4byte	.LASF106
 1156 0732 02       		.sleb128 2
 1157 0733 00       		.byte	0
 1158 0734 03       		.uleb128 0x3
 1159 0735 CA040000 		.4byte	.LASF107
 1160 0739 0F       		.byte	0xf
 1161 073a 61       		.byte	0x61
 1162 073b 19070000 		.4byte	0x719
 1163 073f 03       		.uleb128 0x3
 1164 0740 E3040000 		.4byte	.LASF108
 1165 0744 0F       		.byte	0xf
 1166 0745 66       		.byte	0x66
 1167 0746 4A070000 		.4byte	0x74a
 1168 074a 05       		.uleb128 0x5
 1169 074b E3040000 		.4byte	.LASF108
 1170 074f 74       		.byte	0x74
 1171 0750 0F       		.byte	0xf
 1172 0751 80       		.byte	0x80
 1173 0752 A9070000 		.4byte	0x7a9
 1174 0756 07       		.uleb128 0x7
 1175 0757 766D7400 		.ascii	"vmt\000"
 1176 075b 0F       		.byte	0xf
 1177 075c 82       		.byte	0x82
 1178 075d 16080000 		.4byte	0x816
 1179 0761 00       		.byte	0
 1180 0762 06       		.uleb128 0x6
 1181 0763 15020000 		.4byte	.LASF109
 1182 0767 0F       		.byte	0xf
 1183 0768 83       		.byte	0x83
 1184 0769 67030000 		.4byte	0x367
 1185 076d 04       		.byte	0x4
 1186 076e 06       		.uleb128 0x6
 1187 076f 19010000 		.4byte	.LASF87
 1188 0773 0F       		.byte	0xf
 1189 0774 83       		.byte	0x83
 1190 0775 34070000 		.4byte	0x734
 1191 0779 08       		.byte	0x8
 1192 077a 06       		.uleb128 0x6
 1193 077b EF010000 		.4byte	.LASF110
 1194 077f 0F       		.byte	0xf
 1195 0780 83       		.byte	0x83
 1196 0781 62040000 		.4byte	0x462
 1197 0785 0C       		.byte	0xc
ARM GAS  /tmp/ccvw1FuX.s 			page 22


 1198 0786 06       		.uleb128 0x6
 1199 0787 3E020000 		.4byte	.LASF111
 1200 078b 0F       		.byte	0xf
 1201 078c 83       		.byte	0x83
 1202 078d 6D040000 		.4byte	0x46d
 1203 0791 30       		.byte	0x30
 1204 0792 07       		.uleb128 0x7
 1205 0793 696200   		.ascii	"ib\000"
 1206 0796 0F       		.byte	0xf
 1207 0797 83       		.byte	0x83
 1208 0798 21080000 		.4byte	0x821
 1209 079c 54       		.byte	0x54
 1210 079d 07       		.uleb128 0x7
 1211 079e 6F6200   		.ascii	"ob\000"
 1212 07a1 0F       		.byte	0xf
 1213 07a2 83       		.byte	0x83
 1214 07a3 21080000 		.4byte	0x821
 1215 07a7 64       		.byte	0x64
 1216 07a8 00       		.byte	0
 1217 07a9 05       		.uleb128 0x5
 1218 07aa C5010000 		.4byte	.LASF112
 1219 07ae 20       		.byte	0x20
 1220 07af 0F       		.byte	0xf
 1221 07b0 75       		.byte	0x75
 1222 07b1 16080000 		.4byte	0x816
 1223 07b5 06       		.uleb128 0x6
 1224 07b6 2D030000 		.4byte	.LASF113
 1225 07ba 0F       		.byte	0xf
 1226 07bb 76       		.byte	0x76
 1227 07bc 9C040000 		.4byte	0x49c
 1228 07c0 00       		.byte	0
 1229 07c1 06       		.uleb128 0x6
 1230 07c2 FE040000 		.4byte	.LASF114
 1231 07c6 0F       		.byte	0xf
 1232 07c7 76       		.byte	0x76
 1233 07c8 BB040000 		.4byte	0x4bb
 1234 07cc 04       		.byte	0x4
 1235 07cd 07       		.uleb128 0x7
 1236 07ce 70757400 		.ascii	"put\000"
 1237 07d2 0F       		.byte	0xf
 1238 07d3 76       		.byte	0x76
 1239 07d4 D5040000 		.4byte	0x4d5
 1240 07d8 08       		.byte	0x8
 1241 07d9 07       		.uleb128 0x7
 1242 07da 67657400 		.ascii	"get\000"
 1243 07de 0F       		.byte	0xf
 1244 07df 76       		.byte	0x76
 1245 07e0 AD030000 		.4byte	0x3ad
 1246 07e4 0C       		.byte	0xc
 1247 07e5 06       		.uleb128 0x6
 1248 07e6 3B030000 		.4byte	.LASF115
 1249 07ea 0F       		.byte	0xf
 1250 07eb 76       		.byte	0x76
 1251 07ec 78050000 		.4byte	0x578
 1252 07f0 10       		.byte	0x10
 1253 07f1 06       		.uleb128 0x6
 1254 07f2 10020000 		.4byte	.LASF116
ARM GAS  /tmp/ccvw1FuX.s 			page 23


 1255 07f6 0F       		.byte	0xf
 1256 07f7 76       		.byte	0x76
 1257 07f8 92050000 		.4byte	0x592
 1258 07fc 14       		.byte	0x14
 1259 07fd 06       		.uleb128 0x6
 1260 07fe 4D020000 		.4byte	.LASF117
 1261 0802 0F       		.byte	0xf
 1262 0803 76       		.byte	0x76
 1263 0804 B6050000 		.4byte	0x5b6
 1264 0808 18       		.byte	0x18
 1265 0809 06       		.uleb128 0x6
 1266 080a AB000000 		.4byte	.LASF118
 1267 080e 0F       		.byte	0xf
 1268 080f 76       		.byte	0x76
 1269 0810 DA050000 		.4byte	0x5da
 1270 0814 1C       		.byte	0x1c
 1271 0815 00       		.byte	0
 1272 0816 09       		.uleb128 0x9
 1273 0817 04       		.byte	0x4
 1274 0818 1C080000 		.4byte	0x81c
 1275 081c 10       		.uleb128 0x10
 1276 081d A9070000 		.4byte	0x7a9
 1277 0821 16       		.uleb128 0x16
 1278 0822 94000000 		.4byte	0x94
 1279 0826 31080000 		.4byte	0x831
 1280 082a 17       		.uleb128 0x17
 1281 082b 31080000 		.4byte	0x831
 1282 082f 0F       		.byte	0xf
 1283 0830 00       		.byte	0
 1284 0831 02       		.uleb128 0x2
 1285 0832 04       		.byte	0x4
 1286 0833 07       		.byte	0x7
 1287 0834 49030000 		.4byte	.LASF119
 1288 0838 18       		.uleb128 0x18
 1289 0839 6A050000 		.4byte	.LASF120
 1290 083d 01       		.byte	0x1
 1291 083e 47       		.byte	0x47
 1292 083f 01       		.byte	0x1
 1293 0840 18       		.uleb128 0x18
 1294 0841 DC000000 		.4byte	.LASF121
 1295 0845 01       		.byte	0x1
 1296 0846 35       		.byte	0x35
 1297 0847 01       		.byte	0x1
 1298 0848 19       		.uleb128 0x19
 1299 0849 96010000 		.4byte	.LASF122
 1300 084d 01       		.byte	0x1
 1301 084e 5A       		.byte	0x5a
 1302 084f 00000000 		.4byte	.LFB9
 1303 0853 34000000 		.4byte	.LFE9-.LFB9
 1304 0857 01       		.uleb128 0x1
 1305 0858 9C       		.byte	0x9c
 1306 0859 8D080000 		.4byte	0x88d
 1307 085d 1A       		.uleb128 0x1a
 1308 085e 38080000 		.4byte	0x838
 1309 0862 04000000 		.4byte	.LBB6
 1310 0866 00000000 		.4byte	.Ldebug_ranges0+0
 1311 086a 01       		.byte	0x1
ARM GAS  /tmp/ccvw1FuX.s 			page 24


 1312 086b 5E       		.byte	0x5e
 1313 086c 7A080000 		.4byte	0x87a
 1314 0870 1B       		.uleb128 0x1b
 1315 0871 08000000 		.4byte	.LVL0
 1316 0875 5F090000 		.4byte	0x95f
 1317 0879 00       		.byte	0
 1318 087a 1B       		.uleb128 0x1b
 1319 087b 1C000000 		.4byte	.LVL1
 1320 087f 66090000 		.4byte	0x966
 1321 0883 1B       		.uleb128 0x1b
 1322 0884 24000000 		.4byte	.LVL2
 1323 0888 7D090000 		.4byte	0x97d
 1324 088c 00       		.byte	0
 1325 088d 19       		.uleb128 0x19
 1326 088e 09060000 		.4byte	.LASF123
 1327 0892 01       		.byte	0x1
 1328 0893 7B       		.byte	0x7b
 1329 0894 00000000 		.4byte	.LFB10
 1330 0898 24000000 		.4byte	.LFE10-.LFB10
 1331 089c 01       		.uleb128 0x1
 1332 089d 9C       		.byte	0x9c
 1333 089e BD080000 		.4byte	0x8bd
 1334 08a2 1C       		.uleb128 0x1c
 1335 08a3 6E00     		.ascii	"n\000"
 1336 08a5 01       		.byte	0x1
 1337 08a6 7B       		.byte	0x7b
 1338 08a7 B5000000 		.4byte	0xb5
 1339 08ab 00000000 		.4byte	.LLST0
 1340 08af 1D       		.uleb128 0x1d
 1341 08b0 80030000 		.4byte	.LASF127
 1342 08b4 01       		.byte	0x1
 1343 08b5 7D       		.byte	0x7d
 1344 08b6 B5000000 		.4byte	0xb5
 1345 08ba 01       		.uleb128 0x1
 1346 08bb 50       		.byte	0x50
 1347 08bc 00       		.byte	0
 1348 08bd 19       		.uleb128 0x19
 1349 08be 4D050000 		.4byte	.LASF124
 1350 08c2 01       		.byte	0x1
 1351 08c3 86       		.byte	0x86
 1352 08c4 00000000 		.4byte	.LFB11
 1353 08c8 50000000 		.4byte	.LFE11-.LFB11
 1354 08cc 01       		.uleb128 0x1
 1355 08cd 9C       		.byte	0x9c
 1356 08ce E2080000 		.4byte	0x8e2
 1357 08d2 1E       		.uleb128 0x1e
 1358 08d3 40080000 		.4byte	0x840
 1359 08d7 04000000 		.4byte	.LBB10
 1360 08db 4C000000 		.4byte	.LBE10-.LBB10
 1361 08df 01       		.byte	0x1
 1362 08e0 87       		.byte	0x87
 1363 08e1 00       		.byte	0
 1364 08e2 19       		.uleb128 0x19
 1365 08e3 D4040000 		.4byte	.LASF125
 1366 08e7 01       		.byte	0x1
 1367 08e8 8D       		.byte	0x8d
 1368 08e9 00000000 		.4byte	.LFB12
ARM GAS  /tmp/ccvw1FuX.s 			page 25


 1369 08ed 34000000 		.4byte	.LFE12-.LFB12
 1370 08f1 01       		.uleb128 0x1
 1371 08f2 9C       		.byte	0x9c
 1372 08f3 23090000 		.4byte	0x923
 1373 08f7 1F       		.uleb128 0x1f
 1374 08f8 08020000 		.4byte	.LASF126
 1375 08fc 01       		.byte	0x1
 1376 08fd 8D       		.byte	0x8d
 1377 08fe B5000000 		.4byte	0xb5
 1378 0902 21000000 		.4byte	.LLST1
 1379 0906 20       		.uleb128 0x20
 1380 0907 22060000 		.4byte	.LASF128
 1381 090b 01       		.byte	0x1
 1382 090c 90       		.byte	0x90
 1383 090d B5000000 		.4byte	0xb5
 1384 0911 42000000 		.4byte	.LLST2
 1385 0915 1D       		.uleb128 0x1d
 1386 0916 33030000 		.4byte	.LASF129
 1387 091a 01       		.byte	0x1
 1388 091b 93       		.byte	0x93
 1389 091c B5000000 		.4byte	0xb5
 1390 0920 01       		.uleb128 0x1
 1391 0921 50       		.byte	0x50
 1392 0922 00       		.byte	0
 1393 0923 21       		.uleb128 0x21
 1394 0924 69030000 		.4byte	.LASF134
 1395 0928 01       		.byte	0x1
 1396 0929 9C       		.byte	0x9c
 1397 092a 00000000 		.4byte	.LFB13
 1398 092e 18000000 		.4byte	.LFE13-.LFB13
 1399 0932 01       		.uleb128 0x1
 1400 0933 9C       		.byte	0x9c
 1401 0934 22       		.uleb128 0x22
 1402 0935 95040000 		.4byte	.LASF135
 1403 0939 01       		.byte	0x1
 1404 093a A4       		.byte	0xa4
 1405 093b B5000000 		.4byte	0xb5
 1406 093f 00000000 		.4byte	.LFB14
 1407 0943 18000000 		.4byte	.LFE14-.LFB14
 1408 0947 01       		.uleb128 0x1
 1409 0948 9C       		.byte	0x9c
 1410 0949 23       		.uleb128 0x23
 1411 094a A1010000 		.4byte	.LASF130
 1412 094e 0E       		.byte	0xe
 1413 094f A6       		.byte	0xa6
 1414 0950 18060000 		.4byte	0x618
 1415 0954 24       		.uleb128 0x24
 1416 0955 53443100 		.ascii	"SD1\000"
 1417 0959 10       		.byte	0x10
 1418 095a 62       		.byte	0x62
 1419 095b 3F070000 		.4byte	0x73f
 1420 095f 25       		.uleb128 0x25
 1421 0960 DC010000 		.4byte	.LASF136
 1422 0964 11       		.byte	0x11
 1423 0965 F0       		.byte	0xf0
 1424 0966 26       		.uleb128 0x26
 1425 0967 DA050000 		.4byte	.LASF137
ARM GAS  /tmp/ccvw1FuX.s 			page 26


 1426 096b 10       		.byte	0x10
 1427 096c 6B       		.byte	0x6b
 1428 096d 77090000 		.4byte	0x977
 1429 0971 0E       		.uleb128 0xe
 1430 0972 77090000 		.4byte	0x977
 1431 0976 00       		.byte	0
 1432 0977 09       		.uleb128 0x9
 1433 0978 04       		.byte	0x4
 1434 0979 3F070000 		.4byte	0x73f
 1435 097d 27       		.uleb128 0x27
 1436 097e F1050000 		.4byte	.LASF138
 1437 0982 0E       		.byte	0xe
 1438 0983 B8       		.byte	0xb8
 1439 0984 0E       		.uleb128 0xe
 1440 0985 E2060000 		.4byte	0x6e2
 1441 0989 00       		.byte	0
 1442 098a 00       		.byte	0
 1443              		.section	.debug_abbrev,"",%progbits
 1444              	.Ldebug_abbrev0:
 1445 0000 01       		.uleb128 0x1
 1446 0001 11       		.uleb128 0x11
 1447 0002 01       		.byte	0x1
 1448 0003 25       		.uleb128 0x25
 1449 0004 0E       		.uleb128 0xe
 1450 0005 13       		.uleb128 0x13
 1451 0006 0B       		.uleb128 0xb
 1452 0007 03       		.uleb128 0x3
 1453 0008 0E       		.uleb128 0xe
 1454 0009 1B       		.uleb128 0x1b
 1455 000a 0E       		.uleb128 0xe
 1456 000b 55       		.uleb128 0x55
 1457 000c 17       		.uleb128 0x17
 1458 000d 11       		.uleb128 0x11
 1459 000e 01       		.uleb128 0x1
 1460 000f 10       		.uleb128 0x10
 1461 0010 17       		.uleb128 0x17
 1462 0011 00       		.byte	0
 1463 0012 00       		.byte	0
 1464 0013 02       		.uleb128 0x2
 1465 0014 24       		.uleb128 0x24
 1466 0015 00       		.byte	0
 1467 0016 0B       		.uleb128 0xb
 1468 0017 0B       		.uleb128 0xb
 1469 0018 3E       		.uleb128 0x3e
 1470 0019 0B       		.uleb128 0xb
 1471 001a 03       		.uleb128 0x3
 1472 001b 0E       		.uleb128 0xe
 1473 001c 00       		.byte	0
 1474 001d 00       		.byte	0
 1475 001e 03       		.uleb128 0x3
 1476 001f 16       		.uleb128 0x16
 1477 0020 00       		.byte	0
 1478 0021 03       		.uleb128 0x3
 1479 0022 0E       		.uleb128 0xe
 1480 0023 3A       		.uleb128 0x3a
 1481 0024 0B       		.uleb128 0xb
 1482 0025 3B       		.uleb128 0x3b
ARM GAS  /tmp/ccvw1FuX.s 			page 27


 1483 0026 0B       		.uleb128 0xb
 1484 0027 49       		.uleb128 0x49
 1485 0028 13       		.uleb128 0x13
 1486 0029 00       		.byte	0
 1487 002a 00       		.byte	0
 1488 002b 04       		.uleb128 0x4
 1489 002c 24       		.uleb128 0x24
 1490 002d 00       		.byte	0
 1491 002e 0B       		.uleb128 0xb
 1492 002f 0B       		.uleb128 0xb
 1493 0030 3E       		.uleb128 0x3e
 1494 0031 0B       		.uleb128 0xb
 1495 0032 03       		.uleb128 0x3
 1496 0033 08       		.uleb128 0x8
 1497 0034 00       		.byte	0
 1498 0035 00       		.byte	0
 1499 0036 05       		.uleb128 0x5
 1500 0037 13       		.uleb128 0x13
 1501 0038 01       		.byte	0x1
 1502 0039 03       		.uleb128 0x3
 1503 003a 0E       		.uleb128 0xe
 1504 003b 0B       		.uleb128 0xb
 1505 003c 0B       		.uleb128 0xb
 1506 003d 3A       		.uleb128 0x3a
 1507 003e 0B       		.uleb128 0xb
 1508 003f 3B       		.uleb128 0x3b
 1509 0040 0B       		.uleb128 0xb
 1510 0041 01       		.uleb128 0x1
 1511 0042 13       		.uleb128 0x13
 1512 0043 00       		.byte	0
 1513 0044 00       		.byte	0
 1514 0045 06       		.uleb128 0x6
 1515 0046 0D       		.uleb128 0xd
 1516 0047 00       		.byte	0
 1517 0048 03       		.uleb128 0x3
 1518 0049 0E       		.uleb128 0xe
 1519 004a 3A       		.uleb128 0x3a
 1520 004b 0B       		.uleb128 0xb
 1521 004c 3B       		.uleb128 0x3b
 1522 004d 0B       		.uleb128 0xb
 1523 004e 49       		.uleb128 0x49
 1524 004f 13       		.uleb128 0x13
 1525 0050 38       		.uleb128 0x38
 1526 0051 0B       		.uleb128 0xb
 1527 0052 00       		.byte	0
 1528 0053 00       		.byte	0
 1529 0054 07       		.uleb128 0x7
 1530 0055 0D       		.uleb128 0xd
 1531 0056 00       		.byte	0
 1532 0057 03       		.uleb128 0x3
 1533 0058 08       		.uleb128 0x8
 1534 0059 3A       		.uleb128 0x3a
 1535 005a 0B       		.uleb128 0xb
 1536 005b 3B       		.uleb128 0x3b
 1537 005c 0B       		.uleb128 0xb
 1538 005d 49       		.uleb128 0x49
 1539 005e 13       		.uleb128 0x13
ARM GAS  /tmp/ccvw1FuX.s 			page 28


 1540 005f 38       		.uleb128 0x38
 1541 0060 0B       		.uleb128 0xb
 1542 0061 00       		.byte	0
 1543 0062 00       		.byte	0
 1544 0063 08       		.uleb128 0x8
 1545 0064 13       		.uleb128 0x13
 1546 0065 01       		.byte	0x1
 1547 0066 0B       		.uleb128 0xb
 1548 0067 0B       		.uleb128 0xb
 1549 0068 3A       		.uleb128 0x3a
 1550 0069 0B       		.uleb128 0xb
 1551 006a 3B       		.uleb128 0x3b
 1552 006b 0B       		.uleb128 0xb
 1553 006c 01       		.uleb128 0x1
 1554 006d 13       		.uleb128 0x13
 1555 006e 00       		.byte	0
 1556 006f 00       		.byte	0
 1557 0070 09       		.uleb128 0x9
 1558 0071 0F       		.uleb128 0xf
 1559 0072 00       		.byte	0
 1560 0073 0B       		.uleb128 0xb
 1561 0074 0B       		.uleb128 0xb
 1562 0075 49       		.uleb128 0x49
 1563 0076 13       		.uleb128 0x13
 1564 0077 00       		.byte	0
 1565 0078 00       		.byte	0
 1566 0079 0A       		.uleb128 0xa
 1567 007a 0F       		.uleb128 0xf
 1568 007b 00       		.byte	0
 1569 007c 0B       		.uleb128 0xb
 1570 007d 0B       		.uleb128 0xb
 1571 007e 00       		.byte	0
 1572 007f 00       		.byte	0
 1573 0080 0B       		.uleb128 0xb
 1574 0081 17       		.uleb128 0x17
 1575 0082 01       		.byte	0x1
 1576 0083 0B       		.uleb128 0xb
 1577 0084 0B       		.uleb128 0xb
 1578 0085 3A       		.uleb128 0x3a
 1579 0086 0B       		.uleb128 0xb
 1580 0087 3B       		.uleb128 0x3b
 1581 0088 0B       		.uleb128 0xb
 1582 0089 01       		.uleb128 0x1
 1583 008a 13       		.uleb128 0x13
 1584 008b 00       		.byte	0
 1585 008c 00       		.byte	0
 1586 008d 0C       		.uleb128 0xc
 1587 008e 0D       		.uleb128 0xd
 1588 008f 00       		.byte	0
 1589 0090 03       		.uleb128 0x3
 1590 0091 0E       		.uleb128 0xe
 1591 0092 3A       		.uleb128 0x3a
 1592 0093 0B       		.uleb128 0xb
 1593 0094 3B       		.uleb128 0x3b
 1594 0095 0B       		.uleb128 0xb
 1595 0096 49       		.uleb128 0x49
 1596 0097 13       		.uleb128 0x13
ARM GAS  /tmp/ccvw1FuX.s 			page 29


 1597 0098 00       		.byte	0
 1598 0099 00       		.byte	0
 1599 009a 0D       		.uleb128 0xd
 1600 009b 15       		.uleb128 0x15
 1601 009c 01       		.byte	0x1
 1602 009d 27       		.uleb128 0x27
 1603 009e 19       		.uleb128 0x19
 1604 009f 49       		.uleb128 0x49
 1605 00a0 13       		.uleb128 0x13
 1606 00a1 01       		.uleb128 0x1
 1607 00a2 13       		.uleb128 0x13
 1608 00a3 00       		.byte	0
 1609 00a4 00       		.byte	0
 1610 00a5 0E       		.uleb128 0xe
 1611 00a6 05       		.uleb128 0x5
 1612 00a7 00       		.byte	0
 1613 00a8 49       		.uleb128 0x49
 1614 00a9 13       		.uleb128 0x13
 1615 00aa 00       		.byte	0
 1616 00ab 00       		.byte	0
 1617 00ac 0F       		.uleb128 0xf
 1618 00ad 15       		.uleb128 0x15
 1619 00ae 01       		.byte	0x1
 1620 00af 27       		.uleb128 0x27
 1621 00b0 19       		.uleb128 0x19
 1622 00b1 01       		.uleb128 0x1
 1623 00b2 13       		.uleb128 0x13
 1624 00b3 00       		.byte	0
 1625 00b4 00       		.byte	0
 1626 00b5 10       		.uleb128 0x10
 1627 00b6 26       		.uleb128 0x26
 1628 00b7 00       		.byte	0
 1629 00b8 49       		.uleb128 0x49
 1630 00b9 13       		.uleb128 0x13
 1631 00ba 00       		.byte	0
 1632 00bb 00       		.byte	0
 1633 00bc 11       		.uleb128 0x11
 1634 00bd 0D       		.uleb128 0xd
 1635 00be 00       		.byte	0
 1636 00bf 03       		.uleb128 0x3
 1637 00c0 0E       		.uleb128 0xe
 1638 00c1 3A       		.uleb128 0x3a
 1639 00c2 0B       		.uleb128 0xb
 1640 00c3 3B       		.uleb128 0x3b
 1641 00c4 05       		.uleb128 0x5
 1642 00c5 49       		.uleb128 0x49
 1643 00c6 13       		.uleb128 0x13
 1644 00c7 38       		.uleb128 0x38
 1645 00c8 0B       		.uleb128 0xb
 1646 00c9 00       		.byte	0
 1647 00ca 00       		.byte	0
 1648 00cb 12       		.uleb128 0x12
 1649 00cc 35       		.uleb128 0x35
 1650 00cd 00       		.byte	0
 1651 00ce 49       		.uleb128 0x49
 1652 00cf 13       		.uleb128 0x13
 1653 00d0 00       		.byte	0
ARM GAS  /tmp/ccvw1FuX.s 			page 30


 1654 00d1 00       		.byte	0
 1655 00d2 13       		.uleb128 0x13
 1656 00d3 16       		.uleb128 0x16
 1657 00d4 00       		.byte	0
 1658 00d5 03       		.uleb128 0x3
 1659 00d6 0E       		.uleb128 0xe
 1660 00d7 3A       		.uleb128 0x3a
 1661 00d8 0B       		.uleb128 0xb
 1662 00d9 3B       		.uleb128 0x3b
 1663 00da 05       		.uleb128 0x5
 1664 00db 49       		.uleb128 0x49
 1665 00dc 13       		.uleb128 0x13
 1666 00dd 00       		.byte	0
 1667 00de 00       		.byte	0
 1668 00df 14       		.uleb128 0x14
 1669 00e0 04       		.uleb128 0x4
 1670 00e1 01       		.byte	0x1
 1671 00e2 0B       		.uleb128 0xb
 1672 00e3 0B       		.uleb128 0xb
 1673 00e4 3A       		.uleb128 0x3a
 1674 00e5 0B       		.uleb128 0xb
 1675 00e6 3B       		.uleb128 0x3b
 1676 00e7 0B       		.uleb128 0xb
 1677 00e8 01       		.uleb128 0x1
 1678 00e9 13       		.uleb128 0x13
 1679 00ea 00       		.byte	0
 1680 00eb 00       		.byte	0
 1681 00ec 15       		.uleb128 0x15
 1682 00ed 28       		.uleb128 0x28
 1683 00ee 00       		.byte	0
 1684 00ef 03       		.uleb128 0x3
 1685 00f0 0E       		.uleb128 0xe
 1686 00f1 1C       		.uleb128 0x1c
 1687 00f2 0D       		.uleb128 0xd
 1688 00f3 00       		.byte	0
 1689 00f4 00       		.byte	0
 1690 00f5 16       		.uleb128 0x16
 1691 00f6 01       		.uleb128 0x1
 1692 00f7 01       		.byte	0x1
 1693 00f8 49       		.uleb128 0x49
 1694 00f9 13       		.uleb128 0x13
 1695 00fa 01       		.uleb128 0x1
 1696 00fb 13       		.uleb128 0x13
 1697 00fc 00       		.byte	0
 1698 00fd 00       		.byte	0
 1699 00fe 17       		.uleb128 0x17
 1700 00ff 21       		.uleb128 0x21
 1701 0100 00       		.byte	0
 1702 0101 49       		.uleb128 0x49
 1703 0102 13       		.uleb128 0x13
 1704 0103 2F       		.uleb128 0x2f
 1705 0104 0B       		.uleb128 0xb
 1706 0105 00       		.byte	0
 1707 0106 00       		.byte	0
 1708 0107 18       		.uleb128 0x18
 1709 0108 2E       		.uleb128 0x2e
 1710 0109 00       		.byte	0
ARM GAS  /tmp/ccvw1FuX.s 			page 31


 1711 010a 03       		.uleb128 0x3
 1712 010b 0E       		.uleb128 0xe
 1713 010c 3A       		.uleb128 0x3a
 1714 010d 0B       		.uleb128 0xb
 1715 010e 3B       		.uleb128 0x3b
 1716 010f 0B       		.uleb128 0xb
 1717 0110 27       		.uleb128 0x27
 1718 0111 19       		.uleb128 0x19
 1719 0112 20       		.uleb128 0x20
 1720 0113 0B       		.uleb128 0xb
 1721 0114 00       		.byte	0
 1722 0115 00       		.byte	0
 1723 0116 19       		.uleb128 0x19
 1724 0117 2E       		.uleb128 0x2e
 1725 0118 01       		.byte	0x1
 1726 0119 3F       		.uleb128 0x3f
 1727 011a 19       		.uleb128 0x19
 1728 011b 03       		.uleb128 0x3
 1729 011c 0E       		.uleb128 0xe
 1730 011d 3A       		.uleb128 0x3a
 1731 011e 0B       		.uleb128 0xb
 1732 011f 3B       		.uleb128 0x3b
 1733 0120 0B       		.uleb128 0xb
 1734 0121 27       		.uleb128 0x27
 1735 0122 19       		.uleb128 0x19
 1736 0123 11       		.uleb128 0x11
 1737 0124 01       		.uleb128 0x1
 1738 0125 12       		.uleb128 0x12
 1739 0126 06       		.uleb128 0x6
 1740 0127 40       		.uleb128 0x40
 1741 0128 18       		.uleb128 0x18
 1742 0129 9742     		.uleb128 0x2117
 1743 012b 19       		.uleb128 0x19
 1744 012c 01       		.uleb128 0x1
 1745 012d 13       		.uleb128 0x13
 1746 012e 00       		.byte	0
 1747 012f 00       		.byte	0
 1748 0130 1A       		.uleb128 0x1a
 1749 0131 1D       		.uleb128 0x1d
 1750 0132 01       		.byte	0x1
 1751 0133 31       		.uleb128 0x31
 1752 0134 13       		.uleb128 0x13
 1753 0135 52       		.uleb128 0x52
 1754 0136 01       		.uleb128 0x1
 1755 0137 55       		.uleb128 0x55
 1756 0138 17       		.uleb128 0x17
 1757 0139 58       		.uleb128 0x58
 1758 013a 0B       		.uleb128 0xb
 1759 013b 59       		.uleb128 0x59
 1760 013c 0B       		.uleb128 0xb
 1761 013d 01       		.uleb128 0x1
 1762 013e 13       		.uleb128 0x13
 1763 013f 00       		.byte	0
 1764 0140 00       		.byte	0
 1765 0141 1B       		.uleb128 0x1b
 1766 0142 898201   		.uleb128 0x4109
 1767 0145 00       		.byte	0
ARM GAS  /tmp/ccvw1FuX.s 			page 32


 1768 0146 11       		.uleb128 0x11
 1769 0147 01       		.uleb128 0x1
 1770 0148 31       		.uleb128 0x31
 1771 0149 13       		.uleb128 0x13
 1772 014a 00       		.byte	0
 1773 014b 00       		.byte	0
 1774 014c 1C       		.uleb128 0x1c
 1775 014d 05       		.uleb128 0x5
 1776 014e 00       		.byte	0
 1777 014f 03       		.uleb128 0x3
 1778 0150 08       		.uleb128 0x8
 1779 0151 3A       		.uleb128 0x3a
 1780 0152 0B       		.uleb128 0xb
 1781 0153 3B       		.uleb128 0x3b
 1782 0154 0B       		.uleb128 0xb
 1783 0155 49       		.uleb128 0x49
 1784 0156 13       		.uleb128 0x13
 1785 0157 02       		.uleb128 0x2
 1786 0158 17       		.uleb128 0x17
 1787 0159 00       		.byte	0
 1788 015a 00       		.byte	0
 1789 015b 1D       		.uleb128 0x1d
 1790 015c 34       		.uleb128 0x34
 1791 015d 00       		.byte	0
 1792 015e 03       		.uleb128 0x3
 1793 015f 0E       		.uleb128 0xe
 1794 0160 3A       		.uleb128 0x3a
 1795 0161 0B       		.uleb128 0xb
 1796 0162 3B       		.uleb128 0x3b
 1797 0163 0B       		.uleb128 0xb
 1798 0164 49       		.uleb128 0x49
 1799 0165 13       		.uleb128 0x13
 1800 0166 02       		.uleb128 0x2
 1801 0167 18       		.uleb128 0x18
 1802 0168 00       		.byte	0
 1803 0169 00       		.byte	0
 1804 016a 1E       		.uleb128 0x1e
 1805 016b 1D       		.uleb128 0x1d
 1806 016c 00       		.byte	0
 1807 016d 31       		.uleb128 0x31
 1808 016e 13       		.uleb128 0x13
 1809 016f 11       		.uleb128 0x11
 1810 0170 01       		.uleb128 0x1
 1811 0171 12       		.uleb128 0x12
 1812 0172 06       		.uleb128 0x6
 1813 0173 58       		.uleb128 0x58
 1814 0174 0B       		.uleb128 0xb
 1815 0175 59       		.uleb128 0x59
 1816 0176 0B       		.uleb128 0xb
 1817 0177 00       		.byte	0
 1818 0178 00       		.byte	0
 1819 0179 1F       		.uleb128 0x1f
 1820 017a 05       		.uleb128 0x5
 1821 017b 00       		.byte	0
 1822 017c 03       		.uleb128 0x3
 1823 017d 0E       		.uleb128 0xe
 1824 017e 3A       		.uleb128 0x3a
ARM GAS  /tmp/ccvw1FuX.s 			page 33


 1825 017f 0B       		.uleb128 0xb
 1826 0180 3B       		.uleb128 0x3b
 1827 0181 0B       		.uleb128 0xb
 1828 0182 49       		.uleb128 0x49
 1829 0183 13       		.uleb128 0x13
 1830 0184 02       		.uleb128 0x2
 1831 0185 17       		.uleb128 0x17
 1832 0186 00       		.byte	0
 1833 0187 00       		.byte	0
 1834 0188 20       		.uleb128 0x20
 1835 0189 34       		.uleb128 0x34
 1836 018a 00       		.byte	0
 1837 018b 03       		.uleb128 0x3
 1838 018c 0E       		.uleb128 0xe
 1839 018d 3A       		.uleb128 0x3a
 1840 018e 0B       		.uleb128 0xb
 1841 018f 3B       		.uleb128 0x3b
 1842 0190 0B       		.uleb128 0xb
 1843 0191 49       		.uleb128 0x49
 1844 0192 13       		.uleb128 0x13
 1845 0193 02       		.uleb128 0x2
 1846 0194 17       		.uleb128 0x17
 1847 0195 00       		.byte	0
 1848 0196 00       		.byte	0
 1849 0197 21       		.uleb128 0x21
 1850 0198 2E       		.uleb128 0x2e
 1851 0199 00       		.byte	0
 1852 019a 3F       		.uleb128 0x3f
 1853 019b 19       		.uleb128 0x19
 1854 019c 03       		.uleb128 0x3
 1855 019d 0E       		.uleb128 0xe
 1856 019e 3A       		.uleb128 0x3a
 1857 019f 0B       		.uleb128 0xb
 1858 01a0 3B       		.uleb128 0x3b
 1859 01a1 0B       		.uleb128 0xb
 1860 01a2 27       		.uleb128 0x27
 1861 01a3 19       		.uleb128 0x19
 1862 01a4 11       		.uleb128 0x11
 1863 01a5 01       		.uleb128 0x1
 1864 01a6 12       		.uleb128 0x12
 1865 01a7 06       		.uleb128 0x6
 1866 01a8 40       		.uleb128 0x40
 1867 01a9 18       		.uleb128 0x18
 1868 01aa 9742     		.uleb128 0x2117
 1869 01ac 19       		.uleb128 0x19
 1870 01ad 00       		.byte	0
 1871 01ae 00       		.byte	0
 1872 01af 22       		.uleb128 0x22
 1873 01b0 2E       		.uleb128 0x2e
 1874 01b1 00       		.byte	0
 1875 01b2 3F       		.uleb128 0x3f
 1876 01b3 19       		.uleb128 0x19
 1877 01b4 03       		.uleb128 0x3
 1878 01b5 0E       		.uleb128 0xe
 1879 01b6 3A       		.uleb128 0x3a
 1880 01b7 0B       		.uleb128 0xb
 1881 01b8 3B       		.uleb128 0x3b
ARM GAS  /tmp/ccvw1FuX.s 			page 34


 1882 01b9 0B       		.uleb128 0xb
 1883 01ba 27       		.uleb128 0x27
 1884 01bb 19       		.uleb128 0x19
 1885 01bc 49       		.uleb128 0x49
 1886 01bd 13       		.uleb128 0x13
 1887 01be 11       		.uleb128 0x11
 1888 01bf 01       		.uleb128 0x1
 1889 01c0 12       		.uleb128 0x12
 1890 01c1 06       		.uleb128 0x6
 1891 01c2 40       		.uleb128 0x40
 1892 01c3 18       		.uleb128 0x18
 1893 01c4 9742     		.uleb128 0x2117
 1894 01c6 19       		.uleb128 0x19
 1895 01c7 00       		.byte	0
 1896 01c8 00       		.byte	0
 1897 01c9 23       		.uleb128 0x23
 1898 01ca 34       		.uleb128 0x34
 1899 01cb 00       		.byte	0
 1900 01cc 03       		.uleb128 0x3
 1901 01cd 0E       		.uleb128 0xe
 1902 01ce 3A       		.uleb128 0x3a
 1903 01cf 0B       		.uleb128 0xb
 1904 01d0 3B       		.uleb128 0x3b
 1905 01d1 0B       		.uleb128 0xb
 1906 01d2 49       		.uleb128 0x49
 1907 01d3 13       		.uleb128 0x13
 1908 01d4 3F       		.uleb128 0x3f
 1909 01d5 19       		.uleb128 0x19
 1910 01d6 3C       		.uleb128 0x3c
 1911 01d7 19       		.uleb128 0x19
 1912 01d8 00       		.byte	0
 1913 01d9 00       		.byte	0
 1914 01da 24       		.uleb128 0x24
 1915 01db 34       		.uleb128 0x34
 1916 01dc 00       		.byte	0
 1917 01dd 03       		.uleb128 0x3
 1918 01de 08       		.uleb128 0x8
 1919 01df 3A       		.uleb128 0x3a
 1920 01e0 0B       		.uleb128 0xb
 1921 01e1 3B       		.uleb128 0x3b
 1922 01e2 0B       		.uleb128 0xb
 1923 01e3 49       		.uleb128 0x49
 1924 01e4 13       		.uleb128 0x13
 1925 01e5 3F       		.uleb128 0x3f
 1926 01e6 19       		.uleb128 0x19
 1927 01e7 3C       		.uleb128 0x3c
 1928 01e8 19       		.uleb128 0x19
 1929 01e9 00       		.byte	0
 1930 01ea 00       		.byte	0
 1931 01eb 25       		.uleb128 0x25
 1932 01ec 2E       		.uleb128 0x2e
 1933 01ed 00       		.byte	0
 1934 01ee 3F       		.uleb128 0x3f
 1935 01ef 19       		.uleb128 0x19
 1936 01f0 03       		.uleb128 0x3
 1937 01f1 0E       		.uleb128 0xe
 1938 01f2 3A       		.uleb128 0x3a
ARM GAS  /tmp/ccvw1FuX.s 			page 35


 1939 01f3 0B       		.uleb128 0xb
 1940 01f4 3B       		.uleb128 0x3b
 1941 01f5 0B       		.uleb128 0xb
 1942 01f6 27       		.uleb128 0x27
 1943 01f7 19       		.uleb128 0x19
 1944 01f8 3C       		.uleb128 0x3c
 1945 01f9 19       		.uleb128 0x19
 1946 01fa 00       		.byte	0
 1947 01fb 00       		.byte	0
 1948 01fc 26       		.uleb128 0x26
 1949 01fd 2E       		.uleb128 0x2e
 1950 01fe 01       		.byte	0x1
 1951 01ff 3F       		.uleb128 0x3f
 1952 0200 19       		.uleb128 0x19
 1953 0201 03       		.uleb128 0x3
 1954 0202 0E       		.uleb128 0xe
 1955 0203 3A       		.uleb128 0x3a
 1956 0204 0B       		.uleb128 0xb
 1957 0205 3B       		.uleb128 0x3b
 1958 0206 0B       		.uleb128 0xb
 1959 0207 27       		.uleb128 0x27
 1960 0208 19       		.uleb128 0x19
 1961 0209 3C       		.uleb128 0x3c
 1962 020a 19       		.uleb128 0x19
 1963 020b 01       		.uleb128 0x1
 1964 020c 13       		.uleb128 0x13
 1965 020d 00       		.byte	0
 1966 020e 00       		.byte	0
 1967 020f 27       		.uleb128 0x27
 1968 0210 2E       		.uleb128 0x2e
 1969 0211 01       		.byte	0x1
 1970 0212 3F       		.uleb128 0x3f
 1971 0213 19       		.uleb128 0x19
 1972 0214 03       		.uleb128 0x3
 1973 0215 0E       		.uleb128 0xe
 1974 0216 3A       		.uleb128 0x3a
 1975 0217 0B       		.uleb128 0xb
 1976 0218 3B       		.uleb128 0x3b
 1977 0219 0B       		.uleb128 0xb
 1978 021a 27       		.uleb128 0x27
 1979 021b 19       		.uleb128 0x19
 1980 021c 3C       		.uleb128 0x3c
 1981 021d 19       		.uleb128 0x19
 1982 021e 00       		.byte	0
 1983 021f 00       		.byte	0
 1984 0220 00       		.byte	0
 1985              		.section	.debug_loc,"",%progbits
 1986              	.Ldebug_loc0:
 1987              	.LLST0:
 1988 0000 00000000 		.4byte	.LVL3
 1989 0004 10000000 		.4byte	.LVL4
 1990 0008 0100     		.2byte	0x1
 1991 000a 50       		.byte	0x50
 1992 000b 10000000 		.4byte	.LVL4
 1993 000f 24000000 		.4byte	.LFE10
 1994 0013 0400     		.2byte	0x4
 1995 0015 F3       		.byte	0xf3
ARM GAS  /tmp/ccvw1FuX.s 			page 36


 1996 0016 01       		.uleb128 0x1
 1997 0017 50       		.byte	0x50
 1998 0018 9F       		.byte	0x9f
 1999 0019 00000000 		.4byte	0
 2000 001d 00000000 		.4byte	0
 2001              	.LLST1:
 2002 0021 00000000 		.4byte	.LVL5
 2003 0025 08000000 		.4byte	.LVL6
 2004 0029 0100     		.2byte	0x1
 2005 002b 50       		.byte	0x50
 2006 002c 08000000 		.4byte	.LVL6
 2007 0030 34000000 		.4byte	.LFE12
 2008 0034 0400     		.2byte	0x4
 2009 0036 F3       		.byte	0xf3
 2010 0037 01       		.uleb128 0x1
 2011 0038 50       		.byte	0x50
 2012 0039 9F       		.byte	0x9f
 2013 003a 00000000 		.4byte	0
 2014 003e 00000000 		.4byte	0
 2015              	.LLST2:
 2016 0042 0C000000 		.4byte	.LVL7
 2017 0046 14000000 		.4byte	.LVL8
 2018 004a 0100     		.2byte	0x1
 2019 004c 53       		.byte	0x53
 2020 004d 24000000 		.4byte	.LVL10
 2021 0051 34000000 		.4byte	.LFE12
 2022 0055 0100     		.2byte	0x1
 2023 0057 53       		.byte	0x53
 2024 0058 00000000 		.4byte	0
 2025 005c 00000000 		.4byte	0
 2026              		.section	.debug_aranges,"",%progbits
 2027 0000 44000000 		.4byte	0x44
 2028 0004 0200     		.2byte	0x2
 2029 0006 00000000 		.4byte	.Ldebug_info0
 2030 000a 04       		.byte	0x4
 2031 000b 00       		.byte	0
 2032 000c 0000     		.2byte	0
 2033 000e 0000     		.2byte	0
 2034 0010 00000000 		.4byte	.LFB9
 2035 0014 34000000 		.4byte	.LFE9-.LFB9
 2036 0018 00000000 		.4byte	.LFB10
 2037 001c 24000000 		.4byte	.LFE10-.LFB10
 2038 0020 00000000 		.4byte	.LFB11
 2039 0024 50000000 		.4byte	.LFE11-.LFB11
 2040 0028 00000000 		.4byte	.LFB12
 2041 002c 34000000 		.4byte	.LFE12-.LFB12
 2042 0030 00000000 		.4byte	.LFB13
 2043 0034 18000000 		.4byte	.LFE13-.LFB13
 2044 0038 00000000 		.4byte	.LFB14
 2045 003c 18000000 		.4byte	.LFE14-.LFB14
 2046 0040 00000000 		.4byte	0
 2047 0044 00000000 		.4byte	0
 2048              		.section	.debug_ranges,"",%progbits
 2049              	.Ldebug_ranges0:
 2050 0000 04000000 		.4byte	.LBB6
 2051 0004 10000000 		.4byte	.LBE6
 2052 0008 14000000 		.4byte	.LBB9
ARM GAS  /tmp/ccvw1FuX.s 			page 37


 2053 000c 18000000 		.4byte	.LBE9
 2054 0010 00000000 		.4byte	0
 2055 0014 00000000 		.4byte	0
 2056 0018 00000000 		.4byte	.LFB9
 2057 001c 34000000 		.4byte	.LFE9
 2058 0020 00000000 		.4byte	.LFB10
 2059 0024 24000000 		.4byte	.LFE10
 2060 0028 00000000 		.4byte	.LFB11
 2061 002c 50000000 		.4byte	.LFE11
 2062 0030 00000000 		.4byte	.LFB12
 2063 0034 34000000 		.4byte	.LFE12
 2064 0038 00000000 		.4byte	.LFB13
 2065 003c 18000000 		.4byte	.LFE13
 2066 0040 00000000 		.4byte	.LFB14
 2067 0044 18000000 		.4byte	.LFE14
 2068 0048 00000000 		.4byte	0
 2069 004c 00000000 		.4byte	0
 2070              		.section	.debug_line,"",%progbits
 2071              	.Ldebug_line0:
 2072 0000 5F020000 		.section	.debug_str,"MS",%progbits,1
 2072      0200BF01 
 2072      00000201 
 2072      FB0E0D00 
 2072      01010101 
 2073              	.LASF133:
 2074 0000 2F686F6D 		.ascii	"/home/hunter/development/chibi/ChibiOS-RPi/testhal/"
 2074      652F6875 
 2074      6E746572 
 2074      2F646576 
 2074      656C6F70 
 2075 0033 42434D32 		.ascii	"BCM2835/GPIO\000"
 2075      3833352F 
 2075      4750494F 
 2075      00
 2076              	.LASF3:
 2077 0040 73697A65 		.ascii	"size_t\000"
 2077      5F7400
 2078              	.LASF54:
 2079 0047 7264796D 		.ascii	"rdymsg\000"
 2079      736700
 2080              	.LASF69:
 2081 004e 4F757470 		.ascii	"OutputQueue\000"
 2081      75745175 
 2081      65756500 
 2082              	.LASF4:
 2083 005a 5F5F7569 		.ascii	"__uint8_t\000"
 2083      6E74385F 
 2083      7400
 2084              	.LASF70:
 2085 0064 62736364 		.ascii	"bscdevice_t\000"
 2085      65766963 
 2085      655F7400 
 2086              	.LASF97:
 2087 0070 72786275 		.ascii	"rxbuf\000"
 2087      6600
 2088              	.LASF12:
 2089 0076 6C6F6E67 		.ascii	"long long unsigned int\000"
ARM GAS  /tmp/ccvw1FuX.s 			page 38


 2089      206C6F6E 
 2089      6720756E 
 2089      7369676E 
 2089      65642069 
 2090              	.LASF93:
 2091 008d 61646472 		.ascii	"addr\000"
 2091      00
 2092              	.LASF55:
 2093 0092 65786974 		.ascii	"exitcode\000"
 2093      636F6465 
 2093      00
 2094              	.LASF75:
 2095 009b 64617461 		.ascii	"dataFifo\000"
 2095      4669666F 
 2095      00
 2096              	.LASF29:
 2097 00a4 705F7072 		.ascii	"p_prio\000"
 2097      696F00
 2098              	.LASF118:
 2099 00ab 72656164 		.ascii	"readt\000"
 2099      7400
 2100              	.LASF90:
 2101 00b1 64657669 		.ascii	"device\000"
 2101      636500
 2102              	.LASF59:
 2103 00b8 715F7761 		.ascii	"q_waiting\000"
 2103      6974696E 
 2103      6700
 2104              	.LASF11:
 2105 00c2 6C6F6E67 		.ascii	"long long int\000"
 2105      206C6F6E 
 2105      6720696E 
 2105      7400
 2106              	.LASF2:
 2107 00d0 7369676E 		.ascii	"signed char\000"
 2107      65642063 
 2107      68617200 
 2108              	.LASF121:
 2109 00dc 73797374 		.ascii	"systimer_init\000"
 2109      696D6572 
 2109      5F696E69 
 2109      7400
 2110              	.LASF105:
 2111 00ea 53445F53 		.ascii	"SD_STOP\000"
 2111      544F5000 
 2112              	.LASF44:
 2113 00f2 6D5F7175 		.ascii	"m_queue\000"
 2113      65756500 
 2114              	.LASF20:
 2115 00fa 74736C69 		.ascii	"tslices_t\000"
 2115      6365735F 
 2115      7400
 2116              	.LASF79:
 2117 0104 4932435F 		.ascii	"I2C_UNINIT\000"
 2117      554E494E 
 2117      495400
 2118              	.LASF101:
ARM GAS  /tmp/ccvw1FuX.s 			page 39


 2119 010f 69326361 		.ascii	"i2caddr_t\000"
 2119      6464725F 
 2119      7400
 2120              	.LASF87:
 2121 0119 73746174 		.ascii	"state\000"
 2121      6500
 2122              	.LASF0:
 2123 011f 6C6F6E67 		.ascii	"long int\000"
 2123      20696E74 
 2123      00
 2124              	.LASF19:
 2125 0128 74737461 		.ascii	"tstate_t\000"
 2125      74655F74 
 2125      00
 2126              	.LASF92:
 2127 0131 74687265 		.ascii	"thread\000"
 2127      616400
 2128              	.LASF77:
 2129 0138 64617461 		.ascii	"dataDelay\000"
 2129      44656C61 
 2129      7900
 2130              	.LASF61:
 2131 0142 715F6275 		.ascii	"q_buffer\000"
 2131      66666572 
 2131      00
 2132              	.LASF14:
 2133 014b 75696E74 		.ascii	"uint16_t\000"
 2133      31365F74 
 2133      00
 2134              	.LASF82:
 2135 0154 4932435F 		.ascii	"I2C_ACTIVE_TX\000"
 2135      41435449 
 2135      56455F54 
 2135      5800
 2136              	.LASF73:
 2137 0162 64617461 		.ascii	"dataLength\000"
 2137      4C656E67 
 2137      746800
 2138              	.LASF71:
 2139 016d 636F6E74 		.ascii	"control\000"
 2139      726F6C00 
 2140              	.LASF10:
 2141 0175 5F5F7569 		.ascii	"__uint32_t\000"
 2141      6E743332 
 2141      5F7400
 2142              	.LASF40:
 2143 0180 72656761 		.ascii	"regarm_t\000"
 2143      726D5F74 
 2143      00
 2144              	.LASF74:
 2145 0189 736C6176 		.ascii	"slaveAddress\000"
 2145      65416464 
 2145      72657373 
 2145      00
 2146              	.LASF122:
 2147 0196 49727148 		.ascii	"IrqHandler\000"
 2147      616E646C 
ARM GAS  /tmp/ccvw1FuX.s 			page 40


 2147      657200
 2148              	.LASF130:
 2149 01a1 49324330 		.ascii	"I2C0\000"
 2149      00
 2150              	.LASF52:
 2151 01a6 4576656E 		.ascii	"EventSource\000"
 2151      74536F75 
 2151      72636500 
 2152              	.LASF17:
 2153 01b2 756E7369 		.ascii	"unsigned int\000"
 2153      676E6564 
 2153      20696E74 
 2153      00
 2154              	.LASF94:
 2155 01bf 74786275 		.ascii	"txbuf\000"
 2155      6600
 2156              	.LASF112:
 2157 01c5 53657269 		.ascii	"SerialDriverVMT\000"
 2157      616C4472 
 2157      69766572 
 2157      564D5400 
 2158              	.LASF89:
 2159 01d5 6572726F 		.ascii	"errors\000"
 2159      727300
 2160              	.LASF136:
 2161 01dc 63685379 		.ascii	"chSysTimerHandlerI\000"
 2161      7354696D 
 2161      65724861 
 2161      6E646C65 
 2161      724900
 2162              	.LASF110:
 2163 01ef 69717565 		.ascii	"iqueue\000"
 2163      756500
 2164              	.LASF1:
 2165 01f6 6C6F6E67 		.ascii	"long unsigned int\000"
 2165      20756E73 
 2165      69676E65 
 2165      6420696E 
 2165      7400
 2166              	.LASF126:
 2167 0208 74696D65 		.ascii	"timeout\000"
 2167      6F757400 
 2168              	.LASF116:
 2169 0210 67657474 		.ascii	"gett\000"
 2169      00
 2170              	.LASF109:
 2171 0215 6576656E 		.ascii	"event\000"
 2171      7400
 2172              	.LASF8:
 2173 021b 73686F72 		.ascii	"short unsigned int\000"
 2173      7420756E 
 2173      7369676E 
 2173      65642069 
 2173      6E7400
 2174              	.LASF86:
 2175 022e 49324344 		.ascii	"I2CDriver\000"
 2175      72697665 
ARM GAS  /tmp/ccvw1FuX.s 			page 41


 2175      7200
 2176              	.LASF22:
 2177 0238 6D73675F 		.ascii	"msg_t\000"
 2177      7400
 2178              	.LASF111:
 2179 023e 6F717565 		.ascii	"oqueue\000"
 2179      756500
 2180              	.LASF48:
 2181 0245 656C5F6E 		.ascii	"el_next\000"
 2181      65787400 
 2182              	.LASF117:
 2183 024d 77726974 		.ascii	"writet\000"
 2183      657400
 2184              	.LASF18:
 2185 0254 746D6F64 		.ascii	"tmode_t\000"
 2185      655F7400 
 2186              	.LASF39:
 2187 025c 54687265 		.ascii	"ThreadsList\000"
 2187      6164734C 
 2187      69737400 
 2188              	.LASF23:
 2189 0268 6576656E 		.ascii	"eventmask_t\000"
 2189      746D6173 
 2189      6B5F7400 
 2190              	.LASF68:
 2191 0274 496E7075 		.ascii	"InputQueue\000"
 2191      74517565 
 2191      756500
 2192              	.LASF43:
 2193 027f 4D757465 		.ascii	"Mutex\000"
 2193      7800
 2194              	.LASF131:
 2195 0285 474E5520 		.ascii	"GNU C 4.9.3 20150529 (prerelease) -mcpu=arm1176jz-s"
 2195      4320342E 
 2195      392E3320 
 2195      32303135 
 2195      30353239 
 2196 02b8 202D6D61 		.ascii	" -mabi=apcs-gnu -mno-thumb-interwork -ggdb -O2 -fom"
 2196      62693D61 
 2196      7063732D 
 2196      676E7520 
 2196      2D6D6E6F 
 2197 02eb 69742D66 		.ascii	"it-frame-pointer -ffunction-sections -fdata-section"
 2197      72616D65 
 2197      2D706F69 
 2197      6E746572 
 2197      202D6666 
 2198 031e 7300     		.ascii	"s\000"
 2199              	.LASF58:
 2200 0320 47656E65 		.ascii	"GenericQueue\000"
 2200      72696351 
 2200      75657565 
 2200      00
 2201              	.LASF113:
 2202 032d 77726974 		.ascii	"write\000"
 2202      6500
 2203              	.LASF129:
ARM GAS  /tmp/ccvw1FuX.s 			page 42


 2204 0333 706D5F77 		.ascii	"pm_wdog\000"
 2204      646F6700 
 2205              	.LASF115:
 2206 033b 70757474 		.ascii	"putt\000"
 2206      00
 2207              	.LASF80:
 2208 0340 4932435F 		.ascii	"I2C_STOP\000"
 2208      53544F50 
 2208      00
 2209              	.LASF119:
 2210 0349 73697A65 		.ascii	"sizetype\000"
 2210      74797065 
 2210      00
 2211              	.LASF76:
 2212 0352 636C6F63 		.ascii	"clockDivider\000"
 2212      6B446976 
 2212      69646572 
 2212      00
 2213              	.LASF60:
 2214 035f 715F636F 		.ascii	"q_counter\000"
 2214      756E7465 
 2214      7200
 2215              	.LASF134:
 2216 0369 77617463 		.ascii	"watchdog_stop\000"
 2216      68646F67 
 2216      5F73746F 
 2216      7000
 2217              	.LASF102:
 2218 0377 69635F73 		.ascii	"ic_speed\000"
 2218      70656564 
 2218      00
 2219              	.LASF127:
 2220 0380 636F6D70 		.ascii	"compare\000"
 2220      61726500 
 2221              	.LASF98:
 2222 0388 72786279 		.ascii	"rxbytes\000"
 2222      74657300 
 2223              	.LASF63:
 2224 0390 715F7772 		.ascii	"q_wrptr\000"
 2224      70747200 
 2225              	.LASF38:
 2226 0398 54687265 		.ascii	"ThreadsQueue\000"
 2226      61647351 
 2226      75657565 
 2226      00
 2227              	.LASF132:
 2228 03a5 2E2E2F2E 		.ascii	"../../../os/hal/platforms/BCM2835/hal_lld.c\000"
 2228      2E2F2E2E 
 2228      2F6F732F 
 2228      68616C2F 
 2228      706C6174 
 2229              	.LASF50:
 2230 03d1 656C5F6D 		.ascii	"el_mask\000"
 2230      61736B00 
 2231              	.LASF99:
 2232 03d9 72786964 		.ascii	"rxidx\000"
 2232      7800
ARM GAS  /tmp/ccvw1FuX.s 			page 43


 2233              	.LASF85:
 2234 03df 69326373 		.ascii	"i2cstate_t\000"
 2234      74617465 
 2234      5F7400
 2235              	.LASF67:
 2236 03ea 716E6F74 		.ascii	"qnotify_t\000"
 2236      6966795F 
 2236      7400
 2237              	.LASF28:
 2238 03f4 705F7072 		.ascii	"p_prev\000"
 2238      657600
 2239              	.LASF21:
 2240 03fb 74707269 		.ascii	"tprio_t\000"
 2240      6F5F7400 
 2241              	.LASF64:
 2242 0403 715F7264 		.ascii	"q_rdptr\000"
 2242      70747200 
 2243              	.LASF100:
 2244 040b 69326366 		.ascii	"i2cflags_t\000"
 2244      6C616773 
 2244      5F7400
 2245              	.LASF91:
 2246 0416 6D757465 		.ascii	"mutex\000"
 2246      7800
 2247              	.LASF15:
 2248 041c 696E7433 		.ascii	"int32_t\000"
 2248      325F7400 
 2249              	.LASF5:
 2250 0424 756E7369 		.ascii	"unsigned char\000"
 2250      676E6564 
 2250      20636861 
 2250      7200
 2251              	.LASF49:
 2252 0432 656C5F6C 		.ascii	"el_listener\000"
 2252      69737465 
 2252      6E657200 
 2253              	.LASF51:
 2254 043e 656C5F66 		.ascii	"el_flags\000"
 2254      6C616773 
 2254      00
 2255              	.LASF36:
 2256 0447 705F6D74 		.ascii	"p_mtxlist\000"
 2256      786C6973 
 2256      7400
 2257              	.LASF6:
 2258 0451 73686F72 		.ascii	"short int\000"
 2258      7420696E 
 2258      7400
 2259              	.LASF31:
 2260 045b 705F7374 		.ascii	"p_state\000"
 2260      61746500 
 2261              	.LASF33:
 2262 0463 705F7072 		.ascii	"p_preempt\000"
 2262      65656D70 
 2262      7400
 2263              	.LASF57:
 2264 046d 65776D61 		.ascii	"ewmask\000"
ARM GAS  /tmp/ccvw1FuX.s 			page 44


 2264      736B00
 2265              	.LASF27:
 2266 0474 705F6E65 		.ascii	"p_next\000"
 2266      787400
 2267              	.LASF32:
 2268 047b 705F666C 		.ascii	"p_flags\000"
 2268      61677300 
 2269              	.LASF26:
 2270 0483 54687265 		.ascii	"Thread\000"
 2270      616400
 2271              	.LASF84:
 2272 048a 4932435F 		.ascii	"I2C_LOCKED\000"
 2272      4C4F434B 
 2272      454400
 2273              	.LASF135:
 2274 0495 77617463 		.ascii	"watchdog_get_remaining\000"
 2274      68646F67 
 2274      5F676574 
 2274      5F72656D 
 2274      61696E69 
 2275              	.LASF35:
 2276 04ac 705F6570 		.ascii	"p_epending\000"
 2276      656E6469 
 2276      6E6700
 2277              	.LASF104:
 2278 04b7 53445F55 		.ascii	"SD_UNINIT\000"
 2278      4E494E49 
 2278      5400
 2279              	.LASF16:
 2280 04c1 75696E74 		.ascii	"uint32_t\000"
 2280      33325F74 
 2280      00
 2281              	.LASF107:
 2282 04ca 73647374 		.ascii	"sdstate_t\000"
 2282      6174655F 
 2282      7400
 2283              	.LASF125:
 2284 04d4 77617463 		.ascii	"watchdog_start\000"
 2284      68646F67 
 2284      5F737461 
 2284      727400
 2285              	.LASF108:
 2286 04e3 53657269 		.ascii	"SerialDriver\000"
 2286      616C4472 
 2286      69766572 
 2286      00
 2287              	.LASF83:
 2288 04f0 4932435F 		.ascii	"I2C_ACTIVE_RX\000"
 2288      41435449 
 2288      56455F52 
 2288      5800
 2289              	.LASF114:
 2290 04fe 72656164 		.ascii	"read\000"
 2290      00
 2291              	.LASF88:
 2292 0503 636F6E66 		.ascii	"config\000"
 2292      696700
ARM GAS  /tmp/ccvw1FuX.s 			page 45


 2293              	.LASF7:
 2294 050a 5F5F7569 		.ascii	"__uint16_t\000"
 2294      6E743136 
 2294      5F7400
 2295              	.LASF46:
 2296 0515 6D5F6E65 		.ascii	"m_next\000"
 2296      787400
 2297              	.LASF25:
 2298 051c 73797374 		.ascii	"systime_t\000"
 2298      696D655F 
 2298      7400
 2299              	.LASF37:
 2300 0526 705F7265 		.ascii	"p_realprio\000"
 2300      616C7072 
 2300      696F00
 2301              	.LASF9:
 2302 0531 5F5F696E 		.ascii	"__int32_t\000"
 2302      7433325F 
 2302      7400
 2303              	.LASF81:
 2304 053b 4932435F 		.ascii	"I2C_READY\000"
 2304      52454144 
 2304      5900
 2305              	.LASF42:
 2306 0545 636F6E74 		.ascii	"context\000"
 2306      65787400 
 2307              	.LASF124:
 2308 054d 68616C5F 		.ascii	"hal_lld_init\000"
 2308      6C6C645F 
 2308      696E6974 
 2308      00
 2309              	.LASF41:
 2310 055a 696E7463 		.ascii	"intctx\000"
 2310      747800
 2311              	.LASF106:
 2312 0561 53445F52 		.ascii	"SD_READY\000"
 2312      45414459 
 2312      00
 2313              	.LASF120:
 2314 056a 73797374 		.ascii	"systimer_serve_interrupt\000"
 2314      696D6572 
 2314      5F736572 
 2314      76655F69 
 2314      6E746572 
 2315              	.LASF24:
 2316 0583 666C6167 		.ascii	"flagsmask_t\000"
 2316      736D6173 
 2316      6B5F7400 
 2317              	.LASF103:
 2318 058f 49324343 		.ascii	"I2CConfig\000"
 2318      6F6E6669 
 2318      6700
 2319              	.LASF96:
 2320 0599 74786964 		.ascii	"txidx\000"
 2320      7800
 2321              	.LASF62:
 2322 059f 715F746F 		.ascii	"q_top\000"
ARM GAS  /tmp/ccvw1FuX.s 			page 46


 2322      7000
 2323              	.LASF53:
 2324 05a5 65735F6E 		.ascii	"es_next\000"
 2324      65787400 
 2325              	.LASF72:
 2326 05ad 73746174 		.ascii	"status\000"
 2326      757300
 2327              	.LASF65:
 2328 05b4 715F6E6F 		.ascii	"q_notify\000"
 2328      74696679 
 2328      00
 2329              	.LASF13:
 2330 05bd 75696E74 		.ascii	"uint8_t\000"
 2330      385F7400 
 2331              	.LASF47:
 2332 05c5 4576656E 		.ascii	"EventListener\000"
 2332      744C6973 
 2332      74656E65 
 2332      7200
 2333              	.LASF56:
 2334 05d3 77746F62 		.ascii	"wtobjp\000"
 2334      6A7000
 2335              	.LASF137:
 2336 05da 73645F6C 		.ascii	"sd_lld_serve_interrupt\000"
 2336      6C645F73 
 2336      65727665 
 2336      5F696E74 
 2336      65727275 
 2337              	.LASF138:
 2338 05f1 6932635F 		.ascii	"i2c_lld_serve_interrupt\000"
 2338      6C6C645F 
 2338      73657276 
 2338      655F696E 
 2338      74657272 
 2339              	.LASF123:
 2340 0609 64656C61 		.ascii	"delayMicroseconds\000"
 2340      794D6963 
 2340      726F7365 
 2340      636F6E64 
 2340      7300
 2341              	.LASF66:
 2342 061b 715F6C69 		.ascii	"q_link\000"
 2342      6E6B00
 2343              	.LASF128:
 2344 0622 706D5F72 		.ascii	"pm_rstc\000"
 2344      73746300 
 2345              	.LASF45:
 2346 062a 6D5F6F77 		.ascii	"m_owner\000"
 2346      6E657200 
 2347              	.LASF30:
 2348 0632 705F6374 		.ascii	"p_ctx\000"
 2348      7800
 2349              	.LASF34:
 2350 0638 705F7761 		.ascii	"p_waiting\000"
 2350      6974696E 
 2350      6700
 2351              	.LASF95:
ARM GAS  /tmp/ccvw1FuX.s 			page 47


 2352 0642 74786279 		.ascii	"txbytes\000"
 2352      74657300 
 2353              	.LASF78:
 2354 064a 636C6F63 		.ascii	"clockStretchTimeout\000"
 2354      6B537472 
 2354      65746368 
 2354      54696D65 
 2354      6F757400 
 2355              		.ident	"GCC: (15:4.9.3+svn231177-1) 4.9.3 20150529 (prerelease)"
ARM GAS  /tmp/ccvw1FuX.s 			page 48


DEFINED SYMBOLS
                            *ABS*:0000000000000000 hal_lld.c
     /tmp/ccvw1FuX.s:6      .text.IrqHandler:0000000000000000 $a
     /tmp/ccvw1FuX.s:9      .text.IrqHandler:0000000000000000 IrqHandler
     /tmp/ccvw1FuX.s:54     .text.IrqHandler:0000000000000028 $d
     /tmp/ccvw1FuX.s:61     .text.delayMicroseconds:0000000000000000 $a
     /tmp/ccvw1FuX.s:64     .text.delayMicroseconds:0000000000000000 delayMicroseconds
     /tmp/ccvw1FuX.s:90     .text.delayMicroseconds:0000000000000020 $d
     /tmp/ccvw1FuX.s:95     .text.hal_lld_init:0000000000000000 $a
     /tmp/ccvw1FuX.s:98     .text.hal_lld_init:0000000000000000 hal_lld_init
     /tmp/ccvw1FuX.s:141    .text.hal_lld_init:0000000000000044 $d
     /tmp/ccvw1FuX.s:150    .text.watchdog_start:0000000000000000 $a
     /tmp/ccvw1FuX.s:153    .text.watchdog_start:0000000000000000 watchdog_start
     /tmp/ccvw1FuX.s:190    .text.watchdog_start:0000000000000030 $d
     /tmp/ccvw1FuX.s:195    .text.watchdog_stop:0000000000000000 $a
     /tmp/ccvw1FuX.s:198    .text.watchdog_stop:0000000000000000 watchdog_stop
     /tmp/ccvw1FuX.s:213    .text.watchdog_stop:0000000000000010 $d
     /tmp/ccvw1FuX.s:219    .text.watchdog_get_remaining:0000000000000000 $a
     /tmp/ccvw1FuX.s:222    .text.watchdog_get_remaining:0000000000000000 watchdog_get_remaining
     /tmp/ccvw1FuX.s:239    .text.watchdog_get_remaining:0000000000000014 $d
                     .debug_frame:0000000000000010 $d

UNDEFINED SYMBOLS
chSysTimerHandlerI
sd_lld_serve_interrupt
i2c_lld_serve_interrupt
_port_irq_common
SD1
I2C0
