ARM GAS  /tmp/ccvw1FuX.s 			page 1


   1              		.file	"hal_lld.c"
   2              		.text
   3              	.Ltext0:
   4              		.cfi_sections	.debug_frame
   5              		.section	.text.IrqHandler,"ax",%progbits
   6              		.align	2
   7              		.global	IrqHandler
   8              		.type	IrqHandler, %function
   9              	IrqHandler:
  10              	.LFB9:
  11              		.file 1 "../../../os/hal/platforms/BCM2835/hal_lld.c"
  12              		.loc 1 91 0
  13              		.cfi_startproc
  14              		@ Naked Function: prologue and epilogue provided by programmer.
  15              		@ args = 0, pretend = 0, frame = 0
  16              		@ frame_needed = 0, uses_anonymous_args = 0
  17              		.loc 1 92 0
  18              	@ 92 "../../../os/hal/platforms/BCM2835/hal_lld.c" 1
  19 0000 0F502DE9 		stmfd    sp!, {r0-r3, r12, lr}
  20              	@ 0 "" 2
  21              	.LBB6:
  22              	.LBB7:
  23              		.loc 1 75 0
  24 0004 FEFFFFEB 		bl	chSysTimerHandlerI
  25              	.LVL0:
  26              		.loc 1 79 0
  27 0008 0020A0E3 		mov	r2, #0
  28 000c 14309FE5 		ldr	r3, .L2
  29              	.LBE7:
  30              	.LBE6:
  31              		.loc 1 97 0
  32 0010 14009FE5 		ldr	r0, .L2+4
  33              	.LBB9:
  34              	.LBB8:
  35              		.loc 1 79 0
  36 0014 0C2483E5 		str	r2, [r3, #1036]
  37              	.LBE8:
  38              	.LBE9:
  39              		.loc 1 97 0
  40 0018 FEFFFFEB 		bl	sd_lld_serve_interrupt
  41              	.LVL1:
  42              		.loc 1 101 0
  43 001c 0C009FE5 		ldr	r0, .L2+8
  44 0020 FEFFFFEB 		bl	i2c_lld_serve_interrupt
  45              	.LVL2:
  46              		.loc 1 112 0
  47              	@ 112 "../../../os/hal/platforms/BCM2835/hal_lld.c" 1
  48 0024 FEFFFFEA 		b       _port_irq_common
  49              	@ 0 "" 2
  50              		.loc 1 113 0
  51              	.L3:
  52              		.align	2
  53              	.L2:
  54 0028 00B00020 		.word	536915968
  55 002c 00000000 		.word	SD1
  56 0030 00000000 		.word	I2C0
  57              		.cfi_endproc
ARM GAS  /tmp/ccvw1FuX.s 			page 2


  58              	.LFE9:
  59              		.size	IrqHandler, .-IrqHandler
  60              		.section	.text.delayMicroseconds,"ax",%progbits
  61              		.align	2
  62              		.global	delayMicroseconds
  63              		.type	delayMicroseconds, %function
  64              	delayMicroseconds:
  65              	.LFB10:
  66              		.loc 1 124 0
  67              		.cfi_startproc
  68              		@ args = 0, pretend = 0, frame = 0
  69              		@ frame_needed = 0, uses_anonymous_args = 0
  70              		@ link register save eliminated.
  71              	.LVL3:
  72              		.loc 1 125 0
  73 0000 18309FE5 		ldr	r3, .L8
  74              		.loc 1 126 0
  75 0004 0320A0E1 		mov	r2, r3
  76              		.loc 1 125 0
  77 0008 043093E5 		ldr	r3, [r3, #4]
  78 000c 030080E0 		add	r0, r0, r3
  79              	.LVL4:
  80              	.L5:
  81              		.loc 1 126 0 discriminator 1
  82 0010 043092E5 		ldr	r3, [r2, #4]
  83 0014 030050E1 		cmp	r0, r3
  84 0018 FCFFFF8A 		bhi	.L5
  85              		.loc 1 127 0
  86 001c 1EFF2FE1 		bx	lr
  87              	.L9:
  88              		.align	2
  89              	.L8:
  90 0020 00300020 		.word	536883200
  91              		.cfi_endproc
  92              	.LFE10:
  93              		.size	delayMicroseconds, .-delayMicroseconds
  94              		.section	.text.hal_lld_init,"ax",%progbits
  95              		.align	2
  96              		.global	hal_lld_init
  97              		.type	hal_lld_init, %function
  98              	hal_lld_init:
  99              	.LFB11:
 100              		.loc 1 134 0
 101              		.cfi_startproc
 102              		@ args = 0, pretend = 0, frame = 0
 103              		@ frame_needed = 0, uses_anonymous_args = 0
 104 0000 04E02DE5 		str	lr, [sp, #-4]!
 105              		.cfi_def_cfa_offset 4
 106              		.cfi_offset 14, -4
 107              	.LBB10:
 108              	.LBB11:
 109              		.loc 1 59 0
 110 0004 F9C0A0E3 		mov	ip, #249
 111              		.loc 1 56 0
 112 0008 3EE8A0E3 		mov	lr, #4063232
 113              		.loc 1 60 0
 114 000c 0000A0E3 		mov	r0, #0
ARM GAS  /tmp/ccvw1FuX.s 			page 3


 115              		.loc 1 56 0
 116 0010 2C309FE5 		ldr	r3, .L12
 117              		.loc 1 57 0
 118 0014 2C209FE5 		ldr	r2, .L12+4
 119              		.loc 1 61 0
 120 0018 2C109FE5 		ldr	r1, .L12+8
 121              		.loc 1 56 0
 122 001c 08E483E5 		str	lr, [r3, #1032]
 123              		.loc 1 57 0
 124 0020 002483E5 		str	r2, [r3, #1024]
 125              		.loc 1 58 0
 126 0024 182483E5 		str	r2, [r3, #1048]
 127              		.loc 1 59 0
 128 0028 1CC483E5 		str	ip, [r3, #1052]
 129              		.loc 1 60 0
 130 002c 0C0483E5 		str	r0, [r3, #1036]
 131              		.loc 1 61 0
 132 0030 081483E5 		str	r1, [r3, #1032]
 133              		.loc 1 63 0
 134 0034 182293E5 		ldr	r2, [r3, #536]
 135 0038 012082E3 		orr	r2, r2, #1
 136 003c 182283E5 		str	r2, [r3, #536]
 137 0040 04F09DE4 		ldr	pc, [sp], #4
 138              	.L13:
 139              		.align	2
 140              	.L12:
 141 0044 00B00020 		.word	536915968
 142 0048 E7030000 		.word	999
 143 004c A2003E00 		.word	4063394
 144              	.LBE11:
 145              	.LBE10:
 146              		.cfi_endproc
 147              	.LFE11:
 148              		.size	hal_lld_init, .-hal_lld_init
 149              		.section	.text.watchdog_start,"ax",%progbits
 150              		.align	2
 151              		.global	watchdog_start
 152              		.type	watchdog_start, %function
 153              	watchdog_start:
 154              	.LFB12:
 155              		.loc 1 142 0
 156              		.cfi_startproc
 157              		@ args = 0, pretend = 0, frame = 0
 158              		@ frame_needed = 0, uses_anonymous_args = 0
 159              		@ link register save eliminated.
 160              	.LVL5:
 161              		.loc 1 144 0
 162 0000 28209FE5 		ldr	r2, .L15
 163              		.loc 1 147 0
 164 0004 FF04C0E3 		bic	r0, r0, #-16777216
 165              	.LVL6:
 166              		.loc 1 144 0
 167 0008 1C3092E5 		ldr	r3, [r2, #28]
 168              	.LVL7:
 169              		.loc 1 147 0
 170 000c 0F06C0E3 		bic	r0, r0, #15728640
 171              		.loc 1 148 0
ARM GAS  /tmp/ccvw1FuX.s 			page 4


 172 0010 5A34C3E3 		bic	r3, r3, #1509949440
 173              	.LVL8:
 174 0014 3030C3E3 		bic	r3, r3, #48
 175 0018 5A3483E3 		orr	r3, r3, #1509949440
 176              		.loc 1 147 0
 177 001c 5A0480E3 		orr	r0, r0, #1509949440
 178              	.LVL9:
 179              		.loc 1 148 0
 180 0020 203083E3 		orr	r3, r3, #32
 181              	.LVL10:
 182              		.loc 1 149 0
 183 0024 240082E5 		str	r0, [r2, #36]
 184              		.loc 1 150 0
 185 0028 1C3082E5 		str	r3, [r2, #28]
 186 002c 1EFF2FE1 		bx	lr
 187              	.L16:
 188              		.align	2
 189              	.L15:
 190 0030 00001020 		.word	537919488
 191              		.cfi_endproc
 192              	.LFE12:
 193              		.size	watchdog_start, .-watchdog_start
 194              		.section	.text.watchdog_stop,"ax",%progbits
 195              		.align	2
 196              		.global	watchdog_stop
 197              		.type	watchdog_stop, %function
 198              	watchdog_stop:
 199              	.LFB13:
 200              		.loc 1 157 0
 201              		.cfi_startproc
 202              		@ args = 0, pretend = 0, frame = 0
 203              		@ frame_needed = 0, uses_anonymous_args = 0
 204              		@ link register save eliminated.
 205              		.loc 1 158 0
 206 0000 08309FE5 		ldr	r3, .L18
 207 0004 08209FE5 		ldr	r2, .L18+4
 208 0008 1C2083E5 		str	r2, [r3, #28]
 209 000c 1EFF2FE1 		bx	lr
 210              	.L19:
 211              		.align	2
 212              	.L18:
 213 0010 00001020 		.word	537919488
 214 0014 0201005A 		.word	1509949698
 215              		.cfi_endproc
 216              	.LFE13:
 217              		.size	watchdog_stop, .-watchdog_stop
 218              		.section	.text.watchdog_get_remaining,"ax",%progbits
 219              		.align	2
 220              		.global	watchdog_get_remaining
 221              		.type	watchdog_get_remaining, %function
 222              	watchdog_get_remaining:
 223              	.LFB14:
 224              		.loc 1 165 0
 225              		.cfi_startproc
 226              		@ args = 0, pretend = 0, frame = 0
 227              		@ frame_needed = 0, uses_anonymous_args = 0
 228              		@ link register save eliminated.
ARM GAS  /tmp/ccvw1FuX.s 			page 5


 229              		.loc 1 166 0
 230 0000 0C309FE5 		ldr	r3, .L21
 231 0004 240093E5 		ldr	r0, [r3, #36]
 232              		.loc 1 167 0
 233 0008 FF04C0E3 		bic	r0, r0, #-16777216
 234 000c 0F06C0E3 		bic	r0, r0, #15728640
 235 0010 1EFF2FE1 		bx	lr
 236              	.L22:
 237              		.align	2
 238              	.L21:
 239 0014 00001020 		.word	537919488
 240              		.cfi_endproc
 241              	.LFE14:
 242              		.size	watchdog_get_remaining, .-watchdog_get_remaining
 243              		.text
 244              	.Letext0:
 245              		.file 2 "/usr/lib/gcc/arm-none-eabi/4.9.3/include/stddef.h"
 246              		.file 3 "/usr/include/newlib/machine/_default_types.h"
 247              		.file 4 "/usr/include/newlib/sys/_stdint.h"
 248              		.file 5 "../../../os/ports/GCC/ARM/chtypes.h"
 249              		.file 6 "../../../os/kernel/include/chlists.h"
 250              		.file 7 "../../../os/kernel/include/chthreads.h"
 251              		.file 8 "../../../os/ports/GCC/ARM/chcore.h"
 252              		.file 9 "../../../os/kernel/include/chmtx.h"
 253              		.file 10 "../../../os/kernel/include/chevents.h"
 254              		.file 11 "../../../os/kernel/include/chqueues.h"
 255              		.file 12 "../../../os/hal/platforms/BCM2835/bcm2835.h"
 256              		.file 13 "../../../os/hal/include/i2c.h"
 257              		.file 14 "../../../os/hal/platforms/BCM2835/i2c_lld.h"
 258              		.file 15 "../../../os/hal/include/serial.h"
 259              		.file 16 "../../../os/hal/platforms/BCM2835/serial_lld.h"
 260              		.file 17 "../../../os/kernel/include/chsys.h"