ARM GAS  /tmp/ccke2mTz.s 			page 1


   1              		.file	"i2c.c"
   2              		.text
   3              	.Ltext0:
   4              		.cfi_sections	.debug_frame
   5              		.section	.text.i2cInit,"ax",%progbits
   6              		.align	2
   7              		.global	i2cInit
   8              		.type	i2cInit, %function
   9              	i2cInit:
  10              	.LFB7:
  11              		.file 1 "../../../os/hal/src/i2c.c"
  12              		.loc 1 64 0
  13              		.cfi_startproc
  14              		@ args = 0, pretend = 0, frame = 0
  15              		@ frame_needed = 0, uses_anonymous_args = 0
  16              		@ link register save eliminated.
  17              		.loc 1 65 0
  18 0000 FEFFFFEA 		b	i2c_lld_init
  19              	.LVL0:
  20              		.cfi_endproc
  21              	.LFE7:
  22              		.size	i2cInit, .-i2cInit
  23              		.section	.text.i2cObjectInit,"ax",%progbits
  24              		.align	2
  25              		.global	i2cObjectInit
  26              		.type	i2cObjectInit, %function
  27              	i2cObjectInit:
  28              	.LFB8:
  29              		.loc 1 75 0
  30              		.cfi_startproc
  31              		@ args = 0, pretend = 0, frame = 0
  32              		@ frame_needed = 0, uses_anonymous_args = 0
  33              		@ link register save eliminated.
  34              	.LVL1:
  35              		.loc 1 78 0
  36 0000 0120A0E3 		mov	r2, #1
  37 0004 0030A0E3 		mov	r3, #0
  38 0008 0C0080E8 		stmia	r0, {r2, r3}
  39              		.loc 1 82 0
  40 000c 100080E2 		add	r0, r0, #16
  41              	.LVL2:
  42 0010 FEFFFFEA 		b	chMtxInit
  43              	.LVL3:
  44              		.cfi_endproc
  45              	.LFE8:
  46              		.size	i2cObjectInit, .-i2cObjectInit
  47              		.section	.text.i2cStart,"ax",%progbits
  48              		.align	2
  49              		.global	i2cStart
  50              		.type	i2cStart, %function
  51              	i2cStart:
  52              	.LFB9:
  53              		.loc 1 101 0
  54              		.cfi_startproc
  55              		@ args = 0, pretend = 0, frame = 0
  56              		@ frame_needed = 0, uses_anonymous_args = 0
  57              	.LVL4:
ARM GAS  /tmp/ccke2mTz.s 			page 2


  58 0000 10402DE9 		stmfd	sp!, {r4, lr}
  59              		.cfi_def_cfa_offset 8
  60              		.cfi_offset 4, -8
  61              		.cfi_offset 14, -4
  62              		.loc 1 101 0
  63 0004 0040A0E1 		mov	r4, r0
  64              		.loc 1 109 0
  65              	@ 109 "../../../os/hal/src/i2c.c" 1
  66 0008 9FF021E3 		msr     CPSR_c, #0x9F
  67              	@ 0 "" 2
  68              		.loc 1 110 0
  69 000c 041080E5 		str	r1, [r0, #4]
  70              		.loc 1 111 0
  71 0010 FEFFFFEB 		bl	i2c_lld_start
  72              	.LVL5:
  73              		.loc 1 112 0
  74 0014 0230A0E3 		mov	r3, #2
  75 0018 003084E5 		str	r3, [r4]
  76              		.loc 1 113 0
  77              	@ 113 "../../../os/hal/src/i2c.c" 1
  78 001c 1FF021E3 		msr     CPSR_c, #0x1F
  79              	@ 0 "" 2
  80 0020 1080BDE8 		ldmfd	sp!, {r4, pc}
  81              		.cfi_endproc
  82              	.LFE9:
  83              		.size	i2cStart, .-i2cStart
  84              		.section	.text.i2cStop,"ax",%progbits
  85              		.align	2
  86              		.global	i2cStop
  87              		.type	i2cStop, %function
  88              	i2cStop:
  89              	.LFB10:
  90              		.loc 1 123 0
  91              		.cfi_startproc
  92              		@ args = 0, pretend = 0, frame = 0
  93              		@ frame_needed = 0, uses_anonymous_args = 0
  94              	.LVL6:
  95 0000 10402DE9 		stmfd	sp!, {r4, lr}
  96              		.cfi_def_cfa_offset 8
  97              		.cfi_offset 4, -8
  98              		.cfi_offset 14, -4
  99              		.loc 1 123 0
 100 0004 0040A0E1 		mov	r4, r0
 101              		.loc 1 131 0
 102              	@ 131 "../../../os/hal/src/i2c.c" 1
 103 0008 9FF021E3 		msr     CPSR_c, #0x9F
 104              	@ 0 "" 2
 105              		.loc 1 132 0
 106 000c FEFFFFEB 		bl	i2c_lld_stop
 107              	.LVL7:
 108              		.loc 1 133 0
 109 0010 0130A0E3 		mov	r3, #1
 110 0014 003084E5 		str	r3, [r4]
 111              		.loc 1 134 0
 112              	@ 134 "../../../os/hal/src/i2c.c" 1
 113 0018 1FF021E3 		msr     CPSR_c, #0x1F
 114              	@ 0 "" 2
ARM GAS  /tmp/ccke2mTz.s 			page 3


 115 001c 1080BDE8 		ldmfd	sp!, {r4, pc}
 116              		.cfi_endproc
 117              	.LFE10:
 118              		.size	i2cStop, .-i2cStop
 119              		.section	.text.i2cGetErrors,"ax",%progbits
 120              		.align	2
 121              		.global	i2cGetErrors
 122              		.type	i2cGetErrors, %function
 123              	i2cGetErrors:
 124              	.LFB11:
 125              		.loc 1 145 0
 126              		.cfi_startproc
 127              		@ args = 0, pretend = 0, frame = 0
 128              		@ frame_needed = 0, uses_anonymous_args = 0
 129              		@ link register save eliminated.
 130              	.LVL8:
 131              		.loc 1 150 0
 132 0000 080090E5 		ldr	r0, [r0, #8]
 133              	.LVL9:
 134 0004 1EFF2FE1 		bx	lr
 135              		.cfi_endproc
 136              	.LFE11:
 137              		.size	i2cGetErrors, .-i2cGetErrors
 138              		.section	.text.i2cMasterTransmitTimeout,"ax",%progbits
 139              		.align	2
 140              		.global	i2cMasterTransmitTimeout
 141              		.type	i2cMasterTransmitTimeout, %function
 142              	i2cMasterTransmitTimeout:
 143              	.LFB12:
 144              		.loc 1 184 0
 145              		.cfi_startproc
 146              		@ args = 12, pretend = 0, frame = 0
 147              		@ frame_needed = 0, uses_anonymous_args = 0
 148              	.LVL10:
 149 0000 F0402DE9 		stmfd	sp!, {r4, r5, r6, r7, lr}
 150              		.cfi_def_cfa_offset 20
 151              		.cfi_offset 4, -20
 152              		.cfi_offset 5, -16
 153              		.cfi_offset 6, -12
 154              		.cfi_offset 7, -8
 155              		.cfi_offset 14, -4
 156 0004 0CD04DE2 		sub	sp, sp, #12
 157              		.cfi_def_cfa_offset 32
 158              		.loc 1 184 0
 159 0008 7110FFE6 		uxth	r1, r1
 160 000c 0040A0E1 		mov	r4, r0
 161 0010 20709DE5 		ldr	r7, [sp, #32]
 162 0014 28609DE5 		ldr	r6, [sp, #40]
 163              		.loc 1 196 0
 164              	@ 196 "../../../os/hal/src/i2c.c" 1
 165 0018 9FF021E3 		msr     CPSR_c, #0x9F
 166              	@ 0 "" 2
 167              		.loc 1 198 0
 168 001c 03E0A0E3 		mov	lr, #3
 169              		.loc 1 197 0
 170 0020 0050A0E3 		mov	r5, #0
 171 0024 24C0DDE5 		ldrb	ip, [sp, #36]	@ zero_extendqisi2
ARM GAS  /tmp/ccke2mTz.s 			page 4


 172              		.loc 1 199 0
 173 0028 00708DE5 		str	r7, [sp]
 174 002c 08608DE5 		str	r6, [sp, #8]
 175              		.loc 1 197 0
 176 0030 085080E5 		str	r5, [r0, #8]
 177              		.loc 1 198 0
 178 0034 00E080E5 		str	lr, [r0]
 179              		.loc 1 199 0
 180 0038 04C08DE5 		str	ip, [sp, #4]
 181 003c FEFFFFEB 		bl	i2c_lld_master_transmit_timeout
 182              	.LVL11:
 183              		.loc 1 201 0
 184 0040 010070E3 		cmn	r0, #1
 185              		.loc 1 202 0
 186 0044 0530A003 		moveq	r3, #5
 187              		.loc 1 204 0
 188 0048 0230A013 		movne	r3, #2
 189 004c 003084E5 		str	r3, [r4]
 190              		.loc 1 205 0
 191              	@ 205 "../../../os/hal/src/i2c.c" 1
 192 0050 1FF021E3 		msr     CPSR_c, #0x1F
 193              	@ 0 "" 2
 194              		.loc 1 207 0
 195 0054 0CD08DE2 		add	sp, sp, #12
 196              		.cfi_def_cfa_offset 20
 197              		@ sp needed
 198 0058 F080BDE8 		ldmfd	sp!, {r4, r5, r6, r7, pc}
 199              		.cfi_endproc
 200              	.LFE12:
 201              		.size	i2cMasterTransmitTimeout, .-i2cMasterTransmitTimeout
 202              		.section	.text.i2cMasterReceiveTimeout,"ax",%progbits
 203              		.align	2
 204              		.global	i2cMasterReceiveTimeout
 205              		.type	i2cMasterReceiveTimeout, %function
 206              	i2cMasterReceiveTimeout:
 207              	.LFB13:
 208              		.loc 1 233 0
 209              		.cfi_startproc
 210              		@ args = 4, pretend = 0, frame = 0
 211              		@ frame_needed = 0, uses_anonymous_args = 0
 212              	.LVL12:
 213 0000 30402DE9 		stmfd	sp!, {r4, r5, lr}
 214              		.cfi_def_cfa_offset 12
 215              		.cfi_offset 4, -12
 216              		.cfi_offset 5, -8
 217              		.cfi_offset 14, -4
 218 0004 04D04DE2 		sub	sp, sp, #4
 219              		.cfi_def_cfa_offset 16
 220              		.loc 1 233 0
 221 0008 7110FFE6 		uxth	r1, r1
 222 000c 0040A0E1 		mov	r4, r0
 223 0010 10509DE5 		ldr	r5, [sp, #16]
 224              		.loc 1 245 0
 225              	@ 245 "../../../os/hal/src/i2c.c" 1
 226 0014 9FF021E3 		msr     CPSR_c, #0x9F
 227              	@ 0 "" 2
 228              		.loc 1 246 0
ARM GAS  /tmp/ccke2mTz.s 			page 5


 229 0018 00E0A0E3 		mov	lr, #0
 230              		.loc 1 247 0
 231 001c 04C0A0E3 		mov	ip, #4
 232              		.loc 1 248 0
 233 0020 00508DE5 		str	r5, [sp]
 234              		.loc 1 246 0
 235 0024 08E080E5 		str	lr, [r0, #8]
 236              		.loc 1 247 0
 237 0028 00C080E5 		str	ip, [r0]
 238              		.loc 1 248 0
 239 002c FEFFFFEB 		bl	i2c_lld_master_receive_timeout
 240              	.LVL13:
 241              		.loc 1 249 0
 242 0030 010070E3 		cmn	r0, #1
 243              		.loc 1 250 0
 244 0034 0530A003 		moveq	r3, #5
 245              		.loc 1 252 0
 246 0038 0230A013 		movne	r3, #2
 247 003c 003084E5 		str	r3, [r4]
 248              		.loc 1 253 0
 249              	@ 253 "../../../os/hal/src/i2c.c" 1
 250 0040 1FF021E3 		msr     CPSR_c, #0x1F
 251              	@ 0 "" 2
 252              		.loc 1 255 0
 253 0044 04D08DE2 		add	sp, sp, #4
 254              		.cfi_def_cfa_offset 12
 255              		@ sp needed
 256 0048 3080BDE8 		ldmfd	sp!, {r4, r5, pc}
 257              		.cfi_endproc
 258              	.LFE13:
 259              		.size	i2cMasterReceiveTimeout, .-i2cMasterReceiveTimeout
 260              		.section	.text.i2cAcquireBus,"ax",%progbits
 261              		.align	2
 262              		.global	i2cAcquireBus
 263              		.type	i2cAcquireBus, %function
 264              	i2cAcquireBus:
 265              	.LFB14:
 266              		.loc 1 269 0
 267              		.cfi_startproc
 268              		@ args = 0, pretend = 0, frame = 0
 269              		@ frame_needed = 0, uses_anonymous_args = 0
 270              		@ link register save eliminated.
 271              	.LVL14:
 272              		.loc 1 274 0
 273 0000 100080E2 		add	r0, r0, #16
 274              	.LVL15:
 275 0004 FEFFFFEA 		b	chMtxLock
 276              	.LVL16:
 277              		.cfi_endproc
 278              	.LFE14:
 279              		.size	i2cAcquireBus, .-i2cAcquireBus
 280              		.section	.text.i2cReleaseBus,"ax",%progbits
 281              		.align	2
 282              		.global	i2cReleaseBus
 283              		.type	i2cReleaseBus, %function
 284              	i2cReleaseBus:
 285              	.LFB15:
ARM GAS  /tmp/ccke2mTz.s 			page 6


 286              		.loc 1 289 0
 287              		.cfi_startproc
 288              		@ args = 0, pretend = 0, frame = 0
 289              		@ frame_needed = 0, uses_anonymous_args = 0
 290              		@ link register save eliminated.
 291              	.LVL17:
 292              		.loc 1 294 0
 293 0000 FEFFFFEA 		b	chMtxUnlock
 294              	.LVL18:
 295              		.cfi_endproc
 296              	.LFE15:
 297              		.size	i2cReleaseBus, .-i2cReleaseBus
 298              		.text
 299              	.Letext0:
 300              		.file 2 "/usr/lib/gcc/arm-none-eabi/4.9.3/include/stddef.h"
 301              		.file 3 "/usr/include/newlib/machine/_default_types.h"
 302              		.file 4 "/usr/include/newlib/sys/_stdint.h"
 303              		.file 5 "../../../os/ports/GCC/ARM/chtypes.h"
 304              		.file 6 "../../../os/kernel/include/chlists.h"
 305              		.file 7 "../../../os/kernel/include/chthreads.h"
 306              		.file 8 "../../../os/ports/GCC/ARM/chcore.h"
 307              		.file 9 "../../../os/kernel/include/chmtx.h"
 308              		.file 10 "../../../os/hal/platforms/BCM2835/bcm2835.h"
 309              		.file 11 "../../../os/hal/include/i2c.h"
 310              		.file 12 "../../../os/hal/platforms/BCM2835/i2c_lld.h"
 311              		.section	.debug_info,"",%progbits
 312              	.Ldebug_info0:
 313 0000 73080000 		.4byte	0x873
 314 0004 0400     		.2byte	0x4
 315 0006 00000000 		.4byte	.Ldebug_abbrev0
 316 000a 04       		.byte	0x4
 317 000b 01       		.uleb128 0x1
 318 000c 4A020000 		.4byte	.LASF102
 319 0010 01       		.byte	0x1
 320 0011 EA030000 		.4byte	.LASF103
 321 0015 00000000 		.4byte	.LASF104
 322 0019 00000000 		.4byte	.Ldebug_ranges0+0
 323 001d 00000000 		.4byte	0
 324 0021 00000000 		.4byte	.Ldebug_line0
 325 0025 02       		.uleb128 0x2
 326 0026 04       		.byte	0x4
 327 0027 05       		.byte	0x5
 328 0028 6D010000 		.4byte	.LASF0
 329 002c 03       		.uleb128 0x3
 330 002d 40000000 		.4byte	.LASF3
 331 0031 02       		.byte	0x2
 332 0032 D4       		.byte	0xd4
 333 0033 37000000 		.4byte	0x37
 334 0037 02       		.uleb128 0x2
 335 0038 04       		.byte	0x4
 336 0039 07       		.byte	0x7
 337 003a E7010000 		.4byte	.LASF1
 338 003e 02       		.uleb128 0x2
 339 003f 01       		.byte	0x1
 340 0040 06       		.byte	0x6
 341 0041 F5000000 		.4byte	.LASF2
 342 0045 03       		.uleb128 0x3
ARM GAS  /tmp/ccke2mTz.s 			page 7


 343 0046 4E000000 		.4byte	.LASF4
 344 004a 03       		.byte	0x3
 345 004b 1D       		.byte	0x1d
 346 004c 50000000 		.4byte	0x50
 347 0050 02       		.uleb128 0x2
 348 0051 01       		.byte	0x1
 349 0052 08       		.byte	0x8
 350 0053 C0030000 		.4byte	.LASF5
 351 0057 02       		.uleb128 0x2
 352 0058 02       		.byte	0x2
 353 0059 05       		.byte	0x5
 354 005a D8030000 		.4byte	.LASF6
 355 005e 03       		.uleb128 0x3
 356 005f 62040000 		.4byte	.LASF7
 357 0063 03       		.byte	0x3
 358 0064 2B       		.byte	0x2b
 359 0065 69000000 		.4byte	0x69
 360 0069 02       		.uleb128 0x2
 361 006a 02       		.byte	0x2
 362 006b 07       		.byte	0x7
 363 006c 01020000 		.4byte	.LASF8
 364 0070 03       		.uleb128 0x3
 365 0071 89040000 		.4byte	.LASF9
 366 0075 03       		.byte	0x3
 367 0076 3F       		.byte	0x3f
 368 0077 25000000 		.4byte	0x25
 369 007b 03       		.uleb128 0x3
 370 007c AC010000 		.4byte	.LASF10
 371 0080 03       		.byte	0x3
 372 0081 41       		.byte	0x41
 373 0082 37000000 		.4byte	0x37
 374 0086 02       		.uleb128 0x2
 375 0087 08       		.byte	0x8
 376 0088 05       		.byte	0x5
 377 0089 E7000000 		.4byte	.LASF11
 378 008d 02       		.uleb128 0x2
 379 008e 08       		.byte	0x8
 380 008f 07       		.byte	0x7
 381 0090 6A000000 		.4byte	.LASF12
 382 0094 03       		.uleb128 0x3
 383 0095 D0040000 		.4byte	.LASF13
 384 0099 04       		.byte	0x4
 385 009a 14       		.byte	0x14
 386 009b 45000000 		.4byte	0x45
 387 009f 03       		.uleb128 0x3
 388 00a0 90010000 		.4byte	.LASF14
 389 00a4 04       		.byte	0x4
 390 00a5 1A       		.byte	0x1a
 391 00a6 5E000000 		.4byte	0x5e
 392 00aa 03       		.uleb128 0x3
 393 00ab B8030000 		.4byte	.LASF15
 394 00af 04       		.byte	0x4
 395 00b0 1F       		.byte	0x1f
 396 00b1 70000000 		.4byte	0x70
 397 00b5 03       		.uleb128 0x3
 398 00b6 44040000 		.4byte	.LASF16
 399 00ba 04       		.byte	0x4
ARM GAS  /tmp/ccke2mTz.s 			page 8


 400 00bb 20       		.byte	0x20
 401 00bc 7B000000 		.4byte	0x7b
 402 00c0 04       		.uleb128 0x4
 403 00c1 04       		.byte	0x4
 404 00c2 05       		.byte	0x5
 405 00c3 696E7400 		.ascii	"int\000"
 406 00c7 02       		.uleb128 0x2
 407 00c8 04       		.byte	0x4
 408 00c9 07       		.byte	0x7
 409 00ca CD010000 		.4byte	.LASF17
 410 00ce 03       		.uleb128 0x3
 411 00cf 24020000 		.4byte	.LASF18
 412 00d3 05       		.byte	0x5
 413 00d4 2A       		.byte	0x2a
 414 00d5 94000000 		.4byte	0x94
 415 00d9 03       		.uleb128 0x3
 416 00da 76010000 		.4byte	.LASF19
 417 00de 05       		.byte	0x5
 418 00df 2B       		.byte	0x2b
 419 00e0 94000000 		.4byte	0x94
 420 00e4 03       		.uleb128 0x3
 421 00e5 48010000 		.4byte	.LASF20
 422 00e9 05       		.byte	0x5
 423 00ea 2D       		.byte	0x2d
 424 00eb 94000000 		.4byte	0x94
 425 00ef 03       		.uleb128 0x3
 426 00f0 83030000 		.4byte	.LASF21
 427 00f4 05       		.byte	0x5
 428 00f5 2E       		.byte	0x2e
 429 00f6 B5000000 		.4byte	0xb5
 430 00fa 03       		.uleb128 0x3
 431 00fb 1E020000 		.4byte	.LASF22
 432 00ff 05       		.byte	0x5
 433 0100 2F       		.byte	0x2f
 434 0101 AA000000 		.4byte	0xaa
 435 0105 03       		.uleb128 0x3
 436 0106 38020000 		.4byte	.LASF23
 437 010a 05       		.byte	0x5
 438 010b 31       		.byte	0x31
 439 010c B5000000 		.4byte	0xb5
 440 0110 03       		.uleb128 0x3
 441 0111 74040000 		.4byte	.LASF24
 442 0115 05       		.byte	0x5
 443 0116 33       		.byte	0x33
 444 0117 B5000000 		.4byte	0xb5
 445 011b 03       		.uleb128 0x3
 446 011c 27040000 		.4byte	.LASF25
 447 0120 06       		.byte	0x6
 448 0121 23       		.byte	0x23
 449 0122 26010000 		.4byte	0x126
 450 0126 05       		.uleb128 0x5
 451 0127 27040000 		.4byte	.LASF25
 452 012b 28       		.byte	0x28
 453 012c 07       		.byte	0x7
 454 012d 57       		.byte	0x57
 455 012e C3010000 		.4byte	0x1c3
 456 0132 06       		.uleb128 0x6
ARM GAS  /tmp/ccke2mTz.s 			page 9


 457 0133 18040000 		.4byte	.LASF26
 458 0137 07       		.byte	0x7
 459 0138 58       		.byte	0x58
 460 0139 E4010000 		.4byte	0x1e4
 461 013d 00       		.byte	0
 462 013e 06       		.uleb128 0x6
 463 013f 6E030000 		.4byte	.LASF27
 464 0143 07       		.byte	0x7
 465 0144 5A       		.byte	0x5a
 466 0145 E4010000 		.4byte	0x1e4
 467 0149 04       		.byte	0x4
 468 014a 06       		.uleb128 0x6
 469 014b C0000000 		.4byte	.LASF28
 470 014f 07       		.byte	0x7
 471 0150 5C       		.byte	0x5c
 472 0151 EF000000 		.4byte	0xef
 473 0155 08       		.byte	0x8
 474 0156 06       		.uleb128 0x6
 475 0157 15050000 		.4byte	.LASF29
 476 015b 07       		.byte	0x7
 477 015c 5D       		.byte	0x5d
 478 015d 94020000 		.4byte	0x294
 479 0161 0C       		.byte	0xc
 480 0162 06       		.uleb128 0x6
 481 0163 E2030000 		.4byte	.LASF30
 482 0167 07       		.byte	0x7
 483 0168 72       		.byte	0x72
 484 0169 D9000000 		.4byte	0xd9
 485 016d 10       		.byte	0x10
 486 016e 06       		.uleb128 0x6
 487 016f 1F040000 		.4byte	.LASF31
 488 0173 07       		.byte	0x7
 489 0174 76       		.byte	0x76
 490 0175 CE000000 		.4byte	0xce
 491 0179 11       		.byte	0x11
 492 017a 06       		.uleb128 0x6
 493 017b 53030000 		.4byte	.LASF32
 494 017f 07       		.byte	0x7
 495 0180 81       		.byte	0x81
 496 0181 E4000000 		.4byte	0xe4
 497 0185 12       		.byte	0x12
 498 0186 07       		.uleb128 0x7
 499 0187 705F7500 		.ascii	"p_u\000"
 500 018b 07       		.byte	0x7
 501 018c AD       		.byte	0xad
 502 018d F5020000 		.4byte	0x2f5
 503 0191 14       		.byte	0x14
 504 0192 06       		.uleb128 0x6
 505 0193 1B050000 		.4byte	.LASF33
 506 0197 07       		.byte	0x7
 507 0198 B2       		.byte	0xb2
 508 0199 0A020000 		.4byte	0x20a
 509 019d 18       		.byte	0x18
 510 019e 06       		.uleb128 0x6
 511 019f 39040000 		.4byte	.LASF34
 512 01a3 07       		.byte	0x7
 513 01a4 C2       		.byte	0xc2
ARM GAS  /tmp/ccke2mTz.s 			page 10


 514 01a5 05010000 		.4byte	0x105
 515 01a9 1C       		.byte	0x1c
 516 01aa 06       		.uleb128 0x6
 517 01ab CE030000 		.4byte	.LASF35
 518 01af 07       		.byte	0x7
 519 01b0 C9       		.byte	0xc9
 520 01b1 2A030000 		.4byte	0x32a
 521 01b5 20       		.byte	0x20
 522 01b6 06       		.uleb128 0x6
 523 01b7 7E040000 		.4byte	.LASF36
 524 01bb 07       		.byte	0x7
 525 01bc CD       		.byte	0xcd
 526 01bd EF000000 		.4byte	0xef
 527 01c1 24       		.byte	0x24
 528 01c2 00       		.byte	0
 529 01c3 08       		.uleb128 0x8
 530 01c4 08       		.byte	0x8
 531 01c5 06       		.byte	0x6
 532 01c6 5A       		.byte	0x5a
 533 01c7 E4010000 		.4byte	0x1e4
 534 01cb 06       		.uleb128 0x6
 535 01cc 18040000 		.4byte	.LASF26
 536 01d0 06       		.byte	0x6
 537 01d1 5B       		.byte	0x5b
 538 01d2 E4010000 		.4byte	0x1e4
 539 01d6 00       		.byte	0
 540 01d7 06       		.uleb128 0x6
 541 01d8 6E030000 		.4byte	.LASF27
 542 01dc 06       		.byte	0x6
 543 01dd 5D       		.byte	0x5d
 544 01de E4010000 		.4byte	0x1e4
 545 01e2 04       		.byte	0x4
 546 01e3 00       		.byte	0
 547 01e4 09       		.uleb128 0x9
 548 01e5 04       		.byte	0x4
 549 01e6 1B010000 		.4byte	0x11b
 550 01ea 03       		.uleb128 0x3
 551 01eb 36030000 		.4byte	.LASF37
 552 01ef 06       		.byte	0x6
 553 01f0 5F       		.byte	0x5f
 554 01f1 C3010000 		.4byte	0x1c3
 555 01f5 08       		.uleb128 0x8
 556 01f6 04       		.byte	0x4
 557 01f7 06       		.byte	0x6
 558 01f8 64       		.byte	0x64
 559 01f9 0A020000 		.4byte	0x20a
 560 01fd 06       		.uleb128 0x6
 561 01fe 18040000 		.4byte	.LASF26
 562 0202 06       		.byte	0x6
 563 0203 66       		.byte	0x66
 564 0204 E4010000 		.4byte	0x1e4
 565 0208 00       		.byte	0
 566 0209 00       		.byte	0
 567 020a 03       		.uleb128 0x3
 568 020b 2C020000 		.4byte	.LASF38
 569 020f 06       		.byte	0x6
 570 0210 69       		.byte	0x69
ARM GAS  /tmp/ccke2mTz.s 			page 11


 571 0211 F5010000 		.4byte	0x1f5
 572 0215 03       		.uleb128 0x3
 573 0216 B7010000 		.4byte	.LASF39
 574 021a 08       		.byte	0x8
 575 021b A2       		.byte	0xa2
 576 021c 20020000 		.4byte	0x220
 577 0220 0A       		.uleb128 0xa
 578 0221 04       		.byte	0x4
 579 0222 05       		.uleb128 0x5
 580 0223 A5040000 		.4byte	.LASF40
 581 0227 24       		.byte	0x24
 582 0228 08       		.byte	0x8
 583 0229 B9       		.byte	0xb9
 584 022a 94020000 		.4byte	0x294
 585 022e 07       		.uleb128 0x7
 586 022f 723400   		.ascii	"r4\000"
 587 0232 08       		.byte	0x8
 588 0233 BA       		.byte	0xba
 589 0234 15020000 		.4byte	0x215
 590 0238 00       		.byte	0
 591 0239 07       		.uleb128 0x7
 592 023a 723500   		.ascii	"r5\000"
 593 023d 08       		.byte	0x8
 594 023e BB       		.byte	0xbb
 595 023f 15020000 		.4byte	0x215
 596 0243 04       		.byte	0x4
 597 0244 07       		.uleb128 0x7
 598 0245 723600   		.ascii	"r6\000"
 599 0248 08       		.byte	0x8
 600 0249 BC       		.byte	0xbc
 601 024a 15020000 		.4byte	0x215
 602 024e 08       		.byte	0x8
 603 024f 07       		.uleb128 0x7
 604 0250 723700   		.ascii	"r7\000"
 605 0253 08       		.byte	0x8
 606 0254 BD       		.byte	0xbd
 607 0255 15020000 		.4byte	0x215
 608 0259 0C       		.byte	0xc
 609 025a 07       		.uleb128 0x7
 610 025b 723800   		.ascii	"r8\000"
 611 025e 08       		.byte	0x8
 612 025f BE       		.byte	0xbe
 613 0260 15020000 		.4byte	0x215
 614 0264 10       		.byte	0x10
 615 0265 07       		.uleb128 0x7
 616 0266 723900   		.ascii	"r9\000"
 617 0269 08       		.byte	0x8
 618 026a BF       		.byte	0xbf
 619 026b 15020000 		.4byte	0x215
 620 026f 14       		.byte	0x14
 621 0270 07       		.uleb128 0x7
 622 0271 72313000 		.ascii	"r10\000"
 623 0275 08       		.byte	0x8
 624 0276 C0       		.byte	0xc0
 625 0277 15020000 		.4byte	0x215
 626 027b 18       		.byte	0x18
 627 027c 07       		.uleb128 0x7
ARM GAS  /tmp/ccke2mTz.s 			page 12


 628 027d 72313100 		.ascii	"r11\000"
 629 0281 08       		.byte	0x8
 630 0282 C1       		.byte	0xc1
 631 0283 15020000 		.4byte	0x215
 632 0287 1C       		.byte	0x1c
 633 0288 07       		.uleb128 0x7
 634 0289 6C7200   		.ascii	"lr\000"
 635 028c 08       		.byte	0x8
 636 028d C2       		.byte	0xc2
 637 028e 15020000 		.4byte	0x215
 638 0292 20       		.byte	0x20
 639 0293 00       		.byte	0
 640 0294 05       		.uleb128 0x5
 641 0295 9D040000 		.4byte	.LASF41
 642 0299 04       		.byte	0x4
 643 029a 08       		.byte	0x8
 644 029b CA       		.byte	0xca
 645 029c AD020000 		.4byte	0x2ad
 646 02a0 07       		.uleb128 0x7
 647 02a1 72313300 		.ascii	"r13\000"
 648 02a5 08       		.byte	0x8
 649 02a6 CB       		.byte	0xcb
 650 02a7 AD020000 		.4byte	0x2ad
 651 02ab 00       		.byte	0
 652 02ac 00       		.byte	0
 653 02ad 09       		.uleb128 0x9
 654 02ae 04       		.byte	0x4
 655 02af 22020000 		.4byte	0x222
 656 02b3 05       		.uleb128 0x5
 657 02b4 44020000 		.4byte	.LASF42
 658 02b8 10       		.byte	0x10
 659 02b9 09       		.byte	0x9
 660 02ba 25       		.byte	0x25
 661 02bb E4020000 		.4byte	0x2e4
 662 02bf 06       		.uleb128 0x6
 663 02c0 01010000 		.4byte	.LASF43
 664 02c4 09       		.byte	0x9
 665 02c5 26       		.byte	0x26
 666 02c6 EA010000 		.4byte	0x1ea
 667 02ca 00       		.byte	0
 668 02cb 06       		.uleb128 0x6
 669 02cc 0D050000 		.4byte	.LASF44
 670 02d0 09       		.byte	0x9
 671 02d1 28       		.byte	0x28
 672 02d2 E4010000 		.4byte	0x1e4
 673 02d6 08       		.byte	0x8
 674 02d7 06       		.uleb128 0x6
 675 02d8 6D040000 		.4byte	.LASF45
 676 02dc 09       		.byte	0x9
 677 02dd 2A       		.byte	0x2a
 678 02de E4020000 		.4byte	0x2e4
 679 02e2 0C       		.byte	0xc
 680 02e3 00       		.byte	0
 681 02e4 09       		.uleb128 0x9
 682 02e5 04       		.byte	0x4
 683 02e6 B3020000 		.4byte	0x2b3
 684 02ea 03       		.uleb128 0x3
ARM GAS  /tmp/ccke2mTz.s 			page 13


 685 02eb 44020000 		.4byte	.LASF42
 686 02ef 09       		.byte	0x9
 687 02f0 2C       		.byte	0x2c
 688 02f1 B3020000 		.4byte	0x2b3
 689 02f5 0B       		.uleb128 0xb
 690 02f6 04       		.byte	0x4
 691 02f7 07       		.byte	0x7
 692 02f8 8F       		.byte	0x8f
 693 02f9 2A030000 		.4byte	0x32a
 694 02fd 0C       		.uleb128 0xc
 695 02fe 47000000 		.4byte	.LASF46
 696 0302 07       		.byte	0x7
 697 0303 96       		.byte	0x96
 698 0304 FA000000 		.4byte	0xfa
 699 0308 0C       		.uleb128 0xc
 700 0309 9B000000 		.4byte	.LASF47
 701 030d 07       		.byte	0x7
 702 030e 9D       		.byte	0x9d
 703 030f FA000000 		.4byte	0xfa
 704 0313 0C       		.uleb128 0xc
 705 0314 F0040000 		.4byte	.LASF48
 706 0318 07       		.byte	0x7
 707 0319 A4       		.byte	0xa4
 708 031a 20020000 		.4byte	0x220
 709 031e 0C       		.uleb128 0xc
 710 031f 11040000 		.4byte	.LASF49
 711 0323 07       		.byte	0x7
 712 0324 AB       		.byte	0xab
 713 0325 05010000 		.4byte	0x105
 714 0329 00       		.byte	0
 715 032a 09       		.uleb128 0x9
 716 032b 04       		.byte	0x4
 717 032c EA020000 		.4byte	0x2ea
 718 0330 09       		.uleb128 0x9
 719 0331 04       		.byte	0x4
 720 0332 94000000 		.4byte	0x94
 721 0336 09       		.uleb128 0x9
 722 0337 04       		.byte	0x4
 723 0338 3C030000 		.4byte	0x33c
 724 033c 0D       		.uleb128 0xd
 725 033d 94000000 		.4byte	0x94
 726 0341 05       		.uleb128 0x5
 727 0342 58000000 		.4byte	.LASF50
 728 0346 20       		.byte	0x20
 729 0347 0A       		.byte	0xa
 730 0348 FD       		.byte	0xfd
 731 0349 B4030000 		.4byte	0x3b4
 732 034d 06       		.uleb128 0x6
 733 034e A4010000 		.4byte	.LASF51
 734 0352 0A       		.byte	0xa
 735 0353 FE       		.byte	0xfe
 736 0354 B4030000 		.4byte	0x3b4
 737 0358 00       		.byte	0
 738 0359 06       		.uleb128 0x6
 739 035a C9040000 		.4byte	.LASF52
 740 035e 0A       		.byte	0xa
 741 035f FF       		.byte	0xff
ARM GAS  /tmp/ccke2mTz.s 			page 14


 742 0360 B4030000 		.4byte	0x3b4
 743 0364 04       		.byte	0x4
 744 0365 0E       		.uleb128 0xe
 745 0366 99010000 		.4byte	.LASF53
 746 036a 0A       		.byte	0xa
 747 036b 0001     		.2byte	0x100
 748 036d B4030000 		.4byte	0x3b4
 749 0371 08       		.byte	0x8
 750 0372 0E       		.uleb128 0xe
 751 0373 C0010000 		.4byte	.LASF54
 752 0377 0A       		.byte	0xa
 753 0378 0101     		.2byte	0x101
 754 037a B4030000 		.4byte	0x3b4
 755 037e 0C       		.byte	0xc
 756 037f 0E       		.uleb128 0xe
 757 0380 B7000000 		.4byte	.LASF55
 758 0384 0A       		.byte	0xa
 759 0385 0201     		.2byte	0x102
 760 0387 B4030000 		.4byte	0x3b4
 761 038b 10       		.byte	0x10
 762 038c 0E       		.uleb128 0xe
 763 038d 04030000 		.4byte	.LASF56
 764 0391 0A       		.byte	0xa
 765 0392 0301     		.2byte	0x103
 766 0394 B4030000 		.4byte	0x3b4
 767 0398 14       		.byte	0x14
 768 0399 0E       		.uleb128 0xe
 769 039a 86010000 		.4byte	.LASF57
 770 039e 0A       		.byte	0xa
 771 039f 0401     		.2byte	0x104
 772 03a1 B4030000 		.4byte	0x3b4
 773 03a5 18       		.byte	0x18
 774 03a6 0E       		.uleb128 0xe
 775 03a7 25050000 		.4byte	.LASF58
 776 03ab 0A       		.byte	0xa
 777 03ac 0501     		.2byte	0x105
 778 03ae B4030000 		.4byte	0x3b4
 779 03b2 1C       		.byte	0x1c
 780 03b3 00       		.byte	0
 781 03b4 0F       		.uleb128 0xf
 782 03b5 C7000000 		.4byte	0xc7
 783 03b9 10       		.uleb128 0x10
 784 03ba 58000000 		.4byte	.LASF50
 785 03be 0A       		.byte	0xa
 786 03bf 0801     		.2byte	0x108
 787 03c1 41030000 		.4byte	0x341
 788 03c5 11       		.uleb128 0x11
 789 03c6 04       		.byte	0x4
 790 03c7 0B       		.byte	0xb
 791 03c8 54       		.byte	0x54
 792 03c9 F2030000 		.4byte	0x3f2
 793 03cd 12       		.uleb128 0x12
 794 03ce 52010000 		.4byte	.LASF59
 795 03d2 00       		.sleb128 0
 796 03d3 12       		.uleb128 0x12
 797 03d4 F2020000 		.4byte	.LASF60
 798 03d8 01       		.sleb128 1
ARM GAS  /tmp/ccke2mTz.s 			page 15


 799 03d9 12       		.uleb128 0x12
 800 03da 93040000 		.4byte	.LASF61
 801 03de 02       		.sleb128 2
 802 03df 12       		.uleb128 0x12
 803 03e0 8B030000 		.4byte	.LASF62
 804 03e4 03       		.sleb128 3
 805 03e5 12       		.uleb128 0x12
 806 03e6 4D040000 		.4byte	.LASF63
 807 03ea 04       		.sleb128 4
 808 03eb 12       		.uleb128 0x12
 809 03ec 2E040000 		.4byte	.LASF64
 810 03f0 05       		.sleb128 5
 811 03f1 00       		.byte	0
 812 03f2 03       		.uleb128 0x3
 813 03f3 63030000 		.4byte	.LASF65
 814 03f7 0B       		.byte	0xb
 815 03f8 5B       		.byte	0x5b
 816 03f9 C5030000 		.4byte	0x3c5
 817 03fd 03       		.uleb128 0x3
 818 03fe 14020000 		.4byte	.LASF66
 819 0402 0C       		.byte	0xc
 820 0403 38       		.byte	0x38
 821 0404 08040000 		.4byte	0x408
 822 0408 05       		.uleb128 0x5
 823 0409 14020000 		.4byte	.LASF66
 824 040d 40       		.byte	0x40
 825 040e 0C       		.byte	0xc
 826 040f 62       		.byte	0x62
 827 0410 B1040000 		.4byte	0x4b1
 828 0414 06       		.uleb128 0x6
 829 0415 67010000 		.4byte	.LASF67
 830 0419 0C       		.byte	0xc
 831 041a 64       		.byte	0x64
 832 041b F2030000 		.4byte	0x3f2
 833 041f 00       		.byte	0
 834 0420 06       		.uleb128 0x6
 835 0421 5B040000 		.4byte	.LASF68
 836 0425 0C       		.byte	0xc
 837 0426 66       		.byte	0x66
 838 0427 ED040000 		.4byte	0x4ed
 839 042b 04       		.byte	0x4
 840 042c 06       		.uleb128 0x6
 841 042d E0010000 		.4byte	.LASF69
 842 0431 0C       		.byte	0xc
 843 0432 68       		.byte	0x68
 844 0433 B1040000 		.4byte	0x4b1
 845 0437 08       		.byte	0x8
 846 0438 06       		.uleb128 0x6
 847 0439 E0000000 		.4byte	.LASF70
 848 043d 0C       		.byte	0xc
 849 043e 6A       		.byte	0x6a
 850 043f F8040000 		.4byte	0x4f8
 851 0443 0C       		.byte	0xc
 852 0444 06       		.uleb128 0x6
 853 0445 A4030000 		.4byte	.LASF71
 854 0449 0C       		.byte	0xc
 855 044a 6D       		.byte	0x6d
ARM GAS  /tmp/ccke2mTz.s 			page 16


 856 044b EA020000 		.4byte	0x2ea
 857 044f 10       		.byte	0x10
 858 0450 06       		.uleb128 0x6
 859 0451 7F010000 		.4byte	.LASF72
 860 0455 0C       		.byte	0xc
 861 0456 77       		.byte	0x77
 862 0457 E4010000 		.4byte	0x1e4
 863 045b 20       		.byte	0x20
 864 045c 06       		.uleb128 0x6
 865 045d 8D000000 		.4byte	.LASF73
 866 0461 0C       		.byte	0xc
 867 0462 7B       		.byte	0x7b
 868 0463 BC040000 		.4byte	0x4bc
 869 0467 24       		.byte	0x24
 870 0468 06       		.uleb128 0x6
 871 0469 DA010000 		.4byte	.LASF74
 872 046d 0C       		.byte	0xc
 873 046e 7F       		.byte	0x7f
 874 046f 36030000 		.4byte	0x336
 875 0473 28       		.byte	0x28
 876 0474 06       		.uleb128 0x6
 877 0475 43030000 		.4byte	.LASF75
 878 0479 0C       		.byte	0xc
 879 047a 83       		.byte	0x83
 880 047b 2C000000 		.4byte	0x2c
 881 047f 2C       		.byte	0x2c
 882 0480 06       		.uleb128 0x6
 883 0481 B6040000 		.4byte	.LASF76
 884 0485 0C       		.byte	0xc
 885 0486 87       		.byte	0x87
 886 0487 2C000000 		.4byte	0x2c
 887 048b 30       		.byte	0x30
 888 048c 06       		.uleb128 0x6
 889 048d 64000000 		.4byte	.LASF77
 890 0491 0C       		.byte	0xc
 891 0492 8B       		.byte	0x8b
 892 0493 30030000 		.4byte	0x330
 893 0497 34       		.byte	0x34
 894 0498 06       		.uleb128 0x6
 895 0499 24030000 		.4byte	.LASF78
 896 049d 0C       		.byte	0xc
 897 049e 8F       		.byte	0x8f
 898 049f 2C000000 		.4byte	0x2c
 899 04a3 38       		.byte	0x38
 900 04a4 06       		.uleb128 0x6
 901 04a5 5D030000 		.4byte	.LASF79
 902 04a9 0C       		.byte	0xc
 903 04aa 93       		.byte	0x93
 904 04ab 2C000000 		.4byte	0x2c
 905 04af 3C       		.byte	0x3c
 906 04b0 00       		.byte	0
 907 04b1 03       		.uleb128 0x3
 908 04b2 99030000 		.4byte	.LASF80
 909 04b6 0C       		.byte	0xc
 910 04b7 42       		.byte	0x42
 911 04b8 B5000000 		.4byte	0xb5
 912 04bc 03       		.uleb128 0x3
ARM GAS  /tmp/ccke2mTz.s 			page 17


 913 04bd 5D010000 		.4byte	.LASF81
 914 04c1 0C       		.byte	0xc
 915 04c2 48       		.byte	0x48
 916 04c3 9F000000 		.4byte	0x9f
 917 04c7 09       		.uleb128 0x9
 918 04c8 04       		.byte	0x4
 919 04c9 FD030000 		.4byte	0x3fd
 920 04cd 08       		.uleb128 0x8
 921 04ce 04       		.byte	0x4
 922 04cf 0C       		.byte	0xc
 923 04d0 57       		.byte	0x57
 924 04d1 E2040000 		.4byte	0x4e2
 925 04d5 06       		.uleb128 0x6
 926 04d6 11030000 		.4byte	.LASF82
 927 04da 0C       		.byte	0xc
 928 04db 59       		.byte	0x59
 929 04dc B5000000 		.4byte	0xb5
 930 04e0 00       		.byte	0
 931 04e1 00       		.byte	0
 932 04e2 03       		.uleb128 0x3
 933 04e3 2C030000 		.4byte	.LASF83
 934 04e7 0C       		.byte	0xc
 935 04e8 5B       		.byte	0x5b
 936 04e9 CD040000 		.4byte	0x4cd
 937 04ed 09       		.uleb128 0x9
 938 04ee 04       		.byte	0x4
 939 04ef F3040000 		.4byte	0x4f3
 940 04f3 0D       		.uleb128 0xd
 941 04f4 E2040000 		.4byte	0x4e2
 942 04f8 09       		.uleb128 0x9
 943 04f9 04       		.byte	0x4
 944 04fa B9030000 		.4byte	0x3b9
 945 04fe 02       		.uleb128 0x2
 946 04ff 04       		.byte	0x4
 947 0500 07       		.byte	0x7
 948 0501 FB020000 		.4byte	.LASF84
 949 0505 13       		.uleb128 0x13
 950 0506 F7040000 		.4byte	.LASF85
 951 050a 01       		.byte	0x1
 952 050b 40       		.byte	0x40
 953 050c 00000000 		.4byte	.LFB7
 954 0510 04000000 		.4byte	.LFE7-.LFB7
 955 0514 01       		.uleb128 0x1
 956 0515 9C       		.byte	0x9c
 957 0516 24050000 		.4byte	0x524
 958 051a 14       		.uleb128 0x14
 959 051b 04000000 		.4byte	.LVL0
 960 051f C4070000 		.4byte	0x7c4
 961 0523 00       		.byte	0
 962 0524 13       		.uleb128 0x13
 963 0525 FF040000 		.4byte	.LASF86
 964 0529 01       		.byte	0x1
 965 052a 4B       		.byte	0x4b
 966 052b 00000000 		.4byte	.LFB8
 967 052f 14000000 		.4byte	.LFE8-.LFB8
 968 0533 01       		.uleb128 0x1
 969 0534 9C       		.byte	0x9c
ARM GAS  /tmp/ccke2mTz.s 			page 18


 970 0535 5C050000 		.4byte	0x55c
 971 0539 15       		.uleb128 0x15
 972 053a B2000000 		.4byte	.LASF88
 973 053e 01       		.byte	0x1
 974 053f 4B       		.byte	0x4b
 975 0540 C7040000 		.4byte	0x4c7
 976 0544 00000000 		.4byte	.LLST0
 977 0548 16       		.uleb128 0x16
 978 0549 14000000 		.4byte	.LVL3
 979 054d CB070000 		.4byte	0x7cb
 980 0551 17       		.uleb128 0x17
 981 0552 01       		.uleb128 0x1
 982 0553 50       		.byte	0x50
 983 0554 05       		.uleb128 0x5
 984 0555 F3       		.byte	0xf3
 985 0556 01       		.uleb128 0x1
 986 0557 50       		.byte	0x50
 987 0558 23       		.byte	0x23
 988 0559 10       		.uleb128 0x10
 989 055a 00       		.byte	0
 990 055b 00       		.byte	0
 991 055c 13       		.uleb128 0x13
 992 055d 92000000 		.4byte	.LASF87
 993 0561 01       		.byte	0x1
 994 0562 65       		.byte	0x65
 995 0563 00000000 		.4byte	.LFB9
 996 0567 24000000 		.4byte	.LFE9-.LFB9
 997 056b 01       		.uleb128 0x1
 998 056c 9C       		.byte	0x9c
 999 056d A0050000 		.4byte	0x5a0
 1000 0571 15       		.uleb128 0x15
 1001 0572 B2000000 		.4byte	.LASF88
 1002 0576 01       		.byte	0x1
 1003 0577 65       		.byte	0x65
 1004 0578 C7040000 		.4byte	0x4c7
 1005 057c 2E000000 		.4byte	.LLST1
 1006 0580 15       		.uleb128 0x15
 1007 0581 5B040000 		.4byte	.LASF68
 1008 0585 01       		.byte	0x1
 1009 0586 65       		.byte	0x65
 1010 0587 ED040000 		.4byte	0x4ed
 1011 058b 4C000000 		.4byte	.LLST2
 1012 058f 18       		.uleb128 0x18
 1013 0590 14000000 		.4byte	.LVL5
 1014 0594 DC070000 		.4byte	0x7dc
 1015 0598 17       		.uleb128 0x17
 1016 0599 01       		.uleb128 0x1
 1017 059a 50       		.byte	0x50
 1018 059b 02       		.uleb128 0x2
 1019 059c 74       		.byte	0x74
 1020 059d 00       		.sleb128 0
 1021 059e 00       		.byte	0
 1022 059f 00       		.byte	0
 1023 05a0 13       		.uleb128 0x13
 1024 05a1 4B030000 		.4byte	.LASF89
 1025 05a5 01       		.byte	0x1
 1026 05a6 7B       		.byte	0x7b
ARM GAS  /tmp/ccke2mTz.s 			page 19


 1027 05a7 00000000 		.4byte	.LFB10
 1028 05ab 20000000 		.4byte	.LFE10-.LFB10
 1029 05af 01       		.uleb128 0x1
 1030 05b0 9C       		.byte	0x9c
 1031 05b1 D5050000 		.4byte	0x5d5
 1032 05b5 15       		.uleb128 0x15
 1033 05b6 B2000000 		.4byte	.LASF88
 1034 05ba 01       		.byte	0x1
 1035 05bb 7B       		.byte	0x7b
 1036 05bc C7040000 		.4byte	0x4c7
 1037 05c0 6D000000 		.4byte	.LLST3
 1038 05c4 18       		.uleb128 0x18
 1039 05c5 10000000 		.4byte	.LVL7
 1040 05c9 ED070000 		.4byte	0x7ed
 1041 05cd 17       		.uleb128 0x17
 1042 05ce 01       		.uleb128 0x1
 1043 05cf 50       		.byte	0x50
 1044 05d0 02       		.uleb128 0x2
 1045 05d1 74       		.byte	0x74
 1046 05d2 00       		.sleb128 0
 1047 05d3 00       		.byte	0
 1048 05d4 00       		.byte	0
 1049 05d5 19       		.uleb128 0x19
 1050 05d6 04040000 		.4byte	.LASF90
 1051 05da 01       		.byte	0x1
 1052 05db 91       		.byte	0x91
 1053 05dc B1040000 		.4byte	0x4b1
 1054 05e0 00000000 		.4byte	.LFB11
 1055 05e4 08000000 		.4byte	.LFE11-.LFB11
 1056 05e8 01       		.uleb128 0x1
 1057 05e9 9C       		.byte	0x9c
 1058 05ea FE050000 		.4byte	0x5fe
 1059 05ee 15       		.uleb128 0x15
 1060 05ef B2000000 		.4byte	.LASF88
 1061 05f3 01       		.byte	0x1
 1062 05f4 91       		.byte	0x91
 1063 05f5 C7040000 		.4byte	0x4c7
 1064 05f9 8B000000 		.4byte	.LLST4
 1065 05fd 00       		.byte	0
 1066 05fe 19       		.uleb128 0x19
 1067 05ff C7000000 		.4byte	.LASF91
 1068 0603 01       		.byte	0x1
 1069 0604 B2       		.byte	0xb2
 1070 0605 FA000000 		.4byte	0xfa
 1071 0609 00000000 		.4byte	.LFB12
 1072 060d 5C000000 		.4byte	.LFE12-.LFB12
 1073 0611 01       		.uleb128 0x1
 1074 0612 9C       		.byte	0x9c
 1075 0613 C0060000 		.4byte	0x6c0
 1076 0617 15       		.uleb128 0x15
 1077 0618 B2000000 		.4byte	.LASF88
 1078 061c 01       		.byte	0x1
 1079 061d B2       		.byte	0xb2
 1080 061e C7040000 		.4byte	0x4c7
 1081 0622 AC000000 		.4byte	.LLST5
 1082 0626 15       		.uleb128 0x15
 1083 0627 8D000000 		.4byte	.LASF73
ARM GAS  /tmp/ccke2mTz.s 			page 20


 1084 062b 01       		.byte	0x1
 1085 062c B3       		.byte	0xb3
 1086 062d BC040000 		.4byte	0x4bc
 1087 0631 CA000000 		.4byte	.LLST6
 1088 0635 15       		.uleb128 0x15
 1089 0636 DA010000 		.4byte	.LASF74
 1090 063a 01       		.byte	0x1
 1091 063b B4       		.byte	0xb4
 1092 063c 36030000 		.4byte	0x336
 1093 0640 EB000000 		.4byte	.LLST7
 1094 0644 15       		.uleb128 0x15
 1095 0645 43030000 		.4byte	.LASF75
 1096 0649 01       		.byte	0x1
 1097 064a B5       		.byte	0xb5
 1098 064b 2C000000 		.4byte	0x2c
 1099 064f 0C010000 		.4byte	.LLST8
 1100 0653 1A       		.uleb128 0x1a
 1101 0654 64000000 		.4byte	.LASF77
 1102 0658 01       		.byte	0x1
 1103 0659 B6       		.byte	0xb6
 1104 065a 30030000 		.4byte	0x330
 1105 065e 02       		.uleb128 0x2
 1106 065f 91       		.byte	0x91
 1107 0660 00       		.sleb128 0
 1108 0661 1A       		.uleb128 0x1a
 1109 0662 24030000 		.4byte	.LASF78
 1110 0666 01       		.byte	0x1
 1111 0667 B7       		.byte	0xb7
 1112 0668 2C000000 		.4byte	0x2c
 1113 066c 02       		.uleb128 0x2
 1114 066d 91       		.byte	0x91
 1115 066e 04       		.sleb128 4
 1116 066f 1A       		.uleb128 0x1a
 1117 0670 F9010000 		.4byte	.LASF92
 1118 0674 01       		.byte	0x1
 1119 0675 B8       		.byte	0xb8
 1120 0676 10010000 		.4byte	0x110
 1121 067a 02       		.uleb128 0x2
 1122 067b 91       		.byte	0x91
 1123 067c 08       		.sleb128 8
 1124 067d 1B       		.uleb128 0x1b
 1125 067e 47000000 		.4byte	.LASF46
 1126 0682 01       		.byte	0x1
 1127 0683 B9       		.byte	0xb9
 1128 0684 FA000000 		.4byte	0xfa
 1129 0688 01       		.uleb128 0x1
 1130 0689 50       		.byte	0x50
 1131 068a 18       		.uleb128 0x18
 1132 068b 40000000 		.4byte	.LVL11
 1133 068f FE070000 		.4byte	0x7fe
 1134 0693 17       		.uleb128 0x17
 1135 0694 01       		.uleb128 0x1
 1136 0695 53       		.byte	0x53
 1137 0696 03       		.uleb128 0x3
 1138 0697 F3       		.byte	0xf3
 1139 0698 01       		.uleb128 0x1
 1140 0699 53       		.byte	0x53
ARM GAS  /tmp/ccke2mTz.s 			page 21


 1141 069a 17       		.uleb128 0x17
 1142 069b 01       		.uleb128 0x1
 1143 069c 52       		.byte	0x52
 1144 069d 03       		.uleb128 0x3
 1145 069e F3       		.byte	0xf3
 1146 069f 01       		.uleb128 0x1
 1147 06a0 52       		.byte	0x52
 1148 06a1 17       		.uleb128 0x17
 1149 06a2 01       		.uleb128 0x1
 1150 06a3 51       		.byte	0x51
 1151 06a4 07       		.uleb128 0x7
 1152 06a5 F3       		.byte	0xf3
 1153 06a6 01       		.uleb128 0x1
 1154 06a7 51       		.byte	0x51
 1155 06a8 0A       		.byte	0xa
 1156 06a9 FFFF     		.2byte	0xffff
 1157 06ab 1A       		.byte	0x1a
 1158 06ac 17       		.uleb128 0x17
 1159 06ad 01       		.uleb128 0x1
 1160 06ae 50       		.byte	0x50
 1161 06af 02       		.uleb128 0x2
 1162 06b0 74       		.byte	0x74
 1163 06b1 00       		.sleb128 0
 1164 06b2 17       		.uleb128 0x17
 1165 06b3 02       		.uleb128 0x2
 1166 06b4 7D       		.byte	0x7d
 1167 06b5 04       		.sleb128 4
 1168 06b6 07       		.uleb128 0x7
 1169 06b7 91       		.byte	0x91
 1170 06b8 7C       		.sleb128 -4
 1171 06b9 94       		.byte	0x94
 1172 06ba 01       		.byte	0x1
 1173 06bb 08       		.byte	0x8
 1174 06bc FF       		.byte	0xff
 1175 06bd 1A       		.byte	0x1a
 1176 06be 00       		.byte	0
 1177 06bf 00       		.byte	0
 1178 06c0 19       		.uleb128 0x19
 1179 06c1 D8040000 		.4byte	.LASF93
 1180 06c5 01       		.byte	0x1
 1181 06c6 E5       		.byte	0xe5
 1182 06c7 FA000000 		.4byte	0xfa
 1183 06cb 00000000 		.4byte	.LFB13
 1184 06cf 4C000000 		.4byte	.LFE13-.LFB13
 1185 06d3 01       		.uleb128 0x1
 1186 06d4 9C       		.byte	0x9c
 1187 06d5 5A070000 		.4byte	0x75a
 1188 06d9 15       		.uleb128 0x15
 1189 06da B2000000 		.4byte	.LASF88
 1190 06de 01       		.byte	0x1
 1191 06df E5       		.byte	0xe5
 1192 06e0 C7040000 		.4byte	0x4c7
 1193 06e4 2D010000 		.4byte	.LLST9
 1194 06e8 15       		.uleb128 0x15
 1195 06e9 8D000000 		.4byte	.LASF73
 1196 06ed 01       		.byte	0x1
 1197 06ee E6       		.byte	0xe6
ARM GAS  /tmp/ccke2mTz.s 			page 22


 1198 06ef BC040000 		.4byte	0x4bc
 1199 06f3 4B010000 		.4byte	.LLST10
 1200 06f7 15       		.uleb128 0x15
 1201 06f8 64000000 		.4byte	.LASF77
 1202 06fc 01       		.byte	0x1
 1203 06fd E7       		.byte	0xe7
 1204 06fe 30030000 		.4byte	0x330
 1205 0702 6C010000 		.4byte	.LLST11
 1206 0706 15       		.uleb128 0x15
 1207 0707 24030000 		.4byte	.LASF78
 1208 070b 01       		.byte	0x1
 1209 070c E8       		.byte	0xe8
 1210 070d 2C000000 		.4byte	0x2c
 1211 0711 8D010000 		.4byte	.LLST12
 1212 0715 1A       		.uleb128 0x1a
 1213 0716 F9010000 		.4byte	.LASF92
 1214 071a 01       		.byte	0x1
 1215 071b E9       		.byte	0xe9
 1216 071c 10010000 		.4byte	0x110
 1217 0720 02       		.uleb128 0x2
 1218 0721 91       		.byte	0x91
 1219 0722 00       		.sleb128 0
 1220 0723 1B       		.uleb128 0x1b
 1221 0724 47000000 		.4byte	.LASF46
 1222 0728 01       		.byte	0x1
 1223 0729 EB       		.byte	0xeb
 1224 072a FA000000 		.4byte	0xfa
 1225 072e 01       		.uleb128 0x1
 1226 072f 50       		.byte	0x50
 1227 0730 18       		.uleb128 0x18
 1228 0731 30000000 		.4byte	.LVL13
 1229 0735 31080000 		.4byte	0x831
 1230 0739 17       		.uleb128 0x17
 1231 073a 01       		.uleb128 0x1
 1232 073b 53       		.byte	0x53
 1233 073c 03       		.uleb128 0x3
 1234 073d F3       		.byte	0xf3
 1235 073e 01       		.uleb128 0x1
 1236 073f 53       		.byte	0x53
 1237 0740 17       		.uleb128 0x17
 1238 0741 01       		.uleb128 0x1
 1239 0742 52       		.byte	0x52
 1240 0743 03       		.uleb128 0x3
 1241 0744 F3       		.byte	0xf3
 1242 0745 01       		.uleb128 0x1
 1243 0746 52       		.byte	0x52
 1244 0747 17       		.uleb128 0x17
 1245 0748 01       		.uleb128 0x1
 1246 0749 51       		.byte	0x51
 1247 074a 07       		.uleb128 0x7
 1248 074b F3       		.byte	0xf3
 1249 074c 01       		.uleb128 0x1
 1250 074d 51       		.byte	0x51
 1251 074e 0A       		.byte	0xa
 1252 074f FFFF     		.2byte	0xffff
 1253 0751 1A       		.byte	0x1a
 1254 0752 17       		.uleb128 0x17
ARM GAS  /tmp/ccke2mTz.s 			page 23


 1255 0753 01       		.uleb128 0x1
 1256 0754 50       		.byte	0x50
 1257 0755 02       		.uleb128 0x2
 1258 0756 74       		.byte	0x74
 1259 0757 00       		.sleb128 0
 1260 0758 00       		.byte	0
 1261 0759 00       		.byte	0
 1262 075a 1C       		.uleb128 0x1c
 1263 075b 75030000 		.4byte	.LASF94
 1264 075f 01       		.byte	0x1
 1265 0760 0D01     		.2byte	0x10d
 1266 0762 00000000 		.4byte	.LFB14
 1267 0766 08000000 		.4byte	.LFE14-.LFB14
 1268 076a 01       		.uleb128 0x1
 1269 076b 9C       		.byte	0x9c
 1270 076c 94070000 		.4byte	0x794
 1271 0770 1D       		.uleb128 0x1d
 1272 0771 B2000000 		.4byte	.LASF88
 1273 0775 01       		.byte	0x1
 1274 0776 0D01     		.2byte	0x10d
 1275 0778 C7040000 		.4byte	0x4c7
 1276 077c AE010000 		.4byte	.LLST13
 1277 0780 16       		.uleb128 0x16
 1278 0781 08000000 		.4byte	.LVL16
 1279 0785 5A080000 		.4byte	0x85a
 1280 0789 17       		.uleb128 0x17
 1281 078a 01       		.uleb128 0x1
 1282 078b 50       		.byte	0x50
 1283 078c 05       		.uleb128 0x5
 1284 078d F3       		.byte	0xf3
 1285 078e 01       		.uleb128 0x1
 1286 078f 50       		.byte	0x50
 1287 0790 23       		.byte	0x23
 1288 0791 10       		.uleb128 0x10
 1289 0792 00       		.byte	0
 1290 0793 00       		.byte	0
 1291 0794 1C       		.uleb128 0x1c
 1292 0795 A4000000 		.4byte	.LASF95
 1293 0799 01       		.byte	0x1
 1294 079a 2101     		.2byte	0x121
 1295 079c 00000000 		.4byte	.LFB15
 1296 07a0 04000000 		.4byte	.LFE15-.LFB15
 1297 07a4 01       		.uleb128 0x1
 1298 07a5 9C       		.byte	0x9c
 1299 07a6 C4070000 		.4byte	0x7c4
 1300 07aa 1D       		.uleb128 0x1d
 1301 07ab B2000000 		.4byte	.LASF88
 1302 07af 01       		.byte	0x1
 1303 07b0 2101     		.2byte	0x121
 1304 07b2 C7040000 		.4byte	0x4c7
 1305 07b6 DC010000 		.4byte	.LLST14
 1306 07ba 14       		.uleb128 0x14
 1307 07bb 04000000 		.4byte	.LVL18
 1308 07bf 6B080000 		.4byte	0x86b
 1309 07c3 00       		.byte	0
 1310 07c4 1E       		.uleb128 0x1e
 1311 07c5 BC040000 		.4byte	.LASF105
ARM GAS  /tmp/ccke2mTz.s 			page 24


 1312 07c9 0C       		.byte	0xc
 1313 07ca AB       		.byte	0xab
 1314 07cb 1F       		.uleb128 0x1f
 1315 07cc AC040000 		.4byte	.LASF96
 1316 07d0 09       		.byte	0x9
 1317 07d1 31       		.byte	0x31
 1318 07d2 DC070000 		.4byte	0x7dc
 1319 07d6 20       		.uleb128 0x20
 1320 07d7 2A030000 		.4byte	0x32a
 1321 07db 00       		.byte	0
 1322 07dc 1F       		.uleb128 0x1f
 1323 07dd AA030000 		.4byte	.LASF97
 1324 07e1 0C       		.byte	0xc
 1325 07e2 AC       		.byte	0xac
 1326 07e3 ED070000 		.4byte	0x7ed
 1327 07e7 20       		.uleb128 0x20
 1328 07e8 C7040000 		.4byte	0x4c7
 1329 07ec 00       		.byte	0
 1330 07ed 1F       		.uleb128 0x1f
 1331 07ee E5020000 		.4byte	.LASF98
 1332 07f2 0C       		.byte	0xc
 1333 07f3 AD       		.byte	0xad
 1334 07f4 FE070000 		.4byte	0x7fe
 1335 07f8 20       		.uleb128 0x20
 1336 07f9 C7040000 		.4byte	0x4c7
 1337 07fd 00       		.byte	0
 1338 07fe 21       		.uleb128 0x21
 1339 07ff 28010000 		.4byte	.LASF99
 1340 0803 0C       		.byte	0xc
 1341 0804 AF       		.byte	0xaf
 1342 0805 FA000000 		.4byte	0xfa
 1343 0809 31080000 		.4byte	0x831
 1344 080d 20       		.uleb128 0x20
 1345 080e C7040000 		.4byte	0x4c7
 1346 0812 20       		.uleb128 0x20
 1347 0813 BC040000 		.4byte	0x4bc
 1348 0817 20       		.uleb128 0x20
 1349 0818 36030000 		.4byte	0x336
 1350 081c 20       		.uleb128 0x20
 1351 081d 2C000000 		.4byte	0x2c
 1352 0821 20       		.uleb128 0x20
 1353 0822 30030000 		.4byte	0x330
 1354 0826 20       		.uleb128 0x20
 1355 0827 3C030000 		.4byte	0x33c
 1356 082b 20       		.uleb128 0x20
 1357 082c 10010000 		.4byte	0x110
 1358 0830 00       		.byte	0
 1359 0831 21       		.uleb128 0x21
 1360 0832 09010000 		.4byte	.LASF100
 1361 0836 0C       		.byte	0xc
 1362 0837 B4       		.byte	0xb4
 1363 0838 FA000000 		.4byte	0xfa
 1364 083c 5A080000 		.4byte	0x85a
 1365 0840 20       		.uleb128 0x20
 1366 0841 C7040000 		.4byte	0x4c7
 1367 0845 20       		.uleb128 0x20
 1368 0846 BC040000 		.4byte	0x4bc
ARM GAS  /tmp/ccke2mTz.s 			page 25


 1369 084a 20       		.uleb128 0x20
 1370 084b 30030000 		.4byte	0x330
 1371 084f 20       		.uleb128 0x20
 1372 0850 2C000000 		.4byte	0x2c
 1373 0854 20       		.uleb128 0x20
 1374 0855 10010000 		.4byte	0x110
 1375 0859 00       		.byte	0
 1376 085a 1F       		.uleb128 0x1f
 1377 085b 1A030000 		.4byte	.LASF101
 1378 085f 09       		.byte	0x9
 1379 0860 32       		.byte	0x32
 1380 0861 6B080000 		.4byte	0x86b
 1381 0865 20       		.uleb128 0x20
 1382 0866 2A030000 		.4byte	0x32a
 1383 086a 00       		.byte	0
 1384 086b 22       		.uleb128 0x22
 1385 086c 81000000 		.4byte	.LASF106
 1386 0870 09       		.byte	0x9
 1387 0871 36       		.byte	0x36
 1388 0872 2A030000 		.4byte	0x32a
 1389 0876 00       		.byte	0
 1390              		.section	.debug_abbrev,"",%progbits
 1391              	.Ldebug_abbrev0:
 1392 0000 01       		.uleb128 0x1
 1393 0001 11       		.uleb128 0x11
 1394 0002 01       		.byte	0x1
 1395 0003 25       		.uleb128 0x25
 1396 0004 0E       		.uleb128 0xe
 1397 0005 13       		.uleb128 0x13
 1398 0006 0B       		.uleb128 0xb
 1399 0007 03       		.uleb128 0x3
 1400 0008 0E       		.uleb128 0xe
 1401 0009 1B       		.uleb128 0x1b
 1402 000a 0E       		.uleb128 0xe
 1403 000b 55       		.uleb128 0x55
 1404 000c 17       		.uleb128 0x17
 1405 000d 11       		.uleb128 0x11
 1406 000e 01       		.uleb128 0x1
 1407 000f 10       		.uleb128 0x10
 1408 0010 17       		.uleb128 0x17
 1409 0011 00       		.byte	0
 1410 0012 00       		.byte	0
 1411 0013 02       		.uleb128 0x2
 1412 0014 24       		.uleb128 0x24
 1413 0015 00       		.byte	0
 1414 0016 0B       		.uleb128 0xb
 1415 0017 0B       		.uleb128 0xb
 1416 0018 3E       		.uleb128 0x3e
 1417 0019 0B       		.uleb128 0xb
 1418 001a 03       		.uleb128 0x3
 1419 001b 0E       		.uleb128 0xe
 1420 001c 00       		.byte	0
 1421 001d 00       		.byte	0
 1422 001e 03       		.uleb128 0x3
 1423 001f 16       		.uleb128 0x16
 1424 0020 00       		.byte	0
 1425 0021 03       		.uleb128 0x3
ARM GAS  /tmp/ccke2mTz.s 			page 26


 1426 0022 0E       		.uleb128 0xe
 1427 0023 3A       		.uleb128 0x3a
 1428 0024 0B       		.uleb128 0xb
 1429 0025 3B       		.uleb128 0x3b
 1430 0026 0B       		.uleb128 0xb
 1431 0027 49       		.uleb128 0x49
 1432 0028 13       		.uleb128 0x13
 1433 0029 00       		.byte	0
 1434 002a 00       		.byte	0
 1435 002b 04       		.uleb128 0x4
 1436 002c 24       		.uleb128 0x24
 1437 002d 00       		.byte	0
 1438 002e 0B       		.uleb128 0xb
 1439 002f 0B       		.uleb128 0xb
 1440 0030 3E       		.uleb128 0x3e
 1441 0031 0B       		.uleb128 0xb
 1442 0032 03       		.uleb128 0x3
 1443 0033 08       		.uleb128 0x8
 1444 0034 00       		.byte	0
 1445 0035 00       		.byte	0
 1446 0036 05       		.uleb128 0x5
 1447 0037 13       		.uleb128 0x13
 1448 0038 01       		.byte	0x1
 1449 0039 03       		.uleb128 0x3
 1450 003a 0E       		.uleb128 0xe
 1451 003b 0B       		.uleb128 0xb
 1452 003c 0B       		.uleb128 0xb
 1453 003d 3A       		.uleb128 0x3a
 1454 003e 0B       		.uleb128 0xb
 1455 003f 3B       		.uleb128 0x3b
 1456 0040 0B       		.uleb128 0xb
 1457 0041 01       		.uleb128 0x1
 1458 0042 13       		.uleb128 0x13
 1459 0043 00       		.byte	0
 1460 0044 00       		.byte	0
 1461 0045 06       		.uleb128 0x6
 1462 0046 0D       		.uleb128 0xd
 1463 0047 00       		.byte	0
 1464 0048 03       		.uleb128 0x3
 1465 0049 0E       		.uleb128 0xe
 1466 004a 3A       		.uleb128 0x3a
 1467 004b 0B       		.uleb128 0xb
 1468 004c 3B       		.uleb128 0x3b
 1469 004d 0B       		.uleb128 0xb
 1470 004e 49       		.uleb128 0x49
 1471 004f 13       		.uleb128 0x13
 1472 0050 38       		.uleb128 0x38
 1473 0051 0B       		.uleb128 0xb
 1474 0052 00       		.byte	0
 1475 0053 00       		.byte	0
 1476 0054 07       		.uleb128 0x7
 1477 0055 0D       		.uleb128 0xd
 1478 0056 00       		.byte	0
 1479 0057 03       		.uleb128 0x3
 1480 0058 08       		.uleb128 0x8
 1481 0059 3A       		.uleb128 0x3a
 1482 005a 0B       		.uleb128 0xb
ARM GAS  /tmp/ccke2mTz.s 			page 27


 1483 005b 3B       		.uleb128 0x3b
 1484 005c 0B       		.uleb128 0xb
 1485 005d 49       		.uleb128 0x49
 1486 005e 13       		.uleb128 0x13
 1487 005f 38       		.uleb128 0x38
 1488 0060 0B       		.uleb128 0xb
 1489 0061 00       		.byte	0
 1490 0062 00       		.byte	0
 1491 0063 08       		.uleb128 0x8
 1492 0064 13       		.uleb128 0x13
 1493 0065 01       		.byte	0x1
 1494 0066 0B       		.uleb128 0xb
 1495 0067 0B       		.uleb128 0xb
 1496 0068 3A       		.uleb128 0x3a
 1497 0069 0B       		.uleb128 0xb
 1498 006a 3B       		.uleb128 0x3b
 1499 006b 0B       		.uleb128 0xb
 1500 006c 01       		.uleb128 0x1
 1501 006d 13       		.uleb128 0x13
 1502 006e 00       		.byte	0
 1503 006f 00       		.byte	0
 1504 0070 09       		.uleb128 0x9
 1505 0071 0F       		.uleb128 0xf
 1506 0072 00       		.byte	0
 1507 0073 0B       		.uleb128 0xb
 1508 0074 0B       		.uleb128 0xb
 1509 0075 49       		.uleb128 0x49
 1510 0076 13       		.uleb128 0x13
 1511 0077 00       		.byte	0
 1512 0078 00       		.byte	0
 1513 0079 0A       		.uleb128 0xa
 1514 007a 0F       		.uleb128 0xf
 1515 007b 00       		.byte	0
 1516 007c 0B       		.uleb128 0xb
 1517 007d 0B       		.uleb128 0xb
 1518 007e 00       		.byte	0
 1519 007f 00       		.byte	0
 1520 0080 0B       		.uleb128 0xb
 1521 0081 17       		.uleb128 0x17
 1522 0082 01       		.byte	0x1
 1523 0083 0B       		.uleb128 0xb
 1524 0084 0B       		.uleb128 0xb
 1525 0085 3A       		.uleb128 0x3a
 1526 0086 0B       		.uleb128 0xb
 1527 0087 3B       		.uleb128 0x3b
 1528 0088 0B       		.uleb128 0xb
 1529 0089 01       		.uleb128 0x1
 1530 008a 13       		.uleb128 0x13
 1531 008b 00       		.byte	0
 1532 008c 00       		.byte	0
 1533 008d 0C       		.uleb128 0xc
 1534 008e 0D       		.uleb128 0xd
 1535 008f 00       		.byte	0
 1536 0090 03       		.uleb128 0x3
 1537 0091 0E       		.uleb128 0xe
 1538 0092 3A       		.uleb128 0x3a
 1539 0093 0B       		.uleb128 0xb
ARM GAS  /tmp/ccke2mTz.s 			page 28


 1540 0094 3B       		.uleb128 0x3b
 1541 0095 0B       		.uleb128 0xb
 1542 0096 49       		.uleb128 0x49
 1543 0097 13       		.uleb128 0x13
 1544 0098 00       		.byte	0
 1545 0099 00       		.byte	0
 1546 009a 0D       		.uleb128 0xd
 1547 009b 26       		.uleb128 0x26
 1548 009c 00       		.byte	0
 1549 009d 49       		.uleb128 0x49
 1550 009e 13       		.uleb128 0x13
 1551 009f 00       		.byte	0
 1552 00a0 00       		.byte	0
 1553 00a1 0E       		.uleb128 0xe
 1554 00a2 0D       		.uleb128 0xd
 1555 00a3 00       		.byte	0
 1556 00a4 03       		.uleb128 0x3
 1557 00a5 0E       		.uleb128 0xe
 1558 00a6 3A       		.uleb128 0x3a
 1559 00a7 0B       		.uleb128 0xb
 1560 00a8 3B       		.uleb128 0x3b
 1561 00a9 05       		.uleb128 0x5
 1562 00aa 49       		.uleb128 0x49
 1563 00ab 13       		.uleb128 0x13
 1564 00ac 38       		.uleb128 0x38
 1565 00ad 0B       		.uleb128 0xb
 1566 00ae 00       		.byte	0
 1567 00af 00       		.byte	0
 1568 00b0 0F       		.uleb128 0xf
 1569 00b1 35       		.uleb128 0x35
 1570 00b2 00       		.byte	0
 1571 00b3 49       		.uleb128 0x49
 1572 00b4 13       		.uleb128 0x13
 1573 00b5 00       		.byte	0
 1574 00b6 00       		.byte	0
 1575 00b7 10       		.uleb128 0x10
 1576 00b8 16       		.uleb128 0x16
 1577 00b9 00       		.byte	0
 1578 00ba 03       		.uleb128 0x3
 1579 00bb 0E       		.uleb128 0xe
 1580 00bc 3A       		.uleb128 0x3a
 1581 00bd 0B       		.uleb128 0xb
 1582 00be 3B       		.uleb128 0x3b
 1583 00bf 05       		.uleb128 0x5
 1584 00c0 49       		.uleb128 0x49
 1585 00c1 13       		.uleb128 0x13
 1586 00c2 00       		.byte	0
 1587 00c3 00       		.byte	0
 1588 00c4 11       		.uleb128 0x11
 1589 00c5 04       		.uleb128 0x4
 1590 00c6 01       		.byte	0x1
 1591 00c7 0B       		.uleb128 0xb
 1592 00c8 0B       		.uleb128 0xb
 1593 00c9 3A       		.uleb128 0x3a
 1594 00ca 0B       		.uleb128 0xb
 1595 00cb 3B       		.uleb128 0x3b
 1596 00cc 0B       		.uleb128 0xb
ARM GAS  /tmp/ccke2mTz.s 			page 29


 1597 00cd 01       		.uleb128 0x1
 1598 00ce 13       		.uleb128 0x13
 1599 00cf 00       		.byte	0
 1600 00d0 00       		.byte	0
 1601 00d1 12       		.uleb128 0x12
 1602 00d2 28       		.uleb128 0x28
 1603 00d3 00       		.byte	0
 1604 00d4 03       		.uleb128 0x3
 1605 00d5 0E       		.uleb128 0xe
 1606 00d6 1C       		.uleb128 0x1c
 1607 00d7 0D       		.uleb128 0xd
 1608 00d8 00       		.byte	0
 1609 00d9 00       		.byte	0
 1610 00da 13       		.uleb128 0x13
 1611 00db 2E       		.uleb128 0x2e
 1612 00dc 01       		.byte	0x1
 1613 00dd 3F       		.uleb128 0x3f
 1614 00de 19       		.uleb128 0x19
 1615 00df 03       		.uleb128 0x3
 1616 00e0 0E       		.uleb128 0xe
 1617 00e1 3A       		.uleb128 0x3a
 1618 00e2 0B       		.uleb128 0xb
 1619 00e3 3B       		.uleb128 0x3b
 1620 00e4 0B       		.uleb128 0xb
 1621 00e5 27       		.uleb128 0x27
 1622 00e6 19       		.uleb128 0x19
 1623 00e7 11       		.uleb128 0x11
 1624 00e8 01       		.uleb128 0x1
 1625 00e9 12       		.uleb128 0x12
 1626 00ea 06       		.uleb128 0x6
 1627 00eb 40       		.uleb128 0x40
 1628 00ec 18       		.uleb128 0x18
 1629 00ed 9742     		.uleb128 0x2117
 1630 00ef 19       		.uleb128 0x19
 1631 00f0 01       		.uleb128 0x1
 1632 00f1 13       		.uleb128 0x13
 1633 00f2 00       		.byte	0
 1634 00f3 00       		.byte	0
 1635 00f4 14       		.uleb128 0x14
 1636 00f5 898201   		.uleb128 0x4109
 1637 00f8 00       		.byte	0
 1638 00f9 11       		.uleb128 0x11
 1639 00fa 01       		.uleb128 0x1
 1640 00fb 9542     		.uleb128 0x2115
 1641 00fd 19       		.uleb128 0x19
 1642 00fe 31       		.uleb128 0x31
 1643 00ff 13       		.uleb128 0x13
 1644 0100 00       		.byte	0
 1645 0101 00       		.byte	0
 1646 0102 15       		.uleb128 0x15
 1647 0103 05       		.uleb128 0x5
 1648 0104 00       		.byte	0
 1649 0105 03       		.uleb128 0x3
 1650 0106 0E       		.uleb128 0xe
 1651 0107 3A       		.uleb128 0x3a
 1652 0108 0B       		.uleb128 0xb
 1653 0109 3B       		.uleb128 0x3b
ARM GAS  /tmp/ccke2mTz.s 			page 30


 1654 010a 0B       		.uleb128 0xb
 1655 010b 49       		.uleb128 0x49
 1656 010c 13       		.uleb128 0x13
 1657 010d 02       		.uleb128 0x2
 1658 010e 17       		.uleb128 0x17
 1659 010f 00       		.byte	0
 1660 0110 00       		.byte	0
 1661 0111 16       		.uleb128 0x16
 1662 0112 898201   		.uleb128 0x4109
 1663 0115 01       		.byte	0x1
 1664 0116 11       		.uleb128 0x11
 1665 0117 01       		.uleb128 0x1
 1666 0118 9542     		.uleb128 0x2115
 1667 011a 19       		.uleb128 0x19
 1668 011b 31       		.uleb128 0x31
 1669 011c 13       		.uleb128 0x13
 1670 011d 00       		.byte	0
 1671 011e 00       		.byte	0
 1672 011f 17       		.uleb128 0x17
 1673 0120 8A8201   		.uleb128 0x410a
 1674 0123 00       		.byte	0
 1675 0124 02       		.uleb128 0x2
 1676 0125 18       		.uleb128 0x18
 1677 0126 9142     		.uleb128 0x2111
 1678 0128 18       		.uleb128 0x18
 1679 0129 00       		.byte	0
 1680 012a 00       		.byte	0
 1681 012b 18       		.uleb128 0x18
 1682 012c 898201   		.uleb128 0x4109
 1683 012f 01       		.byte	0x1
 1684 0130 11       		.uleb128 0x11
 1685 0131 01       		.uleb128 0x1
 1686 0132 31       		.uleb128 0x31
 1687 0133 13       		.uleb128 0x13
 1688 0134 00       		.byte	0
 1689 0135 00       		.byte	0
 1690 0136 19       		.uleb128 0x19
 1691 0137 2E       		.uleb128 0x2e
 1692 0138 01       		.byte	0x1
 1693 0139 3F       		.uleb128 0x3f
 1694 013a 19       		.uleb128 0x19
 1695 013b 03       		.uleb128 0x3
 1696 013c 0E       		.uleb128 0xe
 1697 013d 3A       		.uleb128 0x3a
 1698 013e 0B       		.uleb128 0xb
 1699 013f 3B       		.uleb128 0x3b
 1700 0140 0B       		.uleb128 0xb
 1701 0141 27       		.uleb128 0x27
 1702 0142 19       		.uleb128 0x19
 1703 0143 49       		.uleb128 0x49
 1704 0144 13       		.uleb128 0x13
 1705 0145 11       		.uleb128 0x11
 1706 0146 01       		.uleb128 0x1
 1707 0147 12       		.uleb128 0x12
 1708 0148 06       		.uleb128 0x6
 1709 0149 40       		.uleb128 0x40
 1710 014a 18       		.uleb128 0x18
ARM GAS  /tmp/ccke2mTz.s 			page 31


 1711 014b 9742     		.uleb128 0x2117
 1712 014d 19       		.uleb128 0x19
 1713 014e 01       		.uleb128 0x1
 1714 014f 13       		.uleb128 0x13
 1715 0150 00       		.byte	0
 1716 0151 00       		.byte	0
 1717 0152 1A       		.uleb128 0x1a
 1718 0153 05       		.uleb128 0x5
 1719 0154 00       		.byte	0
 1720 0155 03       		.uleb128 0x3
 1721 0156 0E       		.uleb128 0xe
 1722 0157 3A       		.uleb128 0x3a
 1723 0158 0B       		.uleb128 0xb
 1724 0159 3B       		.uleb128 0x3b
 1725 015a 0B       		.uleb128 0xb
 1726 015b 49       		.uleb128 0x49
 1727 015c 13       		.uleb128 0x13
 1728 015d 02       		.uleb128 0x2
 1729 015e 18       		.uleb128 0x18
 1730 015f 00       		.byte	0
 1731 0160 00       		.byte	0
 1732 0161 1B       		.uleb128 0x1b
 1733 0162 34       		.uleb128 0x34
 1734 0163 00       		.byte	0
 1735 0164 03       		.uleb128 0x3
 1736 0165 0E       		.uleb128 0xe
 1737 0166 3A       		.uleb128 0x3a
 1738 0167 0B       		.uleb128 0xb
 1739 0168 3B       		.uleb128 0x3b
 1740 0169 0B       		.uleb128 0xb
 1741 016a 49       		.uleb128 0x49
 1742 016b 13       		.uleb128 0x13
 1743 016c 02       		.uleb128 0x2
 1744 016d 18       		.uleb128 0x18
 1745 016e 00       		.byte	0
 1746 016f 00       		.byte	0
 1747 0170 1C       		.uleb128 0x1c
 1748 0171 2E       		.uleb128 0x2e
 1749 0172 01       		.byte	0x1
 1750 0173 3F       		.uleb128 0x3f
 1751 0174 19       		.uleb128 0x19
 1752 0175 03       		.uleb128 0x3
 1753 0176 0E       		.uleb128 0xe
 1754 0177 3A       		.uleb128 0x3a
 1755 0178 0B       		.uleb128 0xb
 1756 0179 3B       		.uleb128 0x3b
 1757 017a 05       		.uleb128 0x5
 1758 017b 27       		.uleb128 0x27
 1759 017c 19       		.uleb128 0x19
 1760 017d 11       		.uleb128 0x11
 1761 017e 01       		.uleb128 0x1
 1762 017f 12       		.uleb128 0x12
 1763 0180 06       		.uleb128 0x6
 1764 0181 40       		.uleb128 0x40
 1765 0182 18       		.uleb128 0x18
 1766 0183 9742     		.uleb128 0x2117
 1767 0185 19       		.uleb128 0x19
ARM GAS  /tmp/ccke2mTz.s 			page 32


 1768 0186 01       		.uleb128 0x1
 1769 0187 13       		.uleb128 0x13
 1770 0188 00       		.byte	0
 1771 0189 00       		.byte	0
 1772 018a 1D       		.uleb128 0x1d
 1773 018b 05       		.uleb128 0x5
 1774 018c 00       		.byte	0
 1775 018d 03       		.uleb128 0x3
 1776 018e 0E       		.uleb128 0xe
 1777 018f 3A       		.uleb128 0x3a
 1778 0190 0B       		.uleb128 0xb
 1779 0191 3B       		.uleb128 0x3b
 1780 0192 05       		.uleb128 0x5
 1781 0193 49       		.uleb128 0x49
 1782 0194 13       		.uleb128 0x13
 1783 0195 02       		.uleb128 0x2
 1784 0196 17       		.uleb128 0x17
 1785 0197 00       		.byte	0
 1786 0198 00       		.byte	0
 1787 0199 1E       		.uleb128 0x1e
 1788 019a 2E       		.uleb128 0x2e
 1789 019b 00       		.byte	0
 1790 019c 3F       		.uleb128 0x3f
 1791 019d 19       		.uleb128 0x19
 1792 019e 03       		.uleb128 0x3
 1793 019f 0E       		.uleb128 0xe
 1794 01a0 3A       		.uleb128 0x3a
 1795 01a1 0B       		.uleb128 0xb
 1796 01a2 3B       		.uleb128 0x3b
 1797 01a3 0B       		.uleb128 0xb
 1798 01a4 27       		.uleb128 0x27
 1799 01a5 19       		.uleb128 0x19
 1800 01a6 3C       		.uleb128 0x3c
 1801 01a7 19       		.uleb128 0x19
 1802 01a8 00       		.byte	0
 1803 01a9 00       		.byte	0
 1804 01aa 1F       		.uleb128 0x1f
 1805 01ab 2E       		.uleb128 0x2e
 1806 01ac 01       		.byte	0x1
 1807 01ad 3F       		.uleb128 0x3f
 1808 01ae 19       		.uleb128 0x19
 1809 01af 03       		.uleb128 0x3
 1810 01b0 0E       		.uleb128 0xe
 1811 01b1 3A       		.uleb128 0x3a
 1812 01b2 0B       		.uleb128 0xb
 1813 01b3 3B       		.uleb128 0x3b
 1814 01b4 0B       		.uleb128 0xb
 1815 01b5 27       		.uleb128 0x27
 1816 01b6 19       		.uleb128 0x19
 1817 01b7 3C       		.uleb128 0x3c
 1818 01b8 19       		.uleb128 0x19
 1819 01b9 01       		.uleb128 0x1
 1820 01ba 13       		.uleb128 0x13
 1821 01bb 00       		.byte	0
 1822 01bc 00       		.byte	0
 1823 01bd 20       		.uleb128 0x20
 1824 01be 05       		.uleb128 0x5
ARM GAS  /tmp/ccke2mTz.s 			page 33


 1825 01bf 00       		.byte	0
 1826 01c0 49       		.uleb128 0x49
 1827 01c1 13       		.uleb128 0x13
 1828 01c2 00       		.byte	0
 1829 01c3 00       		.byte	0
 1830 01c4 21       		.uleb128 0x21
 1831 01c5 2E       		.uleb128 0x2e
 1832 01c6 01       		.byte	0x1
 1833 01c7 3F       		.uleb128 0x3f
 1834 01c8 19       		.uleb128 0x19
 1835 01c9 03       		.uleb128 0x3
 1836 01ca 0E       		.uleb128 0xe
 1837 01cb 3A       		.uleb128 0x3a
 1838 01cc 0B       		.uleb128 0xb
 1839 01cd 3B       		.uleb128 0x3b
 1840 01ce 0B       		.uleb128 0xb
 1841 01cf 27       		.uleb128 0x27
 1842 01d0 19       		.uleb128 0x19
 1843 01d1 49       		.uleb128 0x49
 1844 01d2 13       		.uleb128 0x13
 1845 01d3 3C       		.uleb128 0x3c
 1846 01d4 19       		.uleb128 0x19
 1847 01d5 01       		.uleb128 0x1
 1848 01d6 13       		.uleb128 0x13
 1849 01d7 00       		.byte	0
 1850 01d8 00       		.byte	0
 1851 01d9 22       		.uleb128 0x22
 1852 01da 2E       		.uleb128 0x2e
 1853 01db 00       		.byte	0
 1854 01dc 3F       		.uleb128 0x3f
 1855 01dd 19       		.uleb128 0x19
 1856 01de 03       		.uleb128 0x3
 1857 01df 0E       		.uleb128 0xe
 1858 01e0 3A       		.uleb128 0x3a
 1859 01e1 0B       		.uleb128 0xb
 1860 01e2 3B       		.uleb128 0x3b
 1861 01e3 0B       		.uleb128 0xb
 1862 01e4 27       		.uleb128 0x27
 1863 01e5 19       		.uleb128 0x19
 1864 01e6 49       		.uleb128 0x49
 1865 01e7 13       		.uleb128 0x13
 1866 01e8 3C       		.uleb128 0x3c
 1867 01e9 19       		.uleb128 0x19
 1868 01ea 00       		.byte	0
 1869 01eb 00       		.byte	0
 1870 01ec 00       		.byte	0
 1871              		.section	.debug_loc,"",%progbits
 1872              	.Ldebug_loc0:
 1873              	.LLST0:
 1874 0000 00000000 		.4byte	.LVL1
 1875 0004 10000000 		.4byte	.LVL2
 1876 0008 0100     		.2byte	0x1
 1877 000a 50       		.byte	0x50
 1878 000b 10000000 		.4byte	.LVL2
 1879 000f 13000000 		.4byte	.LVL3-1
 1880 0013 0300     		.2byte	0x3
 1881 0015 70       		.byte	0x70
ARM GAS  /tmp/ccke2mTz.s 			page 34


 1882 0016 70       		.sleb128 -16
 1883 0017 9F       		.byte	0x9f
 1884 0018 13000000 		.4byte	.LVL3-1
 1885 001c 14000000 		.4byte	.LFE8
 1886 0020 0400     		.2byte	0x4
 1887 0022 F3       		.byte	0xf3
 1888 0023 01       		.uleb128 0x1
 1889 0024 50       		.byte	0x50
 1890 0025 9F       		.byte	0x9f
 1891 0026 00000000 		.4byte	0
 1892 002a 00000000 		.4byte	0
 1893              	.LLST1:
 1894 002e 00000000 		.4byte	.LVL4
 1895 0032 13000000 		.4byte	.LVL5-1
 1896 0036 0100     		.2byte	0x1
 1897 0038 50       		.byte	0x50
 1898 0039 13000000 		.4byte	.LVL5-1
 1899 003d 24000000 		.4byte	.LFE9
 1900 0041 0100     		.2byte	0x1
 1901 0043 54       		.byte	0x54
 1902 0044 00000000 		.4byte	0
 1903 0048 00000000 		.4byte	0
 1904              	.LLST2:
 1905 004c 00000000 		.4byte	.LVL4
 1906 0050 13000000 		.4byte	.LVL5-1
 1907 0054 0100     		.2byte	0x1
 1908 0056 51       		.byte	0x51
 1909 0057 13000000 		.4byte	.LVL5-1
 1910 005b 24000000 		.4byte	.LFE9
 1911 005f 0400     		.2byte	0x4
 1912 0061 F3       		.byte	0xf3
 1913 0062 01       		.uleb128 0x1
 1914 0063 51       		.byte	0x51
 1915 0064 9F       		.byte	0x9f
 1916 0065 00000000 		.4byte	0
 1917 0069 00000000 		.4byte	0
 1918              	.LLST3:
 1919 006d 00000000 		.4byte	.LVL6
 1920 0071 0F000000 		.4byte	.LVL7-1
 1921 0075 0100     		.2byte	0x1
 1922 0077 50       		.byte	0x50
 1923 0078 0F000000 		.4byte	.LVL7-1
 1924 007c 20000000 		.4byte	.LFE10
 1925 0080 0100     		.2byte	0x1
 1926 0082 54       		.byte	0x54
 1927 0083 00000000 		.4byte	0
 1928 0087 00000000 		.4byte	0
 1929              	.LLST4:
 1930 008b 00000000 		.4byte	.LVL8
 1931 008f 04000000 		.4byte	.LVL9
 1932 0093 0100     		.2byte	0x1
 1933 0095 50       		.byte	0x50
 1934 0096 04000000 		.4byte	.LVL9
 1935 009a 08000000 		.4byte	.LFE11
 1936 009e 0400     		.2byte	0x4
 1937 00a0 F3       		.byte	0xf3
 1938 00a1 01       		.uleb128 0x1
ARM GAS  /tmp/ccke2mTz.s 			page 35


 1939 00a2 50       		.byte	0x50
 1940 00a3 9F       		.byte	0x9f
 1941 00a4 00000000 		.4byte	0
 1942 00a8 00000000 		.4byte	0
 1943              	.LLST5:
 1944 00ac 00000000 		.4byte	.LVL10
 1945 00b0 3F000000 		.4byte	.LVL11-1
 1946 00b4 0100     		.2byte	0x1
 1947 00b6 50       		.byte	0x50
 1948 00b7 3F000000 		.4byte	.LVL11-1
 1949 00bb 5C000000 		.4byte	.LFE12
 1950 00bf 0100     		.2byte	0x1
 1951 00c1 54       		.byte	0x54
 1952 00c2 00000000 		.4byte	0
 1953 00c6 00000000 		.4byte	0
 1954              	.LLST6:
 1955 00ca 00000000 		.4byte	.LVL10
 1956 00ce 3F000000 		.4byte	.LVL11-1
 1957 00d2 0100     		.2byte	0x1
 1958 00d4 51       		.byte	0x51
 1959 00d5 3F000000 		.4byte	.LVL11-1
 1960 00d9 5C000000 		.4byte	.LFE12
 1961 00dd 0400     		.2byte	0x4
 1962 00df F3       		.byte	0xf3
 1963 00e0 01       		.uleb128 0x1
 1964 00e1 51       		.byte	0x51
 1965 00e2 9F       		.byte	0x9f
 1966 00e3 00000000 		.4byte	0
 1967 00e7 00000000 		.4byte	0
 1968              	.LLST7:
 1969 00eb 00000000 		.4byte	.LVL10
 1970 00ef 3F000000 		.4byte	.LVL11-1
 1971 00f3 0100     		.2byte	0x1
 1972 00f5 52       		.byte	0x52
 1973 00f6 3F000000 		.4byte	.LVL11-1
 1974 00fa 5C000000 		.4byte	.LFE12
 1975 00fe 0400     		.2byte	0x4
 1976 0100 F3       		.byte	0xf3
 1977 0101 01       		.uleb128 0x1
 1978 0102 52       		.byte	0x52
 1979 0103 9F       		.byte	0x9f
 1980 0104 00000000 		.4byte	0
 1981 0108 00000000 		.4byte	0
 1982              	.LLST8:
 1983 010c 00000000 		.4byte	.LVL10
 1984 0110 3F000000 		.4byte	.LVL11-1
 1985 0114 0100     		.2byte	0x1
 1986 0116 53       		.byte	0x53
 1987 0117 3F000000 		.4byte	.LVL11-1
 1988 011b 5C000000 		.4byte	.LFE12
 1989 011f 0400     		.2byte	0x4
 1990 0121 F3       		.byte	0xf3
 1991 0122 01       		.uleb128 0x1
 1992 0123 53       		.byte	0x53
 1993 0124 9F       		.byte	0x9f
 1994 0125 00000000 		.4byte	0
 1995 0129 00000000 		.4byte	0
ARM GAS  /tmp/ccke2mTz.s 			page 36


 1996              	.LLST9:
 1997 012d 00000000 		.4byte	.LVL12
 1998 0131 2F000000 		.4byte	.LVL13-1
 1999 0135 0100     		.2byte	0x1
 2000 0137 50       		.byte	0x50
 2001 0138 2F000000 		.4byte	.LVL13-1
 2002 013c 4C000000 		.4byte	.LFE13
 2003 0140 0100     		.2byte	0x1
 2004 0142 54       		.byte	0x54
 2005 0143 00000000 		.4byte	0
 2006 0147 00000000 		.4byte	0
 2007              	.LLST10:
 2008 014b 00000000 		.4byte	.LVL12
 2009 014f 2F000000 		.4byte	.LVL13-1
 2010 0153 0100     		.2byte	0x1
 2011 0155 51       		.byte	0x51
 2012 0156 2F000000 		.4byte	.LVL13-1
 2013 015a 4C000000 		.4byte	.LFE13
 2014 015e 0400     		.2byte	0x4
 2015 0160 F3       		.byte	0xf3
 2016 0161 01       		.uleb128 0x1
 2017 0162 51       		.byte	0x51
 2018 0163 9F       		.byte	0x9f
 2019 0164 00000000 		.4byte	0
 2020 0168 00000000 		.4byte	0
 2021              	.LLST11:
 2022 016c 00000000 		.4byte	.LVL12
 2023 0170 2F000000 		.4byte	.LVL13-1
 2024 0174 0100     		.2byte	0x1
 2025 0176 52       		.byte	0x52
 2026 0177 2F000000 		.4byte	.LVL13-1
 2027 017b 4C000000 		.4byte	.LFE13
 2028 017f 0400     		.2byte	0x4
 2029 0181 F3       		.byte	0xf3
 2030 0182 01       		.uleb128 0x1
 2031 0183 52       		.byte	0x52
 2032 0184 9F       		.byte	0x9f
 2033 0185 00000000 		.4byte	0
 2034 0189 00000000 		.4byte	0
 2035              	.LLST12:
 2036 018d 00000000 		.4byte	.LVL12
 2037 0191 2F000000 		.4byte	.LVL13-1
 2038 0195 0100     		.2byte	0x1
 2039 0197 53       		.byte	0x53
 2040 0198 2F000000 		.4byte	.LVL13-1
 2041 019c 4C000000 		.4byte	.LFE13
 2042 01a0 0400     		.2byte	0x4
 2043 01a2 F3       		.byte	0xf3
 2044 01a3 01       		.uleb128 0x1
 2045 01a4 53       		.byte	0x53
 2046 01a5 9F       		.byte	0x9f
 2047 01a6 00000000 		.4byte	0
 2048 01aa 00000000 		.4byte	0
 2049              	.LLST13:
 2050 01ae 00000000 		.4byte	.LVL14
 2051 01b2 04000000 		.4byte	.LVL15
 2052 01b6 0100     		.2byte	0x1
ARM GAS  /tmp/ccke2mTz.s 			page 37


 2053 01b8 50       		.byte	0x50
 2054 01b9 04000000 		.4byte	.LVL15
 2055 01bd 07000000 		.4byte	.LVL16-1
 2056 01c1 0300     		.2byte	0x3
 2057 01c3 70       		.byte	0x70
 2058 01c4 70       		.sleb128 -16
 2059 01c5 9F       		.byte	0x9f
 2060 01c6 07000000 		.4byte	.LVL16-1
 2061 01ca 08000000 		.4byte	.LFE14
 2062 01ce 0400     		.2byte	0x4
 2063 01d0 F3       		.byte	0xf3
 2064 01d1 01       		.uleb128 0x1
 2065 01d2 50       		.byte	0x50
 2066 01d3 9F       		.byte	0x9f
 2067 01d4 00000000 		.4byte	0
 2068 01d8 00000000 		.4byte	0
 2069              	.LLST14:
 2070 01dc 00000000 		.4byte	.LVL17
 2071 01e0 03000000 		.4byte	.LVL18-1
 2072 01e4 0100     		.2byte	0x1
 2073 01e6 50       		.byte	0x50
 2074 01e7 03000000 		.4byte	.LVL18-1
 2075 01eb 04000000 		.4byte	.LFE15
 2076 01ef 0400     		.2byte	0x4
 2077 01f1 F3       		.byte	0xf3
 2078 01f2 01       		.uleb128 0x1
 2079 01f3 50       		.byte	0x50
 2080 01f4 9F       		.byte	0x9f
 2081 01f5 00000000 		.4byte	0
 2082 01f9 00000000 		.4byte	0
 2083              		.section	.debug_aranges,"",%progbits
 2084 0000 5C000000 		.4byte	0x5c
 2085 0004 0200     		.2byte	0x2
 2086 0006 00000000 		.4byte	.Ldebug_info0
 2087 000a 04       		.byte	0x4
 2088 000b 00       		.byte	0
 2089 000c 0000     		.2byte	0
 2090 000e 0000     		.2byte	0
 2091 0010 00000000 		.4byte	.LFB7
 2092 0014 04000000 		.4byte	.LFE7-.LFB7
 2093 0018 00000000 		.4byte	.LFB8
 2094 001c 14000000 		.4byte	.LFE8-.LFB8
 2095 0020 00000000 		.4byte	.LFB9
 2096 0024 24000000 		.4byte	.LFE9-.LFB9
 2097 0028 00000000 		.4byte	.LFB10
 2098 002c 20000000 		.4byte	.LFE10-.LFB10
 2099 0030 00000000 		.4byte	.LFB11
 2100 0034 08000000 		.4byte	.LFE11-.LFB11
 2101 0038 00000000 		.4byte	.LFB12
 2102 003c 5C000000 		.4byte	.LFE12-.LFB12
 2103 0040 00000000 		.4byte	.LFB13
 2104 0044 4C000000 		.4byte	.LFE13-.LFB13
 2105 0048 00000000 		.4byte	.LFB14
 2106 004c 08000000 		.4byte	.LFE14-.LFB14
 2107 0050 00000000 		.4byte	.LFB15
 2108 0054 04000000 		.4byte	.LFE15-.LFB15
 2109 0058 00000000 		.4byte	0
ARM GAS  /tmp/ccke2mTz.s 			page 38


 2110 005c 00000000 		.4byte	0
 2111              		.section	.debug_ranges,"",%progbits
 2112              	.Ldebug_ranges0:
 2113 0000 00000000 		.4byte	.LFB7
 2114 0004 04000000 		.4byte	.LFE7
 2115 0008 00000000 		.4byte	.LFB8
 2116 000c 14000000 		.4byte	.LFE8
 2117 0010 00000000 		.4byte	.LFB9
 2118 0014 24000000 		.4byte	.LFE9
 2119 0018 00000000 		.4byte	.LFB10
 2120 001c 20000000 		.4byte	.LFE10
 2121 0020 00000000 		.4byte	.LFB11
 2122 0024 08000000 		.4byte	.LFE11
 2123 0028 00000000 		.4byte	.LFB12
 2124 002c 5C000000 		.4byte	.LFE12
 2125 0030 00000000 		.4byte	.LFB13
 2126 0034 4C000000 		.4byte	.LFE13
 2127 0038 00000000 		.4byte	.LFB14
 2128 003c 08000000 		.4byte	.LFE14
 2129 0040 00000000 		.4byte	.LFB15
 2130 0044 04000000 		.4byte	.LFE15
 2131 0048 00000000 		.4byte	0
 2132 004c 00000000 		.4byte	0
 2133              		.section	.debug_line,"",%progbits
 2134              	.Ldebug_line0:
 2135 0000 50020000 		.section	.debug_str,"MS",%progbits,1
 2135      02008C01 
 2135      00000201 
 2135      FB0E0D00 
 2135      01010101 
 2136              	.LASF104:
 2137 0000 2F686F6D 		.ascii	"/home/hunter/development/chibi/ChibiOS-RPi/testhal/"
 2137      652F6875 
 2137      6E746572 
 2137      2F646576 
 2137      656C6F70 
 2138 0033 42434D32 		.ascii	"BCM2835/GPIO\000"
 2138      3833352F 
 2138      4750494F 
 2138      00
 2139              	.LASF3:
 2140 0040 73697A65 		.ascii	"size_t\000"
 2140      5F7400
 2141              	.LASF46:
 2142 0047 7264796D 		.ascii	"rdymsg\000"
 2142      736700
 2143              	.LASF4:
 2144 004e 5F5F7569 		.ascii	"__uint8_t\000"
 2144      6E74385F 
 2144      7400
 2145              	.LASF50:
 2146 0058 62736364 		.ascii	"bscdevice_t\000"
 2146      65766963 
 2146      655F7400 
 2147              	.LASF77:
 2148 0064 72786275 		.ascii	"rxbuf\000"
 2148      6600
ARM GAS  /tmp/ccke2mTz.s 			page 39


 2149              	.LASF12:
 2150 006a 6C6F6E67 		.ascii	"long long unsigned int\000"
 2150      206C6F6E 
 2150      6720756E 
 2150      7369676E 
 2150      65642069 
 2151              	.LASF106:
 2152 0081 63684D74 		.ascii	"chMtxUnlock\000"
 2152      78556E6C 
 2152      6F636B00 
 2153              	.LASF73:
 2154 008d 61646472 		.ascii	"addr\000"
 2154      00
 2155              	.LASF87:
 2156 0092 69326353 		.ascii	"i2cStart\000"
 2156      74617274 
 2156      00
 2157              	.LASF47:
 2158 009b 65786974 		.ascii	"exitcode\000"
 2158      636F6465 
 2158      00
 2159              	.LASF95:
 2160 00a4 69326352 		.ascii	"i2cReleaseBus\000"
 2160      656C6561 
 2160      73654275 
 2160      7300
 2161              	.LASF88:
 2162 00b2 69326370 		.ascii	"i2cp\000"
 2162      00
 2163              	.LASF55:
 2164 00b7 64617461 		.ascii	"dataFifo\000"
 2164      4669666F 
 2164      00
 2165              	.LASF28:
 2166 00c0 705F7072 		.ascii	"p_prio\000"
 2166      696F00
 2167              	.LASF91:
 2168 00c7 6932634D 		.ascii	"i2cMasterTransmitTimeout\000"
 2168      61737465 
 2168      72547261 
 2168      6E736D69 
 2168      7454696D 
 2169              	.LASF70:
 2170 00e0 64657669 		.ascii	"device\000"
 2170      636500
 2171              	.LASF11:
 2172 00e7 6C6F6E67 		.ascii	"long long int\000"
 2172      206C6F6E 
 2172      6720696E 
 2172      7400
 2173              	.LASF2:
 2174 00f5 7369676E 		.ascii	"signed char\000"
 2174      65642063 
 2174      68617200 
 2175              	.LASF43:
 2176 0101 6D5F7175 		.ascii	"m_queue\000"
 2176      65756500 
ARM GAS  /tmp/ccke2mTz.s 			page 40


 2177              	.LASF100:
 2178 0109 6932635F 		.ascii	"i2c_lld_master_receive_timeout\000"
 2178      6C6C645F 
 2178      6D617374 
 2178      65725F72 
 2178      65636569 
 2179              	.LASF99:
 2180 0128 6932635F 		.ascii	"i2c_lld_master_transmit_timeout\000"
 2180      6C6C645F 
 2180      6D617374 
 2180      65725F74 
 2180      72616E73 
 2181              	.LASF20:
 2182 0148 74736C69 		.ascii	"tslices_t\000"
 2182      6365735F 
 2182      7400
 2183              	.LASF59:
 2184 0152 4932435F 		.ascii	"I2C_UNINIT\000"
 2184      554E494E 
 2184      495400
 2185              	.LASF81:
 2186 015d 69326361 		.ascii	"i2caddr_t\000"
 2186      6464725F 
 2186      7400
 2187              	.LASF67:
 2188 0167 73746174 		.ascii	"state\000"
 2188      6500
 2189              	.LASF0:
 2190 016d 6C6F6E67 		.ascii	"long int\000"
 2190      20696E74 
 2190      00
 2191              	.LASF19:
 2192 0176 74737461 		.ascii	"tstate_t\000"
 2192      74655F74 
 2192      00
 2193              	.LASF72:
 2194 017f 74687265 		.ascii	"thread\000"
 2194      616400
 2195              	.LASF57:
 2196 0186 64617461 		.ascii	"dataDelay\000"
 2196      44656C61 
 2196      7900
 2197              	.LASF14:
 2198 0190 75696E74 		.ascii	"uint16_t\000"
 2198      31365F74 
 2198      00
 2199              	.LASF53:
 2200 0199 64617461 		.ascii	"dataLength\000"
 2200      4C656E67 
 2200      746800
 2201              	.LASF51:
 2202 01a4 636F6E74 		.ascii	"control\000"
 2202      726F6C00 
 2203              	.LASF10:
 2204 01ac 5F5F7569 		.ascii	"__uint32_t\000"
 2204      6E743332 
 2204      5F7400
ARM GAS  /tmp/ccke2mTz.s 			page 41


 2205              	.LASF39:
 2206 01b7 72656761 		.ascii	"regarm_t\000"
 2206      726D5F74 
 2206      00
 2207              	.LASF54:
 2208 01c0 736C6176 		.ascii	"slaveAddress\000"
 2208      65416464 
 2208      72657373 
 2208      00
 2209              	.LASF17:
 2210 01cd 756E7369 		.ascii	"unsigned int\000"
 2210      676E6564 
 2210      20696E74 
 2210      00
 2211              	.LASF74:
 2212 01da 74786275 		.ascii	"txbuf\000"
 2212      6600
 2213              	.LASF69:
 2214 01e0 6572726F 		.ascii	"errors\000"
 2214      727300
 2215              	.LASF1:
 2216 01e7 6C6F6E67 		.ascii	"long unsigned int\000"
 2216      20756E73 
 2216      69676E65 
 2216      6420696E 
 2216      7400
 2217              	.LASF92:
 2218 01f9 74696D65 		.ascii	"timeout\000"
 2218      6F757400 
 2219              	.LASF8:
 2220 0201 73686F72 		.ascii	"short unsigned int\000"
 2220      7420756E 
 2220      7369676E 
 2220      65642069 
 2220      6E7400
 2221              	.LASF66:
 2222 0214 49324344 		.ascii	"I2CDriver\000"
 2222      72697665 
 2222      7200
 2223              	.LASF22:
 2224 021e 6D73675F 		.ascii	"msg_t\000"
 2224      7400
 2225              	.LASF18:
 2226 0224 746D6F64 		.ascii	"tmode_t\000"
 2226      655F7400 
 2227              	.LASF38:
 2228 022c 54687265 		.ascii	"ThreadsList\000"
 2228      6164734C 
 2228      69737400 
 2229              	.LASF23:
 2230 0238 6576656E 		.ascii	"eventmask_t\000"
 2230      746D6173 
 2230      6B5F7400 
 2231              	.LASF42:
 2232 0244 4D757465 		.ascii	"Mutex\000"
 2232      7800
 2233              	.LASF102:
ARM GAS  /tmp/ccke2mTz.s 			page 42


 2234 024a 474E5520 		.ascii	"GNU C 4.9.3 20150529 (prerelease) -mcpu=arm1176jz-s"
 2234      4320342E 
 2234      392E3320 
 2234      32303135 
 2234      30353239 
 2235 027d 202D6D61 		.ascii	" -mabi=apcs-gnu -mno-thumb-interwork -ggdb -O2 -fom"
 2235      62693D61 
 2235      7063732D 
 2235      676E7520 
 2235      2D6D6E6F 
 2236 02b0 69742D66 		.ascii	"it-frame-pointer -ffunction-sections -fdata-section"
 2236      72616D65 
 2236      2D706F69 
 2236      6E746572 
 2236      202D6666 
 2237 02e3 7300     		.ascii	"s\000"
 2238              	.LASF98:
 2239 02e5 6932635F 		.ascii	"i2c_lld_stop\000"
 2239      6C6C645F 
 2239      73746F70 
 2239      00
 2240              	.LASF60:
 2241 02f2 4932435F 		.ascii	"I2C_STOP\000"
 2241      53544F50 
 2241      00
 2242              	.LASF84:
 2243 02fb 73697A65 		.ascii	"sizetype\000"
 2243      74797065 
 2243      00
 2244              	.LASF56:
 2245 0304 636C6F63 		.ascii	"clockDivider\000"
 2245      6B446976 
 2245      69646572 
 2245      00
 2246              	.LASF82:
 2247 0311 69635F73 		.ascii	"ic_speed\000"
 2247      70656564 
 2247      00
 2248              	.LASF101:
 2249 031a 63684D74 		.ascii	"chMtxLock\000"
 2249      784C6F63 
 2249      6B00
 2250              	.LASF78:
 2251 0324 72786279 		.ascii	"rxbytes\000"
 2251      74657300 
 2252              	.LASF83:
 2253 032c 49324343 		.ascii	"I2CConfig\000"
 2253      6F6E6669 
 2253      6700
 2254              	.LASF37:
 2255 0336 54687265 		.ascii	"ThreadsQueue\000"
 2255      61647351 
 2255      75657565 
 2255      00
 2256              	.LASF75:
 2257 0343 74786279 		.ascii	"txbytes\000"
 2257      74657300 
ARM GAS  /tmp/ccke2mTz.s 			page 43


 2258              	.LASF89:
 2259 034b 69326353 		.ascii	"i2cStop\000"
 2259      746F7000 
 2260              	.LASF32:
 2261 0353 705F7072 		.ascii	"p_preempt\000"
 2261      65656D70 
 2261      7400
 2262              	.LASF79:
 2263 035d 72786964 		.ascii	"rxidx\000"
 2263      7800
 2264              	.LASF65:
 2265 0363 69326373 		.ascii	"i2cstate_t\000"
 2265      74617465 
 2265      5F7400
 2266              	.LASF27:
 2267 036e 705F7072 		.ascii	"p_prev\000"
 2267      657600
 2268              	.LASF94:
 2269 0375 69326341 		.ascii	"i2cAcquireBus\000"
 2269      63717569 
 2269      72654275 
 2269      7300
 2270              	.LASF21:
 2271 0383 74707269 		.ascii	"tprio_t\000"
 2271      6F5F7400 
 2272              	.LASF62:
 2273 038b 4932435F 		.ascii	"I2C_ACTIVE_TX\000"
 2273      41435449 
 2273      56455F54 
 2273      5800
 2274              	.LASF80:
 2275 0399 69326366 		.ascii	"i2cflags_t\000"
 2275      6C616773 
 2275      5F7400
 2276              	.LASF71:
 2277 03a4 6D757465 		.ascii	"mutex\000"
 2277      7800
 2278              	.LASF97:
 2279 03aa 6932635F 		.ascii	"i2c_lld_start\000"
 2279      6C6C645F 
 2279      73746172 
 2279      7400
 2280              	.LASF15:
 2281 03b8 696E7433 		.ascii	"int32_t\000"
 2281      325F7400 
 2282              	.LASF5:
 2283 03c0 756E7369 		.ascii	"unsigned char\000"
 2283      676E6564 
 2283      20636861 
 2283      7200
 2284              	.LASF35:
 2285 03ce 705F6D74 		.ascii	"p_mtxlist\000"
 2285      786C6973 
 2285      7400
 2286              	.LASF6:
 2287 03d8 73686F72 		.ascii	"short int\000"
 2287      7420696E 
ARM GAS  /tmp/ccke2mTz.s 			page 44


 2287      7400
 2288              	.LASF30:
 2289 03e2 705F7374 		.ascii	"p_state\000"
 2289      61746500 
 2290              	.LASF103:
 2291 03ea 2E2E2F2E 		.ascii	"../../../os/hal/src/i2c.c\000"
 2291      2E2F2E2E 
 2291      2F6F732F 
 2291      68616C2F 
 2291      7372632F 
 2292              	.LASF90:
 2293 0404 69326347 		.ascii	"i2cGetErrors\000"
 2293      65744572 
 2293      726F7273 
 2293      00
 2294              	.LASF49:
 2295 0411 65776D61 		.ascii	"ewmask\000"
 2295      736B00
 2296              	.LASF26:
 2297 0418 705F6E65 		.ascii	"p_next\000"
 2297      787400
 2298              	.LASF31:
 2299 041f 705F666C 		.ascii	"p_flags\000"
 2299      61677300 
 2300              	.LASF25:
 2301 0427 54687265 		.ascii	"Thread\000"
 2301      616400
 2302              	.LASF64:
 2303 042e 4932435F 		.ascii	"I2C_LOCKED\000"
 2303      4C4F434B 
 2303      454400
 2304              	.LASF34:
 2305 0439 705F6570 		.ascii	"p_epending\000"
 2305      656E6469 
 2305      6E6700
 2306              	.LASF16:
 2307 0444 75696E74 		.ascii	"uint32_t\000"
 2307      33325F74 
 2307      00
 2308              	.LASF63:
 2309 044d 4932435F 		.ascii	"I2C_ACTIVE_RX\000"
 2309      41435449 
 2309      56455F52 
 2309      5800
 2310              	.LASF68:
 2311 045b 636F6E66 		.ascii	"config\000"
 2311      696700
 2312              	.LASF7:
 2313 0462 5F5F7569 		.ascii	"__uint16_t\000"
 2313      6E743136 
 2313      5F7400
 2314              	.LASF45:
 2315 046d 6D5F6E65 		.ascii	"m_next\000"
 2315      787400
 2316              	.LASF24:
 2317 0474 73797374 		.ascii	"systime_t\000"
 2317      696D655F 
ARM GAS  /tmp/ccke2mTz.s 			page 45


 2317      7400
 2318              	.LASF36:
 2319 047e 705F7265 		.ascii	"p_realprio\000"
 2319      616C7072 
 2319      696F00
 2320              	.LASF9:
 2321 0489 5F5F696E 		.ascii	"__int32_t\000"
 2321      7433325F 
 2321      7400
 2322              	.LASF61:
 2323 0493 4932435F 		.ascii	"I2C_READY\000"
 2323      52454144 
 2323      5900
 2324              	.LASF41:
 2325 049d 636F6E74 		.ascii	"context\000"
 2325      65787400 
 2326              	.LASF40:
 2327 04a5 696E7463 		.ascii	"intctx\000"
 2327      747800
 2328              	.LASF96:
 2329 04ac 63684D74 		.ascii	"chMtxInit\000"
 2329      78496E69 
 2329      7400
 2330              	.LASF76:
 2331 04b6 74786964 		.ascii	"txidx\000"
 2331      7800
 2332              	.LASF105:
 2333 04bc 6932635F 		.ascii	"i2c_lld_init\000"
 2333      6C6C645F 
 2333      696E6974 
 2333      00
 2334              	.LASF52:
 2335 04c9 73746174 		.ascii	"status\000"
 2335      757300
 2336              	.LASF13:
 2337 04d0 75696E74 		.ascii	"uint8_t\000"
 2337      385F7400 
 2338              	.LASF93:
 2339 04d8 6932634D 		.ascii	"i2cMasterReceiveTimeout\000"
 2339      61737465 
 2339      72526563 
 2339      65697665 
 2339      54696D65 
 2340              	.LASF48:
 2341 04f0 77746F62 		.ascii	"wtobjp\000"
 2341      6A7000
 2342              	.LASF85:
 2343 04f7 69326349 		.ascii	"i2cInit\000"
 2343      6E697400 
 2344              	.LASF86:
 2345 04ff 6932634F 		.ascii	"i2cObjectInit\000"
 2345      626A6563 
 2345      74496E69 
 2345      7400
 2346              	.LASF44:
 2347 050d 6D5F6F77 		.ascii	"m_owner\000"
 2347      6E657200 
ARM GAS  /tmp/ccke2mTz.s 			page 46


 2348              	.LASF29:
 2349 0515 705F6374 		.ascii	"p_ctx\000"
 2349      7800
 2350              	.LASF33:
 2351 051b 705F7761 		.ascii	"p_waiting\000"
 2351      6974696E 
 2351      6700
 2352              	.LASF58:
 2353 0525 636C6F63 		.ascii	"clockStretchTimeout\000"
 2353      6B537472 
 2353      65746368 
 2353      54696D65 
 2353      6F757400 
 2354              		.ident	"GCC: (15:4.9.3+svn231177-1) 4.9.3 20150529 (prerelease)"
ARM GAS  /tmp/ccke2mTz.s 			page 47


DEFINED SYMBOLS
                            *ABS*:0000000000000000 i2c.c
     /tmp/ccke2mTz.s:6      .text.i2cInit:0000000000000000 $a
     /tmp/ccke2mTz.s:9      .text.i2cInit:0000000000000000 i2cInit
     /tmp/ccke2mTz.s:24     .text.i2cObjectInit:0000000000000000 $a
     /tmp/ccke2mTz.s:27     .text.i2cObjectInit:0000000000000000 i2cObjectInit
     /tmp/ccke2mTz.s:48     .text.i2cStart:0000000000000000 $a
     /tmp/ccke2mTz.s:51     .text.i2cStart:0000000000000000 i2cStart
     /tmp/ccke2mTz.s:85     .text.i2cStop:0000000000000000 $a
     /tmp/ccke2mTz.s:88     .text.i2cStop:0000000000000000 i2cStop
     /tmp/ccke2mTz.s:120    .text.i2cGetErrors:0000000000000000 $a
     /tmp/ccke2mTz.s:123    .text.i2cGetErrors:0000000000000000 i2cGetErrors
     /tmp/ccke2mTz.s:139    .text.i2cMasterTransmitTimeout:0000000000000000 $a
     /tmp/ccke2mTz.s:142    .text.i2cMasterTransmitTimeout:0000000000000000 i2cMasterTransmitTimeout
     /tmp/ccke2mTz.s:203    .text.i2cMasterReceiveTimeout:0000000000000000 $a
     /tmp/ccke2mTz.s:206    .text.i2cMasterReceiveTimeout:0000000000000000 i2cMasterReceiveTimeout
     /tmp/ccke2mTz.s:261    .text.i2cAcquireBus:0000000000000000 $a
     /tmp/ccke2mTz.s:264    .text.i2cAcquireBus:0000000000000000 i2cAcquireBus
     /tmp/ccke2mTz.s:281    .text.i2cReleaseBus:0000000000000000 $a
     /tmp/ccke2mTz.s:284    .text.i2cReleaseBus:0000000000000000 i2cReleaseBus
                     .debug_frame:0000000000000010 $d

UNDEFINED SYMBOLS
i2c_lld_init
chMtxInit
i2c_lld_start
i2c_lld_stop
i2c_lld_master_transmit_timeout
i2c_lld_master_receive_timeout
chMtxLock
chMtxUnlock
