ARM GAS  /tmp/ccke2mTz.s 			page 1


   1              		.file	"i2c.c"
   2              		.text
   3              	.Ltext0:
   4              		.cfi_sections	.debug_frame
   5              		.section	.text.i2cInit,"ax",%progbits
   6              		.align	2
   7              		.global	i2cInit
   8              		.type	i2cInit, %function
   9              	i2cInit:
  10              	.LFB7:
  11              		.file 1 "../../../os/hal/src/i2c.c"
  12              		.loc 1 64 0
  13              		.cfi_startproc
  14              		@ args = 0, pretend = 0, frame = 0
  15              		@ frame_needed = 0, uses_anonymous_args = 0
  16              		@ link register save eliminated.
  17              		.loc 1 65 0
  18 0000 FEFFFFEA 		b	i2c_lld_init
  19              	.LVL0:
  20              		.cfi_endproc
  21              	.LFE7:
  22              		.size	i2cInit, .-i2cInit
  23              		.section	.text.i2cObjectInit,"ax",%progbits
  24              		.align	2
  25              		.global	i2cObjectInit
  26              		.type	i2cObjectInit, %function
  27              	i2cObjectInit:
  28              	.LFB8:
  29              		.loc 1 75 0
  30              		.cfi_startproc
  31              		@ args = 0, pretend = 0, frame = 0
  32              		@ frame_needed = 0, uses_anonymous_args = 0
  33              		@ link register save eliminated.
  34              	.LVL1:
  35              		.loc 1 78 0
  36 0000 0120A0E3 		mov	r2, #1
  37 0004 0030A0E3 		mov	r3, #0
  38 0008 0C0080E8 		stmia	r0, {r2, r3}
  39              		.loc 1 82 0
  40 000c 100080E2 		add	r0, r0, #16
  41              	.LVL2:
  42 0010 FEFFFFEA 		b	chMtxInit
  43              	.LVL3:
  44              		.cfi_endproc
  45              	.LFE8:
  46              		.size	i2cObjectInit, .-i2cObjectInit
  47              		.section	.text.i2cStart,"ax",%progbits
  48              		.align	2
  49              		.global	i2cStart
  50              		.type	i2cStart, %function
  51              	i2cStart:
  52              	.LFB9:
  53              		.loc 1 101 0
  54              		.cfi_startproc
  55              		@ args = 0, pretend = 0, frame = 0
  56              		@ frame_needed = 0, uses_anonymous_args = 0
  57              	.LVL4:
ARM GAS  /tmp/ccke2mTz.s 			page 2


  58 0000 10402DE9 		stmfd	sp!, {r4, lr}
  59              		.cfi_def_cfa_offset 8
  60              		.cfi_offset 4, -8
  61              		.cfi_offset 14, -4
  62              		.loc 1 101 0
  63 0004 0040A0E1 		mov	r4, r0
  64              		.loc 1 109 0
  65              	@ 109 "../../../os/hal/src/i2c.c" 1
  66 0008 9FF021E3 		msr     CPSR_c, #0x9F
  67              	@ 0 "" 2
  68              		.loc 1 110 0
  69 000c 041080E5 		str	r1, [r0, #4]
  70              		.loc 1 111 0
  71 0010 FEFFFFEB 		bl	i2c_lld_start
  72              	.LVL5:
  73              		.loc 1 112 0
  74 0014 0230A0E3 		mov	r3, #2
  75 0018 003084E5 		str	r3, [r4]
  76              		.loc 1 113 0
  77              	@ 113 "../../../os/hal/src/i2c.c" 1
  78 001c 1FF021E3 		msr     CPSR_c, #0x1F
  79              	@ 0 "" 2
  80 0020 1080BDE8 		ldmfd	sp!, {r4, pc}
  81              		.cfi_endproc
  82              	.LFE9:
  83              		.size	i2cStart, .-i2cStart
  84              		.section	.text.i2cStop,"ax",%progbits
  85              		.align	2
  86              		.global	i2cStop
  87              		.type	i2cStop, %function
  88              	i2cStop:
  89              	.LFB10:
  90              		.loc 1 123 0
  91              		.cfi_startproc
  92              		@ args = 0, pretend = 0, frame = 0
  93              		@ frame_needed = 0, uses_anonymous_args = 0
  94              	.LVL6:
  95 0000 10402DE9 		stmfd	sp!, {r4, lr}
  96              		.cfi_def_cfa_offset 8
  97              		.cfi_offset 4, -8
  98              		.cfi_offset 14, -4
  99              		.loc 1 123 0
 100 0004 0040A0E1 		mov	r4, r0
 101              		.loc 1 131 0
 102              	@ 131 "../../../os/hal/src/i2c.c" 1
 103 0008 9FF021E3 		msr     CPSR_c, #0x9F
 104              	@ 0 "" 2
 105              		.loc 1 132 0
 106 000c FEFFFFEB 		bl	i2c_lld_stop
 107              	.LVL7:
 108              		.loc 1 133 0
 109 0010 0130A0E3 		mov	r3, #1
 110 0014 003084E5 		str	r3, [r4]
 111              		.loc 1 134 0
 112              	@ 134 "../../../os/hal/src/i2c.c" 1
 113 0018 1FF021E3 		msr     CPSR_c, #0x1F
 114              	@ 0 "" 2
ARM GAS  /tmp/ccke2mTz.s 			page 3


 115 001c 1080BDE8 		ldmfd	sp!, {r4, pc}
 116              		.cfi_endproc
 117              	.LFE10:
 118              		.size	i2cStop, .-i2cStop
 119              		.section	.text.i2cGetErrors,"ax",%progbits
 120              		.align	2
 121              		.global	i2cGetErrors
 122              		.type	i2cGetErrors, %function
 123              	i2cGetErrors:
 124              	.LFB11:
 125              		.loc 1 145 0
 126              		.cfi_startproc
 127              		@ args = 0, pretend = 0, frame = 0
 128              		@ frame_needed = 0, uses_anonymous_args = 0
 129              		@ link register save eliminated.
 130              	.LVL8:
 131              		.loc 1 150 0
 132 0000 080090E5 		ldr	r0, [r0, #8]
 133              	.LVL9:
 134 0004 1EFF2FE1 		bx	lr
 135              		.cfi_endproc
 136              	.LFE11:
 137              		.size	i2cGetErrors, .-i2cGetErrors
 138              		.section	.text.i2cMasterTransmitTimeout,"ax",%progbits
 139              		.align	2
 140              		.global	i2cMasterTransmitTimeout
 141              		.type	i2cMasterTransmitTimeout, %function
 142              	i2cMasterTransmitTimeout:
 143              	.LFB12:
 144              		.loc 1 184 0
 145              		.cfi_startproc
 146              		@ args = 12, pretend = 0, frame = 0
 147              		@ frame_needed = 0, uses_anonymous_args = 0
 148              	.LVL10:
 149 0000 F0402DE9 		stmfd	sp!, {r4, r5, r6, r7, lr}
 150              		.cfi_def_cfa_offset 20
 151              		.cfi_offset 4, -20
 152              		.cfi_offset 5, -16
 153              		.cfi_offset 6, -12
 154              		.cfi_offset 7, -8
 155              		.cfi_offset 14, -4
 156 0004 0CD04DE2 		sub	sp, sp, #12
 157              		.cfi_def_cfa_offset 32
 158              		.loc 1 184 0
 159 0008 7110FFE6 		uxth	r1, r1
 160 000c 0040A0E1 		mov	r4, r0
 161 0010 20709DE5 		ldr	r7, [sp, #32]
 162 0014 28609DE5 		ldr	r6, [sp, #40]
 163              		.loc 1 196 0
 164              	@ 196 "../../../os/hal/src/i2c.c" 1
 165 0018 9FF021E3 		msr     CPSR_c, #0x9F
 166              	@ 0 "" 2
 167              		.loc 1 198 0
 168 001c 03E0A0E3 		mov	lr, #3
 169              		.loc 1 197 0
 170 0020 0050A0E3 		mov	r5, #0
 171 0024 24C0DDE5 		ldrb	ip, [sp, #36]	@ zero_extendqisi2
ARM GAS  /tmp/ccke2mTz.s 			page 4


 172              		.loc 1 199 0
 173 0028 00708DE5 		str	r7, [sp]
 174 002c 08608DE5 		str	r6, [sp, #8]
 175              		.loc 1 197 0
 176 0030 085080E5 		str	r5, [r0, #8]
 177              		.loc 1 198 0
 178 0034 00E080E5 		str	lr, [r0]
 179              		.loc 1 199 0
 180 0038 04C08DE5 		str	ip, [sp, #4]
 181 003c FEFFFFEB 		bl	i2c_lld_master_transmit_timeout
 182              	.LVL11:
 183              		.loc 1 201 0
 184 0040 010070E3 		cmn	r0, #1
 185              		.loc 1 202 0
 186 0044 0530A003 		moveq	r3, #5
 187              		.loc 1 204 0
 188 0048 0230A013 		movne	r3, #2
 189 004c 003084E5 		str	r3, [r4]
 190              		.loc 1 205 0
 191              	@ 205 "../../../os/hal/src/i2c.c" 1
 192 0050 1FF021E3 		msr     CPSR_c, #0x1F
 193              	@ 0 "" 2
 194              		.loc 1 207 0
 195 0054 0CD08DE2 		add	sp, sp, #12
 196              		.cfi_def_cfa_offset 20
 197              		@ sp needed
 198 0058 F080BDE8 		ldmfd	sp!, {r4, r5, r6, r7, pc}
 199              		.cfi_endproc
 200              	.LFE12:
 201              		.size	i2cMasterTransmitTimeout, .-i2cMasterTransmitTimeout
 202              		.section	.text.i2cMasterReceiveTimeout,"ax",%progbits
 203              		.align	2
 204              		.global	i2cMasterReceiveTimeout
 205              		.type	i2cMasterReceiveTimeout, %function
 206              	i2cMasterReceiveTimeout:
 207              	.LFB13:
 208              		.loc 1 233 0
 209              		.cfi_startproc
 210              		@ args = 4, pretend = 0, frame = 0
 211              		@ frame_needed = 0, uses_anonymous_args = 0
 212              	.LVL12:
 213 0000 30402DE9 		stmfd	sp!, {r4, r5, lr}
 214              		.cfi_def_cfa_offset 12
 215              		.cfi_offset 4, -12
 216              		.cfi_offset 5, -8
 217              		.cfi_offset 14, -4
 218 0004 04D04DE2 		sub	sp, sp, #4
 219              		.cfi_def_cfa_offset 16
 220              		.loc 1 233 0
 221 0008 7110FFE6 		uxth	r1, r1
 222 000c 0040A0E1 		mov	r4, r0
 223 0010 10509DE5 		ldr	r5, [sp, #16]
 224              		.loc 1 245 0
 225              	@ 245 "../../../os/hal/src/i2c.c" 1
 226 0014 9FF021E3 		msr     CPSR_c, #0x9F
 227              	@ 0 "" 2
 228              		.loc 1 246 0
ARM GAS  /tmp/ccke2mTz.s 			page 5


 229 0018 00E0A0E3 		mov	lr, #0
 230              		.loc 1 247 0
 231 001c 04C0A0E3 		mov	ip, #4
 232              		.loc 1 248 0
 233 0020 00508DE5 		str	r5, [sp]
 234              		.loc 1 246 0
 235 0024 08E080E5 		str	lr, [r0, #8]
 236              		.loc 1 247 0
 237 0028 00C080E5 		str	ip, [r0]
 238              		.loc 1 248 0
 239 002c FEFFFFEB 		bl	i2c_lld_master_receive_timeout
 240              	.LVL13:
 241              		.loc 1 249 0
 242 0030 010070E3 		cmn	r0, #1
 243              		.loc 1 250 0
 244 0034 0530A003 		moveq	r3, #5
 245              		.loc 1 252 0
 246 0038 0230A013 		movne	r3, #2
 247 003c 003084E5 		str	r3, [r4]
 248              		.loc 1 253 0
 249              	@ 253 "../../../os/hal/src/i2c.c" 1
 250 0040 1FF021E3 		msr     CPSR_c, #0x1F
 251              	@ 0 "" 2
 252              		.loc 1 255 0
 253 0044 04D08DE2 		add	sp, sp, #4
 254              		.cfi_def_cfa_offset 12
 255              		@ sp needed
 256 0048 3080BDE8 		ldmfd	sp!, {r4, r5, pc}
 257              		.cfi_endproc
 258              	.LFE13:
 259              		.size	i2cMasterReceiveTimeout, .-i2cMasterReceiveTimeout
 260              		.section	.text.i2cAcquireBus,"ax",%progbits
 261              		.align	2
 262              		.global	i2cAcquireBus
 263              		.type	i2cAcquireBus, %function
 264              	i2cAcquireBus:
 265              	.LFB14:
 266              		.loc 1 269 0
 267              		.cfi_startproc
 268              		@ args = 0, pretend = 0, frame = 0
 269              		@ frame_needed = 0, uses_anonymous_args = 0
 270              		@ link register save eliminated.
 271              	.LVL14:
 272              		.loc 1 274 0
 273 0000 100080E2 		add	r0, r0, #16
 274              	.LVL15:
 275 0004 FEFFFFEA 		b	chMtxLock
 276              	.LVL16:
 277              		.cfi_endproc
 278              	.LFE14:
 279              		.size	i2cAcquireBus, .-i2cAcquireBus
 280              		.section	.text.i2cReleaseBus,"ax",%progbits
 281              		.align	2
 282              		.global	i2cReleaseBus
 283              		.type	i2cReleaseBus, %function
 284              	i2cReleaseBus:
 285              	.LFB15:
ARM GAS  /tmp/ccke2mTz.s 			page 6


 286              		.loc 1 289 0
 287              		.cfi_startproc
 288              		@ args = 0, pretend = 0, frame = 0
 289              		@ frame_needed = 0, uses_anonymous_args = 0
 290              		@ link register save eliminated.
 291              	.LVL17:
 292              		.loc 1 294 0
 293 0000 FEFFFFEA 		b	chMtxUnlock
 294              	.LVL18:
 295              		.cfi_endproc
 296              	.LFE15:
 297              		.size	i2cReleaseBus, .-i2cReleaseBus
 298              		.text
 299              	.Letext0:
 300              		.file 2 "/usr/lib/gcc/arm-none-eabi/4.9.3/include/stddef.h"
 301              		.file 3 "/usr/include/newlib/machine/_default_types.h"
 302              		.file 4 "/usr/include/newlib/sys/_stdint.h"
 303              		.file 5 "../../../os/ports/GCC/ARM/chtypes.h"
 304              		.file 6 "../../../os/kernel/include/chlists.h"
 305              		.file 7 "../../../os/kernel/include/chthreads.h"
 306              		.file 8 "../../../os/ports/GCC/ARM/chcore.h"
 307              		.file 9 "../../../os/kernel/include/chmtx.h"
 308              		.file 10 "../../../os/hal/platforms/BCM2835/bcm2835.h"
 309              		.file 11 "../../../os/hal/include/i2c.h"
 310              		.file 12 "../../../os/hal/platforms/BCM2835/i2c_lld.h"