ARM GAS  /tmp/ccj21Iu9.s 			page 1


   1              		.file	"i2c_lld.c"
   2              		.text
   3              	.Ltext0:
   4              		.cfi_sections	.debug_frame
   5              		.section	.text.i2c_lld_safety_timeout,"ax",%progbits
   6              		.align	2
   7              		.type	i2c_lld_safety_timeout, %function
   8              	i2c_lld_safety_timeout:
   9              	.LFB7:
  10              		.file 1 "../../../os/hal/platforms/BCM2835/i2c_lld.c"
  11              		.loc 1 78 0
  12              		.cfi_startproc
  13              		@ args = 0, pretend = 0, frame = 0
  14              		@ frame_needed = 0, uses_anonymous_args = 0
  15              	.LVL0:
  16              		.loc 1 81 0
  17 0000 201090E5 		ldr	r1, [r0, #32]
  18              		.loc 1 78 0
  19 0004 0030A0E1 		mov	r3, r0
  20              	.LVL1:
  21              		.loc 1 81 0
  22 0008 000051E3 		cmp	r1, #0
  23 000c 1EFF2F01 		bxeq	lr
  24              	.LBB2:
  25              		.loc 1 82 0
  26 0010 0C2090E5 		ldr	r2, [r0, #12]
  27              	.LVL2:
  28              		.loc 1 84 0
  29 0014 080090E5 		ldr	r0, [r0, #8]
  30              	.LVL3:
  31              	.LBE2:
  32              		.loc 1 78 0
  33 0018 10402DE9 		stmfd	sp!, {r4, lr}
  34              		.cfi_def_cfa_offset 8
  35              		.cfi_offset 4, -8
  36              		.cfi_offset 14, -4
  37              	.LBB3:
  38              		.loc 1 85 0
  39 001c 04E092E5 		ldr	lr, [r2, #4]
  40              		.loc 1 84 0
  41 0020 20C080E3 		orr	ip, r0, #32
  42 0024 08C083E5 		str	ip, [r3, #8]
  43              		.loc 1 85 0
  44 0028 020C1EE3 		tst	lr, #512
  45              		.loc 1 90 0
  46 002c 00C0A0E3 		mov	ip, #0
  47              		.loc 1 95 0
  48 0030 00E0E0E3 		mvn	lr, #0
  49              		.loc 1 86 0
  50 0034 21008013 		orrne	r0, r0, #33
  51 0038 08008315 		strne	r0, [r3, #8]
  52              		.loc 1 87 0
  53 003c 040092E5 		ldr	r0, [r2, #4]
  54              		.loc 1 91 0
  55 0040 28409FE5 		ldr	r4, .L13
  56              		.loc 1 87 0
  57 0044 010C10E3 		tst	r0, #256
ARM GAS  /tmp/ccj21Iu9.s 			page 2


  58              		.loc 1 88 0
  59 0048 08009315 		ldrne	r0, [r3, #8]
  60 004c 04008013 		orrne	r0, r0, #4
  61 0050 08008315 		strne	r0, [r3, #8]
  62              		.loc 1 90 0
  63 0054 00C082E5 		str	ip, [r2]
  64              		.loc 1 91 0
  65 0058 044082E5 		str	r4, [r2, #4]
  66              	.LVL4:
  67              		.loc 1 94 0
  68 005c 20C083E5 		str	ip, [r3, #32]
  69              		.loc 1 95 0
  70 0060 14E081E5 		str	lr, [r1, #20]
  71              		.loc 1 96 0
  72 0064 0100A0E1 		mov	r0, r1
  73              	.LBE3:
  74              		.loc 1 99 0
  75 0068 1040BDE8 		ldmfd	sp!, {r4, lr}
  76              		.cfi_restore 14
  77              		.cfi_restore 4
  78              		.cfi_def_cfa_offset 0
  79              	.LBB4:
  80              		.loc 1 96 0
  81 006c FEFFFFEA 		b	chSchReadyI
  82              	.LVL5:
  83              	.L14:
  84              		.align	2
  85              	.L13:
  86 0070 02030000 		.word	770
  87              	.LBE4:
  88              		.cfi_endproc
  89              	.LFE7:
  90              		.size	i2c_lld_safety_timeout, .-i2c_lld_safety_timeout
  91              		.section	.text.i2c_lld_serve_interrupt,"ax",%progbits
  92              		.align	2
  93              		.global	i2c_lld_serve_interrupt
  94              		.type	i2c_lld_serve_interrupt, %function
  95              	i2c_lld_serve_interrupt:
  96              	.LFB8:
  97              		.loc 1 105 0
  98              		.cfi_startproc
  99              		@ args = 0, pretend = 0, frame = 0
 100              		@ frame_needed = 0, uses_anonymous_args = 0
 101              	.LVL6:
 102              		.loc 1 107 0
 103 0000 0C2090E5 		ldr	r2, [r0, #12]
 104              	.LVL7:
 105              		.loc 1 105 0
 106 0004 04E02DE5 		str	lr, [sp, #-4]!
 107              		.cfi_def_cfa_offset 4
 108              		.cfi_offset 14, -4
 109              		.loc 1 108 0
 110 0008 041092E5 		ldr	r1, [r2, #4]
 111              	.LVL8:
 112              		.loc 1 110 0
 113 000c 030C11E3 		tst	r1, #768
 114 0010 0900000A 		beq	.L16
ARM GAS  /tmp/ccj21Iu9.s 			page 3


 115              		.loc 1 112 0
 116 0014 203090E5 		ldr	r3, [r0, #32]
 117 0018 000053E3 		cmp	r3, #0
 118 001c 04F09D04 		ldreq	pc, [sp], #4
 119              	.LVL9:
 120              	.LBB5:
 121              		.loc 1 112 0 is_stmt 0 discriminator 1
 122 0020 0010A0E3 		mov	r1, #0
 123              	.LVL10:
 124 0024 0120E0E3 		mvn	r2, #1
 125              	.LVL11:
 126 0028 201080E5 		str	r1, [r0, #32]
 127 002c 142083E5 		str	r2, [r3, #20]
 128              	.LVL12:
 129 0030 0300A0E1 		mov	r0, r3
 130              	.LVL13:
 131              	.LBE5:
 132              		.loc 1 129 0 is_stmt 1 discriminator 1
 133 0034 04E09DE4 		ldr	lr, [sp], #4
 134              		.cfi_remember_state
 135              		.cfi_restore 14
 136              		.cfi_def_cfa_offset 0
 137              	.LBB6:
 138              		.loc 1 112 0 discriminator 1
 139 0038 FEFFFFEA 		b	chSchReadyI
 140              	.LVL14:
 141              	.L16:
 142              		.cfi_restore_state
 143              	.LBE6:
 144              		.loc 1 114 0
 145 003c 020011E3 		tst	r1, #2
 146 0040 2000000A 		beq	.L19
 147              		.loc 1 115 0
 148 0044 200011E3 		tst	r1, #32
 149 0048 1200000A 		beq	.L24
 150 004c 3C3090E5 		ldr	r3, [r0, #60]
 151 0050 381090E5 		ldr	r1, [r0, #56]
 152              	.LVL15:
 153 0054 030051E1 		cmp	r1, r3
 154 0058 0E00009A 		bls	.L24
 155              		.loc 1 116 0
 156 005c 10C092E5 		ldr	ip, [r2, #16]
 157 0060 341090E5 		ldr	r1, [r0, #52]
 158 0064 01E083E2 		add	lr, r3, #1
 159 0068 3CE080E5 		str	lr, [r0, #60]
 160 006c 03C0C1E7 		strb	ip, [r1, r3]
 161 0070 030000EA 		b	.L29
 162              	.L25:
 163 0074 10E092E5 		ldr	lr, [r2, #16]
 164 0078 341090E5 		ldr	r1, [r0, #52]
 165 007c 3CC080E5 		str	ip, [r0, #60]
 166 0080 03E0C1E7 		strb	lr, [r1, r3]
 167              	.L29:
 168              		.loc 1 115 0 discriminator 1
 169 0084 3C3090E5 		ldr	r3, [r0, #60]
 170 0088 381090E5 		ldr	r1, [r0, #56]
 171              		.loc 1 116 0 discriminator 1
ARM GAS  /tmp/ccj21Iu9.s 			page 4


 172 008c 01C083E2 		add	ip, r3, #1
 173              		.loc 1 115 0 discriminator 1
 174 0090 010053E1 		cmp	r3, r1
 175 0094 F6FFFF3A 		bcc	.L25
 176              	.L24:
 177              		.loc 1 117 0
 178 0098 0010A0E3 		mov	r1, #0
 179              		.loc 1 119 0
 180 009c 203090E5 		ldr	r3, [r0, #32]
 181              		.loc 1 118 0
 182 00a0 B8C09FE5 		ldr	ip, .L44
 183              		.loc 1 119 0
 184 00a4 010053E1 		cmp	r3, r1
 185              		.loc 1 117 0
 186 00a8 001082E5 		str	r1, [r2]
 187              		.loc 1 118 0
 188 00ac 04C082E5 		str	ip, [r2, #4]
 189              		.loc 1 119 0
 190 00b0 2900000A 		beq	.L43
 191              	.LVL16:
 192              	.LBB7:
 193              		.loc 1 119 0 is_stmt 0 discriminator 1
 194 00b4 201080E5 		str	r1, [r0, #32]
 195 00b8 141083E5 		str	r1, [r3, #20]
 196 00bc 0300A0E1 		mov	r0, r3
 197              	.LVL17:
 198              	.LBE7:
 199              		.loc 1 129 0 is_stmt 1 discriminator 1
 200 00c0 04E09DE4 		ldr	lr, [sp], #4
 201              		.cfi_remember_state
 202              		.cfi_restore 14
 203              		.cfi_def_cfa_offset 0
 204              	.LBB8:
 205              		.loc 1 119 0 discriminator 1
 206 00c4 FEFFFFEA 		b	chSchReadyI
 207              	.LVL18:
 208              	.L19:
 209              		.cfi_restore_state
 210              	.LBE8:
 211              		.loc 1 121 0
 212 00c8 040011E3 		tst	r1, #4
 213 00cc 1000000A 		beq	.L26
 214              		.loc 1 122 0
 215 00d0 303090E5 		ldr	r3, [r0, #48]
 216 00d4 2CE090E5 		ldr	lr, [r0, #44]
 217 00d8 03005EE1 		cmp	lr, r3
 218 00dc 04F09D94 		ldrls	pc, [sp], #4
 219 00e0 100011E3 		tst	r1, #16
 220 00e4 04F09D04 		ldreq	pc, [sp], #4
 221 00e8 28C090E5 		ldr	ip, [r0, #40]
 222 00ec 03308CE0 		add	r3, ip, r3
 223 00f0 0EE08CE0 		add	lr, ip, lr
 224 00f4 01C06CE2 		rsb	ip, ip, #1
 225              	.LVL19:
 226              	.L27:
 227 00f8 03108CE0 		add	r1, ip, r3
 228              		.loc 1 123 0
ARM GAS  /tmp/ccj21Iu9.s 			page 5


 229 00fc 301080E5 		str	r1, [r0, #48]
 230 0100 0110D3E4 		ldrb	r1, [r3], #1	@ zero_extendqisi2
 231              		.loc 1 122 0
 232 0104 0E0053E1 		cmp	r3, lr
 233              		.loc 1 123 0
 234 0108 101082E5 		str	r1, [r2, #16]
 235              		.loc 1 122 0
 236 010c F9FFFF1A 		bne	.L27
 237 0110 04F09DE4 		ldr	pc, [sp], #4
 238              	.LVL20:
 239              	.L26:
 240              		.loc 1 125 0
 241 0114 080011E3 		tst	r1, #8
 242 0118 04F09D04 		ldreq	pc, [sp], #4
 243              		.loc 1 126 0
 244 011c 3C3090E5 		ldr	r3, [r0, #60]
 245 0120 38C090E5 		ldr	ip, [r0, #56]
 246 0124 0C0053E1 		cmp	r3, ip
 247 0128 04F09D24 		ldrcs	pc, [sp], #4
 248 012c 200011E3 		tst	r1, #32
 249 0130 04F09D04 		ldreq	pc, [sp], #4
 250              	.LVL21:
 251              	.L28:
 252              		.loc 1 127 0
 253 0134 341090E5 		ldr	r1, [r0, #52]
 254 0138 10C092E5 		ldr	ip, [r2, #16]
 255 013c 01E083E2 		add	lr, r3, #1
 256 0140 3CE080E5 		str	lr, [r0, #60]
 257 0144 03C0C1E7 		strb	ip, [r1, r3]
 258              		.loc 1 126 0
 259 0148 3C3090E5 		ldr	r3, [r0, #60]
 260 014c 381090E5 		ldr	r1, [r0, #56]
 261 0150 010053E1 		cmp	r3, r1
 262 0154 F6FFFF3A 		bcc	.L28
 263 0158 04F09DE4 		ldr	pc, [sp], #4
 264              	.L43:
 265 015c 04F09DE4 		ldr	pc, [sp], #4
 266              	.L45:
 267              		.align	2
 268              	.L44:
 269 0160 02030000 		.word	770
 270              		.cfi_endproc
 271              	.LFE8:
 272              		.size	i2c_lld_serve_interrupt, .-i2c_lld_serve_interrupt
 273              		.section	.text.i2c_lld_init,"ax",%progbits
 274              		.align	2
 275              		.global	i2c_lld_init
 276              		.type	i2c_lld_init, %function
 277              	i2c_lld_init:
 278              	.LFB9:
 279              		.loc 1 140 0
 280              		.cfi_startproc
 281              		@ args = 0, pretend = 0, frame = 0
 282              		@ frame_needed = 0, uses_anonymous_args = 0
 283              		@ link register save eliminated.
 284              		.loc 1 141 0
 285 0000 0C309FE5 		ldr	r3, .L47
ARM GAS  /tmp/ccj21Iu9.s 			page 6


 286 0004 0C209FE5 		ldr	r2, .L47+4
 287              		.loc 1 142 0
 288 0008 0300A0E1 		mov	r0, r3
 289              		.loc 1 141 0
 290 000c 0C2083E5 		str	r2, [r3, #12]
 291              		.loc 1 142 0
 292 0010 FEFFFFEA 		b	i2cObjectInit
 293              	.LVL22:
 294              	.L48:
 295              		.align	2
 296              	.L47:
 297 0014 00000000 		.word	I2C0
 298 0018 00502020 		.word	538988544
 299              		.cfi_endproc
 300              	.LFE9:
 301              		.size	i2c_lld_init, .-i2c_lld_init
 302              		.global	__udivsi3
 303              		.section	.text.i2c_lld_start,"ax",%progbits
 304              		.align	2
 305              		.global	i2c_lld_start
 306              		.type	i2c_lld_start, %function
 307              	i2c_lld_start:
 308              	.LFB10:
 309              		.loc 1 152 0
 310              		.cfi_startproc
 311              		@ args = 0, pretend = 0, frame = 0
 312              		@ frame_needed = 0, uses_anonymous_args = 0
 313              	.LVL23:
 314 0000 10402DE9 		stmfd	sp!, {r4, lr}
 315              		.cfi_def_cfa_offset 8
 316              		.cfi_offset 4, -8
 317              		.cfi_offset 14, -4
 318              		.loc 1 152 0
 319 0004 0040A0E1 		mov	r4, r0
 320              		.loc 1 154 0
 321 0008 0410A0E3 		mov	r1, #4
 322 000c 0000A0E3 		mov	r0, #0
 323              	.LVL24:
 324 0010 FEFFFFEB 		bl	bcm2835_gpio_fnsel
 325              	.LVL25:
 326              		.loc 1 155 0
 327 0014 0410A0E3 		mov	r1, #4
 328 0018 0100A0E3 		mov	r0, #1
 329 001c FEFFFFEB 		bl	bcm2835_gpio_fnsel
 330              	.LVL26:
 331              		.loc 1 157 0
 332 0020 042094E5 		ldr	r2, [r4, #4]
 333              		.loc 1 158 0
 334 0024 34309FE5 		ldr	r3, .L54
 335              		.loc 1 157 0
 336 0028 001092E5 		ldr	r1, [r2]
 337              	.LVL27:
 338              		.loc 1 158 0
 339 002c 030051E1 		cmp	r1, r3
 340 0030 00005113 		cmpne	r1, #0
 341 0034 0700000A 		beq	.L53
 342              		.loc 1 159 0
ARM GAS  /tmp/ccj21Iu9.s 			page 7


 343 0038 24009FE5 		ldr	r0, .L54+4
 344 003c FEFFFFEB 		bl	__udivsi3
 345              	.LVL28:
 346 0040 0C2094E5 		ldr	r2, [r4, #12]
 347 0044 140082E5 		str	r0, [r2, #20]
 348              	.L51:
 349              		.loc 1 161 0
 350 0048 003092E5 		ldr	r3, [r2]
 351 004c 023983E3 		orr	r3, r3, #32768
 352 0050 003082E5 		str	r3, [r2]
 353 0054 1080BDE8 		ldmfd	sp!, {r4, pc}
 354              	.LVL29:
 355              	.L53:
 356 0058 0C2094E5 		ldr	r2, [r4, #12]
 357 005c F9FFFFEA 		b	.L51
 358              	.L55:
 359              		.align	2
 360              	.L54:
 361 0060 A0860100 		.word	100000
 362 0064 80D1F008 		.word	150000000
 363              		.cfi_endproc
 364              	.LFE10:
 365              		.size	i2c_lld_start, .-i2c_lld_start
 366              		.section	.text.i2c_lld_stop,"ax",%progbits
 367              		.align	2
 368              		.global	i2c_lld_stop
 369              		.type	i2c_lld_stop, %function
 370              	i2c_lld_stop:
 371              	.LFB11:
 372              		.loc 1 171 0
 373              		.cfi_startproc
 374              		@ args = 0, pretend = 0, frame = 0
 375              		@ frame_needed = 0, uses_anonymous_args = 0
 376              	.LVL30:
 377 0000 10402DE9 		stmfd	sp!, {r4, lr}
 378              		.cfi_def_cfa_offset 8
 379              		.cfi_offset 4, -8
 380              		.cfi_offset 14, -4
 381              		.loc 1 171 0
 382 0004 0040A0E1 		mov	r4, r0
 383              		.loc 1 173 0
 384 0008 0000A0E3 		mov	r0, #0
 385              	.LVL31:
 386 000c 0010A0E1 		mov	r1, r0
 387 0010 FEFFFFEB 		bl	bcm2835_gpio_fnsel
 388              	.LVL32:
 389              		.loc 1 174 0
 390 0014 0100A0E3 		mov	r0, #1
 391 0018 0010A0E3 		mov	r1, #0
 392 001c FEFFFFEB 		bl	bcm2835_gpio_fnsel
 393              	.LVL33:
 394              		.loc 1 176 0
 395 0020 0C2094E5 		ldr	r2, [r4, #12]
 396 0024 003092E5 		ldr	r3, [r2]
 397 0028 0239C3E3 		bic	r3, r3, #32768
 398 002c 003082E5 		str	r3, [r2]
 399 0030 1080BDE8 		ldmfd	sp!, {r4, pc}
ARM GAS  /tmp/ccj21Iu9.s 			page 8


 400              		.cfi_endproc
 401              	.LFE11:
 402              		.size	i2c_lld_stop, .-i2c_lld_stop
 403              		.section	.text.i2c_lld_master_receive_timeout,"ax",%progbits
 404              		.align	2
 405              		.global	i2c_lld_master_receive_timeout
 406              		.type	i2c_lld_master_receive_timeout, %function
 407              	i2c_lld_master_receive_timeout:
 408              	.LFB13:
 409              		.loc 1 261 0
 410              		.cfi_startproc
 411              		@ args = 4, pretend = 0, frame = 20
 412              		@ frame_needed = 0, uses_anonymous_args = 0
 413              	.LVL34:
 414 0000 F0412DE9 		stmfd	sp!, {r4, r5, r6, r7, r8, lr}
 415              		.cfi_def_cfa_offset 24
 416              		.cfi_offset 4, -24
 417              		.cfi_offset 5, -20
 418              		.cfi_offset 6, -16
 419              		.cfi_offset 7, -12
 420              		.cfi_offset 8, -8
 421              		.cfi_offset 14, -4
 422 0004 14D04DE2 		sub	sp, sp, #20
 423              		.cfi_def_cfa_offset 44
 424              		.loc 1 261 0
 425 0008 2C509DE5 		ldr	r5, [sp, #44]
 426 000c 0040A0E1 		mov	r4, r0
 427              		.loc 1 265 0
 428 0010 010075E3 		cmn	r5, #1
 429              		.loc 1 261 0
 430 0014 0280A0E1 		mov	r8, r2
 431 0018 0360A0E1 		mov	r6, r3
 432 001c 7170FFE6 		uxth	r7, r1
 433              		.loc 1 265 0
 434 0020 0400000A 		beq	.L59
 435              		.loc 1 266 0
 436 0024 0D00A0E1 		mov	r0, sp
 437              	.LVL35:
 438 0028 0510A0E1 		mov	r1, r5
 439              	.LVL36:
 440 002c 88209FE5 		ldr	r2, .L71
 441              	.LVL37:
 442 0030 0430A0E1 		mov	r3, r4
 443              	.LVL38:
 444 0034 FEFFFFEB 		bl	chVTSetI
 445              	.LVL39:
 446              	.L59:
 447              		.loc 1 269 0
 448 0038 0020A0E3 		mov	r2, #0
 449              		.loc 1 277 0
 450 003c 0C3094E5 		ldr	r3, [r4, #12]
 451              	.LVL40:
 452              		.loc 1 280 0
 453 0040 78009FE5 		ldr	r0, .L71+4
 454              		.loc 1 283 0
 455 0044 78109FE5 		ldr	r1, .L71+8
 456              		.loc 1 268 0
ARM GAS  /tmp/ccj21Iu9.s 			page 9


 457 0048 B472C4E1 		strh	r7, [r4, #36]	@ movhi
 458              		.loc 1 272 0
 459 004c 348084E5 		str	r8, [r4, #52]
 460              		.loc 1 273 0
 461 0050 386084E5 		str	r6, [r4, #56]
 462              		.loc 1 269 0
 463 0054 282084E5 		str	r2, [r4, #40]
 464              		.loc 1 270 0
 465 0058 2C2084E5 		str	r2, [r4, #44]
 466              		.loc 1 271 0
 467 005c 302084E5 		str	r2, [r4, #48]
 468              		.loc 1 274 0
 469 0060 3C2084E5 		str	r2, [r4, #60]
 470              		.loc 1 278 0
 471 0064 0C7083E5 		str	r7, [r3, #12]
 472              		.loc 1 279 0
 473 0068 086083E5 		str	r6, [r3, #8]
 474              		.loc 1 280 0
 475 006c 040083E5 		str	r0, [r3, #4]
 476              		.loc 1 283 0
 477 0070 001083E5 		str	r1, [r3]
 478              		.loc 1 286 0
 479              	@ 286 "../../../os/hal/platforms/BCM2835/i2c_lld.c" 1
 480 0074 9FF021E3 		msr     CPSR_c, #0x9F
 481              	@ 0 "" 2
 482              		.loc 1 287 0
 483 0078 48609FE5 		ldr	r6, .L71+12
 484              	.LVL41:
 485              		.loc 1 288 0
 486 007c 0200A0E3 		mov	r0, #2
 487              		.loc 1 287 0
 488 0080 103096E5 		ldr	r3, [r6, #16]
 489              	.LVL42:
 490 0084 203084E5 		str	r3, [r4, #32]
 491              		.loc 1 288 0
 492 0088 FEFFFFEB 		bl	chSchGoSleepS
 493              	.LVL43:
 494              		.loc 1 289 0
 495 008c 010075E3 		cmn	r5, #1
 496 0090 0400000A 		beq	.L60
 497              		.loc 1 289 0 is_stmt 0 discriminator 1
 498 0094 0C309DE5 		ldr	r3, [sp, #12]
 499 0098 000053E3 		cmp	r3, #0
 500 009c 0100000A 		beq	.L60
 501              		.loc 1 290 0 is_stmt 1
 502 00a0 0D00A0E1 		mov	r0, sp
 503 00a4 FEFFFFEB 		bl	chVTResetI
 504              	.LVL44:
 505              	.L60:
 506              		.loc 1 291 0
 507              	@ 291 "../../../os/hal/platforms/BCM2835/i2c_lld.c" 1
 508 00a8 1FF021E3 		msr     CPSR_c, #0x1F
 509              	@ 0 "" 2
 510              		.loc 1 293 0
 511 00ac 103096E5 		ldr	r3, [r6, #16]
 512              		.loc 1 294 0
 513 00b0 140093E5 		ldr	r0, [r3, #20]
ARM GAS  /tmp/ccj21Iu9.s 			page 10


 514 00b4 14D08DE2 		add	sp, sp, #20
 515              		.cfi_def_cfa_offset 24
 516              		@ sp needed
 517 00b8 F081BDE8 		ldmfd	sp!, {r4, r5, r6, r7, r8, pc}
 518              	.LVL45:
 519              	.L72:
 520              		.align	2
 521              	.L71:
 522 00bc 00000000 		.word	i2c_lld_safety_timeout
 523 00c0 02030000 		.word	770
 524 00c4 91850000 		.word	34193
 525 00c8 00000000 		.word	rlist
 526              		.cfi_endproc
 527              	.LFE13:
 528              		.size	i2c_lld_master_receive_timeout, .-i2c_lld_master_receive_timeout
 529              		.section	.text.i2c_lld_master_transmit_timeout,"ax",%progbits
 530              		.align	2
 531              		.global	i2c_lld_master_transmit_timeout
 532              		.type	i2c_lld_master_transmit_timeout, %function
 533              	i2c_lld_master_transmit_timeout:
 534              	.LFB12:
 535              		.loc 1 198 0
 536              		.cfi_startproc
 537              		@ args = 12, pretend = 0, frame = 20
 538              		@ frame_needed = 0, uses_anonymous_args = 0
 539              	.LVL46:
 540 0000 F0472DE9 		stmfd	sp!, {r4, r5, r6, r7, r8, r9, r10, lr}
 541              		.cfi_def_cfa_offset 32
 542              		.cfi_offset 4, -32
 543              		.cfi_offset 5, -28
 544              		.cfi_offset 6, -24
 545              		.cfi_offset 7, -20
 546              		.cfi_offset 8, -16
 547              		.cfi_offset 9, -12
 548              		.cfi_offset 10, -8
 549              		.cfi_offset 14, -4
 550 0004 18D04DE2 		sub	sp, sp, #24
 551              		.cfi_def_cfa_offset 56
 552              		.loc 1 198 0
 553 0008 40509DE5 		ldr	r5, [sp, #64]
 554 000c 0040A0E1 		mov	r4, r0
 555              		.loc 1 202 0
 556 0010 010075E3 		cmn	r5, #1
 557              		.loc 1 198 0
 558 0014 02A0A0E1 		mov	r10, r2
 559 0018 0390A0E1 		mov	r9, r3
 560 001c 7170FFE6 		uxth	r7, r1
 561 0020 38809DE5 		ldr	r8, [sp, #56]
 562 0024 3C60DDE5 		ldrb	r6, [sp, #60]	@ zero_extendqisi2
 563              		.loc 1 202 0
 564 0028 0400000A 		beq	.L74
 565              		.loc 1 203 0
 566 002c 04008DE2 		add	r0, sp, #4
 567              	.LVL47:
 568 0030 0510A0E1 		mov	r1, r5
 569              	.LVL48:
 570 0034 F4209FE5 		ldr	r2, .L97
ARM GAS  /tmp/ccj21Iu9.s 			page 11


 571              	.LVL49:
 572 0038 0430A0E1 		mov	r3, r4
 573              	.LVL50:
 574 003c FEFFFFEB 		bl	chVTSetI
 575              	.LVL51:
 576              	.L74:
 577              		.loc 1 208 0
 578 0040 0020A0E3 		mov	r2, #0
 579              		.loc 1 213 0
 580 0044 0C3094E5 		ldr	r3, [r4, #12]
 581              	.LVL52:
 582              		.loc 1 216 0
 583 0048 E4109FE5 		ldr	r1, .L97+4
 584              		.loc 1 208 0
 585 004c 302084E5 		str	r2, [r4, #48]
 586              		.loc 1 211 0
 587 0050 3C2084E5 		str	r2, [r4, #60]
 588              		.loc 1 205 0
 589 0054 B472C4E1 		strh	r7, [r4, #36]	@ movhi
 590              		.loc 1 206 0
 591 0058 28A084E5 		str	r10, [r4, #40]
 592              		.loc 1 207 0
 593 005c 2C9084E5 		str	r9, [r4, #44]
 594              		.loc 1 209 0
 595 0060 348084E5 		str	r8, [r4, #52]
 596              		.loc 1 210 0
 597 0064 386084E5 		str	r6, [r4, #56]
 598              		.loc 1 214 0
 599 0068 0C7083E5 		str	r7, [r3, #12]
 600              		.loc 1 215 0
 601 006c 089083E5 		str	r9, [r3, #8]
 602              		.loc 1 216 0
 603 0070 041083E5 		str	r1, [r3, #4]
 604              		.loc 1 219 0
 605 0074 002093E5 		ldr	r2, [r3]
 606 0078 832C82E3 		orr	r2, r2, #33536
 607 007c 802082E3 		orr	r2, r2, #128
 608 0080 002083E5 		str	r2, [r3]
 609              		.loc 1 222 0
 610              	@ 222 "../../../os/hal/platforms/BCM2835/i2c_lld.c" 1
 611 0084 9FF021E3 		msr     CPSR_c, #0x9F
 612              	@ 0 "" 2
 613              		.loc 1 224 0
 614 0088 A8909FE5 		ldr	r9, .L97+8
 615              	.LVL53:
 616              		.loc 1 225 0
 617 008c 0200A0E3 		mov	r0, #2
 618              		.loc 1 224 0
 619 0090 103099E5 		ldr	r3, [r9, #16]
 620              	.LVL54:
 621 0094 203084E5 		str	r3, [r4, #32]
 622              		.loc 1 225 0
 623 0098 FEFFFFEB 		bl	chSchGoSleepS
 624              	.LVL55:
 625              		.loc 1 226 0
 626 009c 010075E3 		cmn	r5, #1
 627 00a0 0400000A 		beq	.L75
ARM GAS  /tmp/ccj21Iu9.s 			page 12


 628              		.loc 1 226 0 is_stmt 0 discriminator 1
 629 00a4 10309DE5 		ldr	r3, [sp, #16]
 630 00a8 000053E3 		cmp	r3, #0
 631 00ac 0100000A 		beq	.L75
 632              		.loc 1 227 0 is_stmt 1
 633 00b0 04008DE2 		add	r0, sp, #4
 634 00b4 FEFFFFEB 		bl	chVTResetI
 635              	.LVL56:
 636              	.L75:
 637              		.loc 1 229 0
 638              	@ 229 "../../../os/hal/platforms/BCM2835/i2c_lld.c" 1
 639 00b8 1FF021E3 		msr     CPSR_c, #0x1F
 640              	@ 0 "" 2
 641              		.loc 1 231 0
 642 00bc 103099E5 		ldr	r3, [r9, #16]
 643 00c0 149093E5 		ldr	r9, [r3, #20]
 644              	.LVL57:
 645              		.loc 1 233 0
 646 00c4 003096E2 		adds	r3, r6, #0
 647 00c8 0130A013 		movne	r3, #1
 648 00cc 000059E3 		cmp	r9, #0
 649 00d0 0030A013 		movne	r3, #0
 650 00d4 000053E3 		cmp	r3, #0
 651 00d8 0200001A 		bne	.L96
 652              	.L76:
 653              		.loc 1 242 0
 654 00dc 0900A0E1 		mov	r0, r9
 655 00e0 18D08DE2 		add	sp, sp, #24
 656              		.cfi_remember_state
 657              		.cfi_def_cfa_offset 32
 658              		@ sp needed
 659 00e4 F087BDE8 		ldmfd	sp!, {r4, r5, r6, r7, r8, r9, r10, pc}
 660              	.LVL58:
 661              	.L96:
 662              		.cfi_restore_state
 663              		.loc 1 235 0
 664 00e8 00C0E0E3 		mvn	ip, #0
 665 00ec 0400A0E1 		mov	r0, r4
 666 00f0 0710A0E1 		mov	r1, r7
 667 00f4 0820A0E1 		mov	r2, r8
 668 00f8 0630A0E1 		mov	r3, r6
 669 00fc 00C08DE5 		str	ip, [sp]
 670 0100 FEFFFFEB 		bl	i2c_lld_master_receive_timeout
 671              	.LVL59:
 672              		.loc 1 237 0
 673 0104 010075E3 		cmn	r5, #1
 674              		.loc 1 235 0
 675 0108 0090A0E1 		mov	r9, r0
 676              	.LVL60:
 677              		.loc 1 237 0
 678 010c F2FFFF0A 		beq	.L76
 679              		.loc 1 237 0 is_stmt 0 discriminator 1
 680 0110 10309DE5 		ldr	r3, [sp, #16]
 681 0114 000053E3 		cmp	r3, #0
 682 0118 EFFFFF0A 		beq	.L76
 683              		.loc 1 238 0 is_stmt 1
 684 011c 04008DE2 		add	r0, sp, #4
ARM GAS  /tmp/ccj21Iu9.s 			page 13


 685              	.LVL61:
 686 0120 FEFFFFEB 		bl	chVTResetI
 687              	.LVL62:
 688              		.loc 1 242 0
 689 0124 0900A0E1 		mov	r0, r9
 690 0128 18D08DE2 		add	sp, sp, #24
 691              		.cfi_def_cfa_offset 32
 692              		@ sp needed
 693 012c F087BDE8 		ldmfd	sp!, {r4, r5, r6, r7, r8, r9, r10, pc}
 694              	.LVL63:
 695              	.L98:
 696              		.align	2
 697              	.L97:
 698 0130 00000000 		.word	i2c_lld_safety_timeout
 699 0134 02030000 		.word	770
 700 0138 00000000 		.word	rlist
 701              		.cfi_endproc
 702              	.LFE12:
 703              		.size	i2c_lld_master_transmit_timeout, .-i2c_lld_master_transmit_timeout
 704              		.comm	I2C0,64,4
 705              		.text
 706              	.Letext0:
 707              		.file 2 "/usr/lib/gcc/arm-none-eabi/4.9.3/include/stddef.h"
 708              		.file 3 "/usr/include/newlib/machine/_default_types.h"
 709              		.file 4 "/usr/include/newlib/sys/_stdint.h"
 710              		.file 5 "../../../os/ports/GCC/ARM/chtypes.h"
 711              		.file 6 "../../../os/kernel/include/chlists.h"
 712              		.file 7 "../../../os/kernel/include/chthreads.h"
 713              		.file 8 "../../../os/ports/GCC/ARM/chcore.h"
 714              		.file 9 "../../../os/kernel/include/chvt.h"
 715              		.file 10 "../../../os/kernel/include/chschd.h"
 716              		.file 11 "../../../os/kernel/include/chmtx.h"
 717              		.file 12 "../../../os/hal/platforms/BCM2835/bcm2835.h"
 718              		.file 13 "../../../os/hal/include/i2c.h"
 719              		.file 14 "../../../os/hal/platforms/BCM2835/i2c_lld.h"
 720              		.section	.debug_info,"",%progbits
 721              	.Ldebug_info0:
 722 0000 180A0000 		.4byte	0xa18
 723 0004 0400     		.2byte	0x4
 724 0006 00000000 		.4byte	.Ldebug_abbrev0
 725 000a 04       		.byte	0x4
 726 000b 01       		.uleb128 0x1
 727 000c 2C020000 		.4byte	.LASF112
 728 0010 01       		.byte	0x1
 729 0011 D4020000 		.4byte	.LASF113
 730 0015 00000000 		.4byte	.LASF114
 731 0019 50000000 		.4byte	.Ldebug_ranges0+0x50
 732 001d 00000000 		.4byte	0
 733 0021 00000000 		.4byte	.Ldebug_line0
 734 0025 02       		.uleb128 0x2
 735 0026 04       		.byte	0x4
 736 0027 05       		.byte	0x5
 737 0028 31010000 		.4byte	.LASF0
 738 002c 03       		.uleb128 0x3
 739 002d 40000000 		.4byte	.LASF3
 740 0031 02       		.byte	0x2
 741 0032 D4       		.byte	0xd4
ARM GAS  /tmp/ccj21Iu9.s 			page 14


 742 0033 37000000 		.4byte	0x37
 743 0037 02       		.uleb128 0x2
 744 0038 04       		.byte	0x4
 745 0039 07       		.byte	0x7
 746 003a C0010000 		.4byte	.LASF1
 747 003e 02       		.uleb128 0x2
 748 003f 01       		.byte	0x1
 749 0040 06       		.byte	0x6
 750 0041 B9000000 		.4byte	.LASF2
 751 0045 03       		.uleb128 0x3
 752 0046 4E000000 		.4byte	.LASF4
 753 004a 03       		.byte	0x3
 754 004b 1D       		.byte	0x1d
 755 004c 50000000 		.4byte	0x50
 756 0050 02       		.uleb128 0x2
 757 0051 01       		.byte	0x1
 758 0052 08       		.byte	0x8
 759 0053 E0030000 		.4byte	.LASF5
 760 0057 02       		.uleb128 0x2
 761 0058 02       		.byte	0x2
 762 0059 05       		.byte	0x5
 763 005a F8030000 		.4byte	.LASF6
 764 005e 03       		.uleb128 0x3
 765 005f BD040000 		.4byte	.LASF7
 766 0063 03       		.byte	0x3
 767 0064 2B       		.byte	0x2b
 768 0065 69000000 		.4byte	0x69
 769 0069 02       		.uleb128 0x2
 770 006a 02       		.byte	0x2
 771 006b 07       		.byte	0x7
 772 006c E3010000 		.4byte	.LASF8
 773 0070 03       		.uleb128 0x3
 774 0071 E4040000 		.4byte	.LASF9
 775 0075 03       		.byte	0x3
 776 0076 3F       		.byte	0x3f
 777 0077 25000000 		.4byte	0x25
 778 007b 03       		.uleb128 0x3
 779 007c 70010000 		.4byte	.LASF10
 780 0080 03       		.byte	0x3
 781 0081 41       		.byte	0x41
 782 0082 37000000 		.4byte	0x37
 783 0086 02       		.uleb128 0x2
 784 0087 08       		.byte	0x8
 785 0088 05       		.byte	0x5
 786 0089 AB000000 		.4byte	.LASF11
 787 008d 02       		.uleb128 0x2
 788 008e 08       		.byte	0x8
 789 008f 07       		.byte	0x7
 790 0090 6A000000 		.4byte	.LASF12
 791 0094 03       		.uleb128 0x3
 792 0095 38050000 		.4byte	.LASF13
 793 0099 04       		.byte	0x4
 794 009a 14       		.byte	0x14
 795 009b 45000000 		.4byte	0x45
 796 009f 03       		.uleb128 0x3
 797 00a0 54010000 		.4byte	.LASF14
 798 00a4 04       		.byte	0x4
ARM GAS  /tmp/ccj21Iu9.s 			page 15


 799 00a5 1A       		.byte	0x1a
 800 00a6 5E000000 		.4byte	0x5e
 801 00aa 03       		.uleb128 0x3
 802 00ab D8030000 		.4byte	.LASF15
 803 00af 04       		.byte	0x4
 804 00b0 1F       		.byte	0x1f
 805 00b1 70000000 		.4byte	0x70
 806 00b5 03       		.uleb128 0x3
 807 00b6 67040000 		.4byte	.LASF16
 808 00ba 04       		.byte	0x4
 809 00bb 20       		.byte	0x20
 810 00bc 7B000000 		.4byte	0x7b
 811 00c0 04       		.uleb128 0x4
 812 00c1 04       		.byte	0x4
 813 00c2 05       		.byte	0x5
 814 00c3 696E7400 		.ascii	"int\000"
 815 00c7 02       		.uleb128 0x2
 816 00c8 04       		.byte	0x4
 817 00c9 07       		.byte	0x7
 818 00ca 9E010000 		.4byte	.LASF17
 819 00ce 03       		.uleb128 0x3
 820 00cf 06020000 		.4byte	.LASF18
 821 00d3 05       		.byte	0x5
 822 00d4 2A       		.byte	0x2a
 823 00d5 94000000 		.4byte	0x94
 824 00d9 03       		.uleb128 0x3
 825 00da 3A010000 		.4byte	.LASF19
 826 00de 05       		.byte	0x5
 827 00df 2B       		.byte	0x2b
 828 00e0 94000000 		.4byte	0x94
 829 00e4 03       		.uleb128 0x3
 830 00e5 0C010000 		.4byte	.LASF20
 831 00e9 05       		.byte	0x5
 832 00ea 2D       		.byte	0x2d
 833 00eb 94000000 		.4byte	0x94
 834 00ef 03       		.uleb128 0x3
 835 00f0 A3030000 		.4byte	.LASF21
 836 00f4 05       		.byte	0x5
 837 00f5 2E       		.byte	0x2e
 838 00f6 B5000000 		.4byte	0xb5
 839 00fa 03       		.uleb128 0x3
 840 00fb 00020000 		.4byte	.LASF22
 841 00ff 05       		.byte	0x5
 842 0100 2F       		.byte	0x2f
 843 0101 AA000000 		.4byte	0xaa
 844 0105 03       		.uleb128 0x3
 845 0106 1A020000 		.4byte	.LASF23
 846 010a 05       		.byte	0x5
 847 010b 31       		.byte	0x31
 848 010c B5000000 		.4byte	0xb5
 849 0110 03       		.uleb128 0x3
 850 0111 CF040000 		.4byte	.LASF24
 851 0115 05       		.byte	0x5
 852 0116 33       		.byte	0x33
 853 0117 B5000000 		.4byte	0xb5
 854 011b 03       		.uleb128 0x3
 855 011c 31040000 		.4byte	.LASF25
ARM GAS  /tmp/ccj21Iu9.s 			page 16


 856 0120 06       		.byte	0x6
 857 0121 23       		.byte	0x23
 858 0122 26010000 		.4byte	0x126
 859 0126 05       		.uleb128 0x5
 860 0127 31040000 		.4byte	.LASF25
 861 012b 28       		.byte	0x28
 862 012c 07       		.byte	0x7
 863 012d 57       		.byte	0x57
 864 012e C3010000 		.4byte	0x1c3
 865 0132 06       		.uleb128 0x6
 866 0133 22040000 		.4byte	.LASF26
 867 0137 07       		.byte	0x7
 868 0138 58       		.byte	0x58
 869 0139 E4010000 		.4byte	0x1e4
 870 013d 00       		.byte	0
 871 013e 06       		.uleb128 0x6
 872 013f 9C030000 		.4byte	.LASF27
 873 0143 07       		.byte	0x7
 874 0144 5A       		.byte	0x5a
 875 0145 E4010000 		.4byte	0x1e4
 876 0149 04       		.byte	0x4
 877 014a 06       		.uleb128 0x6
 878 014b 9D000000 		.4byte	.LASF28
 879 014f 07       		.byte	0x7
 880 0150 5C       		.byte	0x5c
 881 0151 EF000000 		.4byte	0xef
 882 0155 08       		.byte	0x8
 883 0156 06       		.uleb128 0x6
 884 0157 7B050000 		.4byte	.LASF29
 885 015b 07       		.byte	0x7
 886 015c 5D       		.byte	0x5d
 887 015d 94020000 		.4byte	0x294
 888 0161 0C       		.byte	0xc
 889 0162 06       		.uleb128 0x6
 890 0163 02040000 		.4byte	.LASF30
 891 0167 07       		.byte	0x7
 892 0168 72       		.byte	0x72
 893 0169 D9000000 		.4byte	0xd9
 894 016d 10       		.byte	0x10
 895 016e 06       		.uleb128 0x6
 896 016f 29040000 		.4byte	.LASF31
 897 0173 07       		.byte	0x7
 898 0174 76       		.byte	0x76
 899 0175 CE000000 		.4byte	0xce
 900 0179 11       		.byte	0x11
 901 017a 06       		.uleb128 0x6
 902 017b 0A040000 		.4byte	.LASF32
 903 017f 07       		.byte	0x7
 904 0180 81       		.byte	0x81
 905 0181 E4000000 		.4byte	0xe4
 906 0185 12       		.byte	0x12
 907 0186 07       		.uleb128 0x7
 908 0187 705F7500 		.ascii	"p_u\000"
 909 018b 07       		.byte	0x7
 910 018c AD       		.byte	0xad
 911 018d AF030000 		.4byte	0x3af
 912 0191 14       		.byte	0x14
ARM GAS  /tmp/ccj21Iu9.s 			page 17


 913 0192 06       		.uleb128 0x6
 914 0193 81050000 		.4byte	.LASF33
 915 0197 07       		.byte	0x7
 916 0198 B2       		.byte	0xb2
 917 0199 0A020000 		.4byte	0x20a
 918 019d 18       		.byte	0x18
 919 019e 06       		.uleb128 0x6
 920 019f 5C040000 		.4byte	.LASF34
 921 01a3 07       		.byte	0x7
 922 01a4 C2       		.byte	0xc2
 923 01a5 05010000 		.4byte	0x105
 924 01a9 1C       		.byte	0x1c
 925 01aa 06       		.uleb128 0x6
 926 01ab EE030000 		.4byte	.LASF35
 927 01af 07       		.byte	0x7
 928 01b0 C9       		.byte	0xc9
 929 01b1 E4030000 		.4byte	0x3e4
 930 01b5 20       		.byte	0x20
 931 01b6 06       		.uleb128 0x6
 932 01b7 D9040000 		.4byte	.LASF36
 933 01bb 07       		.byte	0x7
 934 01bc CD       		.byte	0xcd
 935 01bd EF000000 		.4byte	0xef
 936 01c1 24       		.byte	0x24
 937 01c2 00       		.byte	0
 938 01c3 08       		.uleb128 0x8
 939 01c4 08       		.byte	0x8
 940 01c5 06       		.byte	0x6
 941 01c6 5A       		.byte	0x5a
 942 01c7 E4010000 		.4byte	0x1e4
 943 01cb 06       		.uleb128 0x6
 944 01cc 22040000 		.4byte	.LASF26
 945 01d0 06       		.byte	0x6
 946 01d1 5B       		.byte	0x5b
 947 01d2 E4010000 		.4byte	0x1e4
 948 01d6 00       		.byte	0
 949 01d7 06       		.uleb128 0x6
 950 01d8 9C030000 		.4byte	.LASF27
 951 01dc 06       		.byte	0x6
 952 01dd 5D       		.byte	0x5d
 953 01de E4010000 		.4byte	0x1e4
 954 01e2 04       		.byte	0x4
 955 01e3 00       		.byte	0
 956 01e4 09       		.uleb128 0x9
 957 01e5 04       		.byte	0x4
 958 01e6 1B010000 		.4byte	0x11b
 959 01ea 03       		.uleb128 0x3
 960 01eb 59030000 		.4byte	.LASF37
 961 01ef 06       		.byte	0x6
 962 01f0 5F       		.byte	0x5f
 963 01f1 C3010000 		.4byte	0x1c3
 964 01f5 08       		.uleb128 0x8
 965 01f6 04       		.byte	0x4
 966 01f7 06       		.byte	0x6
 967 01f8 64       		.byte	0x64
 968 01f9 0A020000 		.4byte	0x20a
 969 01fd 06       		.uleb128 0x6
ARM GAS  /tmp/ccj21Iu9.s 			page 18


 970 01fe 22040000 		.4byte	.LASF26
 971 0202 06       		.byte	0x6
 972 0203 66       		.byte	0x66
 973 0204 E4010000 		.4byte	0x1e4
 974 0208 00       		.byte	0
 975 0209 00       		.byte	0
 976 020a 03       		.uleb128 0x3
 977 020b 0E020000 		.4byte	.LASF38
 978 020f 06       		.byte	0x6
 979 0210 69       		.byte	0x69
 980 0211 F5010000 		.4byte	0x1f5
 981 0215 03       		.uleb128 0x3
 982 0216 7B010000 		.4byte	.LASF39
 983 021a 08       		.byte	0x8
 984 021b A2       		.byte	0xa2
 985 021c 20020000 		.4byte	0x220
 986 0220 0A       		.uleb128 0xa
 987 0221 04       		.byte	0x4
 988 0222 05       		.uleb128 0x5
 989 0223 00050000 		.4byte	.LASF40
 990 0227 24       		.byte	0x24
 991 0228 08       		.byte	0x8
 992 0229 B9       		.byte	0xb9
 993 022a 94020000 		.4byte	0x294
 994 022e 07       		.uleb128 0x7
 995 022f 723400   		.ascii	"r4\000"
 996 0232 08       		.byte	0x8
 997 0233 BA       		.byte	0xba
 998 0234 15020000 		.4byte	0x215
 999 0238 00       		.byte	0
 1000 0239 07       		.uleb128 0x7
 1001 023a 723500   		.ascii	"r5\000"
 1002 023d 08       		.byte	0x8
 1003 023e BB       		.byte	0xbb
 1004 023f 15020000 		.4byte	0x215
 1005 0243 04       		.byte	0x4
 1006 0244 07       		.uleb128 0x7
 1007 0245 723600   		.ascii	"r6\000"
 1008 0248 08       		.byte	0x8
 1009 0249 BC       		.byte	0xbc
 1010 024a 15020000 		.4byte	0x215
 1011 024e 08       		.byte	0x8
 1012 024f 07       		.uleb128 0x7
 1013 0250 723700   		.ascii	"r7\000"
 1014 0253 08       		.byte	0x8
 1015 0254 BD       		.byte	0xbd
 1016 0255 15020000 		.4byte	0x215
 1017 0259 0C       		.byte	0xc
 1018 025a 07       		.uleb128 0x7
 1019 025b 723800   		.ascii	"r8\000"
 1020 025e 08       		.byte	0x8
 1021 025f BE       		.byte	0xbe
 1022 0260 15020000 		.4byte	0x215
 1023 0264 10       		.byte	0x10
 1024 0265 07       		.uleb128 0x7
 1025 0266 723900   		.ascii	"r9\000"
 1026 0269 08       		.byte	0x8
ARM GAS  /tmp/ccj21Iu9.s 			page 19


 1027 026a BF       		.byte	0xbf
 1028 026b 15020000 		.4byte	0x215
 1029 026f 14       		.byte	0x14
 1030 0270 07       		.uleb128 0x7
 1031 0271 72313000 		.ascii	"r10\000"
 1032 0275 08       		.byte	0x8
 1033 0276 C0       		.byte	0xc0
 1034 0277 15020000 		.4byte	0x215
 1035 027b 18       		.byte	0x18
 1036 027c 07       		.uleb128 0x7
 1037 027d 72313100 		.ascii	"r11\000"
 1038 0281 08       		.byte	0x8
 1039 0282 C1       		.byte	0xc1
 1040 0283 15020000 		.4byte	0x215
 1041 0287 1C       		.byte	0x1c
 1042 0288 07       		.uleb128 0x7
 1043 0289 6C7200   		.ascii	"lr\000"
 1044 028c 08       		.byte	0x8
 1045 028d C2       		.byte	0xc2
 1046 028e 15020000 		.4byte	0x215
 1047 0292 20       		.byte	0x20
 1048 0293 00       		.byte	0
 1049 0294 05       		.uleb128 0x5
 1050 0295 F8040000 		.4byte	.LASF41
 1051 0299 04       		.byte	0x4
 1052 029a 08       		.byte	0x8
 1053 029b CA       		.byte	0xca
 1054 029c AD020000 		.4byte	0x2ad
 1055 02a0 07       		.uleb128 0x7
 1056 02a1 72313300 		.ascii	"r13\000"
 1057 02a5 08       		.byte	0x8
 1058 02a6 CB       		.byte	0xcb
 1059 02a7 AD020000 		.4byte	0x2ad
 1060 02ab 00       		.byte	0
 1061 02ac 00       		.byte	0
 1062 02ad 09       		.uleb128 0x9
 1063 02ae 04       		.byte	0x4
 1064 02af 22020000 		.4byte	0x222
 1065 02b3 03       		.uleb128 0x3
 1066 02b4 DA010000 		.4byte	.LASF42
 1067 02b8 09       		.byte	0x9
 1068 02b9 4E       		.byte	0x4e
 1069 02ba BE020000 		.4byte	0x2be
 1070 02be 09       		.uleb128 0x9
 1071 02bf 04       		.byte	0x4
 1072 02c0 C4020000 		.4byte	0x2c4
 1073 02c4 0B       		.uleb128 0xb
 1074 02c5 CF020000 		.4byte	0x2cf
 1075 02c9 0C       		.uleb128 0xc
 1076 02ca 20020000 		.4byte	0x220
 1077 02ce 00       		.byte	0
 1078 02cf 03       		.uleb128 0x3
 1079 02d0 78040000 		.4byte	.LASF43
 1080 02d4 09       		.byte	0x9
 1081 02d5 53       		.byte	0x53
 1082 02d6 DA020000 		.4byte	0x2da
 1083 02da 05       		.uleb128 0x5
ARM GAS  /tmp/ccj21Iu9.s 			page 20


 1084 02db 78040000 		.4byte	.LASF43
 1085 02df 14       		.byte	0x14
 1086 02e0 09       		.byte	0x9
 1087 02e1 5A       		.byte	0x5a
 1088 02e2 23030000 		.4byte	0x323
 1089 02e6 06       		.uleb128 0x6
 1090 02e7 AB010000 		.4byte	.LASF44
 1091 02eb 09       		.byte	0x9
 1092 02ec 5B       		.byte	0x5b
 1093 02ed 23030000 		.4byte	0x323
 1094 02f1 00       		.byte	0
 1095 02f2 06       		.uleb128 0x6
 1096 02f3 84010000 		.4byte	.LASF45
 1097 02f7 09       		.byte	0x9
 1098 02f8 5D       		.byte	0x5d
 1099 02f9 23030000 		.4byte	0x323
 1100 02fd 04       		.byte	0x4
 1101 02fe 06       		.uleb128 0x6
 1102 02ff 00030000 		.4byte	.LASF46
 1103 0303 09       		.byte	0x9
 1104 0304 5F       		.byte	0x5f
 1105 0305 10010000 		.4byte	0x110
 1106 0309 08       		.byte	0x8
 1107 030a 06       		.uleb128 0x6
 1108 030b 27030000 		.4byte	.LASF47
 1109 030f 09       		.byte	0x9
 1110 0310 60       		.byte	0x60
 1111 0311 B3020000 		.4byte	0x2b3
 1112 0315 0C       		.byte	0xc
 1113 0316 06       		.uleb128 0x6
 1114 0317 07050000 		.4byte	.LASF48
 1115 031b 09       		.byte	0x9
 1116 031c 62       		.byte	0x62
 1117 031d 20020000 		.4byte	0x220
 1118 0321 10       		.byte	0x10
 1119 0322 00       		.byte	0
 1120 0323 09       		.uleb128 0x9
 1121 0324 04       		.byte	0x4
 1122 0325 CF020000 		.4byte	0x2cf
 1123 0329 08       		.uleb128 0x8
 1124 032a 14       		.byte	0x14
 1125 032b 0A       		.byte	0xa
 1126 032c 57       		.byte	0x57
 1127 032d 62030000 		.4byte	0x362
 1128 0331 06       		.uleb128 0x6
 1129 0332 70040000 		.4byte	.LASF49
 1130 0336 0A       		.byte	0xa
 1131 0337 58       		.byte	0x58
 1132 0338 EA010000 		.4byte	0x1ea
 1133 033c 00       		.byte	0
 1134 033d 06       		.uleb128 0x6
 1135 033e 14040000 		.4byte	.LASF50
 1136 0342 0A       		.byte	0xa
 1137 0343 59       		.byte	0x59
 1138 0344 EF000000 		.4byte	0xef
 1139 0348 08       		.byte	0x8
 1140 0349 06       		.uleb128 0x6
ARM GAS  /tmp/ccj21Iu9.s 			page 21


 1141 034a 53030000 		.4byte	.LASF51
 1142 034e 0A       		.byte	0xa
 1143 034f 5B       		.byte	0x5b
 1144 0350 94020000 		.4byte	0x294
 1145 0354 0C       		.byte	0xc
 1146 0355 06       		.uleb128 0x6
 1147 0356 66030000 		.4byte	.LASF52
 1148 035a 0A       		.byte	0xa
 1149 035b 62       		.byte	0x62
 1150 035c E4010000 		.4byte	0x1e4
 1151 0360 10       		.byte	0x10
 1152 0361 00       		.byte	0
 1153 0362 03       		.uleb128 0x3
 1154 0363 28050000 		.4byte	.LASF53
 1155 0367 0A       		.byte	0xa
 1156 0368 64       		.byte	0x64
 1157 0369 29030000 		.4byte	0x329
 1158 036d 05       		.uleb128 0x5
 1159 036e 26020000 		.4byte	.LASF54
 1160 0372 10       		.byte	0x10
 1161 0373 0B       		.byte	0xb
 1162 0374 25       		.byte	0x25
 1163 0375 9E030000 		.4byte	0x39e
 1164 0379 06       		.uleb128 0x6
 1165 037a C5000000 		.4byte	.LASF55
 1166 037e 0B       		.byte	0xb
 1167 037f 26       		.byte	0x26
 1168 0380 EA010000 		.4byte	0x1ea
 1169 0384 00       		.byte	0
 1170 0385 06       		.uleb128 0x6
 1171 0386 73050000 		.4byte	.LASF56
 1172 038a 0B       		.byte	0xb
 1173 038b 28       		.byte	0x28
 1174 038c E4010000 		.4byte	0x1e4
 1175 0390 08       		.byte	0x8
 1176 0391 06       		.uleb128 0x6
 1177 0392 C8040000 		.4byte	.LASF57
 1178 0396 0B       		.byte	0xb
 1179 0397 2A       		.byte	0x2a
 1180 0398 9E030000 		.4byte	0x39e
 1181 039c 0C       		.byte	0xc
 1182 039d 00       		.byte	0
 1183 039e 09       		.uleb128 0x9
 1184 039f 04       		.byte	0x4
 1185 03a0 6D030000 		.4byte	0x36d
 1186 03a4 03       		.uleb128 0x3
 1187 03a5 26020000 		.4byte	.LASF54
 1188 03a9 0B       		.byte	0xb
 1189 03aa 2C       		.byte	0x2c
 1190 03ab 6D030000 		.4byte	0x36d
 1191 03af 0D       		.uleb128 0xd
 1192 03b0 04       		.byte	0x4
 1193 03b1 07       		.byte	0x7
 1194 03b2 8F       		.byte	0x8f
 1195 03b3 E4030000 		.4byte	0x3e4
 1196 03b7 0E       		.uleb128 0xe
 1197 03b8 47000000 		.4byte	.LASF58
ARM GAS  /tmp/ccj21Iu9.s 			page 22


 1198 03bc 07       		.byte	0x7
 1199 03bd 96       		.byte	0x96
 1200 03be FA000000 		.4byte	0xfa
 1201 03c2 0E       		.uleb128 0xe
 1202 03c3 86000000 		.4byte	.LASF59
 1203 03c7 07       		.byte	0x7
 1204 03c8 9D       		.byte	0x9d
 1205 03c9 FA000000 		.4byte	0xfa
 1206 03cd 0E       		.uleb128 0xe
 1207 03ce 40050000 		.4byte	.LASF60
 1208 03d2 07       		.byte	0x7
 1209 03d3 A4       		.byte	0xa4
 1210 03d4 20020000 		.4byte	0x220
 1211 03d8 0E       		.uleb128 0xe
 1212 03d9 1B040000 		.4byte	.LASF61
 1213 03dd 07       		.byte	0x7
 1214 03de AB       		.byte	0xab
 1215 03df 05010000 		.4byte	0x105
 1216 03e3 00       		.byte	0
 1217 03e4 09       		.uleb128 0x9
 1218 03e5 04       		.byte	0x4
 1219 03e6 A4030000 		.4byte	0x3a4
 1220 03ea 09       		.uleb128 0x9
 1221 03eb 04       		.byte	0x4
 1222 03ec 94000000 		.4byte	0x94
 1223 03f0 09       		.uleb128 0x9
 1224 03f1 04       		.byte	0x4
 1225 03f2 F6030000 		.4byte	0x3f6
 1226 03f6 0F       		.uleb128 0xf
 1227 03f7 94000000 		.4byte	0x94
 1228 03fb 05       		.uleb128 0x5
 1229 03fc 58000000 		.4byte	.LASF62
 1230 0400 20       		.byte	0x20
 1231 0401 0C       		.byte	0xc
 1232 0402 FD       		.byte	0xfd
 1233 0403 6E040000 		.4byte	0x46e
 1234 0407 06       		.uleb128 0x6
 1235 0408 68010000 		.4byte	.LASF63
 1236 040c 0C       		.byte	0xc
 1237 040d FE       		.byte	0xfe
 1238 040e 6E040000 		.4byte	0x46e
 1239 0412 00       		.byte	0
 1240 0413 06       		.uleb128 0x6
 1241 0414 21050000 		.4byte	.LASF64
 1242 0418 0C       		.byte	0xc
 1243 0419 FF       		.byte	0xff
 1244 041a 6E040000 		.4byte	0x46e
 1245 041e 04       		.byte	0x4
 1246 041f 10       		.uleb128 0x10
 1247 0420 5D010000 		.4byte	.LASF65
 1248 0424 0C       		.byte	0xc
 1249 0425 0001     		.2byte	0x100
 1250 0427 6E040000 		.4byte	0x46e
 1251 042b 08       		.byte	0x8
 1252 042c 10       		.uleb128 0x10
 1253 042d 8C010000 		.4byte	.LASF66
 1254 0431 0C       		.byte	0xc
ARM GAS  /tmp/ccj21Iu9.s 			page 23


 1255 0432 0101     		.2byte	0x101
 1256 0434 6E040000 		.4byte	0x46e
 1257 0438 0C       		.byte	0xc
 1258 0439 10       		.uleb128 0x10
 1259 043a 94000000 		.4byte	.LASF67
 1260 043e 0C       		.byte	0xc
 1261 043f 0201     		.2byte	0x102
 1262 0441 6E040000 		.4byte	0x46e
 1263 0445 10       		.byte	0x10
 1264 0446 10       		.uleb128 0x10
 1265 0447 1A030000 		.4byte	.LASF68
 1266 044b 0C       		.byte	0xc
 1267 044c 0301     		.2byte	0x103
 1268 044e 6E040000 		.4byte	0x46e
 1269 0452 14       		.byte	0x14
 1270 0453 10       		.uleb128 0x10
 1271 0454 4A010000 		.4byte	.LASF69
 1272 0458 0C       		.byte	0xc
 1273 0459 0401     		.2byte	0x104
 1274 045b 6E040000 		.4byte	0x46e
 1275 045f 18       		.byte	0x18
 1276 0460 10       		.uleb128 0x10
 1277 0461 8B050000 		.4byte	.LASF70
 1278 0465 0C       		.byte	0xc
 1279 0466 0501     		.2byte	0x105
 1280 0468 6E040000 		.4byte	0x46e
 1281 046c 1C       		.byte	0x1c
 1282 046d 00       		.byte	0
 1283 046e 11       		.uleb128 0x11
 1284 046f C7000000 		.4byte	0xc7
 1285 0473 12       		.uleb128 0x12
 1286 0474 58000000 		.4byte	.LASF62
 1287 0478 0C       		.byte	0xc
 1288 0479 0801     		.2byte	0x108
 1289 047b FB030000 		.4byte	0x3fb
 1290 047f 13       		.uleb128 0x13
 1291 0480 04       		.byte	0x4
 1292 0481 0D       		.byte	0xd
 1293 0482 54       		.byte	0x54
 1294 0483 AC040000 		.4byte	0x4ac
 1295 0487 14       		.uleb128 0x14
 1296 0488 16010000 		.4byte	.LASF71
 1297 048c 00       		.sleb128 0
 1298 048d 14       		.uleb128 0x14
 1299 048e 08030000 		.4byte	.LASF72
 1300 0492 01       		.sleb128 1
 1301 0493 14       		.uleb128 0x14
 1302 0494 EE040000 		.4byte	.LASF73
 1303 0498 02       		.sleb128 2
 1304 0499 14       		.uleb128 0x14
 1305 049a AB030000 		.4byte	.LASF74
 1306 049e 03       		.sleb128 3
 1307 049f 14       		.uleb128 0x14
 1308 04a0 85040000 		.4byte	.LASF75
 1309 04a4 04       		.sleb128 4
 1310 04a5 14       		.uleb128 0x14
 1311 04a6 43040000 		.4byte	.LASF76
ARM GAS  /tmp/ccj21Iu9.s 			page 24


 1312 04aa 05       		.sleb128 5
 1313 04ab 00       		.byte	0
 1314 04ac 03       		.uleb128 0x3
 1315 04ad 91030000 		.4byte	.LASF77
 1316 04b1 0D       		.byte	0xd
 1317 04b2 5B       		.byte	0x5b
 1318 04b3 7F040000 		.4byte	0x47f
 1319 04b7 03       		.uleb128 0x3
 1320 04b8 F6010000 		.4byte	.LASF78
 1321 04bc 0E       		.byte	0xe
 1322 04bd 38       		.byte	0x38
 1323 04be C2040000 		.4byte	0x4c2
 1324 04c2 05       		.uleb128 0x5
 1325 04c3 F6010000 		.4byte	.LASF78
 1326 04c7 40       		.byte	0x40
 1327 04c8 0E       		.byte	0xe
 1328 04c9 62       		.byte	0x62
 1329 04ca 6B050000 		.4byte	0x56b
 1330 04ce 06       		.uleb128 0x6
 1331 04cf 2B010000 		.4byte	.LASF79
 1332 04d3 0E       		.byte	0xe
 1333 04d4 64       		.byte	0x64
 1334 04d5 AC040000 		.4byte	0x4ac
 1335 04d9 00       		.byte	0
 1336 04da 06       		.uleb128 0x6
 1337 04db B6040000 		.4byte	.LASF80
 1338 04df 0E       		.byte	0xe
 1339 04e0 66       		.byte	0x66
 1340 04e1 A7050000 		.4byte	0x5a7
 1341 04e5 04       		.byte	0x4
 1342 04e6 06       		.uleb128 0x6
 1343 04e7 B9010000 		.4byte	.LASF81
 1344 04eb 0E       		.byte	0xe
 1345 04ec 68       		.byte	0x68
 1346 04ed 6B050000 		.4byte	0x56b
 1347 04f1 08       		.byte	0x8
 1348 04f2 06       		.uleb128 0x6
 1349 04f3 A4000000 		.4byte	.LASF82
 1350 04f7 0E       		.byte	0xe
 1351 04f8 6A       		.byte	0x6a
 1352 04f9 B2050000 		.4byte	0x5b2
 1353 04fd 0C       		.byte	0xc
 1354 04fe 06       		.uleb128 0x6
 1355 04ff C4030000 		.4byte	.LASF83
 1356 0503 0E       		.byte	0xe
 1357 0504 6D       		.byte	0x6d
 1358 0505 A4030000 		.4byte	0x3a4
 1359 0509 10       		.byte	0x10
 1360 050a 06       		.uleb128 0x6
 1361 050b 43010000 		.4byte	.LASF84
 1362 050f 0E       		.byte	0xe
 1363 0510 77       		.byte	0x77
 1364 0511 E4010000 		.4byte	0x1e4
 1365 0515 20       		.byte	0x20
 1366 0516 06       		.uleb128 0x6
 1367 0517 81000000 		.4byte	.LASF85
 1368 051b 0E       		.byte	0xe
ARM GAS  /tmp/ccj21Iu9.s 			page 25


 1369 051c 7B       		.byte	0x7b
 1370 051d 76050000 		.4byte	0x576
 1371 0521 24       		.byte	0x24
 1372 0522 06       		.uleb128 0x6
 1373 0523 B3010000 		.4byte	.LASF86
 1374 0527 0E       		.byte	0xe
 1375 0528 7F       		.byte	0x7f
 1376 0529 F0030000 		.4byte	0x3f0
 1377 052d 28       		.byte	0x28
 1378 052e 06       		.uleb128 0x6
 1379 052f 70030000 		.4byte	.LASF87
 1380 0533 0E       		.byte	0xe
 1381 0534 83       		.byte	0x83
 1382 0535 2C000000 		.4byte	0x2c
 1383 0539 2C       		.byte	0x2c
 1384 053a 06       		.uleb128 0x6
 1385 053b 0E050000 		.4byte	.LASF88
 1386 053f 0E       		.byte	0xe
 1387 0540 87       		.byte	0x87
 1388 0541 2C000000 		.4byte	0x2c
 1389 0545 30       		.byte	0x30
 1390 0546 06       		.uleb128 0x6
 1391 0547 64000000 		.4byte	.LASF89
 1392 054b 0E       		.byte	0xe
 1393 054c 8B       		.byte	0x8b
 1394 054d EA030000 		.4byte	0x3ea
 1395 0551 34       		.byte	0x34
 1396 0552 06       		.uleb128 0x6
 1397 0553 41030000 		.4byte	.LASF90
 1398 0557 0E       		.byte	0xe
 1399 0558 8F       		.byte	0x8f
 1400 0559 2C000000 		.4byte	0x2c
 1401 055d 38       		.byte	0x38
 1402 055e 06       		.uleb128 0x6
 1403 055f 8B030000 		.4byte	.LASF91
 1404 0563 0E       		.byte	0xe
 1405 0564 93       		.byte	0x93
 1406 0565 2C000000 		.4byte	0x2c
 1407 0569 3C       		.byte	0x3c
 1408 056a 00       		.byte	0
 1409 056b 03       		.uleb128 0x3
 1410 056c B9030000 		.4byte	.LASF92
 1411 0570 0E       		.byte	0xe
 1412 0571 42       		.byte	0x42
 1413 0572 B5000000 		.4byte	0xb5
 1414 0576 03       		.uleb128 0x3
 1415 0577 21010000 		.4byte	.LASF93
 1416 057b 0E       		.byte	0xe
 1417 057c 48       		.byte	0x48
 1418 057d 9F000000 		.4byte	0x9f
 1419 0581 09       		.uleb128 0x9
 1420 0582 04       		.byte	0x4
 1421 0583 B7040000 		.4byte	0x4b7
 1422 0587 08       		.uleb128 0x8
 1423 0588 04       		.byte	0x4
 1424 0589 0E       		.byte	0xe
 1425 058a 57       		.byte	0x57
ARM GAS  /tmp/ccj21Iu9.s 			page 26


 1426 058b 9C050000 		.4byte	0x59c
 1427 058f 06       		.uleb128 0x6
 1428 0590 2F030000 		.4byte	.LASF94
 1429 0594 0E       		.byte	0xe
 1430 0595 59       		.byte	0x59
 1431 0596 B5000000 		.4byte	0xb5
 1432 059a 00       		.byte	0
 1433 059b 00       		.byte	0
 1434 059c 03       		.uleb128 0x3
 1435 059d 49030000 		.4byte	.LASF95
 1436 05a1 0E       		.byte	0xe
 1437 05a2 5B       		.byte	0x5b
 1438 05a3 87050000 		.4byte	0x587
 1439 05a7 09       		.uleb128 0x9
 1440 05a8 04       		.byte	0x4
 1441 05a9 AD050000 		.4byte	0x5ad
 1442 05ad 0F       		.uleb128 0xf
 1443 05ae 9C050000 		.4byte	0x59c
 1444 05b2 09       		.uleb128 0x9
 1445 05b3 04       		.byte	0x4
 1446 05b4 73040000 		.4byte	0x473
 1447 05b8 02       		.uleb128 0x2
 1448 05b9 04       		.byte	0x4
 1449 05ba 07       		.byte	0x7
 1450 05bb 11030000 		.4byte	.LASF96
 1451 05bf 15       		.uleb128 0x15
 1452 05c0 9F040000 		.4byte	.LASF115
 1453 05c4 01       		.byte	0x1
 1454 05c5 4E       		.byte	0x4e
 1455 05c6 00000000 		.4byte	.LFB7
 1456 05ca 74000000 		.4byte	.LFE7-.LFB7
 1457 05ce 01       		.uleb128 0x1
 1458 05cf 9C       		.byte	0x9c
 1459 05d0 1D060000 		.4byte	0x61d
 1460 05d4 16       		.uleb128 0x16
 1461 05d5 7000     		.ascii	"p\000"
 1462 05d7 01       		.byte	0x1
 1463 05d8 4E       		.byte	0x4e
 1464 05d9 20020000 		.4byte	0x220
 1465 05dd 00000000 		.4byte	.LLST0
 1466 05e1 17       		.uleb128 0x17
 1467 05e2 8F000000 		.4byte	.LASF97
 1468 05e6 01       		.byte	0x1
 1469 05e7 4F       		.byte	0x4f
 1470 05e8 81050000 		.4byte	0x581
 1471 05ec 2C000000 		.4byte	.LLST1
 1472 05f0 18       		.uleb128 0x18
 1473 05f1 00000000 		.4byte	.Ldebug_ranges0+0
 1474 05f5 17       		.uleb128 0x17
 1475 05f6 A4000000 		.4byte	.LASF82
 1476 05fa 01       		.byte	0x1
 1477 05fb 52       		.byte	0x52
 1478 05fc B2050000 		.4byte	0x5b2
 1479 0600 58000000 		.4byte	.LLST2
 1480 0604 19       		.uleb128 0x19
 1481 0605 747000   		.ascii	"tp\000"
 1482 0608 01       		.byte	0x1
ARM GAS  /tmp/ccj21Iu9.s 			page 27


 1483 0609 5D       		.byte	0x5d
 1484 060a E4010000 		.4byte	0x1e4
 1485 060e 6B000000 		.4byte	.LLST3
 1486 0612 1A       		.uleb128 0x1a
 1487 0613 70000000 		.4byte	.LVL5
 1488 0617 A0090000 		.4byte	0x9a0
 1489 061b 00       		.byte	0
 1490 061c 00       		.byte	0
 1491 061d 1B       		.uleb128 0x1b
 1492 061e 4D050000 		.4byte	.LASF98
 1493 0622 01       		.byte	0x1
 1494 0623 69       		.byte	0x69
 1495 0624 00000000 		.4byte	.LFB8
 1496 0628 64010000 		.4byte	.LFE8-.LFB8
 1497 062c 01       		.uleb128 0x1
 1498 062d 9C       		.byte	0x9c
 1499 062e 9E060000 		.4byte	0x69e
 1500 0632 1C       		.uleb128 0x1c
 1501 0633 8F000000 		.4byte	.LASF97
 1502 0637 01       		.byte	0x1
 1503 0638 69       		.byte	0x69
 1504 0639 81050000 		.4byte	0x581
 1505 063d 7E000000 		.4byte	.LLST4
 1506 0641 17       		.uleb128 0x17
 1507 0642 A4000000 		.4byte	.LASF82
 1508 0646 01       		.byte	0x1
 1509 0647 6B       		.byte	0x6b
 1510 0648 B2050000 		.4byte	0x5b2
 1511 064c C3000000 		.4byte	.LLST5
 1512 0650 17       		.uleb128 0x17
 1513 0651 21050000 		.4byte	.LASF64
 1514 0655 01       		.byte	0x1
 1515 0656 6C       		.byte	0x6c
 1516 0657 B5000000 		.4byte	0xb5
 1517 065b F8000000 		.4byte	.LLST6
 1518 065f 1D       		.uleb128 0x1d
 1519 0660 20000000 		.4byte	.Ldebug_ranges0+0x20
 1520 0664 80060000 		.4byte	0x680
 1521 0668 19       		.uleb128 0x19
 1522 0669 747000   		.ascii	"tp\000"
 1523 066c 01       		.byte	0x1
 1524 066d 70       		.byte	0x70
 1525 066e E4010000 		.4byte	0x1e4
 1526 0672 2C010000 		.4byte	.LLST7
 1527 0676 1A       		.uleb128 0x1a
 1528 0677 3C000000 		.4byte	.LVL14
 1529 067b A0090000 		.4byte	0x9a0
 1530 067f 00       		.byte	0
 1531 0680 18       		.uleb128 0x18
 1532 0681 38000000 		.4byte	.Ldebug_ranges0+0x38
 1533 0685 19       		.uleb128 0x19
 1534 0686 747000   		.ascii	"tp\000"
 1535 0689 01       		.byte	0x1
 1536 068a 77       		.byte	0x77
 1537 068b E4010000 		.4byte	0x1e4
 1538 068f 3F010000 		.4byte	.LLST8
 1539 0693 1A       		.uleb128 0x1a
ARM GAS  /tmp/ccj21Iu9.s 			page 28


 1540 0694 C8000000 		.4byte	.LVL18
 1541 0698 A0090000 		.4byte	0x9a0
 1542 069c 00       		.byte	0
 1543 069d 00       		.byte	0
 1544 069e 1B       		.uleb128 0x1b
 1545 069f 14050000 		.4byte	.LASF99
 1546 06a3 01       		.byte	0x1
 1547 06a4 8C       		.byte	0x8c
 1548 06a5 00000000 		.4byte	.LFB9
 1549 06a9 1C000000 		.4byte	.LFE9-.LFB9
 1550 06ad 01       		.uleb128 0x1
 1551 06ae 9C       		.byte	0x9c
 1552 06af C7060000 		.4byte	0x6c7
 1553 06b3 1E       		.uleb128 0x1e
 1554 06b4 14000000 		.4byte	.LVL22
 1555 06b8 B5090000 		.4byte	0x9b5
 1556 06bc 1F       		.uleb128 0x1f
 1557 06bd 01       		.uleb128 0x1
 1558 06be 50       		.byte	0x50
 1559 06bf 05       		.uleb128 0x5
 1560 06c0 03       		.byte	0x3
 1561 06c1 00000000 		.4byte	I2C0
 1562 06c5 00       		.byte	0
 1563 06c6 00       		.byte	0
 1564 06c7 20       		.uleb128 0x20
 1565 06c8 CA030000 		.4byte	.LASF100
 1566 06cc 01       		.byte	0x1
 1567 06cd 98       		.byte	0x98
 1568 06ce 00000000 		.4byte	.LFB10
 1569 06d2 68000000 		.4byte	.LFE10-.LFB10
 1570 06d6 01       		.uleb128 0x1
 1571 06d7 9C       		.byte	0x9c
 1572 06d8 27070000 		.4byte	0x727
 1573 06dc 1C       		.uleb128 0x1c
 1574 06dd 8F000000 		.4byte	.LASF97
 1575 06e1 01       		.byte	0x1
 1576 06e2 98       		.byte	0x98
 1577 06e3 81050000 		.4byte	0x581
 1578 06e7 52010000 		.4byte	.LLST9
 1579 06eb 17       		.uleb128 0x17
 1580 06ec 47050000 		.4byte	.LASF101
 1581 06f0 01       		.byte	0x1
 1582 06f1 9D       		.byte	0x9d
 1583 06f2 B5000000 		.4byte	0xb5
 1584 06f6 70010000 		.4byte	.LLST10
 1585 06fa 21       		.uleb128 0x21
 1586 06fb 14000000 		.4byte	.LVL25
 1587 06ff C6090000 		.4byte	0x9c6
 1588 0703 12070000 		.4byte	0x712
 1589 0707 1F       		.uleb128 0x1f
 1590 0708 01       		.uleb128 0x1
 1591 0709 51       		.byte	0x51
 1592 070a 01       		.uleb128 0x1
 1593 070b 34       		.byte	0x34
 1594 070c 1F       		.uleb128 0x1f
 1595 070d 01       		.uleb128 0x1
 1596 070e 50       		.byte	0x50
ARM GAS  /tmp/ccj21Iu9.s 			page 29


 1597 070f 01       		.uleb128 0x1
 1598 0710 30       		.byte	0x30
 1599 0711 00       		.byte	0
 1600 0712 22       		.uleb128 0x22
 1601 0713 20000000 		.4byte	.LVL26
 1602 0717 C6090000 		.4byte	0x9c6
 1603 071b 1F       		.uleb128 0x1f
 1604 071c 01       		.uleb128 0x1
 1605 071d 51       		.byte	0x51
 1606 071e 01       		.uleb128 0x1
 1607 071f 34       		.byte	0x34
 1608 0720 1F       		.uleb128 0x1f
 1609 0721 01       		.uleb128 0x1
 1610 0722 50       		.byte	0x50
 1611 0723 01       		.uleb128 0x1
 1612 0724 31       		.byte	0x31
 1613 0725 00       		.byte	0
 1614 0726 00       		.byte	0
 1615 0727 1B       		.uleb128 0x1b
 1616 0728 C7020000 		.4byte	.LASF102
 1617 072c 01       		.byte	0x1
 1618 072d AB       		.byte	0xab
 1619 072e 00000000 		.4byte	.LFB11
 1620 0732 34000000 		.4byte	.LFE11-.LFB11
 1621 0736 01       		.uleb128 0x1
 1622 0737 9C       		.byte	0x9c
 1623 0738 78070000 		.4byte	0x778
 1624 073c 1C       		.uleb128 0x1c
 1625 073d 8F000000 		.4byte	.LASF97
 1626 0741 01       		.byte	0x1
 1627 0742 AB       		.byte	0xab
 1628 0743 81050000 		.4byte	0x581
 1629 0747 8E010000 		.4byte	.LLST11
 1630 074b 21       		.uleb128 0x21
 1631 074c 14000000 		.4byte	.LVL32
 1632 0750 C6090000 		.4byte	0x9c6
 1633 0754 63070000 		.4byte	0x763
 1634 0758 1F       		.uleb128 0x1f
 1635 0759 01       		.uleb128 0x1
 1636 075a 51       		.byte	0x51
 1637 075b 01       		.uleb128 0x1
 1638 075c 30       		.byte	0x30
 1639 075d 1F       		.uleb128 0x1f
 1640 075e 01       		.uleb128 0x1
 1641 075f 50       		.byte	0x50
 1642 0760 01       		.uleb128 0x1
 1643 0761 30       		.byte	0x30
 1644 0762 00       		.byte	0
 1645 0763 22       		.uleb128 0x22
 1646 0764 20000000 		.4byte	.LVL33
 1647 0768 C6090000 		.4byte	0x9c6
 1648 076c 1F       		.uleb128 0x1f
 1649 076d 01       		.uleb128 0x1
 1650 076e 51       		.byte	0x51
 1651 076f 01       		.uleb128 0x1
 1652 0770 30       		.byte	0x30
 1653 0771 1F       		.uleb128 0x1f
ARM GAS  /tmp/ccj21Iu9.s 			page 30


 1654 0772 01       		.uleb128 0x1
 1655 0773 50       		.byte	0x50
 1656 0774 01       		.uleb128 0x1
 1657 0775 31       		.byte	0x31
 1658 0776 00       		.byte	0
 1659 0777 00       		.byte	0
 1660 0778 23       		.uleb128 0x23
 1661 0779 CD000000 		.4byte	.LASF104
 1662 077d 01       		.byte	0x1
 1663 077e 0301     		.2byte	0x103
 1664 0780 FA000000 		.4byte	0xfa
 1665 0784 00000000 		.4byte	.LFB13
 1666 0788 CC000000 		.4byte	.LFE13-.LFB13
 1667 078c 01       		.uleb128 0x1
 1668 078d 9C       		.byte	0x9c
 1669 078e 4C080000 		.4byte	0x84c
 1670 0792 24       		.uleb128 0x24
 1671 0793 8F000000 		.4byte	.LASF97
 1672 0797 01       		.byte	0x1
 1673 0798 0301     		.2byte	0x103
 1674 079a 81050000 		.4byte	0x581
 1675 079e AC010000 		.4byte	.LLST12
 1676 07a2 24       		.uleb128 0x24
 1677 07a3 81000000 		.4byte	.LASF85
 1678 07a7 01       		.byte	0x1
 1679 07a8 0301     		.2byte	0x103
 1680 07aa 76050000 		.4byte	0x576
 1681 07ae D8010000 		.4byte	.LLST13
 1682 07b2 24       		.uleb128 0x24
 1683 07b3 64000000 		.4byte	.LASF89
 1684 07b7 01       		.byte	0x1
 1685 07b8 0401     		.2byte	0x104
 1686 07ba EA030000 		.4byte	0x3ea
 1687 07be 04020000 		.4byte	.LLST14
 1688 07c2 24       		.uleb128 0x24
 1689 07c3 41030000 		.4byte	.LASF90
 1690 07c7 01       		.byte	0x1
 1691 07c8 0401     		.2byte	0x104
 1692 07ca 2C000000 		.4byte	0x2c
 1693 07ce 30020000 		.4byte	.LLST15
 1694 07d2 25       		.uleb128 0x25
 1695 07d3 D2010000 		.4byte	.LASF103
 1696 07d7 01       		.byte	0x1
 1697 07d8 0501     		.2byte	0x105
 1698 07da 10010000 		.4byte	0x110
 1699 07de 02       		.uleb128 0x2
 1700 07df 91       		.byte	0x91
 1701 07e0 00       		.sleb128 0
 1702 07e1 26       		.uleb128 0x26
 1703 07e2 767400   		.ascii	"vt\000"
 1704 07e5 01       		.byte	0x1
 1705 07e6 0601     		.2byte	0x106
 1706 07e8 CF020000 		.4byte	0x2cf
 1707 07ec 02       		.uleb128 0x2
 1708 07ed 91       		.byte	0x91
 1709 07ee 54       		.sleb128 -44
 1710 07ef 27       		.uleb128 0x27
ARM GAS  /tmp/ccj21Iu9.s 			page 31


 1711 07f0 A4000000 		.4byte	.LASF82
 1712 07f4 01       		.byte	0x1
 1713 07f5 1501     		.2byte	0x115
 1714 07f7 B2050000 		.4byte	0x5b2
 1715 07fb 68020000 		.4byte	.LLST16
 1716 07ff 21       		.uleb128 0x21
 1717 0800 38000000 		.4byte	.LVL39
 1718 0804 DD090000 		.4byte	0x9dd
 1719 0808 28080000 		.4byte	0x828
 1720 080c 1F       		.uleb128 0x1f
 1721 080d 01       		.uleb128 0x1
 1722 080e 53       		.byte	0x53
 1723 080f 02       		.uleb128 0x2
 1724 0810 74       		.byte	0x74
 1725 0811 00       		.sleb128 0
 1726 0812 1F       		.uleb128 0x1f
 1727 0813 01       		.uleb128 0x1
 1728 0814 52       		.byte	0x52
 1729 0815 05       		.uleb128 0x5
 1730 0816 03       		.byte	0x3
 1731 0817 00000000 		.4byte	i2c_lld_safety_timeout
 1732 081b 1F       		.uleb128 0x1f
 1733 081c 01       		.uleb128 0x1
 1734 081d 51       		.byte	0x51
 1735 081e 02       		.uleb128 0x2
 1736 081f 75       		.byte	0x75
 1737 0820 00       		.sleb128 0
 1738 0821 1F       		.uleb128 0x1f
 1739 0822 01       		.uleb128 0x1
 1740 0823 50       		.byte	0x50
 1741 0824 02       		.uleb128 0x2
 1742 0825 7D       		.byte	0x7d
 1743 0826 00       		.sleb128 0
 1744 0827 00       		.byte	0
 1745 0828 21       		.uleb128 0x21
 1746 0829 8C000000 		.4byte	.LVL43
 1747 082d FD090000 		.4byte	0x9fd
 1748 0831 3B080000 		.4byte	0x83b
 1749 0835 1F       		.uleb128 0x1f
 1750 0836 01       		.uleb128 0x1
 1751 0837 50       		.byte	0x50
 1752 0838 01       		.uleb128 0x1
 1753 0839 32       		.byte	0x32
 1754 083a 00       		.byte	0
 1755 083b 22       		.uleb128 0x22
 1756 083c A8000000 		.4byte	.LVL44
 1757 0840 0E0A0000 		.4byte	0xa0e
 1758 0844 1F       		.uleb128 0x1f
 1759 0845 01       		.uleb128 0x1
 1760 0846 50       		.byte	0x50
 1761 0847 02       		.uleb128 0x2
 1762 0848 7D       		.byte	0x7d
 1763 0849 00       		.sleb128 0
 1764 084a 00       		.byte	0
 1765 084b 00       		.byte	0
 1766 084c 28       		.uleb128 0x28
 1767 084d EC000000 		.4byte	.LASF105
ARM GAS  /tmp/ccj21Iu9.s 			page 32


 1768 0851 01       		.byte	0x1
 1769 0852 C3       		.byte	0xc3
 1770 0853 FA000000 		.4byte	0xfa
 1771 0857 00000000 		.4byte	.LFB12
 1772 085b 3C010000 		.4byte	.LFE12-.LFB12
 1773 085f 01       		.uleb128 0x1
 1774 0860 9C       		.byte	0x9c
 1775 0861 84090000 		.4byte	0x984
 1776 0865 1C       		.uleb128 0x1c
 1777 0866 8F000000 		.4byte	.LASF97
 1778 086a 01       		.byte	0x1
 1779 086b C3       		.byte	0xc3
 1780 086c 81050000 		.4byte	0x581
 1781 0870 87020000 		.4byte	.LLST17
 1782 0874 1C       		.uleb128 0x1c
 1783 0875 81000000 		.4byte	.LASF85
 1784 0879 01       		.byte	0x1
 1785 087a C3       		.byte	0xc3
 1786 087b 76050000 		.4byte	0x576
 1787 087f B3020000 		.4byte	.LLST18
 1788 0883 1C       		.uleb128 0x1c
 1789 0884 B3010000 		.4byte	.LASF86
 1790 0888 01       		.byte	0x1
 1791 0889 C4       		.byte	0xc4
 1792 088a F0030000 		.4byte	0x3f0
 1793 088e DF020000 		.4byte	.LLST19
 1794 0892 1C       		.uleb128 0x1c
 1795 0893 70030000 		.4byte	.LASF87
 1796 0897 01       		.byte	0x1
 1797 0898 C4       		.byte	0xc4
 1798 0899 2C000000 		.4byte	0x2c
 1799 089d 0B030000 		.4byte	.LLST20
 1800 08a1 29       		.uleb128 0x29
 1801 08a2 64000000 		.4byte	.LASF89
 1802 08a6 01       		.byte	0x1
 1803 08a7 C5       		.byte	0xc5
 1804 08a8 EA030000 		.4byte	0x3ea
 1805 08ac 02       		.uleb128 0x2
 1806 08ad 91       		.byte	0x91
 1807 08ae 00       		.sleb128 0
 1808 08af 29       		.uleb128 0x29
 1809 08b0 41030000 		.4byte	.LASF90
 1810 08b4 01       		.byte	0x1
 1811 08b5 C5       		.byte	0xc5
 1812 08b6 F6030000 		.4byte	0x3f6
 1813 08ba 02       		.uleb128 0x2
 1814 08bb 91       		.byte	0x91
 1815 08bc 04       		.sleb128 4
 1816 08bd 29       		.uleb128 0x29
 1817 08be D2010000 		.4byte	.LASF103
 1818 08c2 01       		.byte	0x1
 1819 08c3 C6       		.byte	0xc6
 1820 08c4 10010000 		.4byte	0x110
 1821 08c8 02       		.uleb128 0x2
 1822 08c9 91       		.byte	0x91
 1823 08ca 08       		.sleb128 8
 1824 08cb 2A       		.uleb128 0x2a
ARM GAS  /tmp/ccj21Iu9.s 			page 33


 1825 08cc 767400   		.ascii	"vt\000"
 1826 08cf 01       		.byte	0x1
 1827 08d0 C7       		.byte	0xc7
 1828 08d1 CF020000 		.4byte	0x2cf
 1829 08d5 02       		.uleb128 0x2
 1830 08d6 91       		.byte	0x91
 1831 08d7 4C       		.sleb128 -52
 1832 08d8 17       		.uleb128 0x17
 1833 08d9 A4000000 		.4byte	.LASF82
 1834 08dd 01       		.byte	0x1
 1835 08de D5       		.byte	0xd5
 1836 08df B2050000 		.4byte	0x5b2
 1837 08e3 43030000 		.4byte	.LLST21
 1838 08e7 17       		.uleb128 0x17
 1839 08e8 21050000 		.4byte	.LASF64
 1840 08ec 01       		.byte	0x1
 1841 08ed E7       		.byte	0xe7
 1842 08ee FA000000 		.4byte	0xfa
 1843 08f2 62030000 		.4byte	.LLST22
 1844 08f6 21       		.uleb128 0x21
 1845 08f7 40000000 		.4byte	.LVL51
 1846 08fb DD090000 		.4byte	0x9dd
 1847 08ff 1F090000 		.4byte	0x91f
 1848 0903 1F       		.uleb128 0x1f
 1849 0904 01       		.uleb128 0x1
 1850 0905 53       		.byte	0x53
 1851 0906 02       		.uleb128 0x2
 1852 0907 74       		.byte	0x74
 1853 0908 00       		.sleb128 0
 1854 0909 1F       		.uleb128 0x1f
 1855 090a 01       		.uleb128 0x1
 1856 090b 52       		.byte	0x52
 1857 090c 05       		.uleb128 0x5
 1858 090d 03       		.byte	0x3
 1859 090e 00000000 		.4byte	i2c_lld_safety_timeout
 1860 0912 1F       		.uleb128 0x1f
 1861 0913 01       		.uleb128 0x1
 1862 0914 51       		.byte	0x51
 1863 0915 02       		.uleb128 0x2
 1864 0916 75       		.byte	0x75
 1865 0917 00       		.sleb128 0
 1866 0918 1F       		.uleb128 0x1f
 1867 0919 01       		.uleb128 0x1
 1868 091a 50       		.byte	0x50
 1869 091b 02       		.uleb128 0x2
 1870 091c 91       		.byte	0x91
 1871 091d 44       		.sleb128 -60
 1872 091e 00       		.byte	0
 1873 091f 21       		.uleb128 0x21
 1874 0920 9C000000 		.4byte	.LVL55
 1875 0924 FD090000 		.4byte	0x9fd
 1876 0928 32090000 		.4byte	0x932
 1877 092c 1F       		.uleb128 0x1f
 1878 092d 01       		.uleb128 0x1
 1879 092e 50       		.byte	0x50
 1880 092f 01       		.uleb128 0x1
 1881 0930 32       		.byte	0x32
ARM GAS  /tmp/ccj21Iu9.s 			page 34


 1882 0931 00       		.byte	0
 1883 0932 21       		.uleb128 0x21
 1884 0933 B8000000 		.4byte	.LVL56
 1885 0937 0E0A0000 		.4byte	0xa0e
 1886 093b 46090000 		.4byte	0x946
 1887 093f 1F       		.uleb128 0x1f
 1888 0940 01       		.uleb128 0x1
 1889 0941 50       		.byte	0x50
 1890 0942 02       		.uleb128 0x2
 1891 0943 91       		.byte	0x91
 1892 0944 44       		.sleb128 -60
 1893 0945 00       		.byte	0
 1894 0946 21       		.uleb128 0x21
 1895 0947 04010000 		.4byte	.LVL59
 1896 094b 78070000 		.4byte	0x778
 1897 094f 73090000 		.4byte	0x973
 1898 0953 1F       		.uleb128 0x1f
 1899 0954 01       		.uleb128 0x1
 1900 0955 53       		.byte	0x53
 1901 0956 02       		.uleb128 0x2
 1902 0957 76       		.byte	0x76
 1903 0958 00       		.sleb128 0
 1904 0959 1F       		.uleb128 0x1f
 1905 095a 01       		.uleb128 0x1
 1906 095b 52       		.byte	0x52
 1907 095c 02       		.uleb128 0x2
 1908 095d 78       		.byte	0x78
 1909 095e 00       		.sleb128 0
 1910 095f 1F       		.uleb128 0x1f
 1911 0960 01       		.uleb128 0x1
 1912 0961 51       		.byte	0x51
 1913 0962 02       		.uleb128 0x2
 1914 0963 77       		.byte	0x77
 1915 0964 00       		.sleb128 0
 1916 0965 1F       		.uleb128 0x1f
 1917 0966 01       		.uleb128 0x1
 1918 0967 50       		.byte	0x50
 1919 0968 02       		.uleb128 0x2
 1920 0969 74       		.byte	0x74
 1921 096a 00       		.sleb128 0
 1922 096b 1F       		.uleb128 0x1f
 1923 096c 02       		.uleb128 0x2
 1924 096d 7D       		.byte	0x7d
 1925 096e 00       		.sleb128 0
 1926 096f 02       		.uleb128 0x2
 1927 0970 09       		.byte	0x9
 1928 0971 FF       		.byte	0xff
 1929 0972 00       		.byte	0
 1930 0973 22       		.uleb128 0x22
 1931 0974 24010000 		.4byte	.LVL62
 1932 0978 0E0A0000 		.4byte	0xa0e
 1933 097c 1F       		.uleb128 0x1f
 1934 097d 01       		.uleb128 0x1
 1935 097e 50       		.byte	0x50
 1936 097f 02       		.uleb128 0x2
 1937 0980 91       		.byte	0x91
 1938 0981 44       		.sleb128 -60
ARM GAS  /tmp/ccj21Iu9.s 			page 35


 1939 0982 00       		.byte	0
 1940 0983 00       		.byte	0
 1941 0984 2B       		.uleb128 0x2b
 1942 0985 32050000 		.4byte	.LASF106
 1943 0989 0A       		.byte	0xa
 1944 098a 68       		.byte	0x68
 1945 098b 62030000 		.4byte	0x362
 1946 098f 2C       		.uleb128 0x2c
 1947 0990 99010000 		.4byte	.LASF107
 1948 0994 01       		.byte	0x1
 1949 0995 2A       		.byte	0x2a
 1950 0996 B7040000 		.4byte	0x4b7
 1951 099a 05       		.uleb128 0x5
 1952 099b 03       		.byte	0x3
 1953 099c 00000000 		.4byte	I2C0
 1954 09a0 2D       		.uleb128 0x2d
 1955 09a1 93040000 		.4byte	.LASF116
 1956 09a5 0A       		.byte	0xa
 1957 09a6 89       		.byte	0x89
 1958 09a7 E4010000 		.4byte	0x1e4
 1959 09ab B5090000 		.4byte	0x9b5
 1960 09af 0C       		.uleb128 0xc
 1961 09b0 E4010000 		.4byte	0x1e4
 1962 09b4 00       		.byte	0
 1963 09b5 2E       		.uleb128 0x2e
 1964 09b6 65050000 		.4byte	.LASF108
 1965 09ba 0D       		.byte	0xd
 1966 09bb 7A       		.byte	0x7a
 1967 09bc C6090000 		.4byte	0x9c6
 1968 09c0 0C       		.uleb128 0xc
 1969 09c1 81050000 		.4byte	0x581
 1970 09c5 00       		.byte	0
 1971 09c6 2F       		.uleb128 0x2f
 1972 09c7 78030000 		.4byte	.LASF109
 1973 09cb 0C       		.byte	0xc
 1974 09cc 8C01     		.2byte	0x18c
 1975 09ce DD090000 		.4byte	0x9dd
 1976 09d2 0C       		.uleb128 0xc
 1977 09d3 B5000000 		.4byte	0xb5
 1978 09d7 0C       		.uleb128 0xc
 1979 09d8 B5000000 		.4byte	0xb5
 1980 09dc 00       		.byte	0
 1981 09dd 2E       		.uleb128 0x2e
 1982 09de 38030000 		.4byte	.LASF110
 1983 09e2 09       		.byte	0x9
 1984 09e3 DA       		.byte	0xda
 1985 09e4 FD090000 		.4byte	0x9fd
 1986 09e8 0C       		.uleb128 0xc
 1987 09e9 23030000 		.4byte	0x323
 1988 09ed 0C       		.uleb128 0xc
 1989 09ee 10010000 		.4byte	0x110
 1990 09f2 0C       		.uleb128 0xc
 1991 09f3 B3020000 		.4byte	0x2b3
 1992 09f7 0C       		.uleb128 0xc
 1993 09f8 20020000 		.4byte	0x220
 1994 09fc 00       		.byte	0
 1995 09fd 2E       		.uleb128 0x2e
ARM GAS  /tmp/ccj21Iu9.s 			page 36


 1996 09fe 4E040000 		.4byte	.LASF111
 1997 0a02 0A       		.byte	0xa
 1998 0a03 8C       		.byte	0x8c
 1999 0a04 0E0A0000 		.4byte	0xa0e
 2000 0a08 0C       		.uleb128 0xc
 2001 0a09 D9000000 		.4byte	0xd9
 2002 0a0d 00       		.byte	0
 2003 0a0e 30       		.uleb128 0x30
 2004 0a0f 38040000 		.4byte	.LASF117
 2005 0a13 09       		.byte	0x9
 2006 0a14 DB       		.byte	0xdb
 2007 0a15 0C       		.uleb128 0xc
 2008 0a16 23030000 		.4byte	0x323
 2009 0a1a 00       		.byte	0
 2010 0a1b 00       		.byte	0
 2011              		.section	.debug_abbrev,"",%progbits
 2012              	.Ldebug_abbrev0:
 2013 0000 01       		.uleb128 0x1
 2014 0001 11       		.uleb128 0x11
 2015 0002 01       		.byte	0x1
 2016 0003 25       		.uleb128 0x25
 2017 0004 0E       		.uleb128 0xe
 2018 0005 13       		.uleb128 0x13
 2019 0006 0B       		.uleb128 0xb
 2020 0007 03       		.uleb128 0x3
 2021 0008 0E       		.uleb128 0xe
 2022 0009 1B       		.uleb128 0x1b
 2023 000a 0E       		.uleb128 0xe
 2024 000b 55       		.uleb128 0x55
 2025 000c 17       		.uleb128 0x17
 2026 000d 11       		.uleb128 0x11
 2027 000e 01       		.uleb128 0x1
 2028 000f 10       		.uleb128 0x10
 2029 0010 17       		.uleb128 0x17
 2030 0011 00       		.byte	0
 2031 0012 00       		.byte	0
 2032 0013 02       		.uleb128 0x2
 2033 0014 24       		.uleb128 0x24
 2034 0015 00       		.byte	0
 2035 0016 0B       		.uleb128 0xb
 2036 0017 0B       		.uleb128 0xb
 2037 0018 3E       		.uleb128 0x3e
 2038 0019 0B       		.uleb128 0xb
 2039 001a 03       		.uleb128 0x3
 2040 001b 0E       		.uleb128 0xe
 2041 001c 00       		.byte	0
 2042 001d 00       		.byte	0
 2043 001e 03       		.uleb128 0x3
 2044 001f 16       		.uleb128 0x16
 2045 0020 00       		.byte	0
 2046 0021 03       		.uleb128 0x3
 2047 0022 0E       		.uleb128 0xe
 2048 0023 3A       		.uleb128 0x3a
 2049 0024 0B       		.uleb128 0xb
 2050 0025 3B       		.uleb128 0x3b
 2051 0026 0B       		.uleb128 0xb
 2052 0027 49       		.uleb128 0x49
ARM GAS  /tmp/ccj21Iu9.s 			page 37


 2053 0028 13       		.uleb128 0x13
 2054 0029 00       		.byte	0
 2055 002a 00       		.byte	0
 2056 002b 04       		.uleb128 0x4
 2057 002c 24       		.uleb128 0x24
 2058 002d 00       		.byte	0
 2059 002e 0B       		.uleb128 0xb
 2060 002f 0B       		.uleb128 0xb
 2061 0030 3E       		.uleb128 0x3e
 2062 0031 0B       		.uleb128 0xb
 2063 0032 03       		.uleb128 0x3
 2064 0033 08       		.uleb128 0x8
 2065 0034 00       		.byte	0
 2066 0035 00       		.byte	0
 2067 0036 05       		.uleb128 0x5
 2068 0037 13       		.uleb128 0x13
 2069 0038 01       		.byte	0x1
 2070 0039 03       		.uleb128 0x3
 2071 003a 0E       		.uleb128 0xe
 2072 003b 0B       		.uleb128 0xb
 2073 003c 0B       		.uleb128 0xb
 2074 003d 3A       		.uleb128 0x3a
 2075 003e 0B       		.uleb128 0xb
 2076 003f 3B       		.uleb128 0x3b
 2077 0040 0B       		.uleb128 0xb
 2078 0041 01       		.uleb128 0x1
 2079 0042 13       		.uleb128 0x13
 2080 0043 00       		.byte	0
 2081 0044 00       		.byte	0
 2082 0045 06       		.uleb128 0x6
 2083 0046 0D       		.uleb128 0xd
 2084 0047 00       		.byte	0
 2085 0048 03       		.uleb128 0x3
 2086 0049 0E       		.uleb128 0xe
 2087 004a 3A       		.uleb128 0x3a
 2088 004b 0B       		.uleb128 0xb
 2089 004c 3B       		.uleb128 0x3b
 2090 004d 0B       		.uleb128 0xb
 2091 004e 49       		.uleb128 0x49
 2092 004f 13       		.uleb128 0x13
 2093 0050 38       		.uleb128 0x38
 2094 0051 0B       		.uleb128 0xb
 2095 0052 00       		.byte	0
 2096 0053 00       		.byte	0
 2097 0054 07       		.uleb128 0x7
 2098 0055 0D       		.uleb128 0xd
 2099 0056 00       		.byte	0
 2100 0057 03       		.uleb128 0x3
 2101 0058 08       		.uleb128 0x8
 2102 0059 3A       		.uleb128 0x3a
 2103 005a 0B       		.uleb128 0xb
 2104 005b 3B       		.uleb128 0x3b
 2105 005c 0B       		.uleb128 0xb
 2106 005d 49       		.uleb128 0x49
 2107 005e 13       		.uleb128 0x13
 2108 005f 38       		.uleb128 0x38
 2109 0060 0B       		.uleb128 0xb
ARM GAS  /tmp/ccj21Iu9.s 			page 38


 2110 0061 00       		.byte	0
 2111 0062 00       		.byte	0
 2112 0063 08       		.uleb128 0x8
 2113 0064 13       		.uleb128 0x13
 2114 0065 01       		.byte	0x1
 2115 0066 0B       		.uleb128 0xb
 2116 0067 0B       		.uleb128 0xb
 2117 0068 3A       		.uleb128 0x3a
 2118 0069 0B       		.uleb128 0xb
 2119 006a 3B       		.uleb128 0x3b
 2120 006b 0B       		.uleb128 0xb
 2121 006c 01       		.uleb128 0x1
 2122 006d 13       		.uleb128 0x13
 2123 006e 00       		.byte	0
 2124 006f 00       		.byte	0
 2125 0070 09       		.uleb128 0x9
 2126 0071 0F       		.uleb128 0xf
 2127 0072 00       		.byte	0
 2128 0073 0B       		.uleb128 0xb
 2129 0074 0B       		.uleb128 0xb
 2130 0075 49       		.uleb128 0x49
 2131 0076 13       		.uleb128 0x13
 2132 0077 00       		.byte	0
 2133 0078 00       		.byte	0
 2134 0079 0A       		.uleb128 0xa
 2135 007a 0F       		.uleb128 0xf
 2136 007b 00       		.byte	0
 2137 007c 0B       		.uleb128 0xb
 2138 007d 0B       		.uleb128 0xb
 2139 007e 00       		.byte	0
 2140 007f 00       		.byte	0
 2141 0080 0B       		.uleb128 0xb
 2142 0081 15       		.uleb128 0x15
 2143 0082 01       		.byte	0x1
 2144 0083 27       		.uleb128 0x27
 2145 0084 19       		.uleb128 0x19
 2146 0085 01       		.uleb128 0x1
 2147 0086 13       		.uleb128 0x13
 2148 0087 00       		.byte	0
 2149 0088 00       		.byte	0
 2150 0089 0C       		.uleb128 0xc
 2151 008a 05       		.uleb128 0x5
 2152 008b 00       		.byte	0
 2153 008c 49       		.uleb128 0x49
 2154 008d 13       		.uleb128 0x13
 2155 008e 00       		.byte	0
 2156 008f 00       		.byte	0
 2157 0090 0D       		.uleb128 0xd
 2158 0091 17       		.uleb128 0x17
 2159 0092 01       		.byte	0x1
 2160 0093 0B       		.uleb128 0xb
 2161 0094 0B       		.uleb128 0xb
 2162 0095 3A       		.uleb128 0x3a
 2163 0096 0B       		.uleb128 0xb
 2164 0097 3B       		.uleb128 0x3b
 2165 0098 0B       		.uleb128 0xb
 2166 0099 01       		.uleb128 0x1
ARM GAS  /tmp/ccj21Iu9.s 			page 39


 2167 009a 13       		.uleb128 0x13
 2168 009b 00       		.byte	0
 2169 009c 00       		.byte	0
 2170 009d 0E       		.uleb128 0xe
 2171 009e 0D       		.uleb128 0xd
 2172 009f 00       		.byte	0
 2173 00a0 03       		.uleb128 0x3
 2174 00a1 0E       		.uleb128 0xe
 2175 00a2 3A       		.uleb128 0x3a
 2176 00a3 0B       		.uleb128 0xb
 2177 00a4 3B       		.uleb128 0x3b
 2178 00a5 0B       		.uleb128 0xb
 2179 00a6 49       		.uleb128 0x49
 2180 00a7 13       		.uleb128 0x13
 2181 00a8 00       		.byte	0
 2182 00a9 00       		.byte	0
 2183 00aa 0F       		.uleb128 0xf
 2184 00ab 26       		.uleb128 0x26
 2185 00ac 00       		.byte	0
 2186 00ad 49       		.uleb128 0x49
 2187 00ae 13       		.uleb128 0x13
 2188 00af 00       		.byte	0
 2189 00b0 00       		.byte	0
 2190 00b1 10       		.uleb128 0x10
 2191 00b2 0D       		.uleb128 0xd
 2192 00b3 00       		.byte	0
 2193 00b4 03       		.uleb128 0x3
 2194 00b5 0E       		.uleb128 0xe
 2195 00b6 3A       		.uleb128 0x3a
 2196 00b7 0B       		.uleb128 0xb
 2197 00b8 3B       		.uleb128 0x3b
 2198 00b9 05       		.uleb128 0x5
 2199 00ba 49       		.uleb128 0x49
 2200 00bb 13       		.uleb128 0x13
 2201 00bc 38       		.uleb128 0x38
 2202 00bd 0B       		.uleb128 0xb
 2203 00be 00       		.byte	0
 2204 00bf 00       		.byte	0
 2205 00c0 11       		.uleb128 0x11
 2206 00c1 35       		.uleb128 0x35
 2207 00c2 00       		.byte	0
 2208 00c3 49       		.uleb128 0x49
 2209 00c4 13       		.uleb128 0x13
 2210 00c5 00       		.byte	0
 2211 00c6 00       		.byte	0
 2212 00c7 12       		.uleb128 0x12
 2213 00c8 16       		.uleb128 0x16
 2214 00c9 00       		.byte	0
 2215 00ca 03       		.uleb128 0x3
 2216 00cb 0E       		.uleb128 0xe
 2217 00cc 3A       		.uleb128 0x3a
 2218 00cd 0B       		.uleb128 0xb
 2219 00ce 3B       		.uleb128 0x3b
 2220 00cf 05       		.uleb128 0x5
 2221 00d0 49       		.uleb128 0x49
 2222 00d1 13       		.uleb128 0x13
 2223 00d2 00       		.byte	0
ARM GAS  /tmp/ccj21Iu9.s 			page 40


 2224 00d3 00       		.byte	0
 2225 00d4 13       		.uleb128 0x13
 2226 00d5 04       		.uleb128 0x4
 2227 00d6 01       		.byte	0x1
 2228 00d7 0B       		.uleb128 0xb
 2229 00d8 0B       		.uleb128 0xb
 2230 00d9 3A       		.uleb128 0x3a
 2231 00da 0B       		.uleb128 0xb
 2232 00db 3B       		.uleb128 0x3b
 2233 00dc 0B       		.uleb128 0xb
 2234 00dd 01       		.uleb128 0x1
 2235 00de 13       		.uleb128 0x13
 2236 00df 00       		.byte	0
 2237 00e0 00       		.byte	0
 2238 00e1 14       		.uleb128 0x14
 2239 00e2 28       		.uleb128 0x28
 2240 00e3 00       		.byte	0
 2241 00e4 03       		.uleb128 0x3
 2242 00e5 0E       		.uleb128 0xe
 2243 00e6 1C       		.uleb128 0x1c
 2244 00e7 0D       		.uleb128 0xd
 2245 00e8 00       		.byte	0
 2246 00e9 00       		.byte	0
 2247 00ea 15       		.uleb128 0x15
 2248 00eb 2E       		.uleb128 0x2e
 2249 00ec 01       		.byte	0x1
 2250 00ed 03       		.uleb128 0x3
 2251 00ee 0E       		.uleb128 0xe
 2252 00ef 3A       		.uleb128 0x3a
 2253 00f0 0B       		.uleb128 0xb
 2254 00f1 3B       		.uleb128 0x3b
 2255 00f2 0B       		.uleb128 0xb
 2256 00f3 27       		.uleb128 0x27
 2257 00f4 19       		.uleb128 0x19
 2258 00f5 11       		.uleb128 0x11
 2259 00f6 01       		.uleb128 0x1
 2260 00f7 12       		.uleb128 0x12
 2261 00f8 06       		.uleb128 0x6
 2262 00f9 40       		.uleb128 0x40
 2263 00fa 18       		.uleb128 0x18
 2264 00fb 9742     		.uleb128 0x2117
 2265 00fd 19       		.uleb128 0x19
 2266 00fe 01       		.uleb128 0x1
 2267 00ff 13       		.uleb128 0x13
 2268 0100 00       		.byte	0
 2269 0101 00       		.byte	0
 2270 0102 16       		.uleb128 0x16
 2271 0103 05       		.uleb128 0x5
 2272 0104 00       		.byte	0
 2273 0105 03       		.uleb128 0x3
 2274 0106 08       		.uleb128 0x8
 2275 0107 3A       		.uleb128 0x3a
 2276 0108 0B       		.uleb128 0xb
 2277 0109 3B       		.uleb128 0x3b
 2278 010a 0B       		.uleb128 0xb
 2279 010b 49       		.uleb128 0x49
 2280 010c 13       		.uleb128 0x13
ARM GAS  /tmp/ccj21Iu9.s 			page 41


 2281 010d 02       		.uleb128 0x2
 2282 010e 17       		.uleb128 0x17
 2283 010f 00       		.byte	0
 2284 0110 00       		.byte	0
 2285 0111 17       		.uleb128 0x17
 2286 0112 34       		.uleb128 0x34
 2287 0113 00       		.byte	0
 2288 0114 03       		.uleb128 0x3
 2289 0115 0E       		.uleb128 0xe
 2290 0116 3A       		.uleb128 0x3a
 2291 0117 0B       		.uleb128 0xb
 2292 0118 3B       		.uleb128 0x3b
 2293 0119 0B       		.uleb128 0xb
 2294 011a 49       		.uleb128 0x49
 2295 011b 13       		.uleb128 0x13
 2296 011c 02       		.uleb128 0x2
 2297 011d 17       		.uleb128 0x17
 2298 011e 00       		.byte	0
 2299 011f 00       		.byte	0
 2300 0120 18       		.uleb128 0x18
 2301 0121 0B       		.uleb128 0xb
 2302 0122 01       		.byte	0x1
 2303 0123 55       		.uleb128 0x55
 2304 0124 17       		.uleb128 0x17
 2305 0125 00       		.byte	0
 2306 0126 00       		.byte	0
 2307 0127 19       		.uleb128 0x19
 2308 0128 34       		.uleb128 0x34
 2309 0129 00       		.byte	0
 2310 012a 03       		.uleb128 0x3
 2311 012b 08       		.uleb128 0x8
 2312 012c 3A       		.uleb128 0x3a
 2313 012d 0B       		.uleb128 0xb
 2314 012e 3B       		.uleb128 0x3b
 2315 012f 0B       		.uleb128 0xb
 2316 0130 49       		.uleb128 0x49
 2317 0131 13       		.uleb128 0x13
 2318 0132 02       		.uleb128 0x2
 2319 0133 17       		.uleb128 0x17
 2320 0134 00       		.byte	0
 2321 0135 00       		.byte	0
 2322 0136 1A       		.uleb128 0x1a
 2323 0137 898201   		.uleb128 0x4109
 2324 013a 00       		.byte	0
 2325 013b 11       		.uleb128 0x11
 2326 013c 01       		.uleb128 0x1
 2327 013d 9542     		.uleb128 0x2115
 2328 013f 19       		.uleb128 0x19
 2329 0140 31       		.uleb128 0x31
 2330 0141 13       		.uleb128 0x13
 2331 0142 00       		.byte	0
 2332 0143 00       		.byte	0
 2333 0144 1B       		.uleb128 0x1b
 2334 0145 2E       		.uleb128 0x2e
 2335 0146 01       		.byte	0x1
 2336 0147 3F       		.uleb128 0x3f
 2337 0148 19       		.uleb128 0x19
ARM GAS  /tmp/ccj21Iu9.s 			page 42


 2338 0149 03       		.uleb128 0x3
 2339 014a 0E       		.uleb128 0xe
 2340 014b 3A       		.uleb128 0x3a
 2341 014c 0B       		.uleb128 0xb
 2342 014d 3B       		.uleb128 0x3b
 2343 014e 0B       		.uleb128 0xb
 2344 014f 27       		.uleb128 0x27
 2345 0150 19       		.uleb128 0x19
 2346 0151 11       		.uleb128 0x11
 2347 0152 01       		.uleb128 0x1
 2348 0153 12       		.uleb128 0x12
 2349 0154 06       		.uleb128 0x6
 2350 0155 40       		.uleb128 0x40
 2351 0156 18       		.uleb128 0x18
 2352 0157 9742     		.uleb128 0x2117
 2353 0159 19       		.uleb128 0x19
 2354 015a 01       		.uleb128 0x1
 2355 015b 13       		.uleb128 0x13
 2356 015c 00       		.byte	0
 2357 015d 00       		.byte	0
 2358 015e 1C       		.uleb128 0x1c
 2359 015f 05       		.uleb128 0x5
 2360 0160 00       		.byte	0
 2361 0161 03       		.uleb128 0x3
 2362 0162 0E       		.uleb128 0xe
 2363 0163 3A       		.uleb128 0x3a
 2364 0164 0B       		.uleb128 0xb
 2365 0165 3B       		.uleb128 0x3b
 2366 0166 0B       		.uleb128 0xb
 2367 0167 49       		.uleb128 0x49
 2368 0168 13       		.uleb128 0x13
 2369 0169 02       		.uleb128 0x2
 2370 016a 17       		.uleb128 0x17
 2371 016b 00       		.byte	0
 2372 016c 00       		.byte	0
 2373 016d 1D       		.uleb128 0x1d
 2374 016e 0B       		.uleb128 0xb
 2375 016f 01       		.byte	0x1
 2376 0170 55       		.uleb128 0x55
 2377 0171 17       		.uleb128 0x17
 2378 0172 01       		.uleb128 0x1
 2379 0173 13       		.uleb128 0x13
 2380 0174 00       		.byte	0
 2381 0175 00       		.byte	0
 2382 0176 1E       		.uleb128 0x1e
 2383 0177 898201   		.uleb128 0x4109
 2384 017a 01       		.byte	0x1
 2385 017b 11       		.uleb128 0x11
 2386 017c 01       		.uleb128 0x1
 2387 017d 9542     		.uleb128 0x2115
 2388 017f 19       		.uleb128 0x19
 2389 0180 31       		.uleb128 0x31
 2390 0181 13       		.uleb128 0x13
 2391 0182 00       		.byte	0
 2392 0183 00       		.byte	0
 2393 0184 1F       		.uleb128 0x1f
 2394 0185 8A8201   		.uleb128 0x410a
ARM GAS  /tmp/ccj21Iu9.s 			page 43


 2395 0188 00       		.byte	0
 2396 0189 02       		.uleb128 0x2
 2397 018a 18       		.uleb128 0x18
 2398 018b 9142     		.uleb128 0x2111
 2399 018d 18       		.uleb128 0x18
 2400 018e 00       		.byte	0
 2401 018f 00       		.byte	0
 2402 0190 20       		.uleb128 0x20
 2403 0191 2E       		.uleb128 0x2e
 2404 0192 01       		.byte	0x1
 2405 0193 3F       		.uleb128 0x3f
 2406 0194 19       		.uleb128 0x19
 2407 0195 03       		.uleb128 0x3
 2408 0196 0E       		.uleb128 0xe
 2409 0197 3A       		.uleb128 0x3a
 2410 0198 0B       		.uleb128 0xb
 2411 0199 3B       		.uleb128 0x3b
 2412 019a 0B       		.uleb128 0xb
 2413 019b 27       		.uleb128 0x27
 2414 019c 19       		.uleb128 0x19
 2415 019d 11       		.uleb128 0x11
 2416 019e 01       		.uleb128 0x1
 2417 019f 12       		.uleb128 0x12
 2418 01a0 06       		.uleb128 0x6
 2419 01a1 40       		.uleb128 0x40
 2420 01a2 18       		.uleb128 0x18
 2421 01a3 9642     		.uleb128 0x2116
 2422 01a5 19       		.uleb128 0x19
 2423 01a6 01       		.uleb128 0x1
 2424 01a7 13       		.uleb128 0x13
 2425 01a8 00       		.byte	0
 2426 01a9 00       		.byte	0
 2427 01aa 21       		.uleb128 0x21
 2428 01ab 898201   		.uleb128 0x4109
 2429 01ae 01       		.byte	0x1
 2430 01af 11       		.uleb128 0x11
 2431 01b0 01       		.uleb128 0x1
 2432 01b1 31       		.uleb128 0x31
 2433 01b2 13       		.uleb128 0x13
 2434 01b3 01       		.uleb128 0x1
 2435 01b4 13       		.uleb128 0x13
 2436 01b5 00       		.byte	0
 2437 01b6 00       		.byte	0
 2438 01b7 22       		.uleb128 0x22
 2439 01b8 898201   		.uleb128 0x4109
 2440 01bb 01       		.byte	0x1
 2441 01bc 11       		.uleb128 0x11
 2442 01bd 01       		.uleb128 0x1
 2443 01be 31       		.uleb128 0x31
 2444 01bf 13       		.uleb128 0x13
 2445 01c0 00       		.byte	0
 2446 01c1 00       		.byte	0
 2447 01c2 23       		.uleb128 0x23
 2448 01c3 2E       		.uleb128 0x2e
 2449 01c4 01       		.byte	0x1
 2450 01c5 3F       		.uleb128 0x3f
 2451 01c6 19       		.uleb128 0x19
ARM GAS  /tmp/ccj21Iu9.s 			page 44


 2452 01c7 03       		.uleb128 0x3
 2453 01c8 0E       		.uleb128 0xe
 2454 01c9 3A       		.uleb128 0x3a
 2455 01ca 0B       		.uleb128 0xb
 2456 01cb 3B       		.uleb128 0x3b
 2457 01cc 05       		.uleb128 0x5
 2458 01cd 27       		.uleb128 0x27
 2459 01ce 19       		.uleb128 0x19
 2460 01cf 49       		.uleb128 0x49
 2461 01d0 13       		.uleb128 0x13
 2462 01d1 11       		.uleb128 0x11
 2463 01d2 01       		.uleb128 0x1
 2464 01d3 12       		.uleb128 0x12
 2465 01d4 06       		.uleb128 0x6
 2466 01d5 40       		.uleb128 0x40
 2467 01d6 18       		.uleb128 0x18
 2468 01d7 9742     		.uleb128 0x2117
 2469 01d9 19       		.uleb128 0x19
 2470 01da 01       		.uleb128 0x1
 2471 01db 13       		.uleb128 0x13
 2472 01dc 00       		.byte	0
 2473 01dd 00       		.byte	0
 2474 01de 24       		.uleb128 0x24
 2475 01df 05       		.uleb128 0x5
 2476 01e0 00       		.byte	0
 2477 01e1 03       		.uleb128 0x3
 2478 01e2 0E       		.uleb128 0xe
 2479 01e3 3A       		.uleb128 0x3a
 2480 01e4 0B       		.uleb128 0xb
 2481 01e5 3B       		.uleb128 0x3b
 2482 01e6 05       		.uleb128 0x5
 2483 01e7 49       		.uleb128 0x49
 2484 01e8 13       		.uleb128 0x13
 2485 01e9 02       		.uleb128 0x2
 2486 01ea 17       		.uleb128 0x17
 2487 01eb 00       		.byte	0
 2488 01ec 00       		.byte	0
 2489 01ed 25       		.uleb128 0x25
 2490 01ee 05       		.uleb128 0x5
 2491 01ef 00       		.byte	0
 2492 01f0 03       		.uleb128 0x3
 2493 01f1 0E       		.uleb128 0xe
 2494 01f2 3A       		.uleb128 0x3a
 2495 01f3 0B       		.uleb128 0xb
 2496 01f4 3B       		.uleb128 0x3b
 2497 01f5 05       		.uleb128 0x5
 2498 01f6 49       		.uleb128 0x49
 2499 01f7 13       		.uleb128 0x13
 2500 01f8 02       		.uleb128 0x2
 2501 01f9 18       		.uleb128 0x18
 2502 01fa 00       		.byte	0
 2503 01fb 00       		.byte	0
 2504 01fc 26       		.uleb128 0x26
 2505 01fd 34       		.uleb128 0x34
 2506 01fe 00       		.byte	0
 2507 01ff 03       		.uleb128 0x3
 2508 0200 08       		.uleb128 0x8
ARM GAS  /tmp/ccj21Iu9.s 			page 45


 2509 0201 3A       		.uleb128 0x3a
 2510 0202 0B       		.uleb128 0xb
 2511 0203 3B       		.uleb128 0x3b
 2512 0204 05       		.uleb128 0x5
 2513 0205 49       		.uleb128 0x49
 2514 0206 13       		.uleb128 0x13
 2515 0207 02       		.uleb128 0x2
 2516 0208 18       		.uleb128 0x18
 2517 0209 00       		.byte	0
 2518 020a 00       		.byte	0
 2519 020b 27       		.uleb128 0x27
 2520 020c 34       		.uleb128 0x34
 2521 020d 00       		.byte	0
 2522 020e 03       		.uleb128 0x3
 2523 020f 0E       		.uleb128 0xe
 2524 0210 3A       		.uleb128 0x3a
 2525 0211 0B       		.uleb128 0xb
 2526 0212 3B       		.uleb128 0x3b
 2527 0213 05       		.uleb128 0x5
 2528 0214 49       		.uleb128 0x49
 2529 0215 13       		.uleb128 0x13
 2530 0216 02       		.uleb128 0x2
 2531 0217 17       		.uleb128 0x17
 2532 0218 00       		.byte	0
 2533 0219 00       		.byte	0
 2534 021a 28       		.uleb128 0x28
 2535 021b 2E       		.uleb128 0x2e
 2536 021c 01       		.byte	0x1
 2537 021d 3F       		.uleb128 0x3f
 2538 021e 19       		.uleb128 0x19
 2539 021f 03       		.uleb128 0x3
 2540 0220 0E       		.uleb128 0xe
 2541 0221 3A       		.uleb128 0x3a
 2542 0222 0B       		.uleb128 0xb
 2543 0223 3B       		.uleb128 0x3b
 2544 0224 0B       		.uleb128 0xb
 2545 0225 27       		.uleb128 0x27
 2546 0226 19       		.uleb128 0x19
 2547 0227 49       		.uleb128 0x49
 2548 0228 13       		.uleb128 0x13
 2549 0229 11       		.uleb128 0x11
 2550 022a 01       		.uleb128 0x1
 2551 022b 12       		.uleb128 0x12
 2552 022c 06       		.uleb128 0x6
 2553 022d 40       		.uleb128 0x40
 2554 022e 18       		.uleb128 0x18
 2555 022f 9742     		.uleb128 0x2117
 2556 0231 19       		.uleb128 0x19
 2557 0232 01       		.uleb128 0x1
 2558 0233 13       		.uleb128 0x13
 2559 0234 00       		.byte	0
 2560 0235 00       		.byte	0
 2561 0236 29       		.uleb128 0x29
 2562 0237 05       		.uleb128 0x5
 2563 0238 00       		.byte	0
 2564 0239 03       		.uleb128 0x3
 2565 023a 0E       		.uleb128 0xe
ARM GAS  /tmp/ccj21Iu9.s 			page 46


 2566 023b 3A       		.uleb128 0x3a
 2567 023c 0B       		.uleb128 0xb
 2568 023d 3B       		.uleb128 0x3b
 2569 023e 0B       		.uleb128 0xb
 2570 023f 49       		.uleb128 0x49
 2571 0240 13       		.uleb128 0x13
 2572 0241 02       		.uleb128 0x2
 2573 0242 18       		.uleb128 0x18
 2574 0243 00       		.byte	0
 2575 0244 00       		.byte	0
 2576 0245 2A       		.uleb128 0x2a
 2577 0246 34       		.uleb128 0x34
 2578 0247 00       		.byte	0
 2579 0248 03       		.uleb128 0x3
 2580 0249 08       		.uleb128 0x8
 2581 024a 3A       		.uleb128 0x3a
 2582 024b 0B       		.uleb128 0xb
 2583 024c 3B       		.uleb128 0x3b
 2584 024d 0B       		.uleb128 0xb
 2585 024e 49       		.uleb128 0x49
 2586 024f 13       		.uleb128 0x13
 2587 0250 02       		.uleb128 0x2
 2588 0251 18       		.uleb128 0x18
 2589 0252 00       		.byte	0
 2590 0253 00       		.byte	0
 2591 0254 2B       		.uleb128 0x2b
 2592 0255 34       		.uleb128 0x34
 2593 0256 00       		.byte	0
 2594 0257 03       		.uleb128 0x3
 2595 0258 0E       		.uleb128 0xe
 2596 0259 3A       		.uleb128 0x3a
 2597 025a 0B       		.uleb128 0xb
 2598 025b 3B       		.uleb128 0x3b
 2599 025c 0B       		.uleb128 0xb
 2600 025d 49       		.uleb128 0x49
 2601 025e 13       		.uleb128 0x13
 2602 025f 3F       		.uleb128 0x3f
 2603 0260 19       		.uleb128 0x19
 2604 0261 3C       		.uleb128 0x3c
 2605 0262 19       		.uleb128 0x19
 2606 0263 00       		.byte	0
 2607 0264 00       		.byte	0
 2608 0265 2C       		.uleb128 0x2c
 2609 0266 34       		.uleb128 0x34
 2610 0267 00       		.byte	0
 2611 0268 03       		.uleb128 0x3
 2612 0269 0E       		.uleb128 0xe
 2613 026a 3A       		.uleb128 0x3a
 2614 026b 0B       		.uleb128 0xb
 2615 026c 3B       		.uleb128 0x3b
 2616 026d 0B       		.uleb128 0xb
 2617 026e 49       		.uleb128 0x49
 2618 026f 13       		.uleb128 0x13
 2619 0270 3F       		.uleb128 0x3f
 2620 0271 19       		.uleb128 0x19
 2621 0272 02       		.uleb128 0x2
 2622 0273 18       		.uleb128 0x18
ARM GAS  /tmp/ccj21Iu9.s 			page 47


 2623 0274 00       		.byte	0
 2624 0275 00       		.byte	0
 2625 0276 2D       		.uleb128 0x2d
 2626 0277 2E       		.uleb128 0x2e
 2627 0278 01       		.byte	0x1
 2628 0279 3F       		.uleb128 0x3f
 2629 027a 19       		.uleb128 0x19
 2630 027b 03       		.uleb128 0x3
 2631 027c 0E       		.uleb128 0xe
 2632 027d 3A       		.uleb128 0x3a
 2633 027e 0B       		.uleb128 0xb
 2634 027f 3B       		.uleb128 0x3b
 2635 0280 0B       		.uleb128 0xb
 2636 0281 27       		.uleb128 0x27
 2637 0282 19       		.uleb128 0x19
 2638 0283 49       		.uleb128 0x49
 2639 0284 13       		.uleb128 0x13
 2640 0285 3C       		.uleb128 0x3c
 2641 0286 19       		.uleb128 0x19
 2642 0287 01       		.uleb128 0x1
 2643 0288 13       		.uleb128 0x13
 2644 0289 00       		.byte	0
 2645 028a 00       		.byte	0
 2646 028b 2E       		.uleb128 0x2e
 2647 028c 2E       		.uleb128 0x2e
 2648 028d 01       		.byte	0x1
 2649 028e 3F       		.uleb128 0x3f
 2650 028f 19       		.uleb128 0x19
 2651 0290 03       		.uleb128 0x3
 2652 0291 0E       		.uleb128 0xe
 2653 0292 3A       		.uleb128 0x3a
 2654 0293 0B       		.uleb128 0xb
 2655 0294 3B       		.uleb128 0x3b
 2656 0295 0B       		.uleb128 0xb
 2657 0296 27       		.uleb128 0x27
 2658 0297 19       		.uleb128 0x19
 2659 0298 3C       		.uleb128 0x3c
 2660 0299 19       		.uleb128 0x19
 2661 029a 01       		.uleb128 0x1
 2662 029b 13       		.uleb128 0x13
 2663 029c 00       		.byte	0
 2664 029d 00       		.byte	0
 2665 029e 2F       		.uleb128 0x2f
 2666 029f 2E       		.uleb128 0x2e
 2667 02a0 01       		.byte	0x1
 2668 02a1 3F       		.uleb128 0x3f
 2669 02a2 19       		.uleb128 0x19
 2670 02a3 03       		.uleb128 0x3
 2671 02a4 0E       		.uleb128 0xe
 2672 02a5 3A       		.uleb128 0x3a
 2673 02a6 0B       		.uleb128 0xb
 2674 02a7 3B       		.uleb128 0x3b
 2675 02a8 05       		.uleb128 0x5
 2676 02a9 27       		.uleb128 0x27
 2677 02aa 19       		.uleb128 0x19
 2678 02ab 3C       		.uleb128 0x3c
 2679 02ac 19       		.uleb128 0x19
ARM GAS  /tmp/ccj21Iu9.s 			page 48


 2680 02ad 01       		.uleb128 0x1
 2681 02ae 13       		.uleb128 0x13
 2682 02af 00       		.byte	0
 2683 02b0 00       		.byte	0
 2684 02b1 30       		.uleb128 0x30
 2685 02b2 2E       		.uleb128 0x2e
 2686 02b3 01       		.byte	0x1
 2687 02b4 3F       		.uleb128 0x3f
 2688 02b5 19       		.uleb128 0x19
 2689 02b6 03       		.uleb128 0x3
 2690 02b7 0E       		.uleb128 0xe
 2691 02b8 3A       		.uleb128 0x3a
 2692 02b9 0B       		.uleb128 0xb
 2693 02ba 3B       		.uleb128 0x3b
 2694 02bb 0B       		.uleb128 0xb
 2695 02bc 27       		.uleb128 0x27
 2696 02bd 19       		.uleb128 0x19
 2697 02be 3C       		.uleb128 0x3c
 2698 02bf 19       		.uleb128 0x19
 2699 02c0 00       		.byte	0
 2700 02c1 00       		.byte	0
 2701 02c2 00       		.byte	0
 2702              		.section	.debug_loc,"",%progbits
 2703              	.Ldebug_loc0:
 2704              	.LLST0:
 2705 0000 00000000 		.4byte	.LVL0
 2706 0004 18000000 		.4byte	.LVL3
 2707 0008 0100     		.2byte	0x1
 2708 000a 50       		.byte	0x50
 2709 000b 18000000 		.4byte	.LVL3
 2710 000f 6F000000 		.4byte	.LVL5-1
 2711 0013 0100     		.2byte	0x1
 2712 0015 53       		.byte	0x53
 2713 0016 6F000000 		.4byte	.LVL5-1
 2714 001a 74000000 		.4byte	.LFE7
 2715 001e 0400     		.2byte	0x4
 2716 0020 F3       		.byte	0xf3
 2717 0021 01       		.uleb128 0x1
 2718 0022 50       		.byte	0x50
 2719 0023 9F       		.byte	0x9f
 2720 0024 00000000 		.4byte	0
 2721 0028 00000000 		.4byte	0
 2722              	.LLST1:
 2723 002c 08000000 		.4byte	.LVL1
 2724 0030 18000000 		.4byte	.LVL3
 2725 0034 0100     		.2byte	0x1
 2726 0036 50       		.byte	0x50
 2727 0037 18000000 		.4byte	.LVL3
 2728 003b 6F000000 		.4byte	.LVL5-1
 2729 003f 0100     		.2byte	0x1
 2730 0041 53       		.byte	0x53
 2731 0042 6F000000 		.4byte	.LVL5-1
 2732 0046 74000000 		.4byte	.LFE7
 2733 004a 0400     		.2byte	0x4
 2734 004c F3       		.byte	0xf3
 2735 004d 01       		.uleb128 0x1
 2736 004e 50       		.byte	0x50
ARM GAS  /tmp/ccj21Iu9.s 			page 49


 2737 004f 9F       		.byte	0x9f
 2738 0050 00000000 		.4byte	0
 2739 0054 00000000 		.4byte	0
 2740              	.LLST2:
 2741 0058 14000000 		.4byte	.LVL2
 2742 005c 6F000000 		.4byte	.LVL5-1
 2743 0060 0100     		.2byte	0x1
 2744 0062 52       		.byte	0x52
 2745 0063 00000000 		.4byte	0
 2746 0067 00000000 		.4byte	0
 2747              	.LLST3:
 2748 006b 5C000000 		.4byte	.LVL4
 2749 006f 6F000000 		.4byte	.LVL5-1
 2750 0073 0100     		.2byte	0x1
 2751 0075 51       		.byte	0x51
 2752 0076 00000000 		.4byte	0
 2753 007a 00000000 		.4byte	0
 2754              	.LLST4:
 2755 007e 00000000 		.4byte	.LVL6
 2756 0082 34000000 		.4byte	.LVL13
 2757 0086 0100     		.2byte	0x1
 2758 0088 50       		.byte	0x50
 2759 0089 34000000 		.4byte	.LVL13
 2760 008d 3C000000 		.4byte	.LVL14
 2761 0091 0400     		.2byte	0x4
 2762 0093 F3       		.byte	0xf3
 2763 0094 01       		.uleb128 0x1
 2764 0095 50       		.byte	0x50
 2765 0096 9F       		.byte	0x9f
 2766 0097 3C000000 		.4byte	.LVL14
 2767 009b C0000000 		.4byte	.LVL17
 2768 009f 0100     		.2byte	0x1
 2769 00a1 50       		.byte	0x50
 2770 00a2 C0000000 		.4byte	.LVL17
 2771 00a6 C8000000 		.4byte	.LVL18
 2772 00aa 0400     		.2byte	0x4
 2773 00ac F3       		.byte	0xf3
 2774 00ad 01       		.uleb128 0x1
 2775 00ae 50       		.byte	0x50
 2776 00af 9F       		.byte	0x9f
 2777 00b0 C8000000 		.4byte	.LVL18
 2778 00b4 64010000 		.4byte	.LFE8
 2779 00b8 0100     		.2byte	0x1
 2780 00ba 50       		.byte	0x50
 2781 00bb 00000000 		.4byte	0
 2782 00bf 00000000 		.4byte	0
 2783              	.LLST5:
 2784 00c3 04000000 		.4byte	.LVL7
 2785 00c7 28000000 		.4byte	.LVL11
 2786 00cb 0100     		.2byte	0x1
 2787 00cd 52       		.byte	0x52
 2788 00ce 28000000 		.4byte	.LVL11
 2789 00d2 30000000 		.4byte	.LVL12
 2790 00d6 0200     		.2byte	0x2
 2791 00d8 70       		.byte	0x70
 2792 00d9 0C       		.sleb128 12
 2793 00da 3C000000 		.4byte	.LVL14
ARM GAS  /tmp/ccj21Iu9.s 			page 50


 2794 00de C7000000 		.4byte	.LVL18-1
 2795 00e2 0100     		.2byte	0x1
 2796 00e4 52       		.byte	0x52
 2797 00e5 C8000000 		.4byte	.LVL18
 2798 00e9 64010000 		.4byte	.LFE8
 2799 00ed 0100     		.2byte	0x1
 2800 00ef 52       		.byte	0x52
 2801 00f0 00000000 		.4byte	0
 2802 00f4 00000000 		.4byte	0
 2803              	.LLST6:
 2804 00f8 0C000000 		.4byte	.LVL8
 2805 00fc 24000000 		.4byte	.LVL10
 2806 0100 0100     		.2byte	0x1
 2807 0102 51       		.byte	0x51
 2808 0103 3C000000 		.4byte	.LVL14
 2809 0107 54000000 		.4byte	.LVL15
 2810 010b 0100     		.2byte	0x1
 2811 010d 51       		.byte	0x51
 2812 010e C8000000 		.4byte	.LVL18
 2813 0112 F8000000 		.4byte	.LVL19
 2814 0116 0100     		.2byte	0x1
 2815 0118 51       		.byte	0x51
 2816 0119 14010000 		.4byte	.LVL20
 2817 011d 34010000 		.4byte	.LVL21
 2818 0121 0100     		.2byte	0x1
 2819 0123 51       		.byte	0x51
 2820 0124 00000000 		.4byte	0
 2821 0128 00000000 		.4byte	0
 2822              	.LLST7:
 2823 012c 20000000 		.4byte	.LVL9
 2824 0130 3B000000 		.4byte	.LVL14-1
 2825 0134 0100     		.2byte	0x1
 2826 0136 53       		.byte	0x53
 2827 0137 00000000 		.4byte	0
 2828 013b 00000000 		.4byte	0
 2829              	.LLST8:
 2830 013f B4000000 		.4byte	.LVL16
 2831 0143 C7000000 		.4byte	.LVL18-1
 2832 0147 0100     		.2byte	0x1
 2833 0149 53       		.byte	0x53
 2834 014a 00000000 		.4byte	0
 2835 014e 00000000 		.4byte	0
 2836              	.LLST9:
 2837 0152 00000000 		.4byte	.LVL23
 2838 0156 10000000 		.4byte	.LVL24
 2839 015a 0100     		.2byte	0x1
 2840 015c 50       		.byte	0x50
 2841 015d 10000000 		.4byte	.LVL24
 2842 0161 68000000 		.4byte	.LFE10
 2843 0165 0100     		.2byte	0x1
 2844 0167 54       		.byte	0x54
 2845 0168 00000000 		.4byte	0
 2846 016c 00000000 		.4byte	0
 2847              	.LLST10:
 2848 0170 2C000000 		.4byte	.LVL27
 2849 0174 3F000000 		.4byte	.LVL28-1
 2850 0178 0100     		.2byte	0x1
ARM GAS  /tmp/ccj21Iu9.s 			page 51


 2851 017a 51       		.byte	0x51
 2852 017b 58000000 		.4byte	.LVL29
 2853 017f 68000000 		.4byte	.LFE10
 2854 0183 0100     		.2byte	0x1
 2855 0185 51       		.byte	0x51
 2856 0186 00000000 		.4byte	0
 2857 018a 00000000 		.4byte	0
 2858              	.LLST11:
 2859 018e 00000000 		.4byte	.LVL30
 2860 0192 0C000000 		.4byte	.LVL31
 2861 0196 0100     		.2byte	0x1
 2862 0198 50       		.byte	0x50
 2863 0199 0C000000 		.4byte	.LVL31
 2864 019d 34000000 		.4byte	.LFE11
 2865 01a1 0100     		.2byte	0x1
 2866 01a3 54       		.byte	0x54
 2867 01a4 00000000 		.4byte	0
 2868 01a8 00000000 		.4byte	0
 2869              	.LLST12:
 2870 01ac 00000000 		.4byte	.LVL34
 2871 01b0 28000000 		.4byte	.LVL35
 2872 01b4 0100     		.2byte	0x1
 2873 01b6 50       		.byte	0x50
 2874 01b7 28000000 		.4byte	.LVL35
 2875 01bb BC000000 		.4byte	.LVL45
 2876 01bf 0100     		.2byte	0x1
 2877 01c1 54       		.byte	0x54
 2878 01c2 BC000000 		.4byte	.LVL45
 2879 01c6 CC000000 		.4byte	.LFE13
 2880 01ca 0400     		.2byte	0x4
 2881 01cc F3       		.byte	0xf3
 2882 01cd 01       		.uleb128 0x1
 2883 01ce 50       		.byte	0x50
 2884 01cf 9F       		.byte	0x9f
 2885 01d0 00000000 		.4byte	0
 2886 01d4 00000000 		.4byte	0
 2887              	.LLST13:
 2888 01d8 00000000 		.4byte	.LVL34
 2889 01dc 2C000000 		.4byte	.LVL36
 2890 01e0 0100     		.2byte	0x1
 2891 01e2 51       		.byte	0x51
 2892 01e3 2C000000 		.4byte	.LVL36
 2893 01e7 BC000000 		.4byte	.LVL45
 2894 01eb 0100     		.2byte	0x1
 2895 01ed 57       		.byte	0x57
 2896 01ee BC000000 		.4byte	.LVL45
 2897 01f2 CC000000 		.4byte	.LFE13
 2898 01f6 0400     		.2byte	0x4
 2899 01f8 F3       		.byte	0xf3
 2900 01f9 01       		.uleb128 0x1
 2901 01fa 51       		.byte	0x51
 2902 01fb 9F       		.byte	0x9f
 2903 01fc 00000000 		.4byte	0
 2904 0200 00000000 		.4byte	0
 2905              	.LLST14:
 2906 0204 00000000 		.4byte	.LVL34
 2907 0208 30000000 		.4byte	.LVL37
ARM GAS  /tmp/ccj21Iu9.s 			page 52


 2908 020c 0100     		.2byte	0x1
 2909 020e 52       		.byte	0x52
 2910 020f 30000000 		.4byte	.LVL37
 2911 0213 BC000000 		.4byte	.LVL45
 2912 0217 0100     		.2byte	0x1
 2913 0219 58       		.byte	0x58
 2914 021a BC000000 		.4byte	.LVL45
 2915 021e CC000000 		.4byte	.LFE13
 2916 0222 0400     		.2byte	0x4
 2917 0224 F3       		.byte	0xf3
 2918 0225 01       		.uleb128 0x1
 2919 0226 52       		.byte	0x52
 2920 0227 9F       		.byte	0x9f
 2921 0228 00000000 		.4byte	0
 2922 022c 00000000 		.4byte	0
 2923              	.LLST15:
 2924 0230 00000000 		.4byte	.LVL34
 2925 0234 34000000 		.4byte	.LVL38
 2926 0238 0100     		.2byte	0x1
 2927 023a 53       		.byte	0x53
 2928 023b 34000000 		.4byte	.LVL38
 2929 023f 7C000000 		.4byte	.LVL41
 2930 0243 0100     		.2byte	0x1
 2931 0245 56       		.byte	0x56
 2932 0246 7C000000 		.4byte	.LVL41
 2933 024a 8B000000 		.4byte	.LVL43-1
 2934 024e 0200     		.2byte	0x2
 2935 0250 74       		.byte	0x74
 2936 0251 38       		.sleb128 56
 2937 0252 8B000000 		.4byte	.LVL43-1
 2938 0256 CC000000 		.4byte	.LFE13
 2939 025a 0400     		.2byte	0x4
 2940 025c F3       		.byte	0xf3
 2941 025d 01       		.uleb128 0x1
 2942 025e 53       		.byte	0x53
 2943 025f 9F       		.byte	0x9f
 2944 0260 00000000 		.4byte	0
 2945 0264 00000000 		.4byte	0
 2946              	.LLST16:
 2947 0268 40000000 		.4byte	.LVL40
 2948 026c 84000000 		.4byte	.LVL42
 2949 0270 0100     		.2byte	0x1
 2950 0272 53       		.byte	0x53
 2951 0273 84000000 		.4byte	.LVL42
 2952 0277 8B000000 		.4byte	.LVL43-1
 2953 027b 0200     		.2byte	0x2
 2954 027d 74       		.byte	0x74
 2955 027e 0C       		.sleb128 12
 2956 027f 00000000 		.4byte	0
 2957 0283 00000000 		.4byte	0
 2958              	.LLST17:
 2959 0287 00000000 		.4byte	.LVL46
 2960 028b 30000000 		.4byte	.LVL47
 2961 028f 0100     		.2byte	0x1
 2962 0291 50       		.byte	0x50
 2963 0292 30000000 		.4byte	.LVL47
 2964 0296 30010000 		.4byte	.LVL63
ARM GAS  /tmp/ccj21Iu9.s 			page 53


 2965 029a 0100     		.2byte	0x1
 2966 029c 54       		.byte	0x54
 2967 029d 30010000 		.4byte	.LVL63
 2968 02a1 3C010000 		.4byte	.LFE12
 2969 02a5 0400     		.2byte	0x4
 2970 02a7 F3       		.byte	0xf3
 2971 02a8 01       		.uleb128 0x1
 2972 02a9 50       		.byte	0x50
 2973 02aa 9F       		.byte	0x9f
 2974 02ab 00000000 		.4byte	0
 2975 02af 00000000 		.4byte	0
 2976              	.LLST18:
 2977 02b3 00000000 		.4byte	.LVL46
 2978 02b7 34000000 		.4byte	.LVL48
 2979 02bb 0100     		.2byte	0x1
 2980 02bd 51       		.byte	0x51
 2981 02be 34000000 		.4byte	.LVL48
 2982 02c2 E8000000 		.4byte	.LVL58
 2983 02c6 0100     		.2byte	0x1
 2984 02c8 57       		.byte	0x57
 2985 02c9 E8000000 		.4byte	.LVL58
 2986 02cd 3C010000 		.4byte	.LFE12
 2987 02d1 0400     		.2byte	0x4
 2988 02d3 F3       		.byte	0xf3
 2989 02d4 01       		.uleb128 0x1
 2990 02d5 51       		.byte	0x51
 2991 02d6 9F       		.byte	0x9f
 2992 02d7 00000000 		.4byte	0
 2993 02db 00000000 		.4byte	0
 2994              	.LLST19:
 2995 02df 00000000 		.4byte	.LVL46
 2996 02e3 38000000 		.4byte	.LVL49
 2997 02e7 0100     		.2byte	0x1
 2998 02e9 52       		.byte	0x52
 2999 02ea 38000000 		.4byte	.LVL49
 3000 02ee 30010000 		.4byte	.LVL63
 3001 02f2 0100     		.2byte	0x1
 3002 02f4 5A       		.byte	0x5a
 3003 02f5 30010000 		.4byte	.LVL63
 3004 02f9 3C010000 		.4byte	.LFE12
 3005 02fd 0400     		.2byte	0x4
 3006 02ff F3       		.byte	0xf3
 3007 0300 01       		.uleb128 0x1
 3008 0301 52       		.byte	0x52
 3009 0302 9F       		.byte	0x9f
 3010 0303 00000000 		.4byte	0
 3011 0307 00000000 		.4byte	0
 3012              	.LLST20:
 3013 030b 00000000 		.4byte	.LVL46
 3014 030f 3C000000 		.4byte	.LVL50
 3015 0313 0100     		.2byte	0x1
 3016 0315 53       		.byte	0x53
 3017 0316 3C000000 		.4byte	.LVL50
 3018 031a 8C000000 		.4byte	.LVL53
 3019 031e 0100     		.2byte	0x1
 3020 0320 59       		.byte	0x59
 3021 0321 8C000000 		.4byte	.LVL53
ARM GAS  /tmp/ccj21Iu9.s 			page 54


 3022 0325 9B000000 		.4byte	.LVL55-1
 3023 0329 0200     		.2byte	0x2
 3024 032b 74       		.byte	0x74
 3025 032c 2C       		.sleb128 44
 3026 032d 9B000000 		.4byte	.LVL55-1
 3027 0331 3C010000 		.4byte	.LFE12
 3028 0335 0400     		.2byte	0x4
 3029 0337 F3       		.byte	0xf3
 3030 0338 01       		.uleb128 0x1
 3031 0339 53       		.byte	0x53
 3032 033a 9F       		.byte	0x9f
 3033 033b 00000000 		.4byte	0
 3034 033f 00000000 		.4byte	0
 3035              	.LLST21:
 3036 0343 48000000 		.4byte	.LVL52
 3037 0347 94000000 		.4byte	.LVL54
 3038 034b 0100     		.2byte	0x1
 3039 034d 53       		.byte	0x53
 3040 034e 94000000 		.4byte	.LVL54
 3041 0352 9B000000 		.4byte	.LVL55-1
 3042 0356 0200     		.2byte	0x2
 3043 0358 74       		.byte	0x74
 3044 0359 0C       		.sleb128 12
 3045 035a 00000000 		.4byte	0
 3046 035e 00000000 		.4byte	0
 3047              	.LLST22:
 3048 0362 C4000000 		.4byte	.LVL57
 3049 0366 0C010000 		.4byte	.LVL60
 3050 036a 0100     		.2byte	0x1
 3051 036c 59       		.byte	0x59
 3052 036d 0C010000 		.4byte	.LVL60
 3053 0371 20010000 		.4byte	.LVL61
 3054 0375 0100     		.2byte	0x1
 3055 0377 50       		.byte	0x50
 3056 0378 20010000 		.4byte	.LVL61
 3057 037c 30010000 		.4byte	.LVL63
 3058 0380 0100     		.2byte	0x1
 3059 0382 59       		.byte	0x59
 3060 0383 30010000 		.4byte	.LVL63
 3061 0387 3C010000 		.4byte	.LFE12
 3062 038b 0100     		.2byte	0x1
 3063 038d 50       		.byte	0x50
 3064 038e 00000000 		.4byte	0
 3065 0392 00000000 		.4byte	0
 3066              		.section	.debug_aranges,"",%progbits
 3067 0000 4C000000 		.4byte	0x4c
 3068 0004 0200     		.2byte	0x2
 3069 0006 00000000 		.4byte	.Ldebug_info0
 3070 000a 04       		.byte	0x4
 3071 000b 00       		.byte	0
 3072 000c 0000     		.2byte	0
 3073 000e 0000     		.2byte	0
 3074 0010 00000000 		.4byte	.LFB7
 3075 0014 74000000 		.4byte	.LFE7-.LFB7
 3076 0018 00000000 		.4byte	.LFB8
 3077 001c 64010000 		.4byte	.LFE8-.LFB8
 3078 0020 00000000 		.4byte	.LFB9
ARM GAS  /tmp/ccj21Iu9.s 			page 55


 3079 0024 1C000000 		.4byte	.LFE9-.LFB9
 3080 0028 00000000 		.4byte	.LFB10
 3081 002c 68000000 		.4byte	.LFE10-.LFB10
 3082 0030 00000000 		.4byte	.LFB11
 3083 0034 34000000 		.4byte	.LFE11-.LFB11
 3084 0038 00000000 		.4byte	.LFB13
 3085 003c CC000000 		.4byte	.LFE13-.LFB13
 3086 0040 00000000 		.4byte	.LFB12
 3087 0044 3C010000 		.4byte	.LFE12-.LFB12
 3088 0048 00000000 		.4byte	0
 3089 004c 00000000 		.4byte	0
 3090              		.section	.debug_ranges,"",%progbits
 3091              	.Ldebug_ranges0:
 3092 0000 10000000 		.4byte	.LBB2
 3093 0004 18000000 		.4byte	.LBE2
 3094 0008 1C000000 		.4byte	.LBB3
 3095 000c 68000000 		.4byte	.LBE3
 3096 0010 6C000000 		.4byte	.LBB4
 3097 0014 74000000 		.4byte	.LBE4
 3098 0018 00000000 		.4byte	0
 3099 001c 00000000 		.4byte	0
 3100 0020 20000000 		.4byte	.LBB5
 3101 0024 34000000 		.4byte	.LBE5
 3102 0028 38000000 		.4byte	.LBB6
 3103 002c 3C000000 		.4byte	.LBE6
 3104 0030 00000000 		.4byte	0
 3105 0034 00000000 		.4byte	0
 3106 0038 B4000000 		.4byte	.LBB7
 3107 003c C0000000 		.4byte	.LBE7
 3108 0040 C4000000 		.4byte	.LBB8
 3109 0044 C8000000 		.4byte	.LBE8
 3110 0048 00000000 		.4byte	0
 3111 004c 00000000 		.4byte	0
 3112 0050 00000000 		.4byte	.LFB7
 3113 0054 74000000 		.4byte	.LFE7
 3114 0058 00000000 		.4byte	.LFB8
 3115 005c 64010000 		.4byte	.LFE8
 3116 0060 00000000 		.4byte	.LFB9
 3117 0064 1C000000 		.4byte	.LFE9
 3118 0068 00000000 		.4byte	.LFB10
 3119 006c 68000000 		.4byte	.LFE10
 3120 0070 00000000 		.4byte	.LFB11
 3121 0074 34000000 		.4byte	.LFE11
 3122 0078 00000000 		.4byte	.LFB13
 3123 007c CC000000 		.4byte	.LFE13
 3124 0080 00000000 		.4byte	.LFB12
 3125 0084 3C010000 		.4byte	.LFE12
 3126 0088 00000000 		.4byte	0
 3127 008c 00000000 		.4byte	0
 3128              		.section	.debug_line,"",%progbits
 3129              	.Ldebug_line0:
 3130 0000 E9020000 		.section	.debug_str,"MS",%progbits,1
 3130      02009201 
 3130      00000201 
 3130      FB0E0D00 
 3130      01010101 
 3131              	.LASF114:
ARM GAS  /tmp/ccj21Iu9.s 			page 56


 3132 0000 2F686F6D 		.ascii	"/home/hunter/development/chibi/ChibiOS-RPi/testhal/"
 3132      652F6875 
 3132      6E746572 
 3132      2F646576 
 3132      656C6F70 
 3133 0033 42434D32 		.ascii	"BCM2835/GPIO\000"
 3133      3833352F 
 3133      4750494F 
 3133      00
 3134              	.LASF3:
 3135 0040 73697A65 		.ascii	"size_t\000"
 3135      5F7400
 3136              	.LASF58:
 3137 0047 7264796D 		.ascii	"rdymsg\000"
 3137      736700
 3138              	.LASF4:
 3139 004e 5F5F7569 		.ascii	"__uint8_t\000"
 3139      6E74385F 
 3139      7400
 3140              	.LASF62:
 3141 0058 62736364 		.ascii	"bscdevice_t\000"
 3141      65766963 
 3141      655F7400 
 3142              	.LASF89:
 3143 0064 72786275 		.ascii	"rxbuf\000"
 3143      6600
 3144              	.LASF12:
 3145 006a 6C6F6E67 		.ascii	"long long unsigned int\000"
 3145      206C6F6E 
 3145      6720756E 
 3145      7369676E 
 3145      65642069 
 3146              	.LASF85:
 3147 0081 61646472 		.ascii	"addr\000"
 3147      00
 3148              	.LASF59:
 3149 0086 65786974 		.ascii	"exitcode\000"
 3149      636F6465 
 3149      00
 3150              	.LASF97:
 3151 008f 69326370 		.ascii	"i2cp\000"
 3151      00
 3152              	.LASF67:
 3153 0094 64617461 		.ascii	"dataFifo\000"
 3153      4669666F 
 3153      00
 3154              	.LASF28:
 3155 009d 705F7072 		.ascii	"p_prio\000"
 3155      696F00
 3156              	.LASF82:
 3157 00a4 64657669 		.ascii	"device\000"
 3157      636500
 3158              	.LASF11:
 3159 00ab 6C6F6E67 		.ascii	"long long int\000"
 3159      206C6F6E 
 3159      6720696E 
 3159      7400
ARM GAS  /tmp/ccj21Iu9.s 			page 57


 3160              	.LASF2:
 3161 00b9 7369676E 		.ascii	"signed char\000"
 3161      65642063 
 3161      68617200 
 3162              	.LASF55:
 3163 00c5 6D5F7175 		.ascii	"m_queue\000"
 3163      65756500 
 3164              	.LASF104:
 3165 00cd 6932635F 		.ascii	"i2c_lld_master_receive_timeout\000"
 3165      6C6C645F 
 3165      6D617374 
 3165      65725F72 
 3165      65636569 
 3166              	.LASF105:
 3167 00ec 6932635F 		.ascii	"i2c_lld_master_transmit_timeout\000"
 3167      6C6C645F 
 3167      6D617374 
 3167      65725F74 
 3167      72616E73 
 3168              	.LASF20:
 3169 010c 74736C69 		.ascii	"tslices_t\000"
 3169      6365735F 
 3169      7400
 3170              	.LASF71:
 3171 0116 4932435F 		.ascii	"I2C_UNINIT\000"
 3171      554E494E 
 3171      495400
 3172              	.LASF93:
 3173 0121 69326361 		.ascii	"i2caddr_t\000"
 3173      6464725F 
 3173      7400
 3174              	.LASF79:
 3175 012b 73746174 		.ascii	"state\000"
 3175      6500
 3176              	.LASF0:
 3177 0131 6C6F6E67 		.ascii	"long int\000"
 3177      20696E74 
 3177      00
 3178              	.LASF19:
 3179 013a 74737461 		.ascii	"tstate_t\000"
 3179      74655F74 
 3179      00
 3180              	.LASF84:
 3181 0143 74687265 		.ascii	"thread\000"
 3181      616400
 3182              	.LASF69:
 3183 014a 64617461 		.ascii	"dataDelay\000"
 3183      44656C61 
 3183      7900
 3184              	.LASF14:
 3185 0154 75696E74 		.ascii	"uint16_t\000"
 3185      31365F74 
 3185      00
 3186              	.LASF65:
 3187 015d 64617461 		.ascii	"dataLength\000"
 3187      4C656E67 
 3187      746800
ARM GAS  /tmp/ccj21Iu9.s 			page 58


 3188              	.LASF63:
 3189 0168 636F6E74 		.ascii	"control\000"
 3189      726F6C00 
 3190              	.LASF10:
 3191 0170 5F5F7569 		.ascii	"__uint32_t\000"
 3191      6E743332 
 3191      5F7400
 3192              	.LASF39:
 3193 017b 72656761 		.ascii	"regarm_t\000"
 3193      726D5F74 
 3193      00
 3194              	.LASF45:
 3195 0184 76745F70 		.ascii	"vt_prev\000"
 3195      72657600 
 3196              	.LASF66:
 3197 018c 736C6176 		.ascii	"slaveAddress\000"
 3197      65416464 
 3197      72657373 
 3197      00
 3198              	.LASF107:
 3199 0199 49324330 		.ascii	"I2C0\000"
 3199      00
 3200              	.LASF17:
 3201 019e 756E7369 		.ascii	"unsigned int\000"
 3201      676E6564 
 3201      20696E74 
 3201      00
 3202              	.LASF44:
 3203 01ab 76745F6E 		.ascii	"vt_next\000"
 3203      65787400 
 3204              	.LASF86:
 3205 01b3 74786275 		.ascii	"txbuf\000"
 3205      6600
 3206              	.LASF81:
 3207 01b9 6572726F 		.ascii	"errors\000"
 3207      727300
 3208              	.LASF1:
 3209 01c0 6C6F6E67 		.ascii	"long unsigned int\000"
 3209      20756E73 
 3209      69676E65 
 3209      6420696E 
 3209      7400
 3210              	.LASF103:
 3211 01d2 74696D65 		.ascii	"timeout\000"
 3211      6F757400 
 3212              	.LASF42:
 3213 01da 76746675 		.ascii	"vtfunc_t\000"
 3213      6E635F74 
 3213      00
 3214              	.LASF8:
 3215 01e3 73686F72 		.ascii	"short unsigned int\000"
 3215      7420756E 
 3215      7369676E 
 3215      65642069 
 3215      6E7400
 3216              	.LASF78:
 3217 01f6 49324344 		.ascii	"I2CDriver\000"
ARM GAS  /tmp/ccj21Iu9.s 			page 59


 3217      72697665 
 3217      7200
 3218              	.LASF22:
 3219 0200 6D73675F 		.ascii	"msg_t\000"
 3219      7400
 3220              	.LASF18:
 3221 0206 746D6F64 		.ascii	"tmode_t\000"
 3221      655F7400 
 3222              	.LASF38:
 3223 020e 54687265 		.ascii	"ThreadsList\000"
 3223      6164734C 
 3223      69737400 
 3224              	.LASF23:
 3225 021a 6576656E 		.ascii	"eventmask_t\000"
 3225      746D6173 
 3225      6B5F7400 
 3226              	.LASF54:
 3227 0226 4D757465 		.ascii	"Mutex\000"
 3227      7800
 3228              	.LASF112:
 3229 022c 474E5520 		.ascii	"GNU C 4.9.3 20150529 (prerelease) -mcpu=arm1176jz-s"
 3229      4320342E 
 3229      392E3320 
 3229      32303135 
 3229      30353239 
 3230 025f 202D6D61 		.ascii	" -mabi=apcs-gnu -mno-thumb-interwork -ggdb -O2 -fom"
 3230      62693D61 
 3230      7063732D 
 3230      676E7520 
 3230      2D6D6E6F 
 3231 0292 69742D66 		.ascii	"it-frame-pointer -ffunction-sections -fdata-section"
 3231      72616D65 
 3231      2D706F69 
 3231      6E746572 
 3231      202D6666 
 3232 02c5 7300     		.ascii	"s\000"
 3233              	.LASF102:
 3234 02c7 6932635F 		.ascii	"i2c_lld_stop\000"
 3234      6C6C645F 
 3234      73746F70 
 3234      00
 3235              	.LASF113:
 3236 02d4 2E2E2F2E 		.ascii	"../../../os/hal/platforms/BCM2835/i2c_lld.c\000"
 3236      2E2F2E2E 
 3236      2F6F732F 
 3236      68616C2F 
 3236      706C6174 
 3237              	.LASF46:
 3238 0300 76745F74 		.ascii	"vt_time\000"
 3238      696D6500 
 3239              	.LASF72:
 3240 0308 4932435F 		.ascii	"I2C_STOP\000"
 3240      53544F50 
 3240      00
 3241              	.LASF96:
 3242 0311 73697A65 		.ascii	"sizetype\000"
 3242      74797065 
ARM GAS  /tmp/ccj21Iu9.s 			page 60


 3242      00
 3243              	.LASF68:
 3244 031a 636C6F63 		.ascii	"clockDivider\000"
 3244      6B446976 
 3244      69646572 
 3244      00
 3245              	.LASF47:
 3246 0327 76745F66 		.ascii	"vt_func\000"
 3246      756E6300 
 3247              	.LASF94:
 3248 032f 69635F73 		.ascii	"ic_speed\000"
 3248      70656564 
 3248      00
 3249              	.LASF110:
 3250 0338 63685654 		.ascii	"chVTSetI\000"
 3250      53657449 
 3250      00
 3251              	.LASF90:
 3252 0341 72786279 		.ascii	"rxbytes\000"
 3252      74657300 
 3253              	.LASF95:
 3254 0349 49324343 		.ascii	"I2CConfig\000"
 3254      6F6E6669 
 3254      6700
 3255              	.LASF51:
 3256 0353 725F6374 		.ascii	"r_ctx\000"
 3256      7800
 3257              	.LASF37:
 3258 0359 54687265 		.ascii	"ThreadsQueue\000"
 3258      61647351 
 3258      75657565 
 3258      00
 3259              	.LASF52:
 3260 0366 725F6375 		.ascii	"r_current\000"
 3260      7272656E 
 3260      7400
 3261              	.LASF87:
 3262 0370 74786279 		.ascii	"txbytes\000"
 3262      74657300 
 3263              	.LASF109:
 3264 0378 62636D32 		.ascii	"bcm2835_gpio_fnsel\000"
 3264      3833355F 
 3264      6770696F 
 3264      5F666E73 
 3264      656C00
 3265              	.LASF91:
 3266 038b 72786964 		.ascii	"rxidx\000"
 3266      7800
 3267              	.LASF77:
 3268 0391 69326373 		.ascii	"i2cstate_t\000"
 3268      74617465 
 3268      5F7400
 3269              	.LASF27:
 3270 039c 705F7072 		.ascii	"p_prev\000"
 3270      657600
 3271              	.LASF21:
 3272 03a3 74707269 		.ascii	"tprio_t\000"
ARM GAS  /tmp/ccj21Iu9.s 			page 61


 3272      6F5F7400 
 3273              	.LASF74:
 3274 03ab 4932435F 		.ascii	"I2C_ACTIVE_TX\000"
 3274      41435449 
 3274      56455F54 
 3274      5800
 3275              	.LASF92:
 3276 03b9 69326366 		.ascii	"i2cflags_t\000"
 3276      6C616773 
 3276      5F7400
 3277              	.LASF83:
 3278 03c4 6D757465 		.ascii	"mutex\000"
 3278      7800
 3279              	.LASF100:
 3280 03ca 6932635F 		.ascii	"i2c_lld_start\000"
 3280      6C6C645F 
 3280      73746172 
 3280      7400
 3281              	.LASF15:
 3282 03d8 696E7433 		.ascii	"int32_t\000"
 3282      325F7400 
 3283              	.LASF5:
 3284 03e0 756E7369 		.ascii	"unsigned char\000"
 3284      676E6564 
 3284      20636861 
 3284      7200
 3285              	.LASF35:
 3286 03ee 705F6D74 		.ascii	"p_mtxlist\000"
 3286      786C6973 
 3286      7400
 3287              	.LASF6:
 3288 03f8 73686F72 		.ascii	"short int\000"
 3288      7420696E 
 3288      7400
 3289              	.LASF30:
 3290 0402 705F7374 		.ascii	"p_state\000"
 3290      61746500 
 3291              	.LASF32:
 3292 040a 705F7072 		.ascii	"p_preempt\000"
 3292      65656D70 
 3292      7400
 3293              	.LASF50:
 3294 0414 725F7072 		.ascii	"r_prio\000"
 3294      696F00
 3295              	.LASF61:
 3296 041b 65776D61 		.ascii	"ewmask\000"
 3296      736B00
 3297              	.LASF26:
 3298 0422 705F6E65 		.ascii	"p_next\000"
 3298      787400
 3299              	.LASF31:
 3300 0429 705F666C 		.ascii	"p_flags\000"
 3300      61677300 
 3301              	.LASF25:
 3302 0431 54687265 		.ascii	"Thread\000"
 3302      616400
 3303              	.LASF117:
ARM GAS  /tmp/ccj21Iu9.s 			page 62


 3304 0438 63685654 		.ascii	"chVTResetI\000"
 3304      52657365 
 3304      744900
 3305              	.LASF76:
 3306 0443 4932435F 		.ascii	"I2C_LOCKED\000"
 3306      4C4F434B 
 3306      454400
 3307              	.LASF111:
 3308 044e 63685363 		.ascii	"chSchGoSleepS\000"
 3308      68476F53 
 3308      6C656570 
 3308      5300
 3309              	.LASF34:
 3310 045c 705F6570 		.ascii	"p_epending\000"
 3310      656E6469 
 3310      6E6700
 3311              	.LASF16:
 3312 0467 75696E74 		.ascii	"uint32_t\000"
 3312      33325F74 
 3312      00
 3313              	.LASF49:
 3314 0470 725F7175 		.ascii	"r_queue\000"
 3314      65756500 
 3315              	.LASF43:
 3316 0478 56697274 		.ascii	"VirtualTimer\000"
 3316      75616C54 
 3316      696D6572 
 3316      00
 3317              	.LASF75:
 3318 0485 4932435F 		.ascii	"I2C_ACTIVE_RX\000"
 3318      41435449 
 3318      56455F52 
 3318      5800
 3319              	.LASF116:
 3320 0493 63685363 		.ascii	"chSchReadyI\000"
 3320      68526561 
 3320      64794900 
 3321              	.LASF115:
 3322 049f 6932635F 		.ascii	"i2c_lld_safety_timeout\000"
 3322      6C6C645F 
 3322      73616665 
 3322      74795F74 
 3322      696D656F 
 3323              	.LASF80:
 3324 04b6 636F6E66 		.ascii	"config\000"
 3324      696700
 3325              	.LASF7:
 3326 04bd 5F5F7569 		.ascii	"__uint16_t\000"
 3326      6E743136 
 3326      5F7400
 3327              	.LASF57:
 3328 04c8 6D5F6E65 		.ascii	"m_next\000"
 3328      787400
 3329              	.LASF24:
 3330 04cf 73797374 		.ascii	"systime_t\000"
 3330      696D655F 
 3330      7400
ARM GAS  /tmp/ccj21Iu9.s 			page 63


 3331              	.LASF36:
 3332 04d9 705F7265 		.ascii	"p_realprio\000"
 3332      616C7072 
 3332      696F00
 3333              	.LASF9:
 3334 04e4 5F5F696E 		.ascii	"__int32_t\000"
 3334      7433325F 
 3334      7400
 3335              	.LASF73:
 3336 04ee 4932435F 		.ascii	"I2C_READY\000"
 3336      52454144 
 3336      5900
 3337              	.LASF41:
 3338 04f8 636F6E74 		.ascii	"context\000"
 3338      65787400 
 3339              	.LASF40:
 3340 0500 696E7463 		.ascii	"intctx\000"
 3340      747800
 3341              	.LASF48:
 3342 0507 76745F70 		.ascii	"vt_par\000"
 3342      617200
 3343              	.LASF88:
 3344 050e 74786964 		.ascii	"txidx\000"
 3344      7800
 3345              	.LASF99:
 3346 0514 6932635F 		.ascii	"i2c_lld_init\000"
 3346      6C6C645F 
 3346      696E6974 
 3346      00
 3347              	.LASF64:
 3348 0521 73746174 		.ascii	"status\000"
 3348      757300
 3349              	.LASF53:
 3350 0528 52656164 		.ascii	"ReadyList\000"
 3350      794C6973 
 3350      7400
 3351              	.LASF106:
 3352 0532 726C6973 		.ascii	"rlist\000"
 3352      7400
 3353              	.LASF13:
 3354 0538 75696E74 		.ascii	"uint8_t\000"
 3354      385F7400 
 3355              	.LASF60:
 3356 0540 77746F62 		.ascii	"wtobjp\000"
 3356      6A7000
 3357              	.LASF101:
 3358 0547 73706565 		.ascii	"speed\000"
 3358      6400
 3359              	.LASF98:
 3360 054d 6932635F 		.ascii	"i2c_lld_serve_interrupt\000"
 3360      6C6C645F 
 3360      73657276 
 3360      655F696E 
 3360      74657272 
 3361              	.LASF108:
 3362 0565 6932634F 		.ascii	"i2cObjectInit\000"
 3362      626A6563 
ARM GAS  /tmp/ccj21Iu9.s 			page 64


 3362      74496E69 
 3362      7400
 3363              	.LASF56:
 3364 0573 6D5F6F77 		.ascii	"m_owner\000"
 3364      6E657200 
 3365              	.LASF29:
 3366 057b 705F6374 		.ascii	"p_ctx\000"
 3366      7800
 3367              	.LASF33:
 3368 0581 705F7761 		.ascii	"p_waiting\000"
 3368      6974696E 
 3368      6700
 3369              	.LASF70:
 3370 058b 636C6F63 		.ascii	"clockStretchTimeout\000"
 3370      6B537472 
 3370      65746368 
 3370      54696D65 
 3370      6F757400 
 3371              		.ident	"GCC: (15:4.9.3+svn231177-1) 4.9.3 20150529 (prerelease)"
ARM GAS  /tmp/ccj21Iu9.s 			page 65


DEFINED SYMBOLS
                            *ABS*:0000000000000000 i2c_lld.c
     /tmp/ccj21Iu9.s:6      .text.i2c_lld_safety_timeout:0000000000000000 $a
     /tmp/ccj21Iu9.s:8      .text.i2c_lld_safety_timeout:0000000000000000 i2c_lld_safety_timeout
     /tmp/ccj21Iu9.s:86     .text.i2c_lld_safety_timeout:0000000000000070 $d
     /tmp/ccj21Iu9.s:92     .text.i2c_lld_serve_interrupt:0000000000000000 $a
     /tmp/ccj21Iu9.s:95     .text.i2c_lld_serve_interrupt:0000000000000000 i2c_lld_serve_interrupt
     /tmp/ccj21Iu9.s:269    .text.i2c_lld_serve_interrupt:0000000000000160 $d
     /tmp/ccj21Iu9.s:274    .text.i2c_lld_init:0000000000000000 $a
     /tmp/ccj21Iu9.s:277    .text.i2c_lld_init:0000000000000000 i2c_lld_init
     /tmp/ccj21Iu9.s:297    .text.i2c_lld_init:0000000000000014 $d
                            *COM*:0000000000000040 I2C0
     /tmp/ccj21Iu9.s:304    .text.i2c_lld_start:0000000000000000 $a
     /tmp/ccj21Iu9.s:307    .text.i2c_lld_start:0000000000000000 i2c_lld_start
     /tmp/ccj21Iu9.s:361    .text.i2c_lld_start:0000000000000060 $d
     /tmp/ccj21Iu9.s:367    .text.i2c_lld_stop:0000000000000000 $a
     /tmp/ccj21Iu9.s:370    .text.i2c_lld_stop:0000000000000000 i2c_lld_stop
     /tmp/ccj21Iu9.s:404    .text.i2c_lld_master_receive_timeout:0000000000000000 $a
     /tmp/ccj21Iu9.s:407    .text.i2c_lld_master_receive_timeout:0000000000000000 i2c_lld_master_receive_timeout
     /tmp/ccj21Iu9.s:522    .text.i2c_lld_master_receive_timeout:00000000000000bc $d
     /tmp/ccj21Iu9.s:530    .text.i2c_lld_master_transmit_timeout:0000000000000000 $a
     /tmp/ccj21Iu9.s:533    .text.i2c_lld_master_transmit_timeout:0000000000000000 i2c_lld_master_transmit_timeout
     /tmp/ccj21Iu9.s:698    .text.i2c_lld_master_transmit_timeout:0000000000000130 $d
                     .debug_frame:0000000000000010 $d

UNDEFINED SYMBOLS
chSchReadyI
i2cObjectInit
__udivsi3
bcm2835_gpio_fnsel
chVTSetI
chSchGoSleepS
chVTResetI
rlist
