ARM GAS  /tmp/ccj21Iu9.s 			page 1


   1              		.file	"i2c_lld.c"
   2              		.text
   3              	.Ltext0:
   4              		.cfi_sections	.debug_frame
   5              		.section	.text.i2c_lld_safety_timeout,"ax",%progbits
   6              		.align	2
   7              		.type	i2c_lld_safety_timeout, %function
   8              	i2c_lld_safety_timeout:
   9              	.LFB7:
  10              		.file 1 "../../../os/hal/platforms/BCM2835/i2c_lld.c"
  11              		.loc 1 78 0
  12              		.cfi_startproc
  13              		@ args = 0, pretend = 0, frame = 0
  14              		@ frame_needed = 0, uses_anonymous_args = 0
  15              	.LVL0:
  16              		.loc 1 81 0
  17 0000 201090E5 		ldr	r1, [r0, #32]
  18              		.loc 1 78 0
  19 0004 0030A0E1 		mov	r3, r0
  20              	.LVL1:
  21              		.loc 1 81 0
  22 0008 000051E3 		cmp	r1, #0
  23 000c 1EFF2F01 		bxeq	lr
  24              	.LBB2:
  25              		.loc 1 82 0
  26 0010 0C2090E5 		ldr	r2, [r0, #12]
  27              	.LVL2:
  28              		.loc 1 84 0
  29 0014 080090E5 		ldr	r0, [r0, #8]
  30              	.LVL3:
  31              	.LBE2:
  32              		.loc 1 78 0
  33 0018 10402DE9 		stmfd	sp!, {r4, lr}
  34              		.cfi_def_cfa_offset 8
  35              		.cfi_offset 4, -8
  36              		.cfi_offset 14, -4
  37              	.LBB3:
  38              		.loc 1 85 0
  39 001c 04E092E5 		ldr	lr, [r2, #4]
  40              		.loc 1 84 0
  41 0020 20C080E3 		orr	ip, r0, #32
  42 0024 08C083E5 		str	ip, [r3, #8]
  43              		.loc 1 85 0
  44 0028 020C1EE3 		tst	lr, #512
  45              		.loc 1 90 0
  46 002c 00C0A0E3 		mov	ip, #0
  47              		.loc 1 95 0
  48 0030 00E0E0E3 		mvn	lr, #0
  49              		.loc 1 86 0
  50 0034 21008013 		orrne	r0, r0, #33
  51 0038 08008315 		strne	r0, [r3, #8]
  52              		.loc 1 87 0
  53 003c 040092E5 		ldr	r0, [r2, #4]
  54              		.loc 1 91 0
  55 0040 28409FE5 		ldr	r4, .L13
  56              		.loc 1 87 0
  57 0044 010C10E3 		tst	r0, #256
ARM GAS  /tmp/ccj21Iu9.s 			page 2


  58              		.loc 1 88 0
  59 0048 08009315 		ldrne	r0, [r3, #8]
  60 004c 04008013 		orrne	r0, r0, #4
  61 0050 08008315 		strne	r0, [r3, #8]
  62              		.loc 1 90 0
  63 0054 00C082E5 		str	ip, [r2]
  64              		.loc 1 91 0
  65 0058 044082E5 		str	r4, [r2, #4]
  66              	.LVL4:
  67              		.loc 1 94 0
  68 005c 20C083E5 		str	ip, [r3, #32]
  69              		.loc 1 95 0
  70 0060 14E081E5 		str	lr, [r1, #20]
  71              		.loc 1 96 0
  72 0064 0100A0E1 		mov	r0, r1
  73              	.LBE3:
  74              		.loc 1 99 0
  75 0068 1040BDE8 		ldmfd	sp!, {r4, lr}
  76              		.cfi_restore 14
  77              		.cfi_restore 4
  78              		.cfi_def_cfa_offset 0
  79              	.LBB4:
  80              		.loc 1 96 0
  81 006c FEFFFFEA 		b	chSchReadyI
  82              	.LVL5:
  83              	.L14:
  84              		.align	2
  85              	.L13:
  86 0070 02030000 		.word	770
  87              	.LBE4:
  88              		.cfi_endproc
  89              	.LFE7:
  90              		.size	i2c_lld_safety_timeout, .-i2c_lld_safety_timeout
  91              		.section	.text.i2c_lld_serve_interrupt,"ax",%progbits
  92              		.align	2
  93              		.global	i2c_lld_serve_interrupt
  94              		.type	i2c_lld_serve_interrupt, %function
  95              	i2c_lld_serve_interrupt:
  96              	.LFB8:
  97              		.loc 1 105 0
  98              		.cfi_startproc
  99              		@ args = 0, pretend = 0, frame = 0
 100              		@ frame_needed = 0, uses_anonymous_args = 0
 101              	.LVL6:
 102              		.loc 1 107 0
 103 0000 0C2090E5 		ldr	r2, [r0, #12]
 104              	.LVL7:
 105              		.loc 1 105 0
 106 0004 04E02DE5 		str	lr, [sp, #-4]!
 107              		.cfi_def_cfa_offset 4
 108              		.cfi_offset 14, -4
 109              		.loc 1 108 0
 110 0008 041092E5 		ldr	r1, [r2, #4]
 111              	.LVL8:
 112              		.loc 1 110 0
 113 000c 030C11E3 		tst	r1, #768
 114 0010 0900000A 		beq	.L16
ARM GAS  /tmp/ccj21Iu9.s 			page 3


 115              		.loc 1 112 0
 116 0014 203090E5 		ldr	r3, [r0, #32]
 117 0018 000053E3 		cmp	r3, #0
 118 001c 04F09D04 		ldreq	pc, [sp], #4
 119              	.LVL9:
 120              	.LBB5:
 121              		.loc 1 112 0 is_stmt 0 discriminator 1
 122 0020 0010A0E3 		mov	r1, #0
 123              	.LVL10:
 124 0024 0120E0E3 		mvn	r2, #1
 125              	.LVL11:
 126 0028 201080E5 		str	r1, [r0, #32]
 127 002c 142083E5 		str	r2, [r3, #20]
 128              	.LVL12:
 129 0030 0300A0E1 		mov	r0, r3
 130              	.LVL13:
 131              	.LBE5:
 132              		.loc 1 129 0 is_stmt 1 discriminator 1
 133 0034 04E09DE4 		ldr	lr, [sp], #4
 134              		.cfi_remember_state
 135              		.cfi_restore 14
 136              		.cfi_def_cfa_offset 0
 137              	.LBB6:
 138              		.loc 1 112 0 discriminator 1
 139 0038 FEFFFFEA 		b	chSchReadyI
 140              	.LVL14:
 141              	.L16:
 142              		.cfi_restore_state
 143              	.LBE6:
 144              		.loc 1 114 0
 145 003c 020011E3 		tst	r1, #2
 146 0040 2000000A 		beq	.L19
 147              		.loc 1 115 0
 148 0044 200011E3 		tst	r1, #32
 149 0048 1200000A 		beq	.L24
 150 004c 3C3090E5 		ldr	r3, [r0, #60]
 151 0050 381090E5 		ldr	r1, [r0, #56]
 152              	.LVL15:
 153 0054 030051E1 		cmp	r1, r3
 154 0058 0E00009A 		bls	.L24
 155              		.loc 1 116 0
 156 005c 10C092E5 		ldr	ip, [r2, #16]
 157 0060 341090E5 		ldr	r1, [r0, #52]
 158 0064 01E083E2 		add	lr, r3, #1
 159 0068 3CE080E5 		str	lr, [r0, #60]
 160 006c 03C0C1E7 		strb	ip, [r1, r3]
 161 0070 030000EA 		b	.L29
 162              	.L25:
 163 0074 10E092E5 		ldr	lr, [r2, #16]
 164 0078 341090E5 		ldr	r1, [r0, #52]
 165 007c 3CC080E5 		str	ip, [r0, #60]
 166 0080 03E0C1E7 		strb	lr, [r1, r3]
 167              	.L29:
 168              		.loc 1 115 0 discriminator 1
 169 0084 3C3090E5 		ldr	r3, [r0, #60]
 170 0088 381090E5 		ldr	r1, [r0, #56]
 171              		.loc 1 116 0 discriminator 1
ARM GAS  /tmp/ccj21Iu9.s 			page 4


 172 008c 01C083E2 		add	ip, r3, #1
 173              		.loc 1 115 0 discriminator 1
 174 0090 010053E1 		cmp	r3, r1
 175 0094 F6FFFF3A 		bcc	.L25
 176              	.L24:
 177              		.loc 1 117 0
 178 0098 0010A0E3 		mov	r1, #0
 179              		.loc 1 119 0
 180 009c 203090E5 		ldr	r3, [r0, #32]
 181              		.loc 1 118 0
 182 00a0 B8C09FE5 		ldr	ip, .L44
 183              		.loc 1 119 0
 184 00a4 010053E1 		cmp	r3, r1
 185              		.loc 1 117 0
 186 00a8 001082E5 		str	r1, [r2]
 187              		.loc 1 118 0
 188 00ac 04C082E5 		str	ip, [r2, #4]
 189              		.loc 1 119 0
 190 00b0 2900000A 		beq	.L43
 191              	.LVL16:
 192              	.LBB7:
 193              		.loc 1 119 0 is_stmt 0 discriminator 1
 194 00b4 201080E5 		str	r1, [r0, #32]
 195 00b8 141083E5 		str	r1, [r3, #20]
 196 00bc 0300A0E1 		mov	r0, r3
 197              	.LVL17:
 198              	.LBE7:
 199              		.loc 1 129 0 is_stmt 1 discriminator 1
 200 00c0 04E09DE4 		ldr	lr, [sp], #4
 201              		.cfi_remember_state
 202              		.cfi_restore 14
 203              		.cfi_def_cfa_offset 0
 204              	.LBB8:
 205              		.loc 1 119 0 discriminator 1
 206 00c4 FEFFFFEA 		b	chSchReadyI
 207              	.LVL18:
 208              	.L19:
 209              		.cfi_restore_state
 210              	.LBE8:
 211              		.loc 1 121 0
 212 00c8 040011E3 		tst	r1, #4
 213 00cc 1000000A 		beq	.L26
 214              		.loc 1 122 0
 215 00d0 303090E5 		ldr	r3, [r0, #48]
 216 00d4 2CE090E5 		ldr	lr, [r0, #44]
 217 00d8 03005EE1 		cmp	lr, r3
 218 00dc 04F09D94 		ldrls	pc, [sp], #4
 219 00e0 100011E3 		tst	r1, #16
 220 00e4 04F09D04 		ldreq	pc, [sp], #4
 221 00e8 28C090E5 		ldr	ip, [r0, #40]
 222 00ec 03308CE0 		add	r3, ip, r3
 223 00f0 0EE08CE0 		add	lr, ip, lr
 224 00f4 01C06CE2 		rsb	ip, ip, #1
 225              	.LVL19:
 226              	.L27:
 227 00f8 03108CE0 		add	r1, ip, r3
 228              		.loc 1 123 0
ARM GAS  /tmp/ccj21Iu9.s 			page 5


 229 00fc 301080E5 		str	r1, [r0, #48]
 230 0100 0110D3E4 		ldrb	r1, [r3], #1	@ zero_extendqisi2
 231              		.loc 1 122 0
 232 0104 0E0053E1 		cmp	r3, lr
 233              		.loc 1 123 0
 234 0108 101082E5 		str	r1, [r2, #16]
 235              		.loc 1 122 0
 236 010c F9FFFF1A 		bne	.L27
 237 0110 04F09DE4 		ldr	pc, [sp], #4
 238              	.LVL20:
 239              	.L26:
 240              		.loc 1 125 0
 241 0114 080011E3 		tst	r1, #8
 242 0118 04F09D04 		ldreq	pc, [sp], #4
 243              		.loc 1 126 0
 244 011c 3C3090E5 		ldr	r3, [r0, #60]
 245 0120 38C090E5 		ldr	ip, [r0, #56]
 246 0124 0C0053E1 		cmp	r3, ip
 247 0128 04F09D24 		ldrcs	pc, [sp], #4
 248 012c 200011E3 		tst	r1, #32
 249 0130 04F09D04 		ldreq	pc, [sp], #4
 250              	.LVL21:
 251              	.L28:
 252              		.loc 1 127 0
 253 0134 341090E5 		ldr	r1, [r0, #52]
 254 0138 10C092E5 		ldr	ip, [r2, #16]
 255 013c 01E083E2 		add	lr, r3, #1
 256 0140 3CE080E5 		str	lr, [r0, #60]
 257 0144 03C0C1E7 		strb	ip, [r1, r3]
 258              		.loc 1 126 0
 259 0148 3C3090E5 		ldr	r3, [r0, #60]
 260 014c 381090E5 		ldr	r1, [r0, #56]
 261 0150 010053E1 		cmp	r3, r1
 262 0154 F6FFFF3A 		bcc	.L28
 263 0158 04F09DE4 		ldr	pc, [sp], #4
 264              	.L43:
 265 015c 04F09DE4 		ldr	pc, [sp], #4
 266              	.L45:
 267              		.align	2
 268              	.L44:
 269 0160 02030000 		.word	770
 270              		.cfi_endproc
 271              	.LFE8:
 272              		.size	i2c_lld_serve_interrupt, .-i2c_lld_serve_interrupt
 273              		.section	.text.i2c_lld_init,"ax",%progbits
 274              		.align	2
 275              		.global	i2c_lld_init
 276              		.type	i2c_lld_init, %function
 277              	i2c_lld_init:
 278              	.LFB9:
 279              		.loc 1 140 0
 280              		.cfi_startproc
 281              		@ args = 0, pretend = 0, frame = 0
 282              		@ frame_needed = 0, uses_anonymous_args = 0
 283              		@ link register save eliminated.
 284              		.loc 1 141 0
 285 0000 0C309FE5 		ldr	r3, .L47
ARM GAS  /tmp/ccj21Iu9.s 			page 6


 286 0004 0C209FE5 		ldr	r2, .L47+4
 287              		.loc 1 142 0
 288 0008 0300A0E1 		mov	r0, r3
 289              		.loc 1 141 0
 290 000c 0C2083E5 		str	r2, [r3, #12]
 291              		.loc 1 142 0
 292 0010 FEFFFFEA 		b	i2cObjectInit
 293              	.LVL22:
 294              	.L48:
 295              		.align	2
 296              	.L47:
 297 0014 00000000 		.word	I2C0
 298 0018 00502020 		.word	538988544
 299              		.cfi_endproc
 300              	.LFE9:
 301              		.size	i2c_lld_init, .-i2c_lld_init
 302              		.global	__udivsi3
 303              		.section	.text.i2c_lld_start,"ax",%progbits
 304              		.align	2
 305              		.global	i2c_lld_start
 306              		.type	i2c_lld_start, %function
 307              	i2c_lld_start:
 308              	.LFB10:
 309              		.loc 1 152 0
 310              		.cfi_startproc
 311              		@ args = 0, pretend = 0, frame = 0
 312              		@ frame_needed = 0, uses_anonymous_args = 0
 313              	.LVL23:
 314 0000 10402DE9 		stmfd	sp!, {r4, lr}
 315              		.cfi_def_cfa_offset 8
 316              		.cfi_offset 4, -8
 317              		.cfi_offset 14, -4
 318              		.loc 1 152 0
 319 0004 0040A0E1 		mov	r4, r0
 320              		.loc 1 154 0
 321 0008 0410A0E3 		mov	r1, #4
 322 000c 0000A0E3 		mov	r0, #0
 323              	.LVL24:
 324 0010 FEFFFFEB 		bl	bcm2835_gpio_fnsel
 325              	.LVL25:
 326              		.loc 1 155 0
 327 0014 0410A0E3 		mov	r1, #4
 328 0018 0100A0E3 		mov	r0, #1
 329 001c FEFFFFEB 		bl	bcm2835_gpio_fnsel
 330              	.LVL26:
 331              		.loc 1 157 0
 332 0020 042094E5 		ldr	r2, [r4, #4]
 333              		.loc 1 158 0
 334 0024 34309FE5 		ldr	r3, .L54
 335              		.loc 1 157 0
 336 0028 001092E5 		ldr	r1, [r2]
 337              	.LVL27:
 338              		.loc 1 158 0
 339 002c 030051E1 		cmp	r1, r3
 340 0030 00005113 		cmpne	r1, #0
 341 0034 0700000A 		beq	.L53
 342              		.loc 1 159 0
ARM GAS  /tmp/ccj21Iu9.s 			page 7


 343 0038 24009FE5 		ldr	r0, .L54+4
 344 003c FEFFFFEB 		bl	__udivsi3
 345              	.LVL28:
 346 0040 0C2094E5 		ldr	r2, [r4, #12]
 347 0044 140082E5 		str	r0, [r2, #20]
 348              	.L51:
 349              		.loc 1 161 0
 350 0048 003092E5 		ldr	r3, [r2]
 351 004c 023983E3 		orr	r3, r3, #32768
 352 0050 003082E5 		str	r3, [r2]
 353 0054 1080BDE8 		ldmfd	sp!, {r4, pc}
 354              	.LVL29:
 355              	.L53:
 356 0058 0C2094E5 		ldr	r2, [r4, #12]
 357 005c F9FFFFEA 		b	.L51
 358              	.L55:
 359              		.align	2
 360              	.L54:
 361 0060 A0860100 		.word	100000
 362 0064 80D1F008 		.word	150000000
 363              		.cfi_endproc
 364              	.LFE10:
 365              		.size	i2c_lld_start, .-i2c_lld_start
 366              		.section	.text.i2c_lld_stop,"ax",%progbits
 367              		.align	2
 368              		.global	i2c_lld_stop
 369              		.type	i2c_lld_stop, %function
 370              	i2c_lld_stop:
 371              	.LFB11:
 372              		.loc 1 171 0
 373              		.cfi_startproc
 374              		@ args = 0, pretend = 0, frame = 0
 375              		@ frame_needed = 0, uses_anonymous_args = 0
 376              	.LVL30:
 377 0000 10402DE9 		stmfd	sp!, {r4, lr}
 378              		.cfi_def_cfa_offset 8
 379              		.cfi_offset 4, -8
 380              		.cfi_offset 14, -4
 381              		.loc 1 171 0
 382 0004 0040A0E1 		mov	r4, r0
 383              		.loc 1 173 0
 384 0008 0000A0E3 		mov	r0, #0
 385              	.LVL31:
 386 000c 0010A0E1 		mov	r1, r0
 387 0010 FEFFFFEB 		bl	bcm2835_gpio_fnsel
 388              	.LVL32:
 389              		.loc 1 174 0
 390 0014 0100A0E3 		mov	r0, #1
 391 0018 0010A0E3 		mov	r1, #0
 392 001c FEFFFFEB 		bl	bcm2835_gpio_fnsel
 393              	.LVL33:
 394              		.loc 1 176 0
 395 0020 0C2094E5 		ldr	r2, [r4, #12]
 396 0024 003092E5 		ldr	r3, [r2]
 397 0028 0239C3E3 		bic	r3, r3, #32768
 398 002c 003082E5 		str	r3, [r2]
 399 0030 1080BDE8 		ldmfd	sp!, {r4, pc}
ARM GAS  /tmp/ccj21Iu9.s 			page 8


 400              		.cfi_endproc
 401              	.LFE11:
 402              		.size	i2c_lld_stop, .-i2c_lld_stop
 403              		.section	.text.i2c_lld_master_receive_timeout,"ax",%progbits
 404              		.align	2
 405              		.global	i2c_lld_master_receive_timeout
 406              		.type	i2c_lld_master_receive_timeout, %function
 407              	i2c_lld_master_receive_timeout:
 408              	.LFB13:
 409              		.loc 1 261 0
 410              		.cfi_startproc
 411              		@ args = 4, pretend = 0, frame = 20
 412              		@ frame_needed = 0, uses_anonymous_args = 0
 413              	.LVL34:
 414 0000 F0412DE9 		stmfd	sp!, {r4, r5, r6, r7, r8, lr}
 415              		.cfi_def_cfa_offset 24
 416              		.cfi_offset 4, -24
 417              		.cfi_offset 5, -20
 418              		.cfi_offset 6, -16
 419              		.cfi_offset 7, -12
 420              		.cfi_offset 8, -8
 421              		.cfi_offset 14, -4
 422 0004 14D04DE2 		sub	sp, sp, #20
 423              		.cfi_def_cfa_offset 44
 424              		.loc 1 261 0
 425 0008 2C509DE5 		ldr	r5, [sp, #44]
 426 000c 0040A0E1 		mov	r4, r0
 427              		.loc 1 265 0
 428 0010 010075E3 		cmn	r5, #1
 429              		.loc 1 261 0
 430 0014 0280A0E1 		mov	r8, r2
 431 0018 0360A0E1 		mov	r6, r3
 432 001c 7170FFE6 		uxth	r7, r1
 433              		.loc 1 265 0
 434 0020 0400000A 		beq	.L59
 435              		.loc 1 266 0
 436 0024 0D00A0E1 		mov	r0, sp
 437              	.LVL35:
 438 0028 0510A0E1 		mov	r1, r5
 439              	.LVL36:
 440 002c 88209FE5 		ldr	r2, .L71
 441              	.LVL37:
 442 0030 0430A0E1 		mov	r3, r4
 443              	.LVL38:
 444 0034 FEFFFFEB 		bl	chVTSetI
 445              	.LVL39:
 446              	.L59:
 447              		.loc 1 269 0
 448 0038 0020A0E3 		mov	r2, #0
 449              		.loc 1 277 0
 450 003c 0C3094E5 		ldr	r3, [r4, #12]
 451              	.LVL40:
 452              		.loc 1 280 0
 453 0040 78009FE5 		ldr	r0, .L71+4
 454              		.loc 1 283 0
 455 0044 78109FE5 		ldr	r1, .L71+8
 456              		.loc 1 268 0
ARM GAS  /tmp/ccj21Iu9.s 			page 9


 457 0048 B472C4E1 		strh	r7, [r4, #36]	@ movhi
 458              		.loc 1 272 0
 459 004c 348084E5 		str	r8, [r4, #52]
 460              		.loc 1 273 0
 461 0050 386084E5 		str	r6, [r4, #56]
 462              		.loc 1 269 0
 463 0054 282084E5 		str	r2, [r4, #40]
 464              		.loc 1 270 0
 465 0058 2C2084E5 		str	r2, [r4, #44]
 466              		.loc 1 271 0
 467 005c 302084E5 		str	r2, [r4, #48]
 468              		.loc 1 274 0
 469 0060 3C2084E5 		str	r2, [r4, #60]
 470              		.loc 1 278 0
 471 0064 0C7083E5 		str	r7, [r3, #12]
 472              		.loc 1 279 0
 473 0068 086083E5 		str	r6, [r3, #8]
 474              		.loc 1 280 0
 475 006c 040083E5 		str	r0, [r3, #4]
 476              		.loc 1 283 0
 477 0070 001083E5 		str	r1, [r3]
 478              		.loc 1 286 0
 479              	@ 286 "../../../os/hal/platforms/BCM2835/i2c_lld.c" 1
 480 0074 9FF021E3 		msr     CPSR_c, #0x9F
 481              	@ 0 "" 2
 482              		.loc 1 287 0
 483 0078 48609FE5 		ldr	r6, .L71+12
 484              	.LVL41:
 485              		.loc 1 288 0
 486 007c 0200A0E3 		mov	r0, #2
 487              		.loc 1 287 0
 488 0080 103096E5 		ldr	r3, [r6, #16]
 489              	.LVL42:
 490 0084 203084E5 		str	r3, [r4, #32]
 491              		.loc 1 288 0
 492 0088 FEFFFFEB 		bl	chSchGoSleepS
 493              	.LVL43:
 494              		.loc 1 289 0
 495 008c 010075E3 		cmn	r5, #1
 496 0090 0400000A 		beq	.L60
 497              		.loc 1 289 0 is_stmt 0 discriminator 1
 498 0094 0C309DE5 		ldr	r3, [sp, #12]
 499 0098 000053E3 		cmp	r3, #0
 500 009c 0100000A 		beq	.L60
 501              		.loc 1 290 0 is_stmt 1
 502 00a0 0D00A0E1 		mov	r0, sp
 503 00a4 FEFFFFEB 		bl	chVTResetI
 504              	.LVL44:
 505              	.L60:
 506              		.loc 1 291 0
 507              	@ 291 "../../../os/hal/platforms/BCM2835/i2c_lld.c" 1
 508 00a8 1FF021E3 		msr     CPSR_c, #0x1F
 509              	@ 0 "" 2
 510              		.loc 1 293 0
 511 00ac 103096E5 		ldr	r3, [r6, #16]
 512              		.loc 1 294 0
 513 00b0 140093E5 		ldr	r0, [r3, #20]
ARM GAS  /tmp/ccj21Iu9.s 			page 10


 514 00b4 14D08DE2 		add	sp, sp, #20
 515              		.cfi_def_cfa_offset 24
 516              		@ sp needed
 517 00b8 F081BDE8 		ldmfd	sp!, {r4, r5, r6, r7, r8, pc}
 518              	.LVL45:
 519              	.L72:
 520              		.align	2
 521              	.L71:
 522 00bc 00000000 		.word	i2c_lld_safety_timeout
 523 00c0 02030000 		.word	770
 524 00c4 91850000 		.word	34193
 525 00c8 00000000 		.word	rlist
 526              		.cfi_endproc
 527              	.LFE13:
 528              		.size	i2c_lld_master_receive_timeout, .-i2c_lld_master_receive_timeout
 529              		.section	.text.i2c_lld_master_transmit_timeout,"ax",%progbits
 530              		.align	2
 531              		.global	i2c_lld_master_transmit_timeout
 532              		.type	i2c_lld_master_transmit_timeout, %function
 533              	i2c_lld_master_transmit_timeout:
 534              	.LFB12:
 535              		.loc 1 198 0
 536              		.cfi_startproc
 537              		@ args = 12, pretend = 0, frame = 20
 538              		@ frame_needed = 0, uses_anonymous_args = 0
 539              	.LVL46:
 540 0000 F0472DE9 		stmfd	sp!, {r4, r5, r6, r7, r8, r9, r10, lr}
 541              		.cfi_def_cfa_offset 32
 542              		.cfi_offset 4, -32
 543              		.cfi_offset 5, -28
 544              		.cfi_offset 6, -24
 545              		.cfi_offset 7, -20
 546              		.cfi_offset 8, -16
 547              		.cfi_offset 9, -12
 548              		.cfi_offset 10, -8
 549              		.cfi_offset 14, -4
 550 0004 18D04DE2 		sub	sp, sp, #24
 551              		.cfi_def_cfa_offset 56
 552              		.loc 1 198 0
 553 0008 40509DE5 		ldr	r5, [sp, #64]
 554 000c 0040A0E1 		mov	r4, r0
 555              		.loc 1 202 0
 556 0010 010075E3 		cmn	r5, #1
 557              		.loc 1 198 0
 558 0014 02A0A0E1 		mov	r10, r2
 559 0018 0390A0E1 		mov	r9, r3
 560 001c 7170FFE6 		uxth	r7, r1
 561 0020 38809DE5 		ldr	r8, [sp, #56]
 562 0024 3C60DDE5 		ldrb	r6, [sp, #60]	@ zero_extendqisi2
 563              		.loc 1 202 0
 564 0028 0400000A 		beq	.L74
 565              		.loc 1 203 0
 566 002c 04008DE2 		add	r0, sp, #4
 567              	.LVL47:
 568 0030 0510A0E1 		mov	r1, r5
 569              	.LVL48:
 570 0034 F4209FE5 		ldr	r2, .L97
ARM GAS  /tmp/ccj21Iu9.s 			page 11


 571              	.LVL49:
 572 0038 0430A0E1 		mov	r3, r4
 573              	.LVL50:
 574 003c FEFFFFEB 		bl	chVTSetI
 575              	.LVL51:
 576              	.L74:
 577              		.loc 1 208 0
 578 0040 0020A0E3 		mov	r2, #0
 579              		.loc 1 213 0
 580 0044 0C3094E5 		ldr	r3, [r4, #12]
 581              	.LVL52:
 582              		.loc 1 216 0
 583 0048 E4109FE5 		ldr	r1, .L97+4
 584              		.loc 1 208 0
 585 004c 302084E5 		str	r2, [r4, #48]
 586              		.loc 1 211 0
 587 0050 3C2084E5 		str	r2, [r4, #60]
 588              		.loc 1 205 0
 589 0054 B472C4E1 		strh	r7, [r4, #36]	@ movhi
 590              		.loc 1 206 0
 591 0058 28A084E5 		str	r10, [r4, #40]
 592              		.loc 1 207 0
 593 005c 2C9084E5 		str	r9, [r4, #44]
 594              		.loc 1 209 0
 595 0060 348084E5 		str	r8, [r4, #52]
 596              		.loc 1 210 0
 597 0064 386084E5 		str	r6, [r4, #56]
 598              		.loc 1 214 0
 599 0068 0C7083E5 		str	r7, [r3, #12]
 600              		.loc 1 215 0
 601 006c 089083E5 		str	r9, [r3, #8]
 602              		.loc 1 216 0
 603 0070 041083E5 		str	r1, [r3, #4]
 604              		.loc 1 219 0
 605 0074 002093E5 		ldr	r2, [r3]
 606 0078 832C82E3 		orr	r2, r2, #33536
 607 007c 802082E3 		orr	r2, r2, #128
 608 0080 002083E5 		str	r2, [r3]
 609              		.loc 1 222 0
 610              	@ 222 "../../../os/hal/platforms/BCM2835/i2c_lld.c" 1
 611 0084 9FF021E3 		msr     CPSR_c, #0x9F
 612              	@ 0 "" 2
 613              		.loc 1 224 0
 614 0088 A8909FE5 		ldr	r9, .L97+8
 615              	.LVL53:
 616              		.loc 1 225 0
 617 008c 0200A0E3 		mov	r0, #2
 618              		.loc 1 224 0
 619 0090 103099E5 		ldr	r3, [r9, #16]
 620              	.LVL54:
 621 0094 203084E5 		str	r3, [r4, #32]
 622              		.loc 1 225 0
 623 0098 FEFFFFEB 		bl	chSchGoSleepS
 624              	.LVL55:
 625              		.loc 1 226 0
 626 009c 010075E3 		cmn	r5, #1
 627 00a0 0400000A 		beq	.L75
ARM GAS  /tmp/ccj21Iu9.s 			page 12


 628              		.loc 1 226 0 is_stmt 0 discriminator 1
 629 00a4 10309DE5 		ldr	r3, [sp, #16]
 630 00a8 000053E3 		cmp	r3, #0
 631 00ac 0100000A 		beq	.L75
 632              		.loc 1 227 0 is_stmt 1
 633 00b0 04008DE2 		add	r0, sp, #4
 634 00b4 FEFFFFEB 		bl	chVTResetI
 635              	.LVL56:
 636              	.L75:
 637              		.loc 1 229 0
 638              	@ 229 "../../../os/hal/platforms/BCM2835/i2c_lld.c" 1
 639 00b8 1FF021E3 		msr     CPSR_c, #0x1F
 640              	@ 0 "" 2
 641              		.loc 1 231 0
 642 00bc 103099E5 		ldr	r3, [r9, #16]
 643 00c0 149093E5 		ldr	r9, [r3, #20]
 644              	.LVL57:
 645              		.loc 1 233 0
 646 00c4 003096E2 		adds	r3, r6, #0
 647 00c8 0130A013 		movne	r3, #1
 648 00cc 000059E3 		cmp	r9, #0
 649 00d0 0030A013 		movne	r3, #0
 650 00d4 000053E3 		cmp	r3, #0
 651 00d8 0200001A 		bne	.L96
 652              	.L76:
 653              		.loc 1 242 0
 654 00dc 0900A0E1 		mov	r0, r9
 655 00e0 18D08DE2 		add	sp, sp, #24
 656              		.cfi_remember_state
 657              		.cfi_def_cfa_offset 32
 658              		@ sp needed
 659 00e4 F087BDE8 		ldmfd	sp!, {r4, r5, r6, r7, r8, r9, r10, pc}
 660              	.LVL58:
 661              	.L96:
 662              		.cfi_restore_state
 663              		.loc 1 235 0
 664 00e8 00C0E0E3 		mvn	ip, #0
 665 00ec 0400A0E1 		mov	r0, r4
 666 00f0 0710A0E1 		mov	r1, r7
 667 00f4 0820A0E1 		mov	r2, r8
 668 00f8 0630A0E1 		mov	r3, r6
 669 00fc 00C08DE5 		str	ip, [sp]
 670 0100 FEFFFFEB 		bl	i2c_lld_master_receive_timeout
 671              	.LVL59:
 672              		.loc 1 237 0
 673 0104 010075E3 		cmn	r5, #1
 674              		.loc 1 235 0
 675 0108 0090A0E1 		mov	r9, r0
 676              	.LVL60:
 677              		.loc 1 237 0
 678 010c F2FFFF0A 		beq	.L76
 679              		.loc 1 237 0 is_stmt 0 discriminator 1
 680 0110 10309DE5 		ldr	r3, [sp, #16]
 681 0114 000053E3 		cmp	r3, #0
 682 0118 EFFFFF0A 		beq	.L76
 683              		.loc 1 238 0 is_stmt 1
 684 011c 04008DE2 		add	r0, sp, #4
ARM GAS  /tmp/ccj21Iu9.s 			page 13


 685              	.LVL61:
 686 0120 FEFFFFEB 		bl	chVTResetI
 687              	.LVL62:
 688              		.loc 1 242 0
 689 0124 0900A0E1 		mov	r0, r9
 690 0128 18D08DE2 		add	sp, sp, #24
 691              		.cfi_def_cfa_offset 32
 692              		@ sp needed
 693 012c F087BDE8 		ldmfd	sp!, {r4, r5, r6, r7, r8, r9, r10, pc}
 694              	.LVL63:
 695              	.L98:
 696              		.align	2
 697              	.L97:
 698 0130 00000000 		.word	i2c_lld_safety_timeout
 699 0134 02030000 		.word	770
 700 0138 00000000 		.word	rlist
 701              		.cfi_endproc
 702              	.LFE12:
 703              		.size	i2c_lld_master_transmit_timeout, .-i2c_lld_master_transmit_timeout
 704              		.comm	I2C0,64,4
 705              		.text
 706              	.Letext0:
 707              		.file 2 "/usr/lib/gcc/arm-none-eabi/4.9.3/include/stddef.h"
 708              		.file 3 "/usr/include/newlib/machine/_default_types.h"
 709              		.file 4 "/usr/include/newlib/sys/_stdint.h"
 710              		.file 5 "../../../os/ports/GCC/ARM/chtypes.h"
 711              		.file 6 "../../../os/kernel/include/chlists.h"
 712              		.file 7 "../../../os/kernel/include/chthreads.h"
 713              		.file 8 "../../../os/ports/GCC/ARM/chcore.h"
 714              		.file 9 "../../../os/kernel/include/chvt.h"
 715              		.file 10 "../../../os/kernel/include/chschd.h"
 716              		.file 11 "../../../os/kernel/include/chmtx.h"
 717              		.file 12 "../../../os/hal/platforms/BCM2835/bcm2835.h"
 718              		.file 13 "../../../os/hal/include/i2c.h"
 719              		.file 14 "../../../os/hal/platforms/BCM2835/i2c_lld.h"