ARM GAS  /tmp/ccW8eDaQ.s 			page 1


   1              		.file	"serial.c"
   2              		.text
   3              	.Ltext0:
   4              		.cfi_sections	.debug_frame
   5              		.section	.text.readt,"ax",%progbits
   6              		.align	2
   7              		.type	readt, %function
   8              	readt:
   9              	.LFB14:
  10              		.file 1 "../../../os/hal/src/serial.c"
  11              		.loc 1 92 0
  12              		.cfi_startproc
  13              		@ args = 0, pretend = 0, frame = 0
  14              		@ frame_needed = 0, uses_anonymous_args = 0
  15              		@ link register save eliminated.
  16              	.LVL0:
  17              		.loc 1 94 0
  18 0000 0C0080E2 		add	r0, r0, #12
  19              	.LVL1:
  20 0004 FEFFFFEA 		b	chIQReadTimeout
  21              	.LVL2:
  22              		.cfi_endproc
  23              	.LFE14:
  24              		.size	readt, .-readt
  25              		.section	.text.read,"ax",%progbits
  26              		.align	2
  27              		.type	read, %function
  28              	read:
  29              	.LFB8:
  30              		.loc 1 61 0
  31              		.cfi_startproc
  32              		@ args = 0, pretend = 0, frame = 0
  33              		@ frame_needed = 0, uses_anonymous_args = 0
  34              		@ link register save eliminated.
  35              	.LVL3:
  36              		.loc 1 63 0
  37 0000 0C0080E2 		add	r0, r0, #12
  38              	.LVL4:
  39 0004 0030E0E3 		mvn	r3, #0
  40 0008 FEFFFFEA 		b	chIQReadTimeout
  41              	.LVL5:
  42              		.cfi_endproc
  43              	.LFE8:
  44              		.size	read, .-read
  45              		.section	.text.writet,"ax",%progbits
  46              		.align	2
  47              		.type	writet, %function
  48              	writet:
  49              	.LFB13:
  50              		.loc 1 87 0
  51              		.cfi_startproc
  52              		@ args = 0, pretend = 0, frame = 0
  53              		@ frame_needed = 0, uses_anonymous_args = 0
  54              		@ link register save eliminated.
  55              	.LVL6:
  56              		.loc 1 89 0
  57 0000 300080E2 		add	r0, r0, #48
ARM GAS  /tmp/ccW8eDaQ.s 			page 2


  58              	.LVL7:
  59 0004 FEFFFFEA 		b	chOQWriteTimeout
  60              	.LVL8:
  61              		.cfi_endproc
  62              	.LFE13:
  63              		.size	writet, .-writet
  64              		.section	.text.write,"ax",%progbits
  65              		.align	2
  66              		.type	write, %function
  67              	write:
  68              	.LFB7:
  69              		.loc 1 55 0
  70              		.cfi_startproc
  71              		@ args = 0, pretend = 0, frame = 0
  72              		@ frame_needed = 0, uses_anonymous_args = 0
  73              		@ link register save eliminated.
  74              	.LVL9:
  75              		.loc 1 57 0
  76 0000 300080E2 		add	r0, r0, #48
  77              	.LVL10:
  78 0004 0030E0E3 		mvn	r3, #0
  79 0008 FEFFFFEA 		b	chOQWriteTimeout
  80              	.LVL11:
  81              		.cfi_endproc
  82              	.LFE7:
  83              		.size	write, .-write
  84              		.section	.text.gett,"ax",%progbits
  85              		.align	2
  86              		.type	gett, %function
  87              	gett:
  88              	.LFB12:
  89              		.loc 1 82 0
  90              		.cfi_startproc
  91              		@ args = 0, pretend = 0, frame = 0
  92              		@ frame_needed = 0, uses_anonymous_args = 0
  93              		@ link register save eliminated.
  94              	.LVL12:
  95              		.loc 1 84 0
  96 0000 0C0080E2 		add	r0, r0, #12
  97              	.LVL13:
  98 0004 FEFFFFEA 		b	chIQGetTimeout
  99              	.LVL14:
 100              		.cfi_endproc
 101              	.LFE12:
 102              		.size	gett, .-gett
 103              		.section	.text.get,"ax",%progbits
 104              		.align	2
 105              		.type	get, %function
 106              	get:
 107              	.LFB10:
 108              		.loc 1 72 0
 109              		.cfi_startproc
 110              		@ args = 0, pretend = 0, frame = 0
 111              		@ frame_needed = 0, uses_anonymous_args = 0
 112              		@ link register save eliminated.
 113              	.LVL15:
 114              		.loc 1 74 0
ARM GAS  /tmp/ccW8eDaQ.s 			page 3


 115 0000 0C0080E2 		add	r0, r0, #12
 116              	.LVL16:
 117 0004 0010E0E3 		mvn	r1, #0
 118 0008 FEFFFFEA 		b	chIQGetTimeout
 119              	.LVL17:
 120              		.cfi_endproc
 121              	.LFE10:
 122              		.size	get, .-get
 123              		.section	.text.putt,"ax",%progbits
 124              		.align	2
 125              		.type	putt, %function
 126              	putt:
 127              	.LFB11:
 128              		.loc 1 77 0
 129              		.cfi_startproc
 130              		@ args = 0, pretend = 0, frame = 0
 131              		@ frame_needed = 0, uses_anonymous_args = 0
 132              		@ link register save eliminated.
 133              	.LVL18:
 134              		.loc 1 79 0
 135 0000 300080E2 		add	r0, r0, #48
 136              	.LVL19:
 137 0004 7110EFE6 		uxtb	r1, r1
 138 0008 FEFFFFEA 		b	chOQPutTimeout
 139              	.LVL20:
 140              		.cfi_endproc
 141              	.LFE11:
 142              		.size	putt, .-putt
 143              		.section	.text.put,"ax",%progbits
 144              		.align	2
 145              		.type	put, %function
 146              	put:
 147              	.LFB9:
 148              		.loc 1 67 0
 149              		.cfi_startproc
 150              		@ args = 0, pretend = 0, frame = 0
 151              		@ frame_needed = 0, uses_anonymous_args = 0
 152              		@ link register save eliminated.
 153              	.LVL21:
 154              		.loc 1 69 0
 155 0000 300080E2 		add	r0, r0, #48
 156              	.LVL22:
 157 0004 7110EFE6 		uxtb	r1, r1
 158 0008 0020E0E3 		mvn	r2, #0
 159 000c FEFFFFEA 		b	chOQPutTimeout
 160              	.LVL23:
 161              		.cfi_endproc
 162              	.LFE9:
 163              		.size	put, .-put
 164              		.section	.text.sdInit,"ax",%progbits
 165              		.align	2
 166              		.global	sdInit
 167              		.type	sdInit, %function
 168              	sdInit:
 169              	.LFB15:
 170              		.loc 1 113 0
 171              		.cfi_startproc
ARM GAS  /tmp/ccW8eDaQ.s 			page 4


 172              		@ args = 0, pretend = 0, frame = 0
 173              		@ frame_needed = 0, uses_anonymous_args = 0
 174              		@ link register save eliminated.
 175              		.loc 1 115 0
 176 0000 FEFFFFEA 		b	sd_lld_init
 177              	.LVL24:
 178              		.cfi_endproc
 179              	.LFE15:
 180              		.size	sdInit, .-sdInit
 181              		.section	.text.sdObjectInit,"ax",%progbits
 182              		.align	2
 183              		.global	sdObjectInit
 184              		.type	sdObjectInit, %function
 185              	sdObjectInit:
 186              	.LFB16:
 187              		.loc 1 133 0
 188              		.cfi_startproc
 189              		@ args = 0, pretend = 0, frame = 0
 190              		@ frame_needed = 0, uses_anonymous_args = 0
 191              	.LVL25:
 192 0000 30402DE9 		stmfd	sp!, {r4, r5, lr}
 193              		.cfi_def_cfa_offset 12
 194              		.cfi_offset 4, -12
 195              		.cfi_offset 5, -8
 196              		.cfi_offset 14, -4
 197 0004 0040A0E1 		mov	r4, r0
 198              		.loc 1 137 0
 199 0008 01C0A0E3 		mov	ip, #1
 200              		.loc 1 133 0
 201 000c 0250A0E1 		mov	r5, r2
 202              		.loc 1 135 0
 203 0010 40209FE5 		ldr	r2, .L12
 204              	.LVL26:
 205              		.loc 1 133 0
 206 0014 04D04DE2 		sub	sp, sp, #4
 207              		.cfi_def_cfa_offset 16
 208              		.loc 1 138 0
 209 0018 00408DE5 		str	r4, [sp]
 210              		.loc 1 135 0
 211 001c 042080E4 		str	r2, [r0], #4
 212              	.LVL27:
 213              		.loc 1 137 0
 214 0020 011084E9 		stmib	r4, {r0, ip}
 215              		.loc 1 133 0
 216 0024 0130A0E1 		mov	r3, r1
 217              		.loc 1 138 0
 218 0028 0C0084E2 		add	r0, r4, #12
 219 002c 541084E2 		add	r1, r4, #84
 220              	.LVL28:
 221 0030 1020A0E3 		mov	r2, #16
 222 0034 FEFFFFEB 		bl	chIQInit
 223              	.LVL29:
 224              		.loc 1 139 0
 225 0038 00408DE5 		str	r4, [sp]
 226 003c 0530A0E1 		mov	r3, r5
 227 0040 300084E2 		add	r0, r4, #48
 228 0044 641084E2 		add	r1, r4, #100
ARM GAS  /tmp/ccW8eDaQ.s 			page 5


 229 0048 1020A0E3 		mov	r2, #16
 230 004c FEFFFFEB 		bl	chOQInit
 231              	.LVL30:
 232              		.loc 1 140 0
 233 0050 04D08DE2 		add	sp, sp, #4
 234              		.cfi_def_cfa_offset 12
 235              		@ sp needed
 236 0054 3080BDE8 		ldmfd	sp!, {r4, r5, pc}
 237              	.LVL31:
 238              	.L13:
 239              		.align	2
 240              	.L12:
 241 0058 00000000 		.word	.LANCHOR0
 242              		.cfi_endproc
 243              	.LFE16:
 244              		.size	sdObjectInit, .-sdObjectInit
 245              		.section	.text.sdStart,"ax",%progbits
 246              		.align	2
 247              		.global	sdStart
 248              		.type	sdStart, %function
 249              	sdStart:
 250              	.LFB17:
 251              		.loc 1 152 0
 252              		.cfi_startproc
 253              		@ args = 0, pretend = 0, frame = 0
 254              		@ frame_needed = 0, uses_anonymous_args = 0
 255              	.LVL32:
 256 0000 10402DE9 		stmfd	sp!, {r4, lr}
 257              		.cfi_def_cfa_offset 8
 258              		.cfi_offset 4, -8
 259              		.cfi_offset 14, -4
 260              		.loc 1 152 0
 261 0004 0040A0E1 		mov	r4, r0
 262              		.loc 1 156 0
 263              	@ 156 "../../../os/hal/src/serial.c" 1
 264 0008 9FF021E3 		msr     CPSR_c, #0x9F
 265              	@ 0 "" 2
 266              		.loc 1 160 0
 267 000c FEFFFFEB 		bl	sd_lld_start
 268              	.LVL33:
 269              		.loc 1 161 0
 270 0010 0230A0E3 		mov	r3, #2
 271 0014 083084E5 		str	r3, [r4, #8]
 272              		.loc 1 162 0
 273              	@ 162 "../../../os/hal/src/serial.c" 1
 274 0018 1FF021E3 		msr     CPSR_c, #0x1F
 275              	@ 0 "" 2
 276 001c 1080BDE8 		ldmfd	sp!, {r4, pc}
 277              		.cfi_endproc
 278              	.LFE17:
 279              		.size	sdStart, .-sdStart
 280              		.section	.text.sdStop,"ax",%progbits
 281              		.align	2
 282              		.global	sdStop
 283              		.type	sdStop, %function
 284              	sdStop:
 285              	.LFB18:
ARM GAS  /tmp/ccW8eDaQ.s 			page 6


 286              		.loc 1 174 0
 287              		.cfi_startproc
 288              		@ args = 0, pretend = 0, frame = 0
 289              		@ frame_needed = 0, uses_anonymous_args = 0
 290              	.LVL34:
 291 0000 10402DE9 		stmfd	sp!, {r4, lr}
 292              		.cfi_def_cfa_offset 8
 293              		.cfi_offset 4, -8
 294              		.cfi_offset 14, -4
 295              		.loc 1 174 0
 296 0004 0040A0E1 		mov	r4, r0
 297              		.loc 1 178 0
 298              	@ 178 "../../../os/hal/src/serial.c" 1
 299 0008 9FF021E3 		msr     CPSR_c, #0x9F
 300              	@ 0 "" 2
 301              		.loc 1 182 0
 302 000c FEFFFFEB 		bl	sd_lld_stop
 303              	.LVL35:
 304              		.loc 1 183 0
 305 0010 0130A0E3 		mov	r3, #1
 306              		.loc 1 184 0
 307 0014 300084E2 		add	r0, r4, #48
 308              		.loc 1 183 0
 309 0018 083084E5 		str	r3, [r4, #8]
 310              		.loc 1 184 0
 311 001c FEFFFFEB 		bl	chOQResetI
 312              	.LVL36:
 313              		.loc 1 185 0
 314 0020 0C0084E2 		add	r0, r4, #12
 315 0024 FEFFFFEB 		bl	chIQResetI
 316              	.LVL37:
 317              		.loc 1 186 0
 318 0028 FEFFFFEB 		bl	chSchRescheduleS
 319              	.LVL38:
 320              		.loc 1 187 0
 321              	@ 187 "../../../os/hal/src/serial.c" 1
 322 002c 1FF021E3 		msr     CPSR_c, #0x1F
 323              	@ 0 "" 2
 324 0030 1080BDE8 		ldmfd	sp!, {r4, pc}
 325              		.cfi_endproc
 326              	.LFE18:
 327              		.size	sdStop, .-sdStop
 328              		.section	.text.sdIncomingDataI,"ax",%progbits
 329              		.align	2
 330              		.global	sdIncomingDataI
 331              		.type	sdIncomingDataI, %function
 332              	sdIncomingDataI:
 333              	.LFB19:
 334              		.loc 1 206 0
 335              		.cfi_startproc
 336              		@ args = 0, pretend = 0, frame = 0
 337              		@ frame_needed = 0, uses_anonymous_args = 0
 338              	.LVL39:
 339              		.loc 1 211 0
 340 0000 143090E5 		ldr	r3, [r0, #20]
 341              		.loc 1 206 0
 342 0004 30402DE9 		stmfd	sp!, {r4, r5, lr}
ARM GAS  /tmp/ccW8eDaQ.s 			page 7


 343              		.cfi_def_cfa_offset 12
 344              		.cfi_offset 4, -12
 345              		.cfi_offset 5, -8
 346              		.cfi_offset 14, -4
 347              		.loc 1 211 0
 348 0008 000053E3 		cmp	r3, #0
 349              		.loc 1 206 0
 350 000c 0040A0E1 		mov	r4, r0
 351 0010 7150EFE6 		uxtb	r5, r1
 352              		.loc 1 211 0
 353 0014 0800000A 		beq	.L23
 354              	.LVL40:
 355              	.L19:
 356              		.loc 1 213 0
 357 0018 0510A0E1 		mov	r1, r5
 358 001c 0C0084E2 		add	r0, r4, #12
 359 0020 FEFFFFEB 		bl	chIQPutI
 360              	.LVL41:
 361 0024 000050E3 		cmp	r0, #0
 362 0028 3080BDA8 		ldmgefd	sp!, {r4, r5, pc}
 363              		.loc 1 214 0
 364 002c 040084E2 		add	r0, r4, #4
 365 0030 8010A0E3 		mov	r1, #128
 366              		.loc 1 215 0
 367 0034 3040BDE8 		ldmfd	sp!, {r4, r5, lr}
 368              		.cfi_remember_state
 369              		.cfi_restore 14
 370              		.cfi_restore 5
 371              		.cfi_restore 4
 372              		.cfi_def_cfa_offset 0
 373              	.LVL42:
 374              		.loc 1 214 0
 375 0038 FEFFFFEA 		b	chEvtBroadcastFlagsI
 376              	.LVL43:
 377              	.L23:
 378              		.cfi_restore_state
 379              		.loc 1 212 0
 380 003c 040080E2 		add	r0, r0, #4
 381              	.LVL44:
 382 0040 0410A0E3 		mov	r1, #4
 383              	.LVL45:
 384 0044 FEFFFFEB 		bl	chEvtBroadcastFlagsI
 385              	.LVL46:
 386 0048 F2FFFFEA 		b	.L19
 387              		.cfi_endproc
 388              	.LFE19:
 389              		.size	sdIncomingDataI, .-sdIncomingDataI
 390              		.section	.text.sdRequestDataI,"ax",%progbits
 391              		.align	2
 392              		.global	sdRequestDataI
 393              		.type	sdRequestDataI, %function
 394              	sdRequestDataI:
 395              	.LFB20:
 396              		.loc 1 232 0
 397              		.cfi_startproc
 398              		@ args = 0, pretend = 0, frame = 0
 399              		@ frame_needed = 0, uses_anonymous_args = 0
ARM GAS  /tmp/ccW8eDaQ.s 			page 8


 400              	.LVL47:
 401 0000 30402DE9 		stmfd	sp!, {r4, r5, lr}
 402              		.cfi_def_cfa_offset 12
 403              		.cfi_offset 4, -12
 404              		.cfi_offset 5, -8
 405              		.cfi_offset 14, -4
 406              		.loc 1 232 0
 407 0004 0040A0E1 		mov	r4, r0
 408              		.loc 1 238 0
 409 0008 300080E2 		add	r0, r0, #48
 410              	.LVL48:
 411 000c FEFFFFEB 		bl	chOQGetI
 412              	.LVL49:
 413              		.loc 1 239 0
 414 0010 005050E2 		subs	r5, r0, #0
 415 0014 010000BA 		blt	.L27
 416              		.loc 1 242 0
 417 0018 0500A0E1 		mov	r0, r5
 418 001c 3080BDE8 		ldmfd	sp!, {r4, r5, pc}
 419              	.L27:
 420              		.loc 1 240 0
 421 0020 040084E2 		add	r0, r4, #4
 422 0024 0810A0E3 		mov	r1, #8
 423 0028 FEFFFFEB 		bl	chEvtBroadcastFlagsI
 424              	.LVL50:
 425              		.loc 1 242 0
 426 002c 0500A0E1 		mov	r0, r5
 427 0030 3080BDE8 		ldmfd	sp!, {r4, r5, pc}
 428              		.cfi_endproc
 429              	.LFE20:
 430              		.size	sdRequestDataI, .-sdRequestDataI
 431              		.section	.rodata.vmt,"a",%progbits
 432              		.align	2
 433              		.set	.LANCHOR0,. + 0
 434              		.type	vmt, %object
 435              		.size	vmt, 32
 436              	vmt:
 437 0000 00000000 		.word	write
 438 0004 00000000 		.word	read
 439 0008 00000000 		.word	put
 440 000c 00000000 		.word	get
 441 0010 00000000 		.word	putt
 442 0014 00000000 		.word	gett
 443 0018 00000000 		.word	writet
 444 001c 00000000 		.word	readt
 445              		.text
 446              	.Letext0:
 447              		.file 2 "/usr/lib/gcc/arm-none-eabi/4.9.3/include/stddef.h"
 448              		.file 3 "/usr/include/newlib/machine/_default_types.h"
 449              		.file 4 "/usr/include/newlib/sys/_stdint.h"
 450              		.file 5 "../../../os/ports/GCC/ARM/chtypes.h"
 451              		.file 6 "../../../os/kernel/include/chlists.h"
 452              		.file 7 "../../../os/kernel/include/chthreads.h"
 453              		.file 8 "../../../os/ports/GCC/ARM/chcore.h"
 454              		.file 9 "../../../os/kernel/include/chmtx.h"
 455              		.file 10 "../../../os/kernel/include/chevents.h"
 456              		.file 11 "../../../os/kernel/include/chqueues.h"
ARM GAS  /tmp/ccW8eDaQ.s 			page 9


 457              		.file 12 "../../../os/hal/include/serial.h"
 458              		.file 13 "../../../os/hal/platforms/BCM2835/serial_lld.h"
 459              		.file 14 "../../../os/kernel/include/chschd.h"
 460              		.section	.debug_info,"",%progbits
 461              	.Ldebug_info0:
 462 0000 8A0D0000 		.4byte	0xd8a
 463 0004 0400     		.2byte	0x4
 464 0006 00000000 		.4byte	.Ldebug_abbrev0
 465 000a 04       		.byte	0x4
 466 000b 01       		.uleb128 0x1
 467 000c 5A020000 		.4byte	.LASF113
 468 0010 01       		.byte	0x1
 469 0011 61040000 		.4byte	.LASF114
 470 0015 0F000000 		.4byte	.LASF115
 471 0019 00000000 		.4byte	.Ldebug_ranges0+0
 472 001d 00000000 		.4byte	0
 473 0021 00000000 		.4byte	.Ldebug_line0
 474 0025 02       		.uleb128 0x2
 475 0026 04       		.byte	0x4
 476 0027 05       		.byte	0x5
 477 0028 17010000 		.4byte	.LASF0
 478 002c 03       		.uleb128 0x3
 479 002d 4F000000 		.4byte	.LASF3
 480 0031 02       		.byte	0x2
 481 0032 D4       		.byte	0xd4
 482 0033 37000000 		.4byte	0x37
 483 0037 02       		.uleb128 0x2
 484 0038 04       		.byte	0x4
 485 0039 07       		.byte	0x7
 486 003a D5010000 		.4byte	.LASF1
 487 003e 02       		.uleb128 0x2
 488 003f 01       		.byte	0x1
 489 0040 06       		.byte	0x6
 490 0041 DB000000 		.4byte	.LASF2
 491 0045 03       		.uleb128 0x3
 492 0046 72000000 		.4byte	.LASF4
 493 004a 03       		.byte	0x3
 494 004b 1D       		.byte	0x1d
 495 004c 50000000 		.4byte	0x50
 496 0050 02       		.uleb128 0x2
 497 0051 01       		.byte	0x1
 498 0052 08       		.byte	0x8
 499 0053 88030000 		.4byte	.LASF5
 500 0057 02       		.uleb128 0x2
 501 0058 02       		.byte	0x2
 502 0059 05       		.byte	0x5
 503 005a C2030000 		.4byte	.LASF6
 504 005e 02       		.uleb128 0x2
 505 005f 02       		.byte	0x2
 506 0060 07       		.byte	0x7
 507 0061 FA010000 		.4byte	.LASF7
 508 0065 03       		.uleb128 0x3
 509 0066 9A040000 		.4byte	.LASF8
 510 006a 03       		.byte	0x3
 511 006b 3F       		.byte	0x3f
 512 006c 25000000 		.4byte	0x25
 513 0070 03       		.uleb128 0x3
ARM GAS  /tmp/ccW8eDaQ.s 			page 10


 514 0071 75010000 		.4byte	.LASF9
 515 0075 03       		.byte	0x3
 516 0076 41       		.byte	0x41
 517 0077 37000000 		.4byte	0x37
 518 007b 02       		.uleb128 0x2
 519 007c 08       		.byte	0x8
 520 007d 05       		.byte	0x5
 521 007e CD000000 		.4byte	.LASF10
 522 0082 02       		.uleb128 0x2
 523 0083 08       		.byte	0x8
 524 0084 07       		.byte	0x7
 525 0085 8C000000 		.4byte	.LASF11
 526 0089 03       		.uleb128 0x3
 527 008a F9040000 		.4byte	.LASF12
 528 008e 04       		.byte	0x4
 529 008f 14       		.byte	0x14
 530 0090 45000000 		.4byte	0x45
 531 0094 03       		.uleb128 0x3
 532 0095 80030000 		.4byte	.LASF13
 533 0099 04       		.byte	0x4
 534 009a 1F       		.byte	0x1f
 535 009b 65000000 		.4byte	0x65
 536 009f 03       		.uleb128 0x3
 537 00a0 1D040000 		.4byte	.LASF14
 538 00a4 04       		.byte	0x4
 539 00a5 20       		.byte	0x20
 540 00a6 70000000 		.4byte	0x70
 541 00aa 04       		.uleb128 0x4
 542 00ab 04       		.byte	0x4
 543 00ac 05       		.byte	0x5
 544 00ad 696E7400 		.ascii	"int\000"
 545 00b1 02       		.uleb128 0x2
 546 00b2 04       		.byte	0x4
 547 00b3 07       		.byte	0x7
 548 00b4 9E010000 		.4byte	.LASF15
 549 00b8 03       		.uleb128 0x3
 550 00b9 EF000000 		.4byte	.LASF16
 551 00bd 05       		.byte	0x5
 552 00be 29       		.byte	0x29
 553 00bf 94000000 		.4byte	0x94
 554 00c3 03       		.uleb128 0x3
 555 00c4 29020000 		.4byte	.LASF17
 556 00c8 05       		.byte	0x5
 557 00c9 2A       		.byte	0x2a
 558 00ca 89000000 		.4byte	0x89
 559 00ce 03       		.uleb128 0x3
 560 00cf 20010000 		.4byte	.LASF18
 561 00d3 05       		.byte	0x5
 562 00d4 2B       		.byte	0x2b
 563 00d5 89000000 		.4byte	0x89
 564 00d9 03       		.uleb128 0x3
 565 00da FE000000 		.4byte	.LASF19
 566 00de 05       		.byte	0x5
 567 00df 2D       		.byte	0x2d
 568 00e0 89000000 		.4byte	0x89
 569 00e4 03       		.uleb128 0x3
 570 00e5 70030000 		.4byte	.LASF20
ARM GAS  /tmp/ccW8eDaQ.s 			page 11


 571 00e9 05       		.byte	0x5
 572 00ea 2E       		.byte	0x2e
 573 00eb 9F000000 		.4byte	0x9f
 574 00ef 03       		.uleb128 0x3
 575 00f0 0D020000 		.4byte	.LASF21
 576 00f4 05       		.byte	0x5
 577 00f5 2F       		.byte	0x2f
 578 00f6 94000000 		.4byte	0x94
 579 00fa 03       		.uleb128 0x3
 580 00fb 3D020000 		.4byte	.LASF22
 581 00ff 05       		.byte	0x5
 582 0100 31       		.byte	0x31
 583 0101 9F000000 		.4byte	0x9f
 584 0105 03       		.uleb128 0x3
 585 0106 C7040000 		.4byte	.LASF23
 586 010a 05       		.byte	0x5
 587 010b 32       		.byte	0x32
 588 010c 9F000000 		.4byte	0x9f
 589 0110 03       		.uleb128 0x3
 590 0111 85040000 		.4byte	.LASF24
 591 0115 05       		.byte	0x5
 592 0116 33       		.byte	0x33
 593 0117 9F000000 		.4byte	0x9f
 594 011b 03       		.uleb128 0x3
 595 011c 01040000 		.4byte	.LASF25
 596 0120 06       		.byte	0x6
 597 0121 23       		.byte	0x23
 598 0122 26010000 		.4byte	0x126
 599 0126 05       		.uleb128 0x5
 600 0127 01040000 		.4byte	.LASF25
 601 012b 28       		.byte	0x28
 602 012c 07       		.byte	0x7
 603 012d 57       		.byte	0x57
 604 012e C3010000 		.4byte	0x1c3
 605 0132 06       		.uleb128 0x6
 606 0133 F2030000 		.4byte	.LASF26
 607 0137 07       		.byte	0x7
 608 0138 58       		.byte	0x58
 609 0139 E4010000 		.4byte	0x1e4
 610 013d 00       		.byte	0
 611 013e 06       		.uleb128 0x6
 612 013f 69030000 		.4byte	.LASF27
 613 0143 07       		.byte	0x7
 614 0144 5A       		.byte	0x5a
 615 0145 E4010000 		.4byte	0x1e4
 616 0149 04       		.byte	0x4
 617 014a 06       		.uleb128 0x6
 618 014b B6000000 		.4byte	.LASF28
 619 014f 07       		.byte	0x7
 620 0150 5C       		.byte	0x5c
 621 0151 E4000000 		.4byte	0xe4
 622 0155 08       		.byte	0x8
 623 0156 06       		.uleb128 0x6
 624 0157 40050000 		.4byte	.LASF29
 625 015b 07       		.byte	0x7
 626 015c 5D       		.byte	0x5d
 627 015d 94020000 		.4byte	0x294
ARM GAS  /tmp/ccW8eDaQ.s 			page 12


 628 0161 0C       		.byte	0xc
 629 0162 06       		.uleb128 0x6
 630 0163 CC030000 		.4byte	.LASF30
 631 0167 07       		.byte	0x7
 632 0168 72       		.byte	0x72
 633 0169 CE000000 		.4byte	0xce
 634 016d 10       		.byte	0x10
 635 016e 06       		.uleb128 0x6
 636 016f F9030000 		.4byte	.LASF31
 637 0173 07       		.byte	0x7
 638 0174 76       		.byte	0x76
 639 0175 C3000000 		.4byte	0xc3
 640 0179 11       		.byte	0x11
 641 017a 06       		.uleb128 0x6
 642 017b D4030000 		.4byte	.LASF32
 643 017f 07       		.byte	0x7
 644 0180 81       		.byte	0x81
 645 0181 D9000000 		.4byte	0xd9
 646 0185 12       		.byte	0x12
 647 0186 07       		.uleb128 0x7
 648 0187 705F7500 		.ascii	"p_u\000"
 649 018b 07       		.byte	0x7
 650 018c AD       		.byte	0xad
 651 018d 67030000 		.4byte	0x367
 652 0191 14       		.byte	0x14
 653 0192 06       		.uleb128 0x6
 654 0193 46050000 		.4byte	.LASF33
 655 0197 07       		.byte	0x7
 656 0198 B2       		.byte	0xb2
 657 0199 0A020000 		.4byte	0x20a
 658 019d 18       		.byte	0x18
 659 019e 06       		.uleb128 0x6
 660 019f 08040000 		.4byte	.LASF34
 661 01a3 07       		.byte	0x7
 662 01a4 C2       		.byte	0xc2
 663 01a5 FA000000 		.4byte	0xfa
 664 01a9 1C       		.byte	0x1c
 665 01aa 06       		.uleb128 0x6
 666 01ab B8030000 		.4byte	.LASF35
 667 01af 07       		.byte	0x7
 668 01b0 C9       		.byte	0xc9
 669 01b1 9C030000 		.4byte	0x39c
 670 01b5 20       		.byte	0x20
 671 01b6 06       		.uleb128 0x6
 672 01b7 8F040000 		.4byte	.LASF36
 673 01bb 07       		.byte	0x7
 674 01bc CD       		.byte	0xcd
 675 01bd E4000000 		.4byte	0xe4
 676 01c1 24       		.byte	0x24
 677 01c2 00       		.byte	0
 678 01c3 08       		.uleb128 0x8
 679 01c4 08       		.byte	0x8
 680 01c5 06       		.byte	0x6
 681 01c6 5A       		.byte	0x5a
 682 01c7 E4010000 		.4byte	0x1e4
 683 01cb 06       		.uleb128 0x6
 684 01cc F2030000 		.4byte	.LASF26
ARM GAS  /tmp/ccW8eDaQ.s 			page 13


 685 01d0 06       		.byte	0x6
 686 01d1 5B       		.byte	0x5b
 687 01d2 E4010000 		.4byte	0x1e4
 688 01d6 00       		.byte	0
 689 01d7 06       		.uleb128 0x6
 690 01d8 69030000 		.4byte	.LASF27
 691 01dc 06       		.byte	0x6
 692 01dd 5D       		.byte	0x5d
 693 01de E4010000 		.4byte	0x1e4
 694 01e2 04       		.byte	0x4
 695 01e3 00       		.byte	0
 696 01e4 09       		.uleb128 0x9
 697 01e5 04       		.byte	0x4
 698 01e6 1B010000 		.4byte	0x11b
 699 01ea 03       		.uleb128 0x3
 700 01eb 31030000 		.4byte	.LASF37
 701 01ef 06       		.byte	0x6
 702 01f0 5F       		.byte	0x5f
 703 01f1 C3010000 		.4byte	0x1c3
 704 01f5 08       		.uleb128 0x8
 705 01f6 04       		.byte	0x4
 706 01f7 06       		.byte	0x6
 707 01f8 64       		.byte	0x64
 708 01f9 0A020000 		.4byte	0x20a
 709 01fd 06       		.uleb128 0x6
 710 01fe F2030000 		.4byte	.LASF26
 711 0202 06       		.byte	0x6
 712 0203 66       		.byte	0x66
 713 0204 E4010000 		.4byte	0x1e4
 714 0208 00       		.byte	0
 715 0209 00       		.byte	0
 716 020a 03       		.uleb128 0x3
 717 020b 31020000 		.4byte	.LASF38
 718 020f 06       		.byte	0x6
 719 0210 69       		.byte	0x69
 720 0211 F5010000 		.4byte	0x1f5
 721 0215 03       		.uleb128 0x3
 722 0216 80010000 		.4byte	.LASF39
 723 021a 08       		.byte	0x8
 724 021b A2       		.byte	0xa2
 725 021c 20020000 		.4byte	0x220
 726 0220 0A       		.uleb128 0xa
 727 0221 04       		.byte	0x4
 728 0222 05       		.uleb128 0x5
 729 0223 B7040000 		.4byte	.LASF40
 730 0227 24       		.byte	0x24
 731 0228 08       		.byte	0x8
 732 0229 B9       		.byte	0xb9
 733 022a 94020000 		.4byte	0x294
 734 022e 07       		.uleb128 0x7
 735 022f 723400   		.ascii	"r4\000"
 736 0232 08       		.byte	0x8
 737 0233 BA       		.byte	0xba
 738 0234 15020000 		.4byte	0x215
 739 0238 00       		.byte	0
 740 0239 07       		.uleb128 0x7
 741 023a 723500   		.ascii	"r5\000"
ARM GAS  /tmp/ccW8eDaQ.s 			page 14


 742 023d 08       		.byte	0x8
 743 023e BB       		.byte	0xbb
 744 023f 15020000 		.4byte	0x215
 745 0243 04       		.byte	0x4
 746 0244 07       		.uleb128 0x7
 747 0245 723600   		.ascii	"r6\000"
 748 0248 08       		.byte	0x8
 749 0249 BC       		.byte	0xbc
 750 024a 15020000 		.4byte	0x215
 751 024e 08       		.byte	0x8
 752 024f 07       		.uleb128 0x7
 753 0250 723700   		.ascii	"r7\000"
 754 0253 08       		.byte	0x8
 755 0254 BD       		.byte	0xbd
 756 0255 15020000 		.4byte	0x215
 757 0259 0C       		.byte	0xc
 758 025a 07       		.uleb128 0x7
 759 025b 723800   		.ascii	"r8\000"
 760 025e 08       		.byte	0x8
 761 025f BE       		.byte	0xbe
 762 0260 15020000 		.4byte	0x215
 763 0264 10       		.byte	0x10
 764 0265 07       		.uleb128 0x7
 765 0266 723900   		.ascii	"r9\000"
 766 0269 08       		.byte	0x8
 767 026a BF       		.byte	0xbf
 768 026b 15020000 		.4byte	0x215
 769 026f 14       		.byte	0x14
 770 0270 07       		.uleb128 0x7
 771 0271 72313000 		.ascii	"r10\000"
 772 0275 08       		.byte	0x8
 773 0276 C0       		.byte	0xc0
 774 0277 15020000 		.4byte	0x215
 775 027b 18       		.byte	0x18
 776 027c 07       		.uleb128 0x7
 777 027d 72313100 		.ascii	"r11\000"
 778 0281 08       		.byte	0x8
 779 0282 C1       		.byte	0xc1
 780 0283 15020000 		.4byte	0x215
 781 0287 1C       		.byte	0x1c
 782 0288 07       		.uleb128 0x7
 783 0289 6C7200   		.ascii	"lr\000"
 784 028c 08       		.byte	0x8
 785 028d C2       		.byte	0xc2
 786 028e 15020000 		.4byte	0x215
 787 0292 20       		.byte	0x20
 788 0293 00       		.byte	0
 789 0294 05       		.uleb128 0x5
 790 0295 AF040000 		.4byte	.LASF41
 791 0299 04       		.byte	0x4
 792 029a 08       		.byte	0x8
 793 029b CA       		.byte	0xca
 794 029c AD020000 		.4byte	0x2ad
 795 02a0 07       		.uleb128 0x7
 796 02a1 72313300 		.ascii	"r13\000"
 797 02a5 08       		.byte	0x8
 798 02a6 CB       		.byte	0xcb
ARM GAS  /tmp/ccW8eDaQ.s 			page 15


 799 02a7 AD020000 		.4byte	0x2ad
 800 02ab 00       		.byte	0
 801 02ac 00       		.byte	0
 802 02ad 09       		.uleb128 0x9
 803 02ae 04       		.byte	0x4
 804 02af 22020000 		.4byte	0x222
 805 02b3 05       		.uleb128 0x5
 806 02b4 54020000 		.4byte	.LASF42
 807 02b8 10       		.byte	0x10
 808 02b9 09       		.byte	0x9
 809 02ba 25       		.byte	0x25
 810 02bb E4020000 		.4byte	0x2e4
 811 02bf 06       		.uleb128 0x6
 812 02c0 F6000000 		.4byte	.LASF43
 813 02c4 09       		.byte	0x9
 814 02c5 26       		.byte	0x26
 815 02c6 EA010000 		.4byte	0x1ea
 816 02ca 00       		.byte	0
 817 02cb 06       		.uleb128 0x6
 818 02cc 38050000 		.4byte	.LASF44
 819 02d0 09       		.byte	0x9
 820 02d1 28       		.byte	0x28
 821 02d2 E4010000 		.4byte	0x1e4
 822 02d6 08       		.byte	0x8
 823 02d7 06       		.uleb128 0x6
 824 02d8 7E040000 		.4byte	.LASF45
 825 02dc 09       		.byte	0x9
 826 02dd 2A       		.byte	0x2a
 827 02de E4020000 		.4byte	0x2e4
 828 02e2 0C       		.byte	0xc
 829 02e3 00       		.byte	0
 830 02e4 09       		.uleb128 0x9
 831 02e5 04       		.byte	0x4
 832 02e6 B3020000 		.4byte	0x2b3
 833 02ea 03       		.uleb128 0x3
 834 02eb 54020000 		.4byte	.LASF42
 835 02ef 09       		.byte	0x9
 836 02f0 2C       		.byte	0x2c
 837 02f1 B3020000 		.4byte	0x2b3
 838 02f5 03       		.uleb128 0x3
 839 02f6 09050000 		.4byte	.LASF46
 840 02fa 0A       		.byte	0xa
 841 02fb 25       		.byte	0x25
 842 02fc 00030000 		.4byte	0x300
 843 0300 05       		.uleb128 0x5
 844 0301 09050000 		.4byte	.LASF46
 845 0305 10       		.byte	0x10
 846 0306 0A       		.byte	0xa
 847 0307 2A       		.byte	0x2a
 848 0308 3D030000 		.4byte	0x33d
 849 030c 06       		.uleb128 0x6
 850 030d 1A020000 		.4byte	.LASF47
 851 0311 0A       		.byte	0xa
 852 0312 2B       		.byte	0x2b
 853 0313 3D030000 		.4byte	0x33d
 854 0317 00       		.byte	0
 855 0318 06       		.uleb128 0x6
ARM GAS  /tmp/ccW8eDaQ.s 			page 16


 856 0319 A3030000 		.4byte	.LASF48
 857 031d 0A       		.byte	0xa
 858 031e 2E       		.byte	0x2e
 859 031f E4010000 		.4byte	0x1e4
 860 0323 04       		.byte	0x4
 861 0324 06       		.uleb128 0x6
 862 0325 4A030000 		.4byte	.LASF49
 863 0329 0A       		.byte	0xa
 864 032a 30       		.byte	0x30
 865 032b FA000000 		.4byte	0xfa
 866 032f 08       		.byte	0x8
 867 0330 06       		.uleb128 0x6
 868 0331 AF030000 		.4byte	.LASF50
 869 0335 0A       		.byte	0xa
 870 0336 33       		.byte	0x33
 871 0337 05010000 		.4byte	0x105
 872 033b 0C       		.byte	0xc
 873 033c 00       		.byte	0
 874 033d 09       		.uleb128 0x9
 875 033e 04       		.byte	0x4
 876 033f F5020000 		.4byte	0x2f5
 877 0343 05       		.uleb128 0x5
 878 0344 92010000 		.4byte	.LASF51
 879 0348 04       		.byte	0x4
 880 0349 0A       		.byte	0xa
 881 034a 3A       		.byte	0x3a
 882 034b 5C030000 		.4byte	0x35c
 883 034f 06       		.uleb128 0x6
 884 0350 D9040000 		.4byte	.LASF52
 885 0354 0A       		.byte	0xa
 886 0355 3B       		.byte	0x3b
 887 0356 3D030000 		.4byte	0x33d
 888 035a 00       		.byte	0
 889 035b 00       		.byte	0
 890 035c 03       		.uleb128 0x3
 891 035d 92010000 		.4byte	.LASF51
 892 0361 0A       		.byte	0xa
 893 0362 3E       		.byte	0x3e
 894 0363 43030000 		.4byte	0x343
 895 0367 0B       		.uleb128 0xb
 896 0368 04       		.byte	0x4
 897 0369 07       		.byte	0x7
 898 036a 8F       		.byte	0x8f
 899 036b 9C030000 		.4byte	0x39c
 900 036f 0C       		.uleb128 0xc
 901 0370 56000000 		.4byte	.LASF53
 902 0374 07       		.byte	0x7
 903 0375 96       		.byte	0x96
 904 0376 EF000000 		.4byte	0xef
 905 037a 0C       		.uleb128 0xc
 906 037b AD000000 		.4byte	.LASF54
 907 037f 07       		.byte	0x7
 908 0380 9D       		.byte	0x9d
 909 0381 EF000000 		.4byte	0xef
 910 0385 0C       		.uleb128 0xc
 911 0386 17050000 		.4byte	.LASF55
 912 038a 07       		.byte	0x7
ARM GAS  /tmp/ccW8eDaQ.s 			page 17


 913 038b A4       		.byte	0xa4
 914 038c 20020000 		.4byte	0x220
 915 0390 0C       		.uleb128 0xc
 916 0391 EB030000 		.4byte	.LASF56
 917 0395 07       		.byte	0x7
 918 0396 AB       		.byte	0xab
 919 0397 FA000000 		.4byte	0xfa
 920 039b 00       		.byte	0
 921 039c 09       		.uleb128 0x9
 922 039d 04       		.byte	0x4
 923 039e EA020000 		.4byte	0x2ea
 924 03a2 09       		.uleb128 0x9
 925 03a3 04       		.byte	0x4
 926 03a4 A8030000 		.4byte	0x3a8
 927 03a8 0D       		.uleb128 0xd
 928 03a9 EF000000 		.4byte	0xef
 929 03ad B7030000 		.4byte	0x3b7
 930 03b1 0E       		.uleb128 0xe
 931 03b2 20020000 		.4byte	0x220
 932 03b6 00       		.byte	0
 933 03b7 03       		.uleb128 0x3
 934 03b8 F5020000 		.4byte	.LASF57
 935 03bc 0B       		.byte	0xb
 936 03bd 30       		.byte	0x30
 937 03be C2030000 		.4byte	0x3c2
 938 03c2 05       		.uleb128 0x5
 939 03c3 F5020000 		.4byte	.LASF57
 940 03c7 24       		.byte	0x24
 941 03c8 0B       		.byte	0xb
 942 03c9 3E       		.byte	0x3e
 943 03ca 2F040000 		.4byte	0x42f
 944 03ce 06       		.uleb128 0x6
 945 03cf C3000000 		.4byte	.LASF58
 946 03d3 0B       		.byte	0xb
 947 03d4 3F       		.byte	0x3f
 948 03d5 EA010000 		.4byte	0x1ea
 949 03d9 00       		.byte	0
 950 03da 06       		.uleb128 0x6
 951 03db 27030000 		.4byte	.LASF59
 952 03df 0B       		.byte	0xb
 953 03e0 40       		.byte	0x40
 954 03e1 2C000000 		.4byte	0x2c
 955 03e5 08       		.byte	0x8
 956 03e6 06       		.uleb128 0x6
 957 03e7 3E010000 		.4byte	.LASF60
 958 03eb 0B       		.byte	0xb
 959 03ec 41       		.byte	0x41
 960 03ed 51040000 		.4byte	0x451
 961 03f1 0C       		.byte	0xc
 962 03f2 06       		.uleb128 0x6
 963 03f3 D3040000 		.4byte	.LASF61
 964 03f7 0B       		.byte	0xb
 965 03f8 42       		.byte	0x42
 966 03f9 51040000 		.4byte	0x451
 967 03fd 10       		.byte	0x10
 968 03fe 06       		.uleb128 0x6
 969 03ff 47010000 		.4byte	.LASF62
ARM GAS  /tmp/ccW8eDaQ.s 			page 18


 970 0403 0B       		.byte	0xb
 971 0404 44       		.byte	0x44
 972 0405 51040000 		.4byte	0x451
 973 0409 14       		.byte	0x14
 974 040a 06       		.uleb128 0x6
 975 040b 78030000 		.4byte	.LASF63
 976 040f 0B       		.byte	0xb
 977 0410 45       		.byte	0x45
 978 0411 51040000 		.4byte	0x451
 979 0415 18       		.byte	0x18
 980 0416 06       		.uleb128 0x6
 981 0417 E1040000 		.4byte	.LASF64
 982 041b 0B       		.byte	0xb
 983 041c 46       		.byte	0x46
 984 041d 2F040000 		.4byte	0x42f
 985 0421 1C       		.byte	0x1c
 986 0422 06       		.uleb128 0x6
 987 0423 31050000 		.4byte	.LASF65
 988 0427 0B       		.byte	0xb
 989 0428 47       		.byte	0x47
 990 0429 20020000 		.4byte	0x220
 991 042d 20       		.byte	0x20
 992 042e 00       		.byte	0
 993 042f 03       		.uleb128 0x3
 994 0430 5F030000 		.4byte	.LASF66
 995 0434 0B       		.byte	0xb
 996 0435 33       		.byte	0x33
 997 0436 3A040000 		.4byte	0x43a
 998 043a 09       		.uleb128 0x9
 999 043b 04       		.byte	0x4
 1000 043c 40040000 		.4byte	0x440
 1001 0440 0F       		.uleb128 0xf
 1002 0441 4B040000 		.4byte	0x44b
 1003 0445 0E       		.uleb128 0xe
 1004 0446 4B040000 		.4byte	0x44b
 1005 044a 00       		.byte	0
 1006 044b 09       		.uleb128 0x9
 1007 044c 04       		.byte	0x4
 1008 044d B7030000 		.4byte	0x3b7
 1009 0451 09       		.uleb128 0x9
 1010 0452 04       		.byte	0x4
 1011 0453 89000000 		.4byte	0x89
 1012 0457 03       		.uleb128 0x3
 1013 0458 49020000 		.4byte	.LASF67
 1014 045c 0B       		.byte	0xb
 1015 045d 7B       		.byte	0x7b
 1016 045e B7030000 		.4byte	0x3b7
 1017 0462 03       		.uleb128 0x3
 1018 0463 66000000 		.4byte	.LASF68
 1019 0467 0B       		.byte	0xb
 1020 0468 EE       		.byte	0xee
 1021 0469 B7030000 		.4byte	0x3b7
 1022 046d 0D       		.uleb128 0xd
 1023 046e 2C000000 		.4byte	0x2c
 1024 0472 86040000 		.4byte	0x486
 1025 0476 0E       		.uleb128 0xe
 1026 0477 20020000 		.4byte	0x220
ARM GAS  /tmp/ccW8eDaQ.s 			page 19


 1027 047b 0E       		.uleb128 0xe
 1028 047c 86040000 		.4byte	0x486
 1029 0480 0E       		.uleb128 0xe
 1030 0481 2C000000 		.4byte	0x2c
 1031 0485 00       		.byte	0
 1032 0486 09       		.uleb128 0x9
 1033 0487 04       		.byte	0x4
 1034 0488 8C040000 		.4byte	0x48c
 1035 048c 10       		.uleb128 0x10
 1036 048d 89000000 		.4byte	0x89
 1037 0491 09       		.uleb128 0x9
 1038 0492 04       		.byte	0x4
 1039 0493 6D040000 		.4byte	0x46d
 1040 0497 0D       		.uleb128 0xd
 1041 0498 2C000000 		.4byte	0x2c
 1042 049c B0040000 		.4byte	0x4b0
 1043 04a0 0E       		.uleb128 0xe
 1044 04a1 20020000 		.4byte	0x220
 1045 04a5 0E       		.uleb128 0xe
 1046 04a6 51040000 		.4byte	0x451
 1047 04aa 0E       		.uleb128 0xe
 1048 04ab 2C000000 		.4byte	0x2c
 1049 04af 00       		.byte	0
 1050 04b0 09       		.uleb128 0x9
 1051 04b1 04       		.byte	0x4
 1052 04b2 97040000 		.4byte	0x497
 1053 04b6 0D       		.uleb128 0xd
 1054 04b7 EF000000 		.4byte	0xef
 1055 04bb CA040000 		.4byte	0x4ca
 1056 04bf 0E       		.uleb128 0xe
 1057 04c0 20020000 		.4byte	0x220
 1058 04c4 0E       		.uleb128 0xe
 1059 04c5 89000000 		.4byte	0x89
 1060 04c9 00       		.byte	0
 1061 04ca 09       		.uleb128 0x9
 1062 04cb 04       		.byte	0x4
 1063 04cc B6040000 		.4byte	0x4b6
 1064 04d0 0D       		.uleb128 0xd
 1065 04d1 EF000000 		.4byte	0xef
 1066 04d5 E9040000 		.4byte	0x4e9
 1067 04d9 0E       		.uleb128 0xe
 1068 04da 20020000 		.4byte	0x220
 1069 04de 0E       		.uleb128 0xe
 1070 04df 89000000 		.4byte	0x89
 1071 04e3 0E       		.uleb128 0xe
 1072 04e4 10010000 		.4byte	0x110
 1073 04e8 00       		.byte	0
 1074 04e9 09       		.uleb128 0x9
 1075 04ea 04       		.byte	0x4
 1076 04eb D0040000 		.4byte	0x4d0
 1077 04ef 0D       		.uleb128 0xd
 1078 04f0 EF000000 		.4byte	0xef
 1079 04f4 03050000 		.4byte	0x503
 1080 04f8 0E       		.uleb128 0xe
 1081 04f9 20020000 		.4byte	0x220
 1082 04fd 0E       		.uleb128 0xe
 1083 04fe 10010000 		.4byte	0x110
ARM GAS  /tmp/ccW8eDaQ.s 			page 20


 1084 0502 00       		.byte	0
 1085 0503 09       		.uleb128 0x9
 1086 0504 04       		.byte	0x4
 1087 0505 EF040000 		.4byte	0x4ef
 1088 0509 0D       		.uleb128 0xd
 1089 050a 2C000000 		.4byte	0x2c
 1090 050e 27050000 		.4byte	0x527
 1091 0512 0E       		.uleb128 0xe
 1092 0513 20020000 		.4byte	0x220
 1093 0517 0E       		.uleb128 0xe
 1094 0518 86040000 		.4byte	0x486
 1095 051c 0E       		.uleb128 0xe
 1096 051d 2C000000 		.4byte	0x2c
 1097 0521 0E       		.uleb128 0xe
 1098 0522 10010000 		.4byte	0x110
 1099 0526 00       		.byte	0
 1100 0527 09       		.uleb128 0x9
 1101 0528 04       		.byte	0x4
 1102 0529 09050000 		.4byte	0x509
 1103 052d 0D       		.uleb128 0xd
 1104 052e 2C000000 		.4byte	0x2c
 1105 0532 4B050000 		.4byte	0x54b
 1106 0536 0E       		.uleb128 0xe
 1107 0537 20020000 		.4byte	0x220
 1108 053b 0E       		.uleb128 0xe
 1109 053c 51040000 		.4byte	0x451
 1110 0540 0E       		.uleb128 0xe
 1111 0541 2C000000 		.4byte	0x2c
 1112 0545 0E       		.uleb128 0xe
 1113 0546 10010000 		.4byte	0x110
 1114 054a 00       		.byte	0
 1115 054b 09       		.uleb128 0x9
 1116 054c 04       		.byte	0x4
 1117 054d 2D050000 		.4byte	0x52d
 1118 0551 11       		.uleb128 0x11
 1119 0552 04       		.byte	0x4
 1120 0553 0C       		.byte	0xc
 1121 0554 5D       		.byte	0x5d
 1122 0555 6C050000 		.4byte	0x56c
 1123 0559 12       		.uleb128 0x12
 1124 055a 13040000 		.4byte	.LASF69
 1125 055e 00       		.sleb128 0
 1126 055f 12       		.uleb128 0x12
 1127 0560 E7000000 		.4byte	.LASF70
 1128 0564 01       		.sleb128 1
 1129 0565 12       		.uleb128 0x12
 1130 0566 BE040000 		.4byte	.LASF71
 1131 056a 02       		.sleb128 2
 1132 056b 00       		.byte	0
 1133 056c 03       		.uleb128 0x3
 1134 056d 26040000 		.4byte	.LASF72
 1135 0571 0C       		.byte	0xc
 1136 0572 61       		.byte	0x61
 1137 0573 51050000 		.4byte	0x551
 1138 0577 03       		.uleb128 0x3
 1139 0578 30040000 		.4byte	.LASF73
 1140 057c 0C       		.byte	0xc
ARM GAS  /tmp/ccW8eDaQ.s 			page 21


 1141 057d 66       		.byte	0x66
 1142 057e 82050000 		.4byte	0x582
 1143 0582 05       		.uleb128 0x5
 1144 0583 30040000 		.4byte	.LASF73
 1145 0587 74       		.byte	0x74
 1146 0588 0C       		.byte	0xc
 1147 0589 80       		.byte	0x80
 1148 058a E1050000 		.4byte	0x5e1
 1149 058e 07       		.uleb128 0x7
 1150 058f 766D7400 		.ascii	"vmt\000"
 1151 0593 0C       		.byte	0xc
 1152 0594 82       		.byte	0x82
 1153 0595 6E060000 		.4byte	0x66e
 1154 0599 00       		.byte	0
 1155 059a 06       		.uleb128 0x6
 1156 059b F4010000 		.4byte	.LASF74
 1157 059f 0C       		.byte	0xc
 1158 05a0 83       		.byte	0x83
 1159 05a1 5C030000 		.4byte	0x35c
 1160 05a5 04       		.byte	0x4
 1161 05a6 06       		.uleb128 0x6
 1162 05a7 08010000 		.4byte	.LASF75
 1163 05ab 0C       		.byte	0xc
 1164 05ac 83       		.byte	0x83
 1165 05ad 6C050000 		.4byte	0x56c
 1166 05b1 08       		.byte	0x8
 1167 05b2 06       		.uleb128 0x6
 1168 05b3 CE010000 		.4byte	.LASF76
 1169 05b7 0C       		.byte	0xc
 1170 05b8 83       		.byte	0x83
 1171 05b9 57040000 		.4byte	0x457
 1172 05bd 0C       		.byte	0xc
 1173 05be 06       		.uleb128 0x6
 1174 05bf 13020000 		.4byte	.LASF77
 1175 05c3 0C       		.byte	0xc
 1176 05c4 83       		.byte	0x83
 1177 05c5 62040000 		.4byte	0x462
 1178 05c9 30       		.byte	0x30
 1179 05ca 07       		.uleb128 0x7
 1180 05cb 696200   		.ascii	"ib\000"
 1181 05ce 0C       		.byte	0xc
 1182 05cf 83       		.byte	0x83
 1183 05d0 79060000 		.4byte	0x679
 1184 05d4 54       		.byte	0x54
 1185 05d5 07       		.uleb128 0x7
 1186 05d6 6F6200   		.ascii	"ob\000"
 1187 05d9 0C       		.byte	0xc
 1188 05da 83       		.byte	0x83
 1189 05db 79060000 		.4byte	0x679
 1190 05df 64       		.byte	0x64
 1191 05e0 00       		.byte	0
 1192 05e1 08       		.uleb128 0x8
 1193 05e2 04       		.byte	0x4
 1194 05e3 0D       		.byte	0xd
 1195 05e4 42       		.byte	0x42
 1196 05e5 F6050000 		.4byte	0x5f6
 1197 05e9 06       		.uleb128 0x6
ARM GAS  /tmp/ccW8eDaQ.s 			page 22


 1198 05ea A3000000 		.4byte	.LASF78
 1199 05ee 0D       		.byte	0xd
 1200 05ef 44       		.byte	0x44
 1201 05f0 9F000000 		.4byte	0x9f
 1202 05f4 00       		.byte	0
 1203 05f5 00       		.byte	0
 1204 05f6 03       		.uleb128 0x3
 1205 05f7 52030000 		.4byte	.LASF79
 1206 05fb 0D       		.byte	0xd
 1207 05fc 45       		.byte	0x45
 1208 05fd E1050000 		.4byte	0x5e1
 1209 0601 05       		.uleb128 0x5
 1210 0602 AB010000 		.4byte	.LASF80
 1211 0606 20       		.byte	0x20
 1212 0607 0C       		.byte	0xc
 1213 0608 75       		.byte	0x75
 1214 0609 6E060000 		.4byte	0x66e
 1215 060d 06       		.uleb128 0x6
 1216 060e 13030000 		.4byte	.LASF81
 1217 0612 0C       		.byte	0xc
 1218 0613 76       		.byte	0x76
 1219 0614 91040000 		.4byte	0x491
 1220 0618 00       		.byte	0
 1221 0619 06       		.uleb128 0x6
 1222 061a 3D040000 		.4byte	.LASF82
 1223 061e 0C       		.byte	0xc
 1224 061f 76       		.byte	0x76
 1225 0620 B0040000 		.4byte	0x4b0
 1226 0624 04       		.byte	0x4
 1227 0625 07       		.uleb128 0x7
 1228 0626 70757400 		.ascii	"put\000"
 1229 062a 0C       		.byte	0xc
 1230 062b 76       		.byte	0x76
 1231 062c CA040000 		.4byte	0x4ca
 1232 0630 08       		.byte	0x8
 1233 0631 07       		.uleb128 0x7
 1234 0632 67657400 		.ascii	"get\000"
 1235 0636 0C       		.byte	0xc
 1236 0637 76       		.byte	0x76
 1237 0638 A2030000 		.4byte	0x3a2
 1238 063c 0C       		.byte	0xc
 1239 063d 06       		.uleb128 0x6
 1240 063e 19030000 		.4byte	.LASF83
 1241 0642 0C       		.byte	0xc
 1242 0643 76       		.byte	0x76
 1243 0644 E9040000 		.4byte	0x4e9
 1244 0648 10       		.byte	0x10
 1245 0649 06       		.uleb128 0x6
 1246 064a EF010000 		.4byte	.LASF84
 1247 064e 0C       		.byte	0xc
 1248 064f 76       		.byte	0x76
 1249 0650 03050000 		.4byte	0x503
 1250 0654 14       		.byte	0x14
 1251 0655 06       		.uleb128 0x6
 1252 0656 22020000 		.4byte	.LASF85
 1253 065a 0C       		.byte	0xc
 1254 065b 76       		.byte	0x76
ARM GAS  /tmp/ccW8eDaQ.s 			page 23


 1255 065c 27050000 		.4byte	0x527
 1256 0660 18       		.byte	0x18
 1257 0661 06       		.uleb128 0x6
 1258 0662 BD000000 		.4byte	.LASF86
 1259 0666 0C       		.byte	0xc
 1260 0667 76       		.byte	0x76
 1261 0668 4B050000 		.4byte	0x54b
 1262 066c 1C       		.byte	0x1c
 1263 066d 00       		.byte	0
 1264 066e 09       		.uleb128 0x9
 1265 066f 04       		.byte	0x4
 1266 0670 74060000 		.4byte	0x674
 1267 0674 10       		.uleb128 0x10
 1268 0675 01060000 		.4byte	0x601
 1269 0679 13       		.uleb128 0x13
 1270 067a 89000000 		.4byte	0x89
 1271 067e 89060000 		.4byte	0x689
 1272 0682 14       		.uleb128 0x14
 1273 0683 89060000 		.4byte	0x689
 1274 0687 0F       		.byte	0xf
 1275 0688 00       		.byte	0
 1276 0689 02       		.uleb128 0x2
 1277 068a 04       		.byte	0x4
 1278 068b 07       		.byte	0x7
 1279 068c 1E030000 		.4byte	.LASF87
 1280 0690 15       		.uleb128 0x15
 1281 0691 BD000000 		.4byte	.LASF86
 1282 0695 01       		.byte	0x1
 1283 0696 5C       		.byte	0x5c
 1284 0697 2C000000 		.4byte	0x2c
 1285 069b 00000000 		.4byte	.LFB14
 1286 069f 08000000 		.4byte	.LFE14-.LFB14
 1287 06a3 01       		.uleb128 0x1
 1288 06a4 9C       		.byte	0x9c
 1289 06a5 0A070000 		.4byte	0x70a
 1290 06a9 16       		.uleb128 0x16
 1291 06aa 697000   		.ascii	"ip\000"
 1292 06ad 01       		.byte	0x1
 1293 06ae 5C       		.byte	0x5c
 1294 06af 20020000 		.4byte	0x220
 1295 06b3 00000000 		.4byte	.LLST0
 1296 06b7 16       		.uleb128 0x16
 1297 06b8 627000   		.ascii	"bp\000"
 1298 06bb 01       		.byte	0x1
 1299 06bc 5C       		.byte	0x5c
 1300 06bd 51040000 		.4byte	0x451
 1301 06c1 2E000000 		.4byte	.LLST1
 1302 06c5 16       		.uleb128 0x16
 1303 06c6 6E00     		.ascii	"n\000"
 1304 06c8 01       		.byte	0x1
 1305 06c9 5C       		.byte	0x5c
 1306 06ca 2C000000 		.4byte	0x2c
 1307 06ce 4F000000 		.4byte	.LLST2
 1308 06d2 17       		.uleb128 0x17
 1309 06d3 45030000 		.4byte	.LASF88
 1310 06d7 01       		.byte	0x1
 1311 06d8 5C       		.byte	0x5c
ARM GAS  /tmp/ccW8eDaQ.s 			page 24


 1312 06d9 10010000 		.4byte	0x110
 1313 06dd 70000000 		.4byte	.LLST3
 1314 06e1 18       		.uleb128 0x18
 1315 06e2 08000000 		.4byte	.LVL2
 1316 06e6 0E0C0000 		.4byte	0xc0e
 1317 06ea 19       		.uleb128 0x19
 1318 06eb 01       		.uleb128 0x1
 1319 06ec 53       		.byte	0x53
 1320 06ed 03       		.uleb128 0x3
 1321 06ee F3       		.byte	0xf3
 1322 06ef 01       		.uleb128 0x1
 1323 06f0 53       		.byte	0x53
 1324 06f1 19       		.uleb128 0x19
 1325 06f2 01       		.uleb128 0x1
 1326 06f3 52       		.byte	0x52
 1327 06f4 03       		.uleb128 0x3
 1328 06f5 F3       		.byte	0xf3
 1329 06f6 01       		.uleb128 0x1
 1330 06f7 52       		.byte	0x52
 1331 06f8 19       		.uleb128 0x19
 1332 06f9 01       		.uleb128 0x1
 1333 06fa 51       		.byte	0x51
 1334 06fb 03       		.uleb128 0x3
 1335 06fc F3       		.byte	0xf3
 1336 06fd 01       		.uleb128 0x1
 1337 06fe 51       		.byte	0x51
 1338 06ff 19       		.uleb128 0x19
 1339 0700 01       		.uleb128 0x1
 1340 0701 50       		.byte	0x50
 1341 0702 05       		.uleb128 0x5
 1342 0703 F3       		.byte	0xf3
 1343 0704 01       		.uleb128 0x1
 1344 0705 50       		.byte	0x50
 1345 0706 23       		.byte	0x23
 1346 0707 0C       		.uleb128 0xc
 1347 0708 00       		.byte	0
 1348 0709 00       		.byte	0
 1349 070a 15       		.uleb128 0x15
 1350 070b 3D040000 		.4byte	.LASF82
 1351 070f 01       		.byte	0x1
 1352 0710 3D       		.byte	0x3d
 1353 0711 2C000000 		.4byte	0x2c
 1354 0715 00000000 		.4byte	.LFB8
 1355 0719 0C000000 		.4byte	.LFE8-.LFB8
 1356 071d 01       		.uleb128 0x1
 1357 071e 9C       		.byte	0x9c
 1358 071f 74070000 		.4byte	0x774
 1359 0723 16       		.uleb128 0x16
 1360 0724 697000   		.ascii	"ip\000"
 1361 0727 01       		.byte	0x1
 1362 0728 3D       		.byte	0x3d
 1363 0729 20020000 		.4byte	0x220
 1364 072d 91000000 		.4byte	.LLST4
 1365 0731 16       		.uleb128 0x16
 1366 0732 627000   		.ascii	"bp\000"
 1367 0735 01       		.byte	0x1
 1368 0736 3D       		.byte	0x3d
ARM GAS  /tmp/ccW8eDaQ.s 			page 25


 1369 0737 51040000 		.4byte	0x451
 1370 073b BF000000 		.4byte	.LLST5
 1371 073f 16       		.uleb128 0x16
 1372 0740 6E00     		.ascii	"n\000"
 1373 0742 01       		.byte	0x1
 1374 0743 3D       		.byte	0x3d
 1375 0744 2C000000 		.4byte	0x2c
 1376 0748 E0000000 		.4byte	.LLST6
 1377 074c 18       		.uleb128 0x18
 1378 074d 0C000000 		.4byte	.LVL5
 1379 0751 0E0C0000 		.4byte	0xc0e
 1380 0755 19       		.uleb128 0x19
 1381 0756 01       		.uleb128 0x1
 1382 0757 53       		.byte	0x53
 1383 0758 02       		.uleb128 0x2
 1384 0759 09       		.byte	0x9
 1385 075a FF       		.byte	0xff
 1386 075b 19       		.uleb128 0x19
 1387 075c 01       		.uleb128 0x1
 1388 075d 52       		.byte	0x52
 1389 075e 03       		.uleb128 0x3
 1390 075f F3       		.byte	0xf3
 1391 0760 01       		.uleb128 0x1
 1392 0761 52       		.byte	0x52
 1393 0762 19       		.uleb128 0x19
 1394 0763 01       		.uleb128 0x1
 1395 0764 51       		.byte	0x51
 1396 0765 03       		.uleb128 0x3
 1397 0766 F3       		.byte	0xf3
 1398 0767 01       		.uleb128 0x1
 1399 0768 51       		.byte	0x51
 1400 0769 19       		.uleb128 0x19
 1401 076a 01       		.uleb128 0x1
 1402 076b 50       		.byte	0x50
 1403 076c 05       		.uleb128 0x5
 1404 076d F3       		.byte	0xf3
 1405 076e 01       		.uleb128 0x1
 1406 076f 50       		.byte	0x50
 1407 0770 23       		.byte	0x23
 1408 0771 0C       		.uleb128 0xc
 1409 0772 00       		.byte	0
 1410 0773 00       		.byte	0
 1411 0774 15       		.uleb128 0x15
 1412 0775 22020000 		.4byte	.LASF85
 1413 0779 01       		.byte	0x1
 1414 077a 57       		.byte	0x57
 1415 077b 2C000000 		.4byte	0x2c
 1416 077f 00000000 		.4byte	.LFB13
 1417 0783 08000000 		.4byte	.LFE13-.LFB13
 1418 0787 01       		.uleb128 0x1
 1419 0788 9C       		.byte	0x9c
 1420 0789 EE070000 		.4byte	0x7ee
 1421 078d 16       		.uleb128 0x16
 1422 078e 697000   		.ascii	"ip\000"
 1423 0791 01       		.byte	0x1
 1424 0792 57       		.byte	0x57
 1425 0793 20020000 		.4byte	0x220
ARM GAS  /tmp/ccW8eDaQ.s 			page 26


 1426 0797 01010000 		.4byte	.LLST7
 1427 079b 16       		.uleb128 0x16
 1428 079c 627000   		.ascii	"bp\000"
 1429 079f 01       		.byte	0x1
 1430 07a0 57       		.byte	0x57
 1431 07a1 86040000 		.4byte	0x486
 1432 07a5 2F010000 		.4byte	.LLST8
 1433 07a9 16       		.uleb128 0x16
 1434 07aa 6E00     		.ascii	"n\000"
 1435 07ac 01       		.byte	0x1
 1436 07ad 57       		.byte	0x57
 1437 07ae 2C000000 		.4byte	0x2c
 1438 07b2 50010000 		.4byte	.LLST9
 1439 07b6 17       		.uleb128 0x17
 1440 07b7 45030000 		.4byte	.LASF88
 1441 07bb 01       		.byte	0x1
 1442 07bc 57       		.byte	0x57
 1443 07bd 10010000 		.4byte	0x110
 1444 07c1 71010000 		.4byte	.LLST10
 1445 07c5 18       		.uleb128 0x18
 1446 07c6 08000000 		.4byte	.LVL8
 1447 07ca 390C0000 		.4byte	0xc39
 1448 07ce 19       		.uleb128 0x19
 1449 07cf 01       		.uleb128 0x1
 1450 07d0 53       		.byte	0x53
 1451 07d1 03       		.uleb128 0x3
 1452 07d2 F3       		.byte	0xf3
 1453 07d3 01       		.uleb128 0x1
 1454 07d4 53       		.byte	0x53
 1455 07d5 19       		.uleb128 0x19
 1456 07d6 01       		.uleb128 0x1
 1457 07d7 52       		.byte	0x52
 1458 07d8 03       		.uleb128 0x3
 1459 07d9 F3       		.byte	0xf3
 1460 07da 01       		.uleb128 0x1
 1461 07db 52       		.byte	0x52
 1462 07dc 19       		.uleb128 0x19
 1463 07dd 01       		.uleb128 0x1
 1464 07de 51       		.byte	0x51
 1465 07df 03       		.uleb128 0x3
 1466 07e0 F3       		.byte	0xf3
 1467 07e1 01       		.uleb128 0x1
 1468 07e2 51       		.byte	0x51
 1469 07e3 19       		.uleb128 0x19
 1470 07e4 01       		.uleb128 0x1
 1471 07e5 50       		.byte	0x50
 1472 07e6 05       		.uleb128 0x5
 1473 07e7 F3       		.byte	0xf3
 1474 07e8 01       		.uleb128 0x1
 1475 07e9 50       		.byte	0x50
 1476 07ea 23       		.byte	0x23
 1477 07eb 30       		.uleb128 0x30
 1478 07ec 00       		.byte	0
 1479 07ed 00       		.byte	0
 1480 07ee 15       		.uleb128 0x15
 1481 07ef 13030000 		.4byte	.LASF81
 1482 07f3 01       		.byte	0x1
ARM GAS  /tmp/ccW8eDaQ.s 			page 27


 1483 07f4 37       		.byte	0x37
 1484 07f5 2C000000 		.4byte	0x2c
 1485 07f9 00000000 		.4byte	.LFB7
 1486 07fd 0C000000 		.4byte	.LFE7-.LFB7
 1487 0801 01       		.uleb128 0x1
 1488 0802 9C       		.byte	0x9c
 1489 0803 58080000 		.4byte	0x858
 1490 0807 16       		.uleb128 0x16
 1491 0808 697000   		.ascii	"ip\000"
 1492 080b 01       		.byte	0x1
 1493 080c 37       		.byte	0x37
 1494 080d 20020000 		.4byte	0x220
 1495 0811 92010000 		.4byte	.LLST11
 1496 0815 16       		.uleb128 0x16
 1497 0816 627000   		.ascii	"bp\000"
 1498 0819 01       		.byte	0x1
 1499 081a 37       		.byte	0x37
 1500 081b 86040000 		.4byte	0x486
 1501 081f C0010000 		.4byte	.LLST12
 1502 0823 16       		.uleb128 0x16
 1503 0824 6E00     		.ascii	"n\000"
 1504 0826 01       		.byte	0x1
 1505 0827 37       		.byte	0x37
 1506 0828 2C000000 		.4byte	0x2c
 1507 082c E1010000 		.4byte	.LLST13
 1508 0830 18       		.uleb128 0x18
 1509 0831 0C000000 		.4byte	.LVL11
 1510 0835 390C0000 		.4byte	0xc39
 1511 0839 19       		.uleb128 0x19
 1512 083a 01       		.uleb128 0x1
 1513 083b 53       		.byte	0x53
 1514 083c 02       		.uleb128 0x2
 1515 083d 09       		.byte	0x9
 1516 083e FF       		.byte	0xff
 1517 083f 19       		.uleb128 0x19
 1518 0840 01       		.uleb128 0x1
 1519 0841 52       		.byte	0x52
 1520 0842 03       		.uleb128 0x3
 1521 0843 F3       		.byte	0xf3
 1522 0844 01       		.uleb128 0x1
 1523 0845 52       		.byte	0x52
 1524 0846 19       		.uleb128 0x19
 1525 0847 01       		.uleb128 0x1
 1526 0848 51       		.byte	0x51
 1527 0849 03       		.uleb128 0x3
 1528 084a F3       		.byte	0xf3
 1529 084b 01       		.uleb128 0x1
 1530 084c 51       		.byte	0x51
 1531 084d 19       		.uleb128 0x19
 1532 084e 01       		.uleb128 0x1
 1533 084f 50       		.byte	0x50
 1534 0850 05       		.uleb128 0x5
 1535 0851 F3       		.byte	0xf3
 1536 0852 01       		.uleb128 0x1
 1537 0853 50       		.byte	0x50
 1538 0854 23       		.byte	0x23
 1539 0855 30       		.uleb128 0x30
ARM GAS  /tmp/ccW8eDaQ.s 			page 28


 1540 0856 00       		.byte	0
 1541 0857 00       		.byte	0
 1542 0858 15       		.uleb128 0x15
 1543 0859 EF010000 		.4byte	.LASF84
 1544 085d 01       		.byte	0x1
 1545 085e 52       		.byte	0x52
 1546 085f EF000000 		.4byte	0xef
 1547 0863 00000000 		.4byte	.LFB12
 1548 0867 08000000 		.4byte	.LFE12-.LFB12
 1549 086b 01       		.uleb128 0x1
 1550 086c 9C       		.byte	0x9c
 1551 086d A9080000 		.4byte	0x8a9
 1552 0871 16       		.uleb128 0x16
 1553 0872 697000   		.ascii	"ip\000"
 1554 0875 01       		.byte	0x1
 1555 0876 52       		.byte	0x52
 1556 0877 20020000 		.4byte	0x220
 1557 087b 02020000 		.4byte	.LLST14
 1558 087f 17       		.uleb128 0x17
 1559 0880 E7010000 		.4byte	.LASF89
 1560 0884 01       		.byte	0x1
 1561 0885 52       		.byte	0x52
 1562 0886 10010000 		.4byte	0x110
 1563 088a 30020000 		.4byte	.LLST15
 1564 088e 18       		.uleb128 0x18
 1565 088f 08000000 		.4byte	.LVL14
 1566 0893 640C0000 		.4byte	0xc64
 1567 0897 19       		.uleb128 0x19
 1568 0898 01       		.uleb128 0x1
 1569 0899 51       		.byte	0x51
 1570 089a 03       		.uleb128 0x3
 1571 089b F3       		.byte	0xf3
 1572 089c 01       		.uleb128 0x1
 1573 089d 51       		.byte	0x51
 1574 089e 19       		.uleb128 0x19
 1575 089f 01       		.uleb128 0x1
 1576 08a0 50       		.byte	0x50
 1577 08a1 05       		.uleb128 0x5
 1578 08a2 F3       		.byte	0xf3
 1579 08a3 01       		.uleb128 0x1
 1580 08a4 50       		.byte	0x50
 1581 08a5 23       		.byte	0x23
 1582 08a6 0C       		.uleb128 0xc
 1583 08a7 00       		.byte	0
 1584 08a8 00       		.byte	0
 1585 08a9 1A       		.uleb128 0x1a
 1586 08aa 67657400 		.ascii	"get\000"
 1587 08ae 01       		.byte	0x1
 1588 08af 48       		.byte	0x48
 1589 08b0 EF000000 		.4byte	0xef
 1590 08b4 00000000 		.4byte	.LFB10
 1591 08b8 0C000000 		.4byte	.LFE10-.LFB10
 1592 08bc 01       		.uleb128 0x1
 1593 08bd 9C       		.byte	0x9c
 1594 08be EA080000 		.4byte	0x8ea
 1595 08c2 16       		.uleb128 0x16
 1596 08c3 697000   		.ascii	"ip\000"
ARM GAS  /tmp/ccW8eDaQ.s 			page 29


 1597 08c6 01       		.byte	0x1
 1598 08c7 48       		.byte	0x48
 1599 08c8 20020000 		.4byte	0x220
 1600 08cc 51020000 		.4byte	.LLST16
 1601 08d0 18       		.uleb128 0x18
 1602 08d1 0C000000 		.4byte	.LVL17
 1603 08d5 640C0000 		.4byte	0xc64
 1604 08d9 19       		.uleb128 0x19
 1605 08da 01       		.uleb128 0x1
 1606 08db 51       		.byte	0x51
 1607 08dc 02       		.uleb128 0x2
 1608 08dd 09       		.byte	0x9
 1609 08de FF       		.byte	0xff
 1610 08df 19       		.uleb128 0x19
 1611 08e0 01       		.uleb128 0x1
 1612 08e1 50       		.byte	0x50
 1613 08e2 05       		.uleb128 0x5
 1614 08e3 F3       		.byte	0xf3
 1615 08e4 01       		.uleb128 0x1
 1616 08e5 50       		.byte	0x50
 1617 08e6 23       		.byte	0x23
 1618 08e7 0C       		.uleb128 0xc
 1619 08e8 00       		.byte	0
 1620 08e9 00       		.byte	0
 1621 08ea 15       		.uleb128 0x15
 1622 08eb 19030000 		.4byte	.LASF83
 1623 08ef 01       		.byte	0x1
 1624 08f0 4D       		.byte	0x4d
 1625 08f1 EF000000 		.4byte	0xef
 1626 08f5 00000000 		.4byte	.LFB11
 1627 08f9 0C000000 		.4byte	.LFE11-.LFB11
 1628 08fd 01       		.uleb128 0x1
 1629 08fe 9C       		.byte	0x9c
 1630 08ff 52090000 		.4byte	0x952
 1631 0903 16       		.uleb128 0x16
 1632 0904 697000   		.ascii	"ip\000"
 1633 0907 01       		.byte	0x1
 1634 0908 4D       		.byte	0x4d
 1635 0909 20020000 		.4byte	0x220
 1636 090d 7F020000 		.4byte	.LLST17
 1637 0911 16       		.uleb128 0x16
 1638 0912 6200     		.ascii	"b\000"
 1639 0914 01       		.byte	0x1
 1640 0915 4D       		.byte	0x4d
 1641 0916 89000000 		.4byte	0x89
 1642 091a AD020000 		.4byte	.LLST18
 1643 091e 17       		.uleb128 0x17
 1644 091f E7010000 		.4byte	.LASF89
 1645 0923 01       		.byte	0x1
 1646 0924 4D       		.byte	0x4d
 1647 0925 10010000 		.4byte	0x110
 1648 0929 CE020000 		.4byte	.LLST19
 1649 092d 18       		.uleb128 0x18
 1650 092e 0C000000 		.4byte	.LVL20
 1651 0932 7F0C0000 		.4byte	0xc7f
 1652 0936 19       		.uleb128 0x19
 1653 0937 01       		.uleb128 0x1
ARM GAS  /tmp/ccW8eDaQ.s 			page 30


 1654 0938 52       		.byte	0x52
 1655 0939 03       		.uleb128 0x3
 1656 093a F3       		.byte	0xf3
 1657 093b 01       		.uleb128 0x1
 1658 093c 52       		.byte	0x52
 1659 093d 19       		.uleb128 0x19
 1660 093e 01       		.uleb128 0x1
 1661 093f 51       		.byte	0x51
 1662 0940 06       		.uleb128 0x6
 1663 0941 F3       		.byte	0xf3
 1664 0942 01       		.uleb128 0x1
 1665 0943 51       		.byte	0x51
 1666 0944 08       		.byte	0x8
 1667 0945 FF       		.byte	0xff
 1668 0946 1A       		.byte	0x1a
 1669 0947 19       		.uleb128 0x19
 1670 0948 01       		.uleb128 0x1
 1671 0949 50       		.byte	0x50
 1672 094a 05       		.uleb128 0x5
 1673 094b F3       		.byte	0xf3
 1674 094c 01       		.uleb128 0x1
 1675 094d 50       		.byte	0x50
 1676 094e 23       		.byte	0x23
 1677 094f 30       		.uleb128 0x30
 1678 0950 00       		.byte	0
 1679 0951 00       		.byte	0
 1680 0952 1A       		.uleb128 0x1a
 1681 0953 70757400 		.ascii	"put\000"
 1682 0957 01       		.byte	0x1
 1683 0958 43       		.byte	0x43
 1684 0959 EF000000 		.4byte	0xef
 1685 095d 00000000 		.4byte	.LFB9
 1686 0961 10000000 		.4byte	.LFE9-.LFB9
 1687 0965 01       		.uleb128 0x1
 1688 0966 9C       		.byte	0x9c
 1689 0967 AA090000 		.4byte	0x9aa
 1690 096b 16       		.uleb128 0x16
 1691 096c 697000   		.ascii	"ip\000"
 1692 096f 01       		.byte	0x1
 1693 0970 43       		.byte	0x43
 1694 0971 20020000 		.4byte	0x220
 1695 0975 EF020000 		.4byte	.LLST20
 1696 0979 16       		.uleb128 0x16
 1697 097a 6200     		.ascii	"b\000"
 1698 097c 01       		.byte	0x1
 1699 097d 43       		.byte	0x43
 1700 097e 89000000 		.4byte	0x89
 1701 0982 1D030000 		.4byte	.LLST21
 1702 0986 18       		.uleb128 0x18
 1703 0987 10000000 		.4byte	.LVL23
 1704 098b 7F0C0000 		.4byte	0xc7f
 1705 098f 19       		.uleb128 0x19
 1706 0990 01       		.uleb128 0x1
 1707 0991 52       		.byte	0x52
 1708 0992 02       		.uleb128 0x2
 1709 0993 09       		.byte	0x9
 1710 0994 FF       		.byte	0xff
ARM GAS  /tmp/ccW8eDaQ.s 			page 31


 1711 0995 19       		.uleb128 0x19
 1712 0996 01       		.uleb128 0x1
 1713 0997 51       		.byte	0x51
 1714 0998 06       		.uleb128 0x6
 1715 0999 F3       		.byte	0xf3
 1716 099a 01       		.uleb128 0x1
 1717 099b 51       		.byte	0x51
 1718 099c 08       		.byte	0x8
 1719 099d FF       		.byte	0xff
 1720 099e 1A       		.byte	0x1a
 1721 099f 19       		.uleb128 0x19
 1722 09a0 01       		.uleb128 0x1
 1723 09a1 50       		.byte	0x50
 1724 09a2 05       		.uleb128 0x5
 1725 09a3 F3       		.byte	0xf3
 1726 09a4 01       		.uleb128 0x1
 1727 09a5 50       		.byte	0x50
 1728 09a6 23       		.byte	0x23
 1729 09a7 30       		.uleb128 0x30
 1730 09a8 00       		.byte	0
 1731 09a9 00       		.byte	0
 1732 09aa 1B       		.uleb128 0x1b
 1733 09ab 2A050000 		.4byte	.LASF90
 1734 09af 01       		.byte	0x1
 1735 09b0 71       		.byte	0x71
 1736 09b1 00000000 		.4byte	.LFB15
 1737 09b5 04000000 		.4byte	.LFE15-.LFB15
 1738 09b9 01       		.uleb128 0x1
 1739 09ba 9C       		.byte	0x9c
 1740 09bb C9090000 		.4byte	0x9c9
 1741 09bf 1C       		.uleb128 0x1c
 1742 09c0 04000000 		.4byte	.LVL24
 1743 09c4 9F0C0000 		.4byte	0xc9f
 1744 09c8 00       		.byte	0
 1745 09c9 1B       		.uleb128 0x1b
 1746 09ca DE030000 		.4byte	.LASF91
 1747 09ce 01       		.byte	0x1
 1748 09cf 85       		.byte	0x85
 1749 09d0 00000000 		.4byte	.LFB16
 1750 09d4 5C000000 		.4byte	.LFE16-.LFB16
 1751 09d8 01       		.uleb128 0x1
 1752 09d9 9C       		.byte	0x9c
 1753 09da 5C0A0000 		.4byte	0xa5c
 1754 09de 16       		.uleb128 0x16
 1755 09df 73647000 		.ascii	"sdp\000"
 1756 09e3 01       		.byte	0x1
 1757 09e4 85       		.byte	0x85
 1758 09e5 5C0A0000 		.4byte	0xa5c
 1759 09e9 3E030000 		.4byte	.LLST22
 1760 09ed 17       		.uleb128 0x17
 1761 09ee C6010000 		.4byte	.LASF92
 1762 09f2 01       		.byte	0x1
 1763 09f3 85       		.byte	0x85
 1764 09f4 2F040000 		.4byte	0x42f
 1765 09f8 6A030000 		.4byte	.LLST23
 1766 09fc 17       		.uleb128 0x17
 1767 09fd 01050000 		.4byte	.LASF93
ARM GAS  /tmp/ccW8eDaQ.s 			page 32


 1768 0a01 01       		.byte	0x1
 1769 0a02 85       		.byte	0x85
 1770 0a03 2F040000 		.4byte	0x42f
 1771 0a07 96030000 		.4byte	.LLST24
 1772 0a0b 1D       		.uleb128 0x1d
 1773 0a0c 38000000 		.4byte	.LVL29
 1774 0a10 A60C0000 		.4byte	0xca6
 1775 0a14 320A0000 		.4byte	0xa32
 1776 0a18 19       		.uleb128 0x19
 1777 0a19 01       		.uleb128 0x1
 1778 0a1a 53       		.byte	0x53
 1779 0a1b 03       		.uleb128 0x3
 1780 0a1c F3       		.byte	0xf3
 1781 0a1d 01       		.uleb128 0x1
 1782 0a1e 51       		.byte	0x51
 1783 0a1f 19       		.uleb128 0x19
 1784 0a20 01       		.uleb128 0x1
 1785 0a21 52       		.byte	0x52
 1786 0a22 01       		.uleb128 0x1
 1787 0a23 40       		.byte	0x40
 1788 0a24 19       		.uleb128 0x19
 1789 0a25 01       		.uleb128 0x1
 1790 0a26 51       		.byte	0x51
 1791 0a27 03       		.uleb128 0x3
 1792 0a28 74       		.byte	0x74
 1793 0a29 D400     		.sleb128 84
 1794 0a2b 19       		.uleb128 0x19
 1795 0a2c 01       		.uleb128 0x1
 1796 0a2d 50       		.byte	0x50
 1797 0a2e 02       		.uleb128 0x2
 1798 0a2f 74       		.byte	0x74
 1799 0a30 0C       		.sleb128 12
 1800 0a31 00       		.byte	0
 1801 0a32 1E       		.uleb128 0x1e
 1802 0a33 50000000 		.4byte	.LVL30
 1803 0a37 CC0C0000 		.4byte	0xccc
 1804 0a3b 19       		.uleb128 0x19
 1805 0a3c 01       		.uleb128 0x1
 1806 0a3d 53       		.byte	0x53
 1807 0a3e 02       		.uleb128 0x2
 1808 0a3f 75       		.byte	0x75
 1809 0a40 00       		.sleb128 0
 1810 0a41 19       		.uleb128 0x19
 1811 0a42 01       		.uleb128 0x1
 1812 0a43 52       		.byte	0x52
 1813 0a44 01       		.uleb128 0x1
 1814 0a45 40       		.byte	0x40
 1815 0a46 19       		.uleb128 0x19
 1816 0a47 01       		.uleb128 0x1
 1817 0a48 51       		.byte	0x51
 1818 0a49 03       		.uleb128 0x3
 1819 0a4a 74       		.byte	0x74
 1820 0a4b E400     		.sleb128 100
 1821 0a4d 19       		.uleb128 0x19
 1822 0a4e 01       		.uleb128 0x1
 1823 0a4f 50       		.byte	0x50
 1824 0a50 02       		.uleb128 0x2
ARM GAS  /tmp/ccW8eDaQ.s 			page 33


 1825 0a51 74       		.byte	0x74
 1826 0a52 30       		.sleb128 48
 1827 0a53 19       		.uleb128 0x19
 1828 0a54 02       		.uleb128 0x2
 1829 0a55 7D       		.byte	0x7d
 1830 0a56 00       		.sleb128 0
 1831 0a57 02       		.uleb128 0x2
 1832 0a58 74       		.byte	0x74
 1833 0a59 00       		.sleb128 0
 1834 0a5a 00       		.byte	0
 1835 0a5b 00       		.byte	0
 1836 0a5c 09       		.uleb128 0x9
 1837 0a5d 04       		.byte	0x4
 1838 0a5e 77050000 		.4byte	0x577
 1839 0a62 1B       		.uleb128 0x1b
 1840 0a63 59040000 		.4byte	.LASF94
 1841 0a67 01       		.byte	0x1
 1842 0a68 98       		.byte	0x98
 1843 0a69 00000000 		.4byte	.LFB17
 1844 0a6d 20000000 		.4byte	.LFE17-.LFB17
 1845 0a71 01       		.uleb128 0x1
 1846 0a72 9C       		.byte	0x9c
 1847 0a73 AD0A0000 		.4byte	0xaad
 1848 0a77 16       		.uleb128 0x16
 1849 0a78 73647000 		.ascii	"sdp\000"
 1850 0a7c 01       		.byte	0x1
 1851 0a7d 98       		.byte	0x98
 1852 0a7e 5C0A0000 		.4byte	0xa5c
 1853 0a82 C2030000 		.4byte	.LLST25
 1854 0a86 17       		.uleb128 0x17
 1855 0a87 52040000 		.4byte	.LASF95
 1856 0a8b 01       		.byte	0x1
 1857 0a8c 98       		.byte	0x98
 1858 0a8d AD0A0000 		.4byte	0xaad
 1859 0a91 E0030000 		.4byte	.LLST26
 1860 0a95 1E       		.uleb128 0x1e
 1861 0a96 10000000 		.4byte	.LVL33
 1862 0a9a F20C0000 		.4byte	0xcf2
 1863 0a9e 19       		.uleb128 0x19
 1864 0a9f 01       		.uleb128 0x1
 1865 0aa0 51       		.byte	0x51
 1866 0aa1 03       		.uleb128 0x3
 1867 0aa2 F3       		.byte	0xf3
 1868 0aa3 01       		.uleb128 0x1
 1869 0aa4 51       		.byte	0x51
 1870 0aa5 19       		.uleb128 0x19
 1871 0aa6 01       		.uleb128 0x1
 1872 0aa7 50       		.byte	0x50
 1873 0aa8 02       		.uleb128 0x2
 1874 0aa9 74       		.byte	0x74
 1875 0aaa 00       		.sleb128 0
 1876 0aab 00       		.byte	0
 1877 0aac 00       		.byte	0
 1878 0aad 09       		.uleb128 0x9
 1879 0aae 04       		.byte	0x4
 1880 0aaf B30A0000 		.4byte	0xab3
 1881 0ab3 10       		.uleb128 0x10
ARM GAS  /tmp/ccW8eDaQ.s 			page 34


 1882 0ab4 F6050000 		.4byte	0x5f6
 1883 0ab8 1B       		.uleb128 0x1b
 1884 0ab9 3E030000 		.4byte	.LASF96
 1885 0abd 01       		.byte	0x1
 1886 0abe AE       		.byte	0xae
 1887 0abf 00000000 		.4byte	.LFB18
 1888 0ac3 34000000 		.4byte	.LFE18-.LFB18
 1889 0ac7 01       		.uleb128 0x1
 1890 0ac8 9C       		.byte	0x9c
 1891 0ac9 220B0000 		.4byte	0xb22
 1892 0acd 16       		.uleb128 0x16
 1893 0ace 73647000 		.ascii	"sdp\000"
 1894 0ad2 01       		.byte	0x1
 1895 0ad3 AE       		.byte	0xae
 1896 0ad4 5C0A0000 		.4byte	0xa5c
 1897 0ad8 01040000 		.4byte	.LLST27
 1898 0adc 1D       		.uleb128 0x1d
 1899 0add 10000000 		.4byte	.LVL35
 1900 0ae1 080D0000 		.4byte	0xd08
 1901 0ae5 F00A0000 		.4byte	0xaf0
 1902 0ae9 19       		.uleb128 0x19
 1903 0aea 01       		.uleb128 0x1
 1904 0aeb 50       		.byte	0x50
 1905 0aec 02       		.uleb128 0x2
 1906 0aed 74       		.byte	0x74
 1907 0aee 00       		.sleb128 0
 1908 0aef 00       		.byte	0
 1909 0af0 1D       		.uleb128 0x1d
 1910 0af1 20000000 		.4byte	.LVL36
 1911 0af5 190D0000 		.4byte	0xd19
 1912 0af9 040B0000 		.4byte	0xb04
 1913 0afd 19       		.uleb128 0x19
 1914 0afe 01       		.uleb128 0x1
 1915 0aff 50       		.byte	0x50
 1916 0b00 02       		.uleb128 0x2
 1917 0b01 74       		.byte	0x74
 1918 0b02 30       		.sleb128 48
 1919 0b03 00       		.byte	0
 1920 0b04 1D       		.uleb128 0x1d
 1921 0b05 28000000 		.4byte	.LVL37
 1922 0b09 2B0D0000 		.4byte	0xd2b
 1923 0b0d 180B0000 		.4byte	0xb18
 1924 0b11 19       		.uleb128 0x19
 1925 0b12 01       		.uleb128 0x1
 1926 0b13 50       		.byte	0x50
 1927 0b14 02       		.uleb128 0x2
 1928 0b15 74       		.byte	0x74
 1929 0b16 0C       		.sleb128 12
 1930 0b17 00       		.byte	0
 1931 0b18 1F       		.uleb128 0x1f
 1932 0b19 2C000000 		.4byte	.LVL38
 1933 0b1d 3D0D0000 		.4byte	0xd3d
 1934 0b21 00       		.byte	0
 1935 0b22 1B       		.uleb128 0x1b
 1936 0b23 42040000 		.4byte	.LASF97
 1937 0b27 01       		.byte	0x1
 1938 0b28 CE       		.byte	0xce
ARM GAS  /tmp/ccW8eDaQ.s 			page 35


 1939 0b29 00000000 		.4byte	.LFB19
 1940 0b2d 4C000000 		.4byte	.LFE19-.LFB19
 1941 0b31 01       		.uleb128 0x1
 1942 0b32 9C       		.byte	0x9c
 1943 0b33 A00B0000 		.4byte	0xba0
 1944 0b37 16       		.uleb128 0x16
 1945 0b38 73647000 		.ascii	"sdp\000"
 1946 0b3c 01       		.byte	0x1
 1947 0b3d CE       		.byte	0xce
 1948 0b3e 5C0A0000 		.4byte	0xa5c
 1949 0b42 1F040000 		.4byte	.LLST28
 1950 0b46 16       		.uleb128 0x16
 1951 0b47 6200     		.ascii	"b\000"
 1952 0b49 01       		.byte	0x1
 1953 0b4a CE       		.byte	0xce
 1954 0b4b 89000000 		.4byte	0x89
 1955 0b4f 6E040000 		.4byte	.LLST29
 1956 0b53 1D       		.uleb128 0x1d
 1957 0b54 24000000 		.4byte	.LVL41
 1958 0b58 440D0000 		.4byte	0xd44
 1959 0b5c 6D0B0000 		.4byte	0xb6d
 1960 0b60 19       		.uleb128 0x19
 1961 0b61 01       		.uleb128 0x1
 1962 0b62 51       		.byte	0x51
 1963 0b63 02       		.uleb128 0x2
 1964 0b64 75       		.byte	0x75
 1965 0b65 00       		.sleb128 0
 1966 0b66 19       		.uleb128 0x19
 1967 0b67 01       		.uleb128 0x1
 1968 0b68 50       		.byte	0x50
 1969 0b69 02       		.uleb128 0x2
 1970 0b6a 74       		.byte	0x74
 1971 0b6b 0C       		.sleb128 12
 1972 0b6c 00       		.byte	0
 1973 0b6d 20       		.uleb128 0x20
 1974 0b6e 3C000000 		.4byte	.LVL43
 1975 0b72 5F0D0000 		.4byte	0xd5f
 1976 0b76 8A0B0000 		.4byte	0xb8a
 1977 0b7a 19       		.uleb128 0x19
 1978 0b7b 01       		.uleb128 0x1
 1979 0b7c 51       		.byte	0x51
 1980 0b7d 02       		.uleb128 0x2
 1981 0b7e 08       		.byte	0x8
 1982 0b7f 80       		.byte	0x80
 1983 0b80 19       		.uleb128 0x19
 1984 0b81 01       		.uleb128 0x1
 1985 0b82 50       		.byte	0x50
 1986 0b83 05       		.uleb128 0x5
 1987 0b84 F3       		.byte	0xf3
 1988 0b85 01       		.uleb128 0x1
 1989 0b86 50       		.byte	0x50
 1990 0b87 23       		.byte	0x23
 1991 0b88 04       		.uleb128 0x4
 1992 0b89 00       		.byte	0
 1993 0b8a 1E       		.uleb128 0x1e
 1994 0b8b 48000000 		.4byte	.LVL46
 1995 0b8f 5F0D0000 		.4byte	0xd5f
ARM GAS  /tmp/ccW8eDaQ.s 			page 36


 1996 0b93 19       		.uleb128 0x19
 1997 0b94 01       		.uleb128 0x1
 1998 0b95 51       		.byte	0x51
 1999 0b96 01       		.uleb128 0x1
 2000 0b97 34       		.byte	0x34
 2001 0b98 19       		.uleb128 0x19
 2002 0b99 01       		.uleb128 0x1
 2003 0b9a 50       		.byte	0x50
 2004 0b9b 02       		.uleb128 0x2
 2005 0b9c 74       		.byte	0x74
 2006 0b9d 04       		.sleb128 4
 2007 0b9e 00       		.byte	0
 2008 0b9f 00       		.byte	0
 2009 0ba0 21       		.uleb128 0x21
 2010 0ba1 EA040000 		.4byte	.LASF116
 2011 0ba5 01       		.byte	0x1
 2012 0ba6 E8       		.byte	0xe8
 2013 0ba7 EF000000 		.4byte	0xef
 2014 0bab 00000000 		.4byte	.LFB20
 2015 0baf 34000000 		.4byte	.LFE20-.LFB20
 2016 0bb3 01       		.uleb128 0x1
 2017 0bb4 9C       		.byte	0x9c
 2018 0bb5 FD0B0000 		.4byte	0xbfd
 2019 0bb9 16       		.uleb128 0x16
 2020 0bba 73647000 		.ascii	"sdp\000"
 2021 0bbe 01       		.byte	0x1
 2022 0bbf E8       		.byte	0xe8
 2023 0bc0 5C0A0000 		.4byte	0xa5c
 2024 0bc4 B0040000 		.4byte	.LLST30
 2025 0bc8 22       		.uleb128 0x22
 2026 0bc9 6200     		.ascii	"b\000"
 2027 0bcb 01       		.byte	0x1
 2028 0bcc E9       		.byte	0xe9
 2029 0bcd EF000000 		.4byte	0xef
 2030 0bd1 01       		.uleb128 0x1
 2031 0bd2 50       		.byte	0x50
 2032 0bd3 1D       		.uleb128 0x1d
 2033 0bd4 10000000 		.4byte	.LVL49
 2034 0bd8 7B0D0000 		.4byte	0xd7b
 2035 0bdc E70B0000 		.4byte	0xbe7
 2036 0be0 19       		.uleb128 0x19
 2037 0be1 01       		.uleb128 0x1
 2038 0be2 50       		.byte	0x50
 2039 0be3 02       		.uleb128 0x2
 2040 0be4 74       		.byte	0x74
 2041 0be5 30       		.sleb128 48
 2042 0be6 00       		.byte	0
 2043 0be7 1E       		.uleb128 0x1e
 2044 0be8 2C000000 		.4byte	.LVL50
 2045 0bec 5F0D0000 		.4byte	0xd5f
 2046 0bf0 19       		.uleb128 0x19
 2047 0bf1 01       		.uleb128 0x1
 2048 0bf2 51       		.byte	0x51
 2049 0bf3 01       		.uleb128 0x1
 2050 0bf4 38       		.byte	0x38
 2051 0bf5 19       		.uleb128 0x19
 2052 0bf6 01       		.uleb128 0x1
ARM GAS  /tmp/ccW8eDaQ.s 			page 37


 2053 0bf7 50       		.byte	0x50
 2054 0bf8 02       		.uleb128 0x2
 2055 0bf9 74       		.byte	0x74
 2056 0bfa 04       		.sleb128 4
 2057 0bfb 00       		.byte	0
 2058 0bfc 00       		.byte	0
 2059 0bfd 22       		.uleb128 0x22
 2060 0bfe 766D7400 		.ascii	"vmt\000"
 2061 0c02 01       		.byte	0x1
 2062 0c03 61       		.byte	0x61
 2063 0c04 74060000 		.4byte	0x674
 2064 0c08 05       		.uleb128 0x5
 2065 0c09 03       		.byte	0x3
 2066 0c0a 00000000 		.4byte	vmt
 2067 0c0e 23       		.uleb128 0x23
 2068 0c0f 7C000000 		.4byte	.LASF98
 2069 0c13 0B       		.byte	0xb
 2070 0c14 6001     		.2byte	0x160
 2071 0c16 2C000000 		.4byte	0x2c
 2072 0c1a 330C0000 		.4byte	0xc33
 2073 0c1e 0E       		.uleb128 0xe
 2074 0c1f 330C0000 		.4byte	0xc33
 2075 0c23 0E       		.uleb128 0xe
 2076 0c24 51040000 		.4byte	0x451
 2077 0c28 0E       		.uleb128 0xe
 2078 0c29 2C000000 		.4byte	0x2c
 2079 0c2d 0E       		.uleb128 0xe
 2080 0c2e 10010000 		.4byte	0x110
 2081 0c32 00       		.byte	0
 2082 0c33 09       		.uleb128 0x9
 2083 0c34 04       		.byte	0x4
 2084 0c35 57040000 		.4byte	0x457
 2085 0c39 23       		.uleb128 0x23
 2086 0c3a 02030000 		.4byte	.LASF99
 2087 0c3e 0B       		.byte	0xb
 2088 0c3f 6801     		.2byte	0x168
 2089 0c41 2C000000 		.4byte	0x2c
 2090 0c45 5E0C0000 		.4byte	0xc5e
 2091 0c49 0E       		.uleb128 0xe
 2092 0c4a 5E0C0000 		.4byte	0xc5e
 2093 0c4e 0E       		.uleb128 0xe
 2094 0c4f 86040000 		.4byte	0x486
 2095 0c53 0E       		.uleb128 0xe
 2096 0c54 2C000000 		.4byte	0x2c
 2097 0c58 0E       		.uleb128 0xe
 2098 0c59 10010000 		.4byte	0x110
 2099 0c5d 00       		.byte	0
 2100 0c5e 09       		.uleb128 0x9
 2101 0c5f 04       		.byte	0x4
 2102 0c60 62040000 		.4byte	0x462
 2103 0c64 23       		.uleb128 0x23
 2104 0c65 50050000 		.4byte	.LASF100
 2105 0c69 0B       		.byte	0xb
 2106 0c6a 5F01     		.2byte	0x15f
 2107 0c6c EF000000 		.4byte	0xef
 2108 0c70 7F0C0000 		.4byte	0xc7f
 2109 0c74 0E       		.uleb128 0xe
ARM GAS  /tmp/ccW8eDaQ.s 			page 38


 2110 0c75 330C0000 		.4byte	0xc33
 2111 0c79 0E       		.uleb128 0xe
 2112 0c7a 10010000 		.4byte	0x110
 2113 0c7e 00       		.byte	0
 2114 0c7f 23       		.uleb128 0x23
 2115 0c80 00000000 		.4byte	.LASF101
 2116 0c84 0B       		.byte	0xb
 2117 0c85 6601     		.2byte	0x166
 2118 0c87 EF000000 		.4byte	0xef
 2119 0c8b 9F0C0000 		.4byte	0xc9f
 2120 0c8f 0E       		.uleb128 0xe
 2121 0c90 5E0C0000 		.4byte	0xc5e
 2122 0c94 0E       		.uleb128 0xe
 2123 0c95 89000000 		.4byte	0x89
 2124 0c99 0E       		.uleb128 0xe
 2125 0c9a 10010000 		.4byte	0x110
 2126 0c9e 00       		.byte	0
 2127 0c9f 24       		.uleb128 0x24
 2128 0ca0 32010000 		.4byte	.LASF108
 2129 0ca4 0D       		.byte	0xd
 2130 0ca5 67       		.byte	0x67
 2131 0ca6 25       		.uleb128 0x25
 2132 0ca7 5D000000 		.4byte	.LASF102
 2133 0cab 0B       		.byte	0xb
 2134 0cac 5B01     		.2byte	0x15b
 2135 0cae CC0C0000 		.4byte	0xccc
 2136 0cb2 0E       		.uleb128 0xe
 2137 0cb3 330C0000 		.4byte	0xc33
 2138 0cb7 0E       		.uleb128 0xe
 2139 0cb8 51040000 		.4byte	0x451
 2140 0cbc 0E       		.uleb128 0xe
 2141 0cbd 2C000000 		.4byte	0x2c
 2142 0cc1 0E       		.uleb128 0xe
 2143 0cc2 2F040000 		.4byte	0x42f
 2144 0cc6 0E       		.uleb128 0xe
 2145 0cc7 20020000 		.4byte	0x220
 2146 0ccb 00       		.byte	0
 2147 0ccc 25       		.uleb128 0x25
 2148 0ccd 0E010000 		.4byte	.LASF103
 2149 0cd1 0B       		.byte	0xb
 2150 0cd2 6301     		.2byte	0x163
 2151 0cd4 F20C0000 		.4byte	0xcf2
 2152 0cd8 0E       		.uleb128 0xe
 2153 0cd9 5E0C0000 		.4byte	0xc5e
 2154 0cdd 0E       		.uleb128 0xe
 2155 0cde 51040000 		.4byte	0x451
 2156 0ce2 0E       		.uleb128 0xe
 2157 0ce3 2C000000 		.4byte	0x2c
 2158 0ce7 0E       		.uleb128 0xe
 2159 0ce8 2F040000 		.4byte	0x42f
 2160 0cec 0E       		.uleb128 0xe
 2161 0ced 20020000 		.4byte	0x220
 2162 0cf1 00       		.byte	0
 2163 0cf2 26       		.uleb128 0x26
 2164 0cf3 96030000 		.4byte	.LASF104
 2165 0cf7 0D       		.byte	0xd
 2166 0cf8 68       		.byte	0x68
ARM GAS  /tmp/ccW8eDaQ.s 			page 39


 2167 0cf9 080D0000 		.4byte	0xd08
 2168 0cfd 0E       		.uleb128 0xe
 2169 0cfe 5C0A0000 		.4byte	0xa5c
 2170 0d02 0E       		.uleb128 0xe
 2171 0d03 AD0A0000 		.4byte	0xaad
 2172 0d07 00       		.byte	0
 2173 0d08 26       		.uleb128 0x26
 2174 0d09 1E050000 		.4byte	.LASF105
 2175 0d0d 0D       		.byte	0xd
 2176 0d0e 69       		.byte	0x69
 2177 0d0f 190D0000 		.4byte	0xd19
 2178 0d13 0E       		.uleb128 0xe
 2179 0d14 5C0A0000 		.4byte	0xa5c
 2180 0d18 00       		.byte	0
 2181 0d19 25       		.uleb128 0x25
 2182 0d1a A4040000 		.4byte	.LASF106
 2183 0d1e 0B       		.byte	0xb
 2184 0d1f 6501     		.2byte	0x165
 2185 0d21 2B0D0000 		.4byte	0xd2b
 2186 0d25 0E       		.uleb128 0xe
 2187 0d26 5E0C0000 		.4byte	0xc5e
 2188 0d2a 00       		.byte	0
 2189 0d2b 25       		.uleb128 0x25
 2190 0d2c BB010000 		.4byte	.LASF107
 2191 0d30 0B       		.byte	0xb
 2192 0d31 5D01     		.2byte	0x15d
 2193 0d33 3D0D0000 		.4byte	0xd3d
 2194 0d37 0E       		.uleb128 0xe
 2195 0d38 330C0000 		.4byte	0xc33
 2196 0d3c 00       		.byte	0
 2197 0d3d 24       		.uleb128 0x24
 2198 0d3e 64010000 		.4byte	.LASF109
 2199 0d42 0E       		.byte	0xe
 2200 0d43 95       		.byte	0x95
 2201 0d44 23       		.uleb128 0x23
 2202 0d45 89010000 		.4byte	.LASF110
 2203 0d49 0B       		.byte	0xb
 2204 0d4a 5E01     		.2byte	0x15e
 2205 0d4c EF000000 		.4byte	0xef
 2206 0d50 5F0D0000 		.4byte	0xd5f
 2207 0d54 0E       		.uleb128 0xe
 2208 0d55 330C0000 		.4byte	0xc33
 2209 0d59 0E       		.uleb128 0xe
 2210 0d5a 89000000 		.4byte	0x89
 2211 0d5e 00       		.byte	0
 2212 0d5f 26       		.uleb128 0x26
 2213 0d60 4F010000 		.4byte	.LASF111
 2214 0d64 0A       		.byte	0xa
 2215 0d65 B3       		.byte	0xb3
 2216 0d66 750D0000 		.4byte	0xd75
 2217 0d6a 0E       		.uleb128 0xe
 2218 0d6b 750D0000 		.4byte	0xd75
 2219 0d6f 0E       		.uleb128 0xe
 2220 0d70 05010000 		.4byte	0x105
 2221 0d74 00       		.byte	0
 2222 0d75 09       		.uleb128 0x9
 2223 0d76 04       		.byte	0x4
ARM GAS  /tmp/ccW8eDaQ.s 			page 40


 2224 0d77 5C030000 		.4byte	0x35c
 2225 0d7b 27       		.uleb128 0x27
 2226 0d7c 29010000 		.4byte	.LASF112
 2227 0d80 0B       		.byte	0xb
 2228 0d81 6701     		.2byte	0x167
 2229 0d83 EF000000 		.4byte	0xef
 2230 0d87 0E       		.uleb128 0xe
 2231 0d88 5E0C0000 		.4byte	0xc5e
 2232 0d8c 00       		.byte	0
 2233 0d8d 00       		.byte	0
 2234              		.section	.debug_abbrev,"",%progbits
 2235              	.Ldebug_abbrev0:
 2236 0000 01       		.uleb128 0x1
 2237 0001 11       		.uleb128 0x11
 2238 0002 01       		.byte	0x1
 2239 0003 25       		.uleb128 0x25
 2240 0004 0E       		.uleb128 0xe
 2241 0005 13       		.uleb128 0x13
 2242 0006 0B       		.uleb128 0xb
 2243 0007 03       		.uleb128 0x3
 2244 0008 0E       		.uleb128 0xe
 2245 0009 1B       		.uleb128 0x1b
 2246 000a 0E       		.uleb128 0xe
 2247 000b 55       		.uleb128 0x55
 2248 000c 17       		.uleb128 0x17
 2249 000d 11       		.uleb128 0x11
 2250 000e 01       		.uleb128 0x1
 2251 000f 10       		.uleb128 0x10
 2252 0010 17       		.uleb128 0x17
 2253 0011 00       		.byte	0
 2254 0012 00       		.byte	0
 2255 0013 02       		.uleb128 0x2
 2256 0014 24       		.uleb128 0x24
 2257 0015 00       		.byte	0
 2258 0016 0B       		.uleb128 0xb
 2259 0017 0B       		.uleb128 0xb
 2260 0018 3E       		.uleb128 0x3e
 2261 0019 0B       		.uleb128 0xb
 2262 001a 03       		.uleb128 0x3
 2263 001b 0E       		.uleb128 0xe
 2264 001c 00       		.byte	0
 2265 001d 00       		.byte	0
 2266 001e 03       		.uleb128 0x3
 2267 001f 16       		.uleb128 0x16
 2268 0020 00       		.byte	0
 2269 0021 03       		.uleb128 0x3
 2270 0022 0E       		.uleb128 0xe
 2271 0023 3A       		.uleb128 0x3a
 2272 0024 0B       		.uleb128 0xb
 2273 0025 3B       		.uleb128 0x3b
 2274 0026 0B       		.uleb128 0xb
 2275 0027 49       		.uleb128 0x49
 2276 0028 13       		.uleb128 0x13
 2277 0029 00       		.byte	0
 2278 002a 00       		.byte	0
 2279 002b 04       		.uleb128 0x4
 2280 002c 24       		.uleb128 0x24
ARM GAS  /tmp/ccW8eDaQ.s 			page 41


 2281 002d 00       		.byte	0
 2282 002e 0B       		.uleb128 0xb
 2283 002f 0B       		.uleb128 0xb
 2284 0030 3E       		.uleb128 0x3e
 2285 0031 0B       		.uleb128 0xb
 2286 0032 03       		.uleb128 0x3
 2287 0033 08       		.uleb128 0x8
 2288 0034 00       		.byte	0
 2289 0035 00       		.byte	0
 2290 0036 05       		.uleb128 0x5
 2291 0037 13       		.uleb128 0x13
 2292 0038 01       		.byte	0x1
 2293 0039 03       		.uleb128 0x3
 2294 003a 0E       		.uleb128 0xe
 2295 003b 0B       		.uleb128 0xb
 2296 003c 0B       		.uleb128 0xb
 2297 003d 3A       		.uleb128 0x3a
 2298 003e 0B       		.uleb128 0xb
 2299 003f 3B       		.uleb128 0x3b
 2300 0040 0B       		.uleb128 0xb
 2301 0041 01       		.uleb128 0x1
 2302 0042 13       		.uleb128 0x13
 2303 0043 00       		.byte	0
 2304 0044 00       		.byte	0
 2305 0045 06       		.uleb128 0x6
 2306 0046 0D       		.uleb128 0xd
 2307 0047 00       		.byte	0
 2308 0048 03       		.uleb128 0x3
 2309 0049 0E       		.uleb128 0xe
 2310 004a 3A       		.uleb128 0x3a
 2311 004b 0B       		.uleb128 0xb
 2312 004c 3B       		.uleb128 0x3b
 2313 004d 0B       		.uleb128 0xb
 2314 004e 49       		.uleb128 0x49
 2315 004f 13       		.uleb128 0x13
 2316 0050 38       		.uleb128 0x38
 2317 0051 0B       		.uleb128 0xb
 2318 0052 00       		.byte	0
 2319 0053 00       		.byte	0
 2320 0054 07       		.uleb128 0x7
 2321 0055 0D       		.uleb128 0xd
 2322 0056 00       		.byte	0
 2323 0057 03       		.uleb128 0x3
 2324 0058 08       		.uleb128 0x8
 2325 0059 3A       		.uleb128 0x3a
 2326 005a 0B       		.uleb128 0xb
 2327 005b 3B       		.uleb128 0x3b
 2328 005c 0B       		.uleb128 0xb
 2329 005d 49       		.uleb128 0x49
 2330 005e 13       		.uleb128 0x13
 2331 005f 38       		.uleb128 0x38
 2332 0060 0B       		.uleb128 0xb
 2333 0061 00       		.byte	0
 2334 0062 00       		.byte	0
 2335 0063 08       		.uleb128 0x8
 2336 0064 13       		.uleb128 0x13
 2337 0065 01       		.byte	0x1
ARM GAS  /tmp/ccW8eDaQ.s 			page 42


 2338 0066 0B       		.uleb128 0xb
 2339 0067 0B       		.uleb128 0xb
 2340 0068 3A       		.uleb128 0x3a
 2341 0069 0B       		.uleb128 0xb
 2342 006a 3B       		.uleb128 0x3b
 2343 006b 0B       		.uleb128 0xb
 2344 006c 01       		.uleb128 0x1
 2345 006d 13       		.uleb128 0x13
 2346 006e 00       		.byte	0
 2347 006f 00       		.byte	0
 2348 0070 09       		.uleb128 0x9
 2349 0071 0F       		.uleb128 0xf
 2350 0072 00       		.byte	0
 2351 0073 0B       		.uleb128 0xb
 2352 0074 0B       		.uleb128 0xb
 2353 0075 49       		.uleb128 0x49
 2354 0076 13       		.uleb128 0x13
 2355 0077 00       		.byte	0
 2356 0078 00       		.byte	0
 2357 0079 0A       		.uleb128 0xa
 2358 007a 0F       		.uleb128 0xf
 2359 007b 00       		.byte	0
 2360 007c 0B       		.uleb128 0xb
 2361 007d 0B       		.uleb128 0xb
 2362 007e 00       		.byte	0
 2363 007f 00       		.byte	0
 2364 0080 0B       		.uleb128 0xb
 2365 0081 17       		.uleb128 0x17
 2366 0082 01       		.byte	0x1
 2367 0083 0B       		.uleb128 0xb
 2368 0084 0B       		.uleb128 0xb
 2369 0085 3A       		.uleb128 0x3a
 2370 0086 0B       		.uleb128 0xb
 2371 0087 3B       		.uleb128 0x3b
 2372 0088 0B       		.uleb128 0xb
 2373 0089 01       		.uleb128 0x1
 2374 008a 13       		.uleb128 0x13
 2375 008b 00       		.byte	0
 2376 008c 00       		.byte	0
 2377 008d 0C       		.uleb128 0xc
 2378 008e 0D       		.uleb128 0xd
 2379 008f 00       		.byte	0
 2380 0090 03       		.uleb128 0x3
 2381 0091 0E       		.uleb128 0xe
 2382 0092 3A       		.uleb128 0x3a
 2383 0093 0B       		.uleb128 0xb
 2384 0094 3B       		.uleb128 0x3b
 2385 0095 0B       		.uleb128 0xb
 2386 0096 49       		.uleb128 0x49
 2387 0097 13       		.uleb128 0x13
 2388 0098 00       		.byte	0
 2389 0099 00       		.byte	0
 2390 009a 0D       		.uleb128 0xd
 2391 009b 15       		.uleb128 0x15
 2392 009c 01       		.byte	0x1
 2393 009d 27       		.uleb128 0x27
 2394 009e 19       		.uleb128 0x19
ARM GAS  /tmp/ccW8eDaQ.s 			page 43


 2395 009f 49       		.uleb128 0x49
 2396 00a0 13       		.uleb128 0x13
 2397 00a1 01       		.uleb128 0x1
 2398 00a2 13       		.uleb128 0x13
 2399 00a3 00       		.byte	0
 2400 00a4 00       		.byte	0
 2401 00a5 0E       		.uleb128 0xe
 2402 00a6 05       		.uleb128 0x5
 2403 00a7 00       		.byte	0
 2404 00a8 49       		.uleb128 0x49
 2405 00a9 13       		.uleb128 0x13
 2406 00aa 00       		.byte	0
 2407 00ab 00       		.byte	0
 2408 00ac 0F       		.uleb128 0xf
 2409 00ad 15       		.uleb128 0x15
 2410 00ae 01       		.byte	0x1
 2411 00af 27       		.uleb128 0x27
 2412 00b0 19       		.uleb128 0x19
 2413 00b1 01       		.uleb128 0x1
 2414 00b2 13       		.uleb128 0x13
 2415 00b3 00       		.byte	0
 2416 00b4 00       		.byte	0
 2417 00b5 10       		.uleb128 0x10
 2418 00b6 26       		.uleb128 0x26
 2419 00b7 00       		.byte	0
 2420 00b8 49       		.uleb128 0x49
 2421 00b9 13       		.uleb128 0x13
 2422 00ba 00       		.byte	0
 2423 00bb 00       		.byte	0
 2424 00bc 11       		.uleb128 0x11
 2425 00bd 04       		.uleb128 0x4
 2426 00be 01       		.byte	0x1
 2427 00bf 0B       		.uleb128 0xb
 2428 00c0 0B       		.uleb128 0xb
 2429 00c1 3A       		.uleb128 0x3a
 2430 00c2 0B       		.uleb128 0xb
 2431 00c3 3B       		.uleb128 0x3b
 2432 00c4 0B       		.uleb128 0xb
 2433 00c5 01       		.uleb128 0x1
 2434 00c6 13       		.uleb128 0x13
 2435 00c7 00       		.byte	0
 2436 00c8 00       		.byte	0
 2437 00c9 12       		.uleb128 0x12
 2438 00ca 28       		.uleb128 0x28
 2439 00cb 00       		.byte	0
 2440 00cc 03       		.uleb128 0x3
 2441 00cd 0E       		.uleb128 0xe
 2442 00ce 1C       		.uleb128 0x1c
 2443 00cf 0D       		.uleb128 0xd
 2444 00d0 00       		.byte	0
 2445 00d1 00       		.byte	0
 2446 00d2 13       		.uleb128 0x13
 2447 00d3 01       		.uleb128 0x1
 2448 00d4 01       		.byte	0x1
 2449 00d5 49       		.uleb128 0x49
 2450 00d6 13       		.uleb128 0x13
 2451 00d7 01       		.uleb128 0x1
ARM GAS  /tmp/ccW8eDaQ.s 			page 44


 2452 00d8 13       		.uleb128 0x13
 2453 00d9 00       		.byte	0
 2454 00da 00       		.byte	0
 2455 00db 14       		.uleb128 0x14
 2456 00dc 21       		.uleb128 0x21
 2457 00dd 00       		.byte	0
 2458 00de 49       		.uleb128 0x49
 2459 00df 13       		.uleb128 0x13
 2460 00e0 2F       		.uleb128 0x2f
 2461 00e1 0B       		.uleb128 0xb
 2462 00e2 00       		.byte	0
 2463 00e3 00       		.byte	0
 2464 00e4 15       		.uleb128 0x15
 2465 00e5 2E       		.uleb128 0x2e
 2466 00e6 01       		.byte	0x1
 2467 00e7 03       		.uleb128 0x3
 2468 00e8 0E       		.uleb128 0xe
 2469 00e9 3A       		.uleb128 0x3a
 2470 00ea 0B       		.uleb128 0xb
 2471 00eb 3B       		.uleb128 0x3b
 2472 00ec 0B       		.uleb128 0xb
 2473 00ed 27       		.uleb128 0x27
 2474 00ee 19       		.uleb128 0x19
 2475 00ef 49       		.uleb128 0x49
 2476 00f0 13       		.uleb128 0x13
 2477 00f1 11       		.uleb128 0x11
 2478 00f2 01       		.uleb128 0x1
 2479 00f3 12       		.uleb128 0x12
 2480 00f4 06       		.uleb128 0x6
 2481 00f5 40       		.uleb128 0x40
 2482 00f6 18       		.uleb128 0x18
 2483 00f7 9742     		.uleb128 0x2117
 2484 00f9 19       		.uleb128 0x19
 2485 00fa 01       		.uleb128 0x1
 2486 00fb 13       		.uleb128 0x13
 2487 00fc 00       		.byte	0
 2488 00fd 00       		.byte	0
 2489 00fe 16       		.uleb128 0x16
 2490 00ff 05       		.uleb128 0x5
 2491 0100 00       		.byte	0
 2492 0101 03       		.uleb128 0x3
 2493 0102 08       		.uleb128 0x8
 2494 0103 3A       		.uleb128 0x3a
 2495 0104 0B       		.uleb128 0xb
 2496 0105 3B       		.uleb128 0x3b
 2497 0106 0B       		.uleb128 0xb
 2498 0107 49       		.uleb128 0x49
 2499 0108 13       		.uleb128 0x13
 2500 0109 02       		.uleb128 0x2
 2501 010a 17       		.uleb128 0x17
 2502 010b 00       		.byte	0
 2503 010c 00       		.byte	0
 2504 010d 17       		.uleb128 0x17
 2505 010e 05       		.uleb128 0x5
 2506 010f 00       		.byte	0
 2507 0110 03       		.uleb128 0x3
 2508 0111 0E       		.uleb128 0xe
ARM GAS  /tmp/ccW8eDaQ.s 			page 45


 2509 0112 3A       		.uleb128 0x3a
 2510 0113 0B       		.uleb128 0xb
 2511 0114 3B       		.uleb128 0x3b
 2512 0115 0B       		.uleb128 0xb
 2513 0116 49       		.uleb128 0x49
 2514 0117 13       		.uleb128 0x13
 2515 0118 02       		.uleb128 0x2
 2516 0119 17       		.uleb128 0x17
 2517 011a 00       		.byte	0
 2518 011b 00       		.byte	0
 2519 011c 18       		.uleb128 0x18
 2520 011d 898201   		.uleb128 0x4109
 2521 0120 01       		.byte	0x1
 2522 0121 11       		.uleb128 0x11
 2523 0122 01       		.uleb128 0x1
 2524 0123 9542     		.uleb128 0x2115
 2525 0125 19       		.uleb128 0x19
 2526 0126 31       		.uleb128 0x31
 2527 0127 13       		.uleb128 0x13
 2528 0128 00       		.byte	0
 2529 0129 00       		.byte	0
 2530 012a 19       		.uleb128 0x19
 2531 012b 8A8201   		.uleb128 0x410a
 2532 012e 00       		.byte	0
 2533 012f 02       		.uleb128 0x2
 2534 0130 18       		.uleb128 0x18
 2535 0131 9142     		.uleb128 0x2111
 2536 0133 18       		.uleb128 0x18
 2537 0134 00       		.byte	0
 2538 0135 00       		.byte	0
 2539 0136 1A       		.uleb128 0x1a
 2540 0137 2E       		.uleb128 0x2e
 2541 0138 01       		.byte	0x1
 2542 0139 03       		.uleb128 0x3
 2543 013a 08       		.uleb128 0x8
 2544 013b 3A       		.uleb128 0x3a
 2545 013c 0B       		.uleb128 0xb
 2546 013d 3B       		.uleb128 0x3b
 2547 013e 0B       		.uleb128 0xb
 2548 013f 27       		.uleb128 0x27
 2549 0140 19       		.uleb128 0x19
 2550 0141 49       		.uleb128 0x49
 2551 0142 13       		.uleb128 0x13
 2552 0143 11       		.uleb128 0x11
 2553 0144 01       		.uleb128 0x1
 2554 0145 12       		.uleb128 0x12
 2555 0146 06       		.uleb128 0x6
 2556 0147 40       		.uleb128 0x40
 2557 0148 18       		.uleb128 0x18
 2558 0149 9742     		.uleb128 0x2117
 2559 014b 19       		.uleb128 0x19
 2560 014c 01       		.uleb128 0x1
 2561 014d 13       		.uleb128 0x13
 2562 014e 00       		.byte	0
 2563 014f 00       		.byte	0
 2564 0150 1B       		.uleb128 0x1b
 2565 0151 2E       		.uleb128 0x2e
ARM GAS  /tmp/ccW8eDaQ.s 			page 46


 2566 0152 01       		.byte	0x1
 2567 0153 3F       		.uleb128 0x3f
 2568 0154 19       		.uleb128 0x19
 2569 0155 03       		.uleb128 0x3
 2570 0156 0E       		.uleb128 0xe
 2571 0157 3A       		.uleb128 0x3a
 2572 0158 0B       		.uleb128 0xb
 2573 0159 3B       		.uleb128 0x3b
 2574 015a 0B       		.uleb128 0xb
 2575 015b 27       		.uleb128 0x27
 2576 015c 19       		.uleb128 0x19
 2577 015d 11       		.uleb128 0x11
 2578 015e 01       		.uleb128 0x1
 2579 015f 12       		.uleb128 0x12
 2580 0160 06       		.uleb128 0x6
 2581 0161 40       		.uleb128 0x40
 2582 0162 18       		.uleb128 0x18
 2583 0163 9742     		.uleb128 0x2117
 2584 0165 19       		.uleb128 0x19
 2585 0166 01       		.uleb128 0x1
 2586 0167 13       		.uleb128 0x13
 2587 0168 00       		.byte	0
 2588 0169 00       		.byte	0
 2589 016a 1C       		.uleb128 0x1c
 2590 016b 898201   		.uleb128 0x4109
 2591 016e 00       		.byte	0
 2592 016f 11       		.uleb128 0x11
 2593 0170 01       		.uleb128 0x1
 2594 0171 9542     		.uleb128 0x2115
 2595 0173 19       		.uleb128 0x19
 2596 0174 31       		.uleb128 0x31
 2597 0175 13       		.uleb128 0x13
 2598 0176 00       		.byte	0
 2599 0177 00       		.byte	0
 2600 0178 1D       		.uleb128 0x1d
 2601 0179 898201   		.uleb128 0x4109
 2602 017c 01       		.byte	0x1
 2603 017d 11       		.uleb128 0x11
 2604 017e 01       		.uleb128 0x1
 2605 017f 31       		.uleb128 0x31
 2606 0180 13       		.uleb128 0x13
 2607 0181 01       		.uleb128 0x1
 2608 0182 13       		.uleb128 0x13
 2609 0183 00       		.byte	0
 2610 0184 00       		.byte	0
 2611 0185 1E       		.uleb128 0x1e
 2612 0186 898201   		.uleb128 0x4109
 2613 0189 01       		.byte	0x1
 2614 018a 11       		.uleb128 0x11
 2615 018b 01       		.uleb128 0x1
 2616 018c 31       		.uleb128 0x31
 2617 018d 13       		.uleb128 0x13
 2618 018e 00       		.byte	0
 2619 018f 00       		.byte	0
 2620 0190 1F       		.uleb128 0x1f
 2621 0191 898201   		.uleb128 0x4109
 2622 0194 00       		.byte	0
ARM GAS  /tmp/ccW8eDaQ.s 			page 47


 2623 0195 11       		.uleb128 0x11
 2624 0196 01       		.uleb128 0x1
 2625 0197 31       		.uleb128 0x31
 2626 0198 13       		.uleb128 0x13
 2627 0199 00       		.byte	0
 2628 019a 00       		.byte	0
 2629 019b 20       		.uleb128 0x20
 2630 019c 898201   		.uleb128 0x4109
 2631 019f 01       		.byte	0x1
 2632 01a0 11       		.uleb128 0x11
 2633 01a1 01       		.uleb128 0x1
 2634 01a2 9542     		.uleb128 0x2115
 2635 01a4 19       		.uleb128 0x19
 2636 01a5 31       		.uleb128 0x31
 2637 01a6 13       		.uleb128 0x13
 2638 01a7 01       		.uleb128 0x1
 2639 01a8 13       		.uleb128 0x13
 2640 01a9 00       		.byte	0
 2641 01aa 00       		.byte	0
 2642 01ab 21       		.uleb128 0x21
 2643 01ac 2E       		.uleb128 0x2e
 2644 01ad 01       		.byte	0x1
 2645 01ae 3F       		.uleb128 0x3f
 2646 01af 19       		.uleb128 0x19
 2647 01b0 03       		.uleb128 0x3
 2648 01b1 0E       		.uleb128 0xe
 2649 01b2 3A       		.uleb128 0x3a
 2650 01b3 0B       		.uleb128 0xb
 2651 01b4 3B       		.uleb128 0x3b
 2652 01b5 0B       		.uleb128 0xb
 2653 01b6 27       		.uleb128 0x27
 2654 01b7 19       		.uleb128 0x19
 2655 01b8 49       		.uleb128 0x49
 2656 01b9 13       		.uleb128 0x13
 2657 01ba 11       		.uleb128 0x11
 2658 01bb 01       		.uleb128 0x1
 2659 01bc 12       		.uleb128 0x12
 2660 01bd 06       		.uleb128 0x6
 2661 01be 40       		.uleb128 0x40
 2662 01bf 18       		.uleb128 0x18
 2663 01c0 9742     		.uleb128 0x2117
 2664 01c2 19       		.uleb128 0x19
 2665 01c3 01       		.uleb128 0x1
 2666 01c4 13       		.uleb128 0x13
 2667 01c5 00       		.byte	0
 2668 01c6 00       		.byte	0
 2669 01c7 22       		.uleb128 0x22
 2670 01c8 34       		.uleb128 0x34
 2671 01c9 00       		.byte	0
 2672 01ca 03       		.uleb128 0x3
 2673 01cb 08       		.uleb128 0x8
 2674 01cc 3A       		.uleb128 0x3a
 2675 01cd 0B       		.uleb128 0xb
 2676 01ce 3B       		.uleb128 0x3b
 2677 01cf 0B       		.uleb128 0xb
 2678 01d0 49       		.uleb128 0x49
 2679 01d1 13       		.uleb128 0x13
ARM GAS  /tmp/ccW8eDaQ.s 			page 48


 2680 01d2 02       		.uleb128 0x2
 2681 01d3 18       		.uleb128 0x18
 2682 01d4 00       		.byte	0
 2683 01d5 00       		.byte	0
 2684 01d6 23       		.uleb128 0x23
 2685 01d7 2E       		.uleb128 0x2e
 2686 01d8 01       		.byte	0x1
 2687 01d9 3F       		.uleb128 0x3f
 2688 01da 19       		.uleb128 0x19
 2689 01db 03       		.uleb128 0x3
 2690 01dc 0E       		.uleb128 0xe
 2691 01dd 3A       		.uleb128 0x3a
 2692 01de 0B       		.uleb128 0xb
 2693 01df 3B       		.uleb128 0x3b
 2694 01e0 05       		.uleb128 0x5
 2695 01e1 27       		.uleb128 0x27
 2696 01e2 19       		.uleb128 0x19
 2697 01e3 49       		.uleb128 0x49
 2698 01e4 13       		.uleb128 0x13
 2699 01e5 3C       		.uleb128 0x3c
 2700 01e6 19       		.uleb128 0x19
 2701 01e7 01       		.uleb128 0x1
 2702 01e8 13       		.uleb128 0x13
 2703 01e9 00       		.byte	0
 2704 01ea 00       		.byte	0
 2705 01eb 24       		.uleb128 0x24
 2706 01ec 2E       		.uleb128 0x2e
 2707 01ed 00       		.byte	0
 2708 01ee 3F       		.uleb128 0x3f
 2709 01ef 19       		.uleb128 0x19
 2710 01f0 03       		.uleb128 0x3
 2711 01f1 0E       		.uleb128 0xe
 2712 01f2 3A       		.uleb128 0x3a
 2713 01f3 0B       		.uleb128 0xb
 2714 01f4 3B       		.uleb128 0x3b
 2715 01f5 0B       		.uleb128 0xb
 2716 01f6 27       		.uleb128 0x27
 2717 01f7 19       		.uleb128 0x19
 2718 01f8 3C       		.uleb128 0x3c
 2719 01f9 19       		.uleb128 0x19
 2720 01fa 00       		.byte	0
 2721 01fb 00       		.byte	0
 2722 01fc 25       		.uleb128 0x25
 2723 01fd 2E       		.uleb128 0x2e
 2724 01fe 01       		.byte	0x1
 2725 01ff 3F       		.uleb128 0x3f
 2726 0200 19       		.uleb128 0x19
 2727 0201 03       		.uleb128 0x3
 2728 0202 0E       		.uleb128 0xe
 2729 0203 3A       		.uleb128 0x3a
 2730 0204 0B       		.uleb128 0xb
 2731 0205 3B       		.uleb128 0x3b
 2732 0206 05       		.uleb128 0x5
 2733 0207 27       		.uleb128 0x27
 2734 0208 19       		.uleb128 0x19
 2735 0209 3C       		.uleb128 0x3c
 2736 020a 19       		.uleb128 0x19
ARM GAS  /tmp/ccW8eDaQ.s 			page 49


 2737 020b 01       		.uleb128 0x1
 2738 020c 13       		.uleb128 0x13
 2739 020d 00       		.byte	0
 2740 020e 00       		.byte	0
 2741 020f 26       		.uleb128 0x26
 2742 0210 2E       		.uleb128 0x2e
 2743 0211 01       		.byte	0x1
 2744 0212 3F       		.uleb128 0x3f
 2745 0213 19       		.uleb128 0x19
 2746 0214 03       		.uleb128 0x3
 2747 0215 0E       		.uleb128 0xe
 2748 0216 3A       		.uleb128 0x3a
 2749 0217 0B       		.uleb128 0xb
 2750 0218 3B       		.uleb128 0x3b
 2751 0219 0B       		.uleb128 0xb
 2752 021a 27       		.uleb128 0x27
 2753 021b 19       		.uleb128 0x19
 2754 021c 3C       		.uleb128 0x3c
 2755 021d 19       		.uleb128 0x19
 2756 021e 01       		.uleb128 0x1
 2757 021f 13       		.uleb128 0x13
 2758 0220 00       		.byte	0
 2759 0221 00       		.byte	0
 2760 0222 27       		.uleb128 0x27
 2761 0223 2E       		.uleb128 0x2e
 2762 0224 01       		.byte	0x1
 2763 0225 3F       		.uleb128 0x3f
 2764 0226 19       		.uleb128 0x19
 2765 0227 03       		.uleb128 0x3
 2766 0228 0E       		.uleb128 0xe
 2767 0229 3A       		.uleb128 0x3a
 2768 022a 0B       		.uleb128 0xb
 2769 022b 3B       		.uleb128 0x3b
 2770 022c 05       		.uleb128 0x5
 2771 022d 27       		.uleb128 0x27
 2772 022e 19       		.uleb128 0x19
 2773 022f 49       		.uleb128 0x49
 2774 0230 13       		.uleb128 0x13
 2775 0231 3C       		.uleb128 0x3c
 2776 0232 19       		.uleb128 0x19
 2777 0233 00       		.byte	0
 2778 0234 00       		.byte	0
 2779 0235 00       		.byte	0
 2780              		.section	.debug_loc,"",%progbits
 2781              	.Ldebug_loc0:
 2782              	.LLST0:
 2783 0000 00000000 		.4byte	.LVL0
 2784 0004 04000000 		.4byte	.LVL1
 2785 0008 0100     		.2byte	0x1
 2786 000a 50       		.byte	0x50
 2787 000b 04000000 		.4byte	.LVL1
 2788 000f 07000000 		.4byte	.LVL2-1
 2789 0013 0300     		.2byte	0x3
 2790 0015 70       		.byte	0x70
 2791 0016 74       		.sleb128 -12
 2792 0017 9F       		.byte	0x9f
 2793 0018 07000000 		.4byte	.LVL2-1
ARM GAS  /tmp/ccW8eDaQ.s 			page 50


 2794 001c 08000000 		.4byte	.LFE14
 2795 0020 0400     		.2byte	0x4
 2796 0022 F3       		.byte	0xf3
 2797 0023 01       		.uleb128 0x1
 2798 0024 50       		.byte	0x50
 2799 0025 9F       		.byte	0x9f
 2800 0026 00000000 		.4byte	0
 2801 002a 00000000 		.4byte	0
 2802              	.LLST1:
 2803 002e 00000000 		.4byte	.LVL0
 2804 0032 07000000 		.4byte	.LVL2-1
 2805 0036 0100     		.2byte	0x1
 2806 0038 51       		.byte	0x51
 2807 0039 07000000 		.4byte	.LVL2-1
 2808 003d 08000000 		.4byte	.LFE14
 2809 0041 0400     		.2byte	0x4
 2810 0043 F3       		.byte	0xf3
 2811 0044 01       		.uleb128 0x1
 2812 0045 51       		.byte	0x51
 2813 0046 9F       		.byte	0x9f
 2814 0047 00000000 		.4byte	0
 2815 004b 00000000 		.4byte	0
 2816              	.LLST2:
 2817 004f 00000000 		.4byte	.LVL0
 2818 0053 07000000 		.4byte	.LVL2-1
 2819 0057 0100     		.2byte	0x1
 2820 0059 52       		.byte	0x52
 2821 005a 07000000 		.4byte	.LVL2-1
 2822 005e 08000000 		.4byte	.LFE14
 2823 0062 0400     		.2byte	0x4
 2824 0064 F3       		.byte	0xf3
 2825 0065 01       		.uleb128 0x1
 2826 0066 52       		.byte	0x52
 2827 0067 9F       		.byte	0x9f
 2828 0068 00000000 		.4byte	0
 2829 006c 00000000 		.4byte	0
 2830              	.LLST3:
 2831 0070 00000000 		.4byte	.LVL0
 2832 0074 07000000 		.4byte	.LVL2-1
 2833 0078 0100     		.2byte	0x1
 2834 007a 53       		.byte	0x53
 2835 007b 07000000 		.4byte	.LVL2-1
 2836 007f 08000000 		.4byte	.LFE14
 2837 0083 0400     		.2byte	0x4
 2838 0085 F3       		.byte	0xf3
 2839 0086 01       		.uleb128 0x1
 2840 0087 53       		.byte	0x53
 2841 0088 9F       		.byte	0x9f
 2842 0089 00000000 		.4byte	0
 2843 008d 00000000 		.4byte	0
 2844              	.LLST4:
 2845 0091 00000000 		.4byte	.LVL3
 2846 0095 04000000 		.4byte	.LVL4
 2847 0099 0100     		.2byte	0x1
 2848 009b 50       		.byte	0x50
 2849 009c 04000000 		.4byte	.LVL4
 2850 00a0 0B000000 		.4byte	.LVL5-1
ARM GAS  /tmp/ccW8eDaQ.s 			page 51


 2851 00a4 0300     		.2byte	0x3
 2852 00a6 70       		.byte	0x70
 2853 00a7 74       		.sleb128 -12
 2854 00a8 9F       		.byte	0x9f
 2855 00a9 0B000000 		.4byte	.LVL5-1
 2856 00ad 0C000000 		.4byte	.LFE8
 2857 00b1 0400     		.2byte	0x4
 2858 00b3 F3       		.byte	0xf3
 2859 00b4 01       		.uleb128 0x1
 2860 00b5 50       		.byte	0x50
 2861 00b6 9F       		.byte	0x9f
 2862 00b7 00000000 		.4byte	0
 2863 00bb 00000000 		.4byte	0
 2864              	.LLST5:
 2865 00bf 00000000 		.4byte	.LVL3
 2866 00c3 0B000000 		.4byte	.LVL5-1
 2867 00c7 0100     		.2byte	0x1
 2868 00c9 51       		.byte	0x51
 2869 00ca 0B000000 		.4byte	.LVL5-1
 2870 00ce 0C000000 		.4byte	.LFE8
 2871 00d2 0400     		.2byte	0x4
 2872 00d4 F3       		.byte	0xf3
 2873 00d5 01       		.uleb128 0x1
 2874 00d6 51       		.byte	0x51
 2875 00d7 9F       		.byte	0x9f
 2876 00d8 00000000 		.4byte	0
 2877 00dc 00000000 		.4byte	0
 2878              	.LLST6:
 2879 00e0 00000000 		.4byte	.LVL3
 2880 00e4 0B000000 		.4byte	.LVL5-1
 2881 00e8 0100     		.2byte	0x1
 2882 00ea 52       		.byte	0x52
 2883 00eb 0B000000 		.4byte	.LVL5-1
 2884 00ef 0C000000 		.4byte	.LFE8
 2885 00f3 0400     		.2byte	0x4
 2886 00f5 F3       		.byte	0xf3
 2887 00f6 01       		.uleb128 0x1
 2888 00f7 52       		.byte	0x52
 2889 00f8 9F       		.byte	0x9f
 2890 00f9 00000000 		.4byte	0
 2891 00fd 00000000 		.4byte	0
 2892              	.LLST7:
 2893 0101 00000000 		.4byte	.LVL6
 2894 0105 04000000 		.4byte	.LVL7
 2895 0109 0100     		.2byte	0x1
 2896 010b 50       		.byte	0x50
 2897 010c 04000000 		.4byte	.LVL7
 2898 0110 07000000 		.4byte	.LVL8-1
 2899 0114 0300     		.2byte	0x3
 2900 0116 70       		.byte	0x70
 2901 0117 50       		.sleb128 -48
 2902 0118 9F       		.byte	0x9f
 2903 0119 07000000 		.4byte	.LVL8-1
 2904 011d 08000000 		.4byte	.LFE13
 2905 0121 0400     		.2byte	0x4
 2906 0123 F3       		.byte	0xf3
 2907 0124 01       		.uleb128 0x1
ARM GAS  /tmp/ccW8eDaQ.s 			page 52


 2908 0125 50       		.byte	0x50
 2909 0126 9F       		.byte	0x9f
 2910 0127 00000000 		.4byte	0
 2911 012b 00000000 		.4byte	0
 2912              	.LLST8:
 2913 012f 00000000 		.4byte	.LVL6
 2914 0133 07000000 		.4byte	.LVL8-1
 2915 0137 0100     		.2byte	0x1
 2916 0139 51       		.byte	0x51
 2917 013a 07000000 		.4byte	.LVL8-1
 2918 013e 08000000 		.4byte	.LFE13
 2919 0142 0400     		.2byte	0x4
 2920 0144 F3       		.byte	0xf3
 2921 0145 01       		.uleb128 0x1
 2922 0146 51       		.byte	0x51
 2923 0147 9F       		.byte	0x9f
 2924 0148 00000000 		.4byte	0
 2925 014c 00000000 		.4byte	0
 2926              	.LLST9:
 2927 0150 00000000 		.4byte	.LVL6
 2928 0154 07000000 		.4byte	.LVL8-1
 2929 0158 0100     		.2byte	0x1
 2930 015a 52       		.byte	0x52
 2931 015b 07000000 		.4byte	.LVL8-1
 2932 015f 08000000 		.4byte	.LFE13
 2933 0163 0400     		.2byte	0x4
 2934 0165 F3       		.byte	0xf3
 2935 0166 01       		.uleb128 0x1
 2936 0167 52       		.byte	0x52
 2937 0168 9F       		.byte	0x9f
 2938 0169 00000000 		.4byte	0
 2939 016d 00000000 		.4byte	0
 2940              	.LLST10:
 2941 0171 00000000 		.4byte	.LVL6
 2942 0175 07000000 		.4byte	.LVL8-1
 2943 0179 0100     		.2byte	0x1
 2944 017b 53       		.byte	0x53
 2945 017c 07000000 		.4byte	.LVL8-1
 2946 0180 08000000 		.4byte	.LFE13
 2947 0184 0400     		.2byte	0x4
 2948 0186 F3       		.byte	0xf3
 2949 0187 01       		.uleb128 0x1
 2950 0188 53       		.byte	0x53
 2951 0189 9F       		.byte	0x9f
 2952 018a 00000000 		.4byte	0
 2953 018e 00000000 		.4byte	0
 2954              	.LLST11:
 2955 0192 00000000 		.4byte	.LVL9
 2956 0196 04000000 		.4byte	.LVL10
 2957 019a 0100     		.2byte	0x1
 2958 019c 50       		.byte	0x50
 2959 019d 04000000 		.4byte	.LVL10
 2960 01a1 0B000000 		.4byte	.LVL11-1
 2961 01a5 0300     		.2byte	0x3
 2962 01a7 70       		.byte	0x70
 2963 01a8 50       		.sleb128 -48
 2964 01a9 9F       		.byte	0x9f
ARM GAS  /tmp/ccW8eDaQ.s 			page 53


 2965 01aa 0B000000 		.4byte	.LVL11-1
 2966 01ae 0C000000 		.4byte	.LFE7
 2967 01b2 0400     		.2byte	0x4
 2968 01b4 F3       		.byte	0xf3
 2969 01b5 01       		.uleb128 0x1
 2970 01b6 50       		.byte	0x50
 2971 01b7 9F       		.byte	0x9f
 2972 01b8 00000000 		.4byte	0
 2973 01bc 00000000 		.4byte	0
 2974              	.LLST12:
 2975 01c0 00000000 		.4byte	.LVL9
 2976 01c4 0B000000 		.4byte	.LVL11-1
 2977 01c8 0100     		.2byte	0x1
 2978 01ca 51       		.byte	0x51
 2979 01cb 0B000000 		.4byte	.LVL11-1
 2980 01cf 0C000000 		.4byte	.LFE7
 2981 01d3 0400     		.2byte	0x4
 2982 01d5 F3       		.byte	0xf3
 2983 01d6 01       		.uleb128 0x1
 2984 01d7 51       		.byte	0x51
 2985 01d8 9F       		.byte	0x9f
 2986 01d9 00000000 		.4byte	0
 2987 01dd 00000000 		.4byte	0
 2988              	.LLST13:
 2989 01e1 00000000 		.4byte	.LVL9
 2990 01e5 0B000000 		.4byte	.LVL11-1
 2991 01e9 0100     		.2byte	0x1
 2992 01eb 52       		.byte	0x52
 2993 01ec 0B000000 		.4byte	.LVL11-1
 2994 01f0 0C000000 		.4byte	.LFE7
 2995 01f4 0400     		.2byte	0x4
 2996 01f6 F3       		.byte	0xf3
 2997 01f7 01       		.uleb128 0x1
 2998 01f8 52       		.byte	0x52
 2999 01f9 9F       		.byte	0x9f
 3000 01fa 00000000 		.4byte	0
 3001 01fe 00000000 		.4byte	0
 3002              	.LLST14:
 3003 0202 00000000 		.4byte	.LVL12
 3004 0206 04000000 		.4byte	.LVL13
 3005 020a 0100     		.2byte	0x1
 3006 020c 50       		.byte	0x50
 3007 020d 04000000 		.4byte	.LVL13
 3008 0211 07000000 		.4byte	.LVL14-1
 3009 0215 0300     		.2byte	0x3
 3010 0217 70       		.byte	0x70
 3011 0218 74       		.sleb128 -12
 3012 0219 9F       		.byte	0x9f
 3013 021a 07000000 		.4byte	.LVL14-1
 3014 021e 08000000 		.4byte	.LFE12
 3015 0222 0400     		.2byte	0x4
 3016 0224 F3       		.byte	0xf3
 3017 0225 01       		.uleb128 0x1
 3018 0226 50       		.byte	0x50
 3019 0227 9F       		.byte	0x9f
 3020 0228 00000000 		.4byte	0
 3021 022c 00000000 		.4byte	0
ARM GAS  /tmp/ccW8eDaQ.s 			page 54


 3022              	.LLST15:
 3023 0230 00000000 		.4byte	.LVL12
 3024 0234 07000000 		.4byte	.LVL14-1
 3025 0238 0100     		.2byte	0x1
 3026 023a 51       		.byte	0x51
 3027 023b 07000000 		.4byte	.LVL14-1
 3028 023f 08000000 		.4byte	.LFE12
 3029 0243 0400     		.2byte	0x4
 3030 0245 F3       		.byte	0xf3
 3031 0246 01       		.uleb128 0x1
 3032 0247 51       		.byte	0x51
 3033 0248 9F       		.byte	0x9f
 3034 0249 00000000 		.4byte	0
 3035 024d 00000000 		.4byte	0
 3036              	.LLST16:
 3037 0251 00000000 		.4byte	.LVL15
 3038 0255 04000000 		.4byte	.LVL16
 3039 0259 0100     		.2byte	0x1
 3040 025b 50       		.byte	0x50
 3041 025c 04000000 		.4byte	.LVL16
 3042 0260 0B000000 		.4byte	.LVL17-1
 3043 0264 0300     		.2byte	0x3
 3044 0266 70       		.byte	0x70
 3045 0267 74       		.sleb128 -12
 3046 0268 9F       		.byte	0x9f
 3047 0269 0B000000 		.4byte	.LVL17-1
 3048 026d 0C000000 		.4byte	.LFE10
 3049 0271 0400     		.2byte	0x4
 3050 0273 F3       		.byte	0xf3
 3051 0274 01       		.uleb128 0x1
 3052 0275 50       		.byte	0x50
 3053 0276 9F       		.byte	0x9f
 3054 0277 00000000 		.4byte	0
 3055 027b 00000000 		.4byte	0
 3056              	.LLST17:
 3057 027f 00000000 		.4byte	.LVL18
 3058 0283 04000000 		.4byte	.LVL19
 3059 0287 0100     		.2byte	0x1
 3060 0289 50       		.byte	0x50
 3061 028a 04000000 		.4byte	.LVL19
 3062 028e 0B000000 		.4byte	.LVL20-1
 3063 0292 0300     		.2byte	0x3
 3064 0294 70       		.byte	0x70
 3065 0295 50       		.sleb128 -48
 3066 0296 9F       		.byte	0x9f
 3067 0297 0B000000 		.4byte	.LVL20-1
 3068 029b 0C000000 		.4byte	.LFE11
 3069 029f 0400     		.2byte	0x4
 3070 02a1 F3       		.byte	0xf3
 3071 02a2 01       		.uleb128 0x1
 3072 02a3 50       		.byte	0x50
 3073 02a4 9F       		.byte	0x9f
 3074 02a5 00000000 		.4byte	0
 3075 02a9 00000000 		.4byte	0
 3076              	.LLST18:
 3077 02ad 00000000 		.4byte	.LVL18
 3078 02b1 0B000000 		.4byte	.LVL20-1
ARM GAS  /tmp/ccW8eDaQ.s 			page 55


 3079 02b5 0100     		.2byte	0x1
 3080 02b7 51       		.byte	0x51
 3081 02b8 0B000000 		.4byte	.LVL20-1
 3082 02bc 0C000000 		.4byte	.LFE11
 3083 02c0 0400     		.2byte	0x4
 3084 02c2 F3       		.byte	0xf3
 3085 02c3 01       		.uleb128 0x1
 3086 02c4 51       		.byte	0x51
 3087 02c5 9F       		.byte	0x9f
 3088 02c6 00000000 		.4byte	0
 3089 02ca 00000000 		.4byte	0
 3090              	.LLST19:
 3091 02ce 00000000 		.4byte	.LVL18
 3092 02d2 0B000000 		.4byte	.LVL20-1
 3093 02d6 0100     		.2byte	0x1
 3094 02d8 52       		.byte	0x52
 3095 02d9 0B000000 		.4byte	.LVL20-1
 3096 02dd 0C000000 		.4byte	.LFE11
 3097 02e1 0400     		.2byte	0x4
 3098 02e3 F3       		.byte	0xf3
 3099 02e4 01       		.uleb128 0x1
 3100 02e5 52       		.byte	0x52
 3101 02e6 9F       		.byte	0x9f
 3102 02e7 00000000 		.4byte	0
 3103 02eb 00000000 		.4byte	0
 3104              	.LLST20:
 3105 02ef 00000000 		.4byte	.LVL21
 3106 02f3 04000000 		.4byte	.LVL22
 3107 02f7 0100     		.2byte	0x1
 3108 02f9 50       		.byte	0x50
 3109 02fa 04000000 		.4byte	.LVL22
 3110 02fe 0F000000 		.4byte	.LVL23-1
 3111 0302 0300     		.2byte	0x3
 3112 0304 70       		.byte	0x70
 3113 0305 50       		.sleb128 -48
 3114 0306 9F       		.byte	0x9f
 3115 0307 0F000000 		.4byte	.LVL23-1
 3116 030b 10000000 		.4byte	.LFE9
 3117 030f 0400     		.2byte	0x4
 3118 0311 F3       		.byte	0xf3
 3119 0312 01       		.uleb128 0x1
 3120 0313 50       		.byte	0x50
 3121 0314 9F       		.byte	0x9f
 3122 0315 00000000 		.4byte	0
 3123 0319 00000000 		.4byte	0
 3124              	.LLST21:
 3125 031d 00000000 		.4byte	.LVL21
 3126 0321 0F000000 		.4byte	.LVL23-1
 3127 0325 0100     		.2byte	0x1
 3128 0327 51       		.byte	0x51
 3129 0328 0F000000 		.4byte	.LVL23-1
 3130 032c 10000000 		.4byte	.LFE9
 3131 0330 0400     		.2byte	0x4
 3132 0332 F3       		.byte	0xf3
 3133 0333 01       		.uleb128 0x1
 3134 0334 51       		.byte	0x51
 3135 0335 9F       		.byte	0x9f
ARM GAS  /tmp/ccW8eDaQ.s 			page 56


 3136 0336 00000000 		.4byte	0
 3137 033a 00000000 		.4byte	0
 3138              	.LLST22:
 3139 033e 00000000 		.4byte	.LVL25
 3140 0342 20000000 		.4byte	.LVL27
 3141 0346 0100     		.2byte	0x1
 3142 0348 50       		.byte	0x50
 3143 0349 20000000 		.4byte	.LVL27
 3144 034d 58000000 		.4byte	.LVL31
 3145 0351 0100     		.2byte	0x1
 3146 0353 54       		.byte	0x54
 3147 0354 58000000 		.4byte	.LVL31
 3148 0358 5C000000 		.4byte	.LFE16
 3149 035c 0400     		.2byte	0x4
 3150 035e F3       		.byte	0xf3
 3151 035f 01       		.uleb128 0x1
 3152 0360 50       		.byte	0x50
 3153 0361 9F       		.byte	0x9f
 3154 0362 00000000 		.4byte	0
 3155 0366 00000000 		.4byte	0
 3156              	.LLST23:
 3157 036a 00000000 		.4byte	.LVL25
 3158 036e 30000000 		.4byte	.LVL28
 3159 0372 0100     		.2byte	0x1
 3160 0374 51       		.byte	0x51
 3161 0375 30000000 		.4byte	.LVL28
 3162 0379 37000000 		.4byte	.LVL29-1
 3163 037d 0100     		.2byte	0x1
 3164 037f 53       		.byte	0x53
 3165 0380 37000000 		.4byte	.LVL29-1
 3166 0384 5C000000 		.4byte	.LFE16
 3167 0388 0400     		.2byte	0x4
 3168 038a F3       		.byte	0xf3
 3169 038b 01       		.uleb128 0x1
 3170 038c 51       		.byte	0x51
 3171 038d 9F       		.byte	0x9f
 3172 038e 00000000 		.4byte	0
 3173 0392 00000000 		.4byte	0
 3174              	.LLST24:
 3175 0396 00000000 		.4byte	.LVL25
 3176 039a 14000000 		.4byte	.LVL26
 3177 039e 0100     		.2byte	0x1
 3178 03a0 52       		.byte	0x52
 3179 03a1 14000000 		.4byte	.LVL26
 3180 03a5 58000000 		.4byte	.LVL31
 3181 03a9 0100     		.2byte	0x1
 3182 03ab 55       		.byte	0x55
 3183 03ac 58000000 		.4byte	.LVL31
 3184 03b0 5C000000 		.4byte	.LFE16
 3185 03b4 0400     		.2byte	0x4
 3186 03b6 F3       		.byte	0xf3
 3187 03b7 01       		.uleb128 0x1
 3188 03b8 52       		.byte	0x52
 3189 03b9 9F       		.byte	0x9f
 3190 03ba 00000000 		.4byte	0
 3191 03be 00000000 		.4byte	0
 3192              	.LLST25:
ARM GAS  /tmp/ccW8eDaQ.s 			page 57


 3193 03c2 00000000 		.4byte	.LVL32
 3194 03c6 0F000000 		.4byte	.LVL33-1
 3195 03ca 0100     		.2byte	0x1
 3196 03cc 50       		.byte	0x50
 3197 03cd 0F000000 		.4byte	.LVL33-1
 3198 03d1 20000000 		.4byte	.LFE17
 3199 03d5 0100     		.2byte	0x1
 3200 03d7 54       		.byte	0x54
 3201 03d8 00000000 		.4byte	0
 3202 03dc 00000000 		.4byte	0
 3203              	.LLST26:
 3204 03e0 00000000 		.4byte	.LVL32
 3205 03e4 0F000000 		.4byte	.LVL33-1
 3206 03e8 0100     		.2byte	0x1
 3207 03ea 51       		.byte	0x51
 3208 03eb 0F000000 		.4byte	.LVL33-1
 3209 03ef 20000000 		.4byte	.LFE17
 3210 03f3 0400     		.2byte	0x4
 3211 03f5 F3       		.byte	0xf3
 3212 03f6 01       		.uleb128 0x1
 3213 03f7 51       		.byte	0x51
 3214 03f8 9F       		.byte	0x9f
 3215 03f9 00000000 		.4byte	0
 3216 03fd 00000000 		.4byte	0
 3217              	.LLST27:
 3218 0401 00000000 		.4byte	.LVL34
 3219 0405 0F000000 		.4byte	.LVL35-1
 3220 0409 0100     		.2byte	0x1
 3221 040b 50       		.byte	0x50
 3222 040c 0F000000 		.4byte	.LVL35-1
 3223 0410 34000000 		.4byte	.LFE18
 3224 0414 0100     		.2byte	0x1
 3225 0416 54       		.byte	0x54
 3226 0417 00000000 		.4byte	0
 3227 041b 00000000 		.4byte	0
 3228              	.LLST28:
 3229 041f 00000000 		.4byte	.LVL39
 3230 0423 18000000 		.4byte	.LVL40
 3231 0427 0100     		.2byte	0x1
 3232 0429 50       		.byte	0x50
 3233 042a 18000000 		.4byte	.LVL40
 3234 042e 38000000 		.4byte	.LVL42
 3235 0432 0100     		.2byte	0x1
 3236 0434 54       		.byte	0x54
 3237 0435 38000000 		.4byte	.LVL42
 3238 0439 3B000000 		.4byte	.LVL43-1
 3239 043d 0300     		.2byte	0x3
 3240 043f 70       		.byte	0x70
 3241 0440 7C       		.sleb128 -4
 3242 0441 9F       		.byte	0x9f
 3243 0442 3B000000 		.4byte	.LVL43-1
 3244 0446 3C000000 		.4byte	.LVL43
 3245 044a 0400     		.2byte	0x4
 3246 044c F3       		.byte	0xf3
 3247 044d 01       		.uleb128 0x1
 3248 044e 50       		.byte	0x50
 3249 044f 9F       		.byte	0x9f
ARM GAS  /tmp/ccW8eDaQ.s 			page 58


 3250 0450 3C000000 		.4byte	.LVL43
 3251 0454 40000000 		.4byte	.LVL44
 3252 0458 0100     		.2byte	0x1
 3253 045a 50       		.byte	0x50
 3254 045b 40000000 		.4byte	.LVL44
 3255 045f 4C000000 		.4byte	.LFE19
 3256 0463 0100     		.2byte	0x1
 3257 0465 54       		.byte	0x54
 3258 0466 00000000 		.4byte	0
 3259 046a 00000000 		.4byte	0
 3260              	.LLST29:
 3261 046e 00000000 		.4byte	.LVL39
 3262 0472 18000000 		.4byte	.LVL40
 3263 0476 0100     		.2byte	0x1
 3264 0478 51       		.byte	0x51
 3265 0479 18000000 		.4byte	.LVL40
 3266 047d 38000000 		.4byte	.LVL42
 3267 0481 0100     		.2byte	0x1
 3268 0483 55       		.byte	0x55
 3269 0484 38000000 		.4byte	.LVL42
 3270 0488 3C000000 		.4byte	.LVL43
 3271 048c 0400     		.2byte	0x4
 3272 048e F3       		.byte	0xf3
 3273 048f 01       		.uleb128 0x1
 3274 0490 51       		.byte	0x51
 3275 0491 9F       		.byte	0x9f
 3276 0492 3C000000 		.4byte	.LVL43
 3277 0496 44000000 		.4byte	.LVL45
 3278 049a 0100     		.2byte	0x1
 3279 049c 51       		.byte	0x51
 3280 049d 44000000 		.4byte	.LVL45
 3281 04a1 4C000000 		.4byte	.LFE19
 3282 04a5 0100     		.2byte	0x1
 3283 04a7 55       		.byte	0x55
 3284 04a8 00000000 		.4byte	0
 3285 04ac 00000000 		.4byte	0
 3286              	.LLST30:
 3287 04b0 00000000 		.4byte	.LVL47
 3288 04b4 0C000000 		.4byte	.LVL48
 3289 04b8 0100     		.2byte	0x1
 3290 04ba 50       		.byte	0x50
 3291 04bb 0C000000 		.4byte	.LVL48
 3292 04bf 34000000 		.4byte	.LFE20
 3293 04c3 0100     		.2byte	0x1
 3294 04c5 54       		.byte	0x54
 3295 04c6 00000000 		.4byte	0
 3296 04ca 00000000 		.4byte	0
 3297              		.section	.debug_aranges,"",%progbits
 3298 0000 84000000 		.4byte	0x84
 3299 0004 0200     		.2byte	0x2
 3300 0006 00000000 		.4byte	.Ldebug_info0
 3301 000a 04       		.byte	0x4
 3302 000b 00       		.byte	0
 3303 000c 0000     		.2byte	0
 3304 000e 0000     		.2byte	0
 3305 0010 00000000 		.4byte	.LFB14
 3306 0014 08000000 		.4byte	.LFE14-.LFB14
ARM GAS  /tmp/ccW8eDaQ.s 			page 59


 3307 0018 00000000 		.4byte	.LFB8
 3308 001c 0C000000 		.4byte	.LFE8-.LFB8
 3309 0020 00000000 		.4byte	.LFB13
 3310 0024 08000000 		.4byte	.LFE13-.LFB13
 3311 0028 00000000 		.4byte	.LFB7
 3312 002c 0C000000 		.4byte	.LFE7-.LFB7
 3313 0030 00000000 		.4byte	.LFB12
 3314 0034 08000000 		.4byte	.LFE12-.LFB12
 3315 0038 00000000 		.4byte	.LFB10
 3316 003c 0C000000 		.4byte	.LFE10-.LFB10
 3317 0040 00000000 		.4byte	.LFB11
 3318 0044 0C000000 		.4byte	.LFE11-.LFB11
 3319 0048 00000000 		.4byte	.LFB9
 3320 004c 10000000 		.4byte	.LFE9-.LFB9
 3321 0050 00000000 		.4byte	.LFB15
 3322 0054 04000000 		.4byte	.LFE15-.LFB15
 3323 0058 00000000 		.4byte	.LFB16
 3324 005c 5C000000 		.4byte	.LFE16-.LFB16
 3325 0060 00000000 		.4byte	.LFB17
 3326 0064 20000000 		.4byte	.LFE17-.LFB17
 3327 0068 00000000 		.4byte	.LFB18
 3328 006c 34000000 		.4byte	.LFE18-.LFB18
 3329 0070 00000000 		.4byte	.LFB19
 3330 0074 4C000000 		.4byte	.LFE19-.LFB19
 3331 0078 00000000 		.4byte	.LFB20
 3332 007c 34000000 		.4byte	.LFE20-.LFB20
 3333 0080 00000000 		.4byte	0
 3334 0084 00000000 		.4byte	0
 3335              		.section	.debug_ranges,"",%progbits
 3336              	.Ldebug_ranges0:
 3337 0000 00000000 		.4byte	.LFB14
 3338 0004 08000000 		.4byte	.LFE14
 3339 0008 00000000 		.4byte	.LFB8
 3340 000c 0C000000 		.4byte	.LFE8
 3341 0010 00000000 		.4byte	.LFB13
 3342 0014 08000000 		.4byte	.LFE13
 3343 0018 00000000 		.4byte	.LFB7
 3344 001c 0C000000 		.4byte	.LFE7
 3345 0020 00000000 		.4byte	.LFB12
 3346 0024 08000000 		.4byte	.LFE12
 3347 0028 00000000 		.4byte	.LFB10
 3348 002c 0C000000 		.4byte	.LFE10
 3349 0030 00000000 		.4byte	.LFB11
 3350 0034 0C000000 		.4byte	.LFE11
 3351 0038 00000000 		.4byte	.LFB9
 3352 003c 10000000 		.4byte	.LFE9
 3353 0040 00000000 		.4byte	.LFB15
 3354 0044 04000000 		.4byte	.LFE15
 3355 0048 00000000 		.4byte	.LFB16
 3356 004c 5C000000 		.4byte	.LFE16
 3357 0050 00000000 		.4byte	.LFB17
 3358 0054 20000000 		.4byte	.LFE17
 3359 0058 00000000 		.4byte	.LFB18
 3360 005c 34000000 		.4byte	.LFE18
 3361 0060 00000000 		.4byte	.LFB19
 3362 0064 4C000000 		.4byte	.LFE19
 3363 0068 00000000 		.4byte	.LFB20
ARM GAS  /tmp/ccW8eDaQ.s 			page 60


 3364 006c 34000000 		.4byte	.LFE20
 3365 0070 00000000 		.4byte	0
 3366 0074 00000000 		.4byte	0
 3367              		.section	.debug_line,"",%progbits
 3368              	.Ldebug_line0:
 3369 0000 C7020000 		.section	.debug_str,"MS",%progbits,1
 3369      0200B001 
 3369      00000201 
 3369      FB0E0D00 
 3369      01010101 
 3370              	.LASF101:
 3371 0000 63684F51 		.ascii	"chOQPutTimeout\000"
 3371      50757454 
 3371      696D656F 
 3371      757400
 3372              	.LASF115:
 3373 000f 2F686F6D 		.ascii	"/home/hunter/development/chibi/ChibiOS-RPi/testhal/"
 3373      652F6875 
 3373      6E746572 
 3373      2F646576 
 3373      656C6F70 
 3374 0042 42434D32 		.ascii	"BCM2835/GPIO\000"
 3374      3833352F 
 3374      4750494F 
 3374      00
 3375              	.LASF3:
 3376 004f 73697A65 		.ascii	"size_t\000"
 3376      5F7400
 3377              	.LASF53:
 3378 0056 7264796D 		.ascii	"rdymsg\000"
 3378      736700
 3379              	.LASF102:
 3380 005d 63684951 		.ascii	"chIQInit\000"
 3380      496E6974 
 3380      00
 3381              	.LASF68:
 3382 0066 4F757470 		.ascii	"OutputQueue\000"
 3382      75745175 
 3382      65756500 
 3383              	.LASF4:
 3384 0072 5F5F7569 		.ascii	"__uint8_t\000"
 3384      6E74385F 
 3384      7400
 3385              	.LASF98:
 3386 007c 63684951 		.ascii	"chIQReadTimeout\000"
 3386      52656164 
 3386      54696D65 
 3386      6F757400 
 3387              	.LASF11:
 3388 008c 6C6F6E67 		.ascii	"long long unsigned int\000"
 3388      206C6F6E 
 3388      6720756E 
 3388      7369676E 
 3388      65642069 
 3389              	.LASF78:
 3390 00a3 62617564 		.ascii	"baud_rate\000"
 3390      5F726174 
ARM GAS  /tmp/ccW8eDaQ.s 			page 61


 3390      6500
 3391              	.LASF54:
 3392 00ad 65786974 		.ascii	"exitcode\000"
 3392      636F6465 
 3392      00
 3393              	.LASF28:
 3394 00b6 705F7072 		.ascii	"p_prio\000"
 3394      696F00
 3395              	.LASF86:
 3396 00bd 72656164 		.ascii	"readt\000"
 3396      7400
 3397              	.LASF58:
 3398 00c3 715F7761 		.ascii	"q_waiting\000"
 3398      6974696E 
 3398      6700
 3399              	.LASF10:
 3400 00cd 6C6F6E67 		.ascii	"long long int\000"
 3400      206C6F6E 
 3400      6720696E 
 3400      7400
 3401              	.LASF2:
 3402 00db 7369676E 		.ascii	"signed char\000"
 3402      65642063 
 3402      68617200 
 3403              	.LASF70:
 3404 00e7 53445F53 		.ascii	"SD_STOP\000"
 3404      544F5000 
 3405              	.LASF16:
 3406 00ef 626F6F6C 		.ascii	"bool_t\000"
 3406      5F7400
 3407              	.LASF43:
 3408 00f6 6D5F7175 		.ascii	"m_queue\000"
 3408      65756500 
 3409              	.LASF19:
 3410 00fe 74736C69 		.ascii	"tslices_t\000"
 3410      6365735F 
 3410      7400
 3411              	.LASF75:
 3412 0108 73746174 		.ascii	"state\000"
 3412      6500
 3413              	.LASF103:
 3414 010e 63684F51 		.ascii	"chOQInit\000"
 3414      496E6974 
 3414      00
 3415              	.LASF0:
 3416 0117 6C6F6E67 		.ascii	"long int\000"
 3416      20696E74 
 3416      00
 3417              	.LASF18:
 3418 0120 74737461 		.ascii	"tstate_t\000"
 3418      74655F74 
 3418      00
 3419              	.LASF112:
 3420 0129 63684F51 		.ascii	"chOQGetI\000"
 3420      47657449 
 3420      00
 3421              	.LASF108:
ARM GAS  /tmp/ccW8eDaQ.s 			page 62


 3422 0132 73645F6C 		.ascii	"sd_lld_init\000"
 3422      6C645F69 
 3422      6E697400 
 3423              	.LASF60:
 3424 013e 715F6275 		.ascii	"q_buffer\000"
 3424      66666572 
 3424      00
 3425              	.LASF62:
 3426 0147 715F7772 		.ascii	"q_wrptr\000"
 3426      70747200 
 3427              	.LASF111:
 3428 014f 63684576 		.ascii	"chEvtBroadcastFlagsI\000"
 3428      7442726F 
 3428      61646361 
 3428      7374466C 
 3428      61677349 
 3429              	.LASF109:
 3430 0164 63685363 		.ascii	"chSchRescheduleS\000"
 3430      68526573 
 3430      63686564 
 3430      756C6553 
 3430      00
 3431              	.LASF9:
 3432 0175 5F5F7569 		.ascii	"__uint32_t\000"
 3432      6E743332 
 3432      5F7400
 3433              	.LASF39:
 3434 0180 72656761 		.ascii	"regarm_t\000"
 3434      726D5F74 
 3434      00
 3435              	.LASF110:
 3436 0189 63684951 		.ascii	"chIQPutI\000"
 3436      50757449 
 3436      00
 3437              	.LASF51:
 3438 0192 4576656E 		.ascii	"EventSource\000"
 3438      74536F75 
 3438      72636500 
 3439              	.LASF15:
 3440 019e 756E7369 		.ascii	"unsigned int\000"
 3440      676E6564 
 3440      20696E74 
 3440      00
 3441              	.LASF80:
 3442 01ab 53657269 		.ascii	"SerialDriverVMT\000"
 3442      616C4472 
 3442      69766572 
 3442      564D5400 
 3443              	.LASF107:
 3444 01bb 63684951 		.ascii	"chIQResetI\000"
 3444      52657365 
 3444      744900
 3445              	.LASF92:
 3446 01c6 696E6F74 		.ascii	"inotify\000"
 3446      69667900 
 3447              	.LASF76:
 3448 01ce 69717565 		.ascii	"iqueue\000"
ARM GAS  /tmp/ccW8eDaQ.s 			page 63


 3448      756500
 3449              	.LASF1:
 3450 01d5 6C6F6E67 		.ascii	"long unsigned int\000"
 3450      20756E73 
 3450      69676E65 
 3450      6420696E 
 3450      7400
 3451              	.LASF89:
 3452 01e7 74696D65 		.ascii	"timeout\000"
 3452      6F757400 
 3453              	.LASF84:
 3454 01ef 67657474 		.ascii	"gett\000"
 3454      00
 3455              	.LASF74:
 3456 01f4 6576656E 		.ascii	"event\000"
 3456      7400
 3457              	.LASF7:
 3458 01fa 73686F72 		.ascii	"short unsigned int\000"
 3458      7420756E 
 3458      7369676E 
 3458      65642069 
 3458      6E7400
 3459              	.LASF21:
 3460 020d 6D73675F 		.ascii	"msg_t\000"
 3460      7400
 3461              	.LASF77:
 3462 0213 6F717565 		.ascii	"oqueue\000"
 3462      756500
 3463              	.LASF47:
 3464 021a 656C5F6E 		.ascii	"el_next\000"
 3464      65787400 
 3465              	.LASF85:
 3466 0222 77726974 		.ascii	"writet\000"
 3466      657400
 3467              	.LASF17:
 3468 0229 746D6F64 		.ascii	"tmode_t\000"
 3468      655F7400 
 3469              	.LASF38:
 3470 0231 54687265 		.ascii	"ThreadsList\000"
 3470      6164734C 
 3470      69737400 
 3471              	.LASF22:
 3472 023d 6576656E 		.ascii	"eventmask_t\000"
 3472      746D6173 
 3472      6B5F7400 
 3473              	.LASF67:
 3474 0249 496E7075 		.ascii	"InputQueue\000"
 3474      74517565 
 3474      756500
 3475              	.LASF42:
 3476 0254 4D757465 		.ascii	"Mutex\000"
 3476      7800
 3477              	.LASF113:
 3478 025a 474E5520 		.ascii	"GNU C 4.9.3 20150529 (prerelease) -mcpu=arm1176jz-s"
 3478      4320342E 
 3478      392E3320 
 3478      32303135 
ARM GAS  /tmp/ccW8eDaQ.s 			page 64


 3478      30353239 
 3479 028d 202D6D61 		.ascii	" -mabi=apcs-gnu -mno-thumb-interwork -ggdb -O2 -fom"
 3479      62693D61 
 3479      7063732D 
 3479      676E7520 
 3479      2D6D6E6F 
 3480 02c0 69742D66 		.ascii	"it-frame-pointer -ffunction-sections -fdata-section"
 3480      72616D65 
 3480      2D706F69 
 3480      6E746572 
 3480      202D6666 
 3481 02f3 7300     		.ascii	"s\000"
 3482              	.LASF57:
 3483 02f5 47656E65 		.ascii	"GenericQueue\000"
 3483      72696351 
 3483      75657565 
 3483      00
 3484              	.LASF99:
 3485 0302 63684F51 		.ascii	"chOQWriteTimeout\000"
 3485      57726974 
 3485      6554696D 
 3485      656F7574 
 3485      00
 3486              	.LASF81:
 3487 0313 77726974 		.ascii	"write\000"
 3487      6500
 3488              	.LASF83:
 3489 0319 70757474 		.ascii	"putt\000"
 3489      00
 3490              	.LASF87:
 3491 031e 73697A65 		.ascii	"sizetype\000"
 3491      74797065 
 3491      00
 3492              	.LASF59:
 3493 0327 715F636F 		.ascii	"q_counter\000"
 3493      756E7465 
 3493      7200
 3494              	.LASF37:
 3495 0331 54687265 		.ascii	"ThreadsQueue\000"
 3495      61647351 
 3495      75657565 
 3495      00
 3496              	.LASF96:
 3497 033e 73645374 		.ascii	"sdStop\000"
 3497      6F7000
 3498              	.LASF88:
 3499 0345 74696D65 		.ascii	"time\000"
 3499      00
 3500              	.LASF49:
 3501 034a 656C5F6D 		.ascii	"el_mask\000"
 3501      61736B00 
 3502              	.LASF79:
 3503 0352 53657269 		.ascii	"SerialConfig\000"
 3503      616C436F 
 3503      6E666967 
 3503      00
 3504              	.LASF66:
ARM GAS  /tmp/ccW8eDaQ.s 			page 65


 3505 035f 716E6F74 		.ascii	"qnotify_t\000"
 3505      6966795F 
 3505      7400
 3506              	.LASF27:
 3507 0369 705F7072 		.ascii	"p_prev\000"
 3507      657600
 3508              	.LASF20:
 3509 0370 74707269 		.ascii	"tprio_t\000"
 3509      6F5F7400 
 3510              	.LASF63:
 3511 0378 715F7264 		.ascii	"q_rdptr\000"
 3511      70747200 
 3512              	.LASF13:
 3513 0380 696E7433 		.ascii	"int32_t\000"
 3513      325F7400 
 3514              	.LASF5:
 3515 0388 756E7369 		.ascii	"unsigned char\000"
 3515      676E6564 
 3515      20636861 
 3515      7200
 3516              	.LASF104:
 3517 0396 73645F6C 		.ascii	"sd_lld_start\000"
 3517      6C645F73 
 3517      74617274 
 3517      00
 3518              	.LASF48:
 3519 03a3 656C5F6C 		.ascii	"el_listener\000"
 3519      69737465 
 3519      6E657200 
 3520              	.LASF50:
 3521 03af 656C5F66 		.ascii	"el_flags\000"
 3521      6C616773 
 3521      00
 3522              	.LASF35:
 3523 03b8 705F6D74 		.ascii	"p_mtxlist\000"
 3523      786C6973 
 3523      7400
 3524              	.LASF6:
 3525 03c2 73686F72 		.ascii	"short int\000"
 3525      7420696E 
 3525      7400
 3526              	.LASF30:
 3527 03cc 705F7374 		.ascii	"p_state\000"
 3527      61746500 
 3528              	.LASF32:
 3529 03d4 705F7072 		.ascii	"p_preempt\000"
 3529      65656D70 
 3529      7400
 3530              	.LASF91:
 3531 03de 73644F62 		.ascii	"sdObjectInit\000"
 3531      6A656374 
 3531      496E6974 
 3531      00
 3532              	.LASF56:
 3533 03eb 65776D61 		.ascii	"ewmask\000"
 3533      736B00
 3534              	.LASF26:
ARM GAS  /tmp/ccW8eDaQ.s 			page 66


 3535 03f2 705F6E65 		.ascii	"p_next\000"
 3535      787400
 3536              	.LASF31:
 3537 03f9 705F666C 		.ascii	"p_flags\000"
 3537      61677300 
 3538              	.LASF25:
 3539 0401 54687265 		.ascii	"Thread\000"
 3539      616400
 3540              	.LASF34:
 3541 0408 705F6570 		.ascii	"p_epending\000"
 3541      656E6469 
 3541      6E6700
 3542              	.LASF69:
 3543 0413 53445F55 		.ascii	"SD_UNINIT\000"
 3543      4E494E49 
 3543      5400
 3544              	.LASF14:
 3545 041d 75696E74 		.ascii	"uint32_t\000"
 3545      33325F74 
 3545      00
 3546              	.LASF72:
 3547 0426 73647374 		.ascii	"sdstate_t\000"
 3547      6174655F 
 3547      7400
 3548              	.LASF73:
 3549 0430 53657269 		.ascii	"SerialDriver\000"
 3549      616C4472 
 3549      69766572 
 3549      00
 3550              	.LASF82:
 3551 043d 72656164 		.ascii	"read\000"
 3551      00
 3552              	.LASF97:
 3553 0442 7364496E 		.ascii	"sdIncomingDataI\000"
 3553      636F6D69 
 3553      6E674461 
 3553      74614900 
 3554              	.LASF95:
 3555 0452 636F6E66 		.ascii	"config\000"
 3555      696700
 3556              	.LASF94:
 3557 0459 73645374 		.ascii	"sdStart\000"
 3557      61727400 
 3558              	.LASF114:
 3559 0461 2E2E2F2E 		.ascii	"../../../os/hal/src/serial.c\000"
 3559      2E2F2E2E 
 3559      2F6F732F 
 3559      68616C2F 
 3559      7372632F 
 3560              	.LASF45:
 3561 047e 6D5F6E65 		.ascii	"m_next\000"
 3561      787400
 3562              	.LASF24:
 3563 0485 73797374 		.ascii	"systime_t\000"
 3563      696D655F 
 3563      7400
 3564              	.LASF36:
ARM GAS  /tmp/ccW8eDaQ.s 			page 67


 3565 048f 705F7265 		.ascii	"p_realprio\000"
 3565      616C7072 
 3565      696F00
 3566              	.LASF8:
 3567 049a 5F5F696E 		.ascii	"__int32_t\000"
 3567      7433325F 
 3567      7400
 3568              	.LASF106:
 3569 04a4 63684F51 		.ascii	"chOQResetI\000"
 3569      52657365 
 3569      744900
 3570              	.LASF41:
 3571 04af 636F6E74 		.ascii	"context\000"
 3571      65787400 
 3572              	.LASF40:
 3573 04b7 696E7463 		.ascii	"intctx\000"
 3573      747800
 3574              	.LASF71:
 3575 04be 53445F52 		.ascii	"SD_READY\000"
 3575      45414459 
 3575      00
 3576              	.LASF23:
 3577 04c7 666C6167 		.ascii	"flagsmask_t\000"
 3577      736D6173 
 3577      6B5F7400 
 3578              	.LASF61:
 3579 04d3 715F746F 		.ascii	"q_top\000"
 3579      7000
 3580              	.LASF52:
 3581 04d9 65735F6E 		.ascii	"es_next\000"
 3581      65787400 
 3582              	.LASF64:
 3583 04e1 715F6E6F 		.ascii	"q_notify\000"
 3583      74696679 
 3583      00
 3584              	.LASF116:
 3585 04ea 73645265 		.ascii	"sdRequestDataI\000"
 3585      71756573 
 3585      74446174 
 3585      614900
 3586              	.LASF12:
 3587 04f9 75696E74 		.ascii	"uint8_t\000"
 3587      385F7400 
 3588              	.LASF93:
 3589 0501 6F6E6F74 		.ascii	"onotify\000"
 3589      69667900 
 3590              	.LASF46:
 3591 0509 4576656E 		.ascii	"EventListener\000"
 3591      744C6973 
 3591      74656E65 
 3591      7200
 3592              	.LASF55:
 3593 0517 77746F62 		.ascii	"wtobjp\000"
 3593      6A7000
 3594              	.LASF105:
 3595 051e 73645F6C 		.ascii	"sd_lld_stop\000"
 3595      6C645F73 
ARM GAS  /tmp/ccW8eDaQ.s 			page 68


 3595      746F7000 
 3596              	.LASF90:
 3597 052a 7364496E 		.ascii	"sdInit\000"
 3597      697400
 3598              	.LASF65:
 3599 0531 715F6C69 		.ascii	"q_link\000"
 3599      6E6B00
 3600              	.LASF44:
 3601 0538 6D5F6F77 		.ascii	"m_owner\000"
 3601      6E657200 
 3602              	.LASF29:
 3603 0540 705F6374 		.ascii	"p_ctx\000"
 3603      7800
 3604              	.LASF33:
 3605 0546 705F7761 		.ascii	"p_waiting\000"
 3605      6974696E 
 3605      6700
 3606              	.LASF100:
 3607 0550 63684951 		.ascii	"chIQGetTimeout\000"
 3607      47657454 
 3607      696D656F 
 3607      757400
 3608              		.ident	"GCC: (15:4.9.3+svn231177-1) 4.9.3 20150529 (prerelease)"
ARM GAS  /tmp/ccW8eDaQ.s 			page 69


DEFINED SYMBOLS
                            *ABS*:0000000000000000 serial.c
     /tmp/ccW8eDaQ.s:6      .text.readt:0000000000000000 $a
     /tmp/ccW8eDaQ.s:8      .text.readt:0000000000000000 readt
     /tmp/ccW8eDaQ.s:26     .text.read:0000000000000000 $a
     /tmp/ccW8eDaQ.s:28     .text.read:0000000000000000 read
     /tmp/ccW8eDaQ.s:46     .text.writet:0000000000000000 $a
     /tmp/ccW8eDaQ.s:48     .text.writet:0000000000000000 writet
     /tmp/ccW8eDaQ.s:65     .text.write:0000000000000000 $a
     /tmp/ccW8eDaQ.s:67     .text.write:0000000000000000 write
     /tmp/ccW8eDaQ.s:85     .text.gett:0000000000000000 $a
     /tmp/ccW8eDaQ.s:87     .text.gett:0000000000000000 gett
     /tmp/ccW8eDaQ.s:104    .text.get:0000000000000000 $a
     /tmp/ccW8eDaQ.s:106    .text.get:0000000000000000 get
     /tmp/ccW8eDaQ.s:124    .text.putt:0000000000000000 $a
     /tmp/ccW8eDaQ.s:126    .text.putt:0000000000000000 putt
     /tmp/ccW8eDaQ.s:144    .text.put:0000000000000000 $a
     /tmp/ccW8eDaQ.s:146    .text.put:0000000000000000 put
     /tmp/ccW8eDaQ.s:165    .text.sdInit:0000000000000000 $a
     /tmp/ccW8eDaQ.s:168    .text.sdInit:0000000000000000 sdInit
     /tmp/ccW8eDaQ.s:182    .text.sdObjectInit:0000000000000000 $a
     /tmp/ccW8eDaQ.s:185    .text.sdObjectInit:0000000000000000 sdObjectInit
     /tmp/ccW8eDaQ.s:241    .text.sdObjectInit:0000000000000058 $d
     /tmp/ccW8eDaQ.s:246    .text.sdStart:0000000000000000 $a
     /tmp/ccW8eDaQ.s:249    .text.sdStart:0000000000000000 sdStart
     /tmp/ccW8eDaQ.s:281    .text.sdStop:0000000000000000 $a
     /tmp/ccW8eDaQ.s:284    .text.sdStop:0000000000000000 sdStop
     /tmp/ccW8eDaQ.s:329    .text.sdIncomingDataI:0000000000000000 $a
     /tmp/ccW8eDaQ.s:332    .text.sdIncomingDataI:0000000000000000 sdIncomingDataI
     /tmp/ccW8eDaQ.s:391    .text.sdRequestDataI:0000000000000000 $a
     /tmp/ccW8eDaQ.s:394    .text.sdRequestDataI:0000000000000000 sdRequestDataI
     /tmp/ccW8eDaQ.s:432    .rodata.vmt:0000000000000000 $d
     /tmp/ccW8eDaQ.s:436    .rodata.vmt:0000000000000000 vmt
                     .debug_frame:0000000000000010 $d

UNDEFINED SYMBOLS
chIQReadTimeout
chOQWriteTimeout
chIQGetTimeout
chOQPutTimeout
sd_lld_init
chIQInit
chOQInit
sd_lld_start
sd_lld_stop
chOQResetI
chIQResetI
chSchRescheduleS
chIQPutI
chEvtBroadcastFlagsI
chOQGetI
