ARM GAS  /tmp/ccW8eDaQ.s 			page 1


   1              		.file	"serial.c"
   2              		.text
   3              	.Ltext0:
   4              		.cfi_sections	.debug_frame
   5              		.section	.text.readt,"ax",%progbits
   6              		.align	2
   7              		.type	readt, %function
   8              	readt:
   9              	.LFB14:
  10              		.file 1 "../../../os/hal/src/serial.c"
  11              		.loc 1 92 0
  12              		.cfi_startproc
  13              		@ args = 0, pretend = 0, frame = 0
  14              		@ frame_needed = 0, uses_anonymous_args = 0
  15              		@ link register save eliminated.
  16              	.LVL0:
  17              		.loc 1 94 0
  18 0000 0C0080E2 		add	r0, r0, #12
  19              	.LVL1:
  20 0004 FEFFFFEA 		b	chIQReadTimeout
  21              	.LVL2:
  22              		.cfi_endproc
  23              	.LFE14:
  24              		.size	readt, .-readt
  25              		.section	.text.read,"ax",%progbits
  26              		.align	2
  27              		.type	read, %function
  28              	read:
  29              	.LFB8:
  30              		.loc 1 61 0
  31              		.cfi_startproc
  32              		@ args = 0, pretend = 0, frame = 0
  33              		@ frame_needed = 0, uses_anonymous_args = 0
  34              		@ link register save eliminated.
  35              	.LVL3:
  36              		.loc 1 63 0
  37 0000 0C0080E2 		add	r0, r0, #12
  38              	.LVL4:
  39 0004 0030E0E3 		mvn	r3, #0
  40 0008 FEFFFFEA 		b	chIQReadTimeout
  41              	.LVL5:
  42              		.cfi_endproc
  43              	.LFE8:
  44              		.size	read, .-read
  45              		.section	.text.writet,"ax",%progbits
  46              		.align	2
  47              		.type	writet, %function
  48              	writet:
  49              	.LFB13:
  50              		.loc 1 87 0
  51              		.cfi_startproc
  52              		@ args = 0, pretend = 0, frame = 0
  53              		@ frame_needed = 0, uses_anonymous_args = 0
  54              		@ link register save eliminated.
  55              	.LVL6:
  56              		.loc 1 89 0
  57 0000 300080E2 		add	r0, r0, #48
ARM GAS  /tmp/ccW8eDaQ.s 			page 2


  58              	.LVL7:
  59 0004 FEFFFFEA 		b	chOQWriteTimeout
  60              	.LVL8:
  61              		.cfi_endproc
  62              	.LFE13:
  63              		.size	writet, .-writet
  64              		.section	.text.write,"ax",%progbits
  65              		.align	2
  66              		.type	write, %function
  67              	write:
  68              	.LFB7:
  69              		.loc 1 55 0
  70              		.cfi_startproc
  71              		@ args = 0, pretend = 0, frame = 0
  72              		@ frame_needed = 0, uses_anonymous_args = 0
  73              		@ link register save eliminated.
  74              	.LVL9:
  75              		.loc 1 57 0
  76 0000 300080E2 		add	r0, r0, #48
  77              	.LVL10:
  78 0004 0030E0E3 		mvn	r3, #0
  79 0008 FEFFFFEA 		b	chOQWriteTimeout
  80              	.LVL11:
  81              		.cfi_endproc
  82              	.LFE7:
  83              		.size	write, .-write
  84              		.section	.text.gett,"ax",%progbits
  85              		.align	2
  86              		.type	gett, %function
  87              	gett:
  88              	.LFB12:
  89              		.loc 1 82 0
  90              		.cfi_startproc
  91              		@ args = 0, pretend = 0, frame = 0
  92              		@ frame_needed = 0, uses_anonymous_args = 0
  93              		@ link register save eliminated.
  94              	.LVL12:
  95              		.loc 1 84 0
  96 0000 0C0080E2 		add	r0, r0, #12
  97              	.LVL13:
  98 0004 FEFFFFEA 		b	chIQGetTimeout
  99              	.LVL14:
 100              		.cfi_endproc
 101              	.LFE12:
 102              		.size	gett, .-gett
 103              		.section	.text.get,"ax",%progbits
 104              		.align	2
 105              		.type	get, %function
 106              	get:
 107              	.LFB10:
 108              		.loc 1 72 0
 109              		.cfi_startproc
 110              		@ args = 0, pretend = 0, frame = 0
 111              		@ frame_needed = 0, uses_anonymous_args = 0
 112              		@ link register save eliminated.
 113              	.LVL15:
 114              		.loc 1 74 0
ARM GAS  /tmp/ccW8eDaQ.s 			page 3


 115 0000 0C0080E2 		add	r0, r0, #12
 116              	.LVL16:
 117 0004 0010E0E3 		mvn	r1, #0
 118 0008 FEFFFFEA 		b	chIQGetTimeout
 119              	.LVL17:
 120              		.cfi_endproc
 121              	.LFE10:
 122              		.size	get, .-get
 123              		.section	.text.putt,"ax",%progbits
 124              		.align	2
 125              		.type	putt, %function
 126              	putt:
 127              	.LFB11:
 128              		.loc 1 77 0
 129              		.cfi_startproc
 130              		@ args = 0, pretend = 0, frame = 0
 131              		@ frame_needed = 0, uses_anonymous_args = 0
 132              		@ link register save eliminated.
 133              	.LVL18:
 134              		.loc 1 79 0
 135 0000 300080E2 		add	r0, r0, #48
 136              	.LVL19:
 137 0004 7110EFE6 		uxtb	r1, r1
 138 0008 FEFFFFEA 		b	chOQPutTimeout
 139              	.LVL20:
 140              		.cfi_endproc
 141              	.LFE11:
 142              		.size	putt, .-putt
 143              		.section	.text.put,"ax",%progbits
 144              		.align	2
 145              		.type	put, %function
 146              	put:
 147              	.LFB9:
 148              		.loc 1 67 0
 149              		.cfi_startproc
 150              		@ args = 0, pretend = 0, frame = 0
 151              		@ frame_needed = 0, uses_anonymous_args = 0
 152              		@ link register save eliminated.
 153              	.LVL21:
 154              		.loc 1 69 0
 155 0000 300080E2 		add	r0, r0, #48
 156              	.LVL22:
 157 0004 7110EFE6 		uxtb	r1, r1
 158 0008 0020E0E3 		mvn	r2, #0
 159 000c FEFFFFEA 		b	chOQPutTimeout
 160              	.LVL23:
 161              		.cfi_endproc
 162              	.LFE9:
 163              		.size	put, .-put
 164              		.section	.text.sdInit,"ax",%progbits
 165              		.align	2
 166              		.global	sdInit
 167              		.type	sdInit, %function
 168              	sdInit:
 169              	.LFB15:
 170              		.loc 1 113 0
 171              		.cfi_startproc
ARM GAS  /tmp/ccW8eDaQ.s 			page 4


 172              		@ args = 0, pretend = 0, frame = 0
 173              		@ frame_needed = 0, uses_anonymous_args = 0
 174              		@ link register save eliminated.
 175              		.loc 1 115 0
 176 0000 FEFFFFEA 		b	sd_lld_init
 177              	.LVL24:
 178              		.cfi_endproc
 179              	.LFE15:
 180              		.size	sdInit, .-sdInit
 181              		.section	.text.sdObjectInit,"ax",%progbits
 182              		.align	2
 183              		.global	sdObjectInit
 184              		.type	sdObjectInit, %function
 185              	sdObjectInit:
 186              	.LFB16:
 187              		.loc 1 133 0
 188              		.cfi_startproc
 189              		@ args = 0, pretend = 0, frame = 0
 190              		@ frame_needed = 0, uses_anonymous_args = 0
 191              	.LVL25:
 192 0000 30402DE9 		stmfd	sp!, {r4, r5, lr}
 193              		.cfi_def_cfa_offset 12
 194              		.cfi_offset 4, -12
 195              		.cfi_offset 5, -8
 196              		.cfi_offset 14, -4
 197 0004 0040A0E1 		mov	r4, r0
 198              		.loc 1 137 0
 199 0008 01C0A0E3 		mov	ip, #1
 200              		.loc 1 133 0
 201 000c 0250A0E1 		mov	r5, r2
 202              		.loc 1 135 0
 203 0010 40209FE5 		ldr	r2, .L12
 204              	.LVL26:
 205              		.loc 1 133 0
 206 0014 04D04DE2 		sub	sp, sp, #4
 207              		.cfi_def_cfa_offset 16
 208              		.loc 1 138 0
 209 0018 00408DE5 		str	r4, [sp]
 210              		.loc 1 135 0
 211 001c 042080E4 		str	r2, [r0], #4
 212              	.LVL27:
 213              		.loc 1 137 0
 214 0020 011084E9 		stmib	r4, {r0, ip}
 215              		.loc 1 133 0
 216 0024 0130A0E1 		mov	r3, r1
 217              		.loc 1 138 0
 218 0028 0C0084E2 		add	r0, r4, #12
 219 002c 541084E2 		add	r1, r4, #84
 220              	.LVL28:
 221 0030 1020A0E3 		mov	r2, #16
 222 0034 FEFFFFEB 		bl	chIQInit
 223              	.LVL29:
 224              		.loc 1 139 0
 225 0038 00408DE5 		str	r4, [sp]
 226 003c 0530A0E1 		mov	r3, r5
 227 0040 300084E2 		add	r0, r4, #48
 228 0044 641084E2 		add	r1, r4, #100
ARM GAS  /tmp/ccW8eDaQ.s 			page 5


 229 0048 1020A0E3 		mov	r2, #16
 230 004c FEFFFFEB 		bl	chOQInit
 231              	.LVL30:
 232              		.loc 1 140 0
 233 0050 04D08DE2 		add	sp, sp, #4
 234              		.cfi_def_cfa_offset 12
 235              		@ sp needed
 236 0054 3080BDE8 		ldmfd	sp!, {r4, r5, pc}
 237              	.LVL31:
 238              	.L13:
 239              		.align	2
 240              	.L12:
 241 0058 00000000 		.word	.LANCHOR0
 242              		.cfi_endproc
 243              	.LFE16:
 244              		.size	sdObjectInit, .-sdObjectInit
 245              		.section	.text.sdStart,"ax",%progbits
 246              		.align	2
 247              		.global	sdStart
 248              		.type	sdStart, %function
 249              	sdStart:
 250              	.LFB17:
 251              		.loc 1 152 0
 252              		.cfi_startproc
 253              		@ args = 0, pretend = 0, frame = 0
 254              		@ frame_needed = 0, uses_anonymous_args = 0
 255              	.LVL32:
 256 0000 10402DE9 		stmfd	sp!, {r4, lr}
 257              		.cfi_def_cfa_offset 8
 258              		.cfi_offset 4, -8
 259              		.cfi_offset 14, -4
 260              		.loc 1 152 0
 261 0004 0040A0E1 		mov	r4, r0
 262              		.loc 1 156 0
 263              	@ 156 "../../../os/hal/src/serial.c" 1
 264 0008 9FF021E3 		msr     CPSR_c, #0x9F
 265              	@ 0 "" 2
 266              		.loc 1 160 0
 267 000c FEFFFFEB 		bl	sd_lld_start
 268              	.LVL33:
 269              		.loc 1 161 0
 270 0010 0230A0E3 		mov	r3, #2
 271 0014 083084E5 		str	r3, [r4, #8]
 272              		.loc 1 162 0
 273              	@ 162 "../../../os/hal/src/serial.c" 1
 274 0018 1FF021E3 		msr     CPSR_c, #0x1F
 275              	@ 0 "" 2
 276 001c 1080BDE8 		ldmfd	sp!, {r4, pc}
 277              		.cfi_endproc
 278              	.LFE17:
 279              		.size	sdStart, .-sdStart
 280              		.section	.text.sdStop,"ax",%progbits
 281              		.align	2
 282              		.global	sdStop
 283              		.type	sdStop, %function
 284              	sdStop:
 285              	.LFB18:
ARM GAS  /tmp/ccW8eDaQ.s 			page 6


 286              		.loc 1 174 0
 287              		.cfi_startproc
 288              		@ args = 0, pretend = 0, frame = 0
 289              		@ frame_needed = 0, uses_anonymous_args = 0
 290              	.LVL34:
 291 0000 10402DE9 		stmfd	sp!, {r4, lr}
 292              		.cfi_def_cfa_offset 8
 293              		.cfi_offset 4, -8
 294              		.cfi_offset 14, -4
 295              		.loc 1 174 0
 296 0004 0040A0E1 		mov	r4, r0
 297              		.loc 1 178 0
 298              	@ 178 "../../../os/hal/src/serial.c" 1
 299 0008 9FF021E3 		msr     CPSR_c, #0x9F
 300              	@ 0 "" 2
 301              		.loc 1 182 0
 302 000c FEFFFFEB 		bl	sd_lld_stop
 303              	.LVL35:
 304              		.loc 1 183 0
 305 0010 0130A0E3 		mov	r3, #1
 306              		.loc 1 184 0
 307 0014 300084E2 		add	r0, r4, #48
 308              		.loc 1 183 0
 309 0018 083084E5 		str	r3, [r4, #8]
 310              		.loc 1 184 0
 311 001c FEFFFFEB 		bl	chOQResetI
 312              	.LVL36:
 313              		.loc 1 185 0
 314 0020 0C0084E2 		add	r0, r4, #12
 315 0024 FEFFFFEB 		bl	chIQResetI
 316              	.LVL37:
 317              		.loc 1 186 0
 318 0028 FEFFFFEB 		bl	chSchRescheduleS
 319              	.LVL38:
 320              		.loc 1 187 0
 321              	@ 187 "../../../os/hal/src/serial.c" 1
 322 002c 1FF021E3 		msr     CPSR_c, #0x1F
 323              	@ 0 "" 2
 324 0030 1080BDE8 		ldmfd	sp!, {r4, pc}
 325              		.cfi_endproc
 326              	.LFE18:
 327              		.size	sdStop, .-sdStop
 328              		.section	.text.sdIncomingDataI,"ax",%progbits
 329              		.align	2
 330              		.global	sdIncomingDataI
 331              		.type	sdIncomingDataI, %function
 332              	sdIncomingDataI:
 333              	.LFB19:
 334              		.loc 1 206 0
 335              		.cfi_startproc
 336              		@ args = 0, pretend = 0, frame = 0
 337              		@ frame_needed = 0, uses_anonymous_args = 0
 338              	.LVL39:
 339              		.loc 1 211 0
 340 0000 143090E5 		ldr	r3, [r0, #20]
 341              		.loc 1 206 0
 342 0004 30402DE9 		stmfd	sp!, {r4, r5, lr}
ARM GAS  /tmp/ccW8eDaQ.s 			page 7


 343              		.cfi_def_cfa_offset 12
 344              		.cfi_offset 4, -12
 345              		.cfi_offset 5, -8
 346              		.cfi_offset 14, -4
 347              		.loc 1 211 0
 348 0008 000053E3 		cmp	r3, #0
 349              		.loc 1 206 0
 350 000c 0040A0E1 		mov	r4, r0
 351 0010 7150EFE6 		uxtb	r5, r1
 352              		.loc 1 211 0
 353 0014 0800000A 		beq	.L23
 354              	.LVL40:
 355              	.L19:
 356              		.loc 1 213 0
 357 0018 0510A0E1 		mov	r1, r5
 358 001c 0C0084E2 		add	r0, r4, #12
 359 0020 FEFFFFEB 		bl	chIQPutI
 360              	.LVL41:
 361 0024 000050E3 		cmp	r0, #0
 362 0028 3080BDA8 		ldmgefd	sp!, {r4, r5, pc}
 363              		.loc 1 214 0
 364 002c 040084E2 		add	r0, r4, #4
 365 0030 8010A0E3 		mov	r1, #128
 366              		.loc 1 215 0
 367 0034 3040BDE8 		ldmfd	sp!, {r4, r5, lr}
 368              		.cfi_remember_state
 369              		.cfi_restore 14
 370              		.cfi_restore 5
 371              		.cfi_restore 4
 372              		.cfi_def_cfa_offset 0
 373              	.LVL42:
 374              		.loc 1 214 0
 375 0038 FEFFFFEA 		b	chEvtBroadcastFlagsI
 376              	.LVL43:
 377              	.L23:
 378              		.cfi_restore_state
 379              		.loc 1 212 0
 380 003c 040080E2 		add	r0, r0, #4
 381              	.LVL44:
 382 0040 0410A0E3 		mov	r1, #4
 383              	.LVL45:
 384 0044 FEFFFFEB 		bl	chEvtBroadcastFlagsI
 385              	.LVL46:
 386 0048 F2FFFFEA 		b	.L19
 387              		.cfi_endproc
 388              	.LFE19:
 389              		.size	sdIncomingDataI, .-sdIncomingDataI
 390              		.section	.text.sdRequestDataI,"ax",%progbits
 391              		.align	2
 392              		.global	sdRequestDataI
 393              		.type	sdRequestDataI, %function
 394              	sdRequestDataI:
 395              	.LFB20:
 396              		.loc 1 232 0
 397              		.cfi_startproc
 398              		@ args = 0, pretend = 0, frame = 0
 399              		@ frame_needed = 0, uses_anonymous_args = 0
ARM GAS  /tmp/ccW8eDaQ.s 			page 8


 400              	.LVL47:
 401 0000 30402DE9 		stmfd	sp!, {r4, r5, lr}
 402              		.cfi_def_cfa_offset 12
 403              		.cfi_offset 4, -12
 404              		.cfi_offset 5, -8
 405              		.cfi_offset 14, -4
 406              		.loc 1 232 0
 407 0004 0040A0E1 		mov	r4, r0
 408              		.loc 1 238 0
 409 0008 300080E2 		add	r0, r0, #48
 410              	.LVL48:
 411 000c FEFFFFEB 		bl	chOQGetI
 412              	.LVL49:
 413              		.loc 1 239 0
 414 0010 005050E2 		subs	r5, r0, #0
 415 0014 010000BA 		blt	.L27
 416              		.loc 1 242 0
 417 0018 0500A0E1 		mov	r0, r5
 418 001c 3080BDE8 		ldmfd	sp!, {r4, r5, pc}
 419              	.L27:
 420              		.loc 1 240 0
 421 0020 040084E2 		add	r0, r4, #4
 422 0024 0810A0E3 		mov	r1, #8
 423 0028 FEFFFFEB 		bl	chEvtBroadcastFlagsI
 424              	.LVL50:
 425              		.loc 1 242 0
 426 002c 0500A0E1 		mov	r0, r5
 427 0030 3080BDE8 		ldmfd	sp!, {r4, r5, pc}
 428              		.cfi_endproc
 429              	.LFE20:
 430              		.size	sdRequestDataI, .-sdRequestDataI
 431              		.section	.rodata.vmt,"a",%progbits
 432              		.align	2
 433              		.set	.LANCHOR0,. + 0
 434              		.type	vmt, %object
 435              		.size	vmt, 32
 436              	vmt:
 437 0000 00000000 		.word	write
 438 0004 00000000 		.word	read
 439 0008 00000000 		.word	put
 440 000c 00000000 		.word	get
 441 0010 00000000 		.word	putt
 442 0014 00000000 		.word	gett
 443 0018 00000000 		.word	writet
 444 001c 00000000 		.word	readt
 445              		.text
 446              	.Letext0:
 447              		.file 2 "/usr/lib/gcc/arm-none-eabi/4.9.3/include/stddef.h"
 448              		.file 3 "/usr/include/newlib/machine/_default_types.h"
 449              		.file 4 "/usr/include/newlib/sys/_stdint.h"
 450              		.file 5 "../../../os/ports/GCC/ARM/chtypes.h"
 451              		.file 6 "../../../os/kernel/include/chlists.h"
 452              		.file 7 "../../../os/kernel/include/chthreads.h"
 453              		.file 8 "../../../os/ports/GCC/ARM/chcore.h"
 454              		.file 9 "../../../os/kernel/include/chmtx.h"
 455              		.file 10 "../../../os/kernel/include/chevents.h"
 456              		.file 11 "../../../os/kernel/include/chqueues.h"
ARM GAS  /tmp/ccW8eDaQ.s 			page 9


 457              		.file 12 "../../../os/hal/include/serial.h"
 458              		.file 13 "../../../os/hal/platforms/BCM2835/serial_lld.h"
 459              		.file 14 "../../../os/kernel/include/chschd.h"