
build/ch.elf:     file format elf32-littlearm
build/ch.elf
architecture: arm, flags 0x00000112:
EXEC_P, HAS_SYMS, D_PAGED
start address 0x00008000

Program Header:
    LOAD off    0x00000000 vaddr 0x00000000 paddr 0x00000000 align 2**16
         filesz 0x0000c110 memsz 0x0000c46c flags rwx
private flags = 5000200: [Version5 EABI] [soft-float ABI]

Sections:
Idx Name          Size      VMA       LMA       File off  Algn
  0 .text         000040f4  00008000  00008000  00008000  2**4
                  CONTENTS, ALLOC, LOAD, READONLY, CODE
  1 .data         0000001c  0000c0f4  0000c0f4  0000c0f4  2**2
                  CONTENTS, ALLOC, LOAD, DATA
  2 .bss          0000035c  0000c110  0000c110  0000c110  2**2
                  ALLOC
  3 .ARM.attributes 00000033  00000000  00000000  0000c110  2**0
                  CONTENTS, READONLY
  4 .comment      00000070  00000000  00000000  0000c143  2**0
                  CONTENTS, READONLY
  5 .debug_info   0000d433  00000000  00000000  0000c1b3  2**0
                  CONTENTS, READONLY, DEBUGGING
  6 .debug_abbrev 00003889  00000000  00000000  000195e6  2**0
                  CONTENTS, READONLY, DEBUGGING
  7 .debug_loc    00004785  00000000  00000000  0001ce6f  2**0
                  CONTENTS, READONLY, DEBUGGING
  8 .debug_aranges 00000988  00000000  00000000  000215f8  2**3
                  CONTENTS, READONLY, DEBUGGING
  9 .debug_ranges 00000c20  00000000  00000000  00021f80  2**0
                  CONTENTS, READONLY, DEBUGGING
 10 .debug_line   0000435b  00000000  00000000  00022ba0  2**0
                  CONTENTS, READONLY, DEBUGGING
 11 .debug_str    00001a9a  00000000  00000000  00026efb  2**0
                  CONTENTS, READONLY, DEBUGGING
 12 .debug_frame  00001530  00000000  00000000  00028998  2**2
                  CONTENTS, READONLY, DEBUGGING
SYMBOL TABLE:
00008000 l    d  .text	00000000 .text
0000c0f4 l    d  .data	00000000 .data
0000c110 l    d  .bss	00000000 .bss
00000000 l    d  .ARM.attributes	00000000 .ARM.attributes
00000000 l    d  .comment	00000000 .comment
00000000 l    d  .debug_info	00000000 .debug_info
00000000 l    d  .debug_abbrev	00000000 .debug_abbrev
00000000 l    d  .debug_loc	00000000 .debug_loc
00000000 l    d  .debug_aranges	00000000 .debug_aranges
00000000 l    d  .debug_ranges	00000000 .debug_ranges
00000000 l    d  .debug_line	00000000 .debug_line
00000000 l    d  .debug_str	00000000 .debug_str
00000000 l    d  .debug_frame	00000000 .debug_frame
00000000 l    df *ABS*	00000000 build/obj/vectors.o
00008000 l       .text	00000000 _start
00008020 l       .text	00000000 _reset
00008024 l       .text	00000000 _undefined
00008028 l       .text	00000000 _swi
0000802c l       .text	00000000 _prefetch
00008030 l       .text	00000000 _abort
00008038 l       .text	00000000 _irq
0000803c l       .text	00000000 _fiq
00000000 l    df *ABS*	00000000 build/obj/crt0.o
00000010 l       *ABS*	00000000 MODE_USR
00000011 l       *ABS*	00000000 MODE_FIQ
00000012 l       *ABS*	00000000 MODE_IRQ
00000013 l       *ABS*	00000000 MODE_SVC
00000017 l       *ABS*	00000000 MODE_ABT
0000001b l       *ABS*	00000000 MODE_UND
0000001f l       *ABS*	00000000 MODE_SYS
00000080 l       *ABS*	00000000 I_BIT
00000040 l       *ABS*	00000000 F_BIT
000080ac l       .text	00000000 bssloop
000080c0 l       .text	00000000 .loop
000080c4 l       .text	00000000 hwinit0
00000000 l    df *ABS*	00000000 build/obj/chcoreasm.o
00000010 l       *ABS*	00000000 MODE_USR
00000011 l       *ABS*	00000000 MODE_FIQ
00000012 l       *ABS*	00000000 MODE_IRQ
00000013 l       *ABS*	00000000 MODE_SVC
00000017 l       *ABS*	00000000 MODE_ABT
0000001b l       *ABS*	00000000 MODE_UND
0000001f l       *ABS*	00000000 MODE_SYS
00000080 l       *ABS*	00000000 I_BIT
00000040 l       *ABS*	00000000 F_BIT
00000000 l    df *ABS*	00000000 _udivsi3.o
000081c0 l       .text	00000000 .udivsi3_skip_div0_test
00000000 l    df *ABS*	00000000 _dvmd_tls.o
00000000 l    df *ABS*	00000000 _arm_addsubdf3.o
00000000 l    df *ABS*	00000000 _arm_muldivdf3.o
00000000 l    df *ABS*	00000000 _arm_fixdfsi.o
00000000 l    df *ABS*	00000000 _arm_truncdfsf2.o
00000000 l    df *ABS*	00000000 _arm_cmpsf2.o
00000000 l    df *ABS*	00000000 _arm_fixsfsi.o
00000000 l    df *ABS*	00000000 chsys.c
0000c110 l     O .bss	00000044 mainthread.4699
00000000 l    df *ABS*	00000000 chvt.c
00000000 l    df *ABS*	00000000 chschd.c
00009030 l     F .text	000000ac wakeup
00000000 l    df *ABS*	00000000 chthreads.c
00000000 l    df *ABS*	00000000 chdynamic.c
00000000 l    df *ABS*	00000000 chmtx.c
00000000 l    df *ABS*	00000000 chevents.c
00000000 l    df *ABS*	00000000 chqueues.c
00009ab0 l     F .text	0000003c qwait
00000000 l    df *ABS*	00000000 chmemcore.c
0000c154 l     O .bss	00000004 endmem
0000c158 l     O .bss	00000004 nextmem
00000000 l    df *ABS*	00000000 chheap.c
0000c15c l     O .bss	0000001c default_heap
00000000 l    df *ABS*	00000000 hal.c
00000000 l    df *ABS*	00000000 i2c.c
00000000 l    df *ABS*	00000000 serial.c
0000a1b0 l     F .text	00000008 readt
0000a1c0 l     F .text	0000000c read
0000a1d0 l     F .text	00000008 writet
0000a1e0 l     F .text	0000000c write
0000a1f0 l     F .text	00000008 gett
0000a200 l     F .text	0000000c get
0000a210 l     F .text	00000008 putt
0000a220 l     F .text	0000000c put
0000bd90 l     O .text	00000020 vmt
00000000 l    df *ABS*	00000000 spi.c
00000000 l    df *ABS*	00000000 tm.c
0000a380 l     F .text	00000014 tm_start
0000a3a0 l     F .text	00000048 tm_stop
0000c178 l     O .bss	00000004 measurement_offset
00000000 l    df *ABS*	00000000 hal_lld.c
00000000 l    df *ABS*	00000000 pal_lld.c
0000a530 l     F .text	00000050 set_gpio_in.isra.0
0000a580 l     F .text	00000044 set_gpio_pud.isra.1
00000000 l    df *ABS*	00000000 serial_lld.c
0000a760 l     F .text	00000018 output_notify
0000bdb0 l     O .text	00000004 default_config
00000000 l    df *ABS*	00000000 i2c_lld.c
00000000 l    df *ABS*	00000000 spi_lld.c
00000000 l    df *ABS*	00000000 bcm2835.c
00000000 l    df *ABS*	00000000 board.c
00000000 l    df *ABS*	00000000 shell.c
0000ad00 l     F .text	00000034 cmd_systime
0000ad40 l     F .text	000000e8 cmd_info
0000ae30 l     F .text	00000074 _strtok.constprop.2
0000b010 l     F .text	0000029c shell_thread
0000c0f4 l     O .data	00000018 local_commands
00000000 l    df *ABS*	00000000 chprintf.c
0000b2b0 l     F .text	00000090 long_to_string_with_divisor
00000000 l    df *ABS*	00000000 main.c
0000b9e0 l     F .text	00000058 Thread1
0000ba40 l     F .text	0000001c cmd_reboot
0000bf90 l     O .text	00000010 commands
0000c17c l     O .bss	00000118 waThread1
0000bfe0 l     O .text	00000008 shell_config
00000000 l    df *ABS*	00000000 strcasecmp.c
00000000 l    df *ABS*	00000000 strchr.c
00000000 l    df *ABS*	00000000 strspn.c
00000000 l    df *ABS*	00000000 chregistry.c
00000000 l    df *ABS*	00000000 ctype_.c
0000bdc0 g     O .text	00000000 pal_default_config
00008ed0 g     F .text	00000090 chSysTimerHandlerI
00009680 g     F .text	00000008 chThdExit
00009a70 g     F .text	00000040 chEvtBroadcastFlagsI
000091b0 g     F .text	00000074 chSchGoSleepTimeoutS
0000a180 g     F .text	00000004 i2cInit
000097d0 g     F .text	0000017c chMtxLockS
000086ac g     F .text	00000060 .hidden __floatdidf
0000a090 g     F .text	000000bc chHeapFree
0000aab0 g     F .text	0000019c spi_lld_serve_interrupt
0000a740 g     F .text	0000001c _pal_lld_writeport
000081b0 g       .text	00000000 get_cpsr
0000c0f4 g       .text	00000000 __exidx_end
00008dd0 g     F .text	0000005c .hidden __fixsfsi
00009160 g     F .text	00000044 chSchGoSleepS
00008180  w      .text	00000000 UndHandler
0000c46c g       *ABS*	00000000 __heap_base__
0000c400 g     O .bss	00000040 I2C0
0000c0f4 g       .data	00000000 _etext
000094a0 g     F .text	00000094 chThdCreateI
0000c35c g     O .bss	00000018 IOPORT1
0000049c g       *ABS*	00000000 __stacks_total_size__
00009230 g     F .text	000000a0 chSchWakeupS
0000a2c0 g     F .text	0000004c sdIncomingDataI
00009dc0 g     F .text	00000080 chOQGetI
000090e0 g     F .text	00000024 _scheduler_init
00009540 g     F .text	000000ac chThdCreateStatic
00008dac g     F .text	00000018 .hidden __aeabi_fcmpgt
00008630 g     F .text	00000028 .hidden __floatsidf
00009110 g     F .text	00000044 chSchReadyI
00008f60 g     F .text	00000024 _vt_init
000081c0 g     F .text	000000f4 .hidden __udivsi3
00009f80 g     F .text	00000028 _heap_init
0000a150 g     F .text	0000002c halInit
00008cb8 g     F .text	0000006c .hidden __lesf2
0000c110 g       .bss	00000000 _bss_start
00009320 g     F .text	00000078 chSchDoRescheduleBehind
06007b44 g       *ABS*	00000000 __heap_end__
00009740 g     F .text	00000068 chThdCreateFromHeap
0000860c g     F .text	00000024 .hidden __aeabi_ui2d
0000c374 g     O .bss	00000018 IOPORT0
0000a4f0 g     F .text	00000034 watchdog_start
000082f0 g     F .text	00000000 .hidden __aeabi_drsub
00000004 g       *ABS*	00000000 __abt_stack_size__
00008040 g       .text	00000000 ResetHandler
00009c40 g     F .text	000000a8 chIQReadTimeout
0000a4a0 g     F .text	00000050 hal_lld_init
00008658 g     F .text	00000040 .hidden __extendsfdf2
000089a0 g     F .text	0000020c .hidden __aeabi_ddiv
000082fc g     F .text	00000310 .hidden __adddf3
00008cc0 g     F .text	00000064 .hidden __nesf2
0000ac50 g     F .text	0000000c spi_lld_init
0000c0f4 g       .text	00000000 __exidx_start
00008710 g     F .text	00000290 .hidden __aeabi_dmul
0000ac60 g     F .text	0000004c bcm2835_gpio_fnsel
00009610 g     F .text	0000006c chThdExitS
0000c468 g     O .bss	00000004 shell_terminated
0000860c g     F .text	00000024 .hidden __floatunsidf
0000c440 g     O .bss	00000028 SPI0
0000aeb0 g     F .text	00000010 shellInit
00008c10 g     F .text	000000a0 .hidden __aeabi_d2f
00008f90 g     F .text	00000060 chVTSetI
0000c46c g       .bss	00000000 _bss_end
0000a660 g     F .text	000000e0 _pal_lld_setgroupmode
00008d94 g     F .text	00000018 .hidden __aeabi_fcmpge
00008bb0 g     F .text	0000005c .hidden __fixdfsi
0000a830 g     F .text	00000018 sd_lld_init
00008cb0 g     F .text	00000074 .hidden __gtsf2
000082fc g     F .text	00000310 .hidden __aeabi_dadd
00009950 g     F .text	00000014 chMtxLock
00008d7c g     F .text	00000018 .hidden __aeabi_fcmple
00008698 g     F .text	00000074 .hidden __aeabi_ul2d
00009410 g     F .text	00000020 chSchDoReschedule
00008e50 g     F .text	00000078 chSysInit
000095f0 g     F .text	0000001c chThdSleep
00009af0 g     F .text	00000038 chIQInit
0000a310 g     F .text	00000034 sdRequestDataI
0000a360 g     F .text	0000001c spiObjectInit
0000a5d0 g     F .text	0000008c _pal_lld_init
0000a230 g     F .text	00000004 sdInit
000082f8 g     F .text	00000314 .hidden __aeabi_dsub
00009ef0 g     F .text	00000034 _core_init
00008698 g     F .text	00000074 .hidden __floatundidf
0000a2a0 g     F .text	00000020 sdStart
00000080 g       *ABS*	00000000 __irq_stack_size__
000080f0 g       .text	00000000 _port_switch_arm
00000400 g       *ABS*	00000000 __sys_stack_size__
05ffffe0 g       *ABS*	00000000 __ram_size__
00008dd0 g     F .text	0000005c .hidden __aeabi_f2iz
00008cc0 g     F .text	00000064 .hidden __eqsf2
0000bb10 g     F .text	0000006c strcasecmp
000081a0 g       .text	00000000 arm_enable_irq
0000c330 g     O .bss	00000010 vtlist
00009f30 g     F .text	00000044 chCoreAlloc
0000aec0 g     F .text	00000024 shellCreate
00008630 g     F .text	00000028 .hidden __aeabi_i2d
00009fb0 g     F .text	000000d4 chHeapAlloc
0000a920 g     F .text	00000164 i2c_lld_serve_interrupt
000082e0  w    F .text	00000004 .hidden __aeabi_ldiv0
000089a0 g     F .text	0000020c .hidden __divdf3
00008710 g     F .text	00000290 .hidden __muldf3
0000c0f4 g       *ABS*	00000000 _textdata
00008000 g       .text	00000000 _text
00008180  w      .text	00000000 PrefetchHandler
00008cc0 g     F .text	00000064 .hidden __cmpsf2
0000ba60 g     F .text	000000a4 main
0000c340 g     O .bss	0000001c rlist
00008cb8 g     F .text	0000006c .hidden __ltsf2
0000a350 g     F .text	00000004 spiInit
000081c0 g     F .text	00000000 .hidden __aeabi_uidiv
00008c10 g     F .text	000000a0 .hidden __truncdfsf2
000086ac g     F .text	00000060 .hidden __aeabi_l2d
000097b0 g     F .text	00000014 chMtxInit
00008e30 g     F .text	00000020 _idle_thread
00009e40 g     F .text	000000ac chOQWriteTimeout
00008d34 g     F .text	00000018 .hidden __aeabi_cfcmple
0000bd70 g     O .text	00000016 ch_debug
0000b340 g     F .text	00000694 chprintf
00009a10 g     F .text	00000054 chEvtSignalI
00008000 g       .text	00000000 __ram_start__
00008160 g       .text	00000000 _port_thread_start
0000acb0 g     F .text	0000003c bcm2835_delay
000093a0 g     F .text	00000070 chSchDoRescheduleAhead
0000aa90 g     F .text	0000001c i2c_lld_init
00008cb0 g     F .text	00000074 .hidden __gesf2
00008d4c g     F .text	00000018 .hidden __aeabi_fcmpeq
0000a190 g     F .text	00000018 i2cObjectInit
0000aef0 g     F .text	00000118 shellGetLine
000096e0 g     F .text	00000054 chThdRelease
00008d24 g     F .text	00000028 .hidden __aeabi_cfrcmple
0000c294 g     O .bss	0000009c _idle_thread_wa
00009cf0 g     F .text	00000034 chOQInit
00009bc0 g     F .text	00000074 chIQGetTimeout
0000c0f4 g       .data	00000000 _data
00008100 g       .text	00000000 _port_irq_common
00008180  w      .text	00000000 AbortHandler
00009b30 g     F .text	00000088 chIQPutI
0000a3f0 g     F .text	00000064 tmInit
00008d64 g     F .text	00000018 .hidden __aeabi_fcmplt
00009970 g     F .text	000000a0 chMtxUnlock
000082b4 g     F .text	00000020 .hidden __aeabi_uidivmod
0000c110 g       .data	00000000 _edata
06007fe0 g       *ABS*	00000000 __ram_end__
0000c46c g       .bss	00000000 _end
00008ff0 g     F .text	0000003c chVTResetI
00008180 g       .text	00000000 _unhandled_exception
0000a240 g     F .text	00000060 sdObjectInit
06007b44 g       *ABS*	00000000 __main_thread_stack_base__
0000a780 g     F .text	000000ac sd_lld_serve_interrupt
0000a460 g     F .text	00000040 IrqHandler
00008bb0 g     F .text	0000005c .hidden __aeabi_d2iz
0000c10c g     O .data	00000004 __ctype_ptr__
00008d34 g     F .text	00000018 .hidden __aeabi_cfcmpeq
00008180  w      .text	00000000 SwiHandler
0000bff0 g     O .text	00000101 _ctype_
000082e0  w    F .text	00000004 .hidden __aeabi_idiv0
00009690 g     F .text	00000050 chThdWait
000092d0 g     F .text	00000044 chSchIsPreemptionRequired
0000c38c g     O .bss	00000074 SD1
00000010 g       *ABS*	00000000 __fiq_stack_size__
0000bce0 g     F .text	00000070 strspn
00009430 g     F .text	00000070 _thread_init
00000004 g       *ABS*	00000000 __svc_stack_size__
00000004 g       *ABS*	00000000 __und_stack_size__
0000bb80 g     F .text	00000160 strchr
00009d30 g     F .text	0000008c chOQPutTimeout
00008658 g     F .text	00000040 .hidden __aeabi_f2d
0000acf0 g     F .text	00000004 boardInit
0000a850 g     F .text	000000c4 sd_lld_start
000080c0  w      .text	00000000 _main_exit_handler
000082f8 g     F .text	00000314 .hidden __subdf3
00008184 g       .text	00000000 __early_init
00008180  w      .text	00000000 FiqHandler



Disassembly of section .text:

00008000 <__ram_start__>:
    8000:	e59ff018 	ldr	pc, [pc, #24]	; 8020 <_reset>
    8004:	e59ff018 	ldr	pc, [pc, #24]	; 8024 <_undefined>
    8008:	e59ff018 	ldr	pc, [pc, #24]	; 8028 <_swi>
    800c:	e59ff018 	ldr	pc, [pc, #24]	; 802c <_prefetch>
    8010:	e59ff018 	ldr	pc, [pc, #24]	; 8030 <_abort>
    8014:	e320f000 	nop	{0}
    8018:	e59ff018 	ldr	pc, [pc, #24]	; 8038 <_irq>
    801c:	e59ff018 	ldr	pc, [pc, #24]	; 803c <_fiq>

00008020 <_reset>:
    8020:	00008040 	andeq	r8, r0, r0, asr #32

00008024 <_undefined>:
    8024:	00008180 	andeq	r8, r0, r0, lsl #3

00008028 <_swi>:
    8028:	00008180 	andeq	r8, r0, r0, lsl #3

0000802c <_prefetch>:
    802c:	00008180 	andeq	r8, r0, r0, lsl #3

00008030 <_abort>:
    8030:	00008180 	andeq	r8, r0, r0, lsl #3
    8034:	00000000 	andeq	r0, r0, r0

00008038 <_irq>:
    8038:	0000a460 	andeq	sl, r0, r0, ror #8

0000803c <_fiq>:
    803c:	00008180 	andeq	r8, r0, r0, lsl #3

00008040 <ResetHandler>:
    8040:	e59f0080 	ldr	r0, [pc, #128]	; 80c8 <hwinit0+0x4>
    8044:	e321f0db 	msr	CPSR_c, #219	; 0xdb
    8048:	e1a0d000 	mov	sp, r0
    804c:	e59f1078 	ldr	r1, [pc, #120]	; 80cc <hwinit0+0x8>
    8050:	e0400001 	sub	r0, r0, r1
    8054:	e321f0d7 	msr	CPSR_c, #215	; 0xd7
    8058:	e1a0d000 	mov	sp, r0
    805c:	e59f106c 	ldr	r1, [pc, #108]	; 80d0 <hwinit0+0xc>
    8060:	e0400001 	sub	r0, r0, r1
    8064:	e321f0d1 	msr	CPSR_c, #209	; 0xd1
    8068:	e1a0d000 	mov	sp, r0
    806c:	e59f1060 	ldr	r1, [pc, #96]	; 80d4 <hwinit0+0x10>
    8070:	e0400001 	sub	r0, r0, r1
    8074:	e321f0d2 	msr	CPSR_c, #210	; 0xd2
    8078:	e1a0d000 	mov	sp, r0
    807c:	e59f1054 	ldr	r1, [pc, #84]	; 80d8 <hwinit0+0x14>
    8080:	e0400001 	sub	r0, r0, r1
    8084:	e321f0d3 	msr	CPSR_c, #211	; 0xd3
    8088:	e1a0d000 	mov	sp, r0
    808c:	e59f1048 	ldr	r1, [pc, #72]	; 80dc <hwinit0+0x18>
    8090:	e0400001 	sub	r0, r0, r1
    8094:	e321f0df 	msr	CPSR_c, #223	; 0xdf
    8098:	e1a0d000 	mov	sp, r0
    809c:	eb000038 	bl	8184 <__early_init>
    80a0:	e3a00000 	mov	r0, #0
    80a4:	e59f1034 	ldr	r1, [pc, #52]	; 80e0 <hwinit0+0x1c>
    80a8:	e59f2034 	ldr	r2, [pc, #52]	; 80e4 <hwinit0+0x20>

000080ac <bssloop>:
    80ac:	e1510002 	cmp	r1, r2
    80b0:	34810004 	strcc	r0, [r1], #4
    80b4:	3afffffc 	bcc	80ac <bssloop>
    80b8:	eb000e68 	bl	ba60 <main>
    80bc:	eaffffff 	b	80c0 <_main_exit_handler>

000080c0 <_main_exit_handler>:
    80c0:	eafffffe 	b	80c0 <_main_exit_handler>

000080c4 <hwinit0>:
    80c4:	e12fff1e 	bx	lr
    80c8:	06007fe0 	streq	r7, [r0], -r0, ror #31
    80cc:	00000004 	andeq	r0, r0, r4
    80d0:	00000004 	andeq	r0, r0, r4
    80d4:	00000010 	andeq	r0, r0, r0, lsl r0
    80d8:	00000080 	andeq	r0, r0, r0, lsl #1
    80dc:	00000004 	andeq	r0, r0, r4
    80e0:	0000c110 	andeq	ip, r0, r0, lsl r1
    80e4:	0000c46c 	andeq	ip, r0, ip, ror #8
	...

000080f0 <_port_switch_arm>:
    80f0:	e92d4ff0 	push	{r4, r5, r6, r7, r8, r9, sl, fp, lr}
    80f4:	e581d00c 	str	sp, [r1, #12]
    80f8:	e590d00c 	ldr	sp, [r0, #12]
    80fc:	e8bd8ff0 	pop	{r4, r5, r6, r7, r8, r9, sl, fp, pc}

00008100 <_port_irq_common>:
    8100:	eb000472 	bl	92d0 <chSchIsPreemptionRequired>
    8104:	e3500000 	cmp	r0, #0
    8108:	08bd500f 	popeq	{r0, r1, r2, r3, ip, lr}
    810c:	025ef004 	subseq	pc, lr, #4
    8110:	e8bd500f 	pop	{r0, r1, r2, r3, ip, lr}
    8114:	e321f09f 	msr	CPSR_c, #159	; 0x9f
    8118:	e92d500f 	push	{r0, r1, r2, r3, ip, lr}
    811c:	e321f092 	msr	CPSR_c, #146	; 0x92
    8120:	e14f0000 	mrs	r0, SPSR
    8124:	e1a0100e 	mov	r1, lr
    8128:	e321f09f 	msr	CPSR_c, #159	; 0x9f
    812c:	e92d0003 	push	{r0, r1}
    8130:	eb0004b6 	bl	9410 <chSchDoReschedule>
    8134:	e8bd0003 	pop	{r0, r1}
    8138:	e321f092 	msr	CPSR_c, #146	; 0x92
    813c:	e16ff000 	msr	SPSR_fsxc, r0
    8140:	e1a0e001 	mov	lr, r1
    8144:	e321f09f 	msr	CPSR_c, #159	; 0x9f
    8148:	e8bd500f 	pop	{r0, r1, r2, r3, ip, lr}
    814c:	e321f092 	msr	CPSR_c, #146	; 0x92
    8150:	e25ef004 	subs	pc, lr, #4
    8154:	e320f000 	nop	{0}
    8158:	e320f000 	nop	{0}
    815c:	e320f000 	nop	{0}

00008160 <_port_thread_start>:
    8160:	e321f01f 	msr	CPSR_c, #31
    8164:	e1a00005 	mov	r0, r5
    8168:	e1a0e00f 	mov	lr, pc
    816c:	e12fff14 	bx	r4
    8170:	eb000542 	bl	9680 <chThdExit>
	...

00008180 <_unhandled_exception>:
    8180:	eafffffe 	b	8180 <_unhandled_exception>

00008184 <__early_init>:
    8184:	e3a00902 	mov	r0, #32768	; 0x8000
    8188:	e3a01000 	mov	r1, #0
    818c:	e8b003fc 	ldm	r0!, {r2, r3, r4, r5, r6, r7, r8, r9}
    8190:	e8a103fc 	stmia	r1!, {r2, r3, r4, r5, r6, r7, r8, r9}
    8194:	e8b003fc 	ldm	r0!, {r2, r3, r4, r5, r6, r7, r8, r9}
    8198:	e8a103fc 	stmia	r1!, {r2, r3, r4, r5, r6, r7, r8, r9}
    819c:	e12fff1e 	bx	lr

000081a0 <arm_enable_irq>:
    81a0:	e10f0000 	mrs	r0, CPSR
    81a4:	e3c00080 	bic	r0, r0, #128	; 0x80
    81a8:	e121f000 	msr	CPSR_c, r0
    81ac:	e12fff1e 	bx	lr

000081b0 <get_cpsr>:
    81b0:	e10f0000 	mrs	r0, CPSR
    81b4:	e12fff1e 	bx	lr
	...

000081c0 <__aeabi_uidiv>:
    81c0:	e2512001 	subs	r2, r1, #1
    81c4:	012fff1e 	bxeq	lr
    81c8:	3a000036 	bcc	82a8 <__aeabi_uidiv+0xe8>
    81cc:	e1500001 	cmp	r0, r1
    81d0:	9a000022 	bls	8260 <__aeabi_uidiv+0xa0>
    81d4:	e1110002 	tst	r1, r2
    81d8:	0a000023 	beq	826c <__aeabi_uidiv+0xac>
    81dc:	e311020e 	tst	r1, #-536870912	; 0xe0000000
    81e0:	01a01181 	lsleq	r1, r1, #3
    81e4:	03a03008 	moveq	r3, #8
    81e8:	13a03001 	movne	r3, #1
    81ec:	e3510201 	cmp	r1, #268435456	; 0x10000000
    81f0:	31510000 	cmpcc	r1, r0
    81f4:	31a01201 	lslcc	r1, r1, #4
    81f8:	31a03203 	lslcc	r3, r3, #4
    81fc:	3afffffa 	bcc	81ec <__aeabi_uidiv+0x2c>
    8200:	e3510102 	cmp	r1, #-2147483648	; 0x80000000
    8204:	31510000 	cmpcc	r1, r0
    8208:	31a01081 	lslcc	r1, r1, #1
    820c:	31a03083 	lslcc	r3, r3, #1
    8210:	3afffffa 	bcc	8200 <__aeabi_uidiv+0x40>
    8214:	e3a02000 	mov	r2, #0
    8218:	e1500001 	cmp	r0, r1
    821c:	20400001 	subcs	r0, r0, r1
    8220:	21822003 	orrcs	r2, r2, r3
    8224:	e15000a1 	cmp	r0, r1, lsr #1
    8228:	204000a1 	subcs	r0, r0, r1, lsr #1
    822c:	218220a3 	orrcs	r2, r2, r3, lsr #1
    8230:	e1500121 	cmp	r0, r1, lsr #2
    8234:	20400121 	subcs	r0, r0, r1, lsr #2
    8238:	21822123 	orrcs	r2, r2, r3, lsr #2
    823c:	e15001a1 	cmp	r0, r1, lsr #3
    8240:	204001a1 	subcs	r0, r0, r1, lsr #3
    8244:	218221a3 	orrcs	r2, r2, r3, lsr #3
    8248:	e3500000 	cmp	r0, #0
    824c:	11b03223 	lsrsne	r3, r3, #4
    8250:	11a01221 	lsrne	r1, r1, #4
    8254:	1affffef 	bne	8218 <__aeabi_uidiv+0x58>
    8258:	e1a00002 	mov	r0, r2
    825c:	e12fff1e 	bx	lr
    8260:	03a00001 	moveq	r0, #1
    8264:	13a00000 	movne	r0, #0
    8268:	e12fff1e 	bx	lr
    826c:	e3510801 	cmp	r1, #65536	; 0x10000
    8270:	21a01821 	lsrcs	r1, r1, #16
    8274:	23a02010 	movcs	r2, #16
    8278:	33a02000 	movcc	r2, #0
    827c:	e3510c01 	cmp	r1, #256	; 0x100
    8280:	21a01421 	lsrcs	r1, r1, #8
    8284:	22822008 	addcs	r2, r2, #8
    8288:	e3510010 	cmp	r1, #16
    828c:	21a01221 	lsrcs	r1, r1, #4
    8290:	22822004 	addcs	r2, r2, #4
    8294:	e3510004 	cmp	r1, #4
    8298:	82822003 	addhi	r2, r2, #3
    829c:	908220a1 	addls	r2, r2, r1, lsr #1
    82a0:	e1a00230 	lsr	r0, r0, r2
    82a4:	e12fff1e 	bx	lr
    82a8:	e3500000 	cmp	r0, #0
    82ac:	13e00000 	mvnne	r0, #0
    82b0:	ea00000a 	b	82e0 <__aeabi_idiv0>

000082b4 <__aeabi_uidivmod>:
    82b4:	e3510000 	cmp	r1, #0
    82b8:	0afffffa 	beq	82a8 <__aeabi_uidiv+0xe8>
    82bc:	e92d4003 	push	{r0, r1, lr}
    82c0:	ebffffbe 	bl	81c0 <__aeabi_uidiv>
    82c4:	e8bd4006 	pop	{r1, r2, lr}
    82c8:	e0030092 	mul	r3, r2, r0
    82cc:	e0411003 	sub	r1, r1, r3
    82d0:	e12fff1e 	bx	lr
	...

000082e0 <__aeabi_idiv0>:
    82e0:	e12fff1e 	bx	lr
	...

000082f0 <__aeabi_drsub>:
    82f0:	e2211102 	eor	r1, r1, #-2147483648	; 0x80000000
    82f4:	ea000000 	b	82fc <__adddf3>

000082f8 <__aeabi_dsub>:
    82f8:	e2233102 	eor	r3, r3, #-2147483648	; 0x80000000

000082fc <__adddf3>:
    82fc:	e92d4030 	push	{r4, r5, lr}
    8300:	e1a04081 	lsl	r4, r1, #1
    8304:	e1a05083 	lsl	r5, r3, #1
    8308:	e1340005 	teq	r4, r5
    830c:	01300002 	teqeq	r0, r2
    8310:	1194c000 	orrsne	ip, r4, r0
    8314:	1195c002 	orrsne	ip, r5, r2
    8318:	11f0cac4 	mvnsne	ip, r4, asr #21
    831c:	11f0cac5 	mvnsne	ip, r5, asr #21
    8320:	0a00008c 	beq	8558 <__adddf3+0x25c>
    8324:	e1a04aa4 	lsr	r4, r4, #21
    8328:	e0745aa5 	rsbs	r5, r4, r5, lsr #21
    832c:	b2655000 	rsblt	r5, r5, #0
    8330:	da000006 	ble	8350 <__adddf3+0x54>
    8334:	e0844005 	add	r4, r4, r5
    8338:	e0202002 	eor	r2, r0, r2
    833c:	e0213003 	eor	r3, r1, r3
    8340:	e0220000 	eor	r0, r2, r0
    8344:	e0231001 	eor	r1, r3, r1
    8348:	e0202002 	eor	r2, r0, r2
    834c:	e0213003 	eor	r3, r1, r3
    8350:	e3550036 	cmp	r5, #54	; 0x36
    8354:	88bd4030 	pophi	{r4, r5, lr}
    8358:	812fff1e 	bxhi	lr
    835c:	e3110102 	tst	r1, #-2147483648	; 0x80000000
    8360:	e1a01601 	lsl	r1, r1, #12
    8364:	e3a0c601 	mov	ip, #1048576	; 0x100000
    8368:	e18c1621 	orr	r1, ip, r1, lsr #12
    836c:	0a000001 	beq	8378 <__adddf3+0x7c>
    8370:	e2700000 	rsbs	r0, r0, #0
    8374:	e2e11000 	rsc	r1, r1, #0
    8378:	e3130102 	tst	r3, #-2147483648	; 0x80000000
    837c:	e1a03603 	lsl	r3, r3, #12
    8380:	e18c3623 	orr	r3, ip, r3, lsr #12
    8384:	0a000001 	beq	8390 <__adddf3+0x94>
    8388:	e2722000 	rsbs	r2, r2, #0
    838c:	e2e33000 	rsc	r3, r3, #0
    8390:	e1340005 	teq	r4, r5
    8394:	0a000069 	beq	8540 <__adddf3+0x244>
    8398:	e2444001 	sub	r4, r4, #1
    839c:	e275e020 	rsbs	lr, r5, #32
    83a0:	ba000005 	blt	83bc <__adddf3+0xc0>
    83a4:	e1a0ce12 	lsl	ip, r2, lr
    83a8:	e0900532 	adds	r0, r0, r2, lsr r5
    83ac:	e2a11000 	adc	r1, r1, #0
    83b0:	e0900e13 	adds	r0, r0, r3, lsl lr
    83b4:	e0b11553 	adcs	r1, r1, r3, asr r5
    83b8:	ea000006 	b	83d8 <__adddf3+0xdc>
    83bc:	e2455020 	sub	r5, r5, #32
    83c0:	e28ee020 	add	lr, lr, #32
    83c4:	e3520001 	cmp	r2, #1
    83c8:	e1a0ce13 	lsl	ip, r3, lr
    83cc:	238cc002 	orrcs	ip, ip, #2
    83d0:	e0900553 	adds	r0, r0, r3, asr r5
    83d4:	e0b11fc3 	adcs	r1, r1, r3, asr #31
    83d8:	e2015102 	and	r5, r1, #-2147483648	; 0x80000000
    83dc:	5a000002 	bpl	83ec <__adddf3+0xf0>
    83e0:	e27cc000 	rsbs	ip, ip, #0
    83e4:	e2f00000 	rscs	r0, r0, #0
    83e8:	e2e11000 	rsc	r1, r1, #0
    83ec:	e3510601 	cmp	r1, #1048576	; 0x100000
    83f0:	3a00000f 	bcc	8434 <__adddf3+0x138>
    83f4:	e3510602 	cmp	r1, #2097152	; 0x200000
    83f8:	3a000006 	bcc	8418 <__adddf3+0x11c>
    83fc:	e1b010a1 	lsrs	r1, r1, #1
    8400:	e1b00060 	rrxs	r0, r0
    8404:	e1a0c06c 	rrx	ip, ip
    8408:	e2844001 	add	r4, r4, #1
    840c:	e1a02a84 	lsl	r2, r4, #21
    8410:	e3720501 	cmn	r2, #4194304	; 0x400000
    8414:	2a00006b 	bcs	85c8 <__adddf3+0x2cc>
    8418:	e35c0102 	cmp	ip, #-2147483648	; 0x80000000
    841c:	01b0c0a0 	lsrseq	ip, r0, #1
    8420:	e2b00000 	adcs	r0, r0, #0
    8424:	e0a11a04 	adc	r1, r1, r4, lsl #20
    8428:	e1811005 	orr	r1, r1, r5
    842c:	e8bd4030 	pop	{r4, r5, lr}
    8430:	e12fff1e 	bx	lr
    8434:	e1b0c08c 	lsls	ip, ip, #1
    8438:	e0b00000 	adcs	r0, r0, r0
    843c:	e0a11001 	adc	r1, r1, r1
    8440:	e3110601 	tst	r1, #1048576	; 0x100000
    8444:	e2444001 	sub	r4, r4, #1
    8448:	1afffff2 	bne	8418 <__adddf3+0x11c>
    844c:	e3310000 	teq	r1, #0
    8450:	13a03014 	movne	r3, #20
    8454:	03a03034 	moveq	r3, #52	; 0x34
    8458:	01a01000 	moveq	r1, r0
    845c:	03a00000 	moveq	r0, #0
    8460:	e1a02001 	mov	r2, r1
    8464:	e3520801 	cmp	r2, #65536	; 0x10000
    8468:	21a02822 	lsrcs	r2, r2, #16
    846c:	22433010 	subcs	r3, r3, #16
    8470:	e3520c01 	cmp	r2, #256	; 0x100
    8474:	21a02422 	lsrcs	r2, r2, #8
    8478:	22433008 	subcs	r3, r3, #8
    847c:	e3520010 	cmp	r2, #16
    8480:	21a02222 	lsrcs	r2, r2, #4
    8484:	22433004 	subcs	r3, r3, #4
    8488:	e3520004 	cmp	r2, #4
    848c:	22433002 	subcs	r3, r3, #2
    8490:	304330a2 	subcc	r3, r3, r2, lsr #1
    8494:	e04331a2 	sub	r3, r3, r2, lsr #3
    8498:	e2532020 	subs	r2, r3, #32
    849c:	aa000007 	bge	84c0 <__adddf3+0x1c4>
    84a0:	e292200c 	adds	r2, r2, #12
    84a4:	da000004 	ble	84bc <__adddf3+0x1c0>
    84a8:	e282c014 	add	ip, r2, #20
    84ac:	e262200c 	rsb	r2, r2, #12
    84b0:	e1a00c11 	lsl	r0, r1, ip
    84b4:	e1a01231 	lsr	r1, r1, r2
    84b8:	ea000004 	b	84d0 <__adddf3+0x1d4>
    84bc:	e2822014 	add	r2, r2, #20
    84c0:	d262c020 	rsble	ip, r2, #32
    84c4:	e1a01211 	lsl	r1, r1, r2
    84c8:	d1811c30 	orrle	r1, r1, r0, lsr ip
    84cc:	d1a00210 	lslle	r0, r0, r2
    84d0:	e0544003 	subs	r4, r4, r3
    84d4:	a0811a04 	addge	r1, r1, r4, lsl #20
    84d8:	a1811005 	orrge	r1, r1, r5
    84dc:	a8bd4030 	popge	{r4, r5, lr}
    84e0:	a12fff1e 	bxge	lr
    84e4:	e1e04004 	mvn	r4, r4
    84e8:	e254401f 	subs	r4, r4, #31
    84ec:	aa00000f 	bge	8530 <__adddf3+0x234>
    84f0:	e294400c 	adds	r4, r4, #12
    84f4:	ca000006 	bgt	8514 <__adddf3+0x218>
    84f8:	e2844014 	add	r4, r4, #20
    84fc:	e2642020 	rsb	r2, r4, #32
    8500:	e1a00430 	lsr	r0, r0, r4
    8504:	e1800211 	orr	r0, r0, r1, lsl r2
    8508:	e1851431 	orr	r1, r5, r1, lsr r4
    850c:	e8bd4030 	pop	{r4, r5, lr}
    8510:	e12fff1e 	bx	lr
    8514:	e264400c 	rsb	r4, r4, #12
    8518:	e2642020 	rsb	r2, r4, #32
    851c:	e1a00230 	lsr	r0, r0, r2
    8520:	e1800411 	orr	r0, r0, r1, lsl r4
    8524:	e1a01005 	mov	r1, r5
    8528:	e8bd4030 	pop	{r4, r5, lr}
    852c:	e12fff1e 	bx	lr
    8530:	e1a00431 	lsr	r0, r1, r4
    8534:	e1a01005 	mov	r1, r5
    8538:	e8bd4030 	pop	{r4, r5, lr}
    853c:	e12fff1e 	bx	lr
    8540:	e3340000 	teq	r4, #0
    8544:	e2233601 	eor	r3, r3, #1048576	; 0x100000
    8548:	02211601 	eoreq	r1, r1, #1048576	; 0x100000
    854c:	02844001 	addeq	r4, r4, #1
    8550:	12455001 	subne	r5, r5, #1
    8554:	eaffff8f 	b	8398 <__adddf3+0x9c>
    8558:	e1f0cac4 	mvns	ip, r4, asr #21
    855c:	11f0cac5 	mvnsne	ip, r5, asr #21
    8560:	0a00001d 	beq	85dc <__adddf3+0x2e0>
    8564:	e1340005 	teq	r4, r5
    8568:	01300002 	teqeq	r0, r2
    856c:	0a000004 	beq	8584 <__adddf3+0x288>
    8570:	e194c000 	orrs	ip, r4, r0
    8574:	01a01003 	moveq	r1, r3
    8578:	01a00002 	moveq	r0, r2
    857c:	e8bd4030 	pop	{r4, r5, lr}
    8580:	e12fff1e 	bx	lr
    8584:	e1310003 	teq	r1, r3
    8588:	13a01000 	movne	r1, #0
    858c:	13a00000 	movne	r0, #0
    8590:	18bd4030 	popne	{r4, r5, lr}
    8594:	112fff1e 	bxne	lr
    8598:	e1b0caa4 	lsrs	ip, r4, #21
    859c:	1a000004 	bne	85b4 <__adddf3+0x2b8>
    85a0:	e1b00080 	lsls	r0, r0, #1
    85a4:	e0b11001 	adcs	r1, r1, r1
    85a8:	23811102 	orrcs	r1, r1, #-2147483648	; 0x80000000
    85ac:	e8bd4030 	pop	{r4, r5, lr}
    85b0:	e12fff1e 	bx	lr
    85b4:	e2944501 	adds	r4, r4, #4194304	; 0x400000
    85b8:	32811601 	addcc	r1, r1, #1048576	; 0x100000
    85bc:	38bd4030 	popcc	{r4, r5, lr}
    85c0:	312fff1e 	bxcc	lr
    85c4:	e2015102 	and	r5, r1, #-2147483648	; 0x80000000
    85c8:	e385147f 	orr	r1, r5, #2130706432	; 0x7f000000
    85cc:	e381160f 	orr	r1, r1, #15728640	; 0xf00000
    85d0:	e3a00000 	mov	r0, #0
    85d4:	e8bd4030 	pop	{r4, r5, lr}
    85d8:	e12fff1e 	bx	lr
    85dc:	e1f0cac4 	mvns	ip, r4, asr #21
    85e0:	11a01003 	movne	r1, r3
    85e4:	11a00002 	movne	r0, r2
    85e8:	01f0cac5 	mvnseq	ip, r5, asr #21
    85ec:	11a03001 	movne	r3, r1
    85f0:	11a02000 	movne	r2, r0
    85f4:	e1904601 	orrs	r4, r0, r1, lsl #12
    85f8:	01925603 	orrseq	r5, r2, r3, lsl #12
    85fc:	01310003 	teqeq	r1, r3
    8600:	13811702 	orrne	r1, r1, #524288	; 0x80000
    8604:	e8bd4030 	pop	{r4, r5, lr}
    8608:	e12fff1e 	bx	lr

0000860c <__aeabi_ui2d>:
    860c:	e3300000 	teq	r0, #0
    8610:	03a01000 	moveq	r1, #0
    8614:	012fff1e 	bxeq	lr
    8618:	e92d4030 	push	{r4, r5, lr}
    861c:	e3a04b01 	mov	r4, #1024	; 0x400
    8620:	e2844032 	add	r4, r4, #50	; 0x32
    8624:	e3a05000 	mov	r5, #0
    8628:	e3a01000 	mov	r1, #0
    862c:	eaffff86 	b	844c <__adddf3+0x150>

00008630 <__aeabi_i2d>:
    8630:	e3300000 	teq	r0, #0
    8634:	03a01000 	moveq	r1, #0
    8638:	012fff1e 	bxeq	lr
    863c:	e92d4030 	push	{r4, r5, lr}
    8640:	e3a04b01 	mov	r4, #1024	; 0x400
    8644:	e2844032 	add	r4, r4, #50	; 0x32
    8648:	e2105102 	ands	r5, r0, #-2147483648	; 0x80000000
    864c:	42600000 	rsbmi	r0, r0, #0
    8650:	e3a01000 	mov	r1, #0
    8654:	eaffff7c 	b	844c <__adddf3+0x150>

00008658 <__aeabi_f2d>:
    8658:	e1b02080 	lsls	r2, r0, #1
    865c:	e1a011c2 	asr	r1, r2, #3
    8660:	e1a01061 	rrx	r1, r1
    8664:	e1a00e02 	lsl	r0, r2, #28
    8668:	121234ff 	andsne	r3, r2, #-16777216	; 0xff000000
    866c:	133304ff 	teqne	r3, #-16777216	; 0xff000000
    8670:	1221130e 	eorne	r1, r1, #939524096	; 0x38000000
    8674:	112fff1e 	bxne	lr
    8678:	e3320000 	teq	r2, #0
    867c:	133304ff 	teqne	r3, #-16777216	; 0xff000000
    8680:	012fff1e 	bxeq	lr
    8684:	e92d4030 	push	{r4, r5, lr}
    8688:	e3a04d0e 	mov	r4, #896	; 0x380
    868c:	e2015102 	and	r5, r1, #-2147483648	; 0x80000000
    8690:	e3c11102 	bic	r1, r1, #-2147483648	; 0x80000000
    8694:	eaffff6c 	b	844c <__adddf3+0x150>

00008698 <__aeabi_ul2d>:
    8698:	e1902001 	orrs	r2, r0, r1
    869c:	012fff1e 	bxeq	lr
    86a0:	e92d4030 	push	{r4, r5, lr}
    86a4:	e3a05000 	mov	r5, #0
    86a8:	ea000006 	b	86c8 <__aeabi_l2d+0x1c>

000086ac <__aeabi_l2d>:
    86ac:	e1902001 	orrs	r2, r0, r1
    86b0:	012fff1e 	bxeq	lr
    86b4:	e92d4030 	push	{r4, r5, lr}
    86b8:	e2115102 	ands	r5, r1, #-2147483648	; 0x80000000
    86bc:	5a000001 	bpl	86c8 <__aeabi_l2d+0x1c>
    86c0:	e2700000 	rsbs	r0, r0, #0
    86c4:	e2e11000 	rsc	r1, r1, #0
    86c8:	e3a04b01 	mov	r4, #1024	; 0x400
    86cc:	e2844032 	add	r4, r4, #50	; 0x32
    86d0:	e1b0cb21 	lsrs	ip, r1, #22
    86d4:	0affff44 	beq	83ec <__adddf3+0xf0>
    86d8:	e3a02003 	mov	r2, #3
    86dc:	e1b0c1ac 	lsrs	ip, ip, #3
    86e0:	12822003 	addne	r2, r2, #3
    86e4:	e1b0c1ac 	lsrs	ip, ip, #3
    86e8:	12822003 	addne	r2, r2, #3
    86ec:	e08221ac 	add	r2, r2, ip, lsr #3
    86f0:	e2623020 	rsb	r3, r2, #32
    86f4:	e1a0c310 	lsl	ip, r0, r3
    86f8:	e1a00230 	lsr	r0, r0, r2
    86fc:	e1800311 	orr	r0, r0, r1, lsl r3
    8700:	e1a01231 	lsr	r1, r1, r2
    8704:	e0844002 	add	r4, r4, r2
    8708:	eaffff37 	b	83ec <__adddf3+0xf0>
    870c:	00000000 	andeq	r0, r0, r0

00008710 <__aeabi_dmul>:
    8710:	e92d4070 	push	{r4, r5, r6, lr}
    8714:	e3a0c0ff 	mov	ip, #255	; 0xff
    8718:	e38ccc07 	orr	ip, ip, #1792	; 0x700
    871c:	e01c4a21 	ands	r4, ip, r1, lsr #20
    8720:	101c5a23 	andsne	r5, ip, r3, lsr #20
    8724:	1134000c 	teqne	r4, ip
    8728:	1135000c 	teqne	r5, ip
    872c:	0b000075 	bleq	8908 <__aeabi_dmul+0x1f8>
    8730:	e0844005 	add	r4, r4, r5
    8734:	e0216003 	eor	r6, r1, r3
    8738:	e1c11a8c 	bic	r1, r1, ip, lsl #21
    873c:	e1c33a8c 	bic	r3, r3, ip, lsl #21
    8740:	e1905601 	orrs	r5, r0, r1, lsl #12
    8744:	11925603 	orrsne	r5, r2, r3, lsl #12
    8748:	e3811601 	orr	r1, r1, #1048576	; 0x100000
    874c:	e3833601 	orr	r3, r3, #1048576	; 0x100000
    8750:	0a00001d 	beq	87cc <__aeabi_dmul+0xbc>
    8754:	e08ec290 	umull	ip, lr, r0, r2
    8758:	e3a05000 	mov	r5, #0
    875c:	e0a5e291 	umlal	lr, r5, r1, r2
    8760:	e2062102 	and	r2, r6, #-2147483648	; 0x80000000
    8764:	e0a5e390 	umlal	lr, r5, r0, r3
    8768:	e3a06000 	mov	r6, #0
    876c:	e0a65391 	umlal	r5, r6, r1, r3
    8770:	e33c0000 	teq	ip, #0
    8774:	138ee001 	orrne	lr, lr, #1
    8778:	e24440ff 	sub	r4, r4, #255	; 0xff
    877c:	e3560c02 	cmp	r6, #512	; 0x200
    8780:	e2c44c03 	sbc	r4, r4, #768	; 0x300
    8784:	2a000002 	bcs	8794 <__aeabi_dmul+0x84>
    8788:	e1b0e08e 	lsls	lr, lr, #1
    878c:	e0b55005 	adcs	r5, r5, r5
    8790:	e0a66006 	adc	r6, r6, r6
    8794:	e1821586 	orr	r1, r2, r6, lsl #11
    8798:	e1811aa5 	orr	r1, r1, r5, lsr #21
    879c:	e1a00585 	lsl	r0, r5, #11
    87a0:	e1800aae 	orr	r0, r0, lr, lsr #21
    87a4:	e1a0e58e 	lsl	lr, lr, #11
    87a8:	e254c0fd 	subs	ip, r4, #253	; 0xfd
    87ac:	835c0c07 	cmphi	ip, #1792	; 0x700
    87b0:	8a000011 	bhi	87fc <__aeabi_dmul+0xec>
    87b4:	e35e0102 	cmp	lr, #-2147483648	; 0x80000000
    87b8:	01b0e0a0 	lsrseq	lr, r0, #1
    87bc:	e2b00000 	adcs	r0, r0, #0
    87c0:	e0a11a04 	adc	r1, r1, r4, lsl #20
    87c4:	e8bd4070 	pop	{r4, r5, r6, lr}
    87c8:	e12fff1e 	bx	lr
    87cc:	e2066102 	and	r6, r6, #-2147483648	; 0x80000000
    87d0:	e1861001 	orr	r1, r6, r1
    87d4:	e1800002 	orr	r0, r0, r2
    87d8:	e0211003 	eor	r1, r1, r3
    87dc:	e05440ac 	subs	r4, r4, ip, lsr #1
    87e0:	c074500c 	rsbsgt	r5, r4, ip
    87e4:	c1811a04 	orrgt	r1, r1, r4, lsl #20
    87e8:	c8bd4070 	popgt	{r4, r5, r6, lr}
    87ec:	c12fff1e 	bxgt	lr
    87f0:	e3811601 	orr	r1, r1, #1048576	; 0x100000
    87f4:	e3a0e000 	mov	lr, #0
    87f8:	e2544001 	subs	r4, r4, #1
    87fc:	ca00005d 	bgt	8978 <__aeabi_dmul+0x268>
    8800:	e3740036 	cmn	r4, #54	; 0x36
    8804:	d3a00000 	movle	r0, #0
    8808:	d2011102 	andle	r1, r1, #-2147483648	; 0x80000000
    880c:	d8bd4070 	pople	{r4, r5, r6, lr}
    8810:	d12fff1e 	bxle	lr
    8814:	e2644000 	rsb	r4, r4, #0
    8818:	e2544020 	subs	r4, r4, #32
    881c:	aa00001a 	bge	888c <__aeabi_dmul+0x17c>
    8820:	e294400c 	adds	r4, r4, #12
    8824:	ca00000c 	bgt	885c <__aeabi_dmul+0x14c>
    8828:	e2844014 	add	r4, r4, #20
    882c:	e2645020 	rsb	r5, r4, #32
    8830:	e1a03510 	lsl	r3, r0, r5
    8834:	e1a00430 	lsr	r0, r0, r4
    8838:	e1800511 	orr	r0, r0, r1, lsl r5
    883c:	e2012102 	and	r2, r1, #-2147483648	; 0x80000000
    8840:	e3c11102 	bic	r1, r1, #-2147483648	; 0x80000000
    8844:	e0900fa3 	adds	r0, r0, r3, lsr #31
    8848:	e0a21431 	adc	r1, r2, r1, lsr r4
    884c:	e19ee083 	orrs	lr, lr, r3, lsl #1
    8850:	01c00fa3 	biceq	r0, r0, r3, lsr #31
    8854:	e8bd4070 	pop	{r4, r5, r6, lr}
    8858:	e12fff1e 	bx	lr
    885c:	e264400c 	rsb	r4, r4, #12
    8860:	e2645020 	rsb	r5, r4, #32
    8864:	e1a03410 	lsl	r3, r0, r4
    8868:	e1a00530 	lsr	r0, r0, r5
    886c:	e1800411 	orr	r0, r0, r1, lsl r4
    8870:	e2011102 	and	r1, r1, #-2147483648	; 0x80000000
    8874:	e0900fa3 	adds	r0, r0, r3, lsr #31
    8878:	e2a11000 	adc	r1, r1, #0
    887c:	e19ee083 	orrs	lr, lr, r3, lsl #1
    8880:	01c00fa3 	biceq	r0, r0, r3, lsr #31
    8884:	e8bd4070 	pop	{r4, r5, r6, lr}
    8888:	e12fff1e 	bx	lr
    888c:	e2645020 	rsb	r5, r4, #32
    8890:	e18ee510 	orr	lr, lr, r0, lsl r5
    8894:	e1a03430 	lsr	r3, r0, r4
    8898:	e1833511 	orr	r3, r3, r1, lsl r5
    889c:	e1a00431 	lsr	r0, r1, r4
    88a0:	e2011102 	and	r1, r1, #-2147483648	; 0x80000000
    88a4:	e1c00431 	bic	r0, r0, r1, lsr r4
    88a8:	e0800fa3 	add	r0, r0, r3, lsr #31
    88ac:	e19ee083 	orrs	lr, lr, r3, lsl #1
    88b0:	01c00fa3 	biceq	r0, r0, r3, lsr #31
    88b4:	e8bd4070 	pop	{r4, r5, r6, lr}
    88b8:	e12fff1e 	bx	lr
    88bc:	e3340000 	teq	r4, #0
    88c0:	1a000008 	bne	88e8 <__aeabi_dmul+0x1d8>
    88c4:	e2016102 	and	r6, r1, #-2147483648	; 0x80000000
    88c8:	e1b00080 	lsls	r0, r0, #1
    88cc:	e0a11001 	adc	r1, r1, r1
    88d0:	e3110601 	tst	r1, #1048576	; 0x100000
    88d4:	02444001 	subeq	r4, r4, #1
    88d8:	0afffffa 	beq	88c8 <__aeabi_dmul+0x1b8>
    88dc:	e1811006 	orr	r1, r1, r6
    88e0:	e3350000 	teq	r5, #0
    88e4:	112fff1e 	bxne	lr
    88e8:	e2036102 	and	r6, r3, #-2147483648	; 0x80000000
    88ec:	e1b02082 	lsls	r2, r2, #1
    88f0:	e0a33003 	adc	r3, r3, r3
    88f4:	e3130601 	tst	r3, #1048576	; 0x100000
    88f8:	02455001 	subeq	r5, r5, #1
    88fc:	0afffffa 	beq	88ec <__aeabi_dmul+0x1dc>
    8900:	e1833006 	orr	r3, r3, r6
    8904:	e12fff1e 	bx	lr
    8908:	e134000c 	teq	r4, ip
    890c:	e00c5a23 	and	r5, ip, r3, lsr #20
    8910:	1135000c 	teqne	r5, ip
    8914:	0a000007 	beq	8938 <__aeabi_dmul+0x228>
    8918:	e1906081 	orrs	r6, r0, r1, lsl #1
    891c:	11926083 	orrsne	r6, r2, r3, lsl #1
    8920:	1affffe5 	bne	88bc <__aeabi_dmul+0x1ac>
    8924:	e0211003 	eor	r1, r1, r3
    8928:	e2011102 	and	r1, r1, #-2147483648	; 0x80000000
    892c:	e3a00000 	mov	r0, #0
    8930:	e8bd4070 	pop	{r4, r5, r6, lr}
    8934:	e12fff1e 	bx	lr
    8938:	e1906081 	orrs	r6, r0, r1, lsl #1
    893c:	01a00002 	moveq	r0, r2
    8940:	01a01003 	moveq	r1, r3
    8944:	11926083 	orrsne	r6, r2, r3, lsl #1
    8948:	0a000010 	beq	8990 <__aeabi_dmul+0x280>
    894c:	e134000c 	teq	r4, ip
    8950:	1a000001 	bne	895c <__aeabi_dmul+0x24c>
    8954:	e1906601 	orrs	r6, r0, r1, lsl #12
    8958:	1a00000c 	bne	8990 <__aeabi_dmul+0x280>
    895c:	e135000c 	teq	r5, ip
    8960:	1a000003 	bne	8974 <__aeabi_dmul+0x264>
    8964:	e1926603 	orrs	r6, r2, r3, lsl #12
    8968:	11a00002 	movne	r0, r2
    896c:	11a01003 	movne	r1, r3
    8970:	1a000006 	bne	8990 <__aeabi_dmul+0x280>
    8974:	e0211003 	eor	r1, r1, r3
    8978:	e2011102 	and	r1, r1, #-2147483648	; 0x80000000
    897c:	e381147f 	orr	r1, r1, #2130706432	; 0x7f000000
    8980:	e381160f 	orr	r1, r1, #15728640	; 0xf00000
    8984:	e3a00000 	mov	r0, #0
    8988:	e8bd4070 	pop	{r4, r5, r6, lr}
    898c:	e12fff1e 	bx	lr
    8990:	e381147f 	orr	r1, r1, #2130706432	; 0x7f000000
    8994:	e381173e 	orr	r1, r1, #16252928	; 0xf80000
    8998:	e8bd4070 	pop	{r4, r5, r6, lr}
    899c:	e12fff1e 	bx	lr

000089a0 <__aeabi_ddiv>:
    89a0:	e92d4070 	push	{r4, r5, r6, lr}
    89a4:	e3a0c0ff 	mov	ip, #255	; 0xff
    89a8:	e38ccc07 	orr	ip, ip, #1792	; 0x700
    89ac:	e01c4a21 	ands	r4, ip, r1, lsr #20
    89b0:	101c5a23 	andsne	r5, ip, r3, lsr #20
    89b4:	1134000c 	teqne	r4, ip
    89b8:	1135000c 	teqne	r5, ip
    89bc:	0b00005e 	bleq	8b3c <__aeabi_ddiv+0x19c>
    89c0:	e0444005 	sub	r4, r4, r5
    89c4:	e021e003 	eor	lr, r1, r3
    89c8:	e1925603 	orrs	r5, r2, r3, lsl #12
    89cc:	e1a01601 	lsl	r1, r1, #12
    89d0:	0a00004c 	beq	8b08 <__aeabi_ddiv+0x168>
    89d4:	e1a03603 	lsl	r3, r3, #12
    89d8:	e3a05201 	mov	r5, #268435456	; 0x10000000
    89dc:	e1853223 	orr	r3, r5, r3, lsr #4
    89e0:	e1833c22 	orr	r3, r3, r2, lsr #24
    89e4:	e1a02402 	lsl	r2, r2, #8
    89e8:	e1855221 	orr	r5, r5, r1, lsr #4
    89ec:	e1855c20 	orr	r5, r5, r0, lsr #24
    89f0:	e1a06400 	lsl	r6, r0, #8
    89f4:	e20e1102 	and	r1, lr, #-2147483648	; 0x80000000
    89f8:	e1550003 	cmp	r5, r3
    89fc:	01560002 	cmpeq	r6, r2
    8a00:	e2a440fd 	adc	r4, r4, #253	; 0xfd
    8a04:	e2844c03 	add	r4, r4, #768	; 0x300
    8a08:	2a000001 	bcs	8a14 <__aeabi_ddiv+0x74>
    8a0c:	e1b030a3 	lsrs	r3, r3, #1
    8a10:	e1a02062 	rrx	r2, r2
    8a14:	e0566002 	subs	r6, r6, r2
    8a18:	e0c55003 	sbc	r5, r5, r3
    8a1c:	e1b030a3 	lsrs	r3, r3, #1
    8a20:	e1a02062 	rrx	r2, r2
    8a24:	e3a00601 	mov	r0, #1048576	; 0x100000
    8a28:	e3a0c702 	mov	ip, #524288	; 0x80000
    8a2c:	e056e002 	subs	lr, r6, r2
    8a30:	e0d5e003 	sbcs	lr, r5, r3
    8a34:	20466002 	subcs	r6, r6, r2
    8a38:	21a0500e 	movcs	r5, lr
    8a3c:	2180000c 	orrcs	r0, r0, ip
    8a40:	e1b030a3 	lsrs	r3, r3, #1
    8a44:	e1a02062 	rrx	r2, r2
    8a48:	e056e002 	subs	lr, r6, r2
    8a4c:	e0d5e003 	sbcs	lr, r5, r3
    8a50:	20466002 	subcs	r6, r6, r2
    8a54:	21a0500e 	movcs	r5, lr
    8a58:	218000ac 	orrcs	r0, r0, ip, lsr #1
    8a5c:	e1b030a3 	lsrs	r3, r3, #1
    8a60:	e1a02062 	rrx	r2, r2
    8a64:	e056e002 	subs	lr, r6, r2
    8a68:	e0d5e003 	sbcs	lr, r5, r3
    8a6c:	20466002 	subcs	r6, r6, r2
    8a70:	21a0500e 	movcs	r5, lr
    8a74:	2180012c 	orrcs	r0, r0, ip, lsr #2
    8a78:	e1b030a3 	lsrs	r3, r3, #1
    8a7c:	e1a02062 	rrx	r2, r2
    8a80:	e056e002 	subs	lr, r6, r2
    8a84:	e0d5e003 	sbcs	lr, r5, r3
    8a88:	20466002 	subcs	r6, r6, r2
    8a8c:	21a0500e 	movcs	r5, lr
    8a90:	218001ac 	orrcs	r0, r0, ip, lsr #3
    8a94:	e195e006 	orrs	lr, r5, r6
    8a98:	0a00000d 	beq	8ad4 <__aeabi_ddiv+0x134>
    8a9c:	e1a05205 	lsl	r5, r5, #4
    8aa0:	e1855e26 	orr	r5, r5, r6, lsr #28
    8aa4:	e1a06206 	lsl	r6, r6, #4
    8aa8:	e1a03183 	lsl	r3, r3, #3
    8aac:	e1833ea2 	orr	r3, r3, r2, lsr #29
    8ab0:	e1a02182 	lsl	r2, r2, #3
    8ab4:	e1b0c22c 	lsrs	ip, ip, #4
    8ab8:	1affffdb 	bne	8a2c <__aeabi_ddiv+0x8c>
    8abc:	e3110601 	tst	r1, #1048576	; 0x100000
    8ac0:	1a000006 	bne	8ae0 <__aeabi_ddiv+0x140>
    8ac4:	e1811000 	orr	r1, r1, r0
    8ac8:	e3a00000 	mov	r0, #0
    8acc:	e3a0c102 	mov	ip, #-2147483648	; 0x80000000
    8ad0:	eaffffd5 	b	8a2c <__aeabi_ddiv+0x8c>
    8ad4:	e3110601 	tst	r1, #1048576	; 0x100000
    8ad8:	01811000 	orreq	r1, r1, r0
    8adc:	03a00000 	moveq	r0, #0
    8ae0:	e254c0fd 	subs	ip, r4, #253	; 0xfd
    8ae4:	835c0c07 	cmphi	ip, #1792	; 0x700
    8ae8:	8affff43 	bhi	87fc <__aeabi_dmul+0xec>
    8aec:	e055c003 	subs	ip, r5, r3
    8af0:	0056c002 	subseq	ip, r6, r2
    8af4:	01b0c0a0 	lsrseq	ip, r0, #1
    8af8:	e2b00000 	adcs	r0, r0, #0
    8afc:	e0a11a04 	adc	r1, r1, r4, lsl #20
    8b00:	e8bd4070 	pop	{r4, r5, r6, lr}
    8b04:	e12fff1e 	bx	lr
    8b08:	e20ee102 	and	lr, lr, #-2147483648	; 0x80000000
    8b0c:	e18e1621 	orr	r1, lr, r1, lsr #12
    8b10:	e09440ac 	adds	r4, r4, ip, lsr #1
    8b14:	c074500c 	rsbsgt	r5, r4, ip
    8b18:	c1811a04 	orrgt	r1, r1, r4, lsl #20
    8b1c:	c8bd4070 	popgt	{r4, r5, r6, lr}
    8b20:	c12fff1e 	bxgt	lr
    8b24:	e3811601 	orr	r1, r1, #1048576	; 0x100000
    8b28:	e3a0e000 	mov	lr, #0
    8b2c:	e2544001 	subs	r4, r4, #1
    8b30:	eaffff31 	b	87fc <__aeabi_dmul+0xec>
    8b34:	e185e006 	orr	lr, r5, r6
    8b38:	eaffff2f 	b	87fc <__aeabi_dmul+0xec>
    8b3c:	e00c5a23 	and	r5, ip, r3, lsr #20
    8b40:	e134000c 	teq	r4, ip
    8b44:	0135000c 	teqeq	r5, ip
    8b48:	0affff90 	beq	8990 <__aeabi_dmul+0x280>
    8b4c:	e134000c 	teq	r4, ip
    8b50:	1a000006 	bne	8b70 <__aeabi_ddiv+0x1d0>
    8b54:	e1904601 	orrs	r4, r0, r1, lsl #12
    8b58:	1affff8c 	bne	8990 <__aeabi_dmul+0x280>
    8b5c:	e135000c 	teq	r5, ip
    8b60:	1affff83 	bne	8974 <__aeabi_dmul+0x264>
    8b64:	e1a00002 	mov	r0, r2
    8b68:	e1a01003 	mov	r1, r3
    8b6c:	eaffff87 	b	8990 <__aeabi_dmul+0x280>
    8b70:	e135000c 	teq	r5, ip
    8b74:	1a000004 	bne	8b8c <__aeabi_ddiv+0x1ec>
    8b78:	e1925603 	orrs	r5, r2, r3, lsl #12
    8b7c:	0affff68 	beq	8924 <__aeabi_dmul+0x214>
    8b80:	e1a00002 	mov	r0, r2
    8b84:	e1a01003 	mov	r1, r3
    8b88:	eaffff80 	b	8990 <__aeabi_dmul+0x280>
    8b8c:	e1906081 	orrs	r6, r0, r1, lsl #1
    8b90:	11926083 	orrsne	r6, r2, r3, lsl #1
    8b94:	1affff48 	bne	88bc <__aeabi_dmul+0x1ac>
    8b98:	e1904081 	orrs	r4, r0, r1, lsl #1
    8b9c:	1affff74 	bne	8974 <__aeabi_dmul+0x264>
    8ba0:	e1925083 	orrs	r5, r2, r3, lsl #1
    8ba4:	1affff5e 	bne	8924 <__aeabi_dmul+0x214>
    8ba8:	eaffff78 	b	8990 <__aeabi_dmul+0x280>
    8bac:	00000000 	andeq	r0, r0, r0

00008bb0 <__aeabi_d2iz>:
    8bb0:	e1a02081 	lsl	r2, r1, #1
    8bb4:	e2922602 	adds	r2, r2, #2097152	; 0x200000
    8bb8:	2a00000c 	bcs	8bf0 <__aeabi_d2iz+0x40>
    8bbc:	5a000009 	bpl	8be8 <__aeabi_d2iz+0x38>
    8bc0:	e3e03e3e 	mvn	r3, #992	; 0x3e0
    8bc4:	e0532ac2 	subs	r2, r3, r2, asr #21
    8bc8:	9a00000a 	bls	8bf8 <__aeabi_d2iz+0x48>
    8bcc:	e1a03581 	lsl	r3, r1, #11
    8bd0:	e3833102 	orr	r3, r3, #-2147483648	; 0x80000000
    8bd4:	e1833aa0 	orr	r3, r3, r0, lsr #21
    8bd8:	e3110102 	tst	r1, #-2147483648	; 0x80000000
    8bdc:	e1a00233 	lsr	r0, r3, r2
    8be0:	12600000 	rsbne	r0, r0, #0
    8be4:	e12fff1e 	bx	lr
    8be8:	e3a00000 	mov	r0, #0
    8bec:	e12fff1e 	bx	lr
    8bf0:	e1900601 	orrs	r0, r0, r1, lsl #12
    8bf4:	1a000002 	bne	8c04 <__aeabi_d2iz+0x54>
    8bf8:	e2110102 	ands	r0, r1, #-2147483648	; 0x80000000
    8bfc:	03e00102 	mvneq	r0, #-2147483648	; 0x80000000
    8c00:	e12fff1e 	bx	lr
    8c04:	e3a00000 	mov	r0, #0
    8c08:	e12fff1e 	bx	lr
    8c0c:	00000000 	andeq	r0, r0, r0

00008c10 <__aeabi_d2f>:
    8c10:	e1a02081 	lsl	r2, r1, #1
    8c14:	e2523207 	subs	r3, r2, #1879048192	; 0x70000000
    8c18:	2253c602 	subscs	ip, r3, #2097152	; 0x200000
    8c1c:	227cc57f 	rsbscs	ip, ip, #532676608	; 0x1fc00000
    8c20:	9a000006 	bls	8c40 <__aeabi_d2f+0x30>
    8c24:	e201c102 	and	ip, r1, #-2147483648	; 0x80000000
    8c28:	e1a02180 	lsl	r2, r0, #3
    8c2c:	e18c0ea0 	orr	r0, ip, r0, lsr #29
    8c30:	e3520102 	cmp	r2, #-2147483648	; 0x80000000
    8c34:	e0a00103 	adc	r0, r0, r3, lsl #2
    8c38:	03c00001 	biceq	r0, r0, #1
    8c3c:	e12fff1e 	bx	lr
    8c40:	e3110101 	tst	r1, #1073741824	; 0x40000000
    8c44:	1a00000f 	bne	8c88 <__aeabi_d2f+0x78>
    8c48:	e293262e 	adds	r2, r3, #48234496	; 0x2e00000
    8c4c:	b2010102 	andlt	r0, r1, #-2147483648	; 0x80000000
    8c50:	b12fff1e 	bxlt	lr
    8c54:	e3811601 	orr	r1, r1, #1048576	; 0x100000
    8c58:	e1a02aa2 	lsr	r2, r2, #21
    8c5c:	e2622018 	rsb	r2, r2, #24
    8c60:	e262c020 	rsb	ip, r2, #32
    8c64:	e1b03c10 	lsls	r3, r0, ip
    8c68:	e1a00230 	lsr	r0, r0, r2
    8c6c:	13800001 	orrne	r0, r0, #1
    8c70:	e1a03581 	lsl	r3, r1, #11
    8c74:	e1a035a3 	lsr	r3, r3, #11
    8c78:	e1800c13 	orr	r0, r0, r3, lsl ip
    8c7c:	e1a03233 	lsr	r3, r3, r2
    8c80:	e1a03083 	lsl	r3, r3, #1
    8c84:	eaffffe6 	b	8c24 <__aeabi_d2f+0x14>
    8c88:	e1f03ac2 	mvns	r3, r2, asr #21
    8c8c:	1a000003 	bne	8ca0 <__aeabi_d2f+0x90>
    8c90:	e1903601 	orrs	r3, r0, r1, lsl #12
    8c94:	13a0047f 	movne	r0, #2130706432	; 0x7f000000
    8c98:	13800503 	orrne	r0, r0, #12582912	; 0xc00000
    8c9c:	112fff1e 	bxne	lr
    8ca0:	e2010102 	and	r0, r1, #-2147483648	; 0x80000000
    8ca4:	e380047f 	orr	r0, r0, #2130706432	; 0x7f000000
    8ca8:	e3800502 	orr	r0, r0, #8388608	; 0x800000
    8cac:	e12fff1e 	bx	lr

00008cb0 <__gesf2>:
    8cb0:	e3e0c000 	mvn	ip, #0
    8cb4:	ea000002 	b	8cc4 <__cmpsf2+0x4>

00008cb8 <__lesf2>:
    8cb8:	e3a0c001 	mov	ip, #1
    8cbc:	ea000000 	b	8cc4 <__cmpsf2+0x4>

00008cc0 <__cmpsf2>:
    8cc0:	e3a0c001 	mov	ip, #1
    8cc4:	e52dc004 	push	{ip}		; (str ip, [sp, #-4]!)
    8cc8:	e1a02080 	lsl	r2, r0, #1
    8ccc:	e1a03081 	lsl	r3, r1, #1
    8cd0:	e1f0cc42 	mvns	ip, r2, asr #24
    8cd4:	11f0cc43 	mvnsne	ip, r3, asr #24
    8cd8:	0a000007 	beq	8cfc <__cmpsf2+0x3c>
    8cdc:	e28dd004 	add	sp, sp, #4
    8ce0:	e192c0a3 	orrs	ip, r2, r3, lsr #1
    8ce4:	11300001 	teqne	r0, r1
    8ce8:	50520003 	subspl	r0, r2, r3
    8cec:	81a00fc1 	asrhi	r0, r1, #31
    8cf0:	31e00fc1 	mvncc	r0, r1, asr #31
    8cf4:	13800001 	orrne	r0, r0, #1
    8cf8:	e12fff1e 	bx	lr
    8cfc:	e1f0cc42 	mvns	ip, r2, asr #24
    8d00:	1a000001 	bne	8d0c <__cmpsf2+0x4c>
    8d04:	e1b0c480 	lsls	ip, r0, #9
    8d08:	1a000003 	bne	8d1c <__cmpsf2+0x5c>
    8d0c:	e1f0cc43 	mvns	ip, r3, asr #24
    8d10:	1afffff1 	bne	8cdc <__cmpsf2+0x1c>
    8d14:	e1b0c481 	lsls	ip, r1, #9
    8d18:	0affffef 	beq	8cdc <__cmpsf2+0x1c>
    8d1c:	e49d0004 	pop	{r0}		; (ldr r0, [sp], #4)
    8d20:	e12fff1e 	bx	lr

00008d24 <__aeabi_cfrcmple>:
    8d24:	e1a0c000 	mov	ip, r0
    8d28:	e1a00001 	mov	r0, r1
    8d2c:	e1a0100c 	mov	r1, ip
    8d30:	eaffffff 	b	8d34 <__aeabi_cfcmpeq>

00008d34 <__aeabi_cfcmpeq>:
    8d34:	e92d400f 	push	{r0, r1, r2, r3, lr}
    8d38:	ebffffe0 	bl	8cc0 <__cmpsf2>
    8d3c:	e3500000 	cmp	r0, #0
    8d40:	43700000 	cmnmi	r0, #0
    8d44:	e8bd400f 	pop	{r0, r1, r2, r3, lr}
    8d48:	e12fff1e 	bx	lr

00008d4c <__aeabi_fcmpeq>:
    8d4c:	e52de008 	str	lr, [sp, #-8]!
    8d50:	ebfffff7 	bl	8d34 <__aeabi_cfcmpeq>
    8d54:	03a00001 	moveq	r0, #1
    8d58:	13a00000 	movne	r0, #0
    8d5c:	e49de008 	ldr	lr, [sp], #8
    8d60:	e12fff1e 	bx	lr

00008d64 <__aeabi_fcmplt>:
    8d64:	e52de008 	str	lr, [sp, #-8]!
    8d68:	ebfffff1 	bl	8d34 <__aeabi_cfcmpeq>
    8d6c:	33a00001 	movcc	r0, #1
    8d70:	23a00000 	movcs	r0, #0
    8d74:	e49de008 	ldr	lr, [sp], #8
    8d78:	e12fff1e 	bx	lr

00008d7c <__aeabi_fcmple>:
    8d7c:	e52de008 	str	lr, [sp, #-8]!
    8d80:	ebffffeb 	bl	8d34 <__aeabi_cfcmpeq>
    8d84:	93a00001 	movls	r0, #1
    8d88:	83a00000 	movhi	r0, #0
    8d8c:	e49de008 	ldr	lr, [sp], #8
    8d90:	e12fff1e 	bx	lr

00008d94 <__aeabi_fcmpge>:
    8d94:	e52de008 	str	lr, [sp, #-8]!
    8d98:	ebffffe1 	bl	8d24 <__aeabi_cfrcmple>
    8d9c:	93a00001 	movls	r0, #1
    8da0:	83a00000 	movhi	r0, #0
    8da4:	e49de008 	ldr	lr, [sp], #8
    8da8:	e12fff1e 	bx	lr

00008dac <__aeabi_fcmpgt>:
    8dac:	e52de008 	str	lr, [sp, #-8]!
    8db0:	ebffffdb 	bl	8d24 <__aeabi_cfrcmple>
    8db4:	33a00001 	movcc	r0, #1
    8db8:	23a00000 	movcs	r0, #0
    8dbc:	e49de008 	ldr	lr, [sp], #8
    8dc0:	e12fff1e 	bx	lr
	...

00008dd0 <__aeabi_f2iz>:
    8dd0:	e1a02080 	lsl	r2, r0, #1
    8dd4:	e352047f 	cmp	r2, #2130706432	; 0x7f000000
    8dd8:	3a000008 	bcc	8e00 <__aeabi_f2iz+0x30>
    8ddc:	e3a0309e 	mov	r3, #158	; 0x9e
    8de0:	e0532c22 	subs	r2, r3, r2, lsr #24
    8de4:	9a000007 	bls	8e08 <__aeabi_f2iz+0x38>
    8de8:	e1a03400 	lsl	r3, r0, #8
    8dec:	e3833102 	orr	r3, r3, #-2147483648	; 0x80000000
    8df0:	e3100102 	tst	r0, #-2147483648	; 0x80000000
    8df4:	e1a00233 	lsr	r0, r3, r2
    8df8:	12600000 	rsbne	r0, r0, #0
    8dfc:	e12fff1e 	bx	lr
    8e00:	e3a00000 	mov	r0, #0
    8e04:	e12fff1e 	bx	lr
    8e08:	e3720061 	cmn	r2, #97	; 0x61
    8e0c:	1a000001 	bne	8e18 <__aeabi_f2iz+0x48>
    8e10:	e1b02480 	lsls	r2, r0, #9
    8e14:	1a000002 	bne	8e24 <__aeabi_f2iz+0x54>
    8e18:	e2100102 	ands	r0, r0, #-2147483648	; 0x80000000
    8e1c:	03e00102 	mvneq	r0, #-2147483648	; 0x80000000
    8e20:	e12fff1e 	bx	lr
    8e24:	e3a00000 	mov	r0, #0
    8e28:	e12fff1e 	bx	lr
    8e2c:	00000000 	andeq	r0, r0, r0

00008e30 <_idle_thread>:
    8e30:	e59f3010 	ldr	r3, [pc, #16]	; 8e48 <_idle_thread+0x18>
    8e34:	e59f2010 	ldr	r2, [pc, #16]	; 8e4c <_idle_thread+0x1c>
    8e38:	e5933018 	ldr	r3, [r3, #24]
    8e3c:	e5832018 	str	r2, [r3, #24]
    8e40:	ee070f90 	mcr	15, 0, r0, cr7, cr0, {4}
    8e44:	eafffffd 	b	8e40 <_idle_thread+0x10>
    8e48:	0000c340 	andeq	ip, r0, r0, asr #6
    8e4c:	0000bd60 	andeq	fp, r0, r0, ror #26

00008e50 <chSysInit>:
    8e50:	e52de004 	push	{lr}		; (str lr, [sp, #-4]!)
    8e54:	e24dd00c 	sub	sp, sp, #12
    8e58:	eb0000a0 	bl	90e0 <_scheduler_init>
    8e5c:	eb00003f 	bl	8f60 <_vt_init>
    8e60:	eb000422 	bl	9ef0 <_core_init>
    8e64:	eb000445 	bl	9f80 <_heap_init>
    8e68:	e3a01040 	mov	r1, #64	; 0x40
    8e6c:	e59f0040 	ldr	r0, [pc, #64]	; 8eb4 <chSysInit+0x64>
    8e70:	eb00016e 	bl	9430 <_thread_init>
    8e74:	e3a02001 	mov	r2, #1
    8e78:	e59f3038 	ldr	r3, [pc, #56]	; 8eb8 <chSysInit+0x68>
    8e7c:	e5c0201c 	strb	r2, [r0, #28]
    8e80:	e5830018 	str	r0, [r3, #24]
    8e84:	e321f01f 	msr	CPSR_c, #31
    8e88:	e3a01000 	mov	r1, #0
    8e8c:	e5933018 	ldr	r3, [r3, #24]
    8e90:	e59f0024 	ldr	r0, [pc, #36]	; 8ebc <chSysInit+0x6c>
    8e94:	e5830018 	str	r0, [r3, #24]
    8e98:	e58d1000 	str	r1, [sp]
    8e9c:	e59f301c 	ldr	r3, [pc, #28]	; 8ec0 <chSysInit+0x70>
    8ea0:	e3a0109c 	mov	r1, #156	; 0x9c
    8ea4:	e59f0018 	ldr	r0, [pc, #24]	; 8ec4 <chSysInit+0x74>
    8ea8:	eb0001a4 	bl	9540 <chThdCreateStatic>
    8eac:	e28dd00c 	add	sp, sp, #12
    8eb0:	e49df004 	pop	{pc}		; (ldr pc, [sp], #4)
    8eb4:	0000c110 	andeq	ip, r0, r0, lsl r1
    8eb8:	0000c340 	andeq	ip, r0, r0, asr #6
    8ebc:	0000bd70 	andeq	fp, r0, r0, ror sp
    8ec0:	00008e30 	andeq	r8, r0, r0, lsr lr
    8ec4:	0000c294 	muleq	r0, r4, r2
	...

00008ed0 <chSysTimerHandlerI>:
    8ed0:	e92d4038 	push	{r3, r4, r5, lr}
    8ed4:	e59f307c 	ldr	r3, [pc, #124]	; 8f58 <chSysTimerHandlerI+0x88>
    8ed8:	e59f407c 	ldr	r4, [pc, #124]	; 8f5c <chSysTimerHandlerI+0x8c>
    8edc:	e5933018 	ldr	r3, [r3, #24]
    8ee0:	e5d3201f 	ldrb	r2, [r3, #31]
    8ee4:	e3520000 	cmp	r2, #0
    8ee8:	12422001 	subne	r2, r2, #1
    8eec:	15c3201f 	strbne	r2, [r3, #31]
    8ef0:	e5932020 	ldr	r2, [r3, #32]
    8ef4:	e2822001 	add	r2, r2, #1
    8ef8:	e5832020 	str	r2, [r3, #32]
    8efc:	e594200c 	ldr	r2, [r4, #12]
    8f00:	e5943000 	ldr	r3, [r4]
    8f04:	e2822001 	add	r2, r2, #1
    8f08:	e1530004 	cmp	r3, r4
    8f0c:	e584200c 	str	r2, [r4, #12]
    8f10:	08bd8038 	popeq	{r3, r4, r5, pc}
    8f14:	e5935008 	ldr	r5, [r3, #8]
    8f18:	e2455001 	sub	r5, r5, #1
    8f1c:	e3550000 	cmp	r5, #0
    8f20:	e5835008 	str	r5, [r3, #8]
    8f24:	18bd8038 	popne	{r3, r4, r5, pc}
    8f28:	e5932000 	ldr	r2, [r3]
    8f2c:	e593100c 	ldr	r1, [r3, #12]
    8f30:	e5930010 	ldr	r0, [r3, #16]
    8f34:	e583500c 	str	r5, [r3, #12]
    8f38:	e5842000 	str	r2, [r4]
    8f3c:	e5824004 	str	r4, [r2, #4]
    8f40:	e12fff31 	blx	r1
    8f44:	e5943000 	ldr	r3, [r4]
    8f48:	e5932008 	ldr	r2, [r3, #8]
    8f4c:	e3520000 	cmp	r2, #0
    8f50:	0afffff4 	beq	8f28 <chSysTimerHandlerI+0x58>
    8f54:	e8bd8038 	pop	{r3, r4, r5, pc}
    8f58:	0000c340 	andeq	ip, r0, r0, asr #6
    8f5c:	0000c330 	andeq	ip, r0, r0, lsr r3

00008f60 <_vt_init>:
    8f60:	e3e01000 	mvn	r1, #0
    8f64:	e3a02000 	mov	r2, #0
    8f68:	e59f3010 	ldr	r3, [pc, #16]	; 8f80 <_vt_init+0x20>
    8f6c:	e5831008 	str	r1, [r3, #8]
    8f70:	e5833004 	str	r3, [r3, #4]
    8f74:	e5833000 	str	r3, [r3]
    8f78:	e583200c 	str	r2, [r3, #12]
    8f7c:	e12fff1e 	bx	lr
    8f80:	0000c330 	andeq	ip, r0, r0, lsr r3
	...

00008f90 <chVTSetI>:
    8f90:	e59fc054 	ldr	ip, [pc, #84]	; 8fec <chVTSetI+0x5c>
    8f94:	e5803010 	str	r3, [r0, #16]
    8f98:	e59c3000 	ldr	r3, [ip]
    8f9c:	e580200c 	str	r2, [r0, #12]
    8fa0:	e5932008 	ldr	r2, [r3, #8]
    8fa4:	e1510002 	cmp	r1, r2
    8fa8:	9a000004 	bls	8fc0 <chVTSetI+0x30>
    8fac:	e5933000 	ldr	r3, [r3]
    8fb0:	e0621001 	rsb	r1, r2, r1
    8fb4:	e5932008 	ldr	r2, [r3, #8]
    8fb8:	e1520001 	cmp	r2, r1
    8fbc:	3afffffa 	bcc	8fac <chVTSetI+0x1c>
    8fc0:	e5932004 	ldr	r2, [r3, #4]
    8fc4:	e153000c 	cmp	r3, ip
    8fc8:	e5802004 	str	r2, [r0, #4]
    8fcc:	e5803000 	str	r3, [r0]
    8fd0:	e5830004 	str	r0, [r3, #4]
    8fd4:	e5820000 	str	r0, [r2]
    8fd8:	e5801008 	str	r1, [r0, #8]
    8fdc:	15932008 	ldrne	r2, [r3, #8]
    8fe0:	10611002 	rsbne	r1, r1, r2
    8fe4:	15831008 	strne	r1, [r3, #8]
    8fe8:	e12fff1e 	bx	lr
    8fec:	0000c330 	andeq	ip, r0, r0, lsr r3

00008ff0 <chVTResetI>:
    8ff0:	e5903000 	ldr	r3, [r0]
    8ff4:	e59f202c 	ldr	r2, [pc, #44]	; 9028 <chVTResetI+0x38>
    8ff8:	e1530002 	cmp	r3, r2
    8ffc:	15932008 	ldrne	r2, [r3, #8]
    9000:	15901008 	ldrne	r1, [r0, #8]
    9004:	10822001 	addne	r2, r2, r1
    9008:	e3a01000 	mov	r1, #0
    900c:	15832008 	strne	r2, [r3, #8]
    9010:	e5902004 	ldr	r2, [r0, #4]
    9014:	e5823000 	str	r3, [r2]
    9018:	e5903000 	ldr	r3, [r0]
    901c:	e5832004 	str	r2, [r3, #4]
    9020:	e580100c 	str	r1, [r0, #12]
    9024:	e12fff1e 	bx	lr
    9028:	0000c330 	andeq	ip, r0, r0, lsr r3
    902c:	00000000 	andeq	r0, r0, r0

00009030 <wakeup>:
    9030:	e5d0301c 	ldrb	r3, [r0, #28]
    9034:	e353000d 	cmp	r3, #13
    9038:	979ff103 	ldrls	pc, [pc, r3, lsl #2]
    903c:	ea000015 	b	9098 <wakeup+0x68>
    9040:	000090d4 	ldrdeq	r9, [r0], -r4
    9044:	00009098 	muleq	r0, r8, r0
    9048:	00009098 	muleq	r0, r8, r0
    904c:	00009078 	andeq	r9, r0, r8, ror r0
    9050:	00009098 	muleq	r0, r8, r0
    9054:	00009088 	andeq	r9, r0, r8, lsl #1
    9058:	00009098 	muleq	r0, r8, r0
    905c:	00009098 	muleq	r0, r8, r0
    9060:	00009098 	muleq	r0, r8, r0
    9064:	00009098 	muleq	r0, r8, r0
    9068:	00009098 	muleq	r0, r8, r0
    906c:	00009098 	muleq	r0, r8, r0
    9070:	00009098 	muleq	r0, r8, r0
    9074:	00009088 	andeq	r9, r0, r8, lsl #1
    9078:	e5902024 	ldr	r2, [r0, #36]	; 0x24
    907c:	e5923008 	ldr	r3, [r2, #8]
    9080:	e2833001 	add	r3, r3, #1
    9084:	e5823008 	str	r3, [r2, #8]
    9088:	e890000c 	ldm	r0, {r2, r3}
    908c:	e5832000 	str	r2, [r3]
    9090:	e5902000 	ldr	r2, [r0]
    9094:	e5823004 	str	r3, [r2, #4]
    9098:	e3e0c000 	mvn	ip, #0
    909c:	e3a02000 	mov	r2, #0
    90a0:	e5901008 	ldr	r1, [r0, #8]
    90a4:	e59f302c 	ldr	r3, [pc, #44]	; 90d8 <wakeup+0xa8>
    90a8:	e580c024 	str	ip, [r0, #36]	; 0x24
    90ac:	e5c0201c 	strb	r2, [r0, #28]
    90b0:	e5933000 	ldr	r3, [r3]
    90b4:	e5932008 	ldr	r2, [r3, #8]
    90b8:	e1520001 	cmp	r2, r1
    90bc:	2afffffb 	bcs	90b0 <wakeup+0x80>
    90c0:	e5932004 	ldr	r2, [r3, #4]
    90c4:	e5803000 	str	r3, [r0]
    90c8:	e5802004 	str	r2, [r0, #4]
    90cc:	e5830004 	str	r0, [r3, #4]
    90d0:	e5820000 	str	r0, [r2]
    90d4:	e12fff1e 	bx	lr
    90d8:	0000c340 	andeq	ip, r0, r0, asr #6
    90dc:	00000000 	andeq	r0, r0, r0

000090e0 <_scheduler_init>:
    90e0:	e3a02000 	mov	r2, #0
    90e4:	e59f3014 	ldr	r3, [pc, #20]	; 9100 <_scheduler_init+0x20>
    90e8:	e5832008 	str	r2, [r3, #8]
    90ec:	e5833004 	str	r3, [r3, #4]
    90f0:	e5833000 	str	r3, [r3]
    90f4:	e5833014 	str	r3, [r3, #20]
    90f8:	e5833010 	str	r3, [r3, #16]
    90fc:	e12fff1e 	bx	lr
    9100:	0000c340 	andeq	ip, r0, r0, asr #6
	...

00009110 <chSchReadyI>:
    9110:	e3a02000 	mov	r2, #0
    9114:	e1a0c000 	mov	ip, r0
    9118:	e5901008 	ldr	r1, [r0, #8]
    911c:	e59f302c 	ldr	r3, [pc, #44]	; 9150 <chSchReadyI+0x40>
    9120:	e5c0201c 	strb	r2, [r0, #28]
    9124:	e5933000 	ldr	r3, [r3]
    9128:	e5932008 	ldr	r2, [r3, #8]
    912c:	e1520001 	cmp	r2, r1
    9130:	2afffffb 	bcs	9124 <chSchReadyI+0x14>
    9134:	e5932004 	ldr	r2, [r3, #4]
    9138:	e1a0000c 	mov	r0, ip
    913c:	e58c3000 	str	r3, [ip]
    9140:	e58c2004 	str	r2, [ip, #4]
    9144:	e583c004 	str	ip, [r3, #4]
    9148:	e582c000 	str	ip, [r2]
    914c:	e12fff1e 	bx	lr
    9150:	0000c340 	andeq	ip, r0, r0, asr #6
	...

00009160 <chSchGoSleepS>:
    9160:	e92d4010 	push	{r4, lr}
    9164:	e3a04014 	mov	r4, #20
    9168:	e3a0e001 	mov	lr, #1
    916c:	e59f302c 	ldr	r3, [pc, #44]	; 91a0 <chSchGoSleepS+0x40>
    9170:	e5932000 	ldr	r2, [r3]
    9174:	e5931018 	ldr	r1, [r3, #24]
    9178:	e592c000 	ldr	ip, [r2]
    917c:	e5c1001c 	strb	r0, [r1, #28]
    9180:	e5c1401f 	strb	r4, [r1, #31]
    9184:	e58c3004 	str	r3, [ip, #4]
    9188:	e5c2e01c 	strb	lr, [r2, #28]
    918c:	e1a00002 	mov	r0, r2
    9190:	e8bd4010 	pop	{r4, lr}
    9194:	e583c000 	str	ip, [r3]
    9198:	e5832018 	str	r2, [r3, #24]
    919c:	eafffbd3 	b	80f0 <_port_switch_arm>
    91a0:	0000c340 	andeq	ip, r0, r0, asr #6
	...

000091b0 <chSchGoSleepTimeoutS>:
    91b0:	e92d4030 	push	{r4, r5, lr}
    91b4:	e3710001 	cmn	r1, #1
    91b8:	e24dd01c 	sub	sp, sp, #28
    91bc:	0a000010 	beq	9204 <chSchGoSleepTimeoutS+0x54>
    91c0:	e1a05000 	mov	r5, r0
    91c4:	e59f4050 	ldr	r4, [pc, #80]	; 921c <chSchGoSleepTimeoutS+0x6c>
    91c8:	e28d0004 	add	r0, sp, #4
    91cc:	e5943018 	ldr	r3, [r4, #24]
    91d0:	e59f2048 	ldr	r2, [pc, #72]	; 9220 <chSchGoSleepTimeoutS+0x70>
    91d4:	ebffff6d 	bl	8f90 <chVTSetI>
    91d8:	e1a00005 	mov	r0, r5
    91dc:	ebffffdf 	bl	9160 <chSchGoSleepS>
    91e0:	e59d3010 	ldr	r3, [sp, #16]
    91e4:	e3530000 	cmp	r3, #0
    91e8:	0a000001 	beq	91f4 <chSchGoSleepTimeoutS+0x44>
    91ec:	e28d0004 	add	r0, sp, #4
    91f0:	ebffff7e 	bl	8ff0 <chVTResetI>
    91f4:	e5943018 	ldr	r3, [r4, #24]
    91f8:	e5930024 	ldr	r0, [r3, #36]	; 0x24
    91fc:	e28dd01c 	add	sp, sp, #28
    9200:	e8bd8030 	pop	{r4, r5, pc}
    9204:	ebffffd5 	bl	9160 <chSchGoSleepS>
    9208:	e59f400c 	ldr	r4, [pc, #12]	; 921c <chSchGoSleepTimeoutS+0x6c>
    920c:	e5943018 	ldr	r3, [r4, #24]
    9210:	e5930024 	ldr	r0, [r3, #36]	; 0x24
    9214:	e28dd01c 	add	sp, sp, #28
    9218:	e8bd8030 	pop	{r4, r5, pc}
    921c:	0000c340 	andeq	ip, r0, r0, asr #6
    9220:	00009030 	andeq	r9, r0, r0, lsr r0
	...

00009230 <chSchWakeupS>:
    9230:	e59f3094 	ldr	r3, [pc, #148]	; 92cc <chSchWakeupS+0x9c>
    9234:	e92d4030 	push	{r4, r5, lr}
    9238:	e5934018 	ldr	r4, [r3, #24]
    923c:	e590c008 	ldr	ip, [r0, #8]
    9240:	e1a0e000 	mov	lr, r0
    9244:	e5801024 	str	r1, [r0, #36]	; 0x24
    9248:	e5940008 	ldr	r0, [r4, #8]
    924c:	e15c0000 	cmp	ip, r0
    9250:	8a00000b 	bhi	9284 <chSchWakeupS+0x54>
    9254:	e3a02000 	mov	r2, #0
    9258:	e5ce201c 	strb	r2, [lr, #28]
    925c:	e5933000 	ldr	r3, [r3]
    9260:	e5932008 	ldr	r2, [r3, #8]
    9264:	e15c0002 	cmp	ip, r2
    9268:	9afffffb 	bls	925c <chSchWakeupS+0x2c>
    926c:	e5932004 	ldr	r2, [r3, #4]
    9270:	e58e3000 	str	r3, [lr]
    9274:	e58e2004 	str	r2, [lr, #4]
    9278:	e583e004 	str	lr, [r3, #4]
    927c:	e582e000 	str	lr, [r2]
    9280:	e8bd8030 	pop	{r4, r5, pc}
    9284:	e3a01000 	mov	r1, #0
    9288:	e1a02003 	mov	r2, r3
    928c:	e5c4101c 	strb	r1, [r4, #28]
    9290:	e5922000 	ldr	r2, [r2]
    9294:	e5921008 	ldr	r1, [r2, #8]
    9298:	e1500001 	cmp	r0, r1
    929c:	9afffffb 	bls	9290 <chSchWakeupS+0x60>
    92a0:	e3a05001 	mov	r5, #1
    92a4:	e592c004 	ldr	ip, [r2, #4]
    92a8:	e1a01004 	mov	r1, r4
    92ac:	e8841004 	stm	r4, {r2, ip}
    92b0:	e5824004 	str	r4, [r2, #4]
    92b4:	e58c4000 	str	r4, [ip]
    92b8:	e5ce501c 	strb	r5, [lr, #28]
    92bc:	e1a0000e 	mov	r0, lr
    92c0:	e583e018 	str	lr, [r3, #24]
    92c4:	e8bd4030 	pop	{r4, r5, lr}
    92c8:	eafffb88 	b	80f0 <_port_switch_arm>
    92cc:	0000c340 	andeq	ip, r0, r0, asr #6

000092d0 <chSchIsPreemptionRequired>:
    92d0:	e59f3038 	ldr	r3, [pc, #56]	; 9310 <chSchIsPreemptionRequired+0x40>
    92d4:	e5932018 	ldr	r2, [r3, #24]
    92d8:	e5933000 	ldr	r3, [r3]
    92dc:	e5d2101f 	ldrb	r1, [r2, #31]
    92e0:	e5933008 	ldr	r3, [r3, #8]
    92e4:	e3510000 	cmp	r1, #0
    92e8:	e5920008 	ldr	r0, [r2, #8]
    92ec:	1a000003 	bne	9300 <chSchIsPreemptionRequired+0x30>
    92f0:	e1530000 	cmp	r3, r0
    92f4:	33a00000 	movcc	r0, #0
    92f8:	23a00001 	movcs	r0, #1
    92fc:	e12fff1e 	bx	lr
    9300:	e1530000 	cmp	r3, r0
    9304:	93a00000 	movls	r0, #0
    9308:	83a00001 	movhi	r0, #1
    930c:	e12fff1e 	bx	lr
    9310:	0000c340 	andeq	ip, r0, r0, asr #6
	...

00009320 <chSchDoRescheduleBehind>:
    9320:	e92d4070 	push	{r4, r5, r6, lr}
    9324:	e3a06001 	mov	r6, #1
    9328:	e3a05014 	mov	r5, #20
    932c:	e3a04000 	mov	r4, #0
    9330:	e59f205c 	ldr	r2, [pc, #92]	; 9394 <chSchDoRescheduleBehind+0x74>
    9334:	e5920000 	ldr	r0, [r2]
    9338:	e592c018 	ldr	ip, [r2, #24]
    933c:	e590e000 	ldr	lr, [r0]
    9340:	e59c1008 	ldr	r1, [ip, #8]
    9344:	e1a03000 	mov	r3, r0
    9348:	e58e2004 	str	r2, [lr, #4]
    934c:	e582e000 	str	lr, [r2]
    9350:	e5c0601c 	strb	r6, [r0, #28]
    9354:	e5820018 	str	r0, [r2, #24]
    9358:	e5cc501f 	strb	r5, [ip, #31]
    935c:	e5cc401c 	strb	r4, [ip, #28]
    9360:	ea000000 	b	9368 <chSchDoRescheduleBehind+0x48>
    9364:	e5933000 	ldr	r3, [r3]
    9368:	e5932008 	ldr	r2, [r3, #8]
    936c:	e1520001 	cmp	r2, r1
    9370:	2afffffb 	bcs	9364 <chSchDoRescheduleBehind+0x44>
    9374:	e5932004 	ldr	r2, [r3, #4]
    9378:	e1a0100c 	mov	r1, ip
    937c:	e8bd4070 	pop	{r4, r5, r6, lr}
    9380:	e58c3000 	str	r3, [ip]
    9384:	e58c2004 	str	r2, [ip, #4]
    9388:	e583c004 	str	ip, [r3, #4]
    938c:	e582c000 	str	ip, [r2]
    9390:	eafffb56 	b	80f0 <_port_switch_arm>
    9394:	0000c340 	andeq	ip, r0, r0, asr #6
	...

000093a0 <chSchDoRescheduleAhead>:
    93a0:	e92d4030 	push	{r4, r5, lr}
    93a4:	e3a05001 	mov	r5, #1
    93a8:	e3a04000 	mov	r4, #0
    93ac:	e59f2058 	ldr	r2, [pc, #88]	; 940c <chSchDoRescheduleAhead+0x6c>
    93b0:	e5920000 	ldr	r0, [r2]
    93b4:	e592c018 	ldr	ip, [r2, #24]
    93b8:	e590e000 	ldr	lr, [r0]
    93bc:	e59c1008 	ldr	r1, [ip, #8]
    93c0:	e1a03000 	mov	r3, r0
    93c4:	e58e2004 	str	r2, [lr, #4]
    93c8:	e582e000 	str	lr, [r2]
    93cc:	e5c0501c 	strb	r5, [r0, #28]
    93d0:	e5820018 	str	r0, [r2, #24]
    93d4:	e5cc401c 	strb	r4, [ip, #28]
    93d8:	ea000000 	b	93e0 <chSchDoRescheduleAhead+0x40>
    93dc:	e5933000 	ldr	r3, [r3]
    93e0:	e5932008 	ldr	r2, [r3, #8]
    93e4:	e1520001 	cmp	r2, r1
    93e8:	8afffffb 	bhi	93dc <chSchDoRescheduleAhead+0x3c>
    93ec:	e5932004 	ldr	r2, [r3, #4]
    93f0:	e1a0100c 	mov	r1, ip
    93f4:	e8bd4030 	pop	{r4, r5, lr}
    93f8:	e58c3000 	str	r3, [ip]
    93fc:	e58c2004 	str	r2, [ip, #4]
    9400:	e583c004 	str	ip, [r3, #4]
    9404:	e582c000 	str	ip, [r2]
    9408:	eafffb38 	b	80f0 <_port_switch_arm>
    940c:	0000c340 	andeq	ip, r0, r0, asr #6

00009410 <chSchDoReschedule>:
    9410:	e59f3014 	ldr	r3, [pc, #20]	; 942c <chSchDoReschedule+0x1c>
    9414:	e5933018 	ldr	r3, [r3, #24]
    9418:	e5d3301f 	ldrb	r3, [r3, #31]
    941c:	e3530000 	cmp	r3, #0
    9420:	0a000000 	beq	9428 <chSchDoReschedule+0x18>
    9424:	eaffffdd 	b	93a0 <chSchDoRescheduleAhead>
    9428:	eaffffbc 	b	9320 <chSchDoRescheduleBehind>
    942c:	0000c340 	andeq	ip, r0, r0, asr #6

00009430 <_thread_init>:
    9430:	e92d41f0 	push	{r4, r5, r6, r7, r8, lr}
    9434:	e3a02000 	mov	r2, #0
    9438:	e3a08002 	mov	r8, #2
    943c:	e3a07014 	mov	r7, #20
    9440:	e3a06001 	mov	r6, #1
    9444:	e59fc050 	ldr	ip, [pc, #80]	; 949c <_thread_init+0x6c>
    9448:	e280e02c 	add	lr, r0, #44	; 0x2c
    944c:	e59c4014 	ldr	r4, [ip, #20]
    9450:	e2805028 	add	r5, r0, #40	; 0x28
    9454:	e5804014 	str	r4, [r0, #20]
    9458:	e5801008 	str	r1, [r0, #8]
    945c:	e580c010 	str	ip, [r0, #16]
    9460:	e5801040 	str	r1, [r0, #64]	; 0x40
    9464:	e58c0014 	str	r0, [ip, #20]
    9468:	e5c0801c 	strb	r8, [r0, #28]
    946c:	e5c0701f 	strb	r7, [r0, #31]
    9470:	e5c0601e 	strb	r6, [r0, #30]
    9474:	e5c0201d 	strb	r2, [r0, #29]
    9478:	e580203c 	str	r2, [r0, #60]	; 0x3c
    947c:	e5802038 	str	r2, [r0, #56]	; 0x38
    9480:	e5802020 	str	r2, [r0, #32]
    9484:	e5802018 	str	r2, [r0, #24]
    9488:	e5840010 	str	r0, [r4, #16]
    948c:	e5805028 	str	r5, [r0, #40]	; 0x28
    9490:	e580e030 	str	lr, [r0, #48]	; 0x30
    9494:	e580e02c 	str	lr, [r0, #44]	; 0x2c
    9498:	e8bd81f0 	pop	{r4, r5, r6, r7, r8, pc}
    949c:	0000c340 	andeq	ip, r0, r0, asr #6

000094a0 <chThdCreateI>:
    94a0:	e92d4ff0 	push	{r4, r5, r6, r7, r8, r9, sl, fp, lr}
    94a4:	e3a0e000 	mov	lr, #0
    94a8:	e3a09002 	mov	r9, #2
    94ac:	e3a08014 	mov	r8, #20
    94b0:	e3a07001 	mov	r7, #1
    94b4:	e59f4070 	ldr	r4, [pc, #112]	; 952c <chThdCreateI+0x8c>
    94b8:	e2411024 	sub	r1, r1, #36	; 0x24
    94bc:	e5946014 	ldr	r6, [r4, #20]
    94c0:	e0805001 	add	r5, r0, r1
    94c4:	e59db024 	ldr	fp, [sp, #36]	; 0x24
    94c8:	e59fa060 	ldr	sl, [pc, #96]	; 9530 <chThdCreateI+0x90>
    94cc:	e580500c 	str	r5, [r0, #12]
    94d0:	e7803001 	str	r3, [r0, r1]
    94d4:	e280302c 	add	r3, r0, #44	; 0x2c
    94d8:	e2801028 	add	r1, r0, #40	; 0x28
    94dc:	e585b004 	str	fp, [r5, #4]
    94e0:	e585a020 	str	sl, [r5, #32]
    94e4:	e5802008 	str	r2, [r0, #8]
    94e8:	e5804010 	str	r4, [r0, #16]
    94ec:	e5806014 	str	r6, [r0, #20]
    94f0:	e5802040 	str	r2, [r0, #64]	; 0x40
    94f4:	e5c0901c 	strb	r9, [r0, #28]
    94f8:	e5c0801f 	strb	r8, [r0, #31]
    94fc:	e5c0701e 	strb	r7, [r0, #30]
    9500:	e5c0e01d 	strb	lr, [r0, #29]
    9504:	e5840014 	str	r0, [r4, #20]
    9508:	e580e03c 	str	lr, [r0, #60]	; 0x3c
    950c:	e580e038 	str	lr, [r0, #56]	; 0x38
    9510:	e580e020 	str	lr, [r0, #32]
    9514:	e580e018 	str	lr, [r0, #24]
    9518:	e5860010 	str	r0, [r6, #16]
    951c:	e5801028 	str	r1, [r0, #40]	; 0x28
    9520:	e5803030 	str	r3, [r0, #48]	; 0x30
    9524:	e580302c 	str	r3, [r0, #44]	; 0x2c
    9528:	e8bd8ff0 	pop	{r4, r5, r6, r7, r8, r9, sl, fp, pc}
    952c:	0000c340 	andeq	ip, r0, r0, asr #6
    9530:	00008160 	andeq	r8, r0, r0, ror #2
	...

00009540 <chThdCreateStatic>:
    9540:	e92d4ff8 	push	{r3, r4, r5, r6, r7, r8, r9, sl, fp, lr}
    9544:	e1a04000 	mov	r4, r0
    9548:	e321f09f 	msr	CPSR_c, #159	; 0x9f
    954c:	e3a0c000 	mov	ip, #0
    9550:	e3a0a002 	mov	sl, #2
    9554:	e3a09014 	mov	r9, #20
    9558:	e3a08001 	mov	r8, #1
    955c:	e59fe080 	ldr	lr, [pc, #128]	; 95e4 <chThdCreateStatic+0xa4>
    9560:	e2411024 	sub	r1, r1, #36	; 0x24
    9564:	e0805001 	add	r5, r0, r1
    9568:	e59e6014 	ldr	r6, [lr, #20]
    956c:	e59fb074 	ldr	fp, [pc, #116]	; 95e8 <chThdCreateStatic+0xa8>
    9570:	e580500c 	str	r5, [r0, #12]
    9574:	e7803001 	str	r3, [r0, r1]
    9578:	e59d1028 	ldr	r1, [sp, #40]	; 0x28
    957c:	e280302c 	add	r3, r0, #44	; 0x2c
    9580:	e2807028 	add	r7, r0, #40	; 0x28
    9584:	e5851004 	str	r1, [r5, #4]
    9588:	e585b020 	str	fp, [r5, #32]
    958c:	e1a0100c 	mov	r1, ip
    9590:	e5802008 	str	r2, [r0, #8]
    9594:	e580e010 	str	lr, [r0, #16]
    9598:	e5806014 	str	r6, [r0, #20]
    959c:	e5802040 	str	r2, [r0, #64]	; 0x40
    95a0:	e5c0a01c 	strb	sl, [r0, #28]
    95a4:	e5c0901f 	strb	r9, [r0, #31]
    95a8:	e5c0801e 	strb	r8, [r0, #30]
    95ac:	e5c0c01d 	strb	ip, [r0, #29]
    95b0:	e58e0014 	str	r0, [lr, #20]
    95b4:	e580c03c 	str	ip, [r0, #60]	; 0x3c
    95b8:	e580c038 	str	ip, [r0, #56]	; 0x38
    95bc:	e580c020 	str	ip, [r0, #32]
    95c0:	e580c018 	str	ip, [r0, #24]
    95c4:	e5860010 	str	r0, [r6, #16]
    95c8:	e5807028 	str	r7, [r0, #40]	; 0x28
    95cc:	e5803030 	str	r3, [r0, #48]	; 0x30
    95d0:	e580302c 	str	r3, [r0, #44]	; 0x2c
    95d4:	ebffff15 	bl	9230 <chSchWakeupS>
    95d8:	e321f01f 	msr	CPSR_c, #31
    95dc:	e1a00004 	mov	r0, r4
    95e0:	e8bd8ff8 	pop	{r3, r4, r5, r6, r7, r8, r9, sl, fp, pc}
    95e4:	0000c340 	andeq	ip, r0, r0, asr #6
    95e8:	00008160 	andeq	r8, r0, r0, ror #2
    95ec:	00000000 	andeq	r0, r0, r0

000095f0 <chThdSleep>:
    95f0:	e92d4008 	push	{r3, lr}
    95f4:	e1a01000 	mov	r1, r0
    95f8:	e321f09f 	msr	CPSR_c, #159	; 0x9f
    95fc:	e3a00006 	mov	r0, #6
    9600:	ebfffeea 	bl	91b0 <chSchGoSleepTimeoutS>
    9604:	e321f01f 	msr	CPSR_c, #31
    9608:	e8bd8008 	pop	{r3, pc}
    960c:	00000000 	andeq	r0, r0, r0

00009610 <chThdExitS>:
    9610:	e92d4038 	push	{r3, r4, r5, lr}
    9614:	e59f305c 	ldr	r3, [pc, #92]	; 9678 <chThdExitS+0x68>
    9618:	e5934018 	ldr	r4, [r3, #24]
    961c:	e1a05004 	mov	r5, r4
    9620:	e5b53028 	ldr	r3, [r5, #40]!	; 0x28
    9624:	e5840024 	str	r0, [r4, #36]	; 0x24
    9628:	e1530005 	cmp	r3, r5
    962c:	0a000006 	beq	964c <chThdExitS+0x3c>
    9630:	e5932000 	ldr	r2, [r3]
    9634:	e1a00003 	mov	r0, r3
    9638:	e5842028 	str	r2, [r4, #40]	; 0x28
    963c:	ebfffeb3 	bl	9110 <chSchReadyI>
    9640:	e5943028 	ldr	r3, [r4, #40]	; 0x28
    9644:	e1530005 	cmp	r3, r5
    9648:	1afffff8 	bne	9630 <chThdExitS+0x20>
    964c:	e5d4301d 	ldrb	r3, [r4, #29]
    9650:	e3130003 	tst	r3, #3
    9654:	1a000004 	bne	966c <chThdExitS+0x5c>
    9658:	e5942010 	ldr	r2, [r4, #16]
    965c:	e5943014 	ldr	r3, [r4, #20]
    9660:	e5832010 	str	r2, [r3, #16]
    9664:	e5942010 	ldr	r2, [r4, #16]
    9668:	e5823014 	str	r3, [r2, #20]
    966c:	e3a0000e 	mov	r0, #14
    9670:	e8bd4038 	pop	{r3, r4, r5, lr}
    9674:	eafffeb9 	b	9160 <chSchGoSleepS>
    9678:	0000c340 	andeq	ip, r0, r0, asr #6
    967c:	00000000 	andeq	r0, r0, r0

00009680 <chThdExit>:
    9680:	e321f09f 	msr	CPSR_c, #159	; 0x9f
    9684:	eaffffe1 	b	9610 <chThdExitS>
	...

00009690 <chThdWait>:
    9690:	e92d4038 	push	{r3, r4, r5, lr}
    9694:	e1a04000 	mov	r4, r0
    9698:	e321f09f 	msr	CPSR_c, #159	; 0x9f
    969c:	e5d0301c 	ldrb	r3, [r0, #28]
    96a0:	e353000e 	cmp	r3, #14
    96a4:	0a000006 	beq	96c4 <chThdWait+0x34>
    96a8:	e59f302c 	ldr	r3, [pc, #44]	; 96dc <chThdWait+0x4c>
    96ac:	e5902028 	ldr	r2, [r0, #40]	; 0x28
    96b0:	e5933018 	ldr	r3, [r3, #24]
    96b4:	e3a00007 	mov	r0, #7
    96b8:	e5832000 	str	r2, [r3]
    96bc:	e5843028 	str	r3, [r4, #40]	; 0x28
    96c0:	ebfffea6 	bl	9160 <chSchGoSleepS>
    96c4:	e5945024 	ldr	r5, [r4, #36]	; 0x24
    96c8:	e321f01f 	msr	CPSR_c, #31
    96cc:	e1a00004 	mov	r0, r4
    96d0:	eb000002 	bl	96e0 <chThdRelease>
    96d4:	e1a00005 	mov	r0, r5
    96d8:	e8bd8038 	pop	{r3, r4, r5, pc}
    96dc:	0000c340 	andeq	ip, r0, r0, asr #6

000096e0 <chThdRelease>:
    96e0:	e321f09f 	msr	CPSR_c, #159	; 0x9f
    96e4:	e5d0301e 	ldrb	r3, [r0, #30]
    96e8:	e2433001 	sub	r3, r3, #1
    96ec:	e6ef3073 	uxtb	r3, r3
    96f0:	e5c0301e 	strb	r3, [r0, #30]
    96f4:	e321f01f 	msr	CPSR_c, #31
    96f8:	e3530000 	cmp	r3, #0
    96fc:	112fff1e 	bxne	lr
    9700:	e5d0301c 	ldrb	r3, [r0, #28]
    9704:	e353000e 	cmp	r3, #14
    9708:	112fff1e 	bxne	lr
    970c:	e5d0301d 	ldrb	r3, [r0, #29]
    9710:	e2033003 	and	r3, r3, #3
    9714:	e3530001 	cmp	r3, #1
    9718:	112fff1e 	bxne	lr
    971c:	e5903014 	ldr	r3, [r0, #20]
    9720:	e5901010 	ldr	r1, [r0, #16]
    9724:	e5831010 	str	r1, [r3, #16]
    9728:	e5902010 	ldr	r2, [r0, #16]
    972c:	e5823014 	str	r3, [r2, #20]
    9730:	ea000256 	b	a090 <chHeapFree>
	...

00009740 <chThdCreateFromHeap>:
    9740:	e92d40f0 	push	{r4, r5, r6, r7, lr}
    9744:	e24dd00c 	sub	sp, sp, #12
    9748:	e1a06002 	mov	r6, r2
    974c:	e1a05003 	mov	r5, r3
    9750:	e1a07001 	mov	r7, r1
    9754:	eb000215 	bl	9fb0 <chHeapAlloc>
    9758:	e2504000 	subs	r4, r0, #0
    975c:	0a00000f 	beq	97a0 <chThdCreateFromHeap+0x60>
    9760:	e321f09f 	msr	CPSR_c, #159	; 0x9f
    9764:	e59d3020 	ldr	r3, [sp, #32]
    9768:	e1a01007 	mov	r1, r7
    976c:	e58d3000 	str	r3, [sp]
    9770:	e1a02006 	mov	r2, r6
    9774:	e1a03005 	mov	r3, r5
    9778:	ebffff48 	bl	94a0 <chThdCreateI>
    977c:	e3a03001 	mov	r3, #1
    9780:	e3a01000 	mov	r1, #0
    9784:	e5c0301d 	strb	r3, [r0, #29]
    9788:	e1a04000 	mov	r4, r0
    978c:	ebfffea7 	bl	9230 <chSchWakeupS>
    9790:	e321f01f 	msr	CPSR_c, #31
    9794:	e1a00004 	mov	r0, r4
    9798:	e28dd00c 	add	sp, sp, #12
    979c:	e8bd80f0 	pop	{r4, r5, r6, r7, pc}
    97a0:	e1a00004 	mov	r0, r4
    97a4:	eafffffb 	b	9798 <chThdCreateFromHeap+0x58>
	...

000097b0 <chMtxInit>:
    97b0:	e3a03000 	mov	r3, #0
    97b4:	e5800004 	str	r0, [r0, #4]
    97b8:	e5800000 	str	r0, [r0]
    97bc:	e5803008 	str	r3, [r0, #8]
    97c0:	e12fff1e 	bx	lr
	...

000097d0 <chMtxLockS>:
    97d0:	e5902008 	ldr	r2, [r0, #8]
    97d4:	e92d4038 	push	{r3, r4, r5, lr}
    97d8:	e59f3168 	ldr	r3, [pc, #360]	; 9948 <chMtxLockS+0x178>
    97dc:	e3520000 	cmp	r2, #0
    97e0:	e5934018 	ldr	r4, [r3, #24]
    97e4:	0a000052 	beq	9934 <chMtxLockS+0x164>
    97e8:	e5941008 	ldr	r1, [r4, #8]
    97ec:	e5923008 	ldr	r3, [r2, #8]
    97f0:	e1a05000 	mov	r5, r0
    97f4:	e1510003 	cmp	r1, r3
    97f8:	9a000007 	bls	981c <chMtxLockS+0x4c>
    97fc:	e5d2301c 	ldrb	r3, [r2, #28]
    9800:	e5821008 	str	r1, [r2, #8]
    9804:	e3530004 	cmp	r3, #4
    9808:	0a000030 	beq	98d0 <chMtxLockS+0x100>
    980c:	e3530005 	cmp	r3, #5
    9810:	0a00001a 	beq	9880 <chMtxLockS+0xb0>
    9814:	e3530000 	cmp	r3, #0
    9818:	0a000011 	beq	9864 <chMtxLockS+0x94>
    981c:	e1a03005 	mov	r3, r5
    9820:	ea000003 	b	9834 <chMtxLockS+0x64>
    9824:	e5931008 	ldr	r1, [r3, #8]
    9828:	e5942008 	ldr	r2, [r4, #8]
    982c:	e1510002 	cmp	r1, r2
    9830:	3a000002 	bcc	9840 <chMtxLockS+0x70>
    9834:	e5933000 	ldr	r3, [r3]
    9838:	e1550003 	cmp	r5, r3
    983c:	1afffff8 	bne	9824 <chMtxLockS+0x54>
    9840:	e5932004 	ldr	r2, [r3, #4]
    9844:	e5843000 	str	r3, [r4]
    9848:	e5842004 	str	r2, [r4, #4]
    984c:	e5834004 	str	r4, [r3, #4]
    9850:	e5824000 	str	r4, [r2]
    9854:	e5845024 	str	r5, [r4, #36]	; 0x24
    9858:	e3a00004 	mov	r0, #4
    985c:	e8bd4038 	pop	{r3, r4, r5, lr}
    9860:	eafffe3e 	b	9160 <chSchGoSleepS>
    9864:	e892000a 	ldm	r2, {r1, r3}
    9868:	e5831000 	str	r1, [r3]
    986c:	e1a00002 	mov	r0, r2
    9870:	e5922000 	ldr	r2, [r2]
    9874:	e5823004 	str	r3, [r2, #4]
    9878:	ebfffe24 	bl	9110 <chSchReadyI>
    987c:	eaffffe6 	b	981c <chMtxLockS+0x4c>
    9880:	e592e000 	ldr	lr, [r2]
    9884:	e5920004 	ldr	r0, [r2, #4]
    9888:	e592c024 	ldr	ip, [r2, #36]	; 0x24
    988c:	e580e000 	str	lr, [r0]
    9890:	e592e000 	ldr	lr, [r2]
    9894:	e1a0300c 	mov	r3, ip
    9898:	e58e0004 	str	r0, [lr, #4]
    989c:	ea000002 	b	98ac <chMtxLockS+0xdc>
    98a0:	e5930008 	ldr	r0, [r3, #8]
    98a4:	e1500001 	cmp	r0, r1
    98a8:	3a000002 	bcc	98b8 <chMtxLockS+0xe8>
    98ac:	e5933000 	ldr	r3, [r3]
    98b0:	e15c0003 	cmp	ip, r3
    98b4:	1afffff9 	bne	98a0 <chMtxLockS+0xd0>
    98b8:	e5931004 	ldr	r1, [r3, #4]
    98bc:	e5823000 	str	r3, [r2]
    98c0:	e5821004 	str	r1, [r2, #4]
    98c4:	e5832004 	str	r2, [r3, #4]
    98c8:	e5812000 	str	r2, [r1]
    98cc:	eaffffd2 	b	981c <chMtxLockS+0x4c>
    98d0:	e592e000 	ldr	lr, [r2]
    98d4:	e5920004 	ldr	r0, [r2, #4]
    98d8:	e592c024 	ldr	ip, [r2, #36]	; 0x24
    98dc:	e580e000 	str	lr, [r0]
    98e0:	e592e000 	ldr	lr, [r2]
    98e4:	e1a0300c 	mov	r3, ip
    98e8:	e58e0004 	str	r0, [lr, #4]
    98ec:	ea000002 	b	98fc <chMtxLockS+0x12c>
    98f0:	e5930008 	ldr	r0, [r3, #8]
    98f4:	e1500001 	cmp	r0, r1
    98f8:	3a000002 	bcc	9908 <chMtxLockS+0x138>
    98fc:	e5933000 	ldr	r3, [r3]
    9900:	e15c0003 	cmp	ip, r3
    9904:	1afffff9 	bne	98f0 <chMtxLockS+0x120>
    9908:	e5931004 	ldr	r1, [r3, #4]
    990c:	e5823000 	str	r3, [r2]
    9910:	e5821004 	str	r1, [r2, #4]
    9914:	e5832004 	str	r2, [r3, #4]
    9918:	e5812000 	str	r2, [r1]
    991c:	e59c2008 	ldr	r2, [ip, #8]
    9920:	e5941008 	ldr	r1, [r4, #8]
    9924:	e5923008 	ldr	r3, [r2, #8]
    9928:	e1530001 	cmp	r3, r1
    992c:	3affffb2 	bcc	97fc <chMtxLockS+0x2c>
    9930:	eaffffb9 	b	981c <chMtxLockS+0x4c>
    9934:	e594303c 	ldr	r3, [r4, #60]	; 0x3c
    9938:	e5804008 	str	r4, [r0, #8]
    993c:	e580300c 	str	r3, [r0, #12]
    9940:	e584003c 	str	r0, [r4, #60]	; 0x3c
    9944:	e8bd8038 	pop	{r3, r4, r5, pc}
    9948:	0000c340 	andeq	ip, r0, r0, asr #6
    994c:	00000000 	andeq	r0, r0, r0

00009950 <chMtxLock>:
    9950:	e92d4008 	push	{r3, lr}
    9954:	e321f09f 	msr	CPSR_c, #159	; 0x9f
    9958:	ebffff9c 	bl	97d0 <chMtxLockS>
    995c:	e321f01f 	msr	CPSR_c, #31
    9960:	e8bd8008 	pop	{r3, pc}
	...

00009970 <chMtxUnlock>:
    9970:	e59f3094 	ldr	r3, [pc, #148]	; 9a0c <chMtxUnlock+0x9c>
    9974:	e92d4010 	push	{r4, lr}
    9978:	e5930018 	ldr	r0, [r3, #24]
    997c:	e321f09f 	msr	CPSR_c, #159	; 0x9f
    9980:	e590403c 	ldr	r4, [r0, #60]	; 0x3c
    9984:	e594c000 	ldr	ip, [r4]
    9988:	e594300c 	ldr	r3, [r4, #12]
    998c:	e15c0004 	cmp	ip, r4
    9990:	e580303c 	str	r3, [r0, #60]	; 0x3c
    9994:	0a000019 	beq	9a00 <chMtxUnlock+0x90>
    9998:	e3530000 	cmp	r3, #0
    999c:	e5901040 	ldr	r1, [r0, #64]	; 0x40
    99a0:	0a000008 	beq	99c8 <chMtxUnlock+0x58>
    99a4:	e5932000 	ldr	r2, [r3]
    99a8:	e1520003 	cmp	r2, r3
    99ac:	0a000002 	beq	99bc <chMtxUnlock+0x4c>
    99b0:	e5922008 	ldr	r2, [r2, #8]
    99b4:	e1510002 	cmp	r1, r2
    99b8:	31a01002 	movcc	r1, r2
    99bc:	e593300c 	ldr	r3, [r3, #12]
    99c0:	e3530000 	cmp	r3, #0
    99c4:	1afffff6 	bne	99a4 <chMtxUnlock+0x34>
    99c8:	e59c203c 	ldr	r2, [ip, #60]	; 0x3c
    99cc:	e59c3000 	ldr	r3, [ip]
    99d0:	e5801008 	str	r1, [r0, #8]
    99d4:	e5843000 	str	r3, [r4]
    99d8:	e1a0000c 	mov	r0, ip
    99dc:	e5834004 	str	r4, [r3, #4]
    99e0:	e3a01000 	mov	r1, #0
    99e4:	e584c008 	str	ip, [r4, #8]
    99e8:	e584200c 	str	r2, [r4, #12]
    99ec:	e58c403c 	str	r4, [ip, #60]	; 0x3c
    99f0:	ebfffe0e 	bl	9230 <chSchWakeupS>
    99f4:	e321f01f 	msr	CPSR_c, #31
    99f8:	e1a00004 	mov	r0, r4
    99fc:	e8bd8010 	pop	{r4, pc}
    9a00:	e3a03000 	mov	r3, #0
    9a04:	e5843008 	str	r3, [r4, #8]
    9a08:	eafffff9 	b	99f4 <chMtxUnlock+0x84>
    9a0c:	0000c340 	andeq	ip, r0, r0, asr #6

00009a10 <chEvtSignalI>:
    9a10:	e92d4008 	push	{r3, lr}
    9a14:	e5903038 	ldr	r3, [r0, #56]	; 0x38
    9a18:	e5d0201c 	ldrb	r2, [r0, #28]
    9a1c:	e1811003 	orr	r1, r1, r3
    9a20:	e3520008 	cmp	r2, #8
    9a24:	e5801038 	str	r1, [r0, #56]	; 0x38
    9a28:	0a000009 	beq	9a54 <chEvtSignalI+0x44>
    9a2c:	e3520009 	cmp	r2, #9
    9a30:	18bd8008 	popne	{r3, pc}
    9a34:	e5903024 	ldr	r3, [r0, #36]	; 0x24
    9a38:	e0011003 	and	r1, r1, r3
    9a3c:	e1530001 	cmp	r3, r1
    9a40:	18bd8008 	popne	{r3, pc}
    9a44:	ebfffdb1 	bl	9110 <chSchReadyI>
    9a48:	e3a03000 	mov	r3, #0
    9a4c:	e5803024 	str	r3, [r0, #36]	; 0x24
    9a50:	e8bd8008 	pop	{r3, pc}
    9a54:	e5903024 	ldr	r3, [r0, #36]	; 0x24
    9a58:	e1110003 	tst	r1, r3
    9a5c:	08bd8008 	popeq	{r3, pc}
    9a60:	eafffff7 	b	9a44 <chEvtSignalI+0x34>
	...

00009a70 <chEvtBroadcastFlagsI>:
    9a70:	e92d4070 	push	{r4, r5, r6, lr}
    9a74:	e5904000 	ldr	r4, [r0]
    9a78:	e1a05000 	mov	r5, r0
    9a7c:	e1500004 	cmp	r0, r4
    9a80:	e1a06001 	mov	r6, r1
    9a84:	08bd8070 	popeq	{r4, r5, r6, pc}
    9a88:	e594300c 	ldr	r3, [r4, #12]
    9a8c:	e5940004 	ldr	r0, [r4, #4]
    9a90:	e1833006 	orr	r3, r3, r6
    9a94:	e584300c 	str	r3, [r4, #12]
    9a98:	e5941008 	ldr	r1, [r4, #8]
    9a9c:	ebffffdb 	bl	9a10 <chEvtSignalI>
    9aa0:	e5944000 	ldr	r4, [r4]
    9aa4:	e1550004 	cmp	r5, r4
    9aa8:	1afffff6 	bne	9a88 <chEvtBroadcastFlagsI+0x18>
    9aac:	e8bd8070 	pop	{r4, r5, r6, pc}

00009ab0 <qwait>:
    9ab0:	e3510000 	cmp	r1, #0
    9ab4:	e1a02000 	mov	r2, r0
    9ab8:	0a000008 	beq	9ae0 <qwait+0x30>
    9abc:	e59f3024 	ldr	r3, [pc, #36]	; 9ae8 <qwait+0x38>
    9ac0:	e3a0000d 	mov	r0, #13
    9ac4:	e5933018 	ldr	r3, [r3, #24]
    9ac8:	e5832024 	str	r2, [r3, #36]	; 0x24
    9acc:	e592c004 	ldr	ip, [r2, #4]
    9ad0:	e8831004 	stm	r3, {r2, ip}
    9ad4:	e5823004 	str	r3, [r2, #4]
    9ad8:	e58c3000 	str	r3, [ip]
    9adc:	eafffdb3 	b	91b0 <chSchGoSleepTimeoutS>
    9ae0:	e3e00000 	mvn	r0, #0
    9ae4:	e12fff1e 	bx	lr
    9ae8:	0000c340 	andeq	ip, r0, r0, asr #6
    9aec:	00000000 	andeq	r0, r0, r0

00009af0 <chIQInit>:
    9af0:	e52de004 	push	{lr}		; (str lr, [sp, #-4]!)
    9af4:	e3a0e000 	mov	lr, #0
    9af8:	e59dc004 	ldr	ip, [sp, #4]
    9afc:	e0812002 	add	r2, r1, r2
    9b00:	e5802010 	str	r2, [r0, #16]
    9b04:	e5800004 	str	r0, [r0, #4]
    9b08:	e5800000 	str	r0, [r0]
    9b0c:	e5801014 	str	r1, [r0, #20]
    9b10:	e5801018 	str	r1, [r0, #24]
    9b14:	e580100c 	str	r1, [r0, #12]
    9b18:	e580301c 	str	r3, [r0, #28]
    9b1c:	e580e008 	str	lr, [r0, #8]
    9b20:	e580c020 	str	ip, [r0, #32]
    9b24:	e49df004 	pop	{pc}		; (ldr pc, [sp], #4)
	...

00009b30 <chIQPutI>:
    9b30:	e92d4008 	push	{r3, lr}
    9b34:	e1a03000 	mov	r3, r0
    9b38:	e5900014 	ldr	r0, [r0, #20]
    9b3c:	e5932018 	ldr	r2, [r3, #24]
    9b40:	e1500002 	cmp	r0, r2
    9b44:	e5932008 	ldr	r2, [r3, #8]
    9b48:	0a000016 	beq	9ba8 <chIQPutI+0x78>
    9b4c:	e2822001 	add	r2, r2, #1
    9b50:	e280c001 	add	ip, r0, #1
    9b54:	e583c014 	str	ip, [r3, #20]
    9b58:	e5832008 	str	r2, [r3, #8]
    9b5c:	e5c01000 	strb	r1, [r0]
    9b60:	e5932010 	ldr	r2, [r3, #16]
    9b64:	e5931014 	ldr	r1, [r3, #20]
    9b68:	e5930000 	ldr	r0, [r3]
    9b6c:	e1510002 	cmp	r1, r2
    9b70:	2593200c 	ldrcs	r2, [r3, #12]
    9b74:	25832014 	strcs	r2, [r3, #20]
    9b78:	e1500003 	cmp	r0, r3
    9b7c:	0a000007 	beq	9ba0 <chIQPutI+0x70>
    9b80:	e5902000 	ldr	r2, [r0]
    9b84:	e5832000 	str	r2, [r3]
    9b88:	e5823004 	str	r3, [r2, #4]
    9b8c:	ebfffd5f 	bl	9110 <chSchReadyI>
    9b90:	e3a03000 	mov	r3, #0
    9b94:	e5803024 	str	r3, [r0, #36]	; 0x24
    9b98:	e1a00003 	mov	r0, r3
    9b9c:	e8bd8008 	pop	{r3, pc}
    9ba0:	e3a00000 	mov	r0, #0
    9ba4:	e8bd8008 	pop	{r3, pc}
    9ba8:	e3520000 	cmp	r2, #0
    9bac:	0affffe6 	beq	9b4c <chIQPutI+0x1c>
    9bb0:	e3e00003 	mvn	r0, #3
    9bb4:	e8bd8008 	pop	{r3, pc}
	...

00009bc0 <chIQGetTimeout>:
    9bc0:	e92d4038 	push	{r3, r4, r5, lr}
    9bc4:	e1a05001 	mov	r5, r1
    9bc8:	e1a04000 	mov	r4, r0
    9bcc:	e321f09f 	msr	CPSR_c, #159	; 0x9f
    9bd0:	e590301c 	ldr	r3, [r0, #28]
    9bd4:	e3530000 	cmp	r3, #0
    9bd8:	0a000006 	beq	9bf8 <chIQGetTimeout+0x38>
    9bdc:	e12fff33 	blx	r3
    9be0:	ea000004 	b	9bf8 <chIQGetTimeout+0x38>
    9be4:	e1a00004 	mov	r0, r4
    9be8:	e1a01005 	mov	r1, r5
    9bec:	ebffffaf 	bl	9ab0 <qwait>
    9bf0:	e3500000 	cmp	r0, #0
    9bf4:	ba00000c 	blt	9c2c <chIQGetTimeout+0x6c>
    9bf8:	e5943008 	ldr	r3, [r4, #8]
    9bfc:	e3530000 	cmp	r3, #0
    9c00:	0afffff7 	beq	9be4 <chIQGetTimeout+0x24>
    9c04:	e5942018 	ldr	r2, [r4, #24]
    9c08:	e5940010 	ldr	r0, [r4, #16]
    9c0c:	e2821001 	add	r1, r2, #1
    9c10:	e2433001 	sub	r3, r3, #1
    9c14:	e1510000 	cmp	r1, r0
    9c18:	e5843008 	str	r3, [r4, #8]
    9c1c:	2594300c 	ldrcs	r3, [r4, #12]
    9c20:	e5841018 	str	r1, [r4, #24]
    9c24:	e5d20000 	ldrb	r0, [r2]
    9c28:	25843018 	strcs	r3, [r4, #24]
    9c2c:	e321f01f 	msr	CPSR_c, #31
    9c30:	e8bd8038 	pop	{r3, r4, r5, pc}
	...

00009c40 <chIQReadTimeout>:
    9c40:	e92d43f8 	push	{r3, r4, r5, r6, r7, r8, r9, lr}
    9c44:	e1a04000 	mov	r4, r0
    9c48:	e1a08001 	mov	r8, r1
    9c4c:	e1a09002 	mov	r9, r2
    9c50:	e1a05003 	mov	r5, r3
    9c54:	e590701c 	ldr	r7, [r0, #28]
    9c58:	e321f09f 	msr	CPSR_c, #159	; 0x9f
    9c5c:	e3a06000 	mov	r6, #0
    9c60:	e3570000 	cmp	r7, #0
    9c64:	0a000007 	beq	9c88 <chIQReadTimeout+0x48>
    9c68:	e1a00004 	mov	r0, r4
    9c6c:	e12fff37 	blx	r7
    9c70:	ea000004 	b	9c88 <chIQReadTimeout+0x48>
    9c74:	e1a00004 	mov	r0, r4
    9c78:	e1a01005 	mov	r1, r5
    9c7c:	ebffff8b 	bl	9ab0 <qwait>
    9c80:	e3500000 	cmp	r0, #0
    9c84:	1a000014 	bne	9cdc <chIQReadTimeout+0x9c>
    9c88:	e5943008 	ldr	r3, [r4, #8]
    9c8c:	e3530000 	cmp	r3, #0
    9c90:	0afffff7 	beq	9c74 <chIQReadTimeout+0x34>
    9c94:	e5942018 	ldr	r2, [r4, #24]
    9c98:	e2433001 	sub	r3, r3, #1
    9c9c:	e2821001 	add	r1, r2, #1
    9ca0:	e5841018 	str	r1, [r4, #24]
    9ca4:	e5843008 	str	r3, [r4, #8]
    9ca8:	e5d23000 	ldrb	r3, [r2]
    9cac:	e4c83001 	strb	r3, [r8], #1
    9cb0:	e5943010 	ldr	r3, [r4, #16]
    9cb4:	e5942018 	ldr	r2, [r4, #24]
    9cb8:	e1520003 	cmp	r2, r3
    9cbc:	2594300c 	ldrcs	r3, [r4, #12]
    9cc0:	25843018 	strcs	r3, [r4, #24]
    9cc4:	e321f01f 	msr	CPSR_c, #31
    9cc8:	e2866001 	add	r6, r6, #1
    9ccc:	e1590006 	cmp	r9, r6
    9cd0:	0a000002 	beq	9ce0 <chIQReadTimeout+0xa0>
    9cd4:	e321f09f 	msr	CPSR_c, #159	; 0x9f
    9cd8:	eaffffe0 	b	9c60 <chIQReadTimeout+0x20>
    9cdc:	e321f01f 	msr	CPSR_c, #31
    9ce0:	e1a00006 	mov	r0, r6
    9ce4:	e8bd83f8 	pop	{r3, r4, r5, r6, r7, r8, r9, pc}
	...

00009cf0 <chOQInit>:
    9cf0:	e52de004 	push	{lr}		; (str lr, [sp, #-4]!)
    9cf4:	e59dc004 	ldr	ip, [sp, #4]
    9cf8:	e081e002 	add	lr, r1, r2
    9cfc:	e5800004 	str	r0, [r0, #4]
    9d00:	e5800000 	str	r0, [r0]
    9d04:	e5802008 	str	r2, [r0, #8]
    9d08:	e580e010 	str	lr, [r0, #16]
    9d0c:	e5801014 	str	r1, [r0, #20]
    9d10:	e5801018 	str	r1, [r0, #24]
    9d14:	e580100c 	str	r1, [r0, #12]
    9d18:	e580301c 	str	r3, [r0, #28]
    9d1c:	e580c020 	str	ip, [r0, #32]
    9d20:	e49df004 	pop	{pc}		; (ldr pc, [sp], #4)
	...

00009d30 <chOQPutTimeout>:
    9d30:	e92d4070 	push	{r4, r5, r6, lr}
    9d34:	e1a04000 	mov	r4, r0
    9d38:	e1a06001 	mov	r6, r1
    9d3c:	e1a05002 	mov	r5, r2
    9d40:	e321f09f 	msr	CPSR_c, #159	; 0x9f
    9d44:	ea000004 	b	9d5c <chOQPutTimeout+0x2c>
    9d48:	e1a00004 	mov	r0, r4
    9d4c:	e1a01005 	mov	r1, r5
    9d50:	ebffff56 	bl	9ab0 <qwait>
    9d54:	e3500000 	cmp	r0, #0
    9d58:	ba000015 	blt	9db4 <chOQPutTimeout+0x84>
    9d5c:	e5943008 	ldr	r3, [r4, #8]
    9d60:	e3530000 	cmp	r3, #0
    9d64:	0afffff7 	beq	9d48 <chOQPutTimeout+0x18>
    9d68:	e5942014 	ldr	r2, [r4, #20]
    9d6c:	e2433001 	sub	r3, r3, #1
    9d70:	e2821001 	add	r1, r2, #1
    9d74:	e5841014 	str	r1, [r4, #20]
    9d78:	e5843008 	str	r3, [r4, #8]
    9d7c:	e5c26000 	strb	r6, [r2]
    9d80:	e5943010 	ldr	r3, [r4, #16]
    9d84:	e5942014 	ldr	r2, [r4, #20]
    9d88:	e1520003 	cmp	r2, r3
    9d8c:	2594300c 	ldrcs	r3, [r4, #12]
    9d90:	25843014 	strcs	r3, [r4, #20]
    9d94:	e594301c 	ldr	r3, [r4, #28]
    9d98:	e3530000 	cmp	r3, #0
    9d9c:	0a000001 	beq	9da8 <chOQPutTimeout+0x78>
    9da0:	e1a00004 	mov	r0, r4
    9da4:	e12fff33 	blx	r3
    9da8:	e321f01f 	msr	CPSR_c, #31
    9dac:	e3a00000 	mov	r0, #0
    9db0:	e8bd8070 	pop	{r4, r5, r6, pc}
    9db4:	e321f01f 	msr	CPSR_c, #31
    9db8:	e8bd8070 	pop	{r4, r5, r6, pc}
    9dbc:	00000000 	andeq	r0, r0, r0

00009dc0 <chOQGetI>:
    9dc0:	e5903014 	ldr	r3, [r0, #20]
    9dc4:	e5902018 	ldr	r2, [r0, #24]
    9dc8:	e92d4010 	push	{r4, lr}
    9dcc:	e1530002 	cmp	r3, r2
    9dd0:	e5903008 	ldr	r3, [r0, #8]
    9dd4:	0a000015 	beq	9e30 <chOQGetI+0x70>
    9dd8:	e590c010 	ldr	ip, [r0, #16]
    9ddc:	e2833001 	add	r3, r3, #1
    9de0:	e2821001 	add	r1, r2, #1
    9de4:	e151000c 	cmp	r1, ip
    9de8:	e5803008 	str	r3, [r0, #8]
    9dec:	e5801018 	str	r1, [r0, #24]
    9df0:	e5d24000 	ldrb	r4, [r2]
    9df4:	2590300c 	ldrcs	r3, [r0, #12]
    9df8:	e5902000 	ldr	r2, [r0]
    9dfc:	25803018 	strcs	r3, [r0, #24]
    9e00:	e1520000 	cmp	r2, r0
    9e04:	0a000007 	beq	9e28 <chOQGetI+0x68>
    9e08:	e1a03000 	mov	r3, r0
    9e0c:	e5921000 	ldr	r1, [r2]
    9e10:	e1a00002 	mov	r0, r2
    9e14:	e5831000 	str	r1, [r3]
    9e18:	e5813004 	str	r3, [r1, #4]
    9e1c:	ebfffcbb 	bl	9110 <chSchReadyI>
    9e20:	e3a03000 	mov	r3, #0
    9e24:	e5803024 	str	r3, [r0, #36]	; 0x24
    9e28:	e1a00004 	mov	r0, r4
    9e2c:	e8bd8010 	pop	{r4, pc}
    9e30:	e3530000 	cmp	r3, #0
    9e34:	0affffe7 	beq	9dd8 <chOQGetI+0x18>
    9e38:	e3e00002 	mvn	r0, #2
    9e3c:	e8bd8010 	pop	{r4, pc}

00009e40 <chOQWriteTimeout>:
    9e40:	e92d47f0 	push	{r4, r5, r6, r7, r8, r9, sl, lr}
    9e44:	e1a04000 	mov	r4, r0
    9e48:	e1a05001 	mov	r5, r1
    9e4c:	e1a06002 	mov	r6, r2
    9e50:	e1a09003 	mov	r9, r3
    9e54:	e590801c 	ldr	r8, [r0, #28]
    9e58:	e321f09f 	msr	CPSR_c, #159	; 0x9f
    9e5c:	e3a07000 	mov	r7, #0
    9e60:	e5943008 	ldr	r3, [r4, #8]
    9e64:	e285a001 	add	sl, r5, #1
    9e68:	e3530000 	cmp	r3, #0
    9e6c:	e2432001 	sub	r2, r3, #1
    9e70:	0a000015 	beq	9ecc <chOQWriteTimeout+0x8c>
    9e74:	e5943014 	ldr	r3, [r4, #20]
    9e78:	e5842008 	str	r2, [r4, #8]
    9e7c:	e2832001 	add	r2, r3, #1
    9e80:	e5842014 	str	r2, [r4, #20]
    9e84:	e5d52000 	ldrb	r2, [r5]
    9e88:	e5c32000 	strb	r2, [r3]
    9e8c:	e5943010 	ldr	r3, [r4, #16]
    9e90:	e5942014 	ldr	r2, [r4, #20]
    9e94:	e1520003 	cmp	r2, r3
    9e98:	2594300c 	ldrcs	r3, [r4, #12]
    9e9c:	25843014 	strcs	r3, [r4, #20]
    9ea0:	e3580000 	cmp	r8, #0
    9ea4:	0a000001 	beq	9eb0 <chOQWriteTimeout+0x70>
    9ea8:	e1a00004 	mov	r0, r4
    9eac:	e12fff38 	blx	r8
    9eb0:	e321f01f 	msr	CPSR_c, #31
    9eb4:	e2566001 	subs	r6, r6, #1
    9eb8:	e2877001 	add	r7, r7, #1
    9ebc:	0a000008 	beq	9ee4 <chOQWriteTimeout+0xa4>
    9ec0:	e321f09f 	msr	CPSR_c, #159	; 0x9f
    9ec4:	e1a0500a 	mov	r5, sl
    9ec8:	eaffffe4 	b	9e60 <chOQWriteTimeout+0x20>
    9ecc:	e1a00004 	mov	r0, r4
    9ed0:	e1a01009 	mov	r1, r9
    9ed4:	ebfffef5 	bl	9ab0 <qwait>
    9ed8:	e3500000 	cmp	r0, #0
    9edc:	0affffdf 	beq	9e60 <chOQWriteTimeout+0x20>
    9ee0:	e321f01f 	msr	CPSR_c, #31
    9ee4:	e1a00007 	mov	r0, r7
    9ee8:	e8bd87f0 	pop	{r4, r5, r6, r7, r8, r9, sl, pc}
    9eec:	00000000 	andeq	r0, r0, r0

00009ef0 <_core_init>:
    9ef0:	e59f201c 	ldr	r2, [pc, #28]	; 9f14 <_core_init+0x24>
    9ef4:	e59f301c 	ldr	r3, [pc, #28]	; 9f18 <_core_init+0x28>
    9ef8:	e59f001c 	ldr	r0, [pc, #28]	; 9f1c <_core_init+0x2c>
    9efc:	e59f101c 	ldr	r1, [pc, #28]	; 9f20 <_core_init+0x30>
    9f00:	e3c22003 	bic	r2, r2, #3
    9f04:	e3c33003 	bic	r3, r3, #3
    9f08:	e5802000 	str	r2, [r0]
    9f0c:	e5813000 	str	r3, [r1]
    9f10:	e12fff1e 	bx	lr
    9f14:	0000c46f 	andeq	ip, r0, pc, ror #8
    9f18:	06007b44 	streq	r7, [r0], -r4, asr #22
    9f1c:	0000c158 	andeq	ip, r0, r8, asr r1
    9f20:	0000c154 	andeq	ip, r0, r4, asr r1
	...

00009f30 <chCoreAlloc>:
    9f30:	e321f09f 	msr	CPSR_c, #159	; 0x9f
    9f34:	e59fc030 	ldr	ip, [pc, #48]	; 9f6c <chCoreAlloc+0x3c>
    9f38:	e59f3030 	ldr	r3, [pc, #48]	; 9f70 <chCoreAlloc+0x40>
    9f3c:	e59c2000 	ldr	r2, [ip]
    9f40:	e5931000 	ldr	r1, [r3]
    9f44:	e2803003 	add	r3, r0, #3
    9f48:	e3c33003 	bic	r3, r3, #3
    9f4c:	e0621001 	rsb	r1, r2, r1
    9f50:	e1530001 	cmp	r3, r1
    9f54:	90823003 	addls	r3, r2, r3
    9f58:	958c3000 	strls	r3, [ip]
    9f5c:	91a00002 	movls	r0, r2
    9f60:	83a00000 	movhi	r0, #0
    9f64:	e321f01f 	msr	CPSR_c, #31
    9f68:	e12fff1e 	bx	lr
    9f6c:	0000c158 	andeq	ip, r0, r8, asr r1
    9f70:	0000c154 	andeq	ip, r0, r4, asr r1
	...

00009f80 <_heap_init>:
    9f80:	e3a02000 	mov	r2, #0
    9f84:	e59f3014 	ldr	r3, [pc, #20]	; 9fa0 <_heap_init+0x20>
    9f88:	e59f1014 	ldr	r1, [pc, #20]	; 9fa4 <_heap_init+0x24>
    9f8c:	e283000c 	add	r0, r3, #12
    9f90:	e5832004 	str	r2, [r3, #4]
    9f94:	e5832008 	str	r2, [r3, #8]
    9f98:	e5831000 	str	r1, [r3]
    9f9c:	eafffe03 	b	97b0 <chMtxInit>
    9fa0:	0000c15c 	andeq	ip, r0, ip, asr r1
    9fa4:	00009f30 	andeq	r9, r0, r0, lsr pc
	...

00009fb0 <chHeapAlloc>:
    9fb0:	e3500000 	cmp	r0, #0
    9fb4:	e92d4070 	push	{r4, r5, r6, lr}
    9fb8:	e59f60c0 	ldr	r6, [pc, #192]	; a080 <chHeapAlloc+0xd0>
    9fbc:	11a06000 	movne	r6, r0
    9fc0:	e2811003 	add	r1, r1, #3
    9fc4:	e286000c 	add	r0, r6, #12
    9fc8:	e3c15003 	bic	r5, r1, #3
    9fcc:	e2864004 	add	r4, r6, #4
    9fd0:	ebfffe5e 	bl	9950 <chMtxLock>
    9fd4:	ea000003 	b	9fe8 <chHeapAlloc+0x38>
    9fd8:	e5903004 	ldr	r3, [r0, #4]
    9fdc:	e1550003 	cmp	r5, r3
    9fe0:	9a000010 	bls	a028 <chHeapAlloc+0x78>
    9fe4:	e1a04000 	mov	r4, r0
    9fe8:	e5940000 	ldr	r0, [r4]
    9fec:	e3500000 	cmp	r0, #0
    9ff0:	1afffff8 	bne	9fd8 <chHeapAlloc+0x28>
    9ff4:	ebfffe5d 	bl	9970 <chMtxUnlock>
    9ff8:	e5963000 	ldr	r3, [r6]
    9ffc:	e3530000 	cmp	r3, #0
    a000:	0a00001c 	beq	a078 <chHeapAlloc+0xc8>
    a004:	e2850008 	add	r0, r5, #8
    a008:	e12fff33 	blx	r3
    a00c:	e3500000 	cmp	r0, #0
    a010:	0a000018 	beq	a078 <chHeapAlloc+0xc8>
    a014:	e5806000 	str	r6, [r0]
    a018:	e5805004 	str	r5, [r0, #4]
    a01c:	e2804008 	add	r4, r0, #8
    a020:	e1a00004 	mov	r0, r4
    a024:	e8bd8070 	pop	{r4, r5, r6, pc}
    a028:	e2852008 	add	r2, r5, #8
    a02c:	e1520003 	cmp	r2, r3
    a030:	9a000006 	bls	a050 <chHeapAlloc+0xa0>
    a034:	e5903000 	ldr	r3, [r0]
    a038:	e5843000 	str	r3, [r4]
    a03c:	e1a04000 	mov	r4, r0
    a040:	e4846008 	str	r6, [r4], #8
    a044:	ebfffe49 	bl	9970 <chMtxUnlock>
    a048:	e1a00004 	mov	r0, r4
    a04c:	e8bd8070 	pop	{r4, r5, r6, pc}
    a050:	e3e01007 	mvn	r1, #7
    a054:	e590c000 	ldr	ip, [r0]
    a058:	e0651001 	rsb	r1, r5, r1
    a05c:	e0813003 	add	r3, r1, r3
    a060:	e0801002 	add	r1, r0, r2
    a064:	e780c002 	str	ip, [r0, r2]
    a068:	e5813004 	str	r3, [r1, #4]
    a06c:	e5841000 	str	r1, [r4]
    a070:	e5805004 	str	r5, [r0, #4]
    a074:	eafffff0 	b	a03c <chHeapAlloc+0x8c>
    a078:	e3a04000 	mov	r4, #0
    a07c:	eaffffe7 	b	a020 <chHeapAlloc+0x70>
    a080:	0000c15c 	andeq	ip, r0, ip, asr r1
	...

0000a090 <chHeapFree>:
    a090:	e92d4070 	push	{r4, r5, r6, lr}
    a094:	e1a06000 	mov	r6, r0
    a098:	e5100008 	ldr	r0, [r0, #-8]
    a09c:	e2464008 	sub	r4, r6, #8
    a0a0:	e2805004 	add	r5, r0, #4
    a0a4:	e280000c 	add	r0, r0, #12
    a0a8:	ebfffe28 	bl	9950 <chMtxLock>
    a0ac:	e1a03005 	mov	r3, r5
    a0b0:	e1530004 	cmp	r3, r4
    a0b4:	23a02000 	movcs	r2, #0
    a0b8:	33a02001 	movcc	r2, #1
    a0bc:	e1530005 	cmp	r3, r5
    a0c0:	03822001 	orreq	r2, r2, #1
    a0c4:	e3520000 	cmp	r2, #0
    a0c8:	05933000 	ldreq	r3, [r3]
    a0cc:	0afffff7 	beq	a0b0 <chHeapFree+0x20>
    a0d0:	e5932000 	ldr	r2, [r3]
    a0d4:	e3520000 	cmp	r2, #0
    a0d8:	0a000002 	beq	a0e8 <chHeapFree+0x58>
    a0dc:	e1540002 	cmp	r4, r2
    a0e0:	21a03002 	movcs	r3, r2
    a0e4:	2afffff1 	bcs	a0b0 <chHeapFree+0x20>
    a0e8:	e5161004 	ldr	r1, [r6, #-4]
    a0ec:	e5062008 	str	r2, [r6, #-8]
    a0f0:	e5834000 	str	r4, [r3]
    a0f4:	e2810008 	add	r0, r1, #8
    a0f8:	e516c008 	ldr	ip, [r6, #-8]
    a0fc:	e0842000 	add	r2, r4, r0
    a100:	e152000c 	cmp	r2, ip
    a104:	05922004 	ldreq	r2, [r2, #4]
    a108:	07940000 	ldreq	r0, [r4, r0]
    a10c:	00812002 	addeq	r2, r1, r2
    a110:	02822008 	addeq	r2, r2, #8
    a114:	09060005 	stmdbeq	r6, {r0, r2}
    a118:	e5931004 	ldr	r1, [r3, #4]
    a11c:	e2812008 	add	r2, r1, #8
    a120:	e0832002 	add	r2, r3, r2
    a124:	e1540002 	cmp	r4, r2
    a128:	0a000001 	beq	a134 <chHeapFree+0xa4>
    a12c:	e8bd4070 	pop	{r4, r5, r6, lr}
    a130:	eafffe0e 	b	9970 <chMtxUnlock>
    a134:	e9160005 	ldmdb	r6, {r0, r2}
    a138:	e0812002 	add	r2, r1, r2
    a13c:	e2822008 	add	r2, r2, #8
    a140:	e8830005 	stm	r3, {r0, r2}
    a144:	e8bd4070 	pop	{r4, r5, r6, lr}
    a148:	eafffe08 	b	9970 <chMtxUnlock>
    a14c:	00000000 	andeq	r0, r0, r0

0000a150 <halInit>:
    a150:	e92d4008 	push	{r3, lr}
    a154:	eb0000d1 	bl	a4a0 <hal_lld_init>
    a158:	eb0000a4 	bl	a3f0 <tmInit>
    a15c:	e59f0014 	ldr	r0, [pc, #20]	; a178 <halInit+0x28>
    a160:	eb00011a 	bl	a5d0 <_pal_lld_init>
    a164:	eb000005 	bl	a180 <i2cInit>
    a168:	eb000030 	bl	a230 <sdInit>
    a16c:	eb000077 	bl	a350 <spiInit>
    a170:	e8bd4008 	pop	{r3, lr}
    a174:	ea0002dd 	b	acf0 <boardInit>
    a178:	0000bdc0 	andeq	fp, r0, r0, asr #27
    a17c:	00000000 	andeq	r0, r0, r0

0000a180 <i2cInit>:
    a180:	ea000242 	b	aa90 <i2c_lld_init>
	...

0000a190 <i2cObjectInit>:
    a190:	e3a02001 	mov	r2, #1
    a194:	e3a03000 	mov	r3, #0
    a198:	e5c02000 	strb	r2, [r0]
    a19c:	e5803004 	str	r3, [r0, #4]
    a1a0:	e2800010 	add	r0, r0, #16
    a1a4:	eafffd81 	b	97b0 <chMtxInit>
	...

0000a1b0 <readt>:
    a1b0:	e280000c 	add	r0, r0, #12
    a1b4:	eafffea1 	b	9c40 <chIQReadTimeout>
	...

0000a1c0 <read>:
    a1c0:	e280000c 	add	r0, r0, #12
    a1c4:	e3e03000 	mvn	r3, #0
    a1c8:	eafffe9c 	b	9c40 <chIQReadTimeout>
    a1cc:	00000000 	andeq	r0, r0, r0

0000a1d0 <writet>:
    a1d0:	e2800030 	add	r0, r0, #48	; 0x30
    a1d4:	eaffff19 	b	9e40 <chOQWriteTimeout>
	...

0000a1e0 <write>:
    a1e0:	e2800030 	add	r0, r0, #48	; 0x30
    a1e4:	e3e03000 	mvn	r3, #0
    a1e8:	eaffff14 	b	9e40 <chOQWriteTimeout>
    a1ec:	00000000 	andeq	r0, r0, r0

0000a1f0 <gett>:
    a1f0:	e280000c 	add	r0, r0, #12
    a1f4:	eafffe71 	b	9bc0 <chIQGetTimeout>
	...

0000a200 <get>:
    a200:	e280000c 	add	r0, r0, #12
    a204:	e3e01000 	mvn	r1, #0
    a208:	eafffe6c 	b	9bc0 <chIQGetTimeout>
    a20c:	00000000 	andeq	r0, r0, r0

0000a210 <putt>:
    a210:	e2800030 	add	r0, r0, #48	; 0x30
    a214:	eafffec5 	b	9d30 <chOQPutTimeout>
	...

0000a220 <put>:
    a220:	e2800030 	add	r0, r0, #48	; 0x30
    a224:	e3e02000 	mvn	r2, #0
    a228:	eafffec0 	b	9d30 <chOQPutTimeout>
    a22c:	00000000 	andeq	r0, r0, r0

0000a230 <sdInit>:
    a230:	ea00017e 	b	a830 <sd_lld_init>
	...

0000a240 <sdObjectInit>:
    a240:	e92d4030 	push	{r4, r5, lr}
    a244:	e1a04000 	mov	r4, r0
    a248:	e3a0c001 	mov	ip, #1
    a24c:	e1a05002 	mov	r5, r2
    a250:	e59f2044 	ldr	r2, [pc, #68]	; a29c <sdObjectInit+0x5c>
    a254:	e24dd00c 	sub	sp, sp, #12
    a258:	e58d4000 	str	r4, [sp]
    a25c:	e4802004 	str	r2, [r0], #4
    a260:	e1a03001 	mov	r3, r1
    a264:	e5840004 	str	r0, [r4, #4]
    a268:	e5c4c008 	strb	ip, [r4, #8]
    a26c:	e284000c 	add	r0, r4, #12
    a270:	e2841054 	add	r1, r4, #84	; 0x54
    a274:	e3a02010 	mov	r2, #16
    a278:	ebfffe1c 	bl	9af0 <chIQInit>
    a27c:	e58d4000 	str	r4, [sp]
    a280:	e1a03005 	mov	r3, r5
    a284:	e2840030 	add	r0, r4, #48	; 0x30
    a288:	e2841064 	add	r1, r4, #100	; 0x64
    a28c:	e3a02010 	mov	r2, #16
    a290:	ebfffe96 	bl	9cf0 <chOQInit>
    a294:	e28dd00c 	add	sp, sp, #12
    a298:	e8bd8030 	pop	{r4, r5, pc}
    a29c:	0000bd90 	muleq	r0, r0, sp

0000a2a0 <sdStart>:
    a2a0:	e92d4010 	push	{r4, lr}
    a2a4:	e1a04000 	mov	r4, r0
    a2a8:	e321f09f 	msr	CPSR_c, #159	; 0x9f
    a2ac:	eb000167 	bl	a850 <sd_lld_start>
    a2b0:	e3a03002 	mov	r3, #2
    a2b4:	e5c43008 	strb	r3, [r4, #8]
    a2b8:	e321f01f 	msr	CPSR_c, #31
    a2bc:	e8bd8010 	pop	{r4, pc}

0000a2c0 <sdIncomingDataI>:
    a2c0:	e92d4038 	push	{r3, r4, r5, lr}
    a2c4:	e5903014 	ldr	r3, [r0, #20]
    a2c8:	e1a04000 	mov	r4, r0
    a2cc:	e3530000 	cmp	r3, #0
    a2d0:	e1a05001 	mov	r5, r1
    a2d4:	0a000008 	beq	a2fc <sdIncomingDataI+0x3c>
    a2d8:	e1a01005 	mov	r1, r5
    a2dc:	e284000c 	add	r0, r4, #12
    a2e0:	ebfffe12 	bl	9b30 <chIQPutI>
    a2e4:	e3500000 	cmp	r0, #0
    a2e8:	a8bd8038 	popge	{r3, r4, r5, pc}
    a2ec:	e2840004 	add	r0, r4, #4
    a2f0:	e3a01080 	mov	r1, #128	; 0x80
    a2f4:	e8bd4038 	pop	{r3, r4, r5, lr}
    a2f8:	eafffddc 	b	9a70 <chEvtBroadcastFlagsI>
    a2fc:	e2800004 	add	r0, r0, #4
    a300:	e3a01004 	mov	r1, #4
    a304:	ebfffdd9 	bl	9a70 <chEvtBroadcastFlagsI>
    a308:	eafffff2 	b	a2d8 <sdIncomingDataI+0x18>
    a30c:	00000000 	andeq	r0, r0, r0

0000a310 <sdRequestDataI>:
    a310:	e92d4038 	push	{r3, r4, r5, lr}
    a314:	e1a04000 	mov	r4, r0
    a318:	e2800030 	add	r0, r0, #48	; 0x30
    a31c:	ebfffea7 	bl	9dc0 <chOQGetI>
    a320:	e2505000 	subs	r5, r0, #0
    a324:	ba000001 	blt	a330 <sdRequestDataI+0x20>
    a328:	e1a00005 	mov	r0, r5
    a32c:	e8bd8038 	pop	{r3, r4, r5, pc}
    a330:	e2840004 	add	r0, r4, #4
    a334:	e3a01008 	mov	r1, #8
    a338:	ebfffdcc 	bl	9a70 <chEvtBroadcastFlagsI>
    a33c:	e1a00005 	mov	r0, r5
    a340:	e8bd8038 	pop	{r3, r4, r5, pc}
	...

0000a350 <spiInit>:
    a350:	ea00023e 	b	ac50 <spi_lld_init>
	...

0000a360 <spiObjectInit>:
    a360:	e3a03000 	mov	r3, #0
    a364:	e3a02001 	mov	r2, #1
    a368:	e5803004 	str	r3, [r0, #4]
    a36c:	e5c02000 	strb	r2, [r0]
    a370:	e5803008 	str	r3, [r0, #8]
    a374:	e280000c 	add	r0, r0, #12
    a378:	eafffd0c 	b	97b0 <chMtxInit>
    a37c:	00000000 	andeq	r0, r0, r0

0000a380 <tm_start>:
    a380:	e59f3008 	ldr	r3, [pc, #8]	; a390 <tm_start+0x10>
    a384:	e5933004 	ldr	r3, [r3, #4]
    a388:	e5803008 	str	r3, [r0, #8]
    a38c:	e12fff1e 	bx	lr
    a390:	20003000 	andcs	r3, r0, r0
	...

0000a3a0 <tm_stop>:
    a3a0:	e59f2038 	ldr	r2, [pc, #56]	; a3e0 <tm_stop+0x40>
    a3a4:	e59f1038 	ldr	r1, [pc, #56]	; a3e4 <tm_stop+0x44>
    a3a8:	e5922004 	ldr	r2, [r2, #4]
    a3ac:	e5903008 	ldr	r3, [r0, #8]
    a3b0:	e5911000 	ldr	r1, [r1]
    a3b4:	e0633002 	rsb	r3, r3, r2
    a3b8:	e590200c 	ldr	r2, [r0, #12]
    a3bc:	e0613003 	rsb	r3, r1, r3
    a3c0:	e1530002 	cmp	r3, r2
    a3c4:	e5803008 	str	r3, [r0, #8]
    a3c8:	8580300c 	strhi	r3, [r0, #12]
    a3cc:	812fff1e 	bxhi	lr
    a3d0:	e5902010 	ldr	r2, [r0, #16]
    a3d4:	e1530002 	cmp	r3, r2
    a3d8:	35803010 	strcc	r3, [r0, #16]
    a3dc:	e12fff1e 	bx	lr
    a3e0:	20003000 	andcs	r3, r0, r0
    a3e4:	0000c178 	andeq	ip, r0, r8, ror r1
	...

0000a3f0 <tmInit>:
    a3f0:	e3a03000 	mov	r3, #0
    a3f4:	e3e01000 	mvn	r1, #0
    a3f8:	e92d4010 	push	{r4, lr}
    a3fc:	e59f4040 	ldr	r4, [pc, #64]	; a444 <tmInit+0x54>
    a400:	e24dd018 	sub	sp, sp, #24
    a404:	e59f203c 	ldr	r2, [pc, #60]	; a448 <tmInit+0x58>
    a408:	e58d300c 	str	r3, [sp, #12]
    a40c:	e58d3010 	str	r3, [sp, #16]
    a410:	e5843000 	str	r3, [r4]
    a414:	e58d1014 	str	r1, [sp, #20]
    a418:	e5921004 	ldr	r1, [r2, #4]
    a41c:	e59f3028 	ldr	r3, [pc, #40]	; a44c <tmInit+0x5c>
    a420:	e59f2028 	ldr	r2, [pc, #40]	; a450 <tmInit+0x60>
    a424:	e28d0004 	add	r0, sp, #4
    a428:	e98d000c 	stmib	sp, {r2, r3}
    a42c:	e58d100c 	str	r1, [sp, #12]
    a430:	ebffffda 	bl	a3a0 <tm_stop>
    a434:	e59d300c 	ldr	r3, [sp, #12]
    a438:	e5843000 	str	r3, [r4]
    a43c:	e28dd018 	add	sp, sp, #24
    a440:	e8bd8010 	pop	{r4, pc}
    a444:	0000c178 	andeq	ip, r0, r8, ror r1
    a448:	20003000 	andcs	r3, r0, r0
    a44c:	0000a3a0 	andeq	sl, r0, r0, lsr #7
    a450:	0000a380 	andeq	sl, r0, r0, lsl #7
	...

0000a460 <IrqHandler>:
    a460:	e92d500f 	push	{r0, r1, r2, r3, ip, lr}
    a464:	ebfffa99 	bl	8ed0 <chSysTimerHandlerI>
    a468:	e3a02000 	mov	r2, #0
    a46c:	e59f301c 	ldr	r3, [pc, #28]	; a490 <IrqHandler+0x30>
    a470:	e59f001c 	ldr	r0, [pc, #28]	; a494 <IrqHandler+0x34>
    a474:	e583240c 	str	r2, [r3, #1036]	; 0x40c
    a478:	eb0000c0 	bl	a780 <sd_lld_serve_interrupt>
    a47c:	e59f0014 	ldr	r0, [pc, #20]	; a498 <IrqHandler+0x38>
    a480:	eb000126 	bl	a920 <i2c_lld_serve_interrupt>
    a484:	e59f0010 	ldr	r0, [pc, #16]	; a49c <IrqHandler+0x3c>
    a488:	eb000188 	bl	aab0 <spi_lld_serve_interrupt>
    a48c:	eafff71b 	b	8100 <_port_irq_common>
    a490:	2000b000 	andcs	fp, r0, r0
    a494:	0000c38c 	andeq	ip, r0, ip, lsl #7
    a498:	0000c400 	andeq	ip, r0, r0, lsl #8
    a49c:	0000c440 	andeq	ip, r0, r0, asr #8

0000a4a0 <hal_lld_init>:
    a4a0:	e52de004 	push	{lr}		; (str lr, [sp, #-4]!)
    a4a4:	e3a0c0f9 	mov	ip, #249	; 0xf9
    a4a8:	e3a0e83e 	mov	lr, #4063232	; 0x3e0000
    a4ac:	e3a00000 	mov	r0, #0
    a4b0:	e59f302c 	ldr	r3, [pc, #44]	; a4e4 <hal_lld_init+0x44>
    a4b4:	e59f202c 	ldr	r2, [pc, #44]	; a4e8 <hal_lld_init+0x48>
    a4b8:	e59f102c 	ldr	r1, [pc, #44]	; a4ec <hal_lld_init+0x4c>
    a4bc:	e583e408 	str	lr, [r3, #1032]	; 0x408
    a4c0:	e5832400 	str	r2, [r3, #1024]	; 0x400
    a4c4:	e5832418 	str	r2, [r3, #1048]	; 0x418
    a4c8:	e583c41c 	str	ip, [r3, #1052]	; 0x41c
    a4cc:	e583040c 	str	r0, [r3, #1036]	; 0x40c
    a4d0:	e5831408 	str	r1, [r3, #1032]	; 0x408
    a4d4:	e5932218 	ldr	r2, [r3, #536]	; 0x218
    a4d8:	e3822001 	orr	r2, r2, #1
    a4dc:	e5832218 	str	r2, [r3, #536]	; 0x218
    a4e0:	e49df004 	pop	{pc}		; (ldr pc, [sp], #4)
    a4e4:	2000b000 	andcs	fp, r0, r0
    a4e8:	000003e7 	andeq	r0, r0, r7, ror #7
    a4ec:	003e00a2 	eorseq	r0, lr, r2, lsr #1

0000a4f0 <watchdog_start>:
    a4f0:	e59f2028 	ldr	r2, [pc, #40]	; a520 <watchdog_start+0x30>
    a4f4:	e3c004ff 	bic	r0, r0, #-16777216	; 0xff000000
    a4f8:	e592301c 	ldr	r3, [r2, #28]
    a4fc:	e3c0060f 	bic	r0, r0, #15728640	; 0xf00000
    a500:	e3c3345a 	bic	r3, r3, #1509949440	; 0x5a000000
    a504:	e3c33030 	bic	r3, r3, #48	; 0x30
    a508:	e383345a 	orr	r3, r3, #1509949440	; 0x5a000000
    a50c:	e380045a 	orr	r0, r0, #1509949440	; 0x5a000000
    a510:	e3833020 	orr	r3, r3, #32
    a514:	e5820024 	str	r0, [r2, #36]	; 0x24
    a518:	e582301c 	str	r3, [r2, #28]
    a51c:	e12fff1e 	bx	lr
    a520:	20100000 	andscs	r0, r0, r0
	...

0000a530 <set_gpio_in.isra.0>:
    a530:	e92d4070 	push	{r4, r5, r6, lr}
    a534:	e1a06000 	mov	r6, r0
    a538:	e1a05001 	mov	r5, r1
    a53c:	e3a04000 	mov	r4, #0
    a540:	ea000003 	b	a554 <set_gpio_in.isra.0+0x24>
    a544:	e2844001 	add	r4, r4, #1
    a548:	e3540020 	cmp	r4, #32
    a54c:	e1a050a5 	lsr	r5, r5, #1
    a550:	0a000009 	beq	a57c <set_gpio_in.isra.0+0x4c>
    a554:	e3150001 	tst	r5, #1
    a558:	0afffff9 	beq	a544 <set_gpio_in.isra.0+0x14>
    a55c:	e5960000 	ldr	r0, [r6]
    a560:	e3a01000 	mov	r1, #0
    a564:	e0840000 	add	r0, r4, r0
    a568:	e2844001 	add	r4, r4, #1
    a56c:	eb0001bb 	bl	ac60 <bcm2835_gpio_fnsel>
    a570:	e3540020 	cmp	r4, #32
    a574:	e1a050a5 	lsr	r5, r5, #1
    a578:	1afffff5 	bne	a554 <set_gpio_in.isra.0+0x24>
    a57c:	e8bd8070 	pop	{r4, r5, r6, pc}

0000a580 <set_gpio_pud.isra.1>:
    a580:	e92d4070 	push	{r4, r5, r6, lr}
    a584:	e1a05000 	mov	r5, r0
    a588:	e1a06001 	mov	r6, r1
    a58c:	e59f402c 	ldr	r4, [pc, #44]	; a5c0 <set_gpio_pud.isra.1+0x40>
    a590:	e3a00096 	mov	r0, #150	; 0x96
    a594:	e5842094 	str	r2, [r4, #148]	; 0x94
    a598:	eb0001c4 	bl	acb0 <bcm2835_delay>
    a59c:	e5953000 	ldr	r3, [r5]
    a5a0:	e3a00096 	mov	r0, #150	; 0x96
    a5a4:	e5836000 	str	r6, [r3]
    a5a8:	eb0001c0 	bl	acb0 <bcm2835_delay>
    a5ac:	e3a03000 	mov	r3, #0
    a5b0:	e5952000 	ldr	r2, [r5]
    a5b4:	e5843094 	str	r3, [r4, #148]	; 0x94
    a5b8:	e5823000 	str	r3, [r2]
    a5bc:	e8bd8070 	pop	{r4, r5, r6, pc}
    a5c0:	20200000 	eorcs	r0, r0, r0
	...

0000a5d0 <_pal_lld_init>:
    a5d0:	e59f3060 	ldr	r3, [pc, #96]	; a638 <_pal_lld_init+0x68>
    a5d4:	e92d4010 	push	{r4, lr}
    a5d8:	e59fc05c 	ldr	ip, [pc, #92]	; a63c <_pal_lld_init+0x6c>
    a5dc:	e59fe05c 	ldr	lr, [pc, #92]	; a640 <_pal_lld_init+0x70>
    a5e0:	e59f205c 	ldr	r2, [pc, #92]	; a644 <_pal_lld_init+0x74>
    a5e4:	e59f405c 	ldr	r4, [pc, #92]	; a648 <_pal_lld_init+0x78>
    a5e8:	e2830014 	add	r0, r3, #20
    a5ec:	e3e01000 	mvn	r1, #0
    a5f0:	e9834010 	stmib	r3, {r4, lr}
    a5f4:	e583c00c 	str	ip, [r3, #12]
    a5f8:	e5832010 	str	r2, [r3, #16]
    a5fc:	ebffffcb 	bl	a530 <set_gpio_in.isra.0>
    a600:	e59f3044 	ldr	r3, [pc, #68]	; a64c <_pal_lld_init+0x7c>
    a604:	e3a01020 	mov	r1, #32
    a608:	e1a00003 	mov	r0, r3
    a60c:	e59fe03c 	ldr	lr, [pc, #60]	; a650 <_pal_lld_init+0x80>
    a610:	e2844004 	add	r4, r4, #4
    a614:	e59fc038 	ldr	ip, [pc, #56]	; a654 <_pal_lld_init+0x84>
    a618:	e59f2038 	ldr	r2, [pc, #56]	; a658 <_pal_lld_init+0x88>
    a61c:	e5a01014 	str	r1, [r0, #20]!
    a620:	e9834010 	stmib	r3, {r4, lr}
    a624:	e8bd4010 	pop	{r4, lr}
    a628:	e3e01000 	mvn	r1, #0
    a62c:	e583c00c 	str	ip, [r3, #12]
    a630:	e5832010 	str	r2, [r3, #16]
    a634:	eaffffbd 	b	a530 <set_gpio_in.isra.0>
    a638:	0000c374 	andeq	ip, r0, r4, ror r3
    a63c:	20200034 	eorcs	r0, r0, r4, lsr r0
    a640:	20200028 	eorcs	r0, r0, r8, lsr #32
    a644:	20200098 	mlacs	r0, r8, r0, r0
    a648:	2020001c 	eorcs	r0, r0, ip, lsl r0
    a64c:	0000c35c 	andeq	ip, r0, ip, asr r3
    a650:	2020002c 	eorcs	r0, r0, ip, lsr #32
    a654:	20200038 	eorcs	r0, r0, r8, lsr r0
    a658:	2020009c 	mlacs	r0, ip, r0, r0
    a65c:	00000000 	andeq	r0, r0, r0

0000a660 <_pal_lld_setgroupmode>:
    a660:	e3520004 	cmp	r2, #4
    a664:	e92d4070 	push	{r4, r5, r6, lr}
    a668:	e1a06000 	mov	r6, r0
    a66c:	e1a05001 	mov	r5, r1
    a670:	0a00002a 	beq	a720 <_pal_lld_setgroupmode+0xc0>
    a674:	8a000011 	bhi	a6c0 <_pal_lld_setgroupmode+0x60>
    a678:	e3520002 	cmp	r2, #2
    a67c:	0a000008 	beq	a6a4 <_pal_lld_setgroupmode+0x44>
    a680:	e3520003 	cmp	r2, #3
    a684:	1a00002c 	bne	a73c <_pal_lld_setgroupmode+0xdc>
    a688:	e2800014 	add	r0, r0, #20
    a68c:	ebffffa7 	bl	a530 <set_gpio_in.isra.0>
    a690:	e2860010 	add	r0, r6, #16
    a694:	e1a01005 	mov	r1, r5
    a698:	e8bd4070 	pop	{r4, r5, r6, lr}
    a69c:	e3a02002 	mov	r2, #2
    a6a0:	eaffffb6 	b	a580 <set_gpio_pud.isra.1>
    a6a4:	e2800014 	add	r0, r0, #20
    a6a8:	ebffffa0 	bl	a530 <set_gpio_in.isra.0>
    a6ac:	e2860010 	add	r0, r6, #16
    a6b0:	e1a01005 	mov	r1, r5
    a6b4:	e8bd4070 	pop	{r4, r5, r6, lr}
    a6b8:	e3a02000 	mov	r2, #0
    a6bc:	eaffffaf 	b	a580 <set_gpio_pud.isra.1>
    a6c0:	e3520006 	cmp	r2, #6
    a6c4:	38bd8070 	popcc	{r4, r5, r6, pc}
    a6c8:	e3520007 	cmp	r2, #7
    a6cc:	9a000002 	bls	a6dc <_pal_lld_setgroupmode+0x7c>
    a6d0:	e35200ff 	cmp	r2, #255	; 0xff
    a6d4:	0a000000 	beq	a6dc <_pal_lld_setgroupmode+0x7c>
    a6d8:	e8bd8070 	pop	{r4, r5, r6, pc}
    a6dc:	e3a04000 	mov	r4, #0
    a6e0:	ea000003 	b	a6f4 <_pal_lld_setgroupmode+0x94>
    a6e4:	e2844001 	add	r4, r4, #1
    a6e8:	e3540020 	cmp	r4, #32
    a6ec:	e1a050a5 	lsr	r5, r5, #1
    a6f0:	0a000009 	beq	a71c <_pal_lld_setgroupmode+0xbc>
    a6f4:	e3150001 	tst	r5, #1
    a6f8:	0afffff9 	beq	a6e4 <_pal_lld_setgroupmode+0x84>
    a6fc:	e5960014 	ldr	r0, [r6, #20]
    a700:	e3a01001 	mov	r1, #1
    a704:	e0840000 	add	r0, r4, r0
    a708:	e2844001 	add	r4, r4, #1
    a70c:	eb000153 	bl	ac60 <bcm2835_gpio_fnsel>
    a710:	e3540020 	cmp	r4, #32
    a714:	e1a050a5 	lsr	r5, r5, #1
    a718:	1afffff5 	bne	a6f4 <_pal_lld_setgroupmode+0x94>
    a71c:	e8bd8070 	pop	{r4, r5, r6, pc}
    a720:	e2800014 	add	r0, r0, #20
    a724:	ebffff81 	bl	a530 <set_gpio_in.isra.0>
    a728:	e2860010 	add	r0, r6, #16
    a72c:	e1a01005 	mov	r1, r5
    a730:	e8bd4070 	pop	{r4, r5, r6, lr}
    a734:	e3a02001 	mov	r2, #1
    a738:	eaffff90 	b	a580 <set_gpio_pud.isra.1>
    a73c:	e8bd8070 	pop	{r4, r5, r6, pc}

0000a740 <_pal_lld_writeport>:
    a740:	e1e02001 	mvn	r2, r1
    a744:	e590c004 	ldr	ip, [r0, #4]
    a748:	e5903008 	ldr	r3, [r0, #8]
    a74c:	e5801000 	str	r1, [r0]
    a750:	e58c1000 	str	r1, [ip]
    a754:	e5832000 	str	r2, [r3]
    a758:	e12fff1e 	bx	lr
    a75c:	00000000 	andeq	r0, r0, r0

0000a760 <output_notify>:
    a760:	e59f200c 	ldr	r2, [pc, #12]	; a774 <output_notify+0x14>
    a764:	e5923044 	ldr	r3, [r2, #68]	; 0x44
    a768:	e3833002 	orr	r3, r3, #2
    a76c:	e5823044 	str	r3, [r2, #68]	; 0x44
    a770:	e12fff1e 	bx	lr
    a774:	20215000 	eorcs	r5, r1, r0
	...

0000a780 <sd_lld_serve_interrupt>:
    a780:	e59f20a0 	ldr	r2, [pc, #160]	; a828 <sd_lld_serve_interrupt+0xa8>
    a784:	e92d4038 	push	{r3, r4, r5, lr}
    a788:	e5923048 	ldr	r3, [r2, #72]	; 0x48
    a78c:	e1a05000 	mov	r5, r0
    a790:	e2033007 	and	r3, r3, #7
    a794:	e3530004 	cmp	r3, #4
    a798:	0a000012 	beq	a7e8 <sd_lld_serve_interrupt+0x68>
    a79c:	e59f2084 	ldr	r2, [pc, #132]	; a828 <sd_lld_serve_interrupt+0xa8>
    a7a0:	e5923048 	ldr	r3, [r2, #72]	; 0x48
    a7a4:	e2033007 	and	r3, r3, #7
    a7a8:	e3530002 	cmp	r3, #2
    a7ac:	18bd8038 	popne	{r3, r4, r5, pc}
    a7b0:	e5923054 	ldr	r3, [r2, #84]	; 0x54
    a7b4:	e59f406c 	ldr	r4, [pc, #108]	; a828 <sd_lld_serve_interrupt+0xa8>
    a7b8:	e3130020 	tst	r3, #32
    a7bc:	0afffffb 	beq	a7b0 <sd_lld_serve_interrupt+0x30>
    a7c0:	e1a00005 	mov	r0, r5
    a7c4:	ebfffed1 	bl	a310 <sdRequestDataI>
    a7c8:	e3500000 	cmp	r0, #0
    a7cc:	ba000011 	blt	a818 <sd_lld_serve_interrupt+0x98>
    a7d0:	e5943054 	ldr	r3, [r4, #84]	; 0x54
    a7d4:	e59f204c 	ldr	r2, [pc, #76]	; a828 <sd_lld_serve_interrupt+0xa8>
    a7d8:	e3130020 	tst	r3, #32
    a7dc:	0afffffb 	beq	a7d0 <sd_lld_serve_interrupt+0x50>
    a7e0:	e5820040 	str	r0, [r2, #64]	; 0x40
    a7e4:	e8bd8038 	pop	{r3, r4, r5, pc}
    a7e8:	e5923054 	ldr	r3, [r2, #84]	; 0x54
    a7ec:	e3130001 	tst	r3, #1
    a7f0:	0afffffc 	beq	a7e8 <sd_lld_serve_interrupt+0x68>
    a7f4:	e59f402c 	ldr	r4, [pc, #44]	; a828 <sd_lld_serve_interrupt+0xa8>
    a7f8:	e5941040 	ldr	r1, [r4, #64]	; 0x40
    a7fc:	e1a00005 	mov	r0, r5
    a800:	e6ef1071 	uxtb	r1, r1
    a804:	ebfffead 	bl	a2c0 <sdIncomingDataI>
    a808:	e5943054 	ldr	r3, [r4, #84]	; 0x54
    a80c:	e3130001 	tst	r3, #1
    a810:	1afffff8 	bne	a7f8 <sd_lld_serve_interrupt+0x78>
    a814:	eaffffe0 	b	a79c <sd_lld_serve_interrupt+0x1c>
    a818:	e5943044 	ldr	r3, [r4, #68]	; 0x44
    a81c:	e3c33002 	bic	r3, r3, #2
    a820:	e5843044 	str	r3, [r4, #68]	; 0x44
    a824:	e8bd8038 	pop	{r3, r4, r5, pc}
    a828:	20215000 	eorcs	r5, r1, r0
    a82c:	00000000 	andeq	r0, r0, r0

0000a830 <sd_lld_init>:
    a830:	e59f0008 	ldr	r0, [pc, #8]	; a840 <sd_lld_init+0x10>
    a834:	e3a01000 	mov	r1, #0
    a838:	e59f2004 	ldr	r2, [pc, #4]	; a844 <sd_lld_init+0x14>
    a83c:	eafffe7f 	b	a240 <sdObjectInit>
    a840:	0000c38c 	andeq	ip, r0, ip, lsl #7
    a844:	0000a760 	andeq	sl, r0, r0, ror #14
	...

0000a850 <sd_lld_start>:
    a850:	e92d43f8 	push	{r3, r4, r5, r6, r7, r8, r9, lr}
    a854:	e3a05000 	mov	r5, #0
    a858:	e59f30a0 	ldr	r3, [pc, #160]	; a900 <sd_lld_start+0xb0>
    a85c:	e1510005 	cmp	r1, r5
    a860:	e3a0c001 	mov	ip, #1
    a864:	e3a020c6 	mov	r2, #198	; 0xc6
    a868:	e3a09003 	mov	r9, #3
    a86c:	e3a08202 	mov	r8, #536870912	; 0x20000000
    a870:	e3a00005 	mov	r0, #5
    a874:	01a01003 	moveq	r1, r3
    a878:	e59f4084 	ldr	r4, [pc, #132]	; a904 <sd_lld_start+0xb4>
    a87c:	e59f7084 	ldr	r7, [pc, #132]	; a908 <sd_lld_start+0xb8>
    a880:	e59f6084 	ldr	r6, [pc, #132]	; a90c <sd_lld_start+0xbc>
    a884:	e587821c 	str	r8, [r7, #540]	; 0x21c
    a888:	e584c004 	str	ip, [r4, #4]
    a88c:	e5845044 	str	r5, [r4, #68]	; 0x44
    a890:	e5845060 	str	r5, [r4, #96]	; 0x60
    a894:	e584904c 	str	r9, [r4, #76]	; 0x4c
    a898:	e5845050 	str	r5, [r4, #80]	; 0x50
    a89c:	e5840044 	str	r0, [r4, #68]	; 0x44
    a8a0:	e5842048 	str	r2, [r4, #72]	; 0x48
    a8a4:	e5911000 	ldr	r1, [r1]
    a8a8:	e59f0060 	ldr	r0, [pc, #96]	; a910 <sd_lld_start+0xc0>
    a8ac:	e1a01911 	lsl	r1, r1, r9
    a8b0:	ebfff642 	bl	81c0 <__aeabi_uidiv>
    a8b4:	e2400001 	sub	r0, r0, #1
    a8b8:	e5840068 	str	r0, [r4, #104]	; 0x68
    a8bc:	e3a01002 	mov	r1, #2
    a8c0:	e3a0000e 	mov	r0, #14
    a8c4:	eb0000e5 	bl	ac60 <bcm2835_gpio_fnsel>
    a8c8:	e3a01002 	mov	r1, #2
    a8cc:	e3a0000f 	mov	r0, #15
    a8d0:	eb0000e2 	bl	ac60 <bcm2835_gpio_fnsel>
    a8d4:	e3a00096 	mov	r0, #150	; 0x96
    a8d8:	e5865094 	str	r5, [r6, #148]	; 0x94
    a8dc:	eb0000f3 	bl	acb0 <bcm2835_delay>
    a8e0:	e3a03903 	mov	r3, #49152	; 0xc000
    a8e4:	e3a00096 	mov	r0, #150	; 0x96
    a8e8:	e5863098 	str	r3, [r6, #152]	; 0x98
    a8ec:	eb0000ef 	bl	acb0 <bcm2835_delay>
    a8f0:	e5865098 	str	r5, [r6, #152]	; 0x98
    a8f4:	e5849060 	str	r9, [r4, #96]	; 0x60
    a8f8:	e5878210 	str	r8, [r7, #528]	; 0x210
    a8fc:	e8bd83f8 	pop	{r3, r4, r5, r6, r7, r8, r9, pc}
    a900:	0000bdb0 			; <UNDEFINED> instruction: 0x0000bdb0
    a904:	20215000 	eorcs	r5, r1, r0
    a908:	2000b000 	andcs	fp, r0, r0
    a90c:	20200000 	eorcs	r0, r0, r0
    a910:	0ee6b280 	cdpeq	2, 14, cr11, cr6, cr0, {4}
	...

0000a920 <i2c_lld_serve_interrupt>:
    a920:	e590200c 	ldr	r2, [r0, #12]
    a924:	e52de004 	push	{lr}		; (str lr, [sp, #-4]!)
    a928:	e5921004 	ldr	r1, [r2, #4]
    a92c:	e3110c03 	tst	r1, #768	; 0x300
    a930:	0a000009 	beq	a95c <i2c_lld_serve_interrupt+0x3c>
    a934:	e5903020 	ldr	r3, [r0, #32]
    a938:	e3530000 	cmp	r3, #0
    a93c:	049df004 	popeq	{pc}		; (ldreq pc, [sp], #4)
    a940:	e3a01000 	mov	r1, #0
    a944:	e3e02001 	mvn	r2, #1
    a948:	e5801020 	str	r1, [r0, #32]
    a94c:	e5832024 	str	r2, [r3, #36]	; 0x24
    a950:	e1a00003 	mov	r0, r3
    a954:	e49de004 	pop	{lr}		; (ldr lr, [sp], #4)
    a958:	eafff9ec 	b	9110 <chSchReadyI>
    a95c:	e3110002 	tst	r1, #2
    a960:	0a000020 	beq	a9e8 <i2c_lld_serve_interrupt+0xc8>
    a964:	e3110020 	tst	r1, #32
    a968:	0a000012 	beq	a9b8 <i2c_lld_serve_interrupt+0x98>
    a96c:	e590303c 	ldr	r3, [r0, #60]	; 0x3c
    a970:	e5901038 	ldr	r1, [r0, #56]	; 0x38
    a974:	e1510003 	cmp	r1, r3
    a978:	9a00000e 	bls	a9b8 <i2c_lld_serve_interrupt+0x98>
    a97c:	e592c010 	ldr	ip, [r2, #16]
    a980:	e5901034 	ldr	r1, [r0, #52]	; 0x34
    a984:	e283e001 	add	lr, r3, #1
    a988:	e580e03c 	str	lr, [r0, #60]	; 0x3c
    a98c:	e7c1c003 	strb	ip, [r1, r3]
    a990:	ea000003 	b	a9a4 <i2c_lld_serve_interrupt+0x84>
    a994:	e592e010 	ldr	lr, [r2, #16]
    a998:	e5901034 	ldr	r1, [r0, #52]	; 0x34
    a99c:	e580c03c 	str	ip, [r0, #60]	; 0x3c
    a9a0:	e7c1e003 	strb	lr, [r1, r3]
    a9a4:	e590303c 	ldr	r3, [r0, #60]	; 0x3c
    a9a8:	e5901038 	ldr	r1, [r0, #56]	; 0x38
    a9ac:	e283c001 	add	ip, r3, #1
    a9b0:	e1530001 	cmp	r3, r1
    a9b4:	3afffff6 	bcc	a994 <i2c_lld_serve_interrupt+0x74>
    a9b8:	e3a01000 	mov	r1, #0
    a9bc:	e5903020 	ldr	r3, [r0, #32]
    a9c0:	e59fc0b8 	ldr	ip, [pc, #184]	; aa80 <i2c_lld_serve_interrupt+0x160>
    a9c4:	e1530001 	cmp	r3, r1
    a9c8:	e5821000 	str	r1, [r2]
    a9cc:	e582c004 	str	ip, [r2, #4]
    a9d0:	0a000029 	beq	aa7c <i2c_lld_serve_interrupt+0x15c>
    a9d4:	e5801020 	str	r1, [r0, #32]
    a9d8:	e5831024 	str	r1, [r3, #36]	; 0x24
    a9dc:	e1a00003 	mov	r0, r3
    a9e0:	e49de004 	pop	{lr}		; (ldr lr, [sp], #4)
    a9e4:	eafff9c9 	b	9110 <chSchReadyI>
    a9e8:	e3110004 	tst	r1, #4
    a9ec:	0a000010 	beq	aa34 <i2c_lld_serve_interrupt+0x114>
    a9f0:	e5903030 	ldr	r3, [r0, #48]	; 0x30
    a9f4:	e590e02c 	ldr	lr, [r0, #44]	; 0x2c
    a9f8:	e15e0003 	cmp	lr, r3
    a9fc:	949df004 	popls	{pc}		; (ldrls pc, [sp], #4)
    aa00:	e3110010 	tst	r1, #16
    aa04:	049df004 	popeq	{pc}		; (ldreq pc, [sp], #4)
    aa08:	e590c028 	ldr	ip, [r0, #40]	; 0x28
    aa0c:	e08c3003 	add	r3, ip, r3
    aa10:	e08ce00e 	add	lr, ip, lr
    aa14:	e26cc001 	rsb	ip, ip, #1
    aa18:	e08c1003 	add	r1, ip, r3
    aa1c:	e5801030 	str	r1, [r0, #48]	; 0x30
    aa20:	e4d31001 	ldrb	r1, [r3], #1
    aa24:	e153000e 	cmp	r3, lr
    aa28:	e5821010 	str	r1, [r2, #16]
    aa2c:	1afffff9 	bne	aa18 <i2c_lld_serve_interrupt+0xf8>
    aa30:	e49df004 	pop	{pc}		; (ldr pc, [sp], #4)
    aa34:	e3110008 	tst	r1, #8
    aa38:	049df004 	popeq	{pc}		; (ldreq pc, [sp], #4)
    aa3c:	e590303c 	ldr	r3, [r0, #60]	; 0x3c
    aa40:	e590c038 	ldr	ip, [r0, #56]	; 0x38
    aa44:	e153000c 	cmp	r3, ip
    aa48:	249df004 	popcs	{pc}		; (ldrcs pc, [sp], #4)
    aa4c:	e3110020 	tst	r1, #32
    aa50:	049df004 	popeq	{pc}		; (ldreq pc, [sp], #4)
    aa54:	e5901034 	ldr	r1, [r0, #52]	; 0x34
    aa58:	e592c010 	ldr	ip, [r2, #16]
    aa5c:	e283e001 	add	lr, r3, #1
    aa60:	e580e03c 	str	lr, [r0, #60]	; 0x3c
    aa64:	e7c1c003 	strb	ip, [r1, r3]
    aa68:	e590303c 	ldr	r3, [r0, #60]	; 0x3c
    aa6c:	e5901038 	ldr	r1, [r0, #56]	; 0x38
    aa70:	e1530001 	cmp	r3, r1
    aa74:	3afffff6 	bcc	aa54 <i2c_lld_serve_interrupt+0x134>
    aa78:	e49df004 	pop	{pc}		; (ldr pc, [sp], #4)
    aa7c:	e49df004 	pop	{pc}		; (ldr pc, [sp], #4)
    aa80:	00000302 	andeq	r0, r0, r2, lsl #6
	...

0000aa90 <i2c_lld_init>:
    aa90:	e59f300c 	ldr	r3, [pc, #12]	; aaa4 <i2c_lld_init+0x14>
    aa94:	e59f200c 	ldr	r2, [pc, #12]	; aaa8 <i2c_lld_init+0x18>
    aa98:	e1a00003 	mov	r0, r3
    aa9c:	e583200c 	str	r2, [r3, #12]
    aaa0:	eafffdba 	b	a190 <i2cObjectInit>
    aaa4:	0000c400 	andeq	ip, r0, r0, lsl #8
    aaa8:	20205000 	eorcs	r5, r0, r0
    aaac:	00000000 	andeq	r0, r0, r0

0000aab0 <spi_lld_serve_interrupt>:
    aab0:	e59f318c 	ldr	r3, [pc, #396]	; ac44 <spi_lld_serve_interrupt+0x194>
    aab4:	e5933208 	ldr	r3, [r3, #520]	; 0x208
    aab8:	e3130501 	tst	r3, #4194304	; 0x400000
    aabc:	012fff1e 	bxeq	lr
    aac0:	e59f3180 	ldr	r3, [pc, #384]	; ac48 <spi_lld_serve_interrupt+0x198>
    aac4:	e92d4010 	push	{r4, lr}
    aac8:	e5932000 	ldr	r2, [r3]
    aacc:	e1a04000 	mov	r4, r0
    aad0:	e3120801 	tst	r2, #65536	; 0x10000
    aad4:	0a000018 	beq	ab3c <spi_lld_serve_interrupt+0x8c>
    aad8:	e5902024 	ldr	r2, [r0, #36]	; 0x24
    aadc:	e3520000 	cmp	r2, #0
    aae0:	0a000026 	beq	ab80 <spi_lld_serve_interrupt+0xd0>
    aae4:	e5901004 	ldr	r1, [r0, #4]
    aae8:	e590c020 	ldr	ip, [r0, #32]
    aaec:	e5d11004 	ldrb	r1, [r1, #4]
    aaf0:	e3510000 	cmp	r1, #0
    aaf4:	e5931000 	ldr	r1, [r3]
    aaf8:	0a00003d 	beq	abf4 <spi_lld_serve_interrupt+0x144>
    aafc:	e3110701 	tst	r1, #262144	; 0x40000
    ab00:	0a00000d 	beq	ab3c <spi_lld_serve_interrupt+0x8c>
    ab04:	e1a0100c 	mov	r1, ip
    ab08:	ea000001 	b	ab14 <spi_lld_serve_interrupt+0x64>
    ab0c:	e3520000 	cmp	r2, #0
    ab10:	0a000008 	beq	ab38 <spi_lld_serve_interrupt+0x88>
    ab14:	e35c0000 	cmp	ip, #0
    ab18:	01a0000c 	moveq	r0, ip
    ab1c:	11d100b0 	ldrhne	r0, [r1]
    ab20:	12811002 	addne	r1, r1, #2
    ab24:	e5830004 	str	r0, [r3, #4]
    ab28:	e5930000 	ldr	r0, [r3]
    ab2c:	e2422002 	sub	r2, r2, #2
    ab30:	e3100701 	tst	r0, #262144	; 0x40000
    ab34:	1afffff4 	bne	ab0c <spi_lld_serve_interrupt+0x5c>
    ab38:	e5842024 	str	r2, [r4, #36]	; 0x24
    ab3c:	e59f3104 	ldr	r3, [pc, #260]	; ac48 <spi_lld_serve_interrupt+0x198>
    ab40:	e5932000 	ldr	r2, [r3]
    ab44:	e3120702 	tst	r2, #524288	; 0x80000
    ab48:	1a000004 	bne	ab60 <spi_lld_serve_interrupt+0xb0>
    ab4c:	e8bd8010 	pop	{r4, pc}
    ab50:	e594201c 	ldr	r2, [r4, #28]
    ab54:	e5931004 	ldr	r1, [r3, #4]
    ab58:	e3520000 	cmp	r2, #0
    ab5c:	15c21000 	strbne	r1, [r2]
    ab60:	e5932000 	ldr	r2, [r3]
    ab64:	e3120802 	tst	r2, #131072	; 0x20000
    ab68:	1afffff8 	bne	ab50 <spi_lld_serve_interrupt+0xa0>
    ab6c:	e8bd8010 	pop	{r4, pc}
    ab70:	e594201c 	ldr	r2, [r4, #28]
    ab74:	e5931004 	ldr	r1, [r3, #4]
    ab78:	e3520000 	cmp	r2, #0
    ab7c:	15c21000 	strbne	r1, [r2]
    ab80:	e5932000 	ldr	r2, [r3]
    ab84:	e59f10bc 	ldr	r1, [pc, #188]	; ac48 <spi_lld_serve_interrupt+0x198>
    ab88:	e3120802 	tst	r2, #131072	; 0x20000
    ab8c:	1afffff7 	bne	ab70 <spi_lld_serve_interrupt+0xc0>
    ab90:	e5942004 	ldr	r2, [r4, #4]
    ab94:	e5913000 	ldr	r3, [r1]
    ab98:	e5922000 	ldr	r2, [r2]
    ab9c:	e3c33d1a 	bic	r3, r3, #1664	; 0x680
    aba0:	e3520000 	cmp	r2, #0
    aba4:	e5813000 	str	r3, [r1]
    aba8:	0a000022 	beq	ac38 <spi_lld_serve_interrupt+0x188>
    abac:	e3a03004 	mov	r3, #4
    abb0:	e1a00004 	mov	r0, r4
    abb4:	e5c43000 	strb	r3, [r4]
    abb8:	e12fff32 	blx	r2
    abbc:	e5d43000 	ldrb	r3, [r4]
    abc0:	e3530004 	cmp	r3, #4
    abc4:	0a00001b 	beq	ac38 <spi_lld_serve_interrupt+0x188>
    abc8:	e5940008 	ldr	r0, [r4, #8]
    abcc:	e3500000 	cmp	r0, #0
    abd0:	0affffd9 	beq	ab3c <spi_lld_serve_interrupt+0x8c>
    abd4:	e3a03000 	mov	r3, #0
    abd8:	e5843008 	str	r3, [r4, #8]
    abdc:	ebfff94b 	bl	9110 <chSchReadyI>
    abe0:	e59f3060 	ldr	r3, [pc, #96]	; ac48 <spi_lld_serve_interrupt+0x198>
    abe4:	e5932000 	ldr	r2, [r3]
    abe8:	e3120702 	tst	r2, #524288	; 0x80000
    abec:	1affffdb 	bne	ab60 <spi_lld_serve_interrupt+0xb0>
    abf0:	eaffffd5 	b	ab4c <spi_lld_serve_interrupt+0x9c>
    abf4:	e3110701 	tst	r1, #262144	; 0x40000
    abf8:	0affffcf 	beq	ab3c <spi_lld_serve_interrupt+0x8c>
    abfc:	e1a0100c 	mov	r1, ip
    ac00:	ea000001 	b	ac0c <spi_lld_serve_interrupt+0x15c>
    ac04:	e3520000 	cmp	r2, #0
    ac08:	0affffcb 	beq	ab3c <spi_lld_serve_interrupt+0x8c>
    ac0c:	e35c0000 	cmp	ip, #0
    ac10:	01a0000c 	moveq	r0, ip
    ac14:	15d10000 	ldrbne	r0, [r1]
    ac18:	e2422001 	sub	r2, r2, #1
    ac1c:	e5830004 	str	r0, [r3, #4]
    ac20:	e5930000 	ldr	r0, [r3]
    ac24:	12811001 	addne	r1, r1, #1
    ac28:	e3100701 	tst	r0, #262144	; 0x40000
    ac2c:	e5842024 	str	r2, [r4, #36]	; 0x24
    ac30:	1afffff3 	bne	ac04 <spi_lld_serve_interrupt+0x154>
    ac34:	eaffffc0 	b	ab3c <spi_lld_serve_interrupt+0x8c>
    ac38:	e3a03002 	mov	r3, #2
    ac3c:	e5c43000 	strb	r3, [r4]
    ac40:	eaffffe0 	b	abc8 <spi_lld_serve_interrupt+0x118>
    ac44:	2000b000 	andcs	fp, r0, r0
    ac48:	20204000 	eorcs	r4, r0, r0
    ac4c:	00000000 	andeq	r0, r0, r0

0000ac50 <spi_lld_init>:
    ac50:	e59f0000 	ldr	r0, [pc]	; ac58 <spi_lld_init+0x8>
    ac54:	eafffdc1 	b	a360 <spiObjectInit>
    ac58:	0000c440 	andeq	ip, r0, r0, asr #8
    ac5c:	00000000 	andeq	r0, r0, r0

0000ac60 <bcm2835_gpio_fnsel>:
    ac60:	e52de004 	push	{lr}		; (str lr, [sp, #-4]!)
    ac64:	e3a0e007 	mov	lr, #7
    ac68:	e59f2038 	ldr	r2, [pc, #56]	; aca8 <bcm2835_gpio_fnsel+0x48>
    ac6c:	e0823092 	umull	r3, r2, r2, r0
    ac70:	e1a021a2 	lsr	r2, r2, #3
    ac74:	e1a0c102 	lsl	ip, r2, #2
    ac78:	e28c3202 	add	r3, ip, #536870912	; 0x20000000
    ac7c:	e2833602 	add	r3, r3, #2097152	; 0x200000
    ac80:	e08c2002 	add	r2, ip, r2
    ac84:	e0400082 	sub	r0, r0, r2, lsl #1
    ac88:	e5932000 	ldr	r2, [r3]
    ac8c:	e0800080 	add	r0, r0, r0, lsl #1
    ac90:	e1c2201e 	bic	r2, r2, lr, lsl r0
    ac94:	e5832000 	str	r2, [r3]
    ac98:	e5932000 	ldr	r2, [r3]
    ac9c:	e1821011 	orr	r1, r2, r1, lsl r0
    aca0:	e5831000 	str	r1, [r3]
    aca4:	e49df004 	pop	{pc}		; (ldr pc, [sp], #4)
    aca8:	cccccccd 	stclgt	12, cr12, [ip], {205}	; 0xcd
    acac:	00000000 	andeq	r0, r0, r0

0000acb0 <bcm2835_delay>:
    acb0:	e3a03000 	mov	r3, #0
    acb4:	e24dd008 	sub	sp, sp, #8
    acb8:	e58d3004 	str	r3, [sp, #4]
    acbc:	e58d3004 	str	r3, [sp, #4]
    acc0:	e59d3004 	ldr	r3, [sp, #4]
    acc4:	e1500003 	cmp	r0, r3
    acc8:	9a000005 	bls	ace4 <bcm2835_delay+0x34>
    accc:	e59d3004 	ldr	r3, [sp, #4]
    acd0:	e2833001 	add	r3, r3, #1
    acd4:	e58d3004 	str	r3, [sp, #4]
    acd8:	e59d3004 	ldr	r3, [sp, #4]
    acdc:	e1530000 	cmp	r3, r0
    ace0:	3afffff9 	bcc	accc <bcm2835_delay+0x1c>
    ace4:	e28dd008 	add	sp, sp, #8
    ace8:	e12fff1e 	bx	lr
    acec:	00000000 	andeq	r0, r0, r0

0000acf0 <boardInit>:
    acf0:	e12fff1e 	bx	lr
	...

0000ad00 <cmd_systime>:
    ad00:	e3510000 	cmp	r1, #0
    ad04:	da000002 	ble	ad14 <cmd_systime+0x14>
    ad08:	e59f1014 	ldr	r1, [pc, #20]	; ad24 <cmd_systime+0x24>
    ad0c:	e59f2014 	ldr	r2, [pc, #20]	; ad28 <cmd_systime+0x28>
    ad10:	ea00018a 	b	b340 <chprintf>
    ad14:	e59f3010 	ldr	r3, [pc, #16]	; ad2c <cmd_systime+0x2c>
    ad18:	e59f1010 	ldr	r1, [pc, #16]	; ad30 <cmd_systime+0x30>
    ad1c:	e593200c 	ldr	r2, [r3, #12]
    ad20:	ea000186 	b	b340 <chprintf>
    ad24:	0000bdc0 	andeq	fp, r0, r0, asr #27
    ad28:	0000bdcc 	andeq	fp, r0, ip, asr #27
    ad2c:	0000c330 	andeq	ip, r0, r0, lsr r3
    ad30:	0000bdd4 	ldrdeq	fp, [r0], -r4
	...

0000ad40 <cmd_info>:
    ad40:	e3510000 	cmp	r1, #0
    ad44:	da000002 	ble	ad54 <cmd_info+0x14>
    ad48:	e59f1090 	ldr	r1, [pc, #144]	; ade0 <cmd_info+0xa0>
    ad4c:	e59f2090 	ldr	r2, [pc, #144]	; ade4 <cmd_info+0xa4>
    ad50:	ea00017a 	b	b340 <chprintf>
    ad54:	e92d4010 	push	{r4, lr}
    ad58:	e1a04000 	mov	r4, r0
    ad5c:	e24dd008 	sub	sp, sp, #8
    ad60:	e59f1080 	ldr	r1, [pc, #128]	; ade8 <cmd_info+0xa8>
    ad64:	e59f2080 	ldr	r2, [pc, #128]	; adec <cmd_info+0xac>
    ad68:	eb000174 	bl	b340 <chprintf>
    ad6c:	e1a00004 	mov	r0, r4
    ad70:	e59f1078 	ldr	r1, [pc, #120]	; adf0 <cmd_info+0xb0>
    ad74:	e59f2078 	ldr	r2, [pc, #120]	; adf4 <cmd_info+0xb4>
    ad78:	eb000170 	bl	b340 <chprintf>
    ad7c:	e1a00004 	mov	r0, r4
    ad80:	e59f1070 	ldr	r1, [pc, #112]	; adf8 <cmd_info+0xb8>
    ad84:	e59f2070 	ldr	r2, [pc, #112]	; adfc <cmd_info+0xbc>
    ad88:	eb00016c 	bl	b340 <chprintf>
    ad8c:	e1a00004 	mov	r0, r4
    ad90:	e59f1068 	ldr	r1, [pc, #104]	; ae00 <cmd_info+0xc0>
    ad94:	e59f2068 	ldr	r2, [pc, #104]	; ae04 <cmd_info+0xc4>
    ad98:	eb000168 	bl	b340 <chprintf>
    ad9c:	e1a00004 	mov	r0, r4
    ada0:	e59f1060 	ldr	r1, [pc, #96]	; ae08 <cmd_info+0xc8>
    ada4:	e59f2060 	ldr	r2, [pc, #96]	; ae0c <cmd_info+0xcc>
    ada8:	eb000164 	bl	b340 <chprintf>
    adac:	e1a00004 	mov	r0, r4
    adb0:	e59f1058 	ldr	r1, [pc, #88]	; ae10 <cmd_info+0xd0>
    adb4:	e59f2058 	ldr	r2, [pc, #88]	; ae14 <cmd_info+0xd4>
    adb8:	eb000160 	bl	b340 <chprintf>
    adbc:	e59f3054 	ldr	r3, [pc, #84]	; ae18 <cmd_info+0xd8>
    adc0:	e1a00004 	mov	r0, r4
    adc4:	e58d3000 	str	r3, [sp]
    adc8:	e59f104c 	ldr	r1, [pc, #76]	; ae1c <cmd_info+0xdc>
    adcc:	e59f204c 	ldr	r2, [pc, #76]	; ae20 <cmd_info+0xe0>
    add0:	e59f304c 	ldr	r3, [pc, #76]	; ae24 <cmd_info+0xe4>
    add4:	eb000159 	bl	b340 <chprintf>
    add8:	e28dd008 	add	sp, sp, #8
    addc:	e8bd8010 	pop	{r4, pc}
    ade0:	0000bdc0 	andeq	fp, r0, r0, asr #27
    ade4:	0000bddc 	ldrdeq	fp, [r0], -ip
    ade8:	0000bde4 	andeq	fp, r0, r4, ror #27
    adec:	0000bdf8 	strdeq	fp, [r0], -r8
    adf0:	0000be08 	andeq	fp, r0, r8, lsl #28
    adf4:	0000be1c 	andeq	fp, r0, ip, lsl lr
    adf8:	0000be3c 	andeq	fp, r0, ip, lsr lr
    adfc:	0000be50 	andeq	fp, r0, r0, asr lr
    ae00:	0000be58 	andeq	fp, r0, r8, asr lr
    ae04:	0000be6c 	andeq	fp, r0, ip, ror #28
    ae08:	0000be7c 	andeq	fp, r0, ip, ror lr
    ae0c:	0000be90 	muleq	r0, r0, lr
    ae10:	0000bea0 	andeq	fp, r0, r0, lsr #29
    ae14:	0000beb4 			; <UNDEFINED> instruction: 0x0000beb4
    ae18:	0000bee4 	andeq	fp, r0, r4, ror #29
    ae1c:	0000bebc 			; <UNDEFINED> instruction: 0x0000bebc
    ae20:	0000bed4 	ldrdeq	fp, [r0], -r4
    ae24:	0000bee0 	andeq	fp, r0, r0, ror #29
	...

0000ae30 <_strtok.constprop.2>:
    ae30:	e92d4038 	push	{r3, r4, r5, lr}
    ae34:	e2504000 	subs	r4, r0, #0
    ae38:	e1a05001 	mov	r5, r1
    ae3c:	15814000 	strne	r4, [r1]
    ae40:	0a000011 	beq	ae8c <_strtok.constprop.2+0x5c>
    ae44:	e1a00004 	mov	r0, r4
    ae48:	e59f1050 	ldr	r1, [pc, #80]	; aea0 <_strtok.constprop.2+0x70>
    ae4c:	eb0003a3 	bl	bce0 <strspn>
    ae50:	e0844000 	add	r4, r4, r0
    ae54:	e1a00004 	mov	r0, r4
    ae58:	e3a01020 	mov	r1, #32
    ae5c:	eb000347 	bl	bb80 <strchr>
    ae60:	e3500000 	cmp	r0, #0
    ae64:	13a03000 	movne	r3, #0
    ae68:	12802001 	addne	r2, r0, #1
    ae6c:	15852000 	strne	r2, [r5]
    ae70:	05850000 	streq	r0, [r5]
    ae74:	15c03000 	strbne	r3, [r0]
    ae78:	e5d43000 	ldrb	r3, [r4]
    ae7c:	e3530000 	cmp	r3, #0
    ae80:	0a000004 	beq	ae98 <_strtok.constprop.2+0x68>
    ae84:	e1a00004 	mov	r0, r4
    ae88:	e8bd8038 	pop	{r3, r4, r5, pc}
    ae8c:	e5914000 	ldr	r4, [r1]
    ae90:	e3540000 	cmp	r4, #0
    ae94:	1affffea 	bne	ae44 <_strtok.constprop.2+0x14>
    ae98:	e3a00000 	mov	r0, #0
    ae9c:	e8bd8038 	pop	{r3, r4, r5, pc}
    aea0:	0000bd50 	andeq	fp, r0, r0, asr sp
	...

0000aeb0 <shellInit>:
    aeb0:	e59f3004 	ldr	r3, [pc, #4]	; aebc <shellInit+0xc>
    aeb4:	e5833000 	str	r3, [r3]
    aeb8:	e12fff1e 	bx	lr
    aebc:	0000c468 	andeq	ip, r0, r8, ror #8

0000aec0 <shellCreate>:
    aec0:	e52de004 	push	{lr}		; (str lr, [sp, #-4]!)
    aec4:	e24dd00c 	sub	sp, sp, #12
    aec8:	e58d0000 	str	r0, [sp]
    aecc:	e59f300c 	ldr	r3, [pc, #12]	; aee0 <shellCreate+0x20>
    aed0:	e3a00000 	mov	r0, #0
    aed4:	ebfffa19 	bl	9740 <chThdCreateFromHeap>
    aed8:	e28dd00c 	add	sp, sp, #12
    aedc:	e49df004 	pop	{pc}		; (ldr pc, [sp], #4)
    aee0:	0000b010 	andeq	fp, r0, r0, lsl r0
	...

0000aef0 <shellGetLine>:
    aef0:	e92d40f0 	push	{r4, r5, r6, r7, lr}
    aef4:	e1a07001 	mov	r7, r1
    aef8:	e1a04000 	mov	r4, r0
    aefc:	e1a05001 	mov	r5, r1
    af00:	e2422001 	sub	r2, r2, #1
    af04:	e24dd00c 	sub	sp, sp, #12
    af08:	e0816002 	add	r6, r1, r2
    af0c:	e5943000 	ldr	r3, [r4]
    af10:	e1a00004 	mov	r0, r4
    af14:	e5933004 	ldr	r3, [r3, #4]
    af18:	e28d1007 	add	r1, sp, #7
    af1c:	e3a02001 	mov	r2, #1
    af20:	e12fff33 	blx	r3
    af24:	e3500000 	cmp	r0, #0
    af28:	0a000024 	beq	afc0 <shellGetLine+0xd0>
    af2c:	e5dd1007 	ldrb	r1, [sp, #7]
    af30:	e3510004 	cmp	r1, #4
    af34:	0a000024 	beq	afcc <shellGetLine+0xdc>
    af38:	e3510008 	cmp	r1, #8
    af3c:	0a00000d 	beq	af78 <shellGetLine+0x88>
    af40:	e351000d 	cmp	r1, #13
    af44:	0a000026 	beq	afe4 <shellGetLine+0xf4>
    af48:	e351001f 	cmp	r1, #31
    af4c:	9affffee 	bls	af0c <shellGetLine+0x1c>
    af50:	e1550006 	cmp	r5, r6
    af54:	2affffec 	bcs	af0c <shellGetLine+0x1c>
    af58:	e5943000 	ldr	r3, [r4]
    af5c:	e1a00004 	mov	r0, r4
    af60:	e5933008 	ldr	r3, [r3, #8]
    af64:	e12fff33 	blx	r3
    af68:	e5dd3007 	ldrb	r3, [sp, #7]
    af6c:	e2855001 	add	r5, r5, #1
    af70:	e5453001 	strb	r3, [r5, #-1]
    af74:	eaffffe4 	b	af0c <shellGetLine+0x1c>
    af78:	e1550007 	cmp	r5, r7
    af7c:	0affffe2 	beq	af0c <shellGetLine+0x1c>
    af80:	e5943000 	ldr	r3, [r4]
    af84:	e1a00004 	mov	r0, r4
    af88:	e5933008 	ldr	r3, [r3, #8]
    af8c:	e12fff33 	blx	r3
    af90:	e5943000 	ldr	r3, [r4]
    af94:	e1a00004 	mov	r0, r4
    af98:	e5933008 	ldr	r3, [r3, #8]
    af9c:	e3a01020 	mov	r1, #32
    afa0:	e12fff33 	blx	r3
    afa4:	e5943000 	ldr	r3, [r4]
    afa8:	e1a00004 	mov	r0, r4
    afac:	e5933008 	ldr	r3, [r3, #8]
    afb0:	e5dd1007 	ldrb	r1, [sp, #7]
    afb4:	e2455001 	sub	r5, r5, #1
    afb8:	e12fff33 	blx	r3
    afbc:	eaffffd2 	b	af0c <shellGetLine+0x1c>
    afc0:	e3a00001 	mov	r0, #1
    afc4:	e28dd00c 	add	sp, sp, #12
    afc8:	e8bd80f0 	pop	{r4, r5, r6, r7, pc}
    afcc:	e1a00004 	mov	r0, r4
    afd0:	e59f1028 	ldr	r1, [pc, #40]	; b000 <shellGetLine+0x110>
    afd4:	eb0000d9 	bl	b340 <chprintf>
    afd8:	e3a00001 	mov	r0, #1
    afdc:	e28dd00c 	add	sp, sp, #12
    afe0:	e8bd80f0 	pop	{r4, r5, r6, r7, pc}
    afe4:	e1a00004 	mov	r0, r4
    afe8:	e59f1014 	ldr	r1, [pc, #20]	; b004 <shellGetLine+0x114>
    afec:	eb0000d3 	bl	b340 <chprintf>
    aff0:	e3a00000 	mov	r0, #0
    aff4:	e5c50000 	strb	r0, [r5]
    aff8:	e28dd00c 	add	sp, sp, #12
    affc:	e8bd80f0 	pop	{r4, r5, r6, r7, pc}
    b000:	0000bef0 	strdeq	fp, [r0], -r0
    b004:	0000bdf4 	strdeq	fp, [r0], -r4
	...

0000b010 <shell_thread>:
    b010:	e92d47f0 	push	{r4, r5, r6, r7, r8, r9, sl, lr}
    b014:	e59f3250 	ldr	r3, [pc, #592]	; b26c <shell_thread+0x25c>
    b018:	e5906000 	ldr	r6, [r0]
    b01c:	e5933018 	ldr	r3, [r3, #24]
    b020:	e59f2248 	ldr	r2, [pc, #584]	; b270 <shell_thread+0x260>
    b024:	e5908004 	ldr	r8, [r0, #4]
    b028:	e24dd058 	sub	sp, sp, #88	; 0x58
    b02c:	e1a00006 	mov	r0, r6
    b030:	e5832018 	str	r2, [r3, #24]
    b034:	e59f1238 	ldr	r1, [pc, #568]	; b274 <shell_thread+0x264>
    b038:	eb0000c0 	bl	b340 <chprintf>
    b03c:	e59f9234 	ldr	r9, [pc, #564]	; b278 <shell_thread+0x268>
    b040:	e3a07000 	mov	r7, #0
    b044:	e1a00006 	mov	r0, r6
    b048:	e59f122c 	ldr	r1, [pc, #556]	; b27c <shell_thread+0x26c>
    b04c:	eb0000bb 	bl	b340 <chprintf>
    b050:	e1a00006 	mov	r0, r6
    b054:	e28d1018 	add	r1, sp, #24
    b058:	e3a02040 	mov	r2, #64	; 0x40
    b05c:	ebffffa3 	bl	aef0 <shellGetLine>
    b060:	e2504000 	subs	r4, r0, #0
    b064:	1a00002f 	bne	b128 <shell_thread+0x118>
    b068:	e28d0018 	add	r0, sp, #24
    b06c:	e1a0100d 	mov	r1, sp
    b070:	ebffff6e 	bl	ae30 <_strtok.constprop.2>
    b074:	e1a0a000 	mov	sl, r0
    b078:	e28d5004 	add	r5, sp, #4
    b07c:	e3a00000 	mov	r0, #0
    b080:	e1a0100d 	mov	r1, sp
    b084:	ebffff69 	bl	ae30 <_strtok.constprop.2>
    b088:	e3500000 	cmp	r0, #0
    b08c:	0a000008 	beq	b0b4 <shell_thread+0xa4>
    b090:	e3540004 	cmp	r4, #4
    b094:	12844001 	addne	r4, r4, #1
    b098:	14850004 	strne	r0, [r5], #4
    b09c:	1afffff6 	bne	b07c <shell_thread+0x6c>
    b0a0:	e1a00006 	mov	r0, r6
    b0a4:	e59f11d4 	ldr	r1, [pc, #468]	; b280 <shell_thread+0x270>
    b0a8:	eb0000a4 	bl	b340 <chprintf>
    b0ac:	e58d7014 	str	r7, [sp, #20]
    b0b0:	eaffffe3 	b	b044 <shell_thread+0x34>
    b0b4:	e28d3058 	add	r3, sp, #88	; 0x58
    b0b8:	e0833104 	add	r3, r3, r4, lsl #2
    b0bc:	e35a0000 	cmp	sl, #0
    b0c0:	e5030054 	str	r0, [r3, #-84]	; 0xffffffac
    b0c4:	0affffde 	beq	b044 <shell_thread+0x34>
    b0c8:	e1a0000a 	mov	r0, sl
    b0cc:	e59f11b0 	ldr	r1, [pc, #432]	; b284 <shell_thread+0x274>
    b0d0:	eb00028e 	bl	bb10 <strcasecmp>
    b0d4:	e3500000 	cmp	r0, #0
    b0d8:	1a000006 	bne	b0f8 <shell_thread+0xe8>
    b0dc:	e3540000 	cmp	r4, #0
    b0e0:	0a000013 	beq	b134 <shell_thread+0x124>
    b0e4:	e1a00006 	mov	r0, r6
    b0e8:	e59f1198 	ldr	r1, [pc, #408]	; b288 <shell_thread+0x278>
    b0ec:	e59f2190 	ldr	r2, [pc, #400]	; b284 <shell_thread+0x274>
    b0f0:	eb000092 	bl	b340 <chprintf>
    b0f4:	eaffffd1 	b	b040 <shell_thread+0x30>
    b0f8:	e1a0000a 	mov	r0, sl
    b0fc:	e59f1188 	ldr	r1, [pc, #392]	; b28c <shell_thread+0x27c>
    b100:	eb000282 	bl	bb10 <strcasecmp>
    b104:	e3500000 	cmp	r0, #0
    b108:	1a000012 	bne	b158 <shell_thread+0x148>
    b10c:	e3540000 	cmp	r4, #0
    b110:	e1a00006 	mov	r0, r6
    b114:	0a000021 	beq	b1a0 <shell_thread+0x190>
    b118:	e59f1168 	ldr	r1, [pc, #360]	; b288 <shell_thread+0x278>
    b11c:	e59f2168 	ldr	r2, [pc, #360]	; b28c <shell_thread+0x27c>
    b120:	eb000086 	bl	b340 <chprintf>
    b124:	eaffffc5 	b	b040 <shell_thread+0x30>
    b128:	e1a00006 	mov	r0, r6
    b12c:	e59f115c 	ldr	r1, [pc, #348]	; b290 <shell_thread+0x280>
    b130:	eb000082 	bl	b340 <chprintf>
    b134:	e321f09f 	msr	CPSR_c, #159	; 0x9f
    b138:	e3a01000 	mov	r1, #0
    b13c:	e59f0150 	ldr	r0, [pc, #336]	; b294 <shell_thread+0x284>
    b140:	ebfffa4a 	bl	9a70 <chEvtBroadcastFlagsI>
    b144:	e3a00000 	mov	r0, #0
    b148:	ebfff930 	bl	9610 <chThdExitS>
    b14c:	e3a00000 	mov	r0, #0
    b150:	e28dd058 	add	sp, sp, #88	; 0x58
    b154:	e8bd87f0 	pop	{r4, r5, r6, r7, r8, r9, sl, pc}
    b158:	e5990000 	ldr	r0, [r9]
    b15c:	e3500000 	cmp	r0, #0
    b160:	159f5110 	ldrne	r5, [pc, #272]	; b278 <shell_thread+0x268>
    b164:	1a000003 	bne	b178 <shell_thread+0x168>
    b168:	ea000028 	b	b210 <shell_thread+0x200>
    b16c:	e5b50008 	ldr	r0, [r5, #8]!
    b170:	e3500000 	cmp	r0, #0
    b174:	0a000025 	beq	b210 <shell_thread+0x200>
    b178:	e1a0100a 	mov	r1, sl
    b17c:	eb000263 	bl	bb10 <strcasecmp>
    b180:	e3500000 	cmp	r0, #0
    b184:	1afffff8 	bne	b16c <shell_thread+0x15c>
    b188:	e5953004 	ldr	r3, [r5, #4]
    b18c:	e1a01004 	mov	r1, r4
    b190:	e28d2004 	add	r2, sp, #4
    b194:	e1a00006 	mov	r0, r6
    b198:	e12fff33 	blx	r3
    b19c:	eaffffa7 	b	b040 <shell_thread+0x30>
    b1a0:	e59f10f0 	ldr	r1, [pc, #240]	; b298 <shell_thread+0x288>
    b1a4:	eb000065 	bl	b340 <chprintf>
    b1a8:	e5992000 	ldr	r2, [r9]
    b1ac:	e3520000 	cmp	r2, #0
    b1b0:	159f40c0 	ldrne	r4, [pc, #192]	; b278 <shell_thread+0x268>
    b1b4:	0a000005 	beq	b1d0 <shell_thread+0x1c0>
    b1b8:	e1a00006 	mov	r0, r6
    b1bc:	e59f10d8 	ldr	r1, [pc, #216]	; b29c <shell_thread+0x28c>
    b1c0:	eb00005e 	bl	b340 <chprintf>
    b1c4:	e5b42008 	ldr	r2, [r4, #8]!
    b1c8:	e3520000 	cmp	r2, #0
    b1cc:	1afffff9 	bne	b1b8 <shell_thread+0x1a8>
    b1d0:	e3580000 	cmp	r8, #0
    b1d4:	0a000009 	beq	b200 <shell_thread+0x1f0>
    b1d8:	e5982000 	ldr	r2, [r8]
    b1dc:	e3520000 	cmp	r2, #0
    b1e0:	0a000006 	beq	b200 <shell_thread+0x1f0>
    b1e4:	e1a04008 	mov	r4, r8
    b1e8:	e1a00006 	mov	r0, r6
    b1ec:	e59f10a8 	ldr	r1, [pc, #168]	; b29c <shell_thread+0x28c>
    b1f0:	eb000052 	bl	b340 <chprintf>
    b1f4:	e5b42008 	ldr	r2, [r4, #8]!
    b1f8:	e3520000 	cmp	r2, #0
    b1fc:	1afffff9 	bne	b1e8 <shell_thread+0x1d8>
    b200:	e1a00006 	mov	r0, r6
    b204:	e59f1094 	ldr	r1, [pc, #148]	; b2a0 <shell_thread+0x290>
    b208:	eb00004c 	bl	b340 <chprintf>
    b20c:	eaffff8b 	b	b040 <shell_thread+0x30>
    b210:	e3580000 	cmp	r8, #0
    b214:	0a00000c 	beq	b24c <shell_thread+0x23c>
    b218:	e5980000 	ldr	r0, [r8]
    b21c:	e3500000 	cmp	r0, #0
    b220:	0a000009 	beq	b24c <shell_thread+0x23c>
    b224:	e1a05008 	mov	r5, r8
    b228:	ea000002 	b	b238 <shell_thread+0x228>
    b22c:	e5b50008 	ldr	r0, [r5, #8]!
    b230:	e3500000 	cmp	r0, #0
    b234:	0a000004 	beq	b24c <shell_thread+0x23c>
    b238:	e1a0100a 	mov	r1, sl
    b23c:	eb000233 	bl	bb10 <strcasecmp>
    b240:	e3500000 	cmp	r0, #0
    b244:	1afffff8 	bne	b22c <shell_thread+0x21c>
    b248:	eaffffce 	b	b188 <shell_thread+0x178>
    b24c:	e1a00006 	mov	r0, r6
    b250:	e1a0200a 	mov	r2, sl
    b254:	e59f1048 	ldr	r1, [pc, #72]	; b2a4 <shell_thread+0x294>
    b258:	eb000038 	bl	b340 <chprintf>
    b25c:	e1a00006 	mov	r0, r6
    b260:	e59f1040 	ldr	r1, [pc, #64]	; b2a8 <shell_thread+0x298>
    b264:	eb000035 	bl	b340 <chprintf>
    b268:	eaffff74 	b	b040 <shell_thread+0x30>
    b26c:	0000c340 	andeq	ip, r0, r0, asr #6
    b270:	0000bef4 	strdeq	fp, [r0], -r4
    b274:	0000befc 	strdeq	fp, [r0], -ip
    b278:	0000c0f4 	strdeq	ip, [r0], -r4
    b27c:	0000bf14 	andeq	fp, r0, r4, lsl pc
    b280:	0000bf28 	andeq	fp, r0, r8, lsr #30
    b284:	0000bf40 	andeq	fp, r0, r0, asr #30
    b288:	0000bdc0 	andeq	fp, r0, r0, asr #27
    b28c:	0000bf48 	andeq	fp, r0, r8, asr #30
    b290:	0000bf1c 	andeq	fp, r0, ip, lsl pc
    b294:	0000c468 	andeq	ip, r0, r8, ror #8
    b298:	0000bf50 	andeq	fp, r0, r0, asr pc
    b29c:	0000bf68 	andeq	fp, r0, r8, ror #30
    b2a0:	0000bdf4 	strdeq	fp, [r0], -r4
    b2a4:	0000bf6c 	andeq	fp, r0, ip, ror #30
    b2a8:	0000bf70 	andeq	fp, r0, r0, ror pc
    b2ac:	00000000 	andeq	r0, r0, r0

0000b2b0 <long_to_string_with_divisor>:
    b2b0:	e92d47f0 	push	{r4, r5, r6, r7, r8, r9, sl, lr}
    b2b4:	e3530000 	cmp	r3, #0
    b2b8:	e280900b 	add	r9, r0, #11
    b2bc:	e1a06000 	mov	r6, r0
    b2c0:	e1a07001 	mov	r7, r1
    b2c4:	11a0a003 	movne	sl, r3
    b2c8:	01a0a001 	moveq	sl, r1
    b2cc:	e1a08002 	mov	r8, r2
    b2d0:	e1a05009 	mov	r5, r9
    b2d4:	e1a00007 	mov	r0, r7
    b2d8:	e1a01008 	mov	r1, r8
    b2dc:	ebfff3f4 	bl	82b4 <__aeabi_uidivmod>
    b2e0:	e1a03001 	mov	r3, r1
    b2e4:	e2834030 	add	r4, r3, #48	; 0x30
    b2e8:	e3540039 	cmp	r4, #57	; 0x39
    b2ec:	c2834037 	addgt	r4, r3, #55	; 0x37
    b2f0:	e6ef4074 	uxtb	r4, r4
    b2f4:	e1a00007 	mov	r0, r7
    b2f8:	e1a01008 	mov	r1, r8
    b2fc:	e5654001 	strb	r4, [r5, #-1]!
    b300:	ebfff3ae 	bl	81c0 <__aeabi_uidiv>
    b304:	e1a01008 	mov	r1, r8
    b308:	e1a07000 	mov	r7, r0
    b30c:	e1a0000a 	mov	r0, sl
    b310:	ebfff3aa 	bl	81c0 <__aeabi_uidiv>
    b314:	e250a000 	subs	sl, r0, #0
    b318:	1affffed 	bne	b2d4 <long_to_string_with_divisor+0x24>
    b31c:	e0659009 	rsb	r9, r5, r9
    b320:	e0869009 	add	r9, r6, r9
    b324:	ea000000 	b	b32c <long_to_string_with_divisor+0x7c>
    b328:	e5f54001 	ldrb	r4, [r5, #1]!
    b32c:	e4c64001 	strb	r4, [r6], #1
    b330:	e1560009 	cmp	r6, r9
    b334:	1afffffb 	bne	b328 <long_to_string_with_divisor+0x78>
    b338:	e1a00006 	mov	r0, r6
    b33c:	e8bd87f0 	pop	{r4, r5, r6, r7, r8, r9, sl, pc}

0000b340 <chprintf>:
    b340:	e92d000e 	push	{r1, r2, r3}
    b344:	e92d4ff0 	push	{r4, r5, r6, r7, r8, r9, sl, fp, lr}
    b348:	e1a06000 	mov	r6, r0
    b34c:	e24dd030 	sub	sp, sp, #48	; 0x30
    b350:	e28d3058 	add	r3, sp, #88	; 0x58
    b354:	e28d8018 	add	r8, sp, #24
    b358:	e58d3014 	str	r3, [sp, #20]
    b35c:	e59d5054 	ldr	r5, [sp, #84]	; 0x54
    b360:	e28d3019 	add	r3, sp, #25
    b364:	e068b003 	rsb	fp, r8, r3
    b368:	e5d51000 	ldrb	r1, [r5]
    b36c:	e2852001 	add	r2, r5, #1
    b370:	e3510000 	cmp	r1, #0
    b374:	0a00000a 	beq	b3a4 <chprintf+0x64>
    b378:	e3510025 	cmp	r1, #37	; 0x25
    b37c:	0a00000c 	beq	b3b4 <chprintf+0x74>
    b380:	e1a05002 	mov	r5, r2
    b384:	e5963000 	ldr	r3, [r6]
    b388:	e1a00006 	mov	r0, r6
    b38c:	e5933008 	ldr	r3, [r3, #8]
    b390:	e12fff33 	blx	r3
    b394:	e5d51000 	ldrb	r1, [r5]
    b398:	e2852001 	add	r2, r5, #1
    b39c:	e3510000 	cmp	r1, #0
    b3a0:	1afffff4 	bne	b378 <chprintf+0x38>
    b3a4:	e28dd030 	add	sp, sp, #48	; 0x30
    b3a8:	e8bd4ff0 	pop	{r4, r5, r6, r7, r8, r9, sl, fp, lr}
    b3ac:	e28dd00c 	add	sp, sp, #12
    b3b0:	e12fff1e 	bx	lr
    b3b4:	e5d51001 	ldrb	r1, [r5, #1]
    b3b8:	e3a04000 	mov	r4, #0
    b3bc:	e351002d 	cmp	r1, #45	; 0x2d
    b3c0:	05d51002 	ldrbeq	r1, [r5, #2]
    b3c4:	02852002 	addeq	r2, r5, #2
    b3c8:	03a09001 	moveq	r9, #1
    b3cc:	13a09000 	movne	r9, #0
    b3d0:	e351002e 	cmp	r1, #46	; 0x2e
    b3d4:	05d21001 	ldrbeq	r1, [r2, #1]
    b3d8:	02822001 	addeq	r2, r2, #1
    b3dc:	03a07030 	moveq	r7, #48	; 0x30
    b3e0:	13a07020 	movne	r7, #32
    b3e4:	e59d0014 	ldr	r0, [sp, #20]
    b3e8:	e2822001 	add	r2, r2, #1
    b3ec:	ea000004 	b	b404 <chprintf+0xc4>
    b3f0:	e5d03000 	ldrb	r3, [r0]
    b3f4:	e2800004 	add	r0, r0, #4
    b3f8:	e5d51000 	ldrb	r1, [r5]
    b3fc:	e083408c 	add	r4, r3, ip, lsl #1
    b400:	e2822001 	add	r2, r2, #1
    b404:	e2413030 	sub	r3, r1, #48	; 0x30
    b408:	e6ef3073 	uxtb	r3, r3
    b40c:	e3530009 	cmp	r3, #9
    b410:	e084c104 	add	ip, r4, r4, lsl #2
    b414:	e1a05002 	mov	r5, r2
    b418:	9afffff6 	bls	b3f8 <chprintf+0xb8>
    b41c:	e351002a 	cmp	r1, #42	; 0x2a
    b420:	0afffff2 	beq	b3f0 <chprintf+0xb0>
    b424:	e351002e 	cmp	r1, #46	; 0x2e
    b428:	e3a02000 	mov	r2, #0
    b42c:	e58d0014 	str	r0, [sp, #20]
    b430:	0a000042 	beq	b540 <chprintf+0x200>
    b434:	e20130df 	and	r3, r1, #223	; 0xdf
    b438:	e353004c 	cmp	r3, #76	; 0x4c
    b43c:	1a00004b 	bne	b570 <chprintf+0x230>
    b440:	e5d53000 	ldrb	r3, [r5]
    b444:	e3530000 	cmp	r3, #0
    b448:	11a01003 	movne	r1, r3
    b44c:	e2413044 	sub	r3, r1, #68	; 0x44
    b450:	12855001 	addne	r5, r5, #1
    b454:	e3530034 	cmp	r3, #52	; 0x34
    b458:	979ff103 	ldrls	pc, [pc, r3, lsl #2]
    b45c:	ea000108 	b	b884 <chprintf+0x544>
    b460:	0000b900 	andeq	fp, r0, r0, lsl #18
    b464:	0000b884 	andeq	fp, r0, r4, lsl #17
    b468:	0000b884 	andeq	fp, r0, r4, lsl #17
    b46c:	0000b884 	andeq	fp, r0, r4, lsl #17
    b470:	0000b884 	andeq	fp, r0, r4, lsl #17
    b474:	0000b884 	andeq	fp, r0, r4, lsl #17
    b478:	0000b884 	andeq	fp, r0, r4, lsl #17
    b47c:	0000b884 	andeq	fp, r0, r4, lsl #17
    b480:	0000b884 	andeq	fp, r0, r4, lsl #17
    b484:	0000b884 	andeq	fp, r0, r4, lsl #17
    b488:	0000b884 	andeq	fp, r0, r4, lsl #17
    b48c:	0000b8d4 	ldrdeq	fp, [r0], -r4
    b490:	0000b884 	andeq	fp, r0, r4, lsl #17
    b494:	0000b884 	andeq	fp, r0, r4, lsl #17
    b498:	0000b884 	andeq	fp, r0, r4, lsl #17
    b49c:	0000b884 	andeq	fp, r0, r4, lsl #17
    b4a0:	0000b884 	andeq	fp, r0, r4, lsl #17
    b4a4:	0000b898 	muleq	r0, r8, r8
    b4a8:	0000b884 	andeq	fp, r0, r4, lsl #17
    b4ac:	0000b884 	andeq	fp, r0, r4, lsl #17
    b4b0:	0000b944 	andeq	fp, r0, r4, asr #18
    b4b4:	0000b884 	andeq	fp, r0, r4, lsl #17
    b4b8:	0000b884 	andeq	fp, r0, r4, lsl #17
    b4bc:	0000b884 	andeq	fp, r0, r4, lsl #17
    b4c0:	0000b884 	andeq	fp, r0, r4, lsl #17
    b4c4:	0000b884 	andeq	fp, r0, r4, lsl #17
    b4c8:	0000b884 	andeq	fp, r0, r4, lsl #17
    b4cc:	0000b884 	andeq	fp, r0, r4, lsl #17
    b4d0:	0000b884 	andeq	fp, r0, r4, lsl #17
    b4d4:	0000b884 	andeq	fp, r0, r4, lsl #17
    b4d8:	0000b884 	andeq	fp, r0, r4, lsl #17
    b4dc:	0000b85c 	andeq	fp, r0, ip, asr r8
    b4e0:	0000b900 	andeq	fp, r0, r0, lsl #18
    b4e4:	0000b884 	andeq	fp, r0, r4, lsl #17
    b4e8:	0000b70c 	andeq	fp, r0, ip, lsl #14
    b4ec:	0000b884 	andeq	fp, r0, r4, lsl #17
    b4f0:	0000b884 	andeq	fp, r0, r4, lsl #17
    b4f4:	0000b884 	andeq	fp, r0, r4, lsl #17
    b4f8:	0000b884 	andeq	fp, r0, r4, lsl #17
    b4fc:	0000b884 	andeq	fp, r0, r4, lsl #17
    b500:	0000b884 	andeq	fp, r0, r4, lsl #17
    b504:	0000b884 	andeq	fp, r0, r4, lsl #17
    b508:	0000b884 	andeq	fp, r0, r4, lsl #17
    b50c:	0000b8d4 	ldrdeq	fp, [r0], -r4
    b510:	0000b884 	andeq	fp, r0, r4, lsl #17
    b514:	0000b884 	andeq	fp, r0, r4, lsl #17
    b518:	0000b884 	andeq	fp, r0, r4, lsl #17
    b51c:	0000b66c 	andeq	fp, r0, ip, ror #12
    b520:	0000b884 	andeq	fp, r0, r4, lsl #17
    b524:	0000b898 	muleq	r0, r8, r8
    b528:	0000b884 	andeq	fp, r0, r4, lsl #17
    b52c:	0000b884 	andeq	fp, r0, r4, lsl #17
    b530:	0000b944 	andeq	fp, r0, r4, asr #18
    b534:	e5d03000 	ldrb	r3, [r0]
    b538:	e2800004 	add	r0, r0, #4
    b53c:	e083208c 	add	r2, r3, ip, lsl #1
    b540:	e4d51001 	ldrb	r1, [r5], #1
    b544:	e082c102 	add	ip, r2, r2, lsl #2
    b548:	e2413030 	sub	r3, r1, #48	; 0x30
    b54c:	e6ef3073 	uxtb	r3, r3
    b550:	e3530009 	cmp	r3, #9
    b554:	9afffff8 	bls	b53c <chprintf+0x1fc>
    b558:	e351002a 	cmp	r1, #42	; 0x2a
    b55c:	0afffff4 	beq	b534 <chprintf+0x1f4>
    b560:	e20130df 	and	r3, r1, #223	; 0xdf
    b564:	e353004c 	cmp	r3, #76	; 0x4c
    b568:	e58d0014 	str	r0, [sp, #20]
    b56c:	0affffb3 	beq	b440 <chprintf+0x100>
    b570:	e2413041 	sub	r3, r1, #65	; 0x41
    b574:	e6ef3073 	uxtb	r3, r3
    b578:	e3530019 	cmp	r3, #25
    b57c:	83a03000 	movhi	r3, #0
    b580:	93a03001 	movls	r3, #1
    b584:	e2410044 	sub	r0, r1, #68	; 0x44
    b588:	e1a0c003 	mov	ip, r3
    b58c:	e3500034 	cmp	r0, #52	; 0x34
    b590:	979ff100 	ldrls	pc, [pc, r0, lsl #2]
    b594:	ea0000ba 	b	b884 <chprintf+0x544>
    b598:	0000b8f8 	strdeq	fp, [r0], -r8
    b59c:	0000b884 	andeq	fp, r0, r4, lsl #17
    b5a0:	0000b884 	andeq	fp, r0, r4, lsl #17
    b5a4:	0000b884 	andeq	fp, r0, r4, lsl #17
    b5a8:	0000b884 	andeq	fp, r0, r4, lsl #17
    b5ac:	0000b884 	andeq	fp, r0, r4, lsl #17
    b5b0:	0000b884 	andeq	fp, r0, r4, lsl #17
    b5b4:	0000b884 	andeq	fp, r0, r4, lsl #17
    b5b8:	0000b884 	andeq	fp, r0, r4, lsl #17
    b5bc:	0000b884 	andeq	fp, r0, r4, lsl #17
    b5c0:	0000b884 	andeq	fp, r0, r4, lsl #17
    b5c4:	0000b8d8 	ldrdeq	fp, [r0], -r8
    b5c8:	0000b884 	andeq	fp, r0, r4, lsl #17
    b5cc:	0000b884 	andeq	fp, r0, r4, lsl #17
    b5d0:	0000b884 	andeq	fp, r0, r4, lsl #17
    b5d4:	0000b884 	andeq	fp, r0, r4, lsl #17
    b5d8:	0000b884 	andeq	fp, r0, r4, lsl #17
    b5dc:	0000b89c 	muleq	r0, ip, r8
    b5e0:	0000b884 	andeq	fp, r0, r4, lsl #17
    b5e4:	0000b884 	andeq	fp, r0, r4, lsl #17
    b5e8:	0000b93c 	andeq	fp, r0, ip, lsr r9
    b5ec:	0000b884 	andeq	fp, r0, r4, lsl #17
    b5f0:	0000b884 	andeq	fp, r0, r4, lsl #17
    b5f4:	0000b884 	andeq	fp, r0, r4, lsl #17
    b5f8:	0000b884 	andeq	fp, r0, r4, lsl #17
    b5fc:	0000b884 	andeq	fp, r0, r4, lsl #17
    b600:	0000b884 	andeq	fp, r0, r4, lsl #17
    b604:	0000b884 	andeq	fp, r0, r4, lsl #17
    b608:	0000b884 	andeq	fp, r0, r4, lsl #17
    b60c:	0000b884 	andeq	fp, r0, r4, lsl #17
    b610:	0000b884 	andeq	fp, r0, r4, lsl #17
    b614:	0000b85c 	andeq	fp, r0, ip, asr r8
    b618:	0000b8f8 	strdeq	fp, [r0], -r8
    b61c:	0000b884 	andeq	fp, r0, r4, lsl #17
    b620:	0000b70c 	andeq	fp, r0, ip, lsl #14
    b624:	0000b884 	andeq	fp, r0, r4, lsl #17
    b628:	0000b884 	andeq	fp, r0, r4, lsl #17
    b62c:	0000b884 	andeq	fp, r0, r4, lsl #17
    b630:	0000b884 	andeq	fp, r0, r4, lsl #17
    b634:	0000b884 	andeq	fp, r0, r4, lsl #17
    b638:	0000b884 	andeq	fp, r0, r4, lsl #17
    b63c:	0000b884 	andeq	fp, r0, r4, lsl #17
    b640:	0000b884 	andeq	fp, r0, r4, lsl #17
    b644:	0000b8d8 	ldrdeq	fp, [r0], -r8
    b648:	0000b884 	andeq	fp, r0, r4, lsl #17
    b64c:	0000b884 	andeq	fp, r0, r4, lsl #17
    b650:	0000b884 	andeq	fp, r0, r4, lsl #17
    b654:	0000b66c 	andeq	fp, r0, ip, ror #12
    b658:	0000b884 	andeq	fp, r0, r4, lsl #17
    b65c:	0000b89c 	muleq	r0, ip, r8
    b660:	0000b884 	andeq	fp, r0, r4, lsl #17
    b664:	0000b884 	andeq	fp, r0, r4, lsl #17
    b668:	0000b93c 	andeq	fp, r0, ip, lsr r9
    b66c:	e59d3014 	ldr	r3, [sp, #20]
    b670:	e59f134c 	ldr	r1, [pc, #844]	; b9c4 <chprintf+0x684>
    b674:	e593a000 	ldr	sl, [r3]
    b678:	e2833004 	add	r3, r3, #4
    b67c:	e35a0000 	cmp	sl, #0
    b680:	01a0a001 	moveq	sl, r1
    b684:	e3520000 	cmp	r2, #0
    b688:	e58d3014 	str	r3, [sp, #20]
    b68c:	e5da3000 	ldrb	r3, [sl]
    b690:	0a0000b6 	beq	b970 <chprintf+0x630>
    b694:	e3530000 	cmp	r3, #0
    b698:	0a0000b7 	beq	b97c <chprintf+0x63c>
    b69c:	e2422001 	sub	r2, r2, #1
    b6a0:	e1a0000a 	mov	r0, sl
    b6a4:	ea000001 	b	b6b0 <chprintf+0x370>
    b6a8:	e3720001 	cmn	r2, #1
    b6ac:	0a000003 	beq	b6c0 <chprintf+0x380>
    b6b0:	e5f03001 	ldrb	r3, [r0, #1]!
    b6b4:	e2422001 	sub	r2, r2, #1
    b6b8:	e3530000 	cmp	r3, #0
    b6bc:	1afffff9 	bne	b6a8 <chprintf+0x368>
    b6c0:	e06a0000 	rsb	r0, sl, r0
    b6c4:	e0604004 	rsb	r4, r0, r4
    b6c8:	e3590000 	cmp	r9, #0
    b6cc:	e2403001 	sub	r3, r0, #1
    b6d0:	e3a07020 	mov	r7, #32
    b6d4:	e1c44fc4 	bic	r4, r4, r4, asr #31
    b6d8:	0a000045 	beq	b7f4 <chprintf+0x4b4>
    b6dc:	e2539000 	subs	r9, r3, #0
    b6e0:	aa000054 	bge	b838 <chprintf+0x4f8>
    b6e4:	e3540000 	cmp	r4, #0
    b6e8:	0affff1e 	beq	b368 <chprintf+0x28>
    b6ec:	e5963000 	ldr	r3, [r6]
    b6f0:	e1a00006 	mov	r0, r6
    b6f4:	e5933008 	ldr	r3, [r3, #8]
    b6f8:	e1a01007 	mov	r1, r7
    b6fc:	e12fff33 	blx	r3
    b700:	e2544001 	subs	r4, r4, #1
    b704:	1afffff8 	bne	b6ec <chprintf+0x3ac>
    b708:	eaffff16 	b	b368 <chprintf+0x28>
    b70c:	e59d3014 	ldr	r3, [sp, #20]
    b710:	e2833007 	add	r3, r3, #7
    b714:	e3c33007 	bic	r3, r3, #7
    b718:	e2832008 	add	r2, r3, #8
    b71c:	e1c300d0 	ldrd	r0, [r3]
    b720:	e58d2014 	str	r2, [sp, #20]
    b724:	ebfff539 	bl	8c10 <__aeabi_d2f>
    b728:	e3a01000 	mov	r1, #0
    b72c:	e1a0a000 	mov	sl, r0
    b730:	ebfff58b 	bl	8d64 <__aeabi_fcmplt>
    b734:	e3500000 	cmp	r0, #0
    b738:	13a0302d 	movne	r3, #45	; 0x2d
    b73c:	01a03008 	moveq	r3, r8
    b740:	128aa102 	addne	sl, sl, #-2147483648	; 0x80000000
    b744:	15cd3018 	strbne	r3, [sp, #24]
    b748:	e1a0000a 	mov	r0, sl
    b74c:	128d3019 	addne	r3, sp, #25
    b750:	e58d3008 	str	r3, [sp, #8]
    b754:	ebfff59d 	bl	8dd0 <__aeabi_f2iz>
    b758:	e1a02000 	mov	r2, r0
    b75c:	e59d3008 	ldr	r3, [sp, #8]
    b760:	e1a01002 	mov	r1, r2
    b764:	e1a00003 	mov	r0, r3
    b768:	e58d2008 	str	r2, [sp, #8]
    b76c:	e3a03000 	mov	r3, #0
    b770:	e3a0200a 	mov	r2, #10
    b774:	ebfffecd 	bl	b2b0 <long_to_string_with_divisor>
    b778:	e3a0302e 	mov	r3, #46	; 0x2e
    b77c:	e1a0c000 	mov	ip, r0
    b780:	e1a0000a 	mov	r0, sl
    b784:	e4cc3001 	strb	r3, [ip], #1
    b788:	e58dc00c 	str	ip, [sp, #12]
    b78c:	e58dc000 	str	ip, [sp]
    b790:	ebfff3b0 	bl	8658 <__aeabi_f2d>
    b794:	e1cd00f0 	strd	r0, [sp]
    b798:	e59d0008 	ldr	r0, [sp, #8]
    b79c:	ebfff3a3 	bl	8630 <__aeabi_i2d>
    b7a0:	e1a02000 	mov	r2, r0
    b7a4:	e1a03001 	mov	r3, r1
    b7a8:	e1cd00d0 	ldrd	r0, [sp]
    b7ac:	ebfff2d1 	bl	82f8 <__aeabi_dsub>
    b7b0:	e3a02000 	mov	r2, #0
    b7b4:	e59f320c 	ldr	r3, [pc, #524]	; b9c8 <chprintf+0x688>
    b7b8:	ebfff3d4 	bl	8710 <__aeabi_dmul>
    b7bc:	ebfff4fb 	bl	8bb0 <__aeabi_d2iz>
    b7c0:	e59dc00c 	ldr	ip, [sp, #12]
    b7c4:	e1a01000 	mov	r1, r0
    b7c8:	e59f31fc 	ldr	r3, [pc, #508]	; b9cc <chprintf+0x68c>
    b7cc:	e1a0000c 	mov	r0, ip
    b7d0:	e3a0200a 	mov	r2, #10
    b7d4:	ebfffeb5 	bl	b2b0 <long_to_string_with_divisor>
    b7d8:	e1a0a008 	mov	sl, r8
    b7dc:	e0680000 	rsb	r0, r8, r0
    b7e0:	e2403001 	sub	r3, r0, #1
    b7e4:	e0604004 	rsb	r4, r0, r4
    b7e8:	e3590000 	cmp	r9, #0
    b7ec:	e1c44fc4 	bic	r4, r4, r4, asr #31
    b7f0:	1affffb9 	bne	b6dc <chprintf+0x39c>
    b7f4:	e2644000 	rsb	r4, r4, #0
    b7f8:	e3540000 	cmp	r4, #0
    b7fc:	0a00004b 	beq	b930 <chprintf+0x5f0>
    b800:	e5da2000 	ldrb	r2, [sl]
    b804:	e352002d 	cmp	r2, #45	; 0x2d
    b808:	03570030 	cmpeq	r7, #48	; 0x30
    b80c:	11a09003 	movne	r9, r3
    b810:	0a000063 	beq	b9a4 <chprintf+0x664>
    b814:	e5963000 	ldr	r3, [r6]
    b818:	e1a00006 	mov	r0, r6
    b81c:	e5933008 	ldr	r3, [r3, #8]
    b820:	e1a01007 	mov	r1, r7
    b824:	e12fff33 	blx	r3
    b828:	e2944001 	adds	r4, r4, #1
    b82c:	1afffff8 	bne	b814 <chprintf+0x4d4>
    b830:	e3590000 	cmp	r9, #0
    b834:	bafffecb 	blt	b368 <chprintf+0x28>
    b838:	e5963000 	ldr	r3, [r6]
    b83c:	e2499001 	sub	r9, r9, #1
    b840:	e5933008 	ldr	r3, [r3, #8]
    b844:	e1a00006 	mov	r0, r6
    b848:	e4da1001 	ldrb	r1, [sl], #1
    b84c:	e12fff33 	blx	r3
    b850:	e3790001 	cmn	r9, #1
    b854:	1afffff7 	bne	b838 <chprintf+0x4f8>
    b858:	eaffffa1 	b	b6e4 <chprintf+0x3a4>
    b85c:	e59d3014 	ldr	r3, [sp, #20]
    b860:	e1a0000b 	mov	r0, fp
    b864:	e5932000 	ldr	r2, [r3]
    b868:	e2833004 	add	r3, r3, #4
    b86c:	e58d3014 	str	r3, [sp, #20]
    b870:	e5cd2018 	strb	r2, [sp, #24]
    b874:	e24b3001 	sub	r3, fp, #1
    b878:	e3a07020 	mov	r7, #32
    b87c:	e1a0a008 	mov	sl, r8
    b880:	eaffffd7 	b	b7e4 <chprintf+0x4a4>
    b884:	e1a0000b 	mov	r0, fp
    b888:	e1a0a008 	mov	sl, r8
    b88c:	e5cd1018 	strb	r1, [sp, #24]
    b890:	e24b3001 	sub	r3, fp, #1
    b894:	eaffffd2 	b	b7e4 <chprintf+0x4a4>
    b898:	e3a0c001 	mov	ip, #1
    b89c:	e3a0200a 	mov	r2, #10
    b8a0:	e35c0000 	cmp	ip, #0
    b8a4:	1a00000e 	bne	b8e4 <chprintf+0x5a4>
    b8a8:	e59d3014 	ldr	r3, [sp, #20]
    b8ac:	e2830004 	add	r0, r3, #4
    b8b0:	e5931000 	ldr	r1, [r3]
    b8b4:	e58d0014 	str	r0, [sp, #20]
    b8b8:	e1a00008 	mov	r0, r8
    b8bc:	e3a03000 	mov	r3, #0
    b8c0:	ebfffe7a 	bl	b2b0 <long_to_string_with_divisor>
    b8c4:	e0680000 	rsb	r0, r8, r0
    b8c8:	e2403001 	sub	r3, r0, #1
    b8cc:	e1a0a008 	mov	sl, r8
    b8d0:	eaffffc3 	b	b7e4 <chprintf+0x4a4>
    b8d4:	e3a0c001 	mov	ip, #1
    b8d8:	e35c0000 	cmp	ip, #0
    b8dc:	e3a02008 	mov	r2, #8
    b8e0:	0afffff0 	beq	b8a8 <chprintf+0x568>
    b8e4:	e59d3014 	ldr	r3, [sp, #20]
    b8e8:	e2831004 	add	r1, r3, #4
    b8ec:	e58d1014 	str	r1, [sp, #20]
    b8f0:	e5931000 	ldr	r1, [r3]
    b8f4:	eaffffef 	b	b8b8 <chprintf+0x578>
    b8f8:	e3530000 	cmp	r3, #0
    b8fc:	0a000016 	beq	b95c <chprintf+0x61c>
    b900:	e59d3014 	ldr	r3, [sp, #20]
    b904:	e2832004 	add	r2, r3, #4
    b908:	e5931000 	ldr	r1, [r3]
    b90c:	e58d2014 	str	r2, [sp, #20]
    b910:	e3510000 	cmp	r1, #0
    b914:	b3a0302d 	movlt	r3, #45	; 0x2d
    b918:	b2611000 	rsblt	r1, r1, #0
    b91c:	b5cd3018 	strblt	r3, [sp, #24]
    b920:	b28d0019 	addlt	r0, sp, #25
    b924:	a1a00008 	movge	r0, r8
    b928:	e3a0200a 	mov	r2, #10
    b92c:	eaffffe2 	b	b8bc <chprintf+0x57c>
    b930:	e2539000 	subs	r9, r3, #0
    b934:	aaffffbf 	bge	b838 <chprintf+0x4f8>
    b938:	eafffe8a 	b	b368 <chprintf+0x28>
    b93c:	e3a02010 	mov	r2, #16
    b940:	eaffffd6 	b	b8a0 <chprintf+0x560>
    b944:	e59d3014 	ldr	r3, [sp, #20]
    b948:	e3a02010 	mov	r2, #16
    b94c:	e2831004 	add	r1, r3, #4
    b950:	e58d1014 	str	r1, [sp, #20]
    b954:	e5931000 	ldr	r1, [r3]
    b958:	eaffffd6 	b	b8b8 <chprintf+0x578>
    b95c:	e59d3014 	ldr	r3, [sp, #20]
    b960:	e2832004 	add	r2, r3, #4
    b964:	e5931000 	ldr	r1, [r3]
    b968:	e58d2014 	str	r2, [sp, #20]
    b96c:	eaffffe7 	b	b910 <chprintf+0x5d0>
    b970:	e3530000 	cmp	r3, #0
    b974:	159f2054 	ldrne	r2, [pc, #84]	; b9d0 <chprintf+0x690>
    b978:	1affff48 	bne	b6a0 <chprintf+0x360>
    b97c:	e3590000 	cmp	r9, #0
    b980:	e1c44fc4 	bic	r4, r4, r4, asr #31
    b984:	13a07020 	movne	r7, #32
    b988:	1affff55 	bne	b6e4 <chprintf+0x3a4>
    b98c:	e2644000 	rsb	r4, r4, #0
    b990:	e3540000 	cmp	r4, #0
    b994:	e3a07020 	mov	r7, #32
    b998:	13e09000 	mvnne	r9, #0
    b99c:	1affff9c 	bne	b814 <chprintf+0x4d4>
    b9a0:	eafffe70 	b	b368 <chprintf+0x28>
    b9a4:	e5962000 	ldr	r2, [r6]
    b9a8:	e1a00006 	mov	r0, r6
    b9ac:	e5922008 	ldr	r2, [r2, #8]
    b9b0:	e3a0102d 	mov	r1, #45	; 0x2d
    b9b4:	e28aa001 	add	sl, sl, #1
    b9b8:	e2439001 	sub	r9, r3, #1
    b9bc:	e12fff32 	blx	r2
    b9c0:	eaffff93 	b	b814 <chprintf+0x4d4>
    b9c4:	0000bf80 	andeq	fp, r0, r0, lsl #31
    b9c8:	40f86a00 	rscsmi	r6, r8, r0, lsl #20
    b9cc:	00002710 	andeq	r2, r0, r0, lsl r7
    b9d0:	00007ffe 	strdeq	r7, [r0], -lr
	...

0000b9e0 <Thread1>:
    b9e0:	e92d4008 	push	{r3, lr}
    b9e4:	e59f3040 	ldr	r3, [pc, #64]	; ba2c <Thread1+0x4c>
    b9e8:	e59f2040 	ldr	r2, [pc, #64]	; ba30 <Thread1+0x50>
    b9ec:	e5933018 	ldr	r3, [r3, #24]
    b9f0:	e59f403c 	ldr	r4, [pc, #60]	; ba34 <Thread1+0x54>
    b9f4:	e5832018 	str	r2, [r3, #24]
    b9f8:	e5941000 	ldr	r1, [r4]
    b9fc:	e59f0030 	ldr	r0, [pc, #48]	; ba34 <Thread1+0x54>
    ba00:	e3c11801 	bic	r1, r1, #65536	; 0x10000
    ba04:	ebfffb4d 	bl	a740 <_pal_lld_writeport>
    ba08:	e3a00064 	mov	r0, #100	; 0x64
    ba0c:	ebfff6f7 	bl	95f0 <chThdSleep>
    ba10:	e5941000 	ldr	r1, [r4]
    ba14:	e59f0018 	ldr	r0, [pc, #24]	; ba34 <Thread1+0x54>
    ba18:	e3811801 	orr	r1, r1, #65536	; 0x10000
    ba1c:	ebfffb47 	bl	a740 <_pal_lld_writeport>
    ba20:	e3a00fe1 	mov	r0, #900	; 0x384
    ba24:	ebfff6f1 	bl	95f0 <chThdSleep>
    ba28:	eafffff2 	b	b9f8 <Thread1+0x18>
    ba2c:	0000c340 	andeq	ip, r0, r0, asr #6
    ba30:	0000bfa0 	andeq	fp, r0, r0, lsr #31
    ba34:	0000c374 	andeq	ip, r0, r4, ror r3
	...

0000ba40 <cmd_reboot>:
    ba40:	e3510000 	cmp	r1, #0
    ba44:	da000001 	ble	ba50 <cmd_reboot+0x10>
    ba48:	e59f1008 	ldr	r1, [pc, #8]	; ba58 <cmd_reboot+0x18>
    ba4c:	eafffe3b 	b	b340 <chprintf>
    ba50:	e3a00001 	mov	r0, #1
    ba54:	eafffaa5 	b	a4f0 <watchdog_start>
    ba58:	0000bfa8 	andeq	fp, r0, r8, lsr #31
    ba5c:	00000000 	andeq	r0, r0, r0

0000ba60 <main>:
    ba60:	e92d4030 	push	{r4, r5, lr}
    ba64:	e3a04000 	mov	r4, #0
    ba68:	e59f5074 	ldr	r5, [pc, #116]	; bae4 <main+0x84>
    ba6c:	e24dd00c 	sub	sp, sp, #12
    ba70:	ebfff9b6 	bl	a150 <halInit>
    ba74:	ebfff4f5 	bl	8e50 <chSysInit>
    ba78:	e1a00005 	mov	r0, r5
    ba7c:	e1a01004 	mov	r1, r4
    ba80:	ebfffa06 	bl	a2a0 <sdStart>
    ba84:	e1a00005 	mov	r0, r5
    ba88:	e59f1058 	ldr	r1, [pc, #88]	; bae8 <main+0x88>
    ba8c:	ebfffe2b 	bl	b340 <chprintf>
    ba90:	ebfffd06 	bl	aeb0 <shellInit>
    ba94:	e59f1050 	ldr	r1, [pc, #80]	; baec <main+0x8c>
    ba98:	e3a02041 	mov	r2, #65	; 0x41
    ba9c:	e59f004c 	ldr	r0, [pc, #76]	; baf0 <main+0x90>
    baa0:	ebfffd06 	bl	aec0 <shellCreate>
    baa4:	e59f0048 	ldr	r0, [pc, #72]	; baf4 <main+0x94>
    baa8:	e3a01801 	mov	r1, #65536	; 0x10000
    baac:	e3a020ff 	mov	r2, #255	; 0xff
    bab0:	ebfffaea 	bl	a660 <_pal_lld_setgroupmode>
    bab4:	e3a01f46 	mov	r1, #280	; 0x118
    bab8:	e3a02040 	mov	r2, #64	; 0x40
    babc:	e58d4000 	str	r4, [sp]
    bac0:	e59f3030 	ldr	r3, [pc, #48]	; baf8 <main+0x98>
    bac4:	e59f0030 	ldr	r0, [pc, #48]	; bafc <main+0x9c>
    bac8:	ebfff69c 	bl	9540 <chThdCreateStatic>
    bacc:	e59f302c 	ldr	r3, [pc, #44]	; bb00 <main+0xa0>
    bad0:	e5930018 	ldr	r0, [r3, #24]
    bad4:	ebfff6ed 	bl	9690 <chThdWait>
    bad8:	e1a00004 	mov	r0, r4
    badc:	e28dd00c 	add	sp, sp, #12
    bae0:	e8bd8030 	pop	{r4, r5, pc}
    bae4:	0000c38c 	andeq	ip, r0, ip, lsl #7
    bae8:	0000bfb8 			; <UNDEFINED> instruction: 0x0000bfb8
    baec:	00001098 	muleq	r0, r8, r0
    baf0:	0000bfe0 	andeq	fp, r0, r0, ror #31
    baf4:	0000c374 	andeq	ip, r0, r4, ror r3
    baf8:	0000b9e0 	andeq	fp, r0, r0, ror #19
    bafc:	0000c17c 	andeq	ip, r0, ip, ror r1
    bb00:	0000c340 	andeq	ip, r0, r0, asr #6
	...

0000bb10 <strcasecmp>:
    bb10:	e59f3060 	ldr	r3, [pc, #96]	; bb78 <strcasecmp+0x68>
    bb14:	e52de004 	push	{lr}		; (str lr, [sp, #-4]!)
    bb18:	e593e000 	ldr	lr, [r3]
    bb1c:	ea000003 	b	bb30 <strcasecmp+0x20>
    bb20:	e0533002 	subs	r3, r3, r2
    bb24:	1a000010 	bne	bb6c <strcasecmp+0x5c>
    bb28:	e3520000 	cmp	r2, #0
    bb2c:	0a00000e 	beq	bb6c <strcasecmp+0x5c>
    bb30:	e4d03001 	ldrb	r3, [r0], #1
    bb34:	e08e2003 	add	r2, lr, r3
    bb38:	e5d22001 	ldrb	r2, [r2, #1]
    bb3c:	e2022003 	and	r2, r2, #3
    bb40:	e3520001 	cmp	r2, #1
    bb44:	e4d12001 	ldrb	r2, [r1], #1
    bb48:	e08ec002 	add	ip, lr, r2
    bb4c:	e5dcc001 	ldrb	ip, [ip, #1]
    bb50:	e20cc003 	and	ip, ip, #3
    bb54:	02833020 	addeq	r3, r3, #32
    bb58:	e35c0001 	cmp	ip, #1
    bb5c:	1affffef 	bne	bb20 <strcasecmp+0x10>
    bb60:	e2822020 	add	r2, r2, #32
    bb64:	e0533002 	subs	r3, r3, r2
    bb68:	0afffff0 	beq	bb30 <strcasecmp+0x20>
    bb6c:	e1a00003 	mov	r0, r3
    bb70:	e49de004 	pop	{lr}		; (ldr lr, [sp], #4)
    bb74:	e12fff1e 	bx	lr
    bb78:	0000c10c 	andeq	ip, r0, ip, lsl #2
    bb7c:	00000000 	andeq	r0, r0, r0

0000bb80 <strchr>:
    bb80:	e21110ff 	ands	r1, r1, #255	; 0xff
    bb84:	e92d4010 	push	{r4, lr}
    bb88:	0a00002c 	beq	bc40 <strchr+0xc0>
    bb8c:	e3100003 	tst	r0, #3
    bb90:	0a00000e 	beq	bbd0 <strchr+0x50>
    bb94:	e5d03000 	ldrb	r3, [r0]
    bb98:	e3530000 	cmp	r3, #0
    bb9c:	0a00004a 	beq	bccc <strchr+0x14c>
    bba0:	e1510003 	cmp	r1, r3
    bba4:	12803001 	addne	r3, r0, #1
    bba8:	1a000005 	bne	bbc4 <strchr+0x44>
    bbac:	ea000021 	b	bc38 <strchr+0xb8>
    bbb0:	e4d32001 	ldrb	r2, [r3], #1
    bbb4:	e3520000 	cmp	r2, #0
    bbb8:	0a000040 	beq	bcc0 <strchr+0x140>
    bbbc:	e1510002 	cmp	r1, r2
    bbc0:	0a00001c 	beq	bc38 <strchr+0xb8>
    bbc4:	e3130003 	tst	r3, #3
    bbc8:	e1a00003 	mov	r0, r3
    bbcc:	1afffff7 	bne	bbb0 <strchr+0x30>
    bbd0:	e1814401 	orr	r4, r1, r1, lsl #8
    bbd4:	e590c000 	ldr	ip, [r0]
    bbd8:	e1844804 	orr	r4, r4, r4, lsl #16
    bbdc:	ea000000 	b	bbe4 <strchr+0x64>
    bbe0:	e5b0c004 	ldr	ip, [r0, #4]!
    bbe4:	e59f20ec 	ldr	r2, [pc, #236]	; bcd8 <strchr+0x158>
    bbe8:	e1a03002 	mov	r3, r2
    bbec:	e02ce004 	eor	lr, ip, r4
    bbf0:	e08c3003 	add	r3, ip, r3
    bbf4:	e08e2002 	add	r2, lr, r2
    bbf8:	e1c3300c 	bic	r3, r3, ip
    bbfc:	e1c2200e 	bic	r2, r2, lr
    bc00:	e59fc0d4 	ldr	ip, [pc, #212]	; bcdc <strchr+0x15c>
    bc04:	e1823003 	orr	r3, r2, r3
    bc08:	e00cc003 	and	ip, ip, r3
    bc0c:	e35c0000 	cmp	ip, #0
    bc10:	0afffff2 	beq	bbe0 <strchr+0x60>
    bc14:	e5d03000 	ldrb	r3, [r0]
    bc18:	e3530000 	cmp	r3, #0
    bc1c:	1a000003 	bne	bc30 <strchr+0xb0>
    bc20:	ea000029 	b	bccc <strchr+0x14c>
    bc24:	e5f03001 	ldrb	r3, [r0, #1]!
    bc28:	e3530000 	cmp	r3, #0
    bc2c:	0a000026 	beq	bccc <strchr+0x14c>
    bc30:	e1510003 	cmp	r1, r3
    bc34:	1afffffa 	bne	bc24 <strchr+0xa4>
    bc38:	e8bd4010 	pop	{r4, lr}
    bc3c:	e12fff1e 	bx	lr
    bc40:	e3100003 	tst	r0, #3
    bc44:	0a00000b 	beq	bc78 <strchr+0xf8>
    bc48:	e5d03000 	ldrb	r3, [r0]
    bc4c:	e3530000 	cmp	r3, #0
    bc50:	12803001 	addne	r3, r0, #1
    bc54:	1a000004 	bne	bc6c <strchr+0xec>
    bc58:	eafffff6 	b	bc38 <strchr+0xb8>
    bc5c:	e5d02000 	ldrb	r2, [r0]
    bc60:	e3520000 	cmp	r2, #0
    bc64:	e2833001 	add	r3, r3, #1
    bc68:	0afffff2 	beq	bc38 <strchr+0xb8>
    bc6c:	e3130003 	tst	r3, #3
    bc70:	e1a00003 	mov	r0, r3
    bc74:	1afffff8 	bne	bc5c <strchr+0xdc>
    bc78:	e5901000 	ldr	r1, [r0]
    bc7c:	ea000000 	b	bc84 <strchr+0x104>
    bc80:	e5b01004 	ldr	r1, [r0, #4]!
    bc84:	e59f304c 	ldr	r3, [pc, #76]	; bcd8 <strchr+0x158>
    bc88:	e59f204c 	ldr	r2, [pc, #76]	; bcdc <strchr+0x15c>
    bc8c:	e0813003 	add	r3, r1, r3
    bc90:	e1c33001 	bic	r3, r3, r1
    bc94:	e0022003 	and	r2, r2, r3
    bc98:	e3520000 	cmp	r2, #0
    bc9c:	0afffff7 	beq	bc80 <strchr+0x100>
    bca0:	e5d03000 	ldrb	r3, [r0]
    bca4:	e3530000 	cmp	r3, #0
    bca8:	0affffe2 	beq	bc38 <strchr+0xb8>
    bcac:	e5f03001 	ldrb	r3, [r0, #1]!
    bcb0:	e3530000 	cmp	r3, #0
    bcb4:	1afffffc 	bne	bcac <strchr+0x12c>
    bcb8:	e8bd4010 	pop	{r4, lr}
    bcbc:	e12fff1e 	bx	lr
    bcc0:	e1a00002 	mov	r0, r2
    bcc4:	e8bd4010 	pop	{r4, lr}
    bcc8:	e12fff1e 	bx	lr
    bccc:	e1a00003 	mov	r0, r3
    bcd0:	e8bd4010 	pop	{r4, lr}
    bcd4:	e12fff1e 	bx	lr
    bcd8:	fefefeff 	mrc2	14, 7, pc, cr14, cr15, {7}
    bcdc:	80808080 	addhi	r8, r0, r0, lsl #1

0000bce0 <strspn>:
    bce0:	e5d0c000 	ldrb	ip, [r0]
    bce4:	e35c0000 	cmp	ip, #0
    bce8:	0a000016 	beq	bd48 <strspn+0x68>
    bcec:	e92d4010 	push	{r4, lr}
    bcf0:	e1a0e000 	mov	lr, r0
    bcf4:	e5d14000 	ldrb	r4, [r1]
    bcf8:	e3540000 	cmp	r4, #0
    bcfc:	0a000008 	beq	bd24 <strspn+0x44>
    bd00:	e15c0004 	cmp	ip, r4
    bd04:	0a000009 	beq	bd30 <strspn+0x50>
    bd08:	e1a02001 	mov	r2, r1
    bd0c:	ea000001 	b	bd18 <strspn+0x38>
    bd10:	e15c0003 	cmp	ip, r3
    bd14:	0a000005 	beq	bd30 <strspn+0x50>
    bd18:	e5f23001 	ldrb	r3, [r2, #1]!
    bd1c:	e3530000 	cmp	r3, #0
    bd20:	1afffffa 	bne	bd10 <strspn+0x30>
    bd24:	e060000e 	rsb	r0, r0, lr
    bd28:	e8bd4010 	pop	{r4, lr}
    bd2c:	e12fff1e 	bx	lr
    bd30:	e5fec001 	ldrb	ip, [lr, #1]!
    bd34:	e35c0000 	cmp	ip, #0
    bd38:	1affffee 	bne	bcf8 <strspn+0x18>
    bd3c:	e060000e 	rsb	r0, r0, lr
    bd40:	e8bd4010 	pop	{r4, lr}
    bd44:	e12fff1e 	bx	lr
    bd48:	e1a0000c 	mov	r0, ip
    bd4c:	e12fff1e 	bx	lr
    bd50:	00390020 	eorseq	r0, r9, r0, lsr #32
	...
    bd60:	656c6469 	strbvs	r6, [ip, #-1129]!	; 0xfffffb97
	...

0000bd70 <ch_debug>:
    bd70:	6e69616d 	powvsez	f6, f1, #5.0
    bd74:	11411600 	cmpne	r1, r0, lsl #12
    bd78:	08440404 	stmdaeq	r4, {r2, sl}^
    bd7c:	1814100c 	ldmdane	r4, {r2, r3, ip}
    bd80:	1e1d1c00 	cdpne	12, 1, cr1, cr13, cr0, {0}
    bd84:	0000201f 	andeq	r2, r0, pc, lsl r0
	...

0000bd90 <vmt>:
    bd90:	0000a1e0 	andeq	sl, r0, r0, ror #3
    bd94:	0000a1c0 	andeq	sl, r0, r0, asr #3
    bd98:	0000a220 	andeq	sl, r0, r0, lsr #4
    bd9c:	0000a200 	andeq	sl, r0, r0, lsl #4
    bda0:	0000a210 	andeq	sl, r0, r0, lsl r2
    bda4:	0000a1f0 	strdeq	sl, [r0], -r0
    bda8:	0000a1d0 	ldrdeq	sl, [r0], -r0
    bdac:	0000a1b0 			; <UNDEFINED> instruction: 0x0000a1b0

0000bdb0 <default_config>:
    bdb0:	0001c200 	andeq	ip, r1, r0, lsl #4
	...

0000bdc0 <pal_default_config>:
    bdc0:	67617355 			; <UNDEFINED> instruction: 0x67617355
    bdc4:	25203a65 	strcs	r3, [r0, #-2661]!	; 0xfffff59b
    bdc8:	000a0d73 	andeq	r0, sl, r3, ror sp
    bdcc:	74737973 	ldrbtvc	r7, [r3], #-2419	; 0xfffff68d
    bdd0:	00656d69 	rsbeq	r6, r5, r9, ror #26
    bdd4:	0d756c25 	ldcleq	12, cr6, [r5, #-148]!	; 0xffffff6c
    bdd8:	0000000a 	andeq	r0, r0, sl
    bddc:	6f666e69 	svcvs	0x00666e69
    bde0:	00000000 	andeq	r0, r0, r0
    bde4:	6e72654b 	cdpvs	5, 7, cr6, cr2, cr11, {2}
    bde8:	203a6c65 	eorscs	r6, sl, r5, ror #24
    bdec:	20202020 	eorcs	r2, r0, r0, lsr #32
    bdf0:	73252020 			; <UNDEFINED> instruction: 0x73252020
    bdf4:	00000a0d 	andeq	r0, r0, sp, lsl #20
    bdf8:	2e352e32 	mrccs	14, 1, r2, cr5, cr2, {1}
    bdfc:	736e7531 	cmnvc	lr, #205520896	; 0xc400000
    be00:	6c626174 	stfvse	f6, [r2], #-464	; 0xfffffe30
    be04:	00000065 	andeq	r0, r0, r5, rrx
    be08:	706d6f43 	rsbvc	r6, sp, r3, asr #30
    be0c:	72656c69 	rsbvc	r6, r5, #26880	; 0x6900
    be10:	2020203a 	eorcs	r2, r0, sl, lsr r0
    be14:	73252020 			; <UNDEFINED> instruction: 0x73252020
    be18:	00000a0d 	andeq	r0, r0, sp, lsl #20
    be1c:	20434347 	subcs	r4, r3, r7, asr #6
    be20:	2e392e34 	mrccs	14, 1, r2, cr9, cr4, {1}
    be24:	30322033 	eorscc	r2, r2, r3, lsr r0
    be28:	35303531 	ldrcc	r3, [r0, #-1329]!	; 0xfffffacf
    be2c:	28203932 	stmdacs	r0!, {r1, r4, r5, r8, fp, ip, sp}
    be30:	72657270 	rsbvc	r7, r5, #112, 4
    be34:	61656c65 	cmnvs	r5, r5, ror #24
    be38:	00296573 	eoreq	r6, r9, r3, ror r5
    be3c:	68637241 	stmdavs	r3!, {r0, r6, r9, ip, sp, lr}^
    be40:	63657469 	cmnvs	r5, #1761607680	; 0x69000000
    be44:	65727574 	ldrbvs	r7, [r2, #-1396]!	; 0xfffffa8c
    be48:	7325203a 			; <UNDEFINED> instruction: 0x7325203a
    be4c:	00000a0d 	andeq	r0, r0, sp, lsl #20
    be50:	314d5241 	cmpcc	sp, r1, asr #4
    be54:	00000031 	andeq	r0, r0, r1, lsr r0
    be58:	65726f43 	ldrbvs	r6, [r2, #-3907]!	; 0xfffff0bd
    be5c:	72615620 	rsbvc	r5, r1, #32, 12	; 0x2000000
    be60:	746e6169 	strbtvc	r6, [lr], #-361	; 0xfffffe97
    be64:	7325203a 			; <UNDEFINED> instruction: 0x7325203a
    be68:	00000a0d 	andeq	r0, r0, sp, lsl #20
    be6c:	314d5241 	cmpcc	sp, r1, asr #4
    be70:	4a363731 	bmi	d99b3c <__heap_base__+0xd8d6d0>
    be74:	532d465a 			; <UNDEFINED> instruction: 0x532d465a
    be78:	00000000 	andeq	r0, r0, r0
    be7c:	74726f50 	ldrbtvc	r6, [r2], #-3920	; 0xfffff0b0
    be80:	666e4920 	strbtvs	r4, [lr], -r0, lsr #18
    be84:	20203a6f 	eorcs	r3, r0, pc, ror #20
    be88:	73252020 			; <UNDEFINED> instruction: 0x73252020
    be8c:	00000a0d 	andeq	r0, r0, sp, lsl #20
    be90:	65727550 	ldrbvs	r7, [r2, #-1360]!	; 0xfffffab0
    be94:	4d524120 	ldfmie	f4, [r2, #-128]	; 0xffffff80
    be98:	646f6d20 	strbtvs	r6, [pc], #-3360	; bea0 <pal_default_config+0xe0>
    be9c:	00000065 	andeq	r0, r0, r5, rrx
    bea0:	74616c50 	strbtvc	r6, [r1], #-3152	; 0xfffff3b0
    bea4:	6d726f66 	ldclvs	15, cr6, [r2, #-408]!	; 0xfffffe68
    bea8:	2020203a 	eorcs	r2, r0, sl, lsr r0
    beac:	73252020 			; <UNDEFINED> instruction: 0x73252020
    beb0:	00000a0d 	andeq	r0, r0, sp, lsl #20
    beb4:	324d4342 	subcc	r4, sp, #134217729	; 0x8000001
    beb8:	00353338 	eorseq	r3, r5, r8, lsr r3
    bebc:	6c697542 	cfstr64vs	mvdx7, [r9], #-264	; 0xfffffef8
    bec0:	69742064 	ldmdbvs	r4!, {r2, r5, r6, sp}^
    bec4:	203a656d 	eorscs	r6, sl, sp, ror #10
    bec8:	73252020 			; <UNDEFINED> instruction: 0x73252020
    becc:	73257325 			; <UNDEFINED> instruction: 0x73257325
    bed0:	00000a0d 	andeq	r0, r0, sp, lsl #20
    bed4:	20677541 	rsbcs	r7, r7, r1, asr #10
    bed8:	32203031 	eorcc	r3, r0, #49	; 0x31
    bedc:	00373130 	eorseq	r3, r7, r0, lsr r1
    bee0:	00202d20 	eoreq	r2, r0, r0, lsr #26
    bee4:	323a3831 	eorscc	r3, sl, #3211264	; 0x310000
    bee8:	30343a35 	eorscc	r3, r4, r5, lsr sl
    beec:	00000000 	andeq	r0, r0, r0
    bef0:	0000445e 	andeq	r4, r0, lr, asr r4
    bef4:	6c656873 	stclvs	8, cr6, [r5], #-460	; 0xfffffe34
    bef8:	0000006c 	andeq	r0, r0, ip, rrx
    befc:	68430a0d 	stmdavs	r3, {r0, r2, r3, r9, fp}^
    bf00:	4f696269 	svcmi	0x00696269
    bf04:	54522f53 	ldrbpl	r2, [r2], #-3923	; 0xfffff0ad
    bf08:	65685320 	strbvs	r5, [r8, #-800]!	; 0xfffffce0
    bf0c:	0a0d6c6c 	beq	3670c4 <__heap_base__+0x35ac58>
    bf10:	00000000 	andeq	r0, r0, r0
    bf14:	203e6863 	eorscs	r6, lr, r3, ror #16
    bf18:	00000000 	andeq	r0, r0, r0
    bf1c:	6f6c0a0d 	svcvs	0x006c0a0d
    bf20:	74756f67 	ldrbtvc	r6, [r5], #-3943	; 0xfffff099
    bf24:	00000000 	andeq	r0, r0, r0
    bf28:	206f6f74 	rsbcs	r6, pc, r4, ror pc	; <UNPREDICTABLE>
    bf2c:	796e616d 	stmdbvc	lr!, {r0, r2, r3, r5, r6, r8, sp, lr}^
    bf30:	67726120 	ldrbvs	r6, [r2, -r0, lsr #2]!
    bf34:	6e656d75 	mcrvs	13, 3, r6, cr5, cr5, {3}
    bf38:	0a0d7374 	beq	368d10 <__heap_base__+0x35c8a4>
    bf3c:	00000000 	andeq	r0, r0, r0
    bf40:	74697865 	strbtvc	r7, [r9], #-2149	; 0xfffff79b
    bf44:	00000000 	andeq	r0, r0, r0
    bf48:	706c6568 	rsbvc	r6, ip, r8, ror #10
    bf4c:	00000000 	andeq	r0, r0, r0
    bf50:	6d6d6f43 	stclvs	15, cr6, [sp, #-268]!	; 0xfffffef4
    bf54:	73646e61 	cmnvc	r4, #1552	; 0x610
    bf58:	6568203a 	strbvs	r2, [r8, #-58]!	; 0xffffffc6
    bf5c:	6520706c 	strvs	r7, [r0, #-108]!	; 0xffffff94
    bf60:	20746978 	rsbscs	r6, r4, r8, ror r9
    bf64:	00000000 	andeq	r0, r0, r0
    bf68:	00207325 	eoreq	r7, r0, r5, lsr #6
    bf6c:	00007325 	andeq	r7, r0, r5, lsr #6
    bf70:	0a0d3f20 	beq	35bbf8 <__heap_base__+0x34f78c>
	...
    bf80:	6c756e28 	ldclvs	14, cr6, [r5], #-160	; 0xffffff60
    bf84:	0000296c 	andeq	r2, r0, ip, ror #18
	...

0000bf90 <commands>:
    bf90:	0000bfd0 	ldrdeq	fp, [r0], -r0
    bf94:	0000ba40 	andeq	fp, r0, r0, asr #20
	...
    bfa0:	6e696c62 	cdpvs	12, 6, cr6, cr9, cr2, {3}
    bfa4:	0072656b 	rsbseq	r6, r2, fp, ror #10
    bfa8:	67617355 			; <UNDEFINED> instruction: 0x67617355
    bfac:	72203a65 	eorvc	r3, r0, #413696	; 0x65000
    bfb0:	6f6f6265 	svcvs	0x006f6265
    bfb4:	000a0d74 	andeq	r0, sl, r4, ror sp
    bfb8:	6e69614d 	powvsem	f6, f1, #5.0
    bfbc:	44532820 	ldrbmi	r2, [r3], #-2080	; 0xfffff7e0
    bfc0:	74732031 	ldrbtvc	r2, [r3], #-49	; 0xffffffcf
    bfc4:	65747261 	ldrbvs	r7, [r4, #-609]!	; 0xfffffd9f
    bfc8:	0a0d2964 	beq	356560 <__heap_base__+0x34a0f4>
    bfcc:	00000000 	andeq	r0, r0, r0
    bfd0:	6f626572 	svcvs	0x00626572
    bfd4:	0000746f 	andeq	r7, r0, pc, ror #8
	...

0000bfe0 <shell_config>:
    bfe0:	0000c38c 	andeq	ip, r0, ip, lsl #7
    bfe4:	0000bf90 	muleq	r0, r0, pc	; <UNPREDICTABLE>
	...

0000bff0 <_ctype_>:
    bff0:	20202000 	eorcs	r2, r0, r0
    bff4:	20202020 	eorcs	r2, r0, r0, lsr #32
    bff8:	28282020 	stmdacs	r8!, {r5, sp}
    bffc:	20282828 	eorcs	r2, r8, r8, lsr #16
    c000:	20202020 	eorcs	r2, r0, r0, lsr #32
    c004:	20202020 	eorcs	r2, r0, r0, lsr #32
    c008:	20202020 	eorcs	r2, r0, r0, lsr #32
    c00c:	20202020 	eorcs	r2, r0, r0, lsr #32
    c010:	10108820 	andsne	r8, r0, r0, lsr #16
    c014:	10101010 	andsne	r1, r0, r0, lsl r0
    c018:	10101010 	andsne	r1, r0, r0, lsl r0
    c01c:	10101010 	andsne	r1, r0, r0, lsl r0
    c020:	04040410 	streq	r0, [r4], #-1040	; 0xfffffbf0
    c024:	04040404 	streq	r0, [r4], #-1028	; 0xfffffbfc
    c028:	10040404 	andne	r0, r4, r4, lsl #8
    c02c:	10101010 	andsne	r1, r0, r0, lsl r0
    c030:	41411010 	cmpmi	r1, r0, lsl r0
    c034:	41414141 	cmpmi	r1, r1, asr #2
    c038:	01010101 	tsteq	r1, r1, lsl #2
    c03c:	01010101 	tsteq	r1, r1, lsl #2
    c040:	01010101 	tsteq	r1, r1, lsl #2
    c044:	01010101 	tsteq	r1, r1, lsl #2
    c048:	01010101 	tsteq	r1, r1, lsl #2
    c04c:	10101010 	andsne	r1, r0, r0, lsl r0
    c050:	42421010 	submi	r1, r2, #16
    c054:	42424242 	submi	r4, r2, #536870916	; 0x20000004
    c058:	02020202 	andeq	r0, r2, #536870912	; 0x20000000
    c05c:	02020202 	andeq	r0, r2, #536870912	; 0x20000000
    c060:	02020202 	andeq	r0, r2, #536870912	; 0x20000000
    c064:	02020202 	andeq	r0, r2, #536870912	; 0x20000000
    c068:	02020202 	andeq	r0, r2, #536870912	; 0x20000000
    c06c:	10101010 	andsne	r1, r0, r0, lsl r0
    c070:	00000020 	andeq	r0, r0, r0, lsr #32
	...
